; ModuleID = '543bs8w8n6vsg0rr'
source_filename = "543bs8w8n6vsg0rr"
target datalayout = "e-m:e-p270:32:32-p271:32:32-p272:64:64-i64:64-f80:128-n8:16:32:64-S128"
target triple = "x86_64-unknown-linux-gnu"

%"core::fmt::Formatter" = type { { i64, i64 }, { i64, i64 }, { {}*, [3 x i64]* }, i32, i32, i8, [7 x i8] }
%"core::fmt::builders::DebugList" = type { %"core::fmt::builders::DebugInner" }
%"core::fmt::builders::DebugInner" = type { %"core::fmt::Formatter"*, i8, i8, [6 x i8] }
%"core::fmt::Arguments" = type { { [0 x { [0 x i8]*, i64 }]*, i64 }, { i64*, i64 }, { [0 x { i8*, i64* }]*, i64 } }
%"core::panic::location::Location" = type { { [0 x i8]*, i64 }, i32, i32 }
%"[closure@src/test_enums.rs:73:1: 85:2]" = type {}
%"[closure@src/test_enums.rs:88:1: 100:2]" = type {}
%"[closure@src/test_enums.rs:37:1: 40:2]" = type {}
%"[closure@src/test_enums.rs:58:1: 70:2]" = type {}
%"[closure@src/test_enums.rs:103:1: 115:2]" = type {}
%"[closure@src/test_enums.rs:118:1: 130:2]" = type {}
%"[closure@src/test_enums.rs:43:1: 55:2]" = type {}
%"core::ops::range::RangeFull" = type {}
%"core::ptr::metadata::PtrComponents<u8>" = type { {}*, {} }
%"core::ptr::metadata::PtrRepr<u8>" = type { [1 x i64] }
%"core::option::Option<core::fmt::Arguments>" = type { {}*, [5 x i64] }
%"core::fmt::Opaque" = type {}
%"core::option::Option<core::fmt::Arguments>::Some" = type { %"core::fmt::Arguments" }
%"test::types::TestDescAndFn" = type { %"test::types::TestDesc", %"test::types::TestFn" }
%"test::types::TestDesc" = type { %"test::types::TestName", { i8*, i64 }, %"test::options::ShouldPanic", i8, i8, i8, i8, [4 x i8] }
%"test::types::TestName" = type { i8, [39 x i8] }
%"test::options::ShouldPanic" = type { i64, [2 x i64] }
%"test::types::TestFn" = type { i64, [2 x i64] }
%"unwind::libunwind::_Unwind_Exception" = type { i64, void (i32, %"unwind::libunwind::_Unwind_Exception"*)*, [6 x i64] }
%"unwind::libunwind::_Unwind_Context" = type { [0 x i8] }

@vtable.0 = private unnamed_addr constant <{ i8*, [16 x i8], i8*, i8*, i8* }> <{ i8* bitcast (void (i64**)* @"_ZN4core3ptr85drop_in_place$LT$std..rt..lang_start$LT$$LP$$RP$$GT$..$u7b$$u7b$closure$u7d$$u7d$$GT$17h591352874f4f157eE" to i8*), [16 x i8] c"\08\00\00\00\00\00\00\00\08\00\00\00\00\00\00\00", i8* bitcast (i32 (i64**)* @"_ZN4core3ops8function6FnOnce40call_once$u7b$$u7b$vtable.shim$u7d$$u7d$17h3e7c8fa52320df5dE" to i8*), i8* bitcast (i32 (i64**)* @"_ZN3std2rt10lang_start28_$u7b$$u7b$closure$u7d$$u7d$17h52c5ae235102c8d1E" to i8*), i8* bitcast (i32 (i64**)* @"_ZN3std2rt10lang_start28_$u7b$$u7b$closure$u7d$$u7d$17h52c5ae235102c8d1E" to i8*) }>, align 8, !dbg !0
@vtable.1 = private unnamed_addr constant <{ i8*, [16 x i8], i8* }> <{ i8* bitcast (void (i32**)* @"_ZN4core3ptr28drop_in_place$LT$$RF$i32$GT$17h7ec66b900a4eee11E" to i8*), [16 x i8] c"\08\00\00\00\00\00\00\00\08\00\00\00\00\00\00\00", i8* bitcast (i1 (i32**, %"core::fmt::Formatter"*)* @"_ZN42_$LT$$RF$T$u20$as$u20$core..fmt..Debug$GT$3fmt17h54a4743f53e7e3feE" to i8*) }>, align 8, !dbg !24
@alloc162 = private unnamed_addr constant <{ [12 x i8] }> <{ [12 x i8] c"invalid args" }>, align 1
@alloc163 = private unnamed_addr constant <{ i8*, [8 x i8] }> <{ i8* getelementptr inbounds (<{ [12 x i8] }>, <{ [12 x i8] }>* @alloc162, i32 0, i32 0, i32 0), [8 x i8] c"\0C\00\00\00\00\00\00\00" }>, align 8
@alloc165 = private unnamed_addr constant <{}> zeroinitializer, align 8
@alloc344 = private unnamed_addr constant <{ [75 x i8] }> <{ [75 x i8] c"/rustc/d394408fb38c4de61f765a3ed5189d2731a1da91/library/core/src/fmt/mod.rs" }>, align 1
@alloc345 = private unnamed_addr constant <{ i8*, [16 x i8] }> <{ i8* getelementptr inbounds (<{ [75 x i8] }>, <{ [75 x i8] }>* @alloc344, i32 0, i32 0, i32 0), [16 x i8] c"K\00\00\00\00\00\00\00\88\01\00\00\0D\00\00\00" }>, align 8
@vtable.2 = private unnamed_addr constant <{ i8*, [16 x i8], i8* }> <{ i8* bitcast (void ([6 x i32]**)* @"_ZN4core3ptr49drop_in_place$LT$$RF$$u5b$i32$u3b$$u20$6$u5d$$GT$17h8238de2a00adf46bE" to i8*), [16 x i8] c"\08\00\00\00\00\00\00\00\08\00\00\00\00\00\00\00", i8* bitcast (i1 ([6 x i32]**, %"core::fmt::Formatter"*)* @"_ZN42_$LT$$RF$T$u20$as$u20$core..fmt..Debug$GT$3fmt17h712c4898028879caE" to i8*) }>, align 8, !dbg !34
@vtable.3 = private unnamed_addr constant <{ i8*, [16 x i8], i8* }> <{ i8* bitcast (void ([1 x i32]**)* @"_ZN4core3ptr49drop_in_place$LT$$RF$$u5b$i32$u3b$$u20$1$u5d$$GT$17hb90f7df8ef5ae85eE" to i8*), [16 x i8] c"\08\00\00\00\00\00\00\00\08\00\00\00\00\00\00\00", i8* bitcast (i1 ([1 x i32]**, %"core::fmt::Formatter"*)* @"_ZN42_$LT$$RF$T$u20$as$u20$core..fmt..Debug$GT$3fmt17hc03f1b85accb5763E" to i8*) }>, align 8, !dbg !46
@vtable.4 = private unnamed_addr constant <{ i8*, [16 x i8], i8* }> <{ i8* bitcast (void ([4 x i32]**)* @"_ZN4core3ptr49drop_in_place$LT$$RF$$u5b$i32$u3b$$u20$4$u5d$$GT$17h9e0521c4efa00d88E" to i8*), [16 x i8] c"\08\00\00\00\00\00\00\00\08\00\00\00\00\00\00\00", i8* bitcast (i1 ([4 x i32]**, %"core::fmt::Formatter"*)* @"_ZN42_$LT$$RF$T$u20$as$u20$core..fmt..Debug$GT$3fmt17h92a1bed0018681f5E" to i8*) }>, align 8, !dbg !58
@vtable.5 = private unnamed_addr constant <{ i8*, [16 x i8], i8* }> <{ i8* bitcast (void ([10 x i32]**)* @"_ZN4core3ptr50drop_in_place$LT$$RF$$u5b$i32$u3b$$u20$10$u5d$$GT$17h90d6b078349ea47dE" to i8*), [16 x i8] c"\08\00\00\00\00\00\00\00\08\00\00\00\00\00\00\00", i8* bitcast (i1 ([10 x i32]**, %"core::fmt::Formatter"*)* @"_ZN42_$LT$$RF$T$u20$as$u20$core..fmt..Debug$GT$3fmt17hecf0f57663ba443eE" to i8*) }>, align 8, !dbg !70
@vtable.6 = private unnamed_addr constant <{ i8*, [16 x i8], i8* }> <{ i8* bitcast (void ([7 x i32]**)* @"_ZN4core3ptr49drop_in_place$LT$$RF$$u5b$i32$u3b$$u20$7$u5d$$GT$17h889d1b24797287b7E" to i8*), [16 x i8] c"\08\00\00\00\00\00\00\00\08\00\00\00\00\00\00\00", i8* bitcast (i1 ([7 x i32]**, %"core::fmt::Formatter"*)* @"_ZN42_$LT$$RF$T$u20$as$u20$core..fmt..Debug$GT$3fmt17h73b62204be0d9aa4E" to i8*) }>, align 8, !dbg !82
@alloc130 = private unnamed_addr constant <{ [4 x i8] }> zeroinitializer, align 4
@alloc153 = private unnamed_addr constant <{ [67 x i8] }> <{ [67 x i8] c"the test returned a termination value with a non-zero status code (" }>, align 1
@alloc155 = private unnamed_addr constant <{ [27 x i8] }> <{ [27 x i8] c") which indicates a failure" }>, align 1
@alloc154 = private unnamed_addr constant <{ i8*, [8 x i8], i8*, [8 x i8] }> <{ i8* getelementptr inbounds (<{ [67 x i8] }>, <{ [67 x i8] }>* @alloc153, i32 0, i32 0, i32 0), [8 x i8] c"C\00\00\00\00\00\00\00", i8* getelementptr inbounds (<{ [27 x i8] }>, <{ [27 x i8] }>* @alloc155, i32 0, i32 0, i32 0), [8 x i8] c"\1B\00\00\00\00\00\00\00" }>, align 8
@alloc361 = private unnamed_addr constant <{ [71 x i8] }> <{ [71 x i8] c"/rustc/d394408fb38c4de61f765a3ed5189d2731a1da91/library/test/src/lib.rs" }>, align 1
@alloc362 = private unnamed_addr constant <{ i8*, [16 x i8] }> <{ i8* getelementptr inbounds (<{ [71 x i8] }>, <{ [71 x i8] }>* @alloc361, i32 0, i32 0, i32 0), [16 x i8] c"G\00\00\00\00\00\00\00\B8\00\00\00\05\00\00\00" }>, align 8
@alloc377 = private unnamed_addr constant <{ [18 x i8] }> <{ [18 x i8] c"src/enum_as_int.rs" }>, align 1
@alloc364 = private unnamed_addr constant <{ i8*, [16 x i8] }> <{ i8* getelementptr inbounds (<{ [18 x i8] }>, <{ [18 x i8] }>* @alloc377, i32 0, i32 0, i32 0), [16 x i8] c"\12\00\00\00\00\00\00\00\1A\00\00\00\0D\00\00\00" }>, align 8
@str.7 = internal constant [28 x i8] c"attempt to add with overflow"
@alloc366 = private unnamed_addr constant <{ i8*, [16 x i8] }> <{ i8* getelementptr inbounds (<{ [18 x i8] }>, <{ [18 x i8] }>* @alloc377, i32 0, i32 0, i32 0), [16 x i8] c"\12\00\00\00\00\00\00\00'\00\00\00\0D\00\00\00" }>, align 8
@alloc368 = private unnamed_addr constant <{ i8*, [16 x i8] }> <{ i8* getelementptr inbounds (<{ [18 x i8] }>, <{ [18 x i8] }>* @alloc377, i32 0, i32 0, i32 0), [16 x i8] c"\12\00\00\00\00\00\00\00.\00\00\00\0D\00\00\00" }>, align 8
@alloc370 = private unnamed_addr constant <{ i8*, [16 x i8] }> <{ i8* getelementptr inbounds (<{ [18 x i8] }>, <{ [18 x i8] }>* @alloc377, i32 0, i32 0, i32 0), [16 x i8] c"\12\00\00\00\00\00\00\003\00\00\00\0D\00\00\00" }>, align 8
@alloc372 = private unnamed_addr constant <{ i8*, [16 x i8] }> <{ i8* getelementptr inbounds (<{ [18 x i8] }>, <{ [18 x i8] }>* @alloc377, i32 0, i32 0, i32 0), [16 x i8] c"\12\00\00\00\00\00\00\009\00\00\00\0D\00\00\00" }>, align 8
@alloc374 = private unnamed_addr constant <{ i8*, [16 x i8] }> <{ i8* getelementptr inbounds (<{ [18 x i8] }>, <{ [18 x i8] }>* @alloc377, i32 0, i32 0, i32 0), [16 x i8] c"\12\00\00\00\00\00\00\00@\00\00\00\0D\00\00\00" }>, align 8
@alloc376 = private unnamed_addr constant <{ i8*, [16 x i8] }> <{ i8* getelementptr inbounds (<{ [18 x i8] }>, <{ [18 x i8] }>* @alloc377, i32 0, i32 0, i32 0), [16 x i8] c"\12\00\00\00\00\00\00\00G\00\00\00\0D\00\00\00" }>, align 8
@alloc378 = private unnamed_addr constant <{ i8*, [16 x i8] }> <{ i8* getelementptr inbounds (<{ [18 x i8] }>, <{ [18 x i8] }>* @alloc377, i32 0, i32 0, i32 0), [16 x i8] c"\12\00\00\00\00\00\00\00L\00\00\00\0D\00\00\00" }>, align 8
@_ZN10enum_tests8top_enum6rust_e17h17a8b40d99714f2cE = internal global <{ [4 x i8] }> <{ [4 x i8] c"\01\00\00\00" }>, align 4, !dbg !94
@alloc387 = private unnamed_addr constant <{ [15 x i8] }> <{ [15 x i8] c"src/big_enum.rs" }>, align 1
@alloc380 = private unnamed_addr constant <{ i8*, [16 x i8] }> <{ i8* getelementptr inbounds (<{ [15 x i8] }>, <{ [15 x i8] }>* @alloc387, i32 0, i32 0, i32 0), [16 x i8] c"\0F\00\00\00\00\00\00\00\1F\00\00\00\09\00\00\00" }>, align 8
@alloc382 = private unnamed_addr constant <{ i8*, [16 x i8] }> <{ i8* getelementptr inbounds (<{ [15 x i8] }>, <{ [15 x i8] }>* @alloc387, i32 0, i32 0, i32 0), [16 x i8] c"\0F\00\00\00\00\00\00\00#\00\00\00\09\00\00\00" }>, align 8
@alloc384 = private unnamed_addr constant <{ i8*, [16 x i8] }> <{ i8* getelementptr inbounds (<{ [15 x i8] }>, <{ [15 x i8] }>* @alloc387, i32 0, i32 0, i32 0), [16 x i8] c"\0F\00\00\00\00\00\00\00'\00\00\00\09\00\00\00" }>, align 8
@alloc386 = private unnamed_addr constant <{ i8*, [16 x i8] }> <{ i8* getelementptr inbounds (<{ [15 x i8] }>, <{ [15 x i8] }>* @alloc387, i32 0, i32 0, i32 0), [16 x i8] c"\0F\00\00\00\00\00\00\00+\00\00\00\09\00\00\00" }>, align 8
@alloc388 = private unnamed_addr constant <{ i8*, [16 x i8] }> <{ i8* getelementptr inbounds (<{ [15 x i8] }>, <{ [15 x i8] }>* @alloc387, i32 0, i32 0, i32 0), [16 x i8] c"\0F\00\00\00\00\00\00\00/\00\00\00\09\00\00\00" }>, align 8
@0 = private unnamed_addr constant <{ [5 x i8], [3 x i8] }> <{ [5 x i8] c"\02\00\00\00\00", [3 x i8] undef }>, align 4
@alloc138 = private unnamed_addr constant <{ [4 x i8] }> <{ [4 x i8] c"\01\00\00\00" }>, align 4
@alloc411 = private unnamed_addr constant <{ [17 x i8] }> <{ [17 x i8] c"src/test_enums.rs" }>, align 1
@alloc390 = private unnamed_addr constant <{ i8*, [16 x i8] }> <{ i8* getelementptr inbounds (<{ [17 x i8] }>, <{ [17 x i8] }>* @alloc411, i32 0, i32 0, i32 0), [16 x i8] c"\11\00\00\00\00\00\00\005\00\00\00\05\00\00\00" }>, align 8
@alloc392 = private unnamed_addr constant <{ i8*, [16 x i8] }> <{ i8* getelementptr inbounds (<{ [17 x i8] }>, <{ [17 x i8] }>* @alloc411, i32 0, i32 0, i32 0), [16 x i8] c"\11\00\00\00\00\00\00\006\00\00\00\05\00\00\00" }>, align 8
@alloc394 = private unnamed_addr constant <{ i8*, [16 x i8] }> <{ i8* getelementptr inbounds (<{ [17 x i8] }>, <{ [17 x i8] }>* @alloc411, i32 0, i32 0, i32 0), [16 x i8] c"\11\00\00\00\00\00\00\00D\00\00\00\05\00\00\00" }>, align 8
@alloc396 = private unnamed_addr constant <{ i8*, [16 x i8] }> <{ i8* getelementptr inbounds (<{ [17 x i8] }>, <{ [17 x i8] }>* @alloc411, i32 0, i32 0, i32 0), [16 x i8] c"\11\00\00\00\00\00\00\00E\00\00\00\05\00\00\00" }>, align 8
@alloc398 = private unnamed_addr constant <{ i8*, [16 x i8] }> <{ i8* getelementptr inbounds (<{ [17 x i8] }>, <{ [17 x i8] }>* @alloc411, i32 0, i32 0, i32 0), [16 x i8] c"\11\00\00\00\00\00\00\00S\00\00\00\05\00\00\00" }>, align 8
@alloc400 = private unnamed_addr constant <{ i8*, [16 x i8] }> <{ i8* getelementptr inbounds (<{ [17 x i8] }>, <{ [17 x i8] }>* @alloc411, i32 0, i32 0, i32 0), [16 x i8] c"\11\00\00\00\00\00\00\00T\00\00\00\05\00\00\00" }>, align 8
@alloc402 = private unnamed_addr constant <{ i8*, [16 x i8] }> <{ i8* getelementptr inbounds (<{ [17 x i8] }>, <{ [17 x i8] }>* @alloc411, i32 0, i32 0, i32 0), [16 x i8] c"\11\00\00\00\00\00\00\00b\00\00\00\05\00\00\00" }>, align 8
@alloc404 = private unnamed_addr constant <{ i8*, [16 x i8] }> <{ i8* getelementptr inbounds (<{ [17 x i8] }>, <{ [17 x i8] }>* @alloc411, i32 0, i32 0, i32 0), [16 x i8] c"\11\00\00\00\00\00\00\00c\00\00\00\05\00\00\00" }>, align 8
@alloc406 = private unnamed_addr constant <{ i8*, [16 x i8] }> <{ i8* getelementptr inbounds (<{ [17 x i8] }>, <{ [17 x i8] }>* @alloc411, i32 0, i32 0, i32 0), [16 x i8] c"\11\00\00\00\00\00\00\00q\00\00\00\05\00\00\00" }>, align 8
@alloc408 = private unnamed_addr constant <{ i8*, [16 x i8] }> <{ i8* getelementptr inbounds (<{ [17 x i8] }>, <{ [17 x i8] }>* @alloc411, i32 0, i32 0, i32 0), [16 x i8] c"\11\00\00\00\00\00\00\00r\00\00\00\05\00\00\00" }>, align 8
@alloc410 = private unnamed_addr constant <{ i8*, [16 x i8] }> <{ i8* getelementptr inbounds (<{ [17 x i8] }>, <{ [17 x i8] }>* @alloc411, i32 0, i32 0, i32 0), [16 x i8] c"\11\00\00\00\00\00\00\00\80\00\00\00\05\00\00\00" }>, align 8
@alloc412 = private unnamed_addr constant <{ i8*, [16 x i8] }> <{ i8* getelementptr inbounds (<{ [17 x i8] }>, <{ [17 x i8] }>* @alloc411, i32 0, i32 0, i32 0), [16 x i8] c"\11\00\00\00\00\00\00\00\81\00\00\00\05\00\00\00" }>, align 8
@alloc34 = private unnamed_addr constant <{ [25 x i8] }> <{ [25 x i8] c"test_enums::test_variants" }>, align 1
@alloc310 = private unnamed_addr constant <{ [1 x i8], [7 x i8], i8*, [8 x i8], [16 x i8], [8 x i8], [8 x i8], [8 x i8], [16 x i8], [4 x i8], [4 x i8], [8 x i8], i8*, [8 x i8] }> <{ [1 x i8] zeroinitializer, [7 x i8] undef, i8* getelementptr inbounds (<{ [25 x i8] }>, <{ [25 x i8] }>* @alloc34, i32 0, i32 0, i32 0), [8 x i8] c"\19\00\00\00\00\00\00\00", [16 x i8] undef, [8 x i8] zeroinitializer, [8 x i8] undef, [8 x i8] zeroinitializer, [16 x i8] undef, [4 x i8] zeroinitializer, [4 x i8] undef, [8 x i8] zeroinitializer, i8* bitcast (void ()* @_ZN4core3ops8function6FnOnce9call_once17h9e7a1f5608996941E to i8*), [8 x i8] undef }>, align 8
@alloc44 = private unnamed_addr constant <{ [23 x i8] }> <{ [23 x i8] c"test_enums::test_buffer" }>, align 1
@alloc311 = private unnamed_addr constant <{ [1 x i8], [7 x i8], i8*, [8 x i8], [16 x i8], [8 x i8], [8 x i8], [8 x i8], [16 x i8], [4 x i8], [4 x i8], [8 x i8], i8*, [8 x i8] }> <{ [1 x i8] zeroinitializer, [7 x i8] undef, i8* getelementptr inbounds (<{ [23 x i8] }>, <{ [23 x i8] }>* @alloc44, i32 0, i32 0, i32 0), [8 x i8] c"\17\00\00\00\00\00\00\00", [16 x i8] undef, [8 x i8] zeroinitializer, [8 x i8] undef, [8 x i8] zeroinitializer, [16 x i8] undef, [4 x i8] zeroinitializer, [4 x i8] undef, [8 x i8] zeroinitializer, i8* bitcast (void ()* @_ZN4core3ops8function6FnOnce9call_once17hffee2510c829820cE to i8*), [8 x i8] undef }>, align 8
@alloc54 = private unnamed_addr constant <{ [24 x i8] }> <{ [24 x i8] c"test_enums::test_buffer2" }>, align 1
@alloc312 = private unnamed_addr constant <{ [1 x i8], [7 x i8], i8*, [8 x i8], [16 x i8], [8 x i8], [8 x i8], [8 x i8], [16 x i8], [4 x i8], [4 x i8], [8 x i8], i8*, [8 x i8] }> <{ [1 x i8] zeroinitializer, [7 x i8] undef, i8* getelementptr inbounds (<{ [24 x i8] }>, <{ [24 x i8] }>* @alloc54, i32 0, i32 0, i32 0), [8 x i8] c"\18\00\00\00\00\00\00\00", [16 x i8] undef, [8 x i8] zeroinitializer, [8 x i8] undef, [8 x i8] zeroinitializer, [16 x i8] undef, [4 x i8] zeroinitializer, [4 x i8] undef, [8 x i8] zeroinitializer, i8* bitcast (void ()* @_ZN4core3ops8function6FnOnce9call_once17hb5a505783b20948bE to i8*), [8 x i8] undef }>, align 8
@alloc64 = private unnamed_addr constant <{ [24 x i8] }> <{ [24 x i8] c"test_enums::test_buffer3" }>, align 1
@alloc313 = private unnamed_addr constant <{ [1 x i8], [7 x i8], i8*, [8 x i8], [16 x i8], [8 x i8], [8 x i8], [8 x i8], [16 x i8], [4 x i8], [4 x i8], [8 x i8], i8*, [8 x i8] }> <{ [1 x i8] zeroinitializer, [7 x i8] undef, i8* getelementptr inbounds (<{ [24 x i8] }>, <{ [24 x i8] }>* @alloc64, i32 0, i32 0, i32 0), [8 x i8] c"\18\00\00\00\00\00\00\00", [16 x i8] undef, [8 x i8] zeroinitializer, [8 x i8] undef, [8 x i8] zeroinitializer, [16 x i8] undef, [4 x i8] zeroinitializer, [4 x i8] undef, [8 x i8] zeroinitializer, i8* bitcast (void ()* @_ZN4core3ops8function6FnOnce9call_once17h42fca45f7b90fa63E to i8*), [8 x i8] undef }>, align 8
@alloc74 = private unnamed_addr constant <{ [24 x i8] }> <{ [24 x i8] c"test_enums::test_buffer4" }>, align 1
@alloc314 = private unnamed_addr constant <{ [1 x i8], [7 x i8], i8*, [8 x i8], [16 x i8], [8 x i8], [8 x i8], [8 x i8], [16 x i8], [4 x i8], [4 x i8], [8 x i8], i8*, [8 x i8] }> <{ [1 x i8] zeroinitializer, [7 x i8] undef, i8* getelementptr inbounds (<{ [24 x i8] }>, <{ [24 x i8] }>* @alloc74, i32 0, i32 0, i32 0), [8 x i8] c"\18\00\00\00\00\00\00\00", [16 x i8] undef, [8 x i8] zeroinitializer, [8 x i8] undef, [8 x i8] zeroinitializer, [16 x i8] undef, [4 x i8] zeroinitializer, [4 x i8] undef, [8 x i8] zeroinitializer, i8* bitcast (void ()* @_ZN4core3ops8function6FnOnce9call_once17h9341cb19c5c24755E to i8*), [8 x i8] undef }>, align 8
@alloc84 = private unnamed_addr constant <{ [24 x i8] }> <{ [24 x i8] c"test_enums::test_buffer5" }>, align 1
@alloc315 = private unnamed_addr constant <{ [1 x i8], [7 x i8], i8*, [8 x i8], [16 x i8], [8 x i8], [8 x i8], [8 x i8], [16 x i8], [4 x i8], [4 x i8], [8 x i8], i8*, [8 x i8] }> <{ [1 x i8] zeroinitializer, [7 x i8] undef, i8* getelementptr inbounds (<{ [24 x i8] }>, <{ [24 x i8] }>* @alloc84, i32 0, i32 0, i32 0), [8 x i8] c"\18\00\00\00\00\00\00\00", [16 x i8] undef, [8 x i8] zeroinitializer, [8 x i8] undef, [8 x i8] zeroinitializer, [16 x i8] undef, [4 x i8] zeroinitializer, [4 x i8] undef, [8 x i8] zeroinitializer, i8* bitcast (void ()* @_ZN4core3ops8function6FnOnce9call_once17hb8425bf5565e8fe7E to i8*), [8 x i8] undef }>, align 8
@alloc94 = private unnamed_addr constant <{ [24 x i8] }> <{ [24 x i8] c"test_enums::test_buffer6" }>, align 1
@alloc316 = private unnamed_addr constant <{ [1 x i8], [7 x i8], i8*, [8 x i8], [16 x i8], [8 x i8], [8 x i8], [8 x i8], [16 x i8], [4 x i8], [4 x i8], [8 x i8], i8*, [8 x i8] }> <{ [1 x i8] zeroinitializer, [7 x i8] undef, i8* getelementptr inbounds (<{ [24 x i8] }>, <{ [24 x i8] }>* @alloc94, i32 0, i32 0, i32 0), [8 x i8] c"\18\00\00\00\00\00\00\00", [16 x i8] undef, [8 x i8] zeroinitializer, [8 x i8] undef, [8 x i8] zeroinitializer, [16 x i8] undef, [4 x i8] zeroinitializer, [4 x i8] undef, [8 x i8] zeroinitializer, i8* bitcast (void ()* @_ZN4core3ops8function6FnOnce9call_once17hda4d63f67d682cdaE to i8*), [8 x i8] undef }>, align 8
@alloc317 = private unnamed_addr constant <{ i8*, i8*, i8*, i8*, i8*, i8*, i8* }> <{ i8* getelementptr inbounds (<{ [1 x i8], [7 x i8], i8*, [8 x i8], [16 x i8], [8 x i8], [8 x i8], [8 x i8], [16 x i8], [4 x i8], [4 x i8], [8 x i8], i8*, [8 x i8] }>, <{ [1 x i8], [7 x i8], i8*, [8 x i8], [16 x i8], [8 x i8], [8 x i8], [8 x i8], [16 x i8], [4 x i8], [4 x i8], [8 x i8], i8*, [8 x i8] }>* @alloc310, i32 0, i32 0, i32 0), i8* getelementptr inbounds (<{ [1 x i8], [7 x i8], i8*, [8 x i8], [16 x i8], [8 x i8], [8 x i8], [8 x i8], [16 x i8], [4 x i8], [4 x i8], [8 x i8], i8*, [8 x i8] }>, <{ [1 x i8], [7 x i8], i8*, [8 x i8], [16 x i8], [8 x i8], [8 x i8], [8 x i8], [16 x i8], [4 x i8], [4 x i8], [8 x i8], i8*, [8 x i8] }>* @alloc311, i32 0, i32 0, i32 0), i8* getelementptr inbounds (<{ [1 x i8], [7 x i8], i8*, [8 x i8], [16 x i8], [8 x i8], [8 x i8], [8 x i8], [16 x i8], [4 x i8], [4 x i8], [8 x i8], i8*, [8 x i8] }>, <{ [1 x i8], [7 x i8], i8*, [8 x i8], [16 x i8], [8 x i8], [8 x i8], [8 x i8], [16 x i8], [4 x i8], [4 x i8], [8 x i8], i8*, [8 x i8] }>* @alloc312, i32 0, i32 0, i32 0), i8* getelementptr inbounds (<{ [1 x i8], [7 x i8], i8*, [8 x i8], [16 x i8], [8 x i8], [8 x i8], [8 x i8], [16 x i8], [4 x i8], [4 x i8], [8 x i8], i8*, [8 x i8] }>, <{ [1 x i8], [7 x i8], i8*, [8 x i8], [16 x i8], [8 x i8], [8 x i8], [8 x i8], [16 x i8], [4 x i8], [4 x i8], [8 x i8], i8*, [8 x i8] }>* @alloc313, i32 0, i32 0, i32 0), i8* getelementptr inbounds (<{ [1 x i8], [7 x i8], i8*, [8 x i8], [16 x i8], [8 x i8], [8 x i8], [8 x i8], [16 x i8], [4 x i8], [4 x i8], [8 x i8], i8*, [8 x i8] }>, <{ [1 x i8], [7 x i8], i8*, [8 x i8], [16 x i8], [8 x i8], [8 x i8], [8 x i8], [16 x i8], [4 x i8], [4 x i8], [8 x i8], i8*, [8 x i8] }>* @alloc314, i32 0, i32 0, i32 0), i8* getelementptr inbounds (<{ [1 x i8], [7 x i8], i8*, [8 x i8], [16 x i8], [8 x i8], [8 x i8], [8 x i8], [16 x i8], [4 x i8], [4 x i8], [8 x i8], i8*, [8 x i8] }>, <{ [1 x i8], [7 x i8], i8*, [8 x i8], [16 x i8], [8 x i8], [8 x i8], [8 x i8], [16 x i8], [4 x i8], [4 x i8], [8 x i8], i8*, [8 x i8] }>* @alloc315, i32 0, i32 0, i32 0), i8* getelementptr inbounds (<{ [1 x i8], [7 x i8], i8*, [8 x i8], [16 x i8], [8 x i8], [8 x i8], [8 x i8], [16 x i8], [4 x i8], [4 x i8], [8 x i8], i8*, [8 x i8] }>, <{ [1 x i8], [7 x i8], i8*, [8 x i8], [16 x i8], [8 x i8], [8 x i8], [8 x i8], [16 x i8], [4 x i8], [4 x i8], [8 x i8], i8*, [8 x i8] }>* @alloc316, i32 0, i32 0, i32 0) }>, align 8
@__rustc_debug_gdb_scripts_section__ = linkonce_odr unnamed_addr constant [34 x i8] c"\01gdb_load_rust_pretty_printers.py\00", section ".debug_gdb_scripts", align 1

; std::sys_common::backtrace::__rust_begin_short_backtrace
; Function Attrs: noinline nonlazybind uwtable
define internal void @_ZN3std10sys_common9backtrace28__rust_begin_short_backtrace17h75bcc83fddf6bf54E(void ()* %f) unnamed_addr #0 personality i32 (i32, i32, i64, %"unwind::libunwind::_Unwind_Exception"*, %"unwind::libunwind::_Unwind_Context"*)* @rust_eh_personality !dbg !126 {
start:
  %0 = alloca { i8*, i32 }, align 8
  %dummy.dbg.spill = alloca {}, align 1
  %f.dbg.spill = alloca void ()*, align 8
  %result.dbg.spill = alloca {}, align 1
  call void @llvm.dbg.declare(metadata {}* %result.dbg.spill, metadata !134, metadata !DIExpression()), !dbg !139
  store void ()* %f, void ()** %f.dbg.spill, align 8
  call void @llvm.dbg.declare(metadata void ()** %f.dbg.spill, metadata !133, metadata !DIExpression()), !dbg !140
  call void @llvm.dbg.declare(metadata {}* %dummy.dbg.spill, metadata !141, metadata !DIExpression()), !dbg !150
; call core::ops::function::FnOnce::call_once
  call void @_ZN4core3ops8function6FnOnce9call_once17h8e874ff8dcdeef97E(void ()* %f), !dbg !152
  br label %bb1, !dbg !152

bb1:                                              ; preds = %start
  call void asm sideeffect "", "r,~{memory}"({}* undef), !dbg !150, !srcloc !153
  br label %bb4, !dbg !150

bb4:                                              ; preds = %bb1
  ret void, !dbg !154

bb2:                                              ; No predecessors!
  br label %bb3, !dbg !155

bb3:                                              ; preds = %bb2
  %1 = bitcast { i8*, i32 }* %0 to i8**, !dbg !156
  %2 = load i8*, i8** %1, align 8, !dbg !156
  %3 = getelementptr inbounds { i8*, i32 }, { i8*, i32 }* %0, i32 0, i32 1, !dbg !156
  %4 = load i32, i32* %3, align 8, !dbg !156
  %5 = insertvalue { i8*, i32 } undef, i8* %2, 0, !dbg !156
  %6 = insertvalue { i8*, i32 } %5, i32 %4, 1, !dbg !156
  resume { i8*, i32 } %6, !dbg !156
}

; std::rt::lang_start
; Function Attrs: nonlazybind uwtable
define hidden i64 @_ZN3std2rt10lang_start17h24c25c811e2636c7E(void ()* %main, i64 %argc, i8** %argv) unnamed_addr #1 !dbg !157 {
start:
  %v.dbg.spill = alloca i64, align 8
  %argv.dbg.spill = alloca i8**, align 8
  %argc.dbg.spill = alloca i64, align 8
  %main.dbg.spill = alloca void ()*, align 8
  %_8 = alloca i64*, align 8
  %_4 = alloca i64, align 8
  store void ()* %main, void ()** %main.dbg.spill, align 8
  call void @llvm.dbg.declare(metadata void ()** %main.dbg.spill, metadata !165, metadata !DIExpression()), !dbg !170
  store i64 %argc, i64* %argc.dbg.spill, align 8
  call void @llvm.dbg.declare(metadata i64* %argc.dbg.spill, metadata !166, metadata !DIExpression()), !dbg !171
  store i8** %argv, i8*** %argv.dbg.spill, align 8
  call void @llvm.dbg.declare(metadata i8*** %argv.dbg.spill, metadata !167, metadata !DIExpression()), !dbg !172
  %0 = bitcast i64** %_8 to void ()**, !dbg !173
  store void ()* %main, void ()** %0, align 8, !dbg !173
  %_5.0 = bitcast i64** %_8 to {}*, !dbg !174
; call std::rt::lang_start_internal
  %1 = call i64 @_ZN3std2rt19lang_start_internal17h498f9556b87c8e5fE({}* align 1 %_5.0, [3 x i64]* align 8 bitcast (<{ i8*, [16 x i8], i8*, i8*, i8* }>* @vtable.0 to [3 x i64]*), i64 %argc, i8** %argv), !dbg !175
  store i64 %1, i64* %_4, align 8, !dbg !175
  br label %bb1, !dbg !175

bb1:                                              ; preds = %start
  %v = load i64, i64* %_4, align 8, !dbg !176
  store i64 %v, i64* %v.dbg.spill, align 8, !dbg !176
  call void @llvm.dbg.declare(metadata i64* %v.dbg.spill, metadata !168, metadata !DIExpression()), !dbg !177
  ret i64 %v, !dbg !178
}

; std::rt::lang_start::{{closure}}
; Function Attrs: inlinehint nonlazybind uwtable
define internal i32 @"_ZN3std2rt10lang_start28_$u7b$$u7b$closure$u7d$$u7d$17h52c5ae235102c8d1E"(i64** align 8 %_1) unnamed_addr #2 !dbg !179 {
start:
  %self.dbg.spill = alloca i8*, align 8
  %_1.dbg.spill = alloca i64**, align 8
  %self = alloca i8, align 1
  store i64** %_1, i64*** %_1.dbg.spill, align 8
  %0 = load i64**, i64*** %_1.dbg.spill, align 8, !nonnull !23, !align !185, !noundef !23
  %1 = bitcast i64** %0 to void ()**
  call void @llvm.dbg.declare(metadata i64*** %_1.dbg.spill, metadata !184, metadata !DIExpression(DW_OP_deref)), !dbg !186
  call void @llvm.dbg.declare(metadata i8* %self, metadata !187, metadata !DIExpression()), !dbg !205
  %2 = bitcast i64** %_1 to void ()**, !dbg !207
  %_4 = load void ()*, void ()** %2, align 8, !dbg !207, !nonnull !23, !noundef !23
; call std::sys_common::backtrace::__rust_begin_short_backtrace
  call void @_ZN3std10sys_common9backtrace28__rust_begin_short_backtrace17h75bcc83fddf6bf54E(void ()* %_4), !dbg !206
  br label %bb1, !dbg !206

bb1:                                              ; preds = %start
; call <() as std::process::Termination>::report
  %3 = call i8 @"_ZN54_$LT$$LP$$RP$$u20$as$u20$std..process..Termination$GT$6report17h38e8decf54d6efdaE"(), !dbg !206
  store i8 %3, i8* %self, align 1, !dbg !206
  br label %bb2, !dbg !206

bb2:                                              ; preds = %bb1
  store i8* %self, i8** %self.dbg.spill, align 8, !dbg !205
  call void @llvm.dbg.declare(metadata i8** %self.dbg.spill, metadata !208, metadata !DIExpression()), !dbg !216
  %_6 = load i8, i8* %self, align 1, !dbg !216
  %4 = zext i8 %_6 to i32, !dbg !216
  ret i32 %4, !dbg !218
}

; <&T as core::fmt::Debug>::fmt
; Function Attrs: nonlazybind uwtable
define internal zeroext i1 @"_ZN42_$LT$$RF$T$u20$as$u20$core..fmt..Debug$GT$3fmt17h384c4c39141f8cfdE"({ [0 x i32]*, i64 }* align 8 %self, %"core::fmt::Formatter"* align 8 %f) unnamed_addr #1 !dbg !219 {
start:
  %f.dbg.spill = alloca %"core::fmt::Formatter"*, align 8
  %self.dbg.spill = alloca { [0 x i32]*, i64 }*, align 8
  store { [0 x i32]*, i64 }* %self, { [0 x i32]*, i64 }** %self.dbg.spill, align 8
  call void @llvm.dbg.declare(metadata { [0 x i32]*, i64 }** %self.dbg.spill, metadata !283, metadata !DIExpression()), !dbg !287
  store %"core::fmt::Formatter"* %f, %"core::fmt::Formatter"** %f.dbg.spill, align 8
  call void @llvm.dbg.declare(metadata %"core::fmt::Formatter"** %f.dbg.spill, metadata !284, metadata !DIExpression()), !dbg !288
  %0 = getelementptr inbounds { [0 x i32]*, i64 }, { [0 x i32]*, i64 }* %self, i32 0, i32 0, !dbg !289
  %_6.0 = load [0 x i32]*, [0 x i32]** %0, align 8, !dbg !289, !nonnull !23, !align !290, !noundef !23
  %1 = getelementptr inbounds { [0 x i32]*, i64 }, { [0 x i32]*, i64 }* %self, i32 0, i32 1, !dbg !289
  %_6.1 = load i64, i64* %1, align 8, !dbg !289
; call <[T] as core::fmt::Debug>::fmt
  %2 = call zeroext i1 @"_ZN48_$LT$$u5b$T$u5d$$u20$as$u20$core..fmt..Debug$GT$3fmt17h61a7f8632c1878acE"([0 x i32]* align 4 %_6.0, i64 %_6.1, %"core::fmt::Formatter"* align 8 %f), !dbg !291
  br label %bb1, !dbg !291

bb1:                                              ; preds = %start
  ret i1 %2, !dbg !292
}

; <&T as core::fmt::Debug>::fmt
; Function Attrs: nonlazybind uwtable
define internal zeroext i1 @"_ZN42_$LT$$RF$T$u20$as$u20$core..fmt..Debug$GT$3fmt17h54a4743f53e7e3feE"(i32** align 8 %self, %"core::fmt::Formatter"* align 8 %f) unnamed_addr #1 !dbg !293 {
start:
  %f.dbg.spill = alloca %"core::fmt::Formatter"*, align 8
  %self.dbg.spill = alloca i32**, align 8
  store i32** %self, i32*** %self.dbg.spill, align 8
  call void @llvm.dbg.declare(metadata i32*** %self.dbg.spill, metadata !298, metadata !DIExpression()), !dbg !300
  store %"core::fmt::Formatter"* %f, %"core::fmt::Formatter"** %f.dbg.spill, align 8
  call void @llvm.dbg.declare(metadata %"core::fmt::Formatter"** %f.dbg.spill, metadata !299, metadata !DIExpression()), !dbg !301
  %_6 = load i32*, i32** %self, align 8, !dbg !302, !nonnull !23, !align !290, !noundef !23
; call core::fmt::num::<impl core::fmt::Debug for i32>::fmt
  %0 = call zeroext i1 @"_ZN4core3fmt3num50_$LT$impl$u20$core..fmt..Debug$u20$for$u20$i32$GT$3fmt17hd9e5901974cba7aaE"(i32* align 4 %_6, %"core::fmt::Formatter"* align 8 %f), !dbg !303
  br label %bb1, !dbg !303

bb1:                                              ; preds = %start
  ret i1 %0, !dbg !304
}

; <&T as core::fmt::Debug>::fmt
; Function Attrs: nonlazybind uwtable
define internal zeroext i1 @"_ZN42_$LT$$RF$T$u20$as$u20$core..fmt..Debug$GT$3fmt17h712c4898028879caE"([6 x i32]** align 8 %self, %"core::fmt::Formatter"* align 8 %f) unnamed_addr #1 !dbg !305 {
start:
  %f.dbg.spill = alloca %"core::fmt::Formatter"*, align 8
  %self.dbg.spill = alloca [6 x i32]**, align 8
  store [6 x i32]** %self, [6 x i32]*** %self.dbg.spill, align 8
  call void @llvm.dbg.declare(metadata [6 x i32]*** %self.dbg.spill, metadata !310, metadata !DIExpression()), !dbg !314
  store %"core::fmt::Formatter"* %f, %"core::fmt::Formatter"** %f.dbg.spill, align 8
  call void @llvm.dbg.declare(metadata %"core::fmt::Formatter"** %f.dbg.spill, metadata !311, metadata !DIExpression()), !dbg !315
  %_6 = load [6 x i32]*, [6 x i32]** %self, align 8, !dbg !316, !nonnull !23, !align !290, !noundef !23
; call core::array::<impl core::fmt::Debug for [T; N]>::fmt
  %0 = call zeroext i1 @"_ZN4core5array69_$LT$impl$u20$core..fmt..Debug$u20$for$u20$$u5b$T$u3b$$u20$N$u5d$$GT$3fmt17he336869ccd8e886dE"([6 x i32]* align 4 %_6, %"core::fmt::Formatter"* align 8 %f), !dbg !317
  br label %bb1, !dbg !317

bb1:                                              ; preds = %start
  ret i1 %0, !dbg !318
}

; <&T as core::fmt::Debug>::fmt
; Function Attrs: nonlazybind uwtable
define internal zeroext i1 @"_ZN42_$LT$$RF$T$u20$as$u20$core..fmt..Debug$GT$3fmt17h73b62204be0d9aa4E"([7 x i32]** align 8 %self, %"core::fmt::Formatter"* align 8 %f) unnamed_addr #1 !dbg !319 {
start:
  %f.dbg.spill = alloca %"core::fmt::Formatter"*, align 8
  %self.dbg.spill = alloca [7 x i32]**, align 8
  store [7 x i32]** %self, [7 x i32]*** %self.dbg.spill, align 8
  call void @llvm.dbg.declare(metadata [7 x i32]*** %self.dbg.spill, metadata !324, metadata !DIExpression()), !dbg !328
  store %"core::fmt::Formatter"* %f, %"core::fmt::Formatter"** %f.dbg.spill, align 8
  call void @llvm.dbg.declare(metadata %"core::fmt::Formatter"** %f.dbg.spill, metadata !325, metadata !DIExpression()), !dbg !329
  %_6 = load [7 x i32]*, [7 x i32]** %self, align 8, !dbg !330, !nonnull !23, !align !290, !noundef !23
; call core::array::<impl core::fmt::Debug for [T; N]>::fmt
  %0 = call zeroext i1 @"_ZN4core5array69_$LT$impl$u20$core..fmt..Debug$u20$for$u20$$u5b$T$u3b$$u20$N$u5d$$GT$3fmt17h19f2004614bd64e3E"([7 x i32]* align 4 %_6, %"core::fmt::Formatter"* align 8 %f), !dbg !331
  br label %bb1, !dbg !331

bb1:                                              ; preds = %start
  ret i1 %0, !dbg !332
}

; <&T as core::fmt::Debug>::fmt
; Function Attrs: nonlazybind uwtable
define internal zeroext i1 @"_ZN42_$LT$$RF$T$u20$as$u20$core..fmt..Debug$GT$3fmt17h92a1bed0018681f5E"([4 x i32]** align 8 %self, %"core::fmt::Formatter"* align 8 %f) unnamed_addr #1 !dbg !333 {
start:
  %f.dbg.spill = alloca %"core::fmt::Formatter"*, align 8
  %self.dbg.spill = alloca [4 x i32]**, align 8
  store [4 x i32]** %self, [4 x i32]*** %self.dbg.spill, align 8
  call void @llvm.dbg.declare(metadata [4 x i32]*** %self.dbg.spill, metadata !338, metadata !DIExpression()), !dbg !342
  store %"core::fmt::Formatter"* %f, %"core::fmt::Formatter"** %f.dbg.spill, align 8
  call void @llvm.dbg.declare(metadata %"core::fmt::Formatter"** %f.dbg.spill, metadata !339, metadata !DIExpression()), !dbg !343
  %_6 = load [4 x i32]*, [4 x i32]** %self, align 8, !dbg !344, !nonnull !23, !align !290, !noundef !23
; call core::array::<impl core::fmt::Debug for [T; N]>::fmt
  %0 = call zeroext i1 @"_ZN4core5array69_$LT$impl$u20$core..fmt..Debug$u20$for$u20$$u5b$T$u3b$$u20$N$u5d$$GT$3fmt17hcfa8031c92774399E"([4 x i32]* align 4 %_6, %"core::fmt::Formatter"* align 8 %f), !dbg !345
  br label %bb1, !dbg !345

bb1:                                              ; preds = %start
  ret i1 %0, !dbg !346
}

; <&T as core::fmt::Debug>::fmt
; Function Attrs: nonlazybind uwtable
define internal zeroext i1 @"_ZN42_$LT$$RF$T$u20$as$u20$core..fmt..Debug$GT$3fmt17hc03f1b85accb5763E"([1 x i32]** align 8 %self, %"core::fmt::Formatter"* align 8 %f) unnamed_addr #1 !dbg !347 {
start:
  %f.dbg.spill = alloca %"core::fmt::Formatter"*, align 8
  %self.dbg.spill = alloca [1 x i32]**, align 8
  store [1 x i32]** %self, [1 x i32]*** %self.dbg.spill, align 8
  call void @llvm.dbg.declare(metadata [1 x i32]*** %self.dbg.spill, metadata !352, metadata !DIExpression()), !dbg !356
  store %"core::fmt::Formatter"* %f, %"core::fmt::Formatter"** %f.dbg.spill, align 8
  call void @llvm.dbg.declare(metadata %"core::fmt::Formatter"** %f.dbg.spill, metadata !353, metadata !DIExpression()), !dbg !357
  %_6 = load [1 x i32]*, [1 x i32]** %self, align 8, !dbg !358, !nonnull !23, !align !290, !noundef !23
; call core::array::<impl core::fmt::Debug for [T; N]>::fmt
  %0 = call zeroext i1 @"_ZN4core5array69_$LT$impl$u20$core..fmt..Debug$u20$for$u20$$u5b$T$u3b$$u20$N$u5d$$GT$3fmt17h7eb0907c0c19ff33E"([1 x i32]* align 4 %_6, %"core::fmt::Formatter"* align 8 %f), !dbg !359
  br label %bb1, !dbg !359

bb1:                                              ; preds = %start
  ret i1 %0, !dbg !360
}

; <&T as core::fmt::Debug>::fmt
; Function Attrs: nonlazybind uwtable
define internal zeroext i1 @"_ZN42_$LT$$RF$T$u20$as$u20$core..fmt..Debug$GT$3fmt17hecf0f57663ba443eE"([10 x i32]** align 8 %self, %"core::fmt::Formatter"* align 8 %f) unnamed_addr #1 !dbg !361 {
start:
  %f.dbg.spill = alloca %"core::fmt::Formatter"*, align 8
  %self.dbg.spill = alloca [10 x i32]**, align 8
  store [10 x i32]** %self, [10 x i32]*** %self.dbg.spill, align 8
  call void @llvm.dbg.declare(metadata [10 x i32]*** %self.dbg.spill, metadata !366, metadata !DIExpression()), !dbg !370
  store %"core::fmt::Formatter"* %f, %"core::fmt::Formatter"** %f.dbg.spill, align 8
  call void @llvm.dbg.declare(metadata %"core::fmt::Formatter"** %f.dbg.spill, metadata !367, metadata !DIExpression()), !dbg !371
  %_6 = load [10 x i32]*, [10 x i32]** %self, align 8, !dbg !372, !nonnull !23, !align !290, !noundef !23
; call core::array::<impl core::fmt::Debug for [T; N]>::fmt
  %0 = call zeroext i1 @"_ZN4core5array69_$LT$impl$u20$core..fmt..Debug$u20$for$u20$$u5b$T$u3b$$u20$N$u5d$$GT$3fmt17hdcaf2c7de2ab494eE"([10 x i32]* align 4 %_6, %"core::fmt::Formatter"* align 8 %f), !dbg !373
  br label %bb1, !dbg !373

bb1:                                              ; preds = %start
  ret i1 %0, !dbg !374
}

; <[T] as core::fmt::Debug>::fmt
; Function Attrs: nonlazybind uwtable
define internal zeroext i1 @"_ZN48_$LT$$u5b$T$u5d$$u20$as$u20$core..fmt..Debug$GT$3fmt17h61a7f8632c1878acE"([0 x i32]* align 4 %self.0, i64 %self.1, %"core::fmt::Formatter"* align 8 %f) unnamed_addr #1 !dbg !375 {
start:
  %self.dbg.spill1 = alloca { [0 x i32]*, i64 }, align 8
  %f.dbg.spill = alloca %"core::fmt::Formatter"*, align 8
  %self.dbg.spill = alloca { [0 x i32]*, i64 }, align 8
  %_6 = alloca %"core::fmt::builders::DebugList", align 8
  %0 = getelementptr inbounds { [0 x i32]*, i64 }, { [0 x i32]*, i64 }* %self.dbg.spill, i32 0, i32 0
  store [0 x i32]* %self.0, [0 x i32]** %0, align 8
  %1 = getelementptr inbounds { [0 x i32]*, i64 }, { [0 x i32]*, i64 }* %self.dbg.spill, i32 0, i32 1
  store i64 %self.1, i64* %1, align 8
  call void @llvm.dbg.declare(metadata { [0 x i32]*, i64 }* %self.dbg.spill, metadata !380, metadata !DIExpression()), !dbg !382
  store %"core::fmt::Formatter"* %f, %"core::fmt::Formatter"** %f.dbg.spill, align 8
  call void @llvm.dbg.declare(metadata %"core::fmt::Formatter"** %f.dbg.spill, metadata !381, metadata !DIExpression()), !dbg !383
; call core::fmt::Formatter::debug_list
  call void @_ZN4core3fmt9Formatter10debug_list17h2e70d1c34e8cb782E(%"core::fmt::builders::DebugList"* sret(%"core::fmt::builders::DebugList") %_6, %"core::fmt::Formatter"* align 8 %f), !dbg !384
  br label %bb1, !dbg !384

bb1:                                              ; preds = %start
  %2 = getelementptr inbounds { [0 x i32]*, i64 }, { [0 x i32]*, i64 }* %self.dbg.spill1, i32 0, i32 0, !dbg !385
  store [0 x i32]* %self.0, [0 x i32]** %2, align 8, !dbg !385
  %3 = getelementptr inbounds { [0 x i32]*, i64 }, { [0 x i32]*, i64 }* %self.dbg.spill1, i32 0, i32 1, !dbg !385
  store i64 %self.1, i64* %3, align 8, !dbg !385
  call void @llvm.dbg.declare(metadata { [0 x i32]*, i64 }* %self.dbg.spill1, metadata !386, metadata !DIExpression()), !dbg !411
; call core::slice::iter::Iter<T>::new
  %4 = call { i32*, i32* } @"_ZN4core5slice4iter13Iter$LT$T$GT$3new17h619f0f691c4c3fbbE"([0 x i32]* align 4 %self.0, i64 %self.1), !dbg !411
  %_8.0 = extractvalue { i32*, i32* } %4, 0, !dbg !411
  %_8.1 = extractvalue { i32*, i32* } %4, 1, !dbg !411
  br label %bb4, !dbg !411

bb4:                                              ; preds = %bb1
; call core::fmt::builders::DebugList::entries
  %_4 = call align 8 %"core::fmt::builders::DebugList"* @_ZN4core3fmt8builders9DebugList7entries17hda836d1b04b03406E(%"core::fmt::builders::DebugList"* align 8 %_6, i32* %_8.0, i32* %_8.1), !dbg !384
  br label %bb2, !dbg !384

bb2:                                              ; preds = %bb4
; call core::fmt::builders::DebugList::finish
  %5 = call zeroext i1 @_ZN4core3fmt8builders9DebugList6finish17ha896c0aa3642bf32E(%"core::fmt::builders::DebugList"* align 8 %_4), !dbg !384
  br label %bb3, !dbg !384

bb3:                                              ; preds = %bb2
  ret i1 %5, !dbg !412
}

; core::fmt::num::<impl core::fmt::Debug for i32>::fmt
; Function Attrs: inlinehint nonlazybind uwtable
define internal zeroext i1 @"_ZN4core3fmt3num50_$LT$impl$u20$core..fmt..Debug$u20$for$u20$i32$GT$3fmt17hd9e5901974cba7aaE"(i32* align 4 %self, %"core::fmt::Formatter"* align 8 %f) unnamed_addr #2 !dbg !413 {
start:
  %f.dbg.spill = alloca %"core::fmt::Formatter"*, align 8
  %self.dbg.spill = alloca i32*, align 8
  %0 = alloca i8, align 1
  store i32* %self, i32** %self.dbg.spill, align 8
  call void @llvm.dbg.declare(metadata i32** %self.dbg.spill, metadata !420, metadata !DIExpression()), !dbg !422
  store %"core::fmt::Formatter"* %f, %"core::fmt::Formatter"** %f.dbg.spill, align 8
  call void @llvm.dbg.declare(metadata %"core::fmt::Formatter"** %f.dbg.spill, metadata !421, metadata !DIExpression()), !dbg !423
; call core::fmt::Formatter::debug_lower_hex
  %_3 = call zeroext i1 @_ZN4core3fmt9Formatter15debug_lower_hex17h861f5ddbf758e4f9E(%"core::fmt::Formatter"* align 8 %f), !dbg !424
  br label %bb1, !dbg !424

bb1:                                              ; preds = %start
  br i1 %_3, label %bb2, label %bb4, !dbg !424

bb4:                                              ; preds = %bb1
; call core::fmt::Formatter::debug_upper_hex
  %_7 = call zeroext i1 @_ZN4core3fmt9Formatter15debug_upper_hex17h21ddf2be2e6a0fd5E(%"core::fmt::Formatter"* align 8 %f), !dbg !425
  br label %bb5, !dbg !425

bb2:                                              ; preds = %bb1
; call core::fmt::num::<impl core::fmt::LowerHex for i32>::fmt
  %1 = call zeroext i1 @"_ZN4core3fmt3num53_$LT$impl$u20$core..fmt..LowerHex$u20$for$u20$i32$GT$3fmt17h46ab6094afed2354E"(i32* align 4 %self, %"core::fmt::Formatter"* align 8 %f), !dbg !426
  %2 = zext i1 %1 to i8, !dbg !426
  store i8 %2, i8* %0, align 1, !dbg !426
  br label %bb3, !dbg !426

bb3:                                              ; preds = %bb2
  br label %bb11, !dbg !427

bb11:                                             ; preds = %bb10, %bb3
  %3 = load i8, i8* %0, align 1, !dbg !428, !range !429, !noundef !23
  %4 = trunc i8 %3 to i1, !dbg !428
  ret i1 %4, !dbg !428

bb5:                                              ; preds = %bb4
  br i1 %_7, label %bb6, label %bb8, !dbg !425

bb8:                                              ; preds = %bb5
; call core::fmt::num::imp::<impl core::fmt::Display for i32>::fmt
  %5 = call zeroext i1 @"_ZN4core3fmt3num3imp52_$LT$impl$u20$core..fmt..Display$u20$for$u20$i32$GT$3fmt17h52a4838d0eaa2babE"(i32* align 4 %self, %"core::fmt::Formatter"* align 8 %f), !dbg !430
  %6 = zext i1 %5 to i8, !dbg !430
  store i8 %6, i8* %0, align 1, !dbg !430
  br label %bb9, !dbg !430

bb6:                                              ; preds = %bb5
; call core::fmt::num::<impl core::fmt::UpperHex for i32>::fmt
  %7 = call zeroext i1 @"_ZN4core3fmt3num53_$LT$impl$u20$core..fmt..UpperHex$u20$for$u20$i32$GT$3fmt17h827553a54a7e037dE"(i32* align 4 %self, %"core::fmt::Formatter"* align 8 %f), !dbg !431
  %8 = zext i1 %7 to i8, !dbg !431
  store i8 %8, i8* %0, align 1, !dbg !431
  br label %bb7, !dbg !431

bb7:                                              ; preds = %bb6
  br label %bb10, !dbg !432

bb10:                                             ; preds = %bb9, %bb7
  br label %bb11, !dbg !427

bb9:                                              ; preds = %bb8
  br label %bb10, !dbg !432
}

; core::fmt::builders::DebugList::entries
; Function Attrs: nonlazybind uwtable
define internal align 8 %"core::fmt::builders::DebugList"* @_ZN4core3fmt8builders9DebugList7entries17hda836d1b04b03406E(%"core::fmt::builders::DebugList"* align 8 %self, i32* %entries.0, i32* %entries.1) unnamed_addr #1 personality i32 (i32, i32, i64, %"unwind::libunwind::_Unwind_Exception"*, %"unwind::libunwind::_Unwind_Context"*)* @rust_eh_personality !dbg !433 {
start:
  %0 = alloca { i8*, i32 }, align 8
  %entries.dbg.spill = alloca { i32*, i32* }, align 8
  %self.dbg.spill = alloca %"core::fmt::builders::DebugList"*, align 8
  %entry = alloca i32*, align 8
  %_7 = alloca i32*, align 8
  %iter = alloca { i32*, i32* }, align 8
  store %"core::fmt::builders::DebugList"* %self, %"core::fmt::builders::DebugList"** %self.dbg.spill, align 8
  call void @llvm.dbg.declare(metadata %"core::fmt::builders::DebugList"** %self.dbg.spill, metadata !449, metadata !DIExpression()), !dbg !458
  %1 = getelementptr inbounds { i32*, i32* }, { i32*, i32* }* %entries.dbg.spill, i32 0, i32 0
  store i32* %entries.0, i32** %1, align 8
  %2 = getelementptr inbounds { i32*, i32* }, { i32*, i32* }* %entries.dbg.spill, i32 0, i32 1
  store i32* %entries.1, i32** %2, align 8
  call void @llvm.dbg.declare(metadata { i32*, i32* }* %entries.dbg.spill, metadata !450, metadata !DIExpression()), !dbg !459
  call void @llvm.dbg.declare(metadata { i32*, i32* }* %iter, metadata !451, metadata !DIExpression()), !dbg !460
  call void @llvm.dbg.declare(metadata i32** %entry, metadata !453, metadata !DIExpression()), !dbg !461
; call <I as core::iter::traits::collect::IntoIterator>::into_iter
  %3 = call { i32*, i32* } @"_ZN63_$LT$I$u20$as$u20$core..iter..traits..collect..IntoIterator$GT$9into_iter17h442ccde4ff616eacE"(i32* %entries.0, i32* %entries.1), !dbg !462
  %_4.0 = extractvalue { i32*, i32* } %3, 0, !dbg !462
  %_4.1 = extractvalue { i32*, i32* } %3, 1, !dbg !462
  br label %bb1, !dbg !462

bb1:                                              ; preds = %start
  %4 = getelementptr inbounds { i32*, i32* }, { i32*, i32* }* %iter, i32 0, i32 0, !dbg !462
  store i32* %_4.0, i32** %4, align 8, !dbg !462
  %5 = getelementptr inbounds { i32*, i32* }, { i32*, i32* }* %iter, i32 0, i32 1, !dbg !462
  store i32* %_4.1, i32** %5, align 8, !dbg !462
  br label %bb2, !dbg !463

bb2:                                              ; preds = %bb8, %bb1
; invoke <core::slice::iter::Iter<T> as core::iter::traits::iterator::Iterator>::next
  %6 = invoke align 4 i32* @"_ZN91_$LT$core..slice..iter..Iter$LT$T$GT$$u20$as$u20$core..iter..traits..iterator..Iterator$GT$4next17he1500bae1f335835E"({ i32*, i32* }* align 8 %iter)
          to label %bb3 unwind label %cleanup, !dbg !460

bb11:                                             ; preds = %bb10, %cleanup
  br label %bb12, !dbg !464

cleanup:                                          ; preds = %bb2
  %7 = landingpad { i8*, i32 }
          cleanup
  %8 = extractvalue { i8*, i32 } %7, 0
  %9 = extractvalue { i8*, i32 } %7, 1
  %10 = getelementptr inbounds { i8*, i32 }, { i8*, i32 }* %0, i32 0, i32 0
  store i8* %8, i8** %10, align 8
  %11 = getelementptr inbounds { i8*, i32 }, { i8*, i32 }* %0, i32 0, i32 1
  store i32 %9, i32* %11, align 8
  br label %bb11

bb3:                                              ; preds = %bb2
  store i32* %6, i32** %_7, align 8, !dbg !460
  %12 = bitcast i32** %_7 to {}**, !dbg !460
  %13 = load {}*, {}** %12, align 8, !dbg !460
  %14 = icmp eq {}* %13, null, !dbg !460
  %_10 = select i1 %14, i64 0, i64 1, !dbg !460
  switch i64 %_10, label %bb5 [
    i64 0, label %bb6
    i64 1, label %bb4
  ], !dbg !460

bb5:                                              ; preds = %bb3
  unreachable, !dbg !460

bb6:                                              ; preds = %bb3
  br label %bb9, !dbg !464

bb4:                                              ; preds = %bb3
  %15 = load i32*, i32** %_7, align 8, !dbg !465, !nonnull !23, !align !290, !noundef !23
  store i32* %15, i32** %entry, align 8, !dbg !465
  %_14.0 = bitcast i32** %entry to {}*, !dbg !466
; invoke core::fmt::builders::DebugList::entry
  %_12 = invoke align 8 %"core::fmt::builders::DebugList"* @_ZN4core3fmt8builders9DebugList5entry17h5007920add23274dE(%"core::fmt::builders::DebugList"* align 8 %self, {}* align 1 %_14.0, [3 x i64]* align 8 bitcast (<{ i8*, [16 x i8], i8* }>* @vtable.1 to [3 x i64]*))
          to label %bb7 unwind label %cleanup1, !dbg !467

bb10:                                             ; preds = %cleanup1
  br label %bb11, !dbg !468

cleanup1:                                         ; preds = %bb4
  %16 = landingpad { i8*, i32 }
          cleanup
  %17 = extractvalue { i8*, i32 } %16, 0
  %18 = extractvalue { i8*, i32 } %16, 1
  %19 = getelementptr inbounds { i8*, i32 }, { i8*, i32 }* %0, i32 0, i32 0
  store i8* %17, i8** %19, align 8
  %20 = getelementptr inbounds { i8*, i32 }, { i8*, i32 }* %0, i32 0, i32 1
  store i32 %18, i32* %20, align 8
  br label %bb10

bb7:                                              ; preds = %bb4
  br label %bb8, !dbg !468

bb8:                                              ; preds = %bb7
  br label %bb2, !dbg !463

bb12:                                             ; preds = %bb11
  %21 = bitcast { i8*, i32 }* %0 to i8**, !dbg !469
  %22 = load i8*, i8** %21, align 8, !dbg !469
  %23 = getelementptr inbounds { i8*, i32 }, { i8*, i32 }* %0, i32 0, i32 1, !dbg !469
  %24 = load i32, i32* %23, align 8, !dbg !469
  %25 = insertvalue { i8*, i32 } undef, i8* %22, 0, !dbg !469
  %26 = insertvalue { i8*, i32 } %25, i32 %24, 1, !dbg !469
  resume { i8*, i32 } %26, !dbg !469

bb9:                                              ; preds = %bb6
  ret %"core::fmt::builders::DebugList"* %self, !dbg !470
}

; core::fmt::Arguments::new_v1
; Function Attrs: inlinehint nonlazybind uwtable
define internal void @_ZN4core3fmt9Arguments6new_v117h7e05277355add560E(%"core::fmt::Arguments"* sret(%"core::fmt::Arguments") %0, [0 x { [0 x i8]*, i64 }]* align 8 %pieces.0, i64 %pieces.1, [0 x { i8*, i64* }]* align 8 %args.0, i64 %args.1) unnamed_addr #2 !dbg !471 {
start:
  %args.dbg.spill = alloca { [0 x { i8*, i64* }]*, i64 }, align 8
  %pieces.dbg.spill = alloca { [0 x { [0 x i8]*, i64 }]*, i64 }, align 8
  %_24 = alloca { i64*, i64 }, align 8
  %_16 = alloca %"core::fmt::Arguments", align 8
  %_3 = alloca i8, align 1
  %1 = getelementptr inbounds { [0 x { [0 x i8]*, i64 }]*, i64 }, { [0 x { [0 x i8]*, i64 }]*, i64 }* %pieces.dbg.spill, i32 0, i32 0
  store [0 x { [0 x i8]*, i64 }]* %pieces.0, [0 x { [0 x i8]*, i64 }]** %1, align 8
  %2 = getelementptr inbounds { [0 x { [0 x i8]*, i64 }]*, i64 }, { [0 x { [0 x i8]*, i64 }]*, i64 }* %pieces.dbg.spill, i32 0, i32 1
  store i64 %pieces.1, i64* %2, align 8
  call void @llvm.dbg.declare(metadata { [0 x { [0 x i8]*, i64 }]*, i64 }* %pieces.dbg.spill, metadata !549, metadata !DIExpression()), !dbg !551
  %3 = getelementptr inbounds { [0 x { i8*, i64* }]*, i64 }, { [0 x { i8*, i64* }]*, i64 }* %args.dbg.spill, i32 0, i32 0
  store [0 x { i8*, i64* }]* %args.0, [0 x { i8*, i64* }]** %3, align 8
  %4 = getelementptr inbounds { [0 x { i8*, i64* }]*, i64 }, { [0 x { i8*, i64* }]*, i64 }* %args.dbg.spill, i32 0, i32 1
  store i64 %args.1, i64* %4, align 8
  call void @llvm.dbg.declare(metadata { [0 x { i8*, i64* }]*, i64 }* %args.dbg.spill, metadata !550, metadata !DIExpression()), !dbg !552
  %_4 = icmp ult i64 %pieces.1, %args.1, !dbg !553
  br i1 %_4, label %bb1, label %bb2, !dbg !553

bb2:                                              ; preds = %start
  %_12 = add i64 %args.1, 1, !dbg !554
  %_9 = icmp ugt i64 %pieces.1, %_12, !dbg !555
  %5 = zext i1 %_9 to i8, !dbg !553
  store i8 %5, i8* %_3, align 1, !dbg !553
  br label %bb3, !dbg !553

bb1:                                              ; preds = %start
  store i8 1, i8* %_3, align 1, !dbg !553
  br label %bb3, !dbg !553

bb3:                                              ; preds = %bb2, %bb1
  %6 = load i8, i8* %_3, align 1, !dbg !553, !range !429, !noundef !23
  %7 = trunc i8 %6 to i1, !dbg !553
  br i1 %7, label %bb4, label %bb6, !dbg !553

bb6:                                              ; preds = %bb3
  %8 = bitcast { i64*, i64 }* %_24 to {}**, !dbg !556
  store {}* null, {}** %8, align 8, !dbg !556
  %9 = bitcast %"core::fmt::Arguments"* %0 to { [0 x { [0 x i8]*, i64 }]*, i64 }*, !dbg !557
  %10 = getelementptr inbounds { [0 x { [0 x i8]*, i64 }]*, i64 }, { [0 x { [0 x i8]*, i64 }]*, i64 }* %9, i32 0, i32 0, !dbg !557
  store [0 x { [0 x i8]*, i64 }]* %pieces.0, [0 x { [0 x i8]*, i64 }]** %10, align 8, !dbg !557
  %11 = getelementptr inbounds { [0 x { [0 x i8]*, i64 }]*, i64 }, { [0 x { [0 x i8]*, i64 }]*, i64 }* %9, i32 0, i32 1, !dbg !557
  store i64 %pieces.1, i64* %11, align 8, !dbg !557
  %12 = getelementptr inbounds %"core::fmt::Arguments", %"core::fmt::Arguments"* %0, i32 0, i32 1, !dbg !557
  %13 = getelementptr inbounds { i64*, i64 }, { i64*, i64 }* %_24, i32 0, i32 0, !dbg !557
  %14 = load i64*, i64** %13, align 8, !dbg !557, !align !185
  %15 = getelementptr inbounds { i64*, i64 }, { i64*, i64 }* %_24, i32 0, i32 1, !dbg !557
  %16 = load i64, i64* %15, align 8, !dbg !557
  %17 = getelementptr inbounds { i64*, i64 }, { i64*, i64 }* %12, i32 0, i32 0, !dbg !557
  store i64* %14, i64** %17, align 8, !dbg !557
  %18 = getelementptr inbounds { i64*, i64 }, { i64*, i64 }* %12, i32 0, i32 1, !dbg !557
  store i64 %16, i64* %18, align 8, !dbg !557
  %19 = getelementptr inbounds %"core::fmt::Arguments", %"core::fmt::Arguments"* %0, i32 0, i32 2, !dbg !557
  %20 = getelementptr inbounds { [0 x { i8*, i64* }]*, i64 }, { [0 x { i8*, i64* }]*, i64 }* %19, i32 0, i32 0, !dbg !557
  store [0 x { i8*, i64* }]* %args.0, [0 x { i8*, i64* }]** %20, align 8, !dbg !557
  %21 = getelementptr inbounds { [0 x { i8*, i64* }]*, i64 }, { [0 x { i8*, i64* }]*, i64 }* %19, i32 0, i32 1, !dbg !557
  store i64 %args.1, i64* %21, align 8, !dbg !557
  ret void, !dbg !558

bb4:                                              ; preds = %bb3
; call core::fmt::Arguments::new_v1
  call void @_ZN4core3fmt9Arguments6new_v117h7e05277355add560E(%"core::fmt::Arguments"* sret(%"core::fmt::Arguments") %_16, [0 x { [0 x i8]*, i64 }]* align 8 bitcast (<{ i8*, [8 x i8] }>* @alloc163 to [0 x { [0 x i8]*, i64 }]*), i64 1, [0 x { i8*, i64* }]* align 8 bitcast (<{}>* @alloc165 to [0 x { i8*, i64* }]*), i64 0), !dbg !559
  br label %bb5, !dbg !559

bb5:                                              ; preds = %bb4
; call core::panicking::panic_fmt
  call void @_ZN4core9panicking9panic_fmt17h62ccf03c8a8a51b5E(%"core::fmt::Arguments"* %_16, %"core::panic::location::Location"* align 8 bitcast (<{ i8*, [16 x i8] }>* @alloc345 to %"core::panic::location::Location"*)) #13, !dbg !559
  unreachable, !dbg !559
}

; core::ops::function::FnOnce::call_once{{vtable.shim}}
; Function Attrs: inlinehint nonlazybind uwtable
define internal i32 @"_ZN4core3ops8function6FnOnce40call_once$u7b$$u7b$vtable.shim$u7d$$u7d$17h3e7c8fa52320df5dE"(i64** %_1) unnamed_addr #2 !dbg !560 {
start:
  %_1.dbg.spill = alloca i64**, align 8
  %_2 = alloca {}, align 1
  store i64** %_1, i64*** %_1.dbg.spill, align 8
  call void @llvm.dbg.declare(metadata i64*** %_1.dbg.spill, metadata !569, metadata !DIExpression()), !dbg !574
  call void @llvm.dbg.declare(metadata {}* %_2, metadata !570, metadata !DIExpression()), !dbg !574
  %0 = load i64*, i64** %_1, align 8, !dbg !574, !nonnull !23, !noundef !23
; call core::ops::function::FnOnce::call_once
  %1 = call i32 @_ZN4core3ops8function6FnOnce9call_once17hecf3ff2734033fa2E(i64* %0), !dbg !574
  br label %bb1, !dbg !574

bb1:                                              ; preds = %start
  ret i32 %1, !dbg !574
}

; core::ops::function::FnOnce::call_once
; Function Attrs: inlinehint nonlazybind uwtable
define internal void @_ZN4core3ops8function6FnOnce9call_once17h42fca45f7b90fa63E() unnamed_addr #2 personality i32 (i32, i32, i64, %"unwind::libunwind::_Unwind_Exception"*, %"unwind::libunwind::_Unwind_Context"*)* @rust_eh_personality !dbg !575 {
start:
  %0 = alloca { i8*, i32 }, align 8
  %_2 = alloca {}, align 1
  %_1 = alloca %"[closure@src/test_enums.rs:73:1: 85:2]", align 1
  call void @llvm.dbg.declare(metadata %"[closure@src/test_enums.rs:73:1: 85:2]"* %_1, metadata !582, metadata !DIExpression()), !dbg !586
  call void @llvm.dbg.declare(metadata {}* %_2, metadata !583, metadata !DIExpression()), !dbg !586
; invoke enum_tests::test_enums::test_buffer3::{{closure}}
  invoke void @"_ZN10enum_tests10test_enums12test_buffer328_$u7b$$u7b$closure$u7d$$u7d$17h0f51a7e0d9eae8faE"(%"[closure@src/test_enums.rs:73:1: 85:2]"* align 1 %_1)
          to label %bb1 unwind label %cleanup, !dbg !586

bb3:                                              ; preds = %cleanup
  br label %bb4, !dbg !586

cleanup:                                          ; preds = %start
  %1 = landingpad { i8*, i32 }
          cleanup
  %2 = extractvalue { i8*, i32 } %1, 0
  %3 = extractvalue { i8*, i32 } %1, 1
  %4 = getelementptr inbounds { i8*, i32 }, { i8*, i32 }* %0, i32 0, i32 0
  store i8* %2, i8** %4, align 8
  %5 = getelementptr inbounds { i8*, i32 }, { i8*, i32 }* %0, i32 0, i32 1
  store i32 %3, i32* %5, align 8
  br label %bb3

bb1:                                              ; preds = %start
  br label %bb2, !dbg !586

bb4:                                              ; preds = %bb3
  %6 = bitcast { i8*, i32 }* %0 to i8**, !dbg !586
  %7 = load i8*, i8** %6, align 8, !dbg !586
  %8 = getelementptr inbounds { i8*, i32 }, { i8*, i32 }* %0, i32 0, i32 1, !dbg !586
  %9 = load i32, i32* %8, align 8, !dbg !586
  %10 = insertvalue { i8*, i32 } undef, i8* %7, 0, !dbg !586
  %11 = insertvalue { i8*, i32 } %10, i32 %9, 1, !dbg !586
  resume { i8*, i32 } %11, !dbg !586

bb2:                                              ; preds = %bb1
  ret void, !dbg !586
}

; core::ops::function::FnOnce::call_once
; Function Attrs: inlinehint nonlazybind uwtable
define internal void @_ZN4core3ops8function6FnOnce9call_once17h8e874ff8dcdeef97E(void ()* %_1) unnamed_addr #2 !dbg !587 {
start:
  %_1.dbg.spill = alloca void ()*, align 8
  %_2 = alloca {}, align 1
  store void ()* %_1, void ()** %_1.dbg.spill, align 8
  call void @llvm.dbg.declare(metadata void ()** %_1.dbg.spill, metadata !589, metadata !DIExpression()), !dbg !593
  call void @llvm.dbg.declare(metadata {}* %_2, metadata !590, metadata !DIExpression()), !dbg !593
  call void %_1(), !dbg !593
  br label %bb1, !dbg !593

bb1:                                              ; preds = %start
  ret void, !dbg !593
}

; core::ops::function::FnOnce::call_once
; Function Attrs: inlinehint nonlazybind uwtable
define internal void @_ZN4core3ops8function6FnOnce9call_once17h9341cb19c5c24755E() unnamed_addr #2 personality i32 (i32, i32, i64, %"unwind::libunwind::_Unwind_Exception"*, %"unwind::libunwind::_Unwind_Context"*)* @rust_eh_personality !dbg !594 {
start:
  %0 = alloca { i8*, i32 }, align 8
  %_2 = alloca {}, align 1
  %_1 = alloca %"[closure@src/test_enums.rs:88:1: 100:2]", align 1
  call void @llvm.dbg.declare(metadata %"[closure@src/test_enums.rs:88:1: 100:2]"* %_1, metadata !600, metadata !DIExpression()), !dbg !604
  call void @llvm.dbg.declare(metadata {}* %_2, metadata !601, metadata !DIExpression()), !dbg !604
; invoke enum_tests::test_enums::test_buffer4::{{closure}}
  invoke void @"_ZN10enum_tests10test_enums12test_buffer428_$u7b$$u7b$closure$u7d$$u7d$17ha9d76ae77fe760f7E"(%"[closure@src/test_enums.rs:88:1: 100:2]"* align 1 %_1)
          to label %bb1 unwind label %cleanup, !dbg !604

bb3:                                              ; preds = %cleanup
  br label %bb4, !dbg !604

cleanup:                                          ; preds = %start
  %1 = landingpad { i8*, i32 }
          cleanup
  %2 = extractvalue { i8*, i32 } %1, 0
  %3 = extractvalue { i8*, i32 } %1, 1
  %4 = getelementptr inbounds { i8*, i32 }, { i8*, i32 }* %0, i32 0, i32 0
  store i8* %2, i8** %4, align 8
  %5 = getelementptr inbounds { i8*, i32 }, { i8*, i32 }* %0, i32 0, i32 1
  store i32 %3, i32* %5, align 8
  br label %bb3

bb1:                                              ; preds = %start
  br label %bb2, !dbg !604

bb4:                                              ; preds = %bb3
  %6 = bitcast { i8*, i32 }* %0 to i8**, !dbg !604
  %7 = load i8*, i8** %6, align 8, !dbg !604
  %8 = getelementptr inbounds { i8*, i32 }, { i8*, i32 }* %0, i32 0, i32 1, !dbg !604
  %9 = load i32, i32* %8, align 8, !dbg !604
  %10 = insertvalue { i8*, i32 } undef, i8* %7, 0, !dbg !604
  %11 = insertvalue { i8*, i32 } %10, i32 %9, 1, !dbg !604
  resume { i8*, i32 } %11, !dbg !604

bb2:                                              ; preds = %bb1
  ret void, !dbg !604
}

; core::ops::function::FnOnce::call_once
; Function Attrs: inlinehint nonlazybind uwtable
define internal void @_ZN4core3ops8function6FnOnce9call_once17h9e7a1f5608996941E() unnamed_addr #2 personality i32 (i32, i32, i64, %"unwind::libunwind::_Unwind_Exception"*, %"unwind::libunwind::_Unwind_Context"*)* @rust_eh_personality !dbg !605 {
start:
  %0 = alloca { i8*, i32 }, align 8
  %_2 = alloca {}, align 1
  %_1 = alloca %"[closure@src/test_enums.rs:37:1: 40:2]", align 1
  call void @llvm.dbg.declare(metadata %"[closure@src/test_enums.rs:37:1: 40:2]"* %_1, metadata !611, metadata !DIExpression()), !dbg !615
  call void @llvm.dbg.declare(metadata {}* %_2, metadata !612, metadata !DIExpression()), !dbg !615
; invoke enum_tests::test_enums::test_variants::{{closure}}
  invoke void @"_ZN10enum_tests10test_enums13test_variants28_$u7b$$u7b$closure$u7d$$u7d$17h11300242096ffe6dE"(%"[closure@src/test_enums.rs:37:1: 40:2]"* align 1 %_1)
          to label %bb1 unwind label %cleanup, !dbg !615

bb3:                                              ; preds = %cleanup
  br label %bb4, !dbg !615

cleanup:                                          ; preds = %start
  %1 = landingpad { i8*, i32 }
          cleanup
  %2 = extractvalue { i8*, i32 } %1, 0
  %3 = extractvalue { i8*, i32 } %1, 1
  %4 = getelementptr inbounds { i8*, i32 }, { i8*, i32 }* %0, i32 0, i32 0
  store i8* %2, i8** %4, align 8
  %5 = getelementptr inbounds { i8*, i32 }, { i8*, i32 }* %0, i32 0, i32 1
  store i32 %3, i32* %5, align 8
  br label %bb3

bb1:                                              ; preds = %start
  br label %bb2, !dbg !615

bb4:                                              ; preds = %bb3
  %6 = bitcast { i8*, i32 }* %0 to i8**, !dbg !615
  %7 = load i8*, i8** %6, align 8, !dbg !615
  %8 = getelementptr inbounds { i8*, i32 }, { i8*, i32 }* %0, i32 0, i32 1, !dbg !615
  %9 = load i32, i32* %8, align 8, !dbg !615
  %10 = insertvalue { i8*, i32 } undef, i8* %7, 0, !dbg !615
  %11 = insertvalue { i8*, i32 } %10, i32 %9, 1, !dbg !615
  resume { i8*, i32 } %11, !dbg !615

bb2:                                              ; preds = %bb1
  ret void, !dbg !615
}

; core::ops::function::FnOnce::call_once
; Function Attrs: inlinehint nonlazybind uwtable
define internal void @_ZN4core3ops8function6FnOnce9call_once17hb5a505783b20948bE() unnamed_addr #2 personality i32 (i32, i32, i64, %"unwind::libunwind::_Unwind_Exception"*, %"unwind::libunwind::_Unwind_Context"*)* @rust_eh_personality !dbg !616 {
start:
  %0 = alloca { i8*, i32 }, align 8
  %_2 = alloca {}, align 1
  %_1 = alloca %"[closure@src/test_enums.rs:58:1: 70:2]", align 1
  call void @llvm.dbg.declare(metadata %"[closure@src/test_enums.rs:58:1: 70:2]"* %_1, metadata !622, metadata !DIExpression()), !dbg !626
  call void @llvm.dbg.declare(metadata {}* %_2, metadata !623, metadata !DIExpression()), !dbg !626
; invoke enum_tests::test_enums::test_buffer2::{{closure}}
  invoke void @"_ZN10enum_tests10test_enums12test_buffer228_$u7b$$u7b$closure$u7d$$u7d$17hbd91f3b32fc918fdE"(%"[closure@src/test_enums.rs:58:1: 70:2]"* align 1 %_1)
          to label %bb1 unwind label %cleanup, !dbg !626

bb3:                                              ; preds = %cleanup
  br label %bb4, !dbg !626

cleanup:                                          ; preds = %start
  %1 = landingpad { i8*, i32 }
          cleanup
  %2 = extractvalue { i8*, i32 } %1, 0
  %3 = extractvalue { i8*, i32 } %1, 1
  %4 = getelementptr inbounds { i8*, i32 }, { i8*, i32 }* %0, i32 0, i32 0
  store i8* %2, i8** %4, align 8
  %5 = getelementptr inbounds { i8*, i32 }, { i8*, i32 }* %0, i32 0, i32 1
  store i32 %3, i32* %5, align 8
  br label %bb3

bb1:                                              ; preds = %start
  br label %bb2, !dbg !626

bb4:                                              ; preds = %bb3
  %6 = bitcast { i8*, i32 }* %0 to i8**, !dbg !626
  %7 = load i8*, i8** %6, align 8, !dbg !626
  %8 = getelementptr inbounds { i8*, i32 }, { i8*, i32 }* %0, i32 0, i32 1, !dbg !626
  %9 = load i32, i32* %8, align 8, !dbg !626
  %10 = insertvalue { i8*, i32 } undef, i8* %7, 0, !dbg !626
  %11 = insertvalue { i8*, i32 } %10, i32 %9, 1, !dbg !626
  resume { i8*, i32 } %11, !dbg !626

bb2:                                              ; preds = %bb1
  ret void, !dbg !626
}

; core::ops::function::FnOnce::call_once
; Function Attrs: inlinehint nonlazybind uwtable
define internal void @_ZN4core3ops8function6FnOnce9call_once17hb8425bf5565e8fe7E() unnamed_addr #2 personality i32 (i32, i32, i64, %"unwind::libunwind::_Unwind_Exception"*, %"unwind::libunwind::_Unwind_Context"*)* @rust_eh_personality !dbg !627 {
start:
  %0 = alloca { i8*, i32 }, align 8
  %_2 = alloca {}, align 1
  %_1 = alloca %"[closure@src/test_enums.rs:103:1: 115:2]", align 1
  call void @llvm.dbg.declare(metadata %"[closure@src/test_enums.rs:103:1: 115:2]"* %_1, metadata !633, metadata !DIExpression()), !dbg !637
  call void @llvm.dbg.declare(metadata {}* %_2, metadata !634, metadata !DIExpression()), !dbg !637
; invoke enum_tests::test_enums::test_buffer5::{{closure}}
  invoke void @"_ZN10enum_tests10test_enums12test_buffer528_$u7b$$u7b$closure$u7d$$u7d$17hf82afaa7711a31a3E"(%"[closure@src/test_enums.rs:103:1: 115:2]"* align 1 %_1)
          to label %bb1 unwind label %cleanup, !dbg !637

bb3:                                              ; preds = %cleanup
  br label %bb4, !dbg !637

cleanup:                                          ; preds = %start
  %1 = landingpad { i8*, i32 }
          cleanup
  %2 = extractvalue { i8*, i32 } %1, 0
  %3 = extractvalue { i8*, i32 } %1, 1
  %4 = getelementptr inbounds { i8*, i32 }, { i8*, i32 }* %0, i32 0, i32 0
  store i8* %2, i8** %4, align 8
  %5 = getelementptr inbounds { i8*, i32 }, { i8*, i32 }* %0, i32 0, i32 1
  store i32 %3, i32* %5, align 8
  br label %bb3

bb1:                                              ; preds = %start
  br label %bb2, !dbg !637

bb4:                                              ; preds = %bb3
  %6 = bitcast { i8*, i32 }* %0 to i8**, !dbg !637
  %7 = load i8*, i8** %6, align 8, !dbg !637
  %8 = getelementptr inbounds { i8*, i32 }, { i8*, i32 }* %0, i32 0, i32 1, !dbg !637
  %9 = load i32, i32* %8, align 8, !dbg !637
  %10 = insertvalue { i8*, i32 } undef, i8* %7, 0, !dbg !637
  %11 = insertvalue { i8*, i32 } %10, i32 %9, 1, !dbg !637
  resume { i8*, i32 } %11, !dbg !637

bb2:                                              ; preds = %bb1
  ret void, !dbg !637
}

; core::ops::function::FnOnce::call_once
; Function Attrs: inlinehint nonlazybind uwtable
define internal void @_ZN4core3ops8function6FnOnce9call_once17hda4d63f67d682cdaE() unnamed_addr #2 personality i32 (i32, i32, i64, %"unwind::libunwind::_Unwind_Exception"*, %"unwind::libunwind::_Unwind_Context"*)* @rust_eh_personality !dbg !638 {
start:
  %0 = alloca { i8*, i32 }, align 8
  %_2 = alloca {}, align 1
  %_1 = alloca %"[closure@src/test_enums.rs:118:1: 130:2]", align 1
  call void @llvm.dbg.declare(metadata %"[closure@src/test_enums.rs:118:1: 130:2]"* %_1, metadata !644, metadata !DIExpression()), !dbg !648
  call void @llvm.dbg.declare(metadata {}* %_2, metadata !645, metadata !DIExpression()), !dbg !648
; invoke enum_tests::test_enums::test_buffer6::{{closure}}
  invoke void @"_ZN10enum_tests10test_enums12test_buffer628_$u7b$$u7b$closure$u7d$$u7d$17h6055b325d947b90bE"(%"[closure@src/test_enums.rs:118:1: 130:2]"* align 1 %_1)
          to label %bb1 unwind label %cleanup, !dbg !648

bb3:                                              ; preds = %cleanup
  br label %bb4, !dbg !648

cleanup:                                          ; preds = %start
  %1 = landingpad { i8*, i32 }
          cleanup
  %2 = extractvalue { i8*, i32 } %1, 0
  %3 = extractvalue { i8*, i32 } %1, 1
  %4 = getelementptr inbounds { i8*, i32 }, { i8*, i32 }* %0, i32 0, i32 0
  store i8* %2, i8** %4, align 8
  %5 = getelementptr inbounds { i8*, i32 }, { i8*, i32 }* %0, i32 0, i32 1
  store i32 %3, i32* %5, align 8
  br label %bb3

bb1:                                              ; preds = %start
  br label %bb2, !dbg !648

bb4:                                              ; preds = %bb3
  %6 = bitcast { i8*, i32 }* %0 to i8**, !dbg !648
  %7 = load i8*, i8** %6, align 8, !dbg !648
  %8 = getelementptr inbounds { i8*, i32 }, { i8*, i32 }* %0, i32 0, i32 1, !dbg !648
  %9 = load i32, i32* %8, align 8, !dbg !648
  %10 = insertvalue { i8*, i32 } undef, i8* %7, 0, !dbg !648
  %11 = insertvalue { i8*, i32 } %10, i32 %9, 1, !dbg !648
  resume { i8*, i32 } %11, !dbg !648

bb2:                                              ; preds = %bb1
  ret void, !dbg !648
}

; core::ops::function::FnOnce::call_once
; Function Attrs: inlinehint nonlazybind uwtable
define internal i32 @_ZN4core3ops8function6FnOnce9call_once17hecf3ff2734033fa2E(i64* %0) unnamed_addr #2 personality i32 (i32, i32, i64, %"unwind::libunwind::_Unwind_Exception"*, %"unwind::libunwind::_Unwind_Context"*)* @rust_eh_personality !dbg !649 {
start:
  %1 = alloca { i8*, i32 }, align 8
  %_2 = alloca {}, align 1
  %_1 = alloca i64*, align 8
  store i64* %0, i64** %_1, align 8
  call void @llvm.dbg.declare(metadata i64** %_1, metadata !653, metadata !DIExpression()), !dbg !655
  call void @llvm.dbg.declare(metadata {}* %_2, metadata !654, metadata !DIExpression()), !dbg !655
; invoke std::rt::lang_start::{{closure}}
  %2 = invoke i32 @"_ZN3std2rt10lang_start28_$u7b$$u7b$closure$u7d$$u7d$17h52c5ae235102c8d1E"(i64** align 8 %_1)
          to label %bb1 unwind label %cleanup, !dbg !655

bb3:                                              ; preds = %cleanup
  br label %bb4, !dbg !655

cleanup:                                          ; preds = %start
  %3 = landingpad { i8*, i32 }
          cleanup
  %4 = extractvalue { i8*, i32 } %3, 0
  %5 = extractvalue { i8*, i32 } %3, 1
  %6 = getelementptr inbounds { i8*, i32 }, { i8*, i32 }* %1, i32 0, i32 0
  store i8* %4, i8** %6, align 8
  %7 = getelementptr inbounds { i8*, i32 }, { i8*, i32 }* %1, i32 0, i32 1
  store i32 %5, i32* %7, align 8
  br label %bb3

bb1:                                              ; preds = %start
  br label %bb2, !dbg !655

bb4:                                              ; preds = %bb3
  %8 = bitcast { i8*, i32 }* %1 to i8**, !dbg !655
  %9 = load i8*, i8** %8, align 8, !dbg !655
  %10 = getelementptr inbounds { i8*, i32 }, { i8*, i32 }* %1, i32 0, i32 1, !dbg !655
  %11 = load i32, i32* %10, align 8, !dbg !655
  %12 = insertvalue { i8*, i32 } undef, i8* %9, 0, !dbg !655
  %13 = insertvalue { i8*, i32 } %12, i32 %11, 1, !dbg !655
  resume { i8*, i32 } %13, !dbg !655

bb2:                                              ; preds = %bb1
  ret i32 %2, !dbg !655
}

; core::ops::function::FnOnce::call_once
; Function Attrs: inlinehint nonlazybind uwtable
define internal void @_ZN4core3ops8function6FnOnce9call_once17hffee2510c829820cE() unnamed_addr #2 personality i32 (i32, i32, i64, %"unwind::libunwind::_Unwind_Exception"*, %"unwind::libunwind::_Unwind_Context"*)* @rust_eh_personality !dbg !656 {
start:
  %0 = alloca { i8*, i32 }, align 8
  %_2 = alloca {}, align 1
  %_1 = alloca %"[closure@src/test_enums.rs:43:1: 55:2]", align 1
  call void @llvm.dbg.declare(metadata %"[closure@src/test_enums.rs:43:1: 55:2]"* %_1, metadata !662, metadata !DIExpression()), !dbg !666
  call void @llvm.dbg.declare(metadata {}* %_2, metadata !663, metadata !DIExpression()), !dbg !666
; invoke enum_tests::test_enums::test_buffer::{{closure}}
  invoke void @"_ZN10enum_tests10test_enums11test_buffer28_$u7b$$u7b$closure$u7d$$u7d$17h71bd2df299d5dadeE"(%"[closure@src/test_enums.rs:43:1: 55:2]"* align 1 %_1)
          to label %bb1 unwind label %cleanup, !dbg !666

bb3:                                              ; preds = %cleanup
  br label %bb4, !dbg !666

cleanup:                                          ; preds = %start
  %1 = landingpad { i8*, i32 }
          cleanup
  %2 = extractvalue { i8*, i32 } %1, 0
  %3 = extractvalue { i8*, i32 } %1, 1
  %4 = getelementptr inbounds { i8*, i32 }, { i8*, i32 }* %0, i32 0, i32 0
  store i8* %2, i8** %4, align 8
  %5 = getelementptr inbounds { i8*, i32 }, { i8*, i32 }* %0, i32 0, i32 1
  store i32 %3, i32* %5, align 8
  br label %bb3

bb1:                                              ; preds = %start
  br label %bb2, !dbg !666

bb4:                                              ; preds = %bb3
  %6 = bitcast { i8*, i32 }* %0 to i8**, !dbg !666
  %7 = load i8*, i8** %6, align 8, !dbg !666
  %8 = getelementptr inbounds { i8*, i32 }, { i8*, i32 }* %0, i32 0, i32 1, !dbg !666
  %9 = load i32, i32* %8, align 8, !dbg !666
  %10 = insertvalue { i8*, i32 } undef, i8* %7, 0, !dbg !666
  %11 = insertvalue { i8*, i32 } %10, i32 %9, 1, !dbg !666
  resume { i8*, i32 } %11, !dbg !666

bb2:                                              ; preds = %bb1
  ret void, !dbg !666
}

; core::ptr::drop_in_place<&i32>
; Function Attrs: inlinehint nonlazybind uwtable
define internal void @"_ZN4core3ptr28drop_in_place$LT$$RF$i32$GT$17h7ec66b900a4eee11E"(i32** %_1) unnamed_addr #2 !dbg !667 {
start:
  %_1.dbg.spill = alloca i32**, align 8
  store i32** %_1, i32*** %_1.dbg.spill, align 8
  call void @llvm.dbg.declare(metadata i32*** %_1.dbg.spill, metadata !673, metadata !DIExpression()), !dbg !674
  ret void, !dbg !674
}

; core::ptr::drop_in_place<&[i32; 1]>
; Function Attrs: inlinehint nonlazybind uwtable
define internal void @"_ZN4core3ptr49drop_in_place$LT$$RF$$u5b$i32$u3b$$u20$1$u5d$$GT$17hb90f7df8ef5ae85eE"([1 x i32]** %_1) unnamed_addr #2 !dbg !675 {
start:
  %_1.dbg.spill = alloca [1 x i32]**, align 8
  store [1 x i32]** %_1, [1 x i32]*** %_1.dbg.spill, align 8
  call void @llvm.dbg.declare(metadata [1 x i32]*** %_1.dbg.spill, metadata !680, metadata !DIExpression()), !dbg !683
  ret void, !dbg !683
}

; core::ptr::drop_in_place<&[i32; 4]>
; Function Attrs: inlinehint nonlazybind uwtable
define internal void @"_ZN4core3ptr49drop_in_place$LT$$RF$$u5b$i32$u3b$$u20$4$u5d$$GT$17h9e0521c4efa00d88E"([4 x i32]** %_1) unnamed_addr #2 !dbg !684 {
start:
  %_1.dbg.spill = alloca [4 x i32]**, align 8
  store [4 x i32]** %_1, [4 x i32]*** %_1.dbg.spill, align 8
  call void @llvm.dbg.declare(metadata [4 x i32]*** %_1.dbg.spill, metadata !689, metadata !DIExpression()), !dbg !692
  ret void, !dbg !692
}

; core::ptr::drop_in_place<&[i32; 6]>
; Function Attrs: inlinehint nonlazybind uwtable
define internal void @"_ZN4core3ptr49drop_in_place$LT$$RF$$u5b$i32$u3b$$u20$6$u5d$$GT$17h8238de2a00adf46bE"([6 x i32]** %_1) unnamed_addr #2 !dbg !693 {
start:
  %_1.dbg.spill = alloca [6 x i32]**, align 8
  store [6 x i32]** %_1, [6 x i32]*** %_1.dbg.spill, align 8
  call void @llvm.dbg.declare(metadata [6 x i32]*** %_1.dbg.spill, metadata !698, metadata !DIExpression()), !dbg !701
  ret void, !dbg !701
}

; core::ptr::drop_in_place<&[i32; 7]>
; Function Attrs: inlinehint nonlazybind uwtable
define internal void @"_ZN4core3ptr49drop_in_place$LT$$RF$$u5b$i32$u3b$$u20$7$u5d$$GT$17h889d1b24797287b7E"([7 x i32]** %_1) unnamed_addr #2 !dbg !702 {
start:
  %_1.dbg.spill = alloca [7 x i32]**, align 8
  store [7 x i32]** %_1, [7 x i32]*** %_1.dbg.spill, align 8
  call void @llvm.dbg.declare(metadata [7 x i32]*** %_1.dbg.spill, metadata !707, metadata !DIExpression()), !dbg !710
  ret void, !dbg !710
}

; core::ptr::drop_in_place<&[i32; 10]>
; Function Attrs: inlinehint nonlazybind uwtable
define internal void @"_ZN4core3ptr50drop_in_place$LT$$RF$$u5b$i32$u3b$$u20$10$u5d$$GT$17h90d6b078349ea47dE"([10 x i32]** %_1) unnamed_addr #2 !dbg !711 {
start:
  %_1.dbg.spill = alloca [10 x i32]**, align 8
  store [10 x i32]** %_1, [10 x i32]*** %_1.dbg.spill, align 8
  call void @llvm.dbg.declare(metadata [10 x i32]*** %_1.dbg.spill, metadata !716, metadata !DIExpression()), !dbg !719
  ret void, !dbg !719
}

; core::ptr::drop_in_place<std::rt::lang_start<()>::{{closure}}>
; Function Attrs: inlinehint nonlazybind uwtable
define internal void @"_ZN4core3ptr85drop_in_place$LT$std..rt..lang_start$LT$$LP$$RP$$GT$..$u7b$$u7b$closure$u7d$$u7d$$GT$17h591352874f4f157eE"(i64** %_1) unnamed_addr #2 !dbg !720 {
start:
  %_1.dbg.spill = alloca i64**, align 8
  store i64** %_1, i64*** %_1.dbg.spill, align 8
  call void @llvm.dbg.declare(metadata i64*** %_1.dbg.spill, metadata !724, metadata !DIExpression()), !dbg !727
  ret void, !dbg !727
}

; core::array::<impl core::fmt::Debug for [T; N]>::fmt
; Function Attrs: nonlazybind uwtable
define internal zeroext i1 @"_ZN4core5array69_$LT$impl$u20$core..fmt..Debug$u20$for$u20$$u5b$T$u3b$$u20$N$u5d$$GT$3fmt17h19f2004614bd64e3E"([7 x i32]* align 4 %self, %"core::fmt::Formatter"* align 8 %f) unnamed_addr #1 !dbg !728 {
start:
  %slice.dbg.spill = alloca { [0 x i32]*, i64 }, align 8
  %self.dbg.spill4 = alloca { [0 x i32]*, i64 }, align 8
  %self.dbg.spill3 = alloca [7 x i32]*, align 8
  %self.dbg.spill2 = alloca %"core::ops::range::RangeFull", align 1
  %index.dbg.spill1 = alloca %"core::ops::range::RangeFull", align 1
  %index.dbg.spill = alloca %"core::ops::range::RangeFull", align 1
  %f.dbg.spill = alloca %"core::fmt::Formatter"*, align 8
  %self.dbg.spill = alloca [7 x i32]*, align 8
  %_5 = alloca { [0 x i32]*, i64 }, align 8
  store [7 x i32]* %self, [7 x i32]** %self.dbg.spill, align 8
  call void @llvm.dbg.declare(metadata [7 x i32]** %self.dbg.spill, metadata !735, metadata !DIExpression()), !dbg !737
  store %"core::fmt::Formatter"* %f, %"core::fmt::Formatter"** %f.dbg.spill, align 8
  call void @llvm.dbg.declare(metadata %"core::fmt::Formatter"** %f.dbg.spill, metadata !736, metadata !DIExpression()), !dbg !738
  call void @llvm.dbg.declare(metadata %"core::ops::range::RangeFull"* %index.dbg.spill, metadata !739, metadata !DIExpression()), !dbg !758
  call void @llvm.dbg.declare(metadata %"core::ops::range::RangeFull"* %index.dbg.spill1, metadata !760, metadata !DIExpression()), !dbg !770
  call void @llvm.dbg.declare(metadata %"core::ops::range::RangeFull"* %self.dbg.spill2, metadata !772, metadata !DIExpression()), !dbg !780
  store [7 x i32]* %self, [7 x i32]** %self.dbg.spill3, align 8, !dbg !759
  call void @llvm.dbg.declare(metadata [7 x i32]** %self.dbg.spill3, metadata !755, metadata !DIExpression()), !dbg !758
  %_11.0 = bitcast [7 x i32]* %self to [0 x i32]*, !dbg !758
  %0 = getelementptr inbounds { [0 x i32]*, i64 }, { [0 x i32]*, i64 }* %self.dbg.spill4, i32 0, i32 0, !dbg !758
  store [0 x i32]* %_11.0, [0 x i32]** %0, align 8, !dbg !758
  %1 = getelementptr inbounds { [0 x i32]*, i64 }, { [0 x i32]*, i64 }* %self.dbg.spill4, i32 0, i32 1, !dbg !758
  store i64 7, i64* %1, align 8, !dbg !758
  call void @llvm.dbg.declare(metadata { [0 x i32]*, i64 }* %self.dbg.spill4, metadata !769, metadata !DIExpression()), !dbg !770
  %2 = getelementptr inbounds { [0 x i32]*, i64 }, { [0 x i32]*, i64 }* %slice.dbg.spill, i32 0, i32 0, !dbg !770
  store [0 x i32]* %_11.0, [0 x i32]** %2, align 8, !dbg !770
  %3 = getelementptr inbounds { [0 x i32]*, i64 }, { [0 x i32]*, i64 }* %slice.dbg.spill, i32 0, i32 1, !dbg !770
  store i64 7, i64* %3, align 8, !dbg !770
  call void @llvm.dbg.declare(metadata { [0 x i32]*, i64 }* %slice.dbg.spill, metadata !779, metadata !DIExpression()), !dbg !780
  %4 = getelementptr inbounds { [0 x i32]*, i64 }, { [0 x i32]*, i64 }* %_5, i32 0, i32 0, !dbg !782
  store [0 x i32]* %_11.0, [0 x i32]** %4, align 8, !dbg !782
  %5 = getelementptr inbounds { [0 x i32]*, i64 }, { [0 x i32]*, i64 }* %_5, i32 0, i32 1, !dbg !782
  store i64 7, i64* %5, align 8, !dbg !782
; call <&T as core::fmt::Debug>::fmt
  %6 = call zeroext i1 @"_ZN42_$LT$$RF$T$u20$as$u20$core..fmt..Debug$GT$3fmt17h384c4c39141f8cfdE"({ [0 x i32]*, i64 }* align 8 %_5, %"core::fmt::Formatter"* align 8 %f), !dbg !783
  br label %bb1, !dbg !783

bb1:                                              ; preds = %start
  ret i1 %6, !dbg !784
}

; core::array::<impl core::fmt::Debug for [T; N]>::fmt
; Function Attrs: nonlazybind uwtable
define internal zeroext i1 @"_ZN4core5array69_$LT$impl$u20$core..fmt..Debug$u20$for$u20$$u5b$T$u3b$$u20$N$u5d$$GT$3fmt17h7eb0907c0c19ff33E"([1 x i32]* align 4 %self, %"core::fmt::Formatter"* align 8 %f) unnamed_addr #1 !dbg !785 {
start:
  %slice.dbg.spill = alloca { [0 x i32]*, i64 }, align 8
  %self.dbg.spill4 = alloca { [0 x i32]*, i64 }, align 8
  %self.dbg.spill3 = alloca [1 x i32]*, align 8
  %self.dbg.spill2 = alloca %"core::ops::range::RangeFull", align 1
  %index.dbg.spill1 = alloca %"core::ops::range::RangeFull", align 1
  %index.dbg.spill = alloca %"core::ops::range::RangeFull", align 1
  %f.dbg.spill = alloca %"core::fmt::Formatter"*, align 8
  %self.dbg.spill = alloca [1 x i32]*, align 8
  %_5 = alloca { [0 x i32]*, i64 }, align 8
  store [1 x i32]* %self, [1 x i32]** %self.dbg.spill, align 8
  call void @llvm.dbg.declare(metadata [1 x i32]** %self.dbg.spill, metadata !789, metadata !DIExpression()), !dbg !791
  store %"core::fmt::Formatter"* %f, %"core::fmt::Formatter"** %f.dbg.spill, align 8
  call void @llvm.dbg.declare(metadata %"core::fmt::Formatter"** %f.dbg.spill, metadata !790, metadata !DIExpression()), !dbg !792
  call void @llvm.dbg.declare(metadata %"core::ops::range::RangeFull"* %index.dbg.spill, metadata !793, metadata !DIExpression()), !dbg !799
  call void @llvm.dbg.declare(metadata %"core::ops::range::RangeFull"* %index.dbg.spill1, metadata !801, metadata !DIExpression()), !dbg !806
  call void @llvm.dbg.declare(metadata %"core::ops::range::RangeFull"* %self.dbg.spill2, metadata !808, metadata !DIExpression()), !dbg !813
  store [1 x i32]* %self, [1 x i32]** %self.dbg.spill3, align 8, !dbg !800
  call void @llvm.dbg.declare(metadata [1 x i32]** %self.dbg.spill3, metadata !798, metadata !DIExpression()), !dbg !799
  %_11.0 = bitcast [1 x i32]* %self to [0 x i32]*, !dbg !799
  %0 = getelementptr inbounds { [0 x i32]*, i64 }, { [0 x i32]*, i64 }* %self.dbg.spill4, i32 0, i32 0, !dbg !799
  store [0 x i32]* %_11.0, [0 x i32]** %0, align 8, !dbg !799
  %1 = getelementptr inbounds { [0 x i32]*, i64 }, { [0 x i32]*, i64 }* %self.dbg.spill4, i32 0, i32 1, !dbg !799
  store i64 1, i64* %1, align 8, !dbg !799
  call void @llvm.dbg.declare(metadata { [0 x i32]*, i64 }* %self.dbg.spill4, metadata !805, metadata !DIExpression()), !dbg !806
  %2 = getelementptr inbounds { [0 x i32]*, i64 }, { [0 x i32]*, i64 }* %slice.dbg.spill, i32 0, i32 0, !dbg !806
  store [0 x i32]* %_11.0, [0 x i32]** %2, align 8, !dbg !806
  %3 = getelementptr inbounds { [0 x i32]*, i64 }, { [0 x i32]*, i64 }* %slice.dbg.spill, i32 0, i32 1, !dbg !806
  store i64 1, i64* %3, align 8, !dbg !806
  call void @llvm.dbg.declare(metadata { [0 x i32]*, i64 }* %slice.dbg.spill, metadata !812, metadata !DIExpression()), !dbg !813
  %4 = getelementptr inbounds { [0 x i32]*, i64 }, { [0 x i32]*, i64 }* %_5, i32 0, i32 0, !dbg !815
  store [0 x i32]* %_11.0, [0 x i32]** %4, align 8, !dbg !815
  %5 = getelementptr inbounds { [0 x i32]*, i64 }, { [0 x i32]*, i64 }* %_5, i32 0, i32 1, !dbg !815
  store i64 1, i64* %5, align 8, !dbg !815
; call <&T as core::fmt::Debug>::fmt
  %6 = call zeroext i1 @"_ZN42_$LT$$RF$T$u20$as$u20$core..fmt..Debug$GT$3fmt17h384c4c39141f8cfdE"({ [0 x i32]*, i64 }* align 8 %_5, %"core::fmt::Formatter"* align 8 %f), !dbg !816
  br label %bb1, !dbg !816

bb1:                                              ; preds = %start
  ret i1 %6, !dbg !817
}

; core::array::<impl core::fmt::Debug for [T; N]>::fmt
; Function Attrs: nonlazybind uwtable
define internal zeroext i1 @"_ZN4core5array69_$LT$impl$u20$core..fmt..Debug$u20$for$u20$$u5b$T$u3b$$u20$N$u5d$$GT$3fmt17hcfa8031c92774399E"([4 x i32]* align 4 %self, %"core::fmt::Formatter"* align 8 %f) unnamed_addr #1 !dbg !818 {
start:
  %slice.dbg.spill = alloca { [0 x i32]*, i64 }, align 8
  %self.dbg.spill4 = alloca { [0 x i32]*, i64 }, align 8
  %self.dbg.spill3 = alloca [4 x i32]*, align 8
  %self.dbg.spill2 = alloca %"core::ops::range::RangeFull", align 1
  %index.dbg.spill1 = alloca %"core::ops::range::RangeFull", align 1
  %index.dbg.spill = alloca %"core::ops::range::RangeFull", align 1
  %f.dbg.spill = alloca %"core::fmt::Formatter"*, align 8
  %self.dbg.spill = alloca [4 x i32]*, align 8
  %_5 = alloca { [0 x i32]*, i64 }, align 8
  store [4 x i32]* %self, [4 x i32]** %self.dbg.spill, align 8
  call void @llvm.dbg.declare(metadata [4 x i32]** %self.dbg.spill, metadata !822, metadata !DIExpression()), !dbg !824
  store %"core::fmt::Formatter"* %f, %"core::fmt::Formatter"** %f.dbg.spill, align 8
  call void @llvm.dbg.declare(metadata %"core::fmt::Formatter"** %f.dbg.spill, metadata !823, metadata !DIExpression()), !dbg !825
  call void @llvm.dbg.declare(metadata %"core::ops::range::RangeFull"* %index.dbg.spill, metadata !826, metadata !DIExpression()), !dbg !832
  call void @llvm.dbg.declare(metadata %"core::ops::range::RangeFull"* %index.dbg.spill1, metadata !834, metadata !DIExpression()), !dbg !839
  call void @llvm.dbg.declare(metadata %"core::ops::range::RangeFull"* %self.dbg.spill2, metadata !841, metadata !DIExpression()), !dbg !846
  store [4 x i32]* %self, [4 x i32]** %self.dbg.spill3, align 8, !dbg !833
  call void @llvm.dbg.declare(metadata [4 x i32]** %self.dbg.spill3, metadata !831, metadata !DIExpression()), !dbg !832
  %_11.0 = bitcast [4 x i32]* %self to [0 x i32]*, !dbg !832
  %0 = getelementptr inbounds { [0 x i32]*, i64 }, { [0 x i32]*, i64 }* %self.dbg.spill4, i32 0, i32 0, !dbg !832
  store [0 x i32]* %_11.0, [0 x i32]** %0, align 8, !dbg !832
  %1 = getelementptr inbounds { [0 x i32]*, i64 }, { [0 x i32]*, i64 }* %self.dbg.spill4, i32 0, i32 1, !dbg !832
  store i64 4, i64* %1, align 8, !dbg !832
  call void @llvm.dbg.declare(metadata { [0 x i32]*, i64 }* %self.dbg.spill4, metadata !838, metadata !DIExpression()), !dbg !839
  %2 = getelementptr inbounds { [0 x i32]*, i64 }, { [0 x i32]*, i64 }* %slice.dbg.spill, i32 0, i32 0, !dbg !839
  store [0 x i32]* %_11.0, [0 x i32]** %2, align 8, !dbg !839
  %3 = getelementptr inbounds { [0 x i32]*, i64 }, { [0 x i32]*, i64 }* %slice.dbg.spill, i32 0, i32 1, !dbg !839
  store i64 4, i64* %3, align 8, !dbg !839
  call void @llvm.dbg.declare(metadata { [0 x i32]*, i64 }* %slice.dbg.spill, metadata !845, metadata !DIExpression()), !dbg !846
  %4 = getelementptr inbounds { [0 x i32]*, i64 }, { [0 x i32]*, i64 }* %_5, i32 0, i32 0, !dbg !848
  store [0 x i32]* %_11.0, [0 x i32]** %4, align 8, !dbg !848
  %5 = getelementptr inbounds { [0 x i32]*, i64 }, { [0 x i32]*, i64 }* %_5, i32 0, i32 1, !dbg !848
  store i64 4, i64* %5, align 8, !dbg !848
; call <&T as core::fmt::Debug>::fmt
  %6 = call zeroext i1 @"_ZN42_$LT$$RF$T$u20$as$u20$core..fmt..Debug$GT$3fmt17h384c4c39141f8cfdE"({ [0 x i32]*, i64 }* align 8 %_5, %"core::fmt::Formatter"* align 8 %f), !dbg !849
  br label %bb1, !dbg !849

bb1:                                              ; preds = %start
  ret i1 %6, !dbg !850
}

; core::array::<impl core::fmt::Debug for [T; N]>::fmt
; Function Attrs: nonlazybind uwtable
define internal zeroext i1 @"_ZN4core5array69_$LT$impl$u20$core..fmt..Debug$u20$for$u20$$u5b$T$u3b$$u20$N$u5d$$GT$3fmt17hdcaf2c7de2ab494eE"([10 x i32]* align 4 %self, %"core::fmt::Formatter"* align 8 %f) unnamed_addr #1 !dbg !851 {
start:
  %slice.dbg.spill = alloca { [0 x i32]*, i64 }, align 8
  %self.dbg.spill4 = alloca { [0 x i32]*, i64 }, align 8
  %self.dbg.spill3 = alloca [10 x i32]*, align 8
  %self.dbg.spill2 = alloca %"core::ops::range::RangeFull", align 1
  %index.dbg.spill1 = alloca %"core::ops::range::RangeFull", align 1
  %index.dbg.spill = alloca %"core::ops::range::RangeFull", align 1
  %f.dbg.spill = alloca %"core::fmt::Formatter"*, align 8
  %self.dbg.spill = alloca [10 x i32]*, align 8
  %_5 = alloca { [0 x i32]*, i64 }, align 8
  store [10 x i32]* %self, [10 x i32]** %self.dbg.spill, align 8
  call void @llvm.dbg.declare(metadata [10 x i32]** %self.dbg.spill, metadata !855, metadata !DIExpression()), !dbg !857
  store %"core::fmt::Formatter"* %f, %"core::fmt::Formatter"** %f.dbg.spill, align 8
  call void @llvm.dbg.declare(metadata %"core::fmt::Formatter"** %f.dbg.spill, metadata !856, metadata !DIExpression()), !dbg !858
  call void @llvm.dbg.declare(metadata %"core::ops::range::RangeFull"* %index.dbg.spill, metadata !859, metadata !DIExpression()), !dbg !865
  call void @llvm.dbg.declare(metadata %"core::ops::range::RangeFull"* %index.dbg.spill1, metadata !867, metadata !DIExpression()), !dbg !872
  call void @llvm.dbg.declare(metadata %"core::ops::range::RangeFull"* %self.dbg.spill2, metadata !874, metadata !DIExpression()), !dbg !879
  store [10 x i32]* %self, [10 x i32]** %self.dbg.spill3, align 8, !dbg !866
  call void @llvm.dbg.declare(metadata [10 x i32]** %self.dbg.spill3, metadata !864, metadata !DIExpression()), !dbg !865
  %_11.0 = bitcast [10 x i32]* %self to [0 x i32]*, !dbg !865
  %0 = getelementptr inbounds { [0 x i32]*, i64 }, { [0 x i32]*, i64 }* %self.dbg.spill4, i32 0, i32 0, !dbg !865
  store [0 x i32]* %_11.0, [0 x i32]** %0, align 8, !dbg !865
  %1 = getelementptr inbounds { [0 x i32]*, i64 }, { [0 x i32]*, i64 }* %self.dbg.spill4, i32 0, i32 1, !dbg !865
  store i64 10, i64* %1, align 8, !dbg !865
  call void @llvm.dbg.declare(metadata { [0 x i32]*, i64 }* %self.dbg.spill4, metadata !871, metadata !DIExpression()), !dbg !872
  %2 = getelementptr inbounds { [0 x i32]*, i64 }, { [0 x i32]*, i64 }* %slice.dbg.spill, i32 0, i32 0, !dbg !872
  store [0 x i32]* %_11.0, [0 x i32]** %2, align 8, !dbg !872
  %3 = getelementptr inbounds { [0 x i32]*, i64 }, { [0 x i32]*, i64 }* %slice.dbg.spill, i32 0, i32 1, !dbg !872
  store i64 10, i64* %3, align 8, !dbg !872
  call void @llvm.dbg.declare(metadata { [0 x i32]*, i64 }* %slice.dbg.spill, metadata !878, metadata !DIExpression()), !dbg !879
  %4 = getelementptr inbounds { [0 x i32]*, i64 }, { [0 x i32]*, i64 }* %_5, i32 0, i32 0, !dbg !881
  store [0 x i32]* %_11.0, [0 x i32]** %4, align 8, !dbg !881
  %5 = getelementptr inbounds { [0 x i32]*, i64 }, { [0 x i32]*, i64 }* %_5, i32 0, i32 1, !dbg !881
  store i64 10, i64* %5, align 8, !dbg !881
; call <&T as core::fmt::Debug>::fmt
  %6 = call zeroext i1 @"_ZN42_$LT$$RF$T$u20$as$u20$core..fmt..Debug$GT$3fmt17h384c4c39141f8cfdE"({ [0 x i32]*, i64 }* align 8 %_5, %"core::fmt::Formatter"* align 8 %f), !dbg !882
  br label %bb1, !dbg !882

bb1:                                              ; preds = %start
  ret i1 %6, !dbg !883
}

; core::array::<impl core::fmt::Debug for [T; N]>::fmt
; Function Attrs: nonlazybind uwtable
define internal zeroext i1 @"_ZN4core5array69_$LT$impl$u20$core..fmt..Debug$u20$for$u20$$u5b$T$u3b$$u20$N$u5d$$GT$3fmt17he336869ccd8e886dE"([6 x i32]* align 4 %self, %"core::fmt::Formatter"* align 8 %f) unnamed_addr #1 !dbg !884 {
start:
  %slice.dbg.spill = alloca { [0 x i32]*, i64 }, align 8
  %self.dbg.spill4 = alloca { [0 x i32]*, i64 }, align 8
  %self.dbg.spill3 = alloca [6 x i32]*, align 8
  %self.dbg.spill2 = alloca %"core::ops::range::RangeFull", align 1
  %index.dbg.spill1 = alloca %"core::ops::range::RangeFull", align 1
  %index.dbg.spill = alloca %"core::ops::range::RangeFull", align 1
  %f.dbg.spill = alloca %"core::fmt::Formatter"*, align 8
  %self.dbg.spill = alloca [6 x i32]*, align 8
  %_5 = alloca { [0 x i32]*, i64 }, align 8
  store [6 x i32]* %self, [6 x i32]** %self.dbg.spill, align 8
  call void @llvm.dbg.declare(metadata [6 x i32]** %self.dbg.spill, metadata !888, metadata !DIExpression()), !dbg !890
  store %"core::fmt::Formatter"* %f, %"core::fmt::Formatter"** %f.dbg.spill, align 8
  call void @llvm.dbg.declare(metadata %"core::fmt::Formatter"** %f.dbg.spill, metadata !889, metadata !DIExpression()), !dbg !891
  call void @llvm.dbg.declare(metadata %"core::ops::range::RangeFull"* %index.dbg.spill, metadata !892, metadata !DIExpression()), !dbg !898
  call void @llvm.dbg.declare(metadata %"core::ops::range::RangeFull"* %index.dbg.spill1, metadata !900, metadata !DIExpression()), !dbg !905
  call void @llvm.dbg.declare(metadata %"core::ops::range::RangeFull"* %self.dbg.spill2, metadata !907, metadata !DIExpression()), !dbg !912
  store [6 x i32]* %self, [6 x i32]** %self.dbg.spill3, align 8, !dbg !899
  call void @llvm.dbg.declare(metadata [6 x i32]** %self.dbg.spill3, metadata !897, metadata !DIExpression()), !dbg !898
  %_11.0 = bitcast [6 x i32]* %self to [0 x i32]*, !dbg !898
  %0 = getelementptr inbounds { [0 x i32]*, i64 }, { [0 x i32]*, i64 }* %self.dbg.spill4, i32 0, i32 0, !dbg !898
  store [0 x i32]* %_11.0, [0 x i32]** %0, align 8, !dbg !898
  %1 = getelementptr inbounds { [0 x i32]*, i64 }, { [0 x i32]*, i64 }* %self.dbg.spill4, i32 0, i32 1, !dbg !898
  store i64 6, i64* %1, align 8, !dbg !898
  call void @llvm.dbg.declare(metadata { [0 x i32]*, i64 }* %self.dbg.spill4, metadata !904, metadata !DIExpression()), !dbg !905
  %2 = getelementptr inbounds { [0 x i32]*, i64 }, { [0 x i32]*, i64 }* %slice.dbg.spill, i32 0, i32 0, !dbg !905
  store [0 x i32]* %_11.0, [0 x i32]** %2, align 8, !dbg !905
  %3 = getelementptr inbounds { [0 x i32]*, i64 }, { [0 x i32]*, i64 }* %slice.dbg.spill, i32 0, i32 1, !dbg !905
  store i64 6, i64* %3, align 8, !dbg !905
  call void @llvm.dbg.declare(metadata { [0 x i32]*, i64 }* %slice.dbg.spill, metadata !911, metadata !DIExpression()), !dbg !912
  %4 = getelementptr inbounds { [0 x i32]*, i64 }, { [0 x i32]*, i64 }* %_5, i32 0, i32 0, !dbg !914
  store [0 x i32]* %_11.0, [0 x i32]** %4, align 8, !dbg !914
  %5 = getelementptr inbounds { [0 x i32]*, i64 }, { [0 x i32]*, i64 }* %_5, i32 0, i32 1, !dbg !914
  store i64 6, i64* %5, align 8, !dbg !914
; call <&T as core::fmt::Debug>::fmt
  %6 = call zeroext i1 @"_ZN42_$LT$$RF$T$u20$as$u20$core..fmt..Debug$GT$3fmt17h384c4c39141f8cfdE"({ [0 x i32]*, i64 }* align 8 %_5, %"core::fmt::Formatter"* align 8 %f), !dbg !915
  br label %bb1, !dbg !915

bb1:                                              ; preds = %start
  ret i1 %6, !dbg !916
}

; core::array::equality::<impl core::cmp::PartialEq<[B; N]> for [A; N]>::eq
; Function Attrs: inlinehint nonlazybind uwtable
define internal zeroext i1 @"_ZN4core5array8equality103_$LT$impl$u20$core..cmp..PartialEq$LT$$u5b$B$u3b$$u20$N$u5d$$GT$$u20$for$u20$$u5b$A$u3b$$u20$N$u5d$$GT$2eq17h78f399bd261d3bafE"([7 x i32]* align 4 %self, [7 x i32]* align 4 %other) unnamed_addr #2 !dbg !917 {
start:
  %other.dbg.spill = alloca [7 x i32]*, align 8
  %self.dbg.spill = alloca [7 x i32]*, align 8
  store [7 x i32]* %self, [7 x i32]** %self.dbg.spill, align 8
  call void @llvm.dbg.declare(metadata [7 x i32]** %self.dbg.spill, metadata !924, metadata !DIExpression()), !dbg !929
  store [7 x i32]* %other, [7 x i32]** %other.dbg.spill, align 8
  call void @llvm.dbg.declare(metadata [7 x i32]** %other.dbg.spill, metadata !925, metadata !DIExpression()), !dbg !930
; call <T as core::array::equality::SpecArrayEq<U,_>>::spec_eq
  %0 = call zeroext i1 @"_ZN69_$LT$T$u20$as$u20$core..array..equality..SpecArrayEq$LT$U$C$_$GT$$GT$7spec_eq17h56022b03ab245208E"([7 x i32]* align 4 %self, [7 x i32]* align 4 %other), !dbg !931
  br label %bb1, !dbg !931

bb1:                                              ; preds = %start
  ret i1 %0, !dbg !932
}

; core::array::equality::<impl core::cmp::PartialEq<[B; N]> for [A; N]>::eq
; Function Attrs: inlinehint nonlazybind uwtable
define internal zeroext i1 @"_ZN4core5array8equality103_$LT$impl$u20$core..cmp..PartialEq$LT$$u5b$B$u3b$$u20$N$u5d$$GT$$u20$for$u20$$u5b$A$u3b$$u20$N$u5d$$GT$2eq17hd3a423a48c324e28E"([1 x i32]* align 4 %self, [1 x i32]* align 4 %other) unnamed_addr #2 !dbg !933 {
start:
  %other.dbg.spill = alloca [1 x i32]*, align 8
  %self.dbg.spill = alloca [1 x i32]*, align 8
  store [1 x i32]* %self, [1 x i32]** %self.dbg.spill, align 8
  call void @llvm.dbg.declare(metadata [1 x i32]** %self.dbg.spill, metadata !937, metadata !DIExpression()), !dbg !939
  store [1 x i32]* %other, [1 x i32]** %other.dbg.spill, align 8
  call void @llvm.dbg.declare(metadata [1 x i32]** %other.dbg.spill, metadata !938, metadata !DIExpression()), !dbg !940
; call <T as core::array::equality::SpecArrayEq<U,_>>::spec_eq
  %0 = call zeroext i1 @"_ZN69_$LT$T$u20$as$u20$core..array..equality..SpecArrayEq$LT$U$C$_$GT$$GT$7spec_eq17h0e5942eeb1b6bb06E"([1 x i32]* align 4 %self, [1 x i32]* align 4 %other), !dbg !941
  br label %bb1, !dbg !941

bb1:                                              ; preds = %start
  ret i1 %0, !dbg !942
}

; core::array::equality::<impl core::cmp::PartialEq<[B; N]> for [A; N]>::eq
; Function Attrs: inlinehint nonlazybind uwtable
define internal zeroext i1 @"_ZN4core5array8equality103_$LT$impl$u20$core..cmp..PartialEq$LT$$u5b$B$u3b$$u20$N$u5d$$GT$$u20$for$u20$$u5b$A$u3b$$u20$N$u5d$$GT$2eq17hd92c6ff93cabd6daE"([10 x i32]* align 4 %self, [10 x i32]* align 4 %other) unnamed_addr #2 !dbg !943 {
start:
  %other.dbg.spill = alloca [10 x i32]*, align 8
  %self.dbg.spill = alloca [10 x i32]*, align 8
  store [10 x i32]* %self, [10 x i32]** %self.dbg.spill, align 8
  call void @llvm.dbg.declare(metadata [10 x i32]** %self.dbg.spill, metadata !947, metadata !DIExpression()), !dbg !949
  store [10 x i32]* %other, [10 x i32]** %other.dbg.spill, align 8
  call void @llvm.dbg.declare(metadata [10 x i32]** %other.dbg.spill, metadata !948, metadata !DIExpression()), !dbg !950
; call <T as core::array::equality::SpecArrayEq<U,_>>::spec_eq
  %0 = call zeroext i1 @"_ZN69_$LT$T$u20$as$u20$core..array..equality..SpecArrayEq$LT$U$C$_$GT$$GT$7spec_eq17h9198cbe9600a3706E"([10 x i32]* align 4 %self, [10 x i32]* align 4 %other), !dbg !951
  br label %bb1, !dbg !951

bb1:                                              ; preds = %start
  ret i1 %0, !dbg !952
}

; core::array::equality::<impl core::cmp::PartialEq<[B; N]> for [A; N]>::eq
; Function Attrs: inlinehint nonlazybind uwtable
define internal zeroext i1 @"_ZN4core5array8equality103_$LT$impl$u20$core..cmp..PartialEq$LT$$u5b$B$u3b$$u20$N$u5d$$GT$$u20$for$u20$$u5b$A$u3b$$u20$N$u5d$$GT$2eq17he1bb92bffaa7cd4aE"([6 x i32]* align 4 %self, [6 x i32]* align 4 %other) unnamed_addr #2 !dbg !953 {
start:
  %other.dbg.spill = alloca [6 x i32]*, align 8
  %self.dbg.spill = alloca [6 x i32]*, align 8
  store [6 x i32]* %self, [6 x i32]** %self.dbg.spill, align 8
  call void @llvm.dbg.declare(metadata [6 x i32]** %self.dbg.spill, metadata !957, metadata !DIExpression()), !dbg !959
  store [6 x i32]* %other, [6 x i32]** %other.dbg.spill, align 8
  call void @llvm.dbg.declare(metadata [6 x i32]** %other.dbg.spill, metadata !958, metadata !DIExpression()), !dbg !960
; call <T as core::array::equality::SpecArrayEq<U,_>>::spec_eq
  %0 = call zeroext i1 @"_ZN69_$LT$T$u20$as$u20$core..array..equality..SpecArrayEq$LT$U$C$_$GT$$GT$7spec_eq17h7dcc9f1d67c07352E"([6 x i32]* align 4 %self, [6 x i32]* align 4 %other), !dbg !961
  br label %bb1, !dbg !961

bb1:                                              ; preds = %start
  ret i1 %0, !dbg !962
}

; core::array::equality::<impl core::cmp::PartialEq<[B; N]> for [A; N]>::eq
; Function Attrs: inlinehint nonlazybind uwtable
define internal zeroext i1 @"_ZN4core5array8equality103_$LT$impl$u20$core..cmp..PartialEq$LT$$u5b$B$u3b$$u20$N$u5d$$GT$$u20$for$u20$$u5b$A$u3b$$u20$N$u5d$$GT$2eq17he96d361e685ffc6fE"([4 x i32]* align 4 %self, [4 x i32]* align 4 %other) unnamed_addr #2 !dbg !963 {
start:
  %other.dbg.spill = alloca [4 x i32]*, align 8
  %self.dbg.spill = alloca [4 x i32]*, align 8
  store [4 x i32]* %self, [4 x i32]** %self.dbg.spill, align 8
  call void @llvm.dbg.declare(metadata [4 x i32]** %self.dbg.spill, metadata !967, metadata !DIExpression()), !dbg !969
  store [4 x i32]* %other, [4 x i32]** %other.dbg.spill, align 8
  call void @llvm.dbg.declare(metadata [4 x i32]** %other.dbg.spill, metadata !968, metadata !DIExpression()), !dbg !970
; call <T as core::array::equality::SpecArrayEq<U,_>>::spec_eq
  %0 = call zeroext i1 @"_ZN69_$LT$T$u20$as$u20$core..array..equality..SpecArrayEq$LT$U$C$_$GT$$GT$7spec_eq17h3d84af9d11966e72E"([4 x i32]* align 4 %self, [4 x i32]* align 4 %other), !dbg !971
  br label %bb1, !dbg !971

bb1:                                              ; preds = %start
  ret i1 %0, !dbg !972
}

; core::slice::<impl [T]>::as_mut_ptr
; Function Attrs: inlinehint nonlazybind uwtable
define internal i32* @"_ZN4core5slice29_$LT$impl$u20$$u5b$T$u5d$$GT$10as_mut_ptr17h416cb3eecf921d6fE"([0 x i32]* align 4 %self.0, i64 %self.1) unnamed_addr #2 !dbg !973 {
start:
  %self.dbg.spill = alloca { [0 x i32]*, i64 }, align 8
  %0 = getelementptr inbounds { [0 x i32]*, i64 }, { [0 x i32]*, i64 }* %self.dbg.spill, i32 0, i32 0
  store [0 x i32]* %self.0, [0 x i32]** %0, align 8
  %1 = getelementptr inbounds { [0 x i32]*, i64 }, { [0 x i32]*, i64 }* %self.dbg.spill, i32 0, i32 1
  store i64 %self.1, i64* %1, align 8
  call void @llvm.dbg.declare(metadata { [0 x i32]*, i64 }* %self.dbg.spill, metadata !982, metadata !DIExpression()), !dbg !983
  %2 = bitcast [0 x i32]* %self.0 to i32*, !dbg !984
  ret i32* %2, !dbg !985
}

; core::slice::iter::Iter<T>::new
; Function Attrs: inlinehint nonlazybind uwtable
define internal { i32*, i32* } @"_ZN4core5slice4iter13Iter$LT$T$GT$3new17h619f0f691c4c3fbbE"([0 x i32]* align 4 %slice.0, i64 %slice.1) unnamed_addr #2 !dbg !986 {
start:
  %ptr.dbg.spill11 = alloca i32*, align 8
  %0 = alloca i8*, align 8
  %count.dbg.spill10 = alloca i64, align 8
  %self.dbg.spill9 = alloca i8*, align 8
  %count.dbg.spill8 = alloca i64, align 8
  %self.dbg.spill7 = alloca i8*, align 8
  %count.dbg.spill5 = alloca i64, align 8
  %self.dbg.spill4 = alloca i32*, align 8
  %count.dbg.spill = alloca i64, align 8
  %self.dbg.spill3 = alloca i32*, align 8
  %1 = alloca i8, align 1
  %other.dbg.spill = alloca i8*, align 8
  %data_address.dbg.spill = alloca {}*, align 8
  %2 = alloca {}*, align 8
  %self.dbg.spill2 = alloca i8*, align 8
  %self.dbg.spill1 = alloca i32*, align 8
  %ptr.dbg.spill = alloca i32*, align 8
  %self.dbg.spill = alloca { [0 x i32]*, i64 }, align 8
  %metadata.dbg.spill = alloca {}, align 1
  %slice.dbg.spill = alloca { [0 x i32]*, i64 }, align 8
  %_31 = alloca %"core::ptr::metadata::PtrComponents<u8>", align 8
  %_30 = alloca %"core::ptr::metadata::PtrRepr<u8>", align 8
  %_18 = alloca i32*, align 8
  %end = alloca i32*, align 8
  %3 = alloca { i32*, i32* }, align 8
  %4 = getelementptr inbounds { [0 x i32]*, i64 }, { [0 x i32]*, i64 }* %slice.dbg.spill, i32 0, i32 0
  store [0 x i32]* %slice.0, [0 x i32]** %4, align 8
  %5 = getelementptr inbounds { [0 x i32]*, i64 }, { [0 x i32]*, i64 }* %slice.dbg.spill, i32 0, i32 1
  store i64 %slice.1, i64* %5, align 8
  call void @llvm.dbg.declare(metadata { [0 x i32]*, i64 }* %slice.dbg.spill, metadata !989, metadata !DIExpression()), !dbg !994
  call void @llvm.dbg.declare(metadata i32** %end, metadata !992, metadata !DIExpression()), !dbg !995
  call void @llvm.dbg.declare(metadata {}* %metadata.dbg.spill, metadata !996, metadata !DIExpression()), !dbg !1007
  %6 = getelementptr inbounds { [0 x i32]*, i64 }, { [0 x i32]*, i64 }* %self.dbg.spill, i32 0, i32 0, !dbg !1023
  store [0 x i32]* %slice.0, [0 x i32]** %6, align 8, !dbg !1023
  %7 = getelementptr inbounds { [0 x i32]*, i64 }, { [0 x i32]*, i64 }* %self.dbg.spill, i32 0, i32 1, !dbg !1023
  store i64 %slice.1, i64* %7, align 8, !dbg !1023
  call void @llvm.dbg.declare(metadata { [0 x i32]*, i64 }* %self.dbg.spill, metadata !1024, metadata !DIExpression()), !dbg !1030
  %ptr = bitcast [0 x i32]* %slice.0 to i32*, !dbg !1030
  store i32* %ptr, i32** %ptr.dbg.spill, align 8, !dbg !1030
  call void @llvm.dbg.declare(metadata i32** %ptr.dbg.spill, metadata !990, metadata !DIExpression()), !dbg !1031
  store i32* %ptr, i32** %self.dbg.spill1, align 8, !dbg !1022
  call void @llvm.dbg.declare(metadata i32** %self.dbg.spill1, metadata !1020, metadata !DIExpression()), !dbg !1032
  %self = bitcast i32* %ptr to i8*, !dbg !1032
  store i8* %self, i8** %self.dbg.spill2, align 8, !dbg !1032
  call void @llvm.dbg.declare(metadata i8** %self.dbg.spill2, metadata !1033, metadata !DIExpression()), !dbg !1040
  %8 = bitcast {}** %2 to i64*, !dbg !1042
  store i64 0, i64* %8, align 8, !dbg !1042
  %data_address = load {}*, {}** %2, align 8, !dbg !1042
  store {}* %data_address, {}** %data_address.dbg.spill, align 8, !dbg !1042
  call void @llvm.dbg.declare(metadata {}** %data_address.dbg.spill, metadata !1004, metadata !DIExpression()), !dbg !1007
  br label %bb5, !dbg !1042

bb5:                                              ; preds = %start
  %9 = bitcast %"core::ptr::metadata::PtrComponents<u8>"* %_31 to {}**, !dbg !1007
  store {}* %data_address, {}** %9, align 8, !dbg !1007
  %10 = bitcast %"core::ptr::metadata::PtrRepr<u8>"* %_30 to %"core::ptr::metadata::PtrComponents<u8>"*, !dbg !1007
  %11 = bitcast %"core::ptr::metadata::PtrComponents<u8>"* %10 to i8*, !dbg !1007
  %12 = bitcast %"core::ptr::metadata::PtrComponents<u8>"* %_31 to i8*, !dbg !1007
  call void @llvm.memcpy.p0i8.p0i8.i64(i8* align 8 %11, i8* align 8 %12, i64 8, i1 false), !dbg !1007
  %13 = bitcast %"core::ptr::metadata::PtrRepr<u8>"* %_30 to i8**, !dbg !1007
  %other = load i8*, i8** %13, align 8, !dbg !1007
  store i8* %other, i8** %other.dbg.spill, align 8, !dbg !1007
  call void @llvm.dbg.declare(metadata i8** %other.dbg.spill, metadata !1039, metadata !DIExpression()), !dbg !1040
  %14 = icmp eq i8* %self, %other, !dbg !1040
  %15 = zext i1 %14 to i8, !dbg !1040
  store i8 %15, i8* %1, align 1, !dbg !1040
  %16 = load i8, i8* %1, align 1, !dbg !1040, !range !429, !noundef !23
  %_6 = trunc i8 %16 to i1, !dbg !1040
  br label %bb6, !dbg !1040

bb6:                                              ; preds = %bb5
  %_5 = xor i1 %_6, true, !dbg !1050
  call void @llvm.assume(i1 %_5), !dbg !1051
  br label %bb1, !dbg !1051

bb1:                                              ; preds = %bb6
  br i1 false, label %bb2, label %bb3, !dbg !1052

bb2:                                              ; preds = %bb1
  %self6 = bitcast i32* %ptr to i8*, !dbg !1053
  store i8* %self6, i8** %self.dbg.spill7, align 8, !dbg !1053
  call void @llvm.dbg.declare(metadata i8** %self.dbg.spill7, metadata !1054, metadata !DIExpression()), !dbg !1061
  store i64 %slice.1, i64* %count.dbg.spill8, align 8, !dbg !1062
  call void @llvm.dbg.declare(metadata i64* %count.dbg.spill8, metadata !1060, metadata !DIExpression()), !dbg !1061
  store i8* %self6, i8** %self.dbg.spill9, align 8, !dbg !1061
  call void @llvm.dbg.declare(metadata i8** %self.dbg.spill9, metadata !1063, metadata !DIExpression()), !dbg !1070
  store i64 %slice.1, i64* %count.dbg.spill10, align 8, !dbg !1061
  call void @llvm.dbg.declare(metadata i64* %count.dbg.spill10, metadata !1069, metadata !DIExpression()), !dbg !1070
  %17 = getelementptr i8, i8* %self6, i64 %slice.1, !dbg !1070
  store i8* %17, i8** %0, align 8, !dbg !1070
  %_10 = load i8*, i8** %0, align 8, !dbg !1070
  br label %bb7, !dbg !1070

bb3:                                              ; preds = %bb1
  store i32* %ptr, i32** %self.dbg.spill3, align 8, !dbg !1072
  call void @llvm.dbg.declare(metadata i32** %self.dbg.spill3, metadata !1073, metadata !DIExpression()), !dbg !1080
  store i64 %slice.1, i64* %count.dbg.spill, align 8, !dbg !1081
  call void @llvm.dbg.declare(metadata i64* %count.dbg.spill, metadata !1079, metadata !DIExpression()), !dbg !1080
  store i32* %ptr, i32** %self.dbg.spill4, align 8, !dbg !1080
  call void @llvm.dbg.declare(metadata i32** %self.dbg.spill4, metadata !1082, metadata !DIExpression()), !dbg !1089
  store i64 %slice.1, i64* %count.dbg.spill5, align 8, !dbg !1080
  call void @llvm.dbg.declare(metadata i64* %count.dbg.spill5, metadata !1088, metadata !DIExpression()), !dbg !1089
  %18 = getelementptr inbounds i32, i32* %ptr, i64 %slice.1, !dbg !1089
  store i32* %18, i32** %end, align 8, !dbg !1089
  br label %bb8, !dbg !1089

bb8:                                              ; preds = %bb3
  br label %bb4, !dbg !1091

bb4:                                              ; preds = %bb7, %bb8
  store i32* %ptr, i32** %ptr.dbg.spill11, align 8, !dbg !1092
  call void @llvm.dbg.declare(metadata i32** %ptr.dbg.spill11, metadata !1093, metadata !DIExpression()), !dbg !1100
  store i32* %ptr, i32** %_18, align 8, !dbg !1100
  %_21 = load i32*, i32** %end, align 8, !dbg !1102
  %19 = bitcast { i32*, i32* }* %3 to i32**, !dbg !1103
  %20 = load i32*, i32** %_18, align 8, !dbg !1103, !nonnull !23, !noundef !23
  store i32* %20, i32** %19, align 8, !dbg !1103
  %21 = getelementptr inbounds { i32*, i32* }, { i32*, i32* }* %3, i32 0, i32 1, !dbg !1103
  store i32* %_21, i32** %21, align 8, !dbg !1103
  %22 = getelementptr inbounds { i32*, i32* }, { i32*, i32* }* %3, i32 0, i32 0, !dbg !1104
  %23 = load i32*, i32** %22, align 8, !dbg !1104, !nonnull !23, !noundef !23
  %24 = getelementptr inbounds { i32*, i32* }, { i32*, i32* }* %3, i32 0, i32 1, !dbg !1104
  %25 = load i32*, i32** %24, align 8, !dbg !1104
  %26 = insertvalue { i32*, i32* } undef, i32* %23, 0, !dbg !1104
  %27 = insertvalue { i32*, i32* } %26, i32* %25, 1, !dbg !1104
  ret { i32*, i32* } %27, !dbg !1104

bb7:                                              ; preds = %bb2
  %28 = bitcast i8* %_10 to i32*, !dbg !1053
  store i32* %28, i32** %end, align 8, !dbg !1053
  br label %bb4, !dbg !1091
}

; core::panicking::assert_failed
; Function Attrs: cold noreturn nonlazybind uwtable
define internal void @_ZN4core9panicking13assert_failed17h04995b6137f6e0c5E(i8 %kind, i32* align 4 %0, i32* align 4 %1, %"core::option::Option<core::fmt::Arguments>"* %args, %"core::panic::location::Location"* align 8 %2) unnamed_addr #3 !dbg !1105 {
start:
  %kind.dbg.spill = alloca i8, align 1
  %_13 = alloca %"core::option::Option<core::fmt::Arguments>", align 8
  %right = alloca i32*, align 8
  %left = alloca i32*, align 8
  store i32* %0, i32** %left, align 8
  store i32* %1, i32** %right, align 8
  store i8 %kind, i8* %kind.dbg.spill, align 1
  call void @llvm.dbg.declare(metadata i8* %kind.dbg.spill, metadata !1123, metadata !DIExpression()), !dbg !1129
  call void @llvm.dbg.declare(metadata i32** %left, metadata !1124, metadata !DIExpression()), !dbg !1130
  call void @llvm.dbg.declare(metadata i32** %right, metadata !1125, metadata !DIExpression()), !dbg !1131
  call void @llvm.dbg.declare(metadata %"core::option::Option<core::fmt::Arguments>"* %args, metadata !1126, metadata !DIExpression()), !dbg !1132
  %_7.0 = bitcast i32** %left to {}*, !dbg !1133
  %_10.0 = bitcast i32** %right to {}*, !dbg !1134
  %3 = bitcast %"core::option::Option<core::fmt::Arguments>"* %_13 to i8*, !dbg !1135
  %4 = bitcast %"core::option::Option<core::fmt::Arguments>"* %args to i8*, !dbg !1135
  call void @llvm.memcpy.p0i8.p0i8.i64(i8* align 8 %3, i8* align 8 %4, i64 48, i1 false), !dbg !1135
; call core::panicking::assert_failed_inner
  call void @_ZN4core9panicking19assert_failed_inner17h2784388051aff910E(i8 %kind, {}* align 1 %_7.0, [3 x i64]* align 8 bitcast (<{ i8*, [16 x i8], i8* }>* @vtable.1 to [3 x i64]*), {}* align 1 %_10.0, [3 x i64]* align 8 bitcast (<{ i8*, [16 x i8], i8* }>* @vtable.1 to [3 x i64]*), %"core::option::Option<core::fmt::Arguments>"* %_13, %"core::panic::location::Location"* align 8 %2) #13, !dbg !1136
  unreachable, !dbg !1136
}

; core::panicking::assert_failed
; Function Attrs: cold noreturn nonlazybind uwtable
define internal void @_ZN4core9panicking13assert_failed17h12a1112d33bf0597E(i8 %kind, [6 x i32]* align 4 %0, [6 x i32]* align 4 %1, %"core::option::Option<core::fmt::Arguments>"* %args, %"core::panic::location::Location"* align 8 %2) unnamed_addr #3 !dbg !1137 {
start:
  %kind.dbg.spill = alloca i8, align 1
  %_13 = alloca %"core::option::Option<core::fmt::Arguments>", align 8
  %right = alloca [6 x i32]*, align 8
  %left = alloca [6 x i32]*, align 8
  store [6 x i32]* %0, [6 x i32]** %left, align 8
  store [6 x i32]* %1, [6 x i32]** %right, align 8
  store i8 %kind, i8* %kind.dbg.spill, align 1
  call void @llvm.dbg.declare(metadata i8* %kind.dbg.spill, metadata !1141, metadata !DIExpression()), !dbg !1147
  call void @llvm.dbg.declare(metadata [6 x i32]** %left, metadata !1142, metadata !DIExpression()), !dbg !1148
  call void @llvm.dbg.declare(metadata [6 x i32]** %right, metadata !1143, metadata !DIExpression()), !dbg !1149
  call void @llvm.dbg.declare(metadata %"core::option::Option<core::fmt::Arguments>"* %args, metadata !1144, metadata !DIExpression()), !dbg !1150
  %_7.0 = bitcast [6 x i32]** %left to {}*, !dbg !1151
  %_10.0 = bitcast [6 x i32]** %right to {}*, !dbg !1152
  %3 = bitcast %"core::option::Option<core::fmt::Arguments>"* %_13 to i8*, !dbg !1153
  %4 = bitcast %"core::option::Option<core::fmt::Arguments>"* %args to i8*, !dbg !1153
  call void @llvm.memcpy.p0i8.p0i8.i64(i8* align 8 %3, i8* align 8 %4, i64 48, i1 false), !dbg !1153
; call core::panicking::assert_failed_inner
  call void @_ZN4core9panicking19assert_failed_inner17h2784388051aff910E(i8 %kind, {}* align 1 %_7.0, [3 x i64]* align 8 bitcast (<{ i8*, [16 x i8], i8* }>* @vtable.2 to [3 x i64]*), {}* align 1 %_10.0, [3 x i64]* align 8 bitcast (<{ i8*, [16 x i8], i8* }>* @vtable.2 to [3 x i64]*), %"core::option::Option<core::fmt::Arguments>"* %_13, %"core::panic::location::Location"* align 8 %2) #13, !dbg !1154
  unreachable, !dbg !1154
}

; core::panicking::assert_failed
; Function Attrs: cold noreturn nonlazybind uwtable
define internal void @_ZN4core9panicking13assert_failed17h1bf3365e23cea01eE(i8 %kind, [1 x i32]* align 4 %0, [1 x i32]* align 4 %1, %"core::option::Option<core::fmt::Arguments>"* %args, %"core::panic::location::Location"* align 8 %2) unnamed_addr #3 !dbg !1155 {
start:
  %kind.dbg.spill = alloca i8, align 1
  %_13 = alloca %"core::option::Option<core::fmt::Arguments>", align 8
  %right = alloca [1 x i32]*, align 8
  %left = alloca [1 x i32]*, align 8
  store [1 x i32]* %0, [1 x i32]** %left, align 8
  store [1 x i32]* %1, [1 x i32]** %right, align 8
  store i8 %kind, i8* %kind.dbg.spill, align 1
  call void @llvm.dbg.declare(metadata i8* %kind.dbg.spill, metadata !1159, metadata !DIExpression()), !dbg !1165
  call void @llvm.dbg.declare(metadata [1 x i32]** %left, metadata !1160, metadata !DIExpression()), !dbg !1166
  call void @llvm.dbg.declare(metadata [1 x i32]** %right, metadata !1161, metadata !DIExpression()), !dbg !1167
  call void @llvm.dbg.declare(metadata %"core::option::Option<core::fmt::Arguments>"* %args, metadata !1162, metadata !DIExpression()), !dbg !1168
  %_7.0 = bitcast [1 x i32]** %left to {}*, !dbg !1169
  %_10.0 = bitcast [1 x i32]** %right to {}*, !dbg !1170
  %3 = bitcast %"core::option::Option<core::fmt::Arguments>"* %_13 to i8*, !dbg !1171
  %4 = bitcast %"core::option::Option<core::fmt::Arguments>"* %args to i8*, !dbg !1171
  call void @llvm.memcpy.p0i8.p0i8.i64(i8* align 8 %3, i8* align 8 %4, i64 48, i1 false), !dbg !1171
; call core::panicking::assert_failed_inner
  call void @_ZN4core9panicking19assert_failed_inner17h2784388051aff910E(i8 %kind, {}* align 1 %_7.0, [3 x i64]* align 8 bitcast (<{ i8*, [16 x i8], i8* }>* @vtable.3 to [3 x i64]*), {}* align 1 %_10.0, [3 x i64]* align 8 bitcast (<{ i8*, [16 x i8], i8* }>* @vtable.3 to [3 x i64]*), %"core::option::Option<core::fmt::Arguments>"* %_13, %"core::panic::location::Location"* align 8 %2) #13, !dbg !1172
  unreachable, !dbg !1172
}

; core::panicking::assert_failed
; Function Attrs: cold noreturn nonlazybind uwtable
define internal void @_ZN4core9panicking13assert_failed17h290f6533f51e806aE(i8 %kind, [4 x i32]* align 4 %0, [4 x i32]* align 4 %1, %"core::option::Option<core::fmt::Arguments>"* %args, %"core::panic::location::Location"* align 8 %2) unnamed_addr #3 !dbg !1173 {
start:
  %kind.dbg.spill = alloca i8, align 1
  %_13 = alloca %"core::option::Option<core::fmt::Arguments>", align 8
  %right = alloca [4 x i32]*, align 8
  %left = alloca [4 x i32]*, align 8
  store [4 x i32]* %0, [4 x i32]** %left, align 8
  store [4 x i32]* %1, [4 x i32]** %right, align 8
  store i8 %kind, i8* %kind.dbg.spill, align 1
  call void @llvm.dbg.declare(metadata i8* %kind.dbg.spill, metadata !1177, metadata !DIExpression()), !dbg !1183
  call void @llvm.dbg.declare(metadata [4 x i32]** %left, metadata !1178, metadata !DIExpression()), !dbg !1184
  call void @llvm.dbg.declare(metadata [4 x i32]** %right, metadata !1179, metadata !DIExpression()), !dbg !1185
  call void @llvm.dbg.declare(metadata %"core::option::Option<core::fmt::Arguments>"* %args, metadata !1180, metadata !DIExpression()), !dbg !1186
  %_7.0 = bitcast [4 x i32]** %left to {}*, !dbg !1187
  %_10.0 = bitcast [4 x i32]** %right to {}*, !dbg !1188
  %3 = bitcast %"core::option::Option<core::fmt::Arguments>"* %_13 to i8*, !dbg !1189
  %4 = bitcast %"core::option::Option<core::fmt::Arguments>"* %args to i8*, !dbg !1189
  call void @llvm.memcpy.p0i8.p0i8.i64(i8* align 8 %3, i8* align 8 %4, i64 48, i1 false), !dbg !1189
; call core::panicking::assert_failed_inner
  call void @_ZN4core9panicking19assert_failed_inner17h2784388051aff910E(i8 %kind, {}* align 1 %_7.0, [3 x i64]* align 8 bitcast (<{ i8*, [16 x i8], i8* }>* @vtable.4 to [3 x i64]*), {}* align 1 %_10.0, [3 x i64]* align 8 bitcast (<{ i8*, [16 x i8], i8* }>* @vtable.4 to [3 x i64]*), %"core::option::Option<core::fmt::Arguments>"* %_13, %"core::panic::location::Location"* align 8 %2) #13, !dbg !1190
  unreachable, !dbg !1190
}

; core::panicking::assert_failed
; Function Attrs: cold noreturn nonlazybind uwtable
define internal void @_ZN4core9panicking13assert_failed17hd6bcfa75e8d58f58E(i8 %kind, [10 x i32]* align 4 %0, [10 x i32]* align 4 %1, %"core::option::Option<core::fmt::Arguments>"* %args, %"core::panic::location::Location"* align 8 %2) unnamed_addr #3 !dbg !1191 {
start:
  %kind.dbg.spill = alloca i8, align 1
  %_13 = alloca %"core::option::Option<core::fmt::Arguments>", align 8
  %right = alloca [10 x i32]*, align 8
  %left = alloca [10 x i32]*, align 8
  store [10 x i32]* %0, [10 x i32]** %left, align 8
  store [10 x i32]* %1, [10 x i32]** %right, align 8
  store i8 %kind, i8* %kind.dbg.spill, align 1
  call void @llvm.dbg.declare(metadata i8* %kind.dbg.spill, metadata !1195, metadata !DIExpression()), !dbg !1201
  call void @llvm.dbg.declare(metadata [10 x i32]** %left, metadata !1196, metadata !DIExpression()), !dbg !1202
  call void @llvm.dbg.declare(metadata [10 x i32]** %right, metadata !1197, metadata !DIExpression()), !dbg !1203
  call void @llvm.dbg.declare(metadata %"core::option::Option<core::fmt::Arguments>"* %args, metadata !1198, metadata !DIExpression()), !dbg !1204
  %_7.0 = bitcast [10 x i32]** %left to {}*, !dbg !1205
  %_10.0 = bitcast [10 x i32]** %right to {}*, !dbg !1206
  %3 = bitcast %"core::option::Option<core::fmt::Arguments>"* %_13 to i8*, !dbg !1207
  %4 = bitcast %"core::option::Option<core::fmt::Arguments>"* %args to i8*, !dbg !1207
  call void @llvm.memcpy.p0i8.p0i8.i64(i8* align 8 %3, i8* align 8 %4, i64 48, i1 false), !dbg !1207
; call core::panicking::assert_failed_inner
  call void @_ZN4core9panicking19assert_failed_inner17h2784388051aff910E(i8 %kind, {}* align 1 %_7.0, [3 x i64]* align 8 bitcast (<{ i8*, [16 x i8], i8* }>* @vtable.5 to [3 x i64]*), {}* align 1 %_10.0, [3 x i64]* align 8 bitcast (<{ i8*, [16 x i8], i8* }>* @vtable.5 to [3 x i64]*), %"core::option::Option<core::fmt::Arguments>"* %_13, %"core::panic::location::Location"* align 8 %2) #13, !dbg !1208
  unreachable, !dbg !1208
}

; core::panicking::assert_failed
; Function Attrs: cold noreturn nonlazybind uwtable
define internal void @_ZN4core9panicking13assert_failed17he1b433af707fbde0E(i8 %kind, [7 x i32]* align 4 %0, [7 x i32]* align 4 %1, %"core::option::Option<core::fmt::Arguments>"* %args, %"core::panic::location::Location"* align 8 %2) unnamed_addr #3 !dbg !1209 {
start:
  %kind.dbg.spill = alloca i8, align 1
  %_13 = alloca %"core::option::Option<core::fmt::Arguments>", align 8
  %right = alloca [7 x i32]*, align 8
  %left = alloca [7 x i32]*, align 8
  store [7 x i32]* %0, [7 x i32]** %left, align 8
  store [7 x i32]* %1, [7 x i32]** %right, align 8
  store i8 %kind, i8* %kind.dbg.spill, align 1
  call void @llvm.dbg.declare(metadata i8* %kind.dbg.spill, metadata !1213, metadata !DIExpression()), !dbg !1219
  call void @llvm.dbg.declare(metadata [7 x i32]** %left, metadata !1214, metadata !DIExpression()), !dbg !1220
  call void @llvm.dbg.declare(metadata [7 x i32]** %right, metadata !1215, metadata !DIExpression()), !dbg !1221
  call void @llvm.dbg.declare(metadata %"core::option::Option<core::fmt::Arguments>"* %args, metadata !1216, metadata !DIExpression()), !dbg !1222
  %_7.0 = bitcast [7 x i32]** %left to {}*, !dbg !1223
  %_10.0 = bitcast [7 x i32]** %right to {}*, !dbg !1224
  %3 = bitcast %"core::option::Option<core::fmt::Arguments>"* %_13 to i8*, !dbg !1225
  %4 = bitcast %"core::option::Option<core::fmt::Arguments>"* %args to i8*, !dbg !1225
  call void @llvm.memcpy.p0i8.p0i8.i64(i8* align 8 %3, i8* align 8 %4, i64 48, i1 false), !dbg !1225
; call core::panicking::assert_failed_inner
  call void @_ZN4core9panicking19assert_failed_inner17h2784388051aff910E(i8 %kind, {}* align 1 %_7.0, [3 x i64]* align 8 bitcast (<{ i8*, [16 x i8], i8* }>* @vtable.6 to [3 x i64]*), {}* align 1 %_10.0, [3 x i64]* align 8 bitcast (<{ i8*, [16 x i8], i8* }>* @vtable.6 to [3 x i64]*), %"core::option::Option<core::fmt::Arguments>"* %_13, %"core::panic::location::Location"* align 8 %2) #13, !dbg !1226
  unreachable, !dbg !1226
}

; test::assert_test_result
; Function Attrs: nonlazybind uwtable
define internal void @_ZN4test18assert_test_result17h36d6b608f628ab05E() unnamed_addr #1 !dbg !1227 {
start:
  %0 = alloca %"core::fmt::Opaque"*, align 8
  %1 = alloca i1 (%"core::fmt::Opaque"*, %"core::fmt::Formatter"*)*, align 8
  %f.dbg.spill = alloca i1 (i32*, %"core::fmt::Formatter"*)*, align 8
  %x.dbg.spill1 = alloca i32*, align 8
  %x.dbg.spill = alloca i32*, align 8
  %right_val.dbg.spill = alloca i32*, align 8
  %left_val.dbg.spill = alloca i32*, align 8
  %self.dbg.spill = alloca i8*, align 8
  %result.dbg.spill = alloca {}, align 1
  %_30 = alloca { i8*, i64* }, align 8
  %_29 = alloca [1 x { i8*, i64* }], align 8
  %_22 = alloca %"core::fmt::Arguments", align 8
  %_21 = alloca %"core::option::Option<core::fmt::Arguments>", align 8
  %_5 = alloca { i32*, i32* }, align 8
  %self = alloca i8, align 1
  %code = alloca i32, align 4
  call void @llvm.dbg.declare(metadata {}* %result.dbg.spill, metadata !1231, metadata !DIExpression()), !dbg !1242
  call void @llvm.dbg.declare(metadata i32* %code, metadata !1232, metadata !DIExpression()), !dbg !1243
  call void @llvm.dbg.declare(metadata i8* %self, metadata !1244, metadata !DIExpression()), !dbg !1248
; call <() as std::process::Termination>::report
  %2 = call i8 @"_ZN54_$LT$$LP$$RP$$u20$as$u20$std..process..Termination$GT$6report17h38e8decf54d6efdaE"(), !dbg !1249
  store i8 %2, i8* %self, align 1, !dbg !1249
  br label %bb1, !dbg !1249

bb1:                                              ; preds = %start
  store i8* %self, i8** %self.dbg.spill, align 8, !dbg !1248
  call void @llvm.dbg.declare(metadata i8** %self.dbg.spill, metadata !1250, metadata !DIExpression()), !dbg !1254
  %_36 = load i8, i8* %self, align 1, !dbg !1254
  %3 = zext i8 %_36 to i32, !dbg !1254
  store i32 %3, i32* %code, align 4, !dbg !1254
  %4 = bitcast { i32*, i32* }* %_5 to i32**, !dbg !1256
  store i32* %code, i32** %4, align 8, !dbg !1256
  %5 = getelementptr inbounds { i32*, i32* }, { i32*, i32* }* %_5, i32 0, i32 1, !dbg !1256
  store i32* bitcast (<{ [4 x i8] }>* @alloc130 to i32*), i32** %5, align 8, !dbg !1256
  %6 = bitcast { i32*, i32* }* %_5 to i32**, !dbg !1256
  %left_val = load i32*, i32** %6, align 8, !dbg !1256, !nonnull !23, !align !290, !noundef !23
  store i32* %left_val, i32** %left_val.dbg.spill, align 8, !dbg !1256
  call void @llvm.dbg.declare(metadata i32** %left_val.dbg.spill, metadata !1234, metadata !DIExpression()), !dbg !1257
  %7 = getelementptr inbounds { i32*, i32* }, { i32*, i32* }* %_5, i32 0, i32 1, !dbg !1256
  %right_val = load i32*, i32** %7, align 8, !dbg !1256, !nonnull !23, !align !290, !noundef !23
  store i32* %right_val, i32** %right_val.dbg.spill, align 8, !dbg !1256
  call void @llvm.dbg.declare(metadata i32** %right_val.dbg.spill, metadata !1238, metadata !DIExpression()), !dbg !1257
  %_12 = load i32, i32* %left_val, align 4, !dbg !1257
  %_13 = load i32, i32* %right_val, align 4, !dbg !1257
  %_11 = icmp eq i32 %_12, %_13, !dbg !1257
  %_10 = xor i1 %_11, true, !dbg !1257
  br i1 %_10, label %bb2, label %bb4, !dbg !1257

bb4:                                              ; preds = %bb1
  ret void, !dbg !1258

bb2:                                              ; preds = %bb1
  store i32* %code, i32** %x.dbg.spill, align 8, !dbg !1259
  call void @llvm.dbg.declare(metadata i32** %x.dbg.spill, metadata !1260, metadata !DIExpression()), !dbg !1266
  store i32* %code, i32** %x.dbg.spill1, align 8, !dbg !1266
  call void @llvm.dbg.declare(metadata i32** %x.dbg.spill1, metadata !1268, metadata !DIExpression()), !dbg !1276
  store i1 (i32*, %"core::fmt::Formatter"*)* @"_ZN4core3fmt3num3imp52_$LT$impl$u20$core..fmt..Display$u20$for$u20$i32$GT$3fmt17h52a4838d0eaa2babE", i1 (i32*, %"core::fmt::Formatter"*)** %f.dbg.spill, align 8, !dbg !1266
  call void @llvm.dbg.declare(metadata i1 (i32*, %"core::fmt::Formatter"*)** %f.dbg.spill, metadata !1275, metadata !DIExpression()), !dbg !1276
  store i1 (%"core::fmt::Opaque"*, %"core::fmt::Formatter"*)* bitcast (i1 (i32*, %"core::fmt::Formatter"*)* @"_ZN4core3fmt3num3imp52_$LT$impl$u20$core..fmt..Display$u20$for$u20$i32$GT$3fmt17h52a4838d0eaa2babE" to i1 (%"core::fmt::Opaque"*, %"core::fmt::Formatter"*)*), i1 (%"core::fmt::Opaque"*, %"core::fmt::Formatter"*)** %1, align 8, !dbg !1276
  %_39 = load i1 (%"core::fmt::Opaque"*, %"core::fmt::Formatter"*)*, i1 (%"core::fmt::Opaque"*, %"core::fmt::Formatter"*)** %1, align 8, !dbg !1276, !nonnull !23, !noundef !23
  br label %bb5, !dbg !1276

bb5:                                              ; preds = %bb2
  %8 = bitcast i32* %code to %"core::fmt::Opaque"*, !dbg !1276
  store %"core::fmt::Opaque"* %8, %"core::fmt::Opaque"** %0, align 8, !dbg !1276
  %_41 = load %"core::fmt::Opaque"*, %"core::fmt::Opaque"** %0, align 8, !dbg !1276, !nonnull !23, !align !1278, !noundef !23
  br label %bb6, !dbg !1276

bb6:                                              ; preds = %bb5
  %9 = bitcast { i8*, i64* }* %_30 to %"core::fmt::Opaque"**, !dbg !1276
  store %"core::fmt::Opaque"* %_41, %"core::fmt::Opaque"** %9, align 8, !dbg !1276
  %10 = getelementptr inbounds { i8*, i64* }, { i8*, i64* }* %_30, i32 0, i32 1, !dbg !1276
  %11 = bitcast i64** %10 to i1 (%"core::fmt::Opaque"*, %"core::fmt::Formatter"*)**, !dbg !1276
  store i1 (%"core::fmt::Opaque"*, %"core::fmt::Formatter"*)* %_39, i1 (%"core::fmt::Opaque"*, %"core::fmt::Formatter"*)** %11, align 8, !dbg !1276
  %12 = getelementptr inbounds { i8*, i64* }, { i8*, i64* }* %_30, i32 0, i32 0, !dbg !1259
  %13 = load i8*, i8** %12, align 8, !dbg !1259, !nonnull !23, !align !1278, !noundef !23
  %14 = getelementptr inbounds { i8*, i64* }, { i8*, i64* }* %_30, i32 0, i32 1, !dbg !1259
  %15 = load i64*, i64** %14, align 8, !dbg !1259, !nonnull !23, !noundef !23
  %16 = getelementptr inbounds [1 x { i8*, i64* }], [1 x { i8*, i64* }]* %_29, i64 0, i64 0, !dbg !1259
  %17 = getelementptr inbounds { i8*, i64* }, { i8*, i64* }* %16, i32 0, i32 0, !dbg !1259
  store i8* %13, i8** %17, align 8, !dbg !1259
  %18 = getelementptr inbounds { i8*, i64* }, { i8*, i64* }* %16, i32 0, i32 1, !dbg !1259
  store i64* %15, i64** %18, align 8, !dbg !1259
  %_26.0 = bitcast [1 x { i8*, i64* }]* %_29 to [0 x { i8*, i64* }]*, !dbg !1259
; call core::fmt::Arguments::new_v1
  call void @_ZN4core3fmt9Arguments6new_v117h7e05277355add560E(%"core::fmt::Arguments"* sret(%"core::fmt::Arguments") %_22, [0 x { [0 x i8]*, i64 }]* align 8 bitcast (<{ i8*, [8 x i8], i8*, [8 x i8] }>* @alloc154 to [0 x { [0 x i8]*, i64 }]*), i64 2, [0 x { i8*, i64* }]* align 8 %_26.0, i64 1), !dbg !1259
  br label %bb3, !dbg !1259

bb3:                                              ; preds = %bb6
  %19 = bitcast %"core::option::Option<core::fmt::Arguments>"* %_21 to %"core::option::Option<core::fmt::Arguments>::Some"*, !dbg !1259
  %20 = bitcast %"core::option::Option<core::fmt::Arguments>::Some"* %19 to %"core::fmt::Arguments"*, !dbg !1259
  %21 = bitcast %"core::fmt::Arguments"* %20 to i8*, !dbg !1259
  %22 = bitcast %"core::fmt::Arguments"* %_22 to i8*, !dbg !1259
  call void @llvm.memcpy.p0i8.p0i8.i64(i8* align 8 %21, i8* align 8 %22, i64 48, i1 false), !dbg !1259
; call core::panicking::assert_failed
  call void @_ZN4core9panicking13assert_failed17h04995b6137f6e0c5E(i8 0, i32* align 4 %left_val, i32* align 4 %right_val, %"core::option::Option<core::fmt::Arguments>"* %_21, %"core::panic::location::Location"* align 8 bitcast (<{ i8*, [16 x i8] }>* @alloc362 to %"core::panic::location::Location"*)) #13, !dbg !1259
  unreachable, !dbg !1259
}

; <() as std::process::Termination>::report
; Function Attrs: inlinehint nonlazybind uwtable
define internal i8 @"_ZN54_$LT$$LP$$RP$$u20$as$u20$std..process..Termination$GT$6report17h38e8decf54d6efdaE"() unnamed_addr #2 !dbg !1279 {
start:
  %self.dbg.spill = alloca {}, align 1
  call void @llvm.dbg.declare(metadata {}* %self.dbg.spill, metadata !1284, metadata !DIExpression()), !dbg !1285
  ret i8 0, !dbg !1286
}

; <I as core::iter::traits::collect::IntoIterator>::into_iter
; Function Attrs: inlinehint nonlazybind uwtable
define internal { i32*, i32* } @"_ZN63_$LT$I$u20$as$u20$core..iter..traits..collect..IntoIterator$GT$9into_iter17h442ccde4ff616eacE"(i32* %self.0, i32* %self.1) unnamed_addr #2 !dbg !1287 {
start:
  %self.dbg.spill = alloca { i32*, i32* }, align 8
  %0 = getelementptr inbounds { i32*, i32* }, { i32*, i32* }* %self.dbg.spill, i32 0, i32 0
  store i32* %self.0, i32** %0, align 8
  %1 = getelementptr inbounds { i32*, i32* }, { i32*, i32* }* %self.dbg.spill, i32 0, i32 1
  store i32* %self.1, i32** %1, align 8
  call void @llvm.dbg.declare(metadata { i32*, i32* }* %self.dbg.spill, metadata !1296, metadata !DIExpression()), !dbg !1298
  %2 = insertvalue { i32*, i32* } undef, i32* %self.0, 0, !dbg !1299
  %3 = insertvalue { i32*, i32* } %2, i32* %self.1, 1, !dbg !1299
  ret { i32*, i32* } %3, !dbg !1299
}

; <T as core::array::equality::SpecArrayEq<U,_>>::spec_eq
; Function Attrs: nonlazybind uwtable
define internal zeroext i1 @"_ZN69_$LT$T$u20$as$u20$core..array..equality..SpecArrayEq$LT$U$C$_$GT$$GT$7spec_eq17h0e5942eeb1b6bb06E"([1 x i32]* align 4 %a, [1 x i32]* align 4 %b) unnamed_addr #1 !dbg !1300 {
start:
  %0 = alloca i8, align 1
  %b.dbg.spill2 = alloca [1 x i32]*, align 8
  %self.dbg.spill1 = alloca i32*, align 8
  %self.dbg.spill = alloca { [0 x i32]*, i64 }, align 8
  %b.dbg.spill = alloca [1 x i32]*, align 8
  %a.dbg.spill = alloca [1 x i32]*, align 8
  store [1 x i32]* %a, [1 x i32]** %a.dbg.spill, align 8
  call void @llvm.dbg.declare(metadata [1 x i32]** %a.dbg.spill, metadata !1303, metadata !DIExpression()), !dbg !1307
  store [1 x i32]* %b, [1 x i32]** %b.dbg.spill, align 8
  call void @llvm.dbg.declare(metadata [1 x i32]** %b.dbg.spill, metadata !1304, metadata !DIExpression()), !dbg !1308
  %self.0 = bitcast [1 x i32]* %b to [0 x i32]*, !dbg !1309
  %1 = getelementptr inbounds { [0 x i32]*, i64 }, { [0 x i32]*, i64 }* %self.dbg.spill, i32 0, i32 0, !dbg !1309
  store [0 x i32]* %self.0, [0 x i32]** %1, align 8, !dbg !1309
  %2 = getelementptr inbounds { [0 x i32]*, i64 }, { [0 x i32]*, i64 }* %self.dbg.spill, i32 0, i32 1, !dbg !1309
  store i64 1, i64* %2, align 8, !dbg !1309
  call void @llvm.dbg.declare(metadata { [0 x i32]*, i64 }* %self.dbg.spill, metadata !1310, metadata !DIExpression()), !dbg !1314
  %self = bitcast [0 x i32]* %self.0 to i32*, !dbg !1314
  store i32* %self, i32** %self.dbg.spill1, align 8, !dbg !1314
  call void @llvm.dbg.declare(metadata i32** %self.dbg.spill1, metadata !1315, metadata !DIExpression()), !dbg !1323
  %_4 = bitcast i32* %self to [1 x i32]*, !dbg !1323
  store [1 x i32]* %_4, [1 x i32]** %b.dbg.spill2, align 8, !dbg !1324
  call void @llvm.dbg.declare(metadata [1 x i32]** %b.dbg.spill2, metadata !1305, metadata !DIExpression()), !dbg !1325
  %3 = bitcast [1 x i32]* %a to i32*, !dbg !1326
  %4 = load i32, i32* %3, align 4, !dbg !1326
  %5 = bitcast [1 x i32]* %_4 to i32*, !dbg !1326
  %6 = load i32, i32* %5, align 4, !dbg !1326
  %7 = icmp eq i32 %4, %6, !dbg !1326
  %8 = zext i1 %7 to i8, !dbg !1326
  store i8 %8, i8* %0, align 1, !dbg !1326
  %9 = load i8, i8* %0, align 1, !dbg !1326, !range !429, !noundef !23
  %10 = trunc i8 %9 to i1, !dbg !1326
  br label %bb1, !dbg !1326

bb1:                                              ; preds = %start
  ret i1 %10, !dbg !1327
}

; <T as core::array::equality::SpecArrayEq<U,_>>::spec_eq
; Function Attrs: nonlazybind uwtable
define internal zeroext i1 @"_ZN69_$LT$T$u20$as$u20$core..array..equality..SpecArrayEq$LT$U$C$_$GT$$GT$7spec_eq17h3d84af9d11966e72E"([4 x i32]* align 4 %a, [4 x i32]* align 4 %b) unnamed_addr #1 !dbg !1328 {
start:
  %0 = alloca i8, align 1
  %b.dbg.spill2 = alloca [4 x i32]*, align 8
  %self.dbg.spill1 = alloca i32*, align 8
  %self.dbg.spill = alloca { [0 x i32]*, i64 }, align 8
  %b.dbg.spill = alloca [4 x i32]*, align 8
  %a.dbg.spill = alloca [4 x i32]*, align 8
  store [4 x i32]* %a, [4 x i32]** %a.dbg.spill, align 8
  call void @llvm.dbg.declare(metadata [4 x i32]** %a.dbg.spill, metadata !1330, metadata !DIExpression()), !dbg !1334
  store [4 x i32]* %b, [4 x i32]** %b.dbg.spill, align 8
  call void @llvm.dbg.declare(metadata [4 x i32]** %b.dbg.spill, metadata !1331, metadata !DIExpression()), !dbg !1335
  %self.0 = bitcast [4 x i32]* %b to [0 x i32]*, !dbg !1336
  %1 = getelementptr inbounds { [0 x i32]*, i64 }, { [0 x i32]*, i64 }* %self.dbg.spill, i32 0, i32 0, !dbg !1336
  store [0 x i32]* %self.0, [0 x i32]** %1, align 8, !dbg !1336
  %2 = getelementptr inbounds { [0 x i32]*, i64 }, { [0 x i32]*, i64 }* %self.dbg.spill, i32 0, i32 1, !dbg !1336
  store i64 4, i64* %2, align 8, !dbg !1336
  call void @llvm.dbg.declare(metadata { [0 x i32]*, i64 }* %self.dbg.spill, metadata !1337, metadata !DIExpression()), !dbg !1341
  %self = bitcast [0 x i32]* %self.0 to i32*, !dbg !1341
  store i32* %self, i32** %self.dbg.spill1, align 8, !dbg !1341
  call void @llvm.dbg.declare(metadata i32** %self.dbg.spill1, metadata !1342, metadata !DIExpression()), !dbg !1350
  %_4 = bitcast i32* %self to [4 x i32]*, !dbg !1350
  store [4 x i32]* %_4, [4 x i32]** %b.dbg.spill2, align 8, !dbg !1351
  call void @llvm.dbg.declare(metadata [4 x i32]** %b.dbg.spill2, metadata !1332, metadata !DIExpression()), !dbg !1352
  %3 = bitcast [4 x i32]* %a to i128*, !dbg !1353
  %4 = load i128, i128* %3, align 4, !dbg !1353
  %5 = bitcast [4 x i32]* %_4 to i128*, !dbg !1353
  %6 = load i128, i128* %5, align 4, !dbg !1353
  %7 = icmp eq i128 %4, %6, !dbg !1353
  %8 = zext i1 %7 to i8, !dbg !1353
  store i8 %8, i8* %0, align 1, !dbg !1353
  %9 = load i8, i8* %0, align 1, !dbg !1353, !range !429, !noundef !23
  %10 = trunc i8 %9 to i1, !dbg !1353
  br label %bb1, !dbg !1353

bb1:                                              ; preds = %start
  ret i1 %10, !dbg !1354
}

; <T as core::array::equality::SpecArrayEq<U,_>>::spec_eq
; Function Attrs: nonlazybind uwtable
define internal zeroext i1 @"_ZN69_$LT$T$u20$as$u20$core..array..equality..SpecArrayEq$LT$U$C$_$GT$$GT$7spec_eq17h56022b03ab245208E"([7 x i32]* align 4 %a, [7 x i32]* align 4 %b) unnamed_addr #1 !dbg !1355 {
start:
  %0 = alloca i8, align 1
  %b.dbg.spill2 = alloca [7 x i32]*, align 8
  %self.dbg.spill1 = alloca i32*, align 8
  %self.dbg.spill = alloca { [0 x i32]*, i64 }, align 8
  %b.dbg.spill = alloca [7 x i32]*, align 8
  %a.dbg.spill = alloca [7 x i32]*, align 8
  store [7 x i32]* %a, [7 x i32]** %a.dbg.spill, align 8
  call void @llvm.dbg.declare(metadata [7 x i32]** %a.dbg.spill, metadata !1357, metadata !DIExpression()), !dbg !1361
  store [7 x i32]* %b, [7 x i32]** %b.dbg.spill, align 8
  call void @llvm.dbg.declare(metadata [7 x i32]** %b.dbg.spill, metadata !1358, metadata !DIExpression()), !dbg !1362
  %self.0 = bitcast [7 x i32]* %b to [0 x i32]*, !dbg !1363
  %1 = getelementptr inbounds { [0 x i32]*, i64 }, { [0 x i32]*, i64 }* %self.dbg.spill, i32 0, i32 0, !dbg !1363
  store [0 x i32]* %self.0, [0 x i32]** %1, align 8, !dbg !1363
  %2 = getelementptr inbounds { [0 x i32]*, i64 }, { [0 x i32]*, i64 }* %self.dbg.spill, i32 0, i32 1, !dbg !1363
  store i64 7, i64* %2, align 8, !dbg !1363
  call void @llvm.dbg.declare(metadata { [0 x i32]*, i64 }* %self.dbg.spill, metadata !1364, metadata !DIExpression()), !dbg !1368
  %self = bitcast [0 x i32]* %self.0 to i32*, !dbg !1368
  store i32* %self, i32** %self.dbg.spill1, align 8, !dbg !1368
  call void @llvm.dbg.declare(metadata i32** %self.dbg.spill1, metadata !1369, metadata !DIExpression()), !dbg !1377
  %_4 = bitcast i32* %self to [7 x i32]*, !dbg !1377
  store [7 x i32]* %_4, [7 x i32]** %b.dbg.spill2, align 8, !dbg !1378
  call void @llvm.dbg.declare(metadata [7 x i32]** %b.dbg.spill2, metadata !1359, metadata !DIExpression()), !dbg !1379
  %3 = bitcast [7 x i32]* %a to i8*, !dbg !1380
  %4 = bitcast [7 x i32]* %_4 to i8*, !dbg !1380
  %5 = call i32 @memcmp(i8* %3, i8* %4, i64 28), !dbg !1380
  %6 = icmp eq i32 %5, 0, !dbg !1380
  %7 = zext i1 %6 to i8, !dbg !1380
  store i8 %7, i8* %0, align 1, !dbg !1380
  %8 = load i8, i8* %0, align 1, !dbg !1380, !range !429, !noundef !23
  %9 = trunc i8 %8 to i1, !dbg !1380
  br label %bb1, !dbg !1380

bb1:                                              ; preds = %start
  ret i1 %9, !dbg !1381
}

; <T as core::array::equality::SpecArrayEq<U,_>>::spec_eq
; Function Attrs: nonlazybind uwtable
define internal zeroext i1 @"_ZN69_$LT$T$u20$as$u20$core..array..equality..SpecArrayEq$LT$U$C$_$GT$$GT$7spec_eq17h7dcc9f1d67c07352E"([6 x i32]* align 4 %a, [6 x i32]* align 4 %b) unnamed_addr #1 !dbg !1382 {
start:
  %0 = alloca i8, align 1
  %b.dbg.spill2 = alloca [6 x i32]*, align 8
  %self.dbg.spill1 = alloca i32*, align 8
  %self.dbg.spill = alloca { [0 x i32]*, i64 }, align 8
  %b.dbg.spill = alloca [6 x i32]*, align 8
  %a.dbg.spill = alloca [6 x i32]*, align 8
  store [6 x i32]* %a, [6 x i32]** %a.dbg.spill, align 8
  call void @llvm.dbg.declare(metadata [6 x i32]** %a.dbg.spill, metadata !1384, metadata !DIExpression()), !dbg !1388
  store [6 x i32]* %b, [6 x i32]** %b.dbg.spill, align 8
  call void @llvm.dbg.declare(metadata [6 x i32]** %b.dbg.spill, metadata !1385, metadata !DIExpression()), !dbg !1389
  %self.0 = bitcast [6 x i32]* %b to [0 x i32]*, !dbg !1390
  %1 = getelementptr inbounds { [0 x i32]*, i64 }, { [0 x i32]*, i64 }* %self.dbg.spill, i32 0, i32 0, !dbg !1390
  store [0 x i32]* %self.0, [0 x i32]** %1, align 8, !dbg !1390
  %2 = getelementptr inbounds { [0 x i32]*, i64 }, { [0 x i32]*, i64 }* %self.dbg.spill, i32 0, i32 1, !dbg !1390
  store i64 6, i64* %2, align 8, !dbg !1390
  call void @llvm.dbg.declare(metadata { [0 x i32]*, i64 }* %self.dbg.spill, metadata !1391, metadata !DIExpression()), !dbg !1395
  %self = bitcast [0 x i32]* %self.0 to i32*, !dbg !1395
  store i32* %self, i32** %self.dbg.spill1, align 8, !dbg !1395
  call void @llvm.dbg.declare(metadata i32** %self.dbg.spill1, metadata !1396, metadata !DIExpression()), !dbg !1404
  %_4 = bitcast i32* %self to [6 x i32]*, !dbg !1404
  store [6 x i32]* %_4, [6 x i32]** %b.dbg.spill2, align 8, !dbg !1405
  call void @llvm.dbg.declare(metadata [6 x i32]** %b.dbg.spill2, metadata !1386, metadata !DIExpression()), !dbg !1406
  %3 = bitcast [6 x i32]* %a to i8*, !dbg !1407
  %4 = bitcast [6 x i32]* %_4 to i8*, !dbg !1407
  %5 = call i32 @memcmp(i8* %3, i8* %4, i64 24), !dbg !1407
  %6 = icmp eq i32 %5, 0, !dbg !1407
  %7 = zext i1 %6 to i8, !dbg !1407
  store i8 %7, i8* %0, align 1, !dbg !1407
  %8 = load i8, i8* %0, align 1, !dbg !1407, !range !429, !noundef !23
  %9 = trunc i8 %8 to i1, !dbg !1407
  br label %bb1, !dbg !1407

bb1:                                              ; preds = %start
  ret i1 %9, !dbg !1408
}

; <T as core::array::equality::SpecArrayEq<U,_>>::spec_eq
; Function Attrs: nonlazybind uwtable
define internal zeroext i1 @"_ZN69_$LT$T$u20$as$u20$core..array..equality..SpecArrayEq$LT$U$C$_$GT$$GT$7spec_eq17h9198cbe9600a3706E"([10 x i32]* align 4 %a, [10 x i32]* align 4 %b) unnamed_addr #1 !dbg !1409 {
start:
  %0 = alloca i8, align 1
  %b.dbg.spill2 = alloca [10 x i32]*, align 8
  %self.dbg.spill1 = alloca i32*, align 8
  %self.dbg.spill = alloca { [0 x i32]*, i64 }, align 8
  %b.dbg.spill = alloca [10 x i32]*, align 8
  %a.dbg.spill = alloca [10 x i32]*, align 8
  store [10 x i32]* %a, [10 x i32]** %a.dbg.spill, align 8
  call void @llvm.dbg.declare(metadata [10 x i32]** %a.dbg.spill, metadata !1411, metadata !DIExpression()), !dbg !1415
  store [10 x i32]* %b, [10 x i32]** %b.dbg.spill, align 8
  call void @llvm.dbg.declare(metadata [10 x i32]** %b.dbg.spill, metadata !1412, metadata !DIExpression()), !dbg !1416
  %self.0 = bitcast [10 x i32]* %b to [0 x i32]*, !dbg !1417
  %1 = getelementptr inbounds { [0 x i32]*, i64 }, { [0 x i32]*, i64 }* %self.dbg.spill, i32 0, i32 0, !dbg !1417
  store [0 x i32]* %self.0, [0 x i32]** %1, align 8, !dbg !1417
  %2 = getelementptr inbounds { [0 x i32]*, i64 }, { [0 x i32]*, i64 }* %self.dbg.spill, i32 0, i32 1, !dbg !1417
  store i64 10, i64* %2, align 8, !dbg !1417
  call void @llvm.dbg.declare(metadata { [0 x i32]*, i64 }* %self.dbg.spill, metadata !1418, metadata !DIExpression()), !dbg !1422
  %self = bitcast [0 x i32]* %self.0 to i32*, !dbg !1422
  store i32* %self, i32** %self.dbg.spill1, align 8, !dbg !1422
  call void @llvm.dbg.declare(metadata i32** %self.dbg.spill1, metadata !1423, metadata !DIExpression()), !dbg !1431
  %_4 = bitcast i32* %self to [10 x i32]*, !dbg !1431
  store [10 x i32]* %_4, [10 x i32]** %b.dbg.spill2, align 8, !dbg !1432
  call void @llvm.dbg.declare(metadata [10 x i32]** %b.dbg.spill2, metadata !1413, metadata !DIExpression()), !dbg !1433
  %3 = bitcast [10 x i32]* %a to i8*, !dbg !1434
  %4 = bitcast [10 x i32]* %_4 to i8*, !dbg !1434
  %5 = call i32 @memcmp(i8* %3, i8* %4, i64 40), !dbg !1434
  %6 = icmp eq i32 %5, 0, !dbg !1434
  %7 = zext i1 %6 to i8, !dbg !1434
  store i8 %7, i8* %0, align 1, !dbg !1434
  %8 = load i8, i8* %0, align 1, !dbg !1434, !range !429, !noundef !23
  %9 = trunc i8 %8 to i1, !dbg !1434
  br label %bb1, !dbg !1434

bb1:                                              ; preds = %start
  ret i1 %9, !dbg !1435
}

; <core::slice::iter::Iter<T> as core::iter::traits::iterator::Iterator>::next
; Function Attrs: inlinehint nonlazybind uwtable
define internal align 4 i32* @"_ZN91_$LT$core..slice..iter..Iter$LT$T$GT$$u20$as$u20$core..iter..traits..iterator..Iterator$GT$4next17he1500bae1f335835E"({ i32*, i32* }* align 8 %self) unnamed_addr #2 !dbg !1436 {
start:
  %self.dbg.spill26 = alloca i32*, align 8
  %0 = alloca i8*, align 8
  %self.dbg.spill24 = alloca i8*, align 8
  %ptr.dbg.spill = alloca i32*, align 8
  %1 = alloca i32*, align 8
  %self.dbg.spill22 = alloca i32*, align 8
  %self.dbg.spill21 = alloca i32*, align 8
  %old.dbg.spill = alloca i32*, align 8
  %self.dbg.spill19 = alloca i32*, align 8
  %self.dbg.spill17 = alloca { i32*, i32* }*, align 8
  %self.dbg.spill16 = alloca i32*, align 8
  %2 = alloca i8, align 1
  %other.dbg.spill14 = alloca i8*, align 8
  %data_address.dbg.spill12 = alloca {}*, align 8
  %3 = alloca {}*, align 8
  %self.dbg.spill10 = alloca i8*, align 8
  %self.dbg.spill8 = alloca i32*, align 8
  %4 = alloca i8, align 1
  %other.dbg.spill = alloca i8*, align 8
  %data_address.dbg.spill = alloca {}*, align 8
  %5 = alloca {}*, align 8
  %self.dbg.spill6 = alloca i8*, align 8
  %self.dbg.spill4 = alloca i32*, align 8
  %self.dbg.spill3 = alloca i32*, align 8
  %metadata.dbg.spill1 = alloca {}, align 1
  %metadata.dbg.spill = alloca {}, align 1
  %self.dbg.spill = alloca { i32*, i32* }*, align 8
  %_62 = alloca i32*, align 8
  %_47 = alloca %"core::ptr::metadata::PtrComponents<u8>", align 8
  %_46 = alloca %"core::ptr::metadata::PtrRepr<u8>", align 8
  %_30 = alloca %"core::ptr::metadata::PtrComponents<u8>", align 8
  %_29 = alloca %"core::ptr::metadata::PtrRepr<u8>", align 8
  %_19 = alloca i32*, align 8
  %6 = alloca i32*, align 8
  store { i32*, i32* }* %self, { i32*, i32* }** %self.dbg.spill, align 8
  call void @llvm.dbg.declare(metadata { i32*, i32* }** %self.dbg.spill, metadata !1454, metadata !DIExpression()), !dbg !1455
  call void @llvm.dbg.declare(metadata {}* %metadata.dbg.spill, metadata !1456, metadata !DIExpression()), !dbg !1465
  call void @llvm.dbg.declare(metadata {}* %metadata.dbg.spill1, metadata !1481, metadata !DIExpression()), !dbg !1486
  %7 = bitcast { i32*, i32* }* %self to i32**, !dbg !1480
  %self2 = load i32*, i32** %7, align 8, !dbg !1480, !nonnull !23, !noundef !23
  store i32* %self2, i32** %self.dbg.spill3, align 8, !dbg !1480
  call void @llvm.dbg.declare(metadata i32** %self.dbg.spill3, metadata !1495, metadata !DIExpression()), !dbg !1501
  store i32* %self2, i32** %self.dbg.spill4, align 8, !dbg !1501
  call void @llvm.dbg.declare(metadata i32** %self.dbg.spill4, metadata !1478, metadata !DIExpression()), !dbg !1502
  %self5 = bitcast i32* %self2 to i8*, !dbg !1502
  store i8* %self5, i8** %self.dbg.spill6, align 8, !dbg !1502
  call void @llvm.dbg.declare(metadata i8** %self.dbg.spill6, metadata !1503, metadata !DIExpression()), !dbg !1510
  %8 = bitcast {}** %5 to i64*, !dbg !1512
  store i64 0, i64* %8, align 8, !dbg !1512
  %data_address = load {}*, {}** %5, align 8, !dbg !1512
  store {}* %data_address, {}** %data_address.dbg.spill, align 8, !dbg !1512
  call void @llvm.dbg.declare(metadata {}** %data_address.dbg.spill, metadata !1464, metadata !DIExpression()), !dbg !1465
  br label %bb9, !dbg !1512

bb9:                                              ; preds = %start
  %9 = bitcast %"core::ptr::metadata::PtrComponents<u8>"* %_30 to {}**, !dbg !1465
  store {}* %data_address, {}** %9, align 8, !dbg !1465
  %10 = bitcast %"core::ptr::metadata::PtrRepr<u8>"* %_29 to %"core::ptr::metadata::PtrComponents<u8>"*, !dbg !1465
  %11 = bitcast %"core::ptr::metadata::PtrComponents<u8>"* %10 to i8*, !dbg !1465
  %12 = bitcast %"core::ptr::metadata::PtrComponents<u8>"* %_30 to i8*, !dbg !1465
  call void @llvm.memcpy.p0i8.p0i8.i64(i8* align 8 %11, i8* align 8 %12, i64 8, i1 false), !dbg !1465
  %13 = bitcast %"core::ptr::metadata::PtrRepr<u8>"* %_29 to i8**, !dbg !1465
  %other = load i8*, i8** %13, align 8, !dbg !1465
  store i8* %other, i8** %other.dbg.spill, align 8, !dbg !1465
  call void @llvm.dbg.declare(metadata i8** %other.dbg.spill, metadata !1509, metadata !DIExpression()), !dbg !1510
  %14 = icmp eq i8* %self5, %other, !dbg !1510
  %15 = zext i1 %14 to i8, !dbg !1510
  store i8 %15, i8* %4, align 1, !dbg !1510
  %16 = load i8, i8* %4, align 1, !dbg !1510, !range !429, !noundef !23
  %_4 = trunc i8 %16 to i1, !dbg !1510
  br label %bb10, !dbg !1510

bb10:                                             ; preds = %bb9
  %_3 = xor i1 %_4, true, !dbg !1520
  call void @llvm.assume(i1 %_3), !dbg !1521
  br label %bb1, !dbg !1521

bb1:                                              ; preds = %bb10
  br i1 false, label %bb4, label %bb2, !dbg !1522

bb4:                                              ; preds = %bb1
  br label %bb5, !dbg !1523

bb2:                                              ; preds = %bb1
  %17 = getelementptr inbounds { i32*, i32* }, { i32*, i32* }* %self, i32 0, i32 1, !dbg !1494
  %self7 = load i32*, i32** %17, align 8, !dbg !1494
  store i32* %self7, i32** %self.dbg.spill8, align 8, !dbg !1494
  call void @llvm.dbg.declare(metadata i32** %self.dbg.spill8, metadata !1492, metadata !DIExpression()), !dbg !1524
  %self9 = bitcast i32* %self7 to i8*, !dbg !1524
  store i8* %self9, i8** %self.dbg.spill10, align 8, !dbg !1524
  call void @llvm.dbg.declare(metadata i8** %self.dbg.spill10, metadata !1525, metadata !DIExpression()), !dbg !1530
  %18 = bitcast {}** %3 to i64*, !dbg !1532
  store i64 0, i64* %18, align 8, !dbg !1532
  %data_address11 = load {}*, {}** %3, align 8, !dbg !1532
  store {}* %data_address11, {}** %data_address.dbg.spill12, align 8, !dbg !1532
  call void @llvm.dbg.declare(metadata {}** %data_address.dbg.spill12, metadata !1485, metadata !DIExpression()), !dbg !1486
  br label %bb11, !dbg !1532

bb11:                                             ; preds = %bb2
  %19 = bitcast %"core::ptr::metadata::PtrComponents<u8>"* %_47 to {}**, !dbg !1486
  store {}* %data_address11, {}** %19, align 8, !dbg !1486
  %20 = bitcast %"core::ptr::metadata::PtrRepr<u8>"* %_46 to %"core::ptr::metadata::PtrComponents<u8>"*, !dbg !1486
  %21 = bitcast %"core::ptr::metadata::PtrComponents<u8>"* %20 to i8*, !dbg !1486
  %22 = bitcast %"core::ptr::metadata::PtrComponents<u8>"* %_47 to i8*, !dbg !1486
  call void @llvm.memcpy.p0i8.p0i8.i64(i8* align 8 %21, i8* align 8 %22, i64 8, i1 false), !dbg !1486
  %23 = bitcast %"core::ptr::metadata::PtrRepr<u8>"* %_46 to i8**, !dbg !1486
  %other13 = load i8*, i8** %23, align 8, !dbg !1486
  store i8* %other13, i8** %other.dbg.spill14, align 8, !dbg !1486
  call void @llvm.dbg.declare(metadata i8** %other.dbg.spill14, metadata !1529, metadata !DIExpression()), !dbg !1530
  %24 = icmp eq i8* %self9, %other13, !dbg !1530
  %25 = zext i1 %24 to i8, !dbg !1530
  store i8 %25, i8* %2, align 1, !dbg !1530
  %26 = load i8, i8* %2, align 1, !dbg !1530, !range !429, !noundef !23
  %_10 = trunc i8 %26 to i1, !dbg !1530
  br label %bb12, !dbg !1530

bb12:                                             ; preds = %bb11
  %_9 = xor i1 %_10, true, !dbg !1538
  call void @llvm.assume(i1 %_9), !dbg !1539
  br label %bb3, !dbg !1539

bb3:                                              ; preds = %bb12
  br label %bb5, !dbg !1523

bb5:                                              ; preds = %bb4, %bb3
  %27 = bitcast { i32*, i32* }* %self to i32**, !dbg !1540
  %self15 = load i32*, i32** %27, align 8, !dbg !1540, !nonnull !23, !noundef !23
  store i32* %self15, i32** %self.dbg.spill16, align 8, !dbg !1540
  call void @llvm.dbg.declare(metadata i32** %self.dbg.spill16, metadata !1541, metadata !DIExpression()), !dbg !1545
  %28 = getelementptr inbounds { i32*, i32* }, { i32*, i32* }* %self, i32 0, i32 1, !dbg !1540
  %_16 = load i32*, i32** %28, align 8, !dbg !1540
  %_12 = icmp eq i32* %self15, %_16, !dbg !1540
  br i1 %_12, label %bb6, label %bb7, !dbg !1540

bb7:                                              ; preds = %bb5
  store { i32*, i32* }* %self, { i32*, i32* }** %self.dbg.spill17, align 8, !dbg !1547
  call void @llvm.dbg.declare(metadata { i32*, i32* }** %self.dbg.spill17, metadata !1548, metadata !DIExpression()), !dbg !1556
  br i1 false, label %bb13, label %bb14, !dbg !1556

bb6:                                              ; preds = %bb5
  %29 = bitcast i32** %6 to {}**, !dbg !1558
  store {}* null, {}** %29, align 8, !dbg !1558
  br label %bb8, !dbg !1559

bb8:                                              ; preds = %bb15, %bb6
  %30 = load i32*, i32** %6, align 8, !dbg !1560, !align !290
  ret i32* %30, !dbg !1560

bb13:                                             ; preds = %bb7
  %31 = getelementptr inbounds { i32*, i32* }, { i32*, i32* }* %self, i32 0, i32 1, !dbg !1556
  %_56 = load i32*, i32** %31, align 8, !dbg !1556
  %self23 = bitcast i32* %_56 to i8*, !dbg !1556
  store i8* %self23, i8** %self.dbg.spill24, align 8, !dbg !1556
  call void @llvm.dbg.declare(metadata i8** %self.dbg.spill24, metadata !1561, metadata !DIExpression()), !dbg !1566
  %32 = getelementptr i8, i8* %self23, i64 -1, !dbg !1566
  store i8* %32, i8** %0, align 8, !dbg !1566
  %_54 = load i8*, i8** %0, align 8, !dbg !1566
  br label %bb16, !dbg !1566

bb14:                                             ; preds = %bb7
  %33 = bitcast { i32*, i32* }* %self to i32**, !dbg !1556
  %self18 = load i32*, i32** %33, align 8, !dbg !1556, !nonnull !23, !noundef !23
  store i32* %self18, i32** %self.dbg.spill19, align 8, !dbg !1556
  call void @llvm.dbg.declare(metadata i32** %self.dbg.spill19, metadata !1568, metadata !DIExpression()), !dbg !1572
  store i32* %self18, i32** %old.dbg.spill, align 8, !dbg !1572
  call void @llvm.dbg.declare(metadata i32** %old.dbg.spill, metadata !1554, metadata !DIExpression()), !dbg !1574
  %34 = bitcast { i32*, i32* }* %self to i32**, !dbg !1574
  %self20 = load i32*, i32** %34, align 8, !dbg !1574, !nonnull !23, !noundef !23
  store i32* %self20, i32** %self.dbg.spill21, align 8, !dbg !1574
  call void @llvm.dbg.declare(metadata i32** %self.dbg.spill21, metadata !1575, metadata !DIExpression()), !dbg !1579
  store i32* %self20, i32** %self.dbg.spill22, align 8, !dbg !1579
  call void @llvm.dbg.declare(metadata i32** %self.dbg.spill22, metadata !1581, metadata !DIExpression()), !dbg !1588
  %35 = getelementptr inbounds i32, i32* %self20, i64 1, !dbg !1588
  store i32* %35, i32** %1, align 8, !dbg !1588
  %_73 = load i32*, i32** %1, align 8, !dbg !1588
  br label %bb17, !dbg !1588

bb17:                                             ; preds = %bb14
  store i32* %_73, i32** %ptr.dbg.spill, align 8, !dbg !1588
  call void @llvm.dbg.declare(metadata i32** %ptr.dbg.spill, metadata !1589, metadata !DIExpression()), !dbg !1593
  store i32* %_73, i32** %_62, align 8, !dbg !1593
  %36 = bitcast { i32*, i32* }* %self to i32**, !dbg !1574
  %37 = load i32*, i32** %_62, align 8, !dbg !1574, !nonnull !23, !noundef !23
  store i32* %37, i32** %36, align 8, !dbg !1574
  store i32* %self18, i32** %_19, align 8, !dbg !1574
  br label %bb15, !dbg !1556

bb15:                                             ; preds = %bb16, %bb17
  %_18 = load i32*, i32** %_19, align 8, !dbg !1547
  store i32* %_18, i32** %6, align 8, !dbg !1595
  br label %bb8, !dbg !1559

bb16:                                             ; preds = %bb13
  %38 = getelementptr inbounds { i32*, i32* }, { i32*, i32* }* %self, i32 0, i32 1, !dbg !1556
  %39 = bitcast i8* %_54 to i32*, !dbg !1556
  store i32* %39, i32** %38, align 8, !dbg !1556
  %40 = bitcast { i32*, i32* }* %self to i32**, !dbg !1556
  %self25 = load i32*, i32** %40, align 8, !dbg !1556, !nonnull !23, !noundef !23
  store i32* %self25, i32** %self.dbg.spill26, align 8, !dbg !1556
  call void @llvm.dbg.declare(metadata i32** %self.dbg.spill26, metadata !1596, metadata !DIExpression()), !dbg !1600
  store i32* %self25, i32** %_19, align 8, !dbg !1556
  br label %bb15, !dbg !1556
}

; Function Attrs: nonlazybind uwtable
define dso_local void @rust_abc() unnamed_addr #1 !dbg !1602 {
start:
  %_1 = call i32 @it_real_fn(), !dbg !1605
  br label %bb1, !dbg !1605

bb1:                                              ; preds = %start
  ret void, !dbg !1606
}

; Function Attrs: nonlazybind uwtable
define dso_local void @rust_entry(i32 %buffer_size, i32* %buffer) unnamed_addr #1 !dbg !1607 {
start:
  %0 = alloca i32*, align 8
  %count.dbg.spill.i33 = alloca i64, align 8
  %self.dbg.spill.i34 = alloca i32*, align 8
  %1 = alloca i32*, align 8
  %count.dbg.spill.i30 = alloca i64, align 8
  %self.dbg.spill.i31 = alloca i32*, align 8
  %2 = alloca i32*, align 8
  %count.dbg.spill.i27 = alloca i64, align 8
  %self.dbg.spill.i28 = alloca i32*, align 8
  %3 = alloca i32*, align 8
  %count.dbg.spill.i24 = alloca i64, align 8
  %self.dbg.spill.i25 = alloca i32*, align 8
  %4 = alloca i32*, align 8
  %count.dbg.spill.i21 = alloca i64, align 8
  %self.dbg.spill.i22 = alloca i32*, align 8
  %5 = alloca i32*, align 8
  %count.dbg.spill.i18 = alloca i64, align 8
  %self.dbg.spill.i19 = alloca i32*, align 8
  %6 = alloca i32*, align 8
  %count.dbg.spill.i15 = alloca i64, align 8
  %self.dbg.spill.i16 = alloca i32*, align 8
  %7 = alloca i32*, align 8
  %count.dbg.spill.i = alloca i64, align 8
  %self.dbg.spill.i14 = alloca i32*, align 8
  %rhs.dbg.spill.i12 = alloca i32, align 4
  %self.dbg.spill.i13 = alloca i32, align 4
  %rhs.dbg.spill.i10 = alloca i32, align 4
  %self.dbg.spill.i11 = alloca i32, align 4
  %rhs.dbg.spill.i8 = alloca i32, align 4
  %self.dbg.spill.i9 = alloca i32, align 4
  %rhs.dbg.spill.i = alloca i32, align 4
  %self.dbg.spill.i = alloca i32, align 4
  %8 = alloca i32, align 4
  %fresh9.dbg.spill = alloca i32, align 4
  %fresh8.dbg.spill = alloca i32, align 4
  %fresh7.dbg.spill = alloca i32, align 4
  %fresh6.dbg.spill = alloca i32, align 4
  %fresh5.dbg.spill = alloca i32, align 4
  %fresh4.dbg.spill = alloca i32, align 4
  %fresh3.dbg.spill = alloca i32, align 4
  %fresh1.dbg.spill = alloca i32, align 4
  %buffer.dbg.spill = alloca i32*, align 8
  %buffer_size.dbg.spill = alloca i32, align 4
  %e = alloca i32, align 4
  %x = alloca i32, align 4
  %i = alloca i32, align 4
  store i32 %buffer_size, i32* %buffer_size.dbg.spill, align 4
  call void @llvm.dbg.declare(metadata i32* %buffer_size.dbg.spill, metadata !1613, metadata !DIExpression()), !dbg !1641
  store i32* %buffer, i32** %buffer.dbg.spill, align 8
  call void @llvm.dbg.declare(metadata i32** %buffer.dbg.spill, metadata !1614, metadata !DIExpression()), !dbg !1642
  call void @llvm.dbg.declare(metadata i32* %i, metadata !1615, metadata !DIExpression()), !dbg !1643
  call void @llvm.dbg.declare(metadata i32* %x, metadata !1621, metadata !DIExpression()), !dbg !1644
  call void @llvm.dbg.declare(metadata i32* %e, metadata !1639, metadata !DIExpression()), !dbg !1645
  store i32 0, i32* %i, align 4, !dbg !1646
  %fresh1 = load i32, i32* %i, align 4, !dbg !1647
  store i32 %fresh1, i32* %fresh1.dbg.spill, align 4, !dbg !1647
  call void @llvm.dbg.declare(metadata i32* %fresh1.dbg.spill, metadata !1619, metadata !DIExpression()), !dbg !1648
  %_6 = load i32, i32* %i, align 4, !dbg !1649
  %9 = call { i32, i1 } @llvm.sadd.with.overflow.i32(i32 %_6, i32 1), !dbg !1649
  %_7.0 = extractvalue { i32, i1 } %9, 0, !dbg !1649
  %_7.1 = extractvalue { i32, i1 } %9, 1, !dbg !1649
  %10 = call i1 @llvm.expect.i1(i1 %_7.1, i1 false), !dbg !1649
  br i1 %10, label %panic, label %bb1, !dbg !1649

bb1:                                              ; preds = %start
  store i32 %_7.0, i32* %i, align 4, !dbg !1650
  %_11 = sext i32 %fresh1 to i64, !dbg !1651
  store i32* %buffer, i32** %self.dbg.spill.i34, align 8
  call void @llvm.dbg.declare(metadata i32** %self.dbg.spill.i34, metadata !1652, metadata !DIExpression()), !dbg !1656
  store i64 %_11, i64* %count.dbg.spill.i33, align 8
  call void @llvm.dbg.declare(metadata i64* %count.dbg.spill.i33, metadata !1655, metadata !DIExpression()), !dbg !1658
  %11 = getelementptr inbounds i32, i32* %buffer, i64 %_11, !dbg !1659
  store i32* %11, i32** %0, align 8, !dbg !1659
  %_3.i35 = load i32*, i32** %0, align 8, !dbg !1659
  br label %bb2, !dbg !1660

panic:                                            ; preds = %start
; call core::panicking::panic
  call void @_ZN4core9panicking5panic17hf5844c0338bd061cE([0 x i8]* align 1 bitcast ([28 x i8]* @str.7 to [0 x i8]*), i64 28, %"core::panic::location::Location"* align 8 bitcast (<{ i8*, [16 x i8] }>* @alloc364 to %"core::panic::location::Location"*)) #13, !dbg !1649
  unreachable, !dbg !1649

bb2:                                              ; preds = %bb1
  store i32 1, i32* %_3.i35, align 4, !dbg !1661
  store i32 0, i32* %x, align 4, !dbg !1662
  %_16 = load i32, i32* %x, align 4, !dbg !1663
  store i32 %_16, i32* %self.dbg.spill.i9, align 4
  call void @llvm.dbg.declare(metadata i32* %self.dbg.spill.i9, metadata !1664, metadata !DIExpression()), !dbg !1673
  store i32 1, i32* %rhs.dbg.spill.i8, align 4
  call void @llvm.dbg.declare(metadata i32* %rhs.dbg.spill.i8, metadata !1672, metadata !DIExpression()), !dbg !1675
  %12 = add i32 %_16, 1, !dbg !1676
  br label %bb3, !dbg !1677

bb3:                                              ; preds = %bb2
  %13 = icmp eq i32 %12, 0, !dbg !1677
  br i1 %13, label %bb7, label %bb4, !dbg !1677

bb7:                                              ; preds = %bb6, %bb3
  %_27 = load i32, i32* %x, align 4, !dbg !1678
  store i32 %_27, i32* %self.dbg.spill.i13, align 4
  call void @llvm.dbg.declare(metadata i32* %self.dbg.spill.i13, metadata !1679, metadata !DIExpression()), !dbg !1683
  store i32 1, i32* %rhs.dbg.spill.i12, align 4
  call void @llvm.dbg.declare(metadata i32* %rhs.dbg.spill.i12, metadata !1682, metadata !DIExpression()), !dbg !1685
  %14 = sub i32 %_27, 1, !dbg !1686
  br label %bb8, !dbg !1687

bb4:                                              ; preds = %bb3
  %fresh3 = load i32, i32* %i, align 4, !dbg !1688
  store i32 %fresh3, i32* %fresh3.dbg.spill, align 4, !dbg !1688
  call void @llvm.dbg.declare(metadata i32* %fresh3.dbg.spill, metadata !1625, metadata !DIExpression()), !dbg !1689
  %_19 = load i32, i32* %i, align 4, !dbg !1690
  %15 = call { i32, i1 } @llvm.sadd.with.overflow.i32(i32 %_19, i32 1), !dbg !1690
  %_20.0 = extractvalue { i32, i1 } %15, 0, !dbg !1690
  %_20.1 = extractvalue { i32, i1 } %15, 1, !dbg !1690
  %16 = call i1 @llvm.expect.i1(i1 %_20.1, i1 false), !dbg !1690
  br i1 %16, label %panic1, label %bb5, !dbg !1690

bb5:                                              ; preds = %bb4
  store i32 %_20.0, i32* %i, align 4, !dbg !1691
  %_24 = sext i32 %fresh3 to i64, !dbg !1692
  store i32* %buffer, i32** %self.dbg.spill.i31, align 8
  call void @llvm.dbg.declare(metadata i32** %self.dbg.spill.i31, metadata !1652, metadata !DIExpression()), !dbg !1693
  store i64 %_24, i64* %count.dbg.spill.i30, align 8
  call void @llvm.dbg.declare(metadata i64* %count.dbg.spill.i30, metadata !1655, metadata !DIExpression()), !dbg !1695
  %17 = getelementptr inbounds i32, i32* %buffer, i64 %_24, !dbg !1696
  store i32* %17, i32** %1, align 8, !dbg !1696
  %_3.i32 = load i32*, i32** %1, align 8, !dbg !1696
  br label %bb6, !dbg !1697

panic1:                                           ; preds = %bb4
; call core::panicking::panic
  call void @_ZN4core9panicking5panic17hf5844c0338bd061cE([0 x i8]* align 1 bitcast ([28 x i8]* @str.7 to [0 x i8]*), i64 28, %"core::panic::location::Location"* align 8 bitcast (<{ i8*, [16 x i8] }>* @alloc366 to %"core::panic::location::Location"*)) #13, !dbg !1690
  unreachable, !dbg !1690

bb6:                                              ; preds = %bb5
  store i32 1, i32* %_3.i32, align 4, !dbg !1698
  br label %bb7, !dbg !1699

bb8:                                              ; preds = %bb7
  %18 = icmp eq i32 %14, 0, !dbg !1687
  br i1 %18, label %bb12, label %bb9, !dbg !1687

bb12:                                             ; preds = %bb11, %bb8
  %_38 = load i32, i32* %x, align 4, !dbg !1700
  %_37 = zext i32 %_38 to i64, !dbg !1700
  %19 = icmp eq i64 %_37, 0, !dbg !1700
  br i1 %19, label %bb13, label %bb16, !dbg !1700

bb9:                                              ; preds = %bb8
  %fresh4 = load i32, i32* %i, align 4, !dbg !1701
  store i32 %fresh4, i32* %fresh4.dbg.spill, align 4, !dbg !1701
  call void @llvm.dbg.declare(metadata i32* %fresh4.dbg.spill, metadata !1627, metadata !DIExpression()), !dbg !1702
  %_30 = load i32, i32* %i, align 4, !dbg !1703
  %20 = call { i32, i1 } @llvm.sadd.with.overflow.i32(i32 %_30, i32 1), !dbg !1703
  %_31.0 = extractvalue { i32, i1 } %20, 0, !dbg !1703
  %_31.1 = extractvalue { i32, i1 } %20, 1, !dbg !1703
  %21 = call i1 @llvm.expect.i1(i1 %_31.1, i1 false), !dbg !1703
  br i1 %21, label %panic2, label %bb10, !dbg !1703

bb10:                                             ; preds = %bb9
  store i32 %_31.0, i32* %i, align 4, !dbg !1704
  %_35 = sext i32 %fresh4 to i64, !dbg !1705
  store i32* %buffer, i32** %self.dbg.spill.i28, align 8
  call void @llvm.dbg.declare(metadata i32** %self.dbg.spill.i28, metadata !1652, metadata !DIExpression()), !dbg !1706
  store i64 %_35, i64* %count.dbg.spill.i27, align 8
  call void @llvm.dbg.declare(metadata i64* %count.dbg.spill.i27, metadata !1655, metadata !DIExpression()), !dbg !1708
  %22 = getelementptr inbounds i32, i32* %buffer, i64 %_35, !dbg !1709
  store i32* %22, i32** %2, align 8, !dbg !1709
  %_3.i29 = load i32*, i32** %2, align 8, !dbg !1709
  br label %bb11, !dbg !1710

panic2:                                           ; preds = %bb9
; call core::panicking::panic
  call void @_ZN4core9panicking5panic17hf5844c0338bd061cE([0 x i8]* align 1 bitcast ([28 x i8]* @str.7 to [0 x i8]*), i64 28, %"core::panic::location::Location"* align 8 bitcast (<{ i8*, [16 x i8] }>* @alloc368 to %"core::panic::location::Location"*)) #13, !dbg !1703
  unreachable, !dbg !1703

bb11:                                             ; preds = %bb10
  store i32 1, i32* %_3.i29, align 4, !dbg !1711
  br label %bb12, !dbg !1712

bb13:                                             ; preds = %bb12
  %fresh5 = load i32, i32* %i, align 4, !dbg !1713
  store i32 %fresh5, i32* %fresh5.dbg.spill, align 4, !dbg !1713
  call void @llvm.dbg.declare(metadata i32* %fresh5.dbg.spill, metadata !1629, metadata !DIExpression()), !dbg !1714
  %_40 = load i32, i32* %i, align 4, !dbg !1715
  %23 = call { i32, i1 } @llvm.sadd.with.overflow.i32(i32 %_40, i32 1), !dbg !1715
  %_41.0 = extractvalue { i32, i1 } %23, 0, !dbg !1715
  %_41.1 = extractvalue { i32, i1 } %23, 1, !dbg !1715
  %24 = call i1 @llvm.expect.i1(i1 %_41.1, i1 false), !dbg !1715
  br i1 %24, label %panic3, label %bb14, !dbg !1715

bb16:                                             ; preds = %bb15, %bb12
  store i32 1, i32* %x, align 4, !dbg !1716
  %fresh6 = load i32, i32* %i, align 4, !dbg !1717
  store i32 %fresh6, i32* %fresh6.dbg.spill, align 4, !dbg !1717
  call void @llvm.dbg.declare(metadata i32* %fresh6.dbg.spill, metadata !1631, metadata !DIExpression()), !dbg !1718
  %_48 = load i32, i32* %i, align 4, !dbg !1719
  %25 = call { i32, i1 } @llvm.sadd.with.overflow.i32(i32 %_48, i32 1), !dbg !1719
  %_49.0 = extractvalue { i32, i1 } %25, 0, !dbg !1719
  %_49.1 = extractvalue { i32, i1 } %25, 1, !dbg !1719
  %26 = call i1 @llvm.expect.i1(i1 %_49.1, i1 false), !dbg !1719
  br i1 %26, label %panic4, label %bb17, !dbg !1719

bb14:                                             ; preds = %bb13
  store i32 %_41.0, i32* %i, align 4, !dbg !1720
  %_45 = sext i32 %fresh5 to i64, !dbg !1721
  store i32* %buffer, i32** %self.dbg.spill.i25, align 8
  call void @llvm.dbg.declare(metadata i32** %self.dbg.spill.i25, metadata !1652, metadata !DIExpression()), !dbg !1722
  store i64 %_45, i64* %count.dbg.spill.i24, align 8
  call void @llvm.dbg.declare(metadata i64* %count.dbg.spill.i24, metadata !1655, metadata !DIExpression()), !dbg !1724
  %27 = getelementptr inbounds i32, i32* %buffer, i64 %_45, !dbg !1725
  store i32* %27, i32** %3, align 8, !dbg !1725
  %_3.i26 = load i32*, i32** %3, align 8, !dbg !1725
  br label %bb15, !dbg !1726

panic3:                                           ; preds = %bb13
; call core::panicking::panic
  call void @_ZN4core9panicking5panic17hf5844c0338bd061cE([0 x i8]* align 1 bitcast ([28 x i8]* @str.7 to [0 x i8]*), i64 28, %"core::panic::location::Location"* align 8 bitcast (<{ i8*, [16 x i8] }>* @alloc370 to %"core::panic::location::Location"*)) #13, !dbg !1715
  unreachable, !dbg !1715

bb15:                                             ; preds = %bb14
  store i32 1, i32* %_3.i26, align 4, !dbg !1727
  br label %bb16, !dbg !1728

bb17:                                             ; preds = %bb16
  store i32 %_49.0, i32* %i, align 4, !dbg !1729
  %_53 = sext i32 %fresh6 to i64, !dbg !1730
  store i32* %buffer, i32** %self.dbg.spill.i22, align 8
  call void @llvm.dbg.declare(metadata i32** %self.dbg.spill.i22, metadata !1652, metadata !DIExpression()), !dbg !1731
  store i64 %_53, i64* %count.dbg.spill.i21, align 8
  call void @llvm.dbg.declare(metadata i64* %count.dbg.spill.i21, metadata !1655, metadata !DIExpression()), !dbg !1733
  %28 = getelementptr inbounds i32, i32* %buffer, i64 %_53, !dbg !1734
  store i32* %28, i32** %4, align 8, !dbg !1734
  %_3.i23 = load i32*, i32** %4, align 8, !dbg !1734
  br label %bb18, !dbg !1735

panic4:                                           ; preds = %bb16
; call core::panicking::panic
  call void @_ZN4core9panicking5panic17hf5844c0338bd061cE([0 x i8]* align 1 bitcast ([28 x i8]* @str.7 to [0 x i8]*), i64 28, %"core::panic::location::Location"* align 8 bitcast (<{ i8*, [16 x i8] }>* @alloc372 to %"core::panic::location::Location"*)) #13, !dbg !1719
  unreachable, !dbg !1719

bb18:                                             ; preds = %bb17
  store i32 1, i32* %_3.i23, align 4, !dbg !1736
  %_56 = load i32, i32* %x, align 4, !dbg !1737
  store i32 %_56, i32* %self.dbg.spill.i, align 4
  call void @llvm.dbg.declare(metadata i32* %self.dbg.spill.i, metadata !1664, metadata !DIExpression()), !dbg !1738
  store i32 1, i32* %rhs.dbg.spill.i, align 4
  call void @llvm.dbg.declare(metadata i32* %rhs.dbg.spill.i, metadata !1672, metadata !DIExpression()), !dbg !1740
  %29 = add i32 %_56, 1, !dbg !1741
  br label %bb19, !dbg !1742

bb19:                                             ; preds = %bb18
  %30 = icmp eq i32 %29, 0, !dbg !1742
  br i1 %30, label %bb23, label %bb20, !dbg !1742

bb23:                                             ; preds = %bb22, %bb19
  %_67 = load i32, i32* %x, align 4, !dbg !1743
  store i32 %_67, i32* %self.dbg.spill.i11, align 4
  call void @llvm.dbg.declare(metadata i32* %self.dbg.spill.i11, metadata !1679, metadata !DIExpression()), !dbg !1744
  store i32 1, i32* %rhs.dbg.spill.i10, align 4
  call void @llvm.dbg.declare(metadata i32* %rhs.dbg.spill.i10, metadata !1682, metadata !DIExpression()), !dbg !1746
  %31 = sub i32 %_67, 1, !dbg !1747
  br label %bb24, !dbg !1748

bb20:                                             ; preds = %bb19
  %fresh7 = load i32, i32* %i, align 4, !dbg !1749
  store i32 %fresh7, i32* %fresh7.dbg.spill, align 4, !dbg !1749
  call void @llvm.dbg.declare(metadata i32* %fresh7.dbg.spill, metadata !1633, metadata !DIExpression()), !dbg !1750
  %_59 = load i32, i32* %i, align 4, !dbg !1751
  %32 = call { i32, i1 } @llvm.sadd.with.overflow.i32(i32 %_59, i32 1), !dbg !1751
  %_60.0 = extractvalue { i32, i1 } %32, 0, !dbg !1751
  %_60.1 = extractvalue { i32, i1 } %32, 1, !dbg !1751
  %33 = call i1 @llvm.expect.i1(i1 %_60.1, i1 false), !dbg !1751
  br i1 %33, label %panic5, label %bb21, !dbg !1751

bb21:                                             ; preds = %bb20
  store i32 %_60.0, i32* %i, align 4, !dbg !1752
  %_64 = sext i32 %fresh7 to i64, !dbg !1753
  store i32* %buffer, i32** %self.dbg.spill.i19, align 8
  call void @llvm.dbg.declare(metadata i32** %self.dbg.spill.i19, metadata !1652, metadata !DIExpression()), !dbg !1754
  store i64 %_64, i64* %count.dbg.spill.i18, align 8
  call void @llvm.dbg.declare(metadata i64* %count.dbg.spill.i18, metadata !1655, metadata !DIExpression()), !dbg !1756
  %34 = getelementptr inbounds i32, i32* %buffer, i64 %_64, !dbg !1757
  store i32* %34, i32** %5, align 8, !dbg !1757
  %_3.i20 = load i32*, i32** %5, align 8, !dbg !1757
  br label %bb22, !dbg !1758

panic5:                                           ; preds = %bb20
; call core::panicking::panic
  call void @_ZN4core9panicking5panic17hf5844c0338bd061cE([0 x i8]* align 1 bitcast ([28 x i8]* @str.7 to [0 x i8]*), i64 28, %"core::panic::location::Location"* align 8 bitcast (<{ i8*, [16 x i8] }>* @alloc374 to %"core::panic::location::Location"*)) #13, !dbg !1751
  unreachable, !dbg !1751

bb22:                                             ; preds = %bb21
  store i32 1, i32* %_3.i20, align 4, !dbg !1759
  br label %bb23, !dbg !1760

bb24:                                             ; preds = %bb23
  %35 = icmp eq i32 %31, 0, !dbg !1748
  br i1 %35, label %bb28, label %bb25, !dbg !1748

bb28:                                             ; preds = %bb27, %bb24
  %_78 = load i32, i32* %x, align 4, !dbg !1761
  %_77 = zext i32 %_78 to i64, !dbg !1761
  %36 = icmp eq i64 %_77, 0, !dbg !1761
  br i1 %36, label %bb29, label %bb32, !dbg !1761

bb25:                                             ; preds = %bb24
  %fresh8 = load i32, i32* %i, align 4, !dbg !1762
  store i32 %fresh8, i32* %fresh8.dbg.spill, align 4, !dbg !1762
  call void @llvm.dbg.declare(metadata i32* %fresh8.dbg.spill, metadata !1635, metadata !DIExpression()), !dbg !1763
  %_70 = load i32, i32* %i, align 4, !dbg !1764
  %37 = call { i32, i1 } @llvm.sadd.with.overflow.i32(i32 %_70, i32 1), !dbg !1764
  %_71.0 = extractvalue { i32, i1 } %37, 0, !dbg !1764
  %_71.1 = extractvalue { i32, i1 } %37, 1, !dbg !1764
  %38 = call i1 @llvm.expect.i1(i1 %_71.1, i1 false), !dbg !1764
  br i1 %38, label %panic6, label %bb26, !dbg !1764

bb26:                                             ; preds = %bb25
  store i32 %_71.0, i32* %i, align 4, !dbg !1765
  %_75 = sext i32 %fresh8 to i64, !dbg !1766
  store i32* %buffer, i32** %self.dbg.spill.i16, align 8
  call void @llvm.dbg.declare(metadata i32** %self.dbg.spill.i16, metadata !1652, metadata !DIExpression()), !dbg !1767
  store i64 %_75, i64* %count.dbg.spill.i15, align 8
  call void @llvm.dbg.declare(metadata i64* %count.dbg.spill.i15, metadata !1655, metadata !DIExpression()), !dbg !1769
  %39 = getelementptr inbounds i32, i32* %buffer, i64 %_75, !dbg !1770
  store i32* %39, i32** %6, align 8, !dbg !1770
  %_3.i17 = load i32*, i32** %6, align 8, !dbg !1770
  br label %bb27, !dbg !1771

panic6:                                           ; preds = %bb25
; call core::panicking::panic
  call void @_ZN4core9panicking5panic17hf5844c0338bd061cE([0 x i8]* align 1 bitcast ([28 x i8]* @str.7 to [0 x i8]*), i64 28, %"core::panic::location::Location"* align 8 bitcast (<{ i8*, [16 x i8] }>* @alloc376 to %"core::panic::location::Location"*)) #13, !dbg !1764
  unreachable, !dbg !1764

bb27:                                             ; preds = %bb26
  store i32 1, i32* %_3.i17, align 4, !dbg !1772
  br label %bb28, !dbg !1773

bb29:                                             ; preds = %bb28
  %fresh9 = load i32, i32* %i, align 4, !dbg !1774
  store i32 %fresh9, i32* %fresh9.dbg.spill, align 4, !dbg !1774
  call void @llvm.dbg.declare(metadata i32* %fresh9.dbg.spill, metadata !1637, metadata !DIExpression()), !dbg !1775
  %_80 = load i32, i32* %i, align 4, !dbg !1776
  %40 = call { i32, i1 } @llvm.sadd.with.overflow.i32(i32 %_80, i32 1), !dbg !1776
  %_81.0 = extractvalue { i32, i1 } %40, 0, !dbg !1776
  %_81.1 = extractvalue { i32, i1 } %40, 1, !dbg !1776
  %41 = call i1 @llvm.expect.i1(i1 %_81.1, i1 false), !dbg !1776
  br i1 %41, label %panic7, label %bb30, !dbg !1776

bb32:                                             ; preds = %bb31, %bb28
  store i32 0, i32* %e, align 4, !dbg !1777
  store i32 1, i32* %8, align 4, !dbg !1778
  %_88 = load i32, i32* %8, align 4, !dbg !1778
  br label %bb33, !dbg !1778

bb30:                                             ; preds = %bb29
  store i32 %_81.0, i32* %i, align 4, !dbg !1779
  %_85 = sext i32 %fresh9 to i64, !dbg !1780
  store i32* %buffer, i32** %self.dbg.spill.i14, align 8
  call void @llvm.dbg.declare(metadata i32** %self.dbg.spill.i14, metadata !1652, metadata !DIExpression()), !dbg !1781
  store i64 %_85, i64* %count.dbg.spill.i, align 8
  call void @llvm.dbg.declare(metadata i64* %count.dbg.spill.i, metadata !1655, metadata !DIExpression()), !dbg !1783
  %42 = getelementptr inbounds i32, i32* %buffer, i64 %_85, !dbg !1784
  store i32* %42, i32** %7, align 8, !dbg !1784
  %_3.i = load i32*, i32** %7, align 8, !dbg !1784
  br label %bb31, !dbg !1785

panic7:                                           ; preds = %bb29
; call core::panicking::panic
  call void @_ZN4core9panicking5panic17hf5844c0338bd061cE([0 x i8]* align 1 bitcast ([28 x i8]* @str.7 to [0 x i8]*), i64 28, %"core::panic::location::Location"* align 8 bitcast (<{ i8*, [16 x i8] }>* @alloc378 to %"core::panic::location::Location"*)) #13, !dbg !1776
  unreachable, !dbg !1776

bb31:                                             ; preds = %bb30
  store i32 1, i32* %_3.i, align 4, !dbg !1786
  br label %bb32, !dbg !1787

bb33:                                             ; preds = %bb32
  store i32 %_88, i32* %e, align 4, !dbg !1788
  ret void, !dbg !1789
}

; Function Attrs: nonlazybind uwtable
define dso_local void @rust_entry4(i32 %buffer_size, i32* %buffer) unnamed_addr #1 !dbg !1790 {
start:
  %0 = alloca i32*, align 8
  %count.dbg.spill.i = alloca i64, align 8
  %self.dbg.spill.i = alloca i32*, align 8
  %buffer.dbg.spill = alloca i32*, align 8
  %buffer_size.dbg.spill = alloca i32, align 4
  store i32 %buffer_size, i32* %buffer_size.dbg.spill, align 4
  call void @llvm.dbg.declare(metadata i32* %buffer_size.dbg.spill, metadata !1792, metadata !DIExpression()), !dbg !1794
  store i32* %buffer, i32** %buffer.dbg.spill, align 8
  call void @llvm.dbg.declare(metadata i32** %buffer.dbg.spill, metadata !1793, metadata !DIExpression()), !dbg !1795
  %_3 = load i32, i32* bitcast (<{ [4 x i8] }>* @_ZN10enum_tests8top_enum6rust_e17h17a8b40d99714f2cE to i32*), align 4, !dbg !1796
  store i32* %buffer, i32** %self.dbg.spill.i, align 8
  call void @llvm.dbg.declare(metadata i32** %self.dbg.spill.i, metadata !1652, metadata !DIExpression()), !dbg !1797
  store i64 0, i64* %count.dbg.spill.i, align 8
  call void @llvm.dbg.declare(metadata i64* %count.dbg.spill.i, metadata !1655, metadata !DIExpression()), !dbg !1799
  store i32* %buffer, i32** %0, align 8, !dbg !1800
  %_3.i = load i32*, i32** %0, align 8, !dbg !1800
  br label %bb1, !dbg !1801

bb1:                                              ; preds = %start
  store i32 %_3, i32* %_3.i, align 4, !dbg !1802
  ret void, !dbg !1803
}

; Function Attrs: nonlazybind uwtable
define dso_local void @rust_entry3(i32 %sz, i32* %buffer) unnamed_addr #1 !dbg !1804 {
start:
  %0 = alloca i32*, align 8
  %count.dbg.spill.i7 = alloca i64, align 8
  %self.dbg.spill.i8 = alloca i32*, align 8
  %1 = alloca i32*, align 8
  %count.dbg.spill.i4 = alloca i64, align 8
  %self.dbg.spill.i5 = alloca i32*, align 8
  %2 = alloca i32*, align 8
  %count.dbg.spill.i1 = alloca i64, align 8
  %self.dbg.spill.i2 = alloca i32*, align 8
  %3 = alloca i32*, align 8
  %count.dbg.spill.i = alloca i64, align 8
  %self.dbg.spill.i = alloca i32*, align 8
  %buffer.dbg.spill = alloca i32*, align 8
  %sz.dbg.spill = alloca i32, align 4
  store i32 %sz, i32* %sz.dbg.spill, align 4
  call void @llvm.dbg.declare(metadata i32* %sz.dbg.spill, metadata !1808, metadata !DIExpression()), !dbg !1810
  store i32* %buffer, i32** %buffer.dbg.spill, align 8
  call void @llvm.dbg.declare(metadata i32** %buffer.dbg.spill, metadata !1809, metadata !DIExpression()), !dbg !1811
  store i32* %buffer, i32** %self.dbg.spill.i8, align 8
  call void @llvm.dbg.declare(metadata i32** %self.dbg.spill.i8, metadata !1652, metadata !DIExpression()), !dbg !1812
  store i64 0, i64* %count.dbg.spill.i7, align 8
  call void @llvm.dbg.declare(metadata i64* %count.dbg.spill.i7, metadata !1655, metadata !DIExpression()), !dbg !1814
  store i32* %buffer, i32** %0, align 8, !dbg !1815
  %_3.i9 = load i32*, i32** %0, align 8, !dbg !1815
  br label %bb1, !dbg !1816

bb1:                                              ; preds = %start
  store i32 0, i32* %_3.i9, align 4, !dbg !1817
  store i32* %buffer, i32** %self.dbg.spill.i5, align 8
  call void @llvm.dbg.declare(metadata i32** %self.dbg.spill.i5, metadata !1652, metadata !DIExpression()), !dbg !1818
  store i64 1, i64* %count.dbg.spill.i4, align 8
  call void @llvm.dbg.declare(metadata i64* %count.dbg.spill.i4, metadata !1655, metadata !DIExpression()), !dbg !1820
  %4 = getelementptr inbounds i32, i32* %buffer, i64 1, !dbg !1821
  store i32* %4, i32** %1, align 8, !dbg !1821
  %_3.i6 = load i32*, i32** %1, align 8, !dbg !1821
  br label %bb2, !dbg !1822

bb2:                                              ; preds = %bb1
  store i32 0, i32* %_3.i6, align 4, !dbg !1823
  store i32* %buffer, i32** %self.dbg.spill.i2, align 8
  call void @llvm.dbg.declare(metadata i32** %self.dbg.spill.i2, metadata !1652, metadata !DIExpression()), !dbg !1824
  store i64 2, i64* %count.dbg.spill.i1, align 8
  call void @llvm.dbg.declare(metadata i64* %count.dbg.spill.i1, metadata !1655, metadata !DIExpression()), !dbg !1826
  %5 = getelementptr inbounds i32, i32* %buffer, i64 2, !dbg !1827
  store i32* %5, i32** %2, align 8, !dbg !1827
  %_3.i3 = load i32*, i32** %2, align 8, !dbg !1827
  br label %bb3, !dbg !1828

bb3:                                              ; preds = %bb2
  store i32 -10, i32* %_3.i3, align 4, !dbg !1829
  store i32* %buffer, i32** %self.dbg.spill.i, align 8
  call void @llvm.dbg.declare(metadata i32** %self.dbg.spill.i, metadata !1652, metadata !DIExpression()), !dbg !1830
  store i64 3, i64* %count.dbg.spill.i, align 8
  call void @llvm.dbg.declare(metadata i64* %count.dbg.spill.i, metadata !1655, metadata !DIExpression()), !dbg !1832
  %6 = getelementptr inbounds i32, i32* %buffer, i64 3, !dbg !1833
  store i32* %6, i32** %3, align 8, !dbg !1833
  %_3.i = load i32*, i32** %3, align 8, !dbg !1833
  br label %bb4, !dbg !1834

bb4:                                              ; preds = %bb3
  store i32 -9, i32* %_3.i, align 4, !dbg !1835
  ret void, !dbg !1836
}

; Function Attrs: nonlazybind uwtable
define dso_local void @rust_entry6(i32 %buffer_size, i32* %buffer) unnamed_addr #1 !dbg !1837 {
start:
  %0 = alloca i32*, align 8
  %count.dbg.spill.i = alloca i64, align 8
  %self.dbg.spill.i = alloca i32*, align 8
  %buffer.dbg.spill = alloca i32*, align 8
  %buffer_size.dbg.spill = alloca i32, align 4
  store i32 %buffer_size, i32* %buffer_size.dbg.spill, align 4
  call void @llvm.dbg.declare(metadata i32* %buffer_size.dbg.spill, metadata !1841, metadata !DIExpression()), !dbg !1843
  store i32* %buffer, i32** %buffer.dbg.spill, align 8
  call void @llvm.dbg.declare(metadata i32** %buffer.dbg.spill, metadata !1842, metadata !DIExpression()), !dbg !1844
  %_3 = icmp ult i32 %buffer_size, 1, !dbg !1845
  br i1 %_3, label %bb3, label %bb1, !dbg !1845

bb1:                                              ; preds = %start
  store i32* %buffer, i32** %self.dbg.spill.i, align 8
  call void @llvm.dbg.declare(metadata i32** %self.dbg.spill.i, metadata !1652, metadata !DIExpression()), !dbg !1846
  store i64 0, i64* %count.dbg.spill.i, align 8
  call void @llvm.dbg.declare(metadata i64* %count.dbg.spill.i, metadata !1655, metadata !DIExpression()), !dbg !1848
  store i32* %buffer, i32** %0, align 8, !dbg !1849
  %_3.i = load i32*, i32** %0, align 8, !dbg !1849
  br label %bb2, !dbg !1850

bb3:                                              ; preds = %bb2, %start
  ret void, !dbg !1851

bb2:                                              ; preds = %bb1
  store i32 2, i32* %_3.i, align 4, !dbg !1852
  br label %bb3, !dbg !1851
}

; Function Attrs: nonlazybind uwtable
define dso_local i32 @rust_foo(i32 %i) unnamed_addr #1 !dbg !1853 {
start:
  %i.dbg.spill = alloca i32, align 4
  store i32 %i, i32* %i.dbg.spill, align 4
  call void @llvm.dbg.declare(metadata i32* %i.dbg.spill, metadata !1859, metadata !DIExpression()), !dbg !1860
  ret i32 %i, !dbg !1861
}

; Function Attrs: nonlazybind uwtable
define dso_local void @rust_entry5(i32 %sz, i32* %buffer) unnamed_addr #1 !dbg !1862 {
start:
  %0 = alloca i32*, align 8
  %count.dbg.spill.i17 = alloca i64, align 8
  %self.dbg.spill.i18 = alloca i32*, align 8
  %1 = alloca i32*, align 8
  %count.dbg.spill.i14 = alloca i64, align 8
  %self.dbg.spill.i15 = alloca i32*, align 8
  %2 = alloca i32*, align 8
  %count.dbg.spill.i11 = alloca i64, align 8
  %self.dbg.spill.i12 = alloca i32*, align 8
  %3 = alloca i32*, align 8
  %count.dbg.spill.i8 = alloca i64, align 8
  %self.dbg.spill.i9 = alloca i32*, align 8
  %4 = alloca i32*, align 8
  %count.dbg.spill.i5 = alloca i64, align 8
  %self.dbg.spill.i6 = alloca i32*, align 8
  %5 = alloca i32*, align 8
  %count.dbg.spill.i = alloca i64, align 8
  %self.dbg.spill.i = alloca i32*, align 8
  %fresh5.dbg.spill = alloca i32, align 4
  %fresh4.dbg.spill = alloca i32, align 4
  %fresh3.dbg.spill = alloca i32, align 4
  %fresh2.dbg.spill = alloca i32, align 4
  %fresh1.dbg.spill = alloca i32, align 4
  %fresh0.dbg.spill = alloca i32, align 4
  %buffer.dbg.spill = alloca i32*, align 8
  %sz.dbg.spill = alloca i32, align 4
  %i = alloca i32, align 4
  %e3 = alloca [2 x i64], align 8
  %e2 = alloca [2 x i32], align 4
  %e1 = alloca [2 x i64], align 8
  store i32 %sz, i32* %sz.dbg.spill, align 4
  call void @llvm.dbg.declare(metadata i32* %sz.dbg.spill, metadata !1866, metadata !DIExpression()), !dbg !1894
  store i32* %buffer, i32** %buffer.dbg.spill, align 8
  call void @llvm.dbg.declare(metadata i32** %buffer.dbg.spill, metadata !1867, metadata !DIExpression()), !dbg !1895
  call void @llvm.dbg.declare(metadata [2 x i64]* %e1, metadata !1868, metadata !DIExpression()), !dbg !1896
  call void @llvm.dbg.declare(metadata [2 x i32]* %e2, metadata !1874, metadata !DIExpression()), !dbg !1897
  call void @llvm.dbg.declare(metadata [2 x i64]* %e3, metadata !1877, metadata !DIExpression()), !dbg !1898
  call void @llvm.dbg.declare(metadata i32* %i, metadata !1880, metadata !DIExpression()), !dbg !1899
  %6 = getelementptr inbounds [2 x i64], [2 x i64]* %e1, i64 0, i64 0, !dbg !1900
  store i64 1, i64* %6, align 8, !dbg !1900
  %7 = getelementptr inbounds [2 x i64], [2 x i64]* %e1, i64 0, i64 1, !dbg !1900
  store i64 0, i64* %7, align 8, !dbg !1900
  %8 = getelementptr inbounds [2 x i32], [2 x i32]* %e2, i64 0, i64 0, !dbg !1901
  store i32 1, i32* %8, align 4, !dbg !1901
  %9 = getelementptr inbounds [2 x i32], [2 x i32]* %e2, i64 0, i64 1, !dbg !1901
  store i32 0, i32* %9, align 4, !dbg !1901
  %10 = getelementptr inbounds [2 x i64], [2 x i64]* %e3, i64 0, i64 0, !dbg !1902
  store i64 1, i64* %10, align 8, !dbg !1902
  %11 = getelementptr inbounds [2 x i64], [2 x i64]* %e3, i64 0, i64 1, !dbg !1902
  store i64 0, i64* %11, align 8, !dbg !1902
  store i32 0, i32* %i, align 4, !dbg !1903
  store i32 0, i32* %fresh0.dbg.spill, align 4, !dbg !1904
  call void @llvm.dbg.declare(metadata i32* %fresh0.dbg.spill, metadata !1882, metadata !DIExpression()), !dbg !1905
  store i32 1, i32* %i, align 4, !dbg !1906
  %12 = getelementptr inbounds [2 x i64], [2 x i64]* %e1, i64 0, i64 0, !dbg !1907
  %_14 = load i64, i64* %12, align 8, !dbg !1907
  store i32* %buffer, i32** %self.dbg.spill.i18, align 8
  call void @llvm.dbg.declare(metadata i32** %self.dbg.spill.i18, metadata !1652, metadata !DIExpression()), !dbg !1908
  store i64 0, i64* %count.dbg.spill.i17, align 8
  call void @llvm.dbg.declare(metadata i64* %count.dbg.spill.i17, metadata !1655, metadata !DIExpression()), !dbg !1910
  store i32* %buffer, i32** %0, align 8, !dbg !1911
  %_3.i19 = load i32*, i32** %0, align 8, !dbg !1911
  br label %bb1, !dbg !1912

bb1:                                              ; preds = %start
  %13 = trunc i64 %_14 to i32, !dbg !1913
  store i32 %13, i32* %_3.i19, align 4, !dbg !1913
  %fresh1 = load i32, i32* %i, align 4, !dbg !1914
  store i32 %fresh1, i32* %fresh1.dbg.spill, align 4, !dbg !1914
  call void @llvm.dbg.declare(metadata i32* %fresh1.dbg.spill, metadata !1884, metadata !DIExpression()), !dbg !1915
  %_21 = load i32, i32* %i, align 4, !dbg !1916
  %14 = call { i32, i1 } @llvm.sadd.with.overflow.i32(i32 %_21, i32 1), !dbg !1916
  %_22.0 = extractvalue { i32, i1 } %14, 0, !dbg !1916
  %_22.1 = extractvalue { i32, i1 } %14, 1, !dbg !1916
  %15 = call i1 @llvm.expect.i1(i1 %_22.1, i1 false), !dbg !1916
  br i1 %15, label %panic, label %bb2, !dbg !1916

bb2:                                              ; preds = %bb1
  store i32 %_22.0, i32* %i, align 4, !dbg !1917
  %16 = getelementptr inbounds [2 x i64], [2 x i64]* %e1, i64 0, i64 1, !dbg !1918
  %_23 = load i64, i64* %16, align 8, !dbg !1918
  %_27 = sext i32 %fresh1 to i64, !dbg !1919
  store i32* %buffer, i32** %self.dbg.spill.i15, align 8
  call void @llvm.dbg.declare(metadata i32** %self.dbg.spill.i15, metadata !1652, metadata !DIExpression()), !dbg !1920
  store i64 %_27, i64* %count.dbg.spill.i14, align 8
  call void @llvm.dbg.declare(metadata i64* %count.dbg.spill.i14, metadata !1655, metadata !DIExpression()), !dbg !1922
  %17 = getelementptr inbounds i32, i32* %buffer, i64 %_27, !dbg !1923
  store i32* %17, i32** %1, align 8, !dbg !1923
  %_3.i16 = load i32*, i32** %1, align 8, !dbg !1923
  br label %bb3, !dbg !1924

panic:                                            ; preds = %bb1
; call core::panicking::panic
  call void @_ZN4core9panicking5panic17hf5844c0338bd061cE([0 x i8]* align 1 bitcast ([28 x i8]* @str.7 to [0 x i8]*), i64 28, %"core::panic::location::Location"* align 8 bitcast (<{ i8*, [16 x i8] }>* @alloc380 to %"core::panic::location::Location"*)) #13, !dbg !1916
  unreachable, !dbg !1916

bb3:                                              ; preds = %bb2
  %18 = trunc i64 %_23 to i32, !dbg !1925
  store i32 %18, i32* %_3.i16, align 4, !dbg !1925
  %fresh2 = load i32, i32* %i, align 4, !dbg !1926
  store i32 %fresh2, i32* %fresh2.dbg.spill, align 4, !dbg !1926
  call void @llvm.dbg.declare(metadata i32* %fresh2.dbg.spill, metadata !1886, metadata !DIExpression()), !dbg !1927
  %_30 = load i32, i32* %i, align 4, !dbg !1928
  %19 = call { i32, i1 } @llvm.sadd.with.overflow.i32(i32 %_30, i32 1), !dbg !1928
  %_31.0 = extractvalue { i32, i1 } %19, 0, !dbg !1928
  %_31.1 = extractvalue { i32, i1 } %19, 1, !dbg !1928
  %20 = call i1 @llvm.expect.i1(i1 %_31.1, i1 false), !dbg !1928
  br i1 %20, label %panic1, label %bb4, !dbg !1928

bb4:                                              ; preds = %bb3
  store i32 %_31.0, i32* %i, align 4, !dbg !1929
  %21 = getelementptr inbounds [2 x i32], [2 x i32]* %e2, i64 0, i64 0, !dbg !1930
  %_32 = load i32, i32* %21, align 4, !dbg !1930
  %_36 = sext i32 %fresh2 to i64, !dbg !1931
  store i32* %buffer, i32** %self.dbg.spill.i12, align 8
  call void @llvm.dbg.declare(metadata i32** %self.dbg.spill.i12, metadata !1652, metadata !DIExpression()), !dbg !1932
  store i64 %_36, i64* %count.dbg.spill.i11, align 8
  call void @llvm.dbg.declare(metadata i64* %count.dbg.spill.i11, metadata !1655, metadata !DIExpression()), !dbg !1934
  %22 = getelementptr inbounds i32, i32* %buffer, i64 %_36, !dbg !1935
  store i32* %22, i32** %2, align 8, !dbg !1935
  %_3.i13 = load i32*, i32** %2, align 8, !dbg !1935
  br label %bb5, !dbg !1936

panic1:                                           ; preds = %bb3
; call core::panicking::panic
  call void @_ZN4core9panicking5panic17hf5844c0338bd061cE([0 x i8]* align 1 bitcast ([28 x i8]* @str.7 to [0 x i8]*), i64 28, %"core::panic::location::Location"* align 8 bitcast (<{ i8*, [16 x i8] }>* @alloc382 to %"core::panic::location::Location"*)) #13, !dbg !1928
  unreachable, !dbg !1928

bb5:                                              ; preds = %bb4
  store i32 %_32, i32* %_3.i13, align 4, !dbg !1937
  %fresh3 = load i32, i32* %i, align 4, !dbg !1938
  store i32 %fresh3, i32* %fresh3.dbg.spill, align 4, !dbg !1938
  call void @llvm.dbg.declare(metadata i32* %fresh3.dbg.spill, metadata !1888, metadata !DIExpression()), !dbg !1939
  %_39 = load i32, i32* %i, align 4, !dbg !1940
  %23 = call { i32, i1 } @llvm.sadd.with.overflow.i32(i32 %_39, i32 1), !dbg !1940
  %_40.0 = extractvalue { i32, i1 } %23, 0, !dbg !1940
  %_40.1 = extractvalue { i32, i1 } %23, 1, !dbg !1940
  %24 = call i1 @llvm.expect.i1(i1 %_40.1, i1 false), !dbg !1940
  br i1 %24, label %panic2, label %bb6, !dbg !1940

bb6:                                              ; preds = %bb5
  store i32 %_40.0, i32* %i, align 4, !dbg !1941
  %25 = getelementptr inbounds [2 x i32], [2 x i32]* %e2, i64 0, i64 1, !dbg !1942
  %_41 = load i32, i32* %25, align 4, !dbg !1942
  %_45 = sext i32 %fresh3 to i64, !dbg !1943
  store i32* %buffer, i32** %self.dbg.spill.i9, align 8
  call void @llvm.dbg.declare(metadata i32** %self.dbg.spill.i9, metadata !1652, metadata !DIExpression()), !dbg !1944
  store i64 %_45, i64* %count.dbg.spill.i8, align 8
  call void @llvm.dbg.declare(metadata i64* %count.dbg.spill.i8, metadata !1655, metadata !DIExpression()), !dbg !1946
  %26 = getelementptr inbounds i32, i32* %buffer, i64 %_45, !dbg !1947
  store i32* %26, i32** %3, align 8, !dbg !1947
  %_3.i10 = load i32*, i32** %3, align 8, !dbg !1947
  br label %bb7, !dbg !1948

panic2:                                           ; preds = %bb5
; call core::panicking::panic
  call void @_ZN4core9panicking5panic17hf5844c0338bd061cE([0 x i8]* align 1 bitcast ([28 x i8]* @str.7 to [0 x i8]*), i64 28, %"core::panic::location::Location"* align 8 bitcast (<{ i8*, [16 x i8] }>* @alloc384 to %"core::panic::location::Location"*)) #13, !dbg !1940
  unreachable, !dbg !1940

bb7:                                              ; preds = %bb6
  store i32 %_41, i32* %_3.i10, align 4, !dbg !1949
  %fresh4 = load i32, i32* %i, align 4, !dbg !1950
  store i32 %fresh4, i32* %fresh4.dbg.spill, align 4, !dbg !1950
  call void @llvm.dbg.declare(metadata i32* %fresh4.dbg.spill, metadata !1890, metadata !DIExpression()), !dbg !1951
  %_48 = load i32, i32* %i, align 4, !dbg !1952
  %27 = call { i32, i1 } @llvm.sadd.with.overflow.i32(i32 %_48, i32 1), !dbg !1952
  %_49.0 = extractvalue { i32, i1 } %27, 0, !dbg !1952
  %_49.1 = extractvalue { i32, i1 } %27, 1, !dbg !1952
  %28 = call i1 @llvm.expect.i1(i1 %_49.1, i1 false), !dbg !1952
  br i1 %28, label %panic3, label %bb8, !dbg !1952

bb8:                                              ; preds = %bb7
  store i32 %_49.0, i32* %i, align 4, !dbg !1953
  %29 = getelementptr inbounds [2 x i64], [2 x i64]* %e3, i64 0, i64 0, !dbg !1954
  %_50 = load i64, i64* %29, align 8, !dbg !1954
  %_54 = sext i32 %fresh4 to i64, !dbg !1955
  store i32* %buffer, i32** %self.dbg.spill.i6, align 8
  call void @llvm.dbg.declare(metadata i32** %self.dbg.spill.i6, metadata !1652, metadata !DIExpression()), !dbg !1956
  store i64 %_54, i64* %count.dbg.spill.i5, align 8
  call void @llvm.dbg.declare(metadata i64* %count.dbg.spill.i5, metadata !1655, metadata !DIExpression()), !dbg !1958
  %30 = getelementptr inbounds i32, i32* %buffer, i64 %_54, !dbg !1959
  store i32* %30, i32** %4, align 8, !dbg !1959
  %_3.i7 = load i32*, i32** %4, align 8, !dbg !1959
  br label %bb9, !dbg !1960

panic3:                                           ; preds = %bb7
; call core::panicking::panic
  call void @_ZN4core9panicking5panic17hf5844c0338bd061cE([0 x i8]* align 1 bitcast ([28 x i8]* @str.7 to [0 x i8]*), i64 28, %"core::panic::location::Location"* align 8 bitcast (<{ i8*, [16 x i8] }>* @alloc386 to %"core::panic::location::Location"*)) #13, !dbg !1952
  unreachable, !dbg !1952

bb9:                                              ; preds = %bb8
  %31 = trunc i64 %_50 to i32, !dbg !1961
  store i32 %31, i32* %_3.i7, align 4, !dbg !1961
  %fresh5 = load i32, i32* %i, align 4, !dbg !1962
  store i32 %fresh5, i32* %fresh5.dbg.spill, align 4, !dbg !1962
  call void @llvm.dbg.declare(metadata i32* %fresh5.dbg.spill, metadata !1892, metadata !DIExpression()), !dbg !1963
  %_57 = load i32, i32* %i, align 4, !dbg !1964
  %32 = call { i32, i1 } @llvm.sadd.with.overflow.i32(i32 %_57, i32 1), !dbg !1964
  %_58.0 = extractvalue { i32, i1 } %32, 0, !dbg !1964
  %_58.1 = extractvalue { i32, i1 } %32, 1, !dbg !1964
  %33 = call i1 @llvm.expect.i1(i1 %_58.1, i1 false), !dbg !1964
  br i1 %33, label %panic4, label %bb10, !dbg !1964

bb10:                                             ; preds = %bb9
  store i32 %_58.0, i32* %i, align 4, !dbg !1965
  %34 = getelementptr inbounds [2 x i64], [2 x i64]* %e3, i64 0, i64 1, !dbg !1966
  %_59 = load i64, i64* %34, align 8, !dbg !1966
  %_63 = sext i32 %fresh5 to i64, !dbg !1967
  store i32* %buffer, i32** %self.dbg.spill.i, align 8
  call void @llvm.dbg.declare(metadata i32** %self.dbg.spill.i, metadata !1652, metadata !DIExpression()), !dbg !1968
  store i64 %_63, i64* %count.dbg.spill.i, align 8
  call void @llvm.dbg.declare(metadata i64* %count.dbg.spill.i, metadata !1655, metadata !DIExpression()), !dbg !1970
  %35 = getelementptr inbounds i32, i32* %buffer, i64 %_63, !dbg !1971
  store i32* %35, i32** %5, align 8, !dbg !1971
  %_3.i = load i32*, i32** %5, align 8, !dbg !1971
  br label %bb11, !dbg !1972

panic4:                                           ; preds = %bb9
; call core::panicking::panic
  call void @_ZN4core9panicking5panic17hf5844c0338bd061cE([0 x i8]* align 1 bitcast ([28 x i8]* @str.7 to [0 x i8]*), i64 28, %"core::panic::location::Location"* align 8 bitcast (<{ i8*, [16 x i8] }>* @alloc388 to %"core::panic::location::Location"*)) #13, !dbg !1964
  unreachable, !dbg !1964

bb11:                                             ; preds = %bb10
  %36 = trunc i64 %_59 to i32, !dbg !1973
  store i32 %36, i32* %_3.i, align 4, !dbg !1973
  ret void, !dbg !1974
}

; Function Attrs: nonlazybind uwtable
define dso_local i32 @rust_red() unnamed_addr #1 !dbg !1975 {
start:
  %bar.dbg.spill = alloca i32, align 4
  store i32 1, i32* %bar.dbg.spill, align 4, !dbg !1983
  call void @llvm.dbg.declare(metadata i32* %bar.dbg.spill, metadata !1981, metadata !DIExpression()), !dbg !1984
  ret i32 1, !dbg !1985
}

; Function Attrs: nonlazybind uwtable
define dso_local void @rust_entry2(i32 %buffer_size, i32* %buffer) unnamed_addr #1 !dbg !1986 {
start:
  %0 = alloca i32*, align 8
  %count.dbg.spill.i16 = alloca i64, align 8
  %self.dbg.spill.i17 = alloca i32*, align 8
  %1 = alloca i32*, align 8
  %count.dbg.spill.i13 = alloca i64, align 8
  %self.dbg.spill.i14 = alloca i32*, align 8
  %2 = alloca i32*, align 8
  %count.dbg.spill.i10 = alloca i64, align 8
  %self.dbg.spill.i11 = alloca i32*, align 8
  %3 = alloca i32*, align 8
  %count.dbg.spill.i7 = alloca i64, align 8
  %self.dbg.spill.i8 = alloca i32*, align 8
  %4 = alloca i32*, align 8
  %count.dbg.spill.i4 = alloca i64, align 8
  %self.dbg.spill.i5 = alloca i32*, align 8
  %5 = alloca i32*, align 8
  %count.dbg.spill.i1 = alloca i64, align 8
  %self.dbg.spill.i2 = alloca i32*, align 8
  %6 = alloca i32*, align 8
  %count.dbg.spill.i = alloca i64, align 8
  %self.dbg.spill.i = alloca i32*, align 8
  %invalid.dbg.spill = alloca i32, align 4
  %c.dbg.spill = alloca i32, align 4
  %b.dbg.spill = alloca i32, align 4
  %buffer.dbg.spill = alloca i32*, align 8
  %buffer_size.dbg.spill = alloca i32, align 4
  store i32 %buffer_size, i32* %buffer_size.dbg.spill, align 4
  call void @llvm.dbg.declare(metadata i32* %buffer_size.dbg.spill, metadata !1988, metadata !DIExpression()), !dbg !1996
  store i32* %buffer, i32** %buffer.dbg.spill, align 8
  call void @llvm.dbg.declare(metadata i32** %buffer.dbg.spill, metadata !1989, metadata !DIExpression()), !dbg !1997
  %_3 = icmp ult i32 %buffer_size, 5, !dbg !1998
  br i1 %_3, label %bb10, label %bb1, !dbg !1998

bb1:                                              ; preds = %start
  %_6 = call i32 @rust_red(), !dbg !1999
  br label %bb2, !dbg !1999

bb10:                                             ; preds = %bb9, %start
  ret void, !dbg !2000

bb2:                                              ; preds = %bb1
  store i32* %buffer, i32** %self.dbg.spill.i17, align 8
  call void @llvm.dbg.declare(metadata i32** %self.dbg.spill.i17, metadata !1652, metadata !DIExpression()), !dbg !2001
  store i64 0, i64* %count.dbg.spill.i16, align 8
  call void @llvm.dbg.declare(metadata i64* %count.dbg.spill.i16, metadata !1655, metadata !DIExpression()), !dbg !2003
  store i32* %buffer, i32** %0, align 8, !dbg !2004
  %_3.i18 = load i32*, i32** %0, align 8, !dbg !2004
  br label %bb3, !dbg !2005

bb3:                                              ; preds = %bb2
  store i32 %_6, i32* %_3.i18, align 4, !dbg !2006
  %_10.0 = load i32, i32* getelementptr inbounds ({ i32, i8 }, { i32, i8 }* bitcast (<{ [5 x i8], [3 x i8] }>* @0 to { i32, i8 }*), i32 0, i32 0), align 4, !dbg !2007
  %7 = load i8, i8* getelementptr inbounds ({ i32, i8 }, { i32, i8 }* bitcast (<{ [5 x i8], [3 x i8] }>* @0 to { i32, i8 }*), i32 0, i32 1), align 4, !dbg !2007, !range !429, !noundef !23
  %_10.1 = trunc i8 %7 to i1, !dbg !2007
  store i32* %buffer, i32** %self.dbg.spill.i14, align 8
  call void @llvm.dbg.declare(metadata i32** %self.dbg.spill.i14, metadata !1652, metadata !DIExpression()), !dbg !2008
  store i64 1, i64* %count.dbg.spill.i13, align 8
  call void @llvm.dbg.declare(metadata i64* %count.dbg.spill.i13, metadata !1655, metadata !DIExpression()), !dbg !2010
  %8 = getelementptr inbounds i32, i32* %buffer, i64 1, !dbg !2011
  store i32* %8, i32** %1, align 8, !dbg !2011
  %_3.i15 = load i32*, i32** %1, align 8, !dbg !2011
  br label %bb4, !dbg !2012

bb4:                                              ; preds = %bb3
  store i32 %_10.0, i32* %_3.i15, align 4, !dbg !2013
  store i32 3, i32* %b.dbg.spill, align 4, !dbg !2014
  call void @llvm.dbg.declare(metadata i32* %b.dbg.spill, metadata !1990, metadata !DIExpression()), !dbg !2015
  store i32* %buffer, i32** %self.dbg.spill.i11, align 8
  call void @llvm.dbg.declare(metadata i32** %self.dbg.spill.i11, metadata !1652, metadata !DIExpression()), !dbg !2016
  store i64 2, i64* %count.dbg.spill.i10, align 8
  call void @llvm.dbg.declare(metadata i64* %count.dbg.spill.i10, metadata !1655, metadata !DIExpression()), !dbg !2018
  %9 = getelementptr inbounds i32, i32* %buffer, i64 2, !dbg !2019
  store i32* %9, i32** %2, align 8, !dbg !2019
  %_3.i12 = load i32*, i32** %2, align 8, !dbg !2019
  br label %bb5, !dbg !2020

bb5:                                              ; preds = %bb4
  store i32 -1, i32* %_3.i12, align 4, !dbg !2021
  store i32* %buffer, i32** %self.dbg.spill.i8, align 8
  call void @llvm.dbg.declare(metadata i32** %self.dbg.spill.i8, metadata !1652, metadata !DIExpression()), !dbg !2022
  store i64 3, i64* %count.dbg.spill.i7, align 8
  call void @llvm.dbg.declare(metadata i64* %count.dbg.spill.i7, metadata !1655, metadata !DIExpression()), !dbg !2024
  %10 = getelementptr inbounds i32, i32* %buffer, i64 3, !dbg !2025
  store i32* %10, i32** %3, align 8, !dbg !2025
  %_3.i9 = load i32*, i32** %3, align 8, !dbg !2025
  br label %bb6, !dbg !2026

bb6:                                              ; preds = %bb5
  store i32 1, i32* %_3.i9, align 4, !dbg !2027
  store i32* %buffer, i32** %self.dbg.spill.i5, align 8
  call void @llvm.dbg.declare(metadata i32** %self.dbg.spill.i5, metadata !1652, metadata !DIExpression()), !dbg !2028
  store i64 4, i64* %count.dbg.spill.i4, align 8
  call void @llvm.dbg.declare(metadata i64* %count.dbg.spill.i4, metadata !1655, metadata !DIExpression()), !dbg !2030
  %11 = getelementptr inbounds i32, i32* %buffer, i64 4, !dbg !2031
  store i32* %11, i32** %4, align 8, !dbg !2031
  %_3.i6 = load i32*, i32** %4, align 8, !dbg !2031
  br label %bb7, !dbg !2032

bb7:                                              ; preds = %bb6
  store i32 -2, i32* %_3.i6, align 4, !dbg !2033
  store i32 1, i32* %c.dbg.spill, align 4, !dbg !2034
  call void @llvm.dbg.declare(metadata i32* %c.dbg.spill, metadata !1992, metadata !DIExpression()), !dbg !2035
  store i32* %buffer, i32** %self.dbg.spill.i2, align 8
  call void @llvm.dbg.declare(metadata i32** %self.dbg.spill.i2, metadata !1652, metadata !DIExpression()), !dbg !2036
  store i64 5, i64* %count.dbg.spill.i1, align 8
  call void @llvm.dbg.declare(metadata i64* %count.dbg.spill.i1, metadata !1655, metadata !DIExpression()), !dbg !2038
  %12 = getelementptr inbounds i32, i32* %buffer, i64 5, !dbg !2039
  store i32* %12, i32** %5, align 8, !dbg !2039
  %_3.i3 = load i32*, i32** %5, align 8, !dbg !2039
  br label %bb8, !dbg !2040

bb8:                                              ; preds = %bb7
  store i32 1, i32* %_3.i3, align 4, !dbg !2041
  store i32 6, i32* %invalid.dbg.spill, align 4, !dbg !2042
  call void @llvm.dbg.declare(metadata i32* %invalid.dbg.spill, metadata !1994, metadata !DIExpression()), !dbg !2043
  store i32* %buffer, i32** %self.dbg.spill.i, align 8
  call void @llvm.dbg.declare(metadata i32** %self.dbg.spill.i, metadata !1652, metadata !DIExpression()), !dbg !2044
  store i64 6, i64* %count.dbg.spill.i, align 8
  call void @llvm.dbg.declare(metadata i64* %count.dbg.spill.i, metadata !1655, metadata !DIExpression()), !dbg !2046
  %13 = getelementptr inbounds i32, i32* %buffer, i64 6, !dbg !2047
  store i32* %13, i32** %6, align 8, !dbg !2047
  %_3.i = load i32*, i32** %6, align 8, !dbg !2047
  br label %bb9, !dbg !2048

bb9:                                              ; preds = %bb8
  store i32 6, i32* %_3.i, align 4, !dbg !2049
  br label %bb10, !dbg !2000
}

; enum_tests::test_enums::test_variants::{{closure}}
; Function Attrs: inlinehint nonlazybind uwtable
define internal void @"_ZN10enum_tests10test_enums13test_variants28_$u7b$$u7b$closure$u7d$$u7d$17h11300242096ffe6dE"(%"[closure@src/test_enums.rs:37:1: 40:2]"* align 1 %_1) unnamed_addr #2 !dbg !2050 {
start:
  %_1.dbg.spill = alloca %"[closure@src/test_enums.rs:37:1: 40:2]"*, align 8
  store %"[closure@src/test_enums.rs:37:1: 40:2]"* %_1, %"[closure@src/test_enums.rs:37:1: 40:2]"** %_1.dbg.spill, align 8
  call void @llvm.dbg.declare(metadata %"[closure@src/test_enums.rs:37:1: 40:2]"** %_1.dbg.spill, metadata !2056, metadata !DIExpression()), !dbg !2057
  call void @test_variants(), !dbg !2057
  br label %bb1, !dbg !2057

bb1:                                              ; preds = %start
; call test::assert_test_result
  call void @_ZN4test18assert_test_result17h36d6b608f628ab05E(), !dbg !2057
  br label %bb2, !dbg !2057

bb2:                                              ; preds = %bb1
  ret void, !dbg !2058
}

; Function Attrs: nonlazybind uwtable
define dso_local void @test_variants() unnamed_addr #1 !dbg !2059 {
start:
  %right_val.dbg.spill4 = alloca i32*, align 8
  %left_val.dbg.spill2 = alloca i32*, align 8
  %right_val.dbg.spill = alloca i32*, align 8
  %left_val.dbg.spill = alloca i32*, align 8
  %_7 = alloca { i32*, i32* }, align 8
  %_1 = alloca { i32*, i32* }, align 8
  %0 = bitcast { i32*, i32* }* %_1 to i32**, !dbg !2076
  store i32* bitcast (<{ [4 x i8] }>* @alloc130 to i32*), i32** %0, align 8, !dbg !2076
  %1 = getelementptr inbounds { i32*, i32* }, { i32*, i32* }* %_1, i32 0, i32 1, !dbg !2076
  store i32* bitcast (<{ [4 x i8] }>* @alloc130 to i32*), i32** %1, align 8, !dbg !2076
  %2 = bitcast { i32*, i32* }* %_1 to i32**, !dbg !2076
  %left_val = load i32*, i32** %2, align 8, !dbg !2076, !nonnull !23, !align !290, !noundef !23
  store i32* %left_val, i32** %left_val.dbg.spill, align 8, !dbg !2076
  call void @llvm.dbg.declare(metadata i32** %left_val.dbg.spill, metadata !2061, metadata !DIExpression()), !dbg !2077
  %3 = getelementptr inbounds { i32*, i32* }, { i32*, i32* }* %_1, i32 0, i32 1, !dbg !2076
  %right_val = load i32*, i32** %3, align 8, !dbg !2076, !nonnull !23, !align !290, !noundef !23
  store i32* %right_val, i32** %right_val.dbg.spill, align 8, !dbg !2076
  call void @llvm.dbg.declare(metadata i32** %right_val.dbg.spill, metadata !2065, metadata !DIExpression()), !dbg !2077
  %4 = bitcast { i32*, i32* }* %_7 to i32**, !dbg !2078
  store i32* bitcast (<{ [4 x i8] }>* @alloc138 to i32*), i32** %4, align 8, !dbg !2078
  %5 = getelementptr inbounds { i32*, i32* }, { i32*, i32* }* %_7, i32 0, i32 1, !dbg !2078
  store i32* bitcast (<{ [4 x i8] }>* @alloc138 to i32*), i32** %5, align 8, !dbg !2078
  %6 = bitcast { i32*, i32* }* %_7 to i32**, !dbg !2078
  %left_val1 = load i32*, i32** %6, align 8, !dbg !2078, !nonnull !23, !align !290, !noundef !23
  store i32* %left_val1, i32** %left_val.dbg.spill2, align 8, !dbg !2078
  call void @llvm.dbg.declare(metadata i32** %left_val.dbg.spill2, metadata !2069, metadata !DIExpression()), !dbg !2079
  %7 = getelementptr inbounds { i32*, i32* }, { i32*, i32* }* %_7, i32 0, i32 1, !dbg !2078
  %right_val3 = load i32*, i32** %7, align 8, !dbg !2078, !nonnull !23, !align !290, !noundef !23
  store i32* %right_val3, i32** %right_val.dbg.spill4, align 8, !dbg !2078
  call void @llvm.dbg.declare(metadata i32** %right_val.dbg.spill4, metadata !2072, metadata !DIExpression()), !dbg !2079
  ret void, !dbg !2080
}

; enum_tests::test_enums::test_buffer::{{closure}}
; Function Attrs: inlinehint nonlazybind uwtable
define internal void @"_ZN10enum_tests10test_enums11test_buffer28_$u7b$$u7b$closure$u7d$$u7d$17h71bd2df299d5dadeE"(%"[closure@src/test_enums.rs:43:1: 55:2]"* align 1 %_1) unnamed_addr #2 !dbg !2081 {
start:
  %_1.dbg.spill = alloca %"[closure@src/test_enums.rs:43:1: 55:2]"*, align 8
  store %"[closure@src/test_enums.rs:43:1: 55:2]"* %_1, %"[closure@src/test_enums.rs:43:1: 55:2]"** %_1.dbg.spill, align 8
  call void @llvm.dbg.declare(metadata %"[closure@src/test_enums.rs:43:1: 55:2]"** %_1.dbg.spill, metadata !2086, metadata !DIExpression()), !dbg !2087
  call void @test_buffer(), !dbg !2087
  br label %bb1, !dbg !2087

bb1:                                              ; preds = %start
; call test::assert_test_result
  call void @_ZN4test18assert_test_result17h36d6b608f628ab05E(), !dbg !2087
  br label %bb2, !dbg !2087

bb2:                                              ; preds = %bb1
  ret void, !dbg !2088
}

; Function Attrs: nonlazybind uwtable
define dso_local void @test_buffer() unnamed_addr #1 !dbg !2089 {
start:
  %right_val.dbg.spill5 = alloca [10 x i32]*, align 8
  %left_val.dbg.spill3 = alloca [10 x i32]*, align 8
  %right_val.dbg.spill = alloca [10 x i32]*, align 8
  %left_val.dbg.spill = alloca [10 x i32]*, align 8
  %_47 = alloca %"core::option::Option<core::fmt::Arguments>", align 8
  %kind1 = alloca i8, align 1
  %_31 = alloca { i32*, i32* }, align 8
  %_30 = alloca %"core::option::Option<core::fmt::Arguments>", align 8
  %kind = alloca i8, align 1
  %_14 = alloca { i32*, i32* }, align 8
  %expected_buffer = alloca [10 x i32], align 4
  %rust_buffer = alloca [10 x i32], align 4
  %buffer = alloca [10 x i32], align 4
  call void @llvm.dbg.declare(metadata [10 x i32]* %buffer, metadata !2091, metadata !DIExpression()), !dbg !2111
  call void @llvm.dbg.declare(metadata [10 x i32]* %rust_buffer, metadata !2093, metadata !DIExpression()), !dbg !2112
  call void @llvm.dbg.declare(metadata [10 x i32]* %expected_buffer, metadata !2095, metadata !DIExpression()), !dbg !2113
  call void @llvm.dbg.declare(metadata i8* %kind, metadata !2101, metadata !DIExpression()), !dbg !2114
  call void @llvm.dbg.declare(metadata i8* %kind1, metadata !2108, metadata !DIExpression()), !dbg !2115
  %0 = getelementptr inbounds [10 x i32], [10 x i32]* %buffer, i64 0, i64 0, !dbg !2116
  %1 = bitcast i32* %0 to i8*, !dbg !2116
  call void @llvm.memset.p0i8.i64(i8* align 4 %1, i8 0, i64 40, i1 false), !dbg !2116
  %2 = getelementptr inbounds [10 x i32], [10 x i32]* %rust_buffer, i64 0, i64 0, !dbg !2117
  %3 = bitcast i32* %2 to i8*, !dbg !2117
  call void @llvm.memset.p0i8.i64(i8* align 4 %3, i8 0, i64 40, i1 false), !dbg !2117
  %4 = getelementptr inbounds [10 x i32], [10 x i32]* %expected_buffer, i64 0, i64 0, !dbg !2118
  store i32 1, i32* %4, align 4, !dbg !2118
  %5 = getelementptr inbounds [10 x i32], [10 x i32]* %expected_buffer, i64 0, i64 1, !dbg !2118
  store i32 1, i32* %5, align 4, !dbg !2118
  %6 = getelementptr inbounds [10 x i32], [10 x i32]* %expected_buffer, i64 0, i64 2, !dbg !2118
  store i32 1, i32* %6, align 4, !dbg !2118
  %7 = getelementptr inbounds [10 x i32], [10 x i32]* %expected_buffer, i64 0, i64 3, !dbg !2118
  store i32 1, i32* %7, align 4, !dbg !2118
  %8 = getelementptr inbounds [10 x i32], [10 x i32]* %expected_buffer, i64 0, i64 4, !dbg !2118
  store i32 1, i32* %8, align 4, !dbg !2118
  %9 = getelementptr inbounds [10 x i32], [10 x i32]* %expected_buffer, i64 0, i64 5, !dbg !2118
  store i32 1, i32* %9, align 4, !dbg !2118
  %10 = getelementptr inbounds [10 x i32], [10 x i32]* %expected_buffer, i64 0, i64 6, !dbg !2118
  store i32 0, i32* %10, align 4, !dbg !2118
  %11 = getelementptr inbounds [10 x i32], [10 x i32]* %expected_buffer, i64 0, i64 7, !dbg !2118
  store i32 0, i32* %11, align 4, !dbg !2118
  %12 = getelementptr inbounds [10 x i32], [10 x i32]* %expected_buffer, i64 0, i64 8, !dbg !2118
  store i32 0, i32* %12, align 4, !dbg !2118
  %13 = getelementptr inbounds [10 x i32], [10 x i32]* %expected_buffer, i64 0, i64 9, !dbg !2118
  store i32 0, i32* %13, align 4, !dbg !2118
  %_7.0 = bitcast [10 x i32]* %buffer to [0 x i32]*, !dbg !2119
; call core::slice::<impl [T]>::as_mut_ptr
  %_6 = call i32* @"_ZN4core5slice29_$LT$impl$u20$$u5b$T$u5d$$GT$10as_mut_ptr17h416cb3eecf921d6fE"([0 x i32]* align 4 %_7.0, i64 10), !dbg !2119
  br label %bb1, !dbg !2119

bb1:                                              ; preds = %start
  call void @entry(i32 10, i32* %_6), !dbg !2120
  br label %bb2, !dbg !2120

bb2:                                              ; preds = %bb1
  %_12.0 = bitcast [10 x i32]* %rust_buffer to [0 x i32]*, !dbg !2121
; call core::slice::<impl [T]>::as_mut_ptr
  %_11 = call i32* @"_ZN4core5slice29_$LT$impl$u20$$u5b$T$u5d$$GT$10as_mut_ptr17h416cb3eecf921d6fE"([0 x i32]* align 4 %_12.0, i64 10), !dbg !2121
  br label %bb3, !dbg !2121

bb3:                                              ; preds = %bb2
  call void @rust_entry(i32 10, i32* %_11), !dbg !2122
  br label %bb4, !dbg !2122

bb4:                                              ; preds = %bb3
  %14 = bitcast { i32*, i32* }* %_14 to [10 x i32]**, !dbg !2123
  store [10 x i32]* %buffer, [10 x i32]** %14, align 8, !dbg !2123
  %15 = getelementptr inbounds { i32*, i32* }, { i32*, i32* }* %_14, i32 0, i32 1, !dbg !2123
  %16 = bitcast i32** %15 to [10 x i32]**, !dbg !2123
  store [10 x i32]* %rust_buffer, [10 x i32]** %16, align 8, !dbg !2123
  %17 = bitcast { i32*, i32* }* %_14 to [10 x i32]**, !dbg !2123
  %left_val = load [10 x i32]*, [10 x i32]** %17, align 8, !dbg !2123, !nonnull !23, !align !290, !noundef !23
  store [10 x i32]* %left_val, [10 x i32]** %left_val.dbg.spill, align 8, !dbg !2123
  call void @llvm.dbg.declare(metadata [10 x i32]** %left_val.dbg.spill, metadata !2097, metadata !DIExpression()), !dbg !2124
  %18 = getelementptr inbounds { i32*, i32* }, { i32*, i32* }* %_14, i32 0, i32 1, !dbg !2123
  %19 = bitcast i32** %18 to [10 x i32]**, !dbg !2123
  %right_val = load [10 x i32]*, [10 x i32]** %19, align 8, !dbg !2123, !nonnull !23, !align !290, !noundef !23
  store [10 x i32]* %right_val, [10 x i32]** %right_val.dbg.spill, align 8, !dbg !2123
  call void @llvm.dbg.declare(metadata [10 x i32]** %right_val.dbg.spill, metadata !2100, metadata !DIExpression()), !dbg !2124
; call core::array::equality::<impl core::cmp::PartialEq<[B; N]> for [A; N]>::eq
  %_20 = call zeroext i1 @"_ZN4core5array8equality103_$LT$impl$u20$core..cmp..PartialEq$LT$$u5b$B$u3b$$u20$N$u5d$$GT$$u20$for$u20$$u5b$A$u3b$$u20$N$u5d$$GT$2eq17hd92c6ff93cabd6daE"([10 x i32]* align 4 %left_val, [10 x i32]* align 4 %right_val), !dbg !2124
  br label %bb5, !dbg !2124

bb5:                                              ; preds = %bb4
  %_19 = xor i1 %_20, true, !dbg !2124
  br i1 %_19, label %bb6, label %bb7, !dbg !2124

bb7:                                              ; preds = %bb5
  %20 = bitcast { i32*, i32* }* %_31 to [10 x i32]**, !dbg !2125
  store [10 x i32]* %buffer, [10 x i32]** %20, align 8, !dbg !2125
  %21 = getelementptr inbounds { i32*, i32* }, { i32*, i32* }* %_31, i32 0, i32 1, !dbg !2125
  %22 = bitcast i32** %21 to [10 x i32]**, !dbg !2125
  store [10 x i32]* %expected_buffer, [10 x i32]** %22, align 8, !dbg !2125
  %23 = bitcast { i32*, i32* }* %_31 to [10 x i32]**, !dbg !2125
  %left_val2 = load [10 x i32]*, [10 x i32]** %23, align 8, !dbg !2125, !nonnull !23, !align !290, !noundef !23
  store [10 x i32]* %left_val2, [10 x i32]** %left_val.dbg.spill3, align 8, !dbg !2125
  call void @llvm.dbg.declare(metadata [10 x i32]** %left_val.dbg.spill3, metadata !2104, metadata !DIExpression()), !dbg !2126
  %24 = getelementptr inbounds { i32*, i32* }, { i32*, i32* }* %_31, i32 0, i32 1, !dbg !2125
  %25 = bitcast i32** %24 to [10 x i32]**, !dbg !2125
  %right_val4 = load [10 x i32]*, [10 x i32]** %25, align 8, !dbg !2125, !nonnull !23, !align !290, !noundef !23
  store [10 x i32]* %right_val4, [10 x i32]** %right_val.dbg.spill5, align 8, !dbg !2125
  call void @llvm.dbg.declare(metadata [10 x i32]** %right_val.dbg.spill5, metadata !2107, metadata !DIExpression()), !dbg !2126
; call core::array::equality::<impl core::cmp::PartialEq<[B; N]> for [A; N]>::eq
  %_37 = call zeroext i1 @"_ZN4core5array8equality103_$LT$impl$u20$core..cmp..PartialEq$LT$$u5b$B$u3b$$u20$N$u5d$$GT$$u20$for$u20$$u5b$A$u3b$$u20$N$u5d$$GT$2eq17hd92c6ff93cabd6daE"([10 x i32]* align 4 %left_val2, [10 x i32]* align 4 %right_val4), !dbg !2126
  br label %bb8, !dbg !2126

bb6:                                              ; preds = %bb5
  store i8 0, i8* %kind, align 1, !dbg !2124
  %26 = bitcast %"core::option::Option<core::fmt::Arguments>"* %_30 to {}**, !dbg !2114
  store {}* null, {}** %26, align 8, !dbg !2114
; call core::panicking::assert_failed
  call void @_ZN4core9panicking13assert_failed17hd6bcfa75e8d58f58E(i8 0, [10 x i32]* align 4 %left_val, [10 x i32]* align 4 %right_val, %"core::option::Option<core::fmt::Arguments>"* %_30, %"core::panic::location::Location"* align 8 bitcast (<{ i8*, [16 x i8] }>* @alloc390 to %"core::panic::location::Location"*)) #13, !dbg !2114
  unreachable, !dbg !2114

bb8:                                              ; preds = %bb7
  %_36 = xor i1 %_37, true, !dbg !2126
  br i1 %_36, label %bb9, label %bb10, !dbg !2126

bb10:                                             ; preds = %bb8
  ret void, !dbg !2127

bb9:                                              ; preds = %bb8
  store i8 0, i8* %kind1, align 1, !dbg !2126
  %27 = bitcast %"core::option::Option<core::fmt::Arguments>"* %_47 to {}**, !dbg !2115
  store {}* null, {}** %27, align 8, !dbg !2115
; call core::panicking::assert_failed
  call void @_ZN4core9panicking13assert_failed17hd6bcfa75e8d58f58E(i8 0, [10 x i32]* align 4 %left_val2, [10 x i32]* align 4 %right_val4, %"core::option::Option<core::fmt::Arguments>"* %_47, %"core::panic::location::Location"* align 8 bitcast (<{ i8*, [16 x i8] }>* @alloc392 to %"core::panic::location::Location"*)) #13, !dbg !2115
  unreachable, !dbg !2115
}

; enum_tests::test_enums::test_buffer2::{{closure}}
; Function Attrs: inlinehint nonlazybind uwtable
define internal void @"_ZN10enum_tests10test_enums12test_buffer228_$u7b$$u7b$closure$u7d$$u7d$17hbd91f3b32fc918fdE"(%"[closure@src/test_enums.rs:58:1: 70:2]"* align 1 %_1) unnamed_addr #2 !dbg !2128 {
start:
  %_1.dbg.spill = alloca %"[closure@src/test_enums.rs:58:1: 70:2]"*, align 8
  store %"[closure@src/test_enums.rs:58:1: 70:2]"* %_1, %"[closure@src/test_enums.rs:58:1: 70:2]"** %_1.dbg.spill, align 8
  call void @llvm.dbg.declare(metadata %"[closure@src/test_enums.rs:58:1: 70:2]"** %_1.dbg.spill, metadata !2133, metadata !DIExpression()), !dbg !2134
  call void @test_buffer2(), !dbg !2134
  br label %bb1, !dbg !2134

bb1:                                              ; preds = %start
; call test::assert_test_result
  call void @_ZN4test18assert_test_result17h36d6b608f628ab05E(), !dbg !2134
  br label %bb2, !dbg !2134

bb2:                                              ; preds = %bb1
  ret void, !dbg !2135
}

; Function Attrs: nonlazybind uwtable
define dso_local void @test_buffer2() unnamed_addr #1 !dbg !2136 {
start:
  %right_val.dbg.spill5 = alloca [7 x i32]*, align 8
  %left_val.dbg.spill3 = alloca [7 x i32]*, align 8
  %right_val.dbg.spill = alloca [7 x i32]*, align 8
  %left_val.dbg.spill = alloca [7 x i32]*, align 8
  %_47 = alloca %"core::option::Option<core::fmt::Arguments>", align 8
  %kind1 = alloca i8, align 1
  %_31 = alloca { i32*, i32* }, align 8
  %_30 = alloca %"core::option::Option<core::fmt::Arguments>", align 8
  %kind = alloca i8, align 1
  %_14 = alloca { i32*, i32* }, align 8
  %expected_buffer = alloca [7 x i32], align 4
  %rust_buffer = alloca [7 x i32], align 4
  %buffer = alloca [7 x i32], align 4
  call void @llvm.dbg.declare(metadata [7 x i32]* %buffer, metadata !2138, metadata !DIExpression()), !dbg !2158
  call void @llvm.dbg.declare(metadata [7 x i32]* %rust_buffer, metadata !2140, metadata !DIExpression()), !dbg !2159
  call void @llvm.dbg.declare(metadata [7 x i32]* %expected_buffer, metadata !2142, metadata !DIExpression()), !dbg !2160
  call void @llvm.dbg.declare(metadata i8* %kind, metadata !2148, metadata !DIExpression()), !dbg !2161
  call void @llvm.dbg.declare(metadata i8* %kind1, metadata !2155, metadata !DIExpression()), !dbg !2162
  %0 = getelementptr inbounds [7 x i32], [7 x i32]* %buffer, i64 0, i64 0, !dbg !2163
  %1 = bitcast i32* %0 to i8*, !dbg !2163
  call void @llvm.memset.p0i8.i64(i8* align 4 %1, i8 0, i64 28, i1 false), !dbg !2163
  %2 = getelementptr inbounds [7 x i32], [7 x i32]* %rust_buffer, i64 0, i64 0, !dbg !2164
  %3 = bitcast i32* %2 to i8*, !dbg !2164
  call void @llvm.memset.p0i8.i64(i8* align 4 %3, i8 0, i64 28, i1 false), !dbg !2164
  %4 = getelementptr inbounds [7 x i32], [7 x i32]* %expected_buffer, i64 0, i64 0, !dbg !2165
  store i32 1, i32* %4, align 4, !dbg !2165
  %5 = getelementptr inbounds [7 x i32], [7 x i32]* %expected_buffer, i64 0, i64 1, !dbg !2165
  store i32 2, i32* %5, align 4, !dbg !2165
  %6 = getelementptr inbounds [7 x i32], [7 x i32]* %expected_buffer, i64 0, i64 2, !dbg !2165
  store i32 -1, i32* %6, align 4, !dbg !2165
  %7 = getelementptr inbounds [7 x i32], [7 x i32]* %expected_buffer, i64 0, i64 3, !dbg !2165
  store i32 1, i32* %7, align 4, !dbg !2165
  %8 = getelementptr inbounds [7 x i32], [7 x i32]* %expected_buffer, i64 0, i64 4, !dbg !2165
  store i32 -2, i32* %8, align 4, !dbg !2165
  %9 = getelementptr inbounds [7 x i32], [7 x i32]* %expected_buffer, i64 0, i64 5, !dbg !2165
  store i32 1, i32* %9, align 4, !dbg !2165
  %10 = getelementptr inbounds [7 x i32], [7 x i32]* %expected_buffer, i64 0, i64 6, !dbg !2165
  store i32 6, i32* %10, align 4, !dbg !2165
  %_7.0 = bitcast [7 x i32]* %buffer to [0 x i32]*, !dbg !2166
; call core::slice::<impl [T]>::as_mut_ptr
  %_6 = call i32* @"_ZN4core5slice29_$LT$impl$u20$$u5b$T$u5d$$GT$10as_mut_ptr17h416cb3eecf921d6fE"([0 x i32]* align 4 %_7.0, i64 7), !dbg !2166
  br label %bb1, !dbg !2166

bb1:                                              ; preds = %start
  call void @entry2(i32 7, i32* %_6), !dbg !2167
  br label %bb2, !dbg !2167

bb2:                                              ; preds = %bb1
  %_12.0 = bitcast [7 x i32]* %rust_buffer to [0 x i32]*, !dbg !2168
; call core::slice::<impl [T]>::as_mut_ptr
  %_11 = call i32* @"_ZN4core5slice29_$LT$impl$u20$$u5b$T$u5d$$GT$10as_mut_ptr17h416cb3eecf921d6fE"([0 x i32]* align 4 %_12.0, i64 7), !dbg !2168
  br label %bb3, !dbg !2168

bb3:                                              ; preds = %bb2
  call void @rust_entry2(i32 7, i32* %_11), !dbg !2169
  br label %bb4, !dbg !2169

bb4:                                              ; preds = %bb3
  %11 = bitcast { i32*, i32* }* %_14 to [7 x i32]**, !dbg !2170
  store [7 x i32]* %buffer, [7 x i32]** %11, align 8, !dbg !2170
  %12 = getelementptr inbounds { i32*, i32* }, { i32*, i32* }* %_14, i32 0, i32 1, !dbg !2170
  %13 = bitcast i32** %12 to [7 x i32]**, !dbg !2170
  store [7 x i32]* %rust_buffer, [7 x i32]** %13, align 8, !dbg !2170
  %14 = bitcast { i32*, i32* }* %_14 to [7 x i32]**, !dbg !2170
  %left_val = load [7 x i32]*, [7 x i32]** %14, align 8, !dbg !2170, !nonnull !23, !align !290, !noundef !23
  store [7 x i32]* %left_val, [7 x i32]** %left_val.dbg.spill, align 8, !dbg !2170
  call void @llvm.dbg.declare(metadata [7 x i32]** %left_val.dbg.spill, metadata !2144, metadata !DIExpression()), !dbg !2171
  %15 = getelementptr inbounds { i32*, i32* }, { i32*, i32* }* %_14, i32 0, i32 1, !dbg !2170
  %16 = bitcast i32** %15 to [7 x i32]**, !dbg !2170
  %right_val = load [7 x i32]*, [7 x i32]** %16, align 8, !dbg !2170, !nonnull !23, !align !290, !noundef !23
  store [7 x i32]* %right_val, [7 x i32]** %right_val.dbg.spill, align 8, !dbg !2170
  call void @llvm.dbg.declare(metadata [7 x i32]** %right_val.dbg.spill, metadata !2147, metadata !DIExpression()), !dbg !2171
; call core::array::equality::<impl core::cmp::PartialEq<[B; N]> for [A; N]>::eq
  %_20 = call zeroext i1 @"_ZN4core5array8equality103_$LT$impl$u20$core..cmp..PartialEq$LT$$u5b$B$u3b$$u20$N$u5d$$GT$$u20$for$u20$$u5b$A$u3b$$u20$N$u5d$$GT$2eq17h78f399bd261d3bafE"([7 x i32]* align 4 %left_val, [7 x i32]* align 4 %right_val), !dbg !2171
  br label %bb5, !dbg !2171

bb5:                                              ; preds = %bb4
  %_19 = xor i1 %_20, true, !dbg !2171
  br i1 %_19, label %bb6, label %bb7, !dbg !2171

bb7:                                              ; preds = %bb5
  %17 = bitcast { i32*, i32* }* %_31 to [7 x i32]**, !dbg !2172
  store [7 x i32]* %buffer, [7 x i32]** %17, align 8, !dbg !2172
  %18 = getelementptr inbounds { i32*, i32* }, { i32*, i32* }* %_31, i32 0, i32 1, !dbg !2172
  %19 = bitcast i32** %18 to [7 x i32]**, !dbg !2172
  store [7 x i32]* %expected_buffer, [7 x i32]** %19, align 8, !dbg !2172
  %20 = bitcast { i32*, i32* }* %_31 to [7 x i32]**, !dbg !2172
  %left_val2 = load [7 x i32]*, [7 x i32]** %20, align 8, !dbg !2172, !nonnull !23, !align !290, !noundef !23
  store [7 x i32]* %left_val2, [7 x i32]** %left_val.dbg.spill3, align 8, !dbg !2172
  call void @llvm.dbg.declare(metadata [7 x i32]** %left_val.dbg.spill3, metadata !2151, metadata !DIExpression()), !dbg !2173
  %21 = getelementptr inbounds { i32*, i32* }, { i32*, i32* }* %_31, i32 0, i32 1, !dbg !2172
  %22 = bitcast i32** %21 to [7 x i32]**, !dbg !2172
  %right_val4 = load [7 x i32]*, [7 x i32]** %22, align 8, !dbg !2172, !nonnull !23, !align !290, !noundef !23
  store [7 x i32]* %right_val4, [7 x i32]** %right_val.dbg.spill5, align 8, !dbg !2172
  call void @llvm.dbg.declare(metadata [7 x i32]** %right_val.dbg.spill5, metadata !2154, metadata !DIExpression()), !dbg !2173
; call core::array::equality::<impl core::cmp::PartialEq<[B; N]> for [A; N]>::eq
  %_37 = call zeroext i1 @"_ZN4core5array8equality103_$LT$impl$u20$core..cmp..PartialEq$LT$$u5b$B$u3b$$u20$N$u5d$$GT$$u20$for$u20$$u5b$A$u3b$$u20$N$u5d$$GT$2eq17h78f399bd261d3bafE"([7 x i32]* align 4 %left_val2, [7 x i32]* align 4 %right_val4), !dbg !2173
  br label %bb8, !dbg !2173

bb6:                                              ; preds = %bb5
  store i8 0, i8* %kind, align 1, !dbg !2171
  %23 = bitcast %"core::option::Option<core::fmt::Arguments>"* %_30 to {}**, !dbg !2161
  store {}* null, {}** %23, align 8, !dbg !2161
; call core::panicking::assert_failed
  call void @_ZN4core9panicking13assert_failed17he1b433af707fbde0E(i8 0, [7 x i32]* align 4 %left_val, [7 x i32]* align 4 %right_val, %"core::option::Option<core::fmt::Arguments>"* %_30, %"core::panic::location::Location"* align 8 bitcast (<{ i8*, [16 x i8] }>* @alloc394 to %"core::panic::location::Location"*)) #13, !dbg !2161
  unreachable, !dbg !2161

bb8:                                              ; preds = %bb7
  %_36 = xor i1 %_37, true, !dbg !2173
  br i1 %_36, label %bb9, label %bb10, !dbg !2173

bb10:                                             ; preds = %bb8
  ret void, !dbg !2174

bb9:                                              ; preds = %bb8
  store i8 0, i8* %kind1, align 1, !dbg !2173
  %24 = bitcast %"core::option::Option<core::fmt::Arguments>"* %_47 to {}**, !dbg !2162
  store {}* null, {}** %24, align 8, !dbg !2162
; call core::panicking::assert_failed
  call void @_ZN4core9panicking13assert_failed17he1b433af707fbde0E(i8 0, [7 x i32]* align 4 %left_val2, [7 x i32]* align 4 %right_val4, %"core::option::Option<core::fmt::Arguments>"* %_47, %"core::panic::location::Location"* align 8 bitcast (<{ i8*, [16 x i8] }>* @alloc396 to %"core::panic::location::Location"*)) #13, !dbg !2162
  unreachable, !dbg !2162
}

; enum_tests::test_enums::test_buffer3::{{closure}}
; Function Attrs: inlinehint nonlazybind uwtable
define internal void @"_ZN10enum_tests10test_enums12test_buffer328_$u7b$$u7b$closure$u7d$$u7d$17h0f51a7e0d9eae8faE"(%"[closure@src/test_enums.rs:73:1: 85:2]"* align 1 %_1) unnamed_addr #2 !dbg !2175 {
start:
  %_1.dbg.spill = alloca %"[closure@src/test_enums.rs:73:1: 85:2]"*, align 8
  store %"[closure@src/test_enums.rs:73:1: 85:2]"* %_1, %"[closure@src/test_enums.rs:73:1: 85:2]"** %_1.dbg.spill, align 8
  call void @llvm.dbg.declare(metadata %"[closure@src/test_enums.rs:73:1: 85:2]"** %_1.dbg.spill, metadata !2180, metadata !DIExpression()), !dbg !2181
  call void @test_buffer3(), !dbg !2181
  br label %bb1, !dbg !2181

bb1:                                              ; preds = %start
; call test::assert_test_result
  call void @_ZN4test18assert_test_result17h36d6b608f628ab05E(), !dbg !2181
  br label %bb2, !dbg !2181

bb2:                                              ; preds = %bb1
  ret void, !dbg !2182
}

; Function Attrs: nonlazybind uwtable
define dso_local void @test_buffer3() unnamed_addr #1 !dbg !2183 {
start:
  %right_val.dbg.spill5 = alloca [4 x i32]*, align 8
  %left_val.dbg.spill3 = alloca [4 x i32]*, align 8
  %right_val.dbg.spill = alloca [4 x i32]*, align 8
  %left_val.dbg.spill = alloca [4 x i32]*, align 8
  %_47 = alloca %"core::option::Option<core::fmt::Arguments>", align 8
  %kind1 = alloca i8, align 1
  %_31 = alloca { i32*, i32* }, align 8
  %_30 = alloca %"core::option::Option<core::fmt::Arguments>", align 8
  %kind = alloca i8, align 1
  %_14 = alloca { i32*, i32* }, align 8
  %expected_buffer = alloca [4 x i32], align 4
  %rust_buffer = alloca [4 x i32], align 4
  %buffer = alloca [4 x i32], align 4
  call void @llvm.dbg.declare(metadata [4 x i32]* %buffer, metadata !2185, metadata !DIExpression()), !dbg !2205
  call void @llvm.dbg.declare(metadata [4 x i32]* %rust_buffer, metadata !2187, metadata !DIExpression()), !dbg !2206
  call void @llvm.dbg.declare(metadata [4 x i32]* %expected_buffer, metadata !2189, metadata !DIExpression()), !dbg !2207
  call void @llvm.dbg.declare(metadata i8* %kind, metadata !2195, metadata !DIExpression()), !dbg !2208
  call void @llvm.dbg.declare(metadata i8* %kind1, metadata !2202, metadata !DIExpression()), !dbg !2209
  %0 = getelementptr inbounds [4 x i32], [4 x i32]* %buffer, i64 0, i64 0, !dbg !2210
  %1 = bitcast i32* %0 to i8*, !dbg !2210
  call void @llvm.memset.p0i8.i64(i8* align 4 %1, i8 0, i64 16, i1 false), !dbg !2210
  %2 = getelementptr inbounds [4 x i32], [4 x i32]* %rust_buffer, i64 0, i64 0, !dbg !2211
  %3 = bitcast i32* %2 to i8*, !dbg !2211
  call void @llvm.memset.p0i8.i64(i8* align 4 %3, i8 0, i64 16, i1 false), !dbg !2211
  %4 = getelementptr inbounds [4 x i32], [4 x i32]* %expected_buffer, i64 0, i64 0, !dbg !2212
  store i32 0, i32* %4, align 4, !dbg !2212
  %5 = getelementptr inbounds [4 x i32], [4 x i32]* %expected_buffer, i64 0, i64 1, !dbg !2212
  store i32 0, i32* %5, align 4, !dbg !2212
  %6 = getelementptr inbounds [4 x i32], [4 x i32]* %expected_buffer, i64 0, i64 2, !dbg !2212
  store i32 -10, i32* %6, align 4, !dbg !2212
  %7 = getelementptr inbounds [4 x i32], [4 x i32]* %expected_buffer, i64 0, i64 3, !dbg !2212
  store i32 -9, i32* %7, align 4, !dbg !2212
  %_7.0 = bitcast [4 x i32]* %buffer to [0 x i32]*, !dbg !2213
; call core::slice::<impl [T]>::as_mut_ptr
  %_6 = call i32* @"_ZN4core5slice29_$LT$impl$u20$$u5b$T$u5d$$GT$10as_mut_ptr17h416cb3eecf921d6fE"([0 x i32]* align 4 %_7.0, i64 4), !dbg !2213
  br label %bb1, !dbg !2213

bb1:                                              ; preds = %start
  call void @entry3(i32 4, i32* %_6), !dbg !2214
  br label %bb2, !dbg !2214

bb2:                                              ; preds = %bb1
  %_12.0 = bitcast [4 x i32]* %rust_buffer to [0 x i32]*, !dbg !2215
; call core::slice::<impl [T]>::as_mut_ptr
  %_11 = call i32* @"_ZN4core5slice29_$LT$impl$u20$$u5b$T$u5d$$GT$10as_mut_ptr17h416cb3eecf921d6fE"([0 x i32]* align 4 %_12.0, i64 4), !dbg !2215
  br label %bb3, !dbg !2215

bb3:                                              ; preds = %bb2
  call void @rust_entry3(i32 4, i32* %_11), !dbg !2216
  br label %bb4, !dbg !2216

bb4:                                              ; preds = %bb3
  %8 = bitcast { i32*, i32* }* %_14 to [4 x i32]**, !dbg !2217
  store [4 x i32]* %buffer, [4 x i32]** %8, align 8, !dbg !2217
  %9 = getelementptr inbounds { i32*, i32* }, { i32*, i32* }* %_14, i32 0, i32 1, !dbg !2217
  %10 = bitcast i32** %9 to [4 x i32]**, !dbg !2217
  store [4 x i32]* %rust_buffer, [4 x i32]** %10, align 8, !dbg !2217
  %11 = bitcast { i32*, i32* }* %_14 to [4 x i32]**, !dbg !2217
  %left_val = load [4 x i32]*, [4 x i32]** %11, align 8, !dbg !2217, !nonnull !23, !align !290, !noundef !23
  store [4 x i32]* %left_val, [4 x i32]** %left_val.dbg.spill, align 8, !dbg !2217
  call void @llvm.dbg.declare(metadata [4 x i32]** %left_val.dbg.spill, metadata !2191, metadata !DIExpression()), !dbg !2218
  %12 = getelementptr inbounds { i32*, i32* }, { i32*, i32* }* %_14, i32 0, i32 1, !dbg !2217
  %13 = bitcast i32** %12 to [4 x i32]**, !dbg !2217
  %right_val = load [4 x i32]*, [4 x i32]** %13, align 8, !dbg !2217, !nonnull !23, !align !290, !noundef !23
  store [4 x i32]* %right_val, [4 x i32]** %right_val.dbg.spill, align 8, !dbg !2217
  call void @llvm.dbg.declare(metadata [4 x i32]** %right_val.dbg.spill, metadata !2194, metadata !DIExpression()), !dbg !2218
; call core::array::equality::<impl core::cmp::PartialEq<[B; N]> for [A; N]>::eq
  %_20 = call zeroext i1 @"_ZN4core5array8equality103_$LT$impl$u20$core..cmp..PartialEq$LT$$u5b$B$u3b$$u20$N$u5d$$GT$$u20$for$u20$$u5b$A$u3b$$u20$N$u5d$$GT$2eq17he96d361e685ffc6fE"([4 x i32]* align 4 %left_val, [4 x i32]* align 4 %right_val), !dbg !2218
  br label %bb5, !dbg !2218

bb5:                                              ; preds = %bb4
  %_19 = xor i1 %_20, true, !dbg !2218
  br i1 %_19, label %bb6, label %bb7, !dbg !2218

bb7:                                              ; preds = %bb5
  %14 = bitcast { i32*, i32* }* %_31 to [4 x i32]**, !dbg !2219
  store [4 x i32]* %buffer, [4 x i32]** %14, align 8, !dbg !2219
  %15 = getelementptr inbounds { i32*, i32* }, { i32*, i32* }* %_31, i32 0, i32 1, !dbg !2219
  %16 = bitcast i32** %15 to [4 x i32]**, !dbg !2219
  store [4 x i32]* %expected_buffer, [4 x i32]** %16, align 8, !dbg !2219
  %17 = bitcast { i32*, i32* }* %_31 to [4 x i32]**, !dbg !2219
  %left_val2 = load [4 x i32]*, [4 x i32]** %17, align 8, !dbg !2219, !nonnull !23, !align !290, !noundef !23
  store [4 x i32]* %left_val2, [4 x i32]** %left_val.dbg.spill3, align 8, !dbg !2219
  call void @llvm.dbg.declare(metadata [4 x i32]** %left_val.dbg.spill3, metadata !2198, metadata !DIExpression()), !dbg !2220
  %18 = getelementptr inbounds { i32*, i32* }, { i32*, i32* }* %_31, i32 0, i32 1, !dbg !2219
  %19 = bitcast i32** %18 to [4 x i32]**, !dbg !2219
  %right_val4 = load [4 x i32]*, [4 x i32]** %19, align 8, !dbg !2219, !nonnull !23, !align !290, !noundef !23
  store [4 x i32]* %right_val4, [4 x i32]** %right_val.dbg.spill5, align 8, !dbg !2219
  call void @llvm.dbg.declare(metadata [4 x i32]** %right_val.dbg.spill5, metadata !2201, metadata !DIExpression()), !dbg !2220
; call core::array::equality::<impl core::cmp::PartialEq<[B; N]> for [A; N]>::eq
  %_37 = call zeroext i1 @"_ZN4core5array8equality103_$LT$impl$u20$core..cmp..PartialEq$LT$$u5b$B$u3b$$u20$N$u5d$$GT$$u20$for$u20$$u5b$A$u3b$$u20$N$u5d$$GT$2eq17he96d361e685ffc6fE"([4 x i32]* align 4 %left_val2, [4 x i32]* align 4 %right_val4), !dbg !2220
  br label %bb8, !dbg !2220

bb6:                                              ; preds = %bb5
  store i8 0, i8* %kind, align 1, !dbg !2218
  %20 = bitcast %"core::option::Option<core::fmt::Arguments>"* %_30 to {}**, !dbg !2208
  store {}* null, {}** %20, align 8, !dbg !2208
; call core::panicking::assert_failed
  call void @_ZN4core9panicking13assert_failed17h290f6533f51e806aE(i8 0, [4 x i32]* align 4 %left_val, [4 x i32]* align 4 %right_val, %"core::option::Option<core::fmt::Arguments>"* %_30, %"core::panic::location::Location"* align 8 bitcast (<{ i8*, [16 x i8] }>* @alloc398 to %"core::panic::location::Location"*)) #13, !dbg !2208
  unreachable, !dbg !2208

bb8:                                              ; preds = %bb7
  %_36 = xor i1 %_37, true, !dbg !2220
  br i1 %_36, label %bb9, label %bb10, !dbg !2220

bb10:                                             ; preds = %bb8
  ret void, !dbg !2221

bb9:                                              ; preds = %bb8
  store i8 0, i8* %kind1, align 1, !dbg !2220
  %21 = bitcast %"core::option::Option<core::fmt::Arguments>"* %_47 to {}**, !dbg !2209
  store {}* null, {}** %21, align 8, !dbg !2209
; call core::panicking::assert_failed
  call void @_ZN4core9panicking13assert_failed17h290f6533f51e806aE(i8 0, [4 x i32]* align 4 %left_val2, [4 x i32]* align 4 %right_val4, %"core::option::Option<core::fmt::Arguments>"* %_47, %"core::panic::location::Location"* align 8 bitcast (<{ i8*, [16 x i8] }>* @alloc400 to %"core::panic::location::Location"*)) #13, !dbg !2209
  unreachable, !dbg !2209
}

; enum_tests::test_enums::test_buffer4::{{closure}}
; Function Attrs: inlinehint nonlazybind uwtable
define internal void @"_ZN10enum_tests10test_enums12test_buffer428_$u7b$$u7b$closure$u7d$$u7d$17ha9d76ae77fe760f7E"(%"[closure@src/test_enums.rs:88:1: 100:2]"* align 1 %_1) unnamed_addr #2 !dbg !2222 {
start:
  %_1.dbg.spill = alloca %"[closure@src/test_enums.rs:88:1: 100:2]"*, align 8
  store %"[closure@src/test_enums.rs:88:1: 100:2]"* %_1, %"[closure@src/test_enums.rs:88:1: 100:2]"** %_1.dbg.spill, align 8
  call void @llvm.dbg.declare(metadata %"[closure@src/test_enums.rs:88:1: 100:2]"** %_1.dbg.spill, metadata !2227, metadata !DIExpression()), !dbg !2228
  call void @test_buffer4(), !dbg !2228
  br label %bb1, !dbg !2228

bb1:                                              ; preds = %start
; call test::assert_test_result
  call void @_ZN4test18assert_test_result17h36d6b608f628ab05E(), !dbg !2228
  br label %bb2, !dbg !2228

bb2:                                              ; preds = %bb1
  ret void, !dbg !2229
}

; Function Attrs: nonlazybind uwtable
define dso_local void @test_buffer4() unnamed_addr #1 !dbg !2230 {
start:
  %right_val.dbg.spill5 = alloca [1 x i32]*, align 8
  %left_val.dbg.spill3 = alloca [1 x i32]*, align 8
  %right_val.dbg.spill = alloca [1 x i32]*, align 8
  %left_val.dbg.spill = alloca [1 x i32]*, align 8
  %_47 = alloca %"core::option::Option<core::fmt::Arguments>", align 8
  %kind1 = alloca i8, align 1
  %_31 = alloca { i32*, i32* }, align 8
  %_30 = alloca %"core::option::Option<core::fmt::Arguments>", align 8
  %kind = alloca i8, align 1
  %_14 = alloca { i32*, i32* }, align 8
  %expected_buffer = alloca [1 x i32], align 4
  %rust_buffer = alloca [1 x i32], align 4
  %buffer = alloca [1 x i32], align 4
  call void @llvm.dbg.declare(metadata [1 x i32]* %buffer, metadata !2232, metadata !DIExpression()), !dbg !2252
  call void @llvm.dbg.declare(metadata [1 x i32]* %rust_buffer, metadata !2234, metadata !DIExpression()), !dbg !2253
  call void @llvm.dbg.declare(metadata [1 x i32]* %expected_buffer, metadata !2236, metadata !DIExpression()), !dbg !2254
  call void @llvm.dbg.declare(metadata i8* %kind, metadata !2242, metadata !DIExpression()), !dbg !2255
  call void @llvm.dbg.declare(metadata i8* %kind1, metadata !2249, metadata !DIExpression()), !dbg !2256
  %0 = getelementptr inbounds [1 x i32], [1 x i32]* %buffer, i64 0, i64 0, !dbg !2257
  %1 = bitcast i32* %0 to i8*, !dbg !2257
  call void @llvm.memset.p0i8.i64(i8* align 4 %1, i8 0, i64 4, i1 false), !dbg !2257
  %2 = getelementptr inbounds [1 x i32], [1 x i32]* %rust_buffer, i64 0, i64 0, !dbg !2258
  %3 = bitcast i32* %2 to i8*, !dbg !2258
  call void @llvm.memset.p0i8.i64(i8* align 4 %3, i8 0, i64 4, i1 false), !dbg !2258
  %4 = getelementptr inbounds [1 x i32], [1 x i32]* %expected_buffer, i64 0, i64 0, !dbg !2259
  store i32 1, i32* %4, align 4, !dbg !2259
  %_7.0 = bitcast [1 x i32]* %buffer to [0 x i32]*, !dbg !2260
; call core::slice::<impl [T]>::as_mut_ptr
  %_6 = call i32* @"_ZN4core5slice29_$LT$impl$u20$$u5b$T$u5d$$GT$10as_mut_ptr17h416cb3eecf921d6fE"([0 x i32]* align 4 %_7.0, i64 1), !dbg !2260
  br label %bb1, !dbg !2260

bb1:                                              ; preds = %start
  call void @entry4(i32 1, i32* %_6), !dbg !2261
  br label %bb2, !dbg !2261

bb2:                                              ; preds = %bb1
  %_12.0 = bitcast [1 x i32]* %rust_buffer to [0 x i32]*, !dbg !2262
; call core::slice::<impl [T]>::as_mut_ptr
  %_11 = call i32* @"_ZN4core5slice29_$LT$impl$u20$$u5b$T$u5d$$GT$10as_mut_ptr17h416cb3eecf921d6fE"([0 x i32]* align 4 %_12.0, i64 1), !dbg !2262
  br label %bb3, !dbg !2262

bb3:                                              ; preds = %bb2
  call void @rust_entry4(i32 1, i32* %_11), !dbg !2263
  br label %bb4, !dbg !2263

bb4:                                              ; preds = %bb3
  %5 = bitcast { i32*, i32* }* %_14 to [1 x i32]**, !dbg !2264
  store [1 x i32]* %buffer, [1 x i32]** %5, align 8, !dbg !2264
  %6 = getelementptr inbounds { i32*, i32* }, { i32*, i32* }* %_14, i32 0, i32 1, !dbg !2264
  %7 = bitcast i32** %6 to [1 x i32]**, !dbg !2264
  store [1 x i32]* %rust_buffer, [1 x i32]** %7, align 8, !dbg !2264
  %8 = bitcast { i32*, i32* }* %_14 to [1 x i32]**, !dbg !2264
  %left_val = load [1 x i32]*, [1 x i32]** %8, align 8, !dbg !2264, !nonnull !23, !align !290, !noundef !23
  store [1 x i32]* %left_val, [1 x i32]** %left_val.dbg.spill, align 8, !dbg !2264
  call void @llvm.dbg.declare(metadata [1 x i32]** %left_val.dbg.spill, metadata !2238, metadata !DIExpression()), !dbg !2265
  %9 = getelementptr inbounds { i32*, i32* }, { i32*, i32* }* %_14, i32 0, i32 1, !dbg !2264
  %10 = bitcast i32** %9 to [1 x i32]**, !dbg !2264
  %right_val = load [1 x i32]*, [1 x i32]** %10, align 8, !dbg !2264, !nonnull !23, !align !290, !noundef !23
  store [1 x i32]* %right_val, [1 x i32]** %right_val.dbg.spill, align 8, !dbg !2264
  call void @llvm.dbg.declare(metadata [1 x i32]** %right_val.dbg.spill, metadata !2241, metadata !DIExpression()), !dbg !2265
; call core::array::equality::<impl core::cmp::PartialEq<[B; N]> for [A; N]>::eq
  %_20 = call zeroext i1 @"_ZN4core5array8equality103_$LT$impl$u20$core..cmp..PartialEq$LT$$u5b$B$u3b$$u20$N$u5d$$GT$$u20$for$u20$$u5b$A$u3b$$u20$N$u5d$$GT$2eq17hd3a423a48c324e28E"([1 x i32]* align 4 %left_val, [1 x i32]* align 4 %right_val), !dbg !2265
  br label %bb5, !dbg !2265

bb5:                                              ; preds = %bb4
  %_19 = xor i1 %_20, true, !dbg !2265
  br i1 %_19, label %bb6, label %bb7, !dbg !2265

bb7:                                              ; preds = %bb5
  %11 = bitcast { i32*, i32* }* %_31 to [1 x i32]**, !dbg !2266
  store [1 x i32]* %buffer, [1 x i32]** %11, align 8, !dbg !2266
  %12 = getelementptr inbounds { i32*, i32* }, { i32*, i32* }* %_31, i32 0, i32 1, !dbg !2266
  %13 = bitcast i32** %12 to [1 x i32]**, !dbg !2266
  store [1 x i32]* %expected_buffer, [1 x i32]** %13, align 8, !dbg !2266
  %14 = bitcast { i32*, i32* }* %_31 to [1 x i32]**, !dbg !2266
  %left_val2 = load [1 x i32]*, [1 x i32]** %14, align 8, !dbg !2266, !nonnull !23, !align !290, !noundef !23
  store [1 x i32]* %left_val2, [1 x i32]** %left_val.dbg.spill3, align 8, !dbg !2266
  call void @llvm.dbg.declare(metadata [1 x i32]** %left_val.dbg.spill3, metadata !2245, metadata !DIExpression()), !dbg !2267
  %15 = getelementptr inbounds { i32*, i32* }, { i32*, i32* }* %_31, i32 0, i32 1, !dbg !2266
  %16 = bitcast i32** %15 to [1 x i32]**, !dbg !2266
  %right_val4 = load [1 x i32]*, [1 x i32]** %16, align 8, !dbg !2266, !nonnull !23, !align !290, !noundef !23
  store [1 x i32]* %right_val4, [1 x i32]** %right_val.dbg.spill5, align 8, !dbg !2266
  call void @llvm.dbg.declare(metadata [1 x i32]** %right_val.dbg.spill5, metadata !2248, metadata !DIExpression()), !dbg !2267
; call core::array::equality::<impl core::cmp::PartialEq<[B; N]> for [A; N]>::eq
  %_37 = call zeroext i1 @"_ZN4core5array8equality103_$LT$impl$u20$core..cmp..PartialEq$LT$$u5b$B$u3b$$u20$N$u5d$$GT$$u20$for$u20$$u5b$A$u3b$$u20$N$u5d$$GT$2eq17hd3a423a48c324e28E"([1 x i32]* align 4 %left_val2, [1 x i32]* align 4 %right_val4), !dbg !2267
  br label %bb8, !dbg !2267

bb6:                                              ; preds = %bb5
  store i8 0, i8* %kind, align 1, !dbg !2265
  %17 = bitcast %"core::option::Option<core::fmt::Arguments>"* %_30 to {}**, !dbg !2255
  store {}* null, {}** %17, align 8, !dbg !2255
; call core::panicking::assert_failed
  call void @_ZN4core9panicking13assert_failed17h1bf3365e23cea01eE(i8 0, [1 x i32]* align 4 %left_val, [1 x i32]* align 4 %right_val, %"core::option::Option<core::fmt::Arguments>"* %_30, %"core::panic::location::Location"* align 8 bitcast (<{ i8*, [16 x i8] }>* @alloc402 to %"core::panic::location::Location"*)) #13, !dbg !2255
  unreachable, !dbg !2255

bb8:                                              ; preds = %bb7
  %_36 = xor i1 %_37, true, !dbg !2267
  br i1 %_36, label %bb9, label %bb10, !dbg !2267

bb10:                                             ; preds = %bb8
  ret void, !dbg !2268

bb9:                                              ; preds = %bb8
  store i8 0, i8* %kind1, align 1, !dbg !2267
  %18 = bitcast %"core::option::Option<core::fmt::Arguments>"* %_47 to {}**, !dbg !2256
  store {}* null, {}** %18, align 8, !dbg !2256
; call core::panicking::assert_failed
  call void @_ZN4core9panicking13assert_failed17h1bf3365e23cea01eE(i8 0, [1 x i32]* align 4 %left_val2, [1 x i32]* align 4 %right_val4, %"core::option::Option<core::fmt::Arguments>"* %_47, %"core::panic::location::Location"* align 8 bitcast (<{ i8*, [16 x i8] }>* @alloc404 to %"core::panic::location::Location"*)) #13, !dbg !2256
  unreachable, !dbg !2256
}

; enum_tests::test_enums::test_buffer5::{{closure}}
; Function Attrs: inlinehint nonlazybind uwtable
define internal void @"_ZN10enum_tests10test_enums12test_buffer528_$u7b$$u7b$closure$u7d$$u7d$17hf82afaa7711a31a3E"(%"[closure@src/test_enums.rs:103:1: 115:2]"* align 1 %_1) unnamed_addr #2 !dbg !2269 {
start:
  %_1.dbg.spill = alloca %"[closure@src/test_enums.rs:103:1: 115:2]"*, align 8
  store %"[closure@src/test_enums.rs:103:1: 115:2]"* %_1, %"[closure@src/test_enums.rs:103:1: 115:2]"** %_1.dbg.spill, align 8
  call void @llvm.dbg.declare(metadata %"[closure@src/test_enums.rs:103:1: 115:2]"** %_1.dbg.spill, metadata !2274, metadata !DIExpression()), !dbg !2275
  call void @test_buffer5(), !dbg !2275
  br label %bb1, !dbg !2275

bb1:                                              ; preds = %start
; call test::assert_test_result
  call void @_ZN4test18assert_test_result17h36d6b608f628ab05E(), !dbg !2275
  br label %bb2, !dbg !2275

bb2:                                              ; preds = %bb1
  ret void, !dbg !2276
}

; Function Attrs: nonlazybind uwtable
define dso_local void @test_buffer5() unnamed_addr #1 !dbg !2277 {
start:
  %right_val.dbg.spill5 = alloca [6 x i32]*, align 8
  %left_val.dbg.spill3 = alloca [6 x i32]*, align 8
  %right_val.dbg.spill = alloca [6 x i32]*, align 8
  %left_val.dbg.spill = alloca [6 x i32]*, align 8
  %_47 = alloca %"core::option::Option<core::fmt::Arguments>", align 8
  %kind1 = alloca i8, align 1
  %_31 = alloca { i32*, i32* }, align 8
  %_30 = alloca %"core::option::Option<core::fmt::Arguments>", align 8
  %kind = alloca i8, align 1
  %_14 = alloca { i32*, i32* }, align 8
  %expected_buffer = alloca [6 x i32], align 4
  %rust_buffer = alloca [6 x i32], align 4
  %buffer = alloca [6 x i32], align 4
  call void @llvm.dbg.declare(metadata [6 x i32]* %buffer, metadata !2279, metadata !DIExpression()), !dbg !2299
  call void @llvm.dbg.declare(metadata [6 x i32]* %rust_buffer, metadata !2281, metadata !DIExpression()), !dbg !2300
  call void @llvm.dbg.declare(metadata [6 x i32]* %expected_buffer, metadata !2283, metadata !DIExpression()), !dbg !2301
  call void @llvm.dbg.declare(metadata i8* %kind, metadata !2289, metadata !DIExpression()), !dbg !2302
  call void @llvm.dbg.declare(metadata i8* %kind1, metadata !2296, metadata !DIExpression()), !dbg !2303
  %0 = getelementptr inbounds [6 x i32], [6 x i32]* %buffer, i64 0, i64 0, !dbg !2304
  %1 = bitcast i32* %0 to i8*, !dbg !2304
  call void @llvm.memset.p0i8.i64(i8* align 4 %1, i8 0, i64 24, i1 false), !dbg !2304
  %2 = getelementptr inbounds [6 x i32], [6 x i32]* %rust_buffer, i64 0, i64 0, !dbg !2305
  %3 = bitcast i32* %2 to i8*, !dbg !2305
  call void @llvm.memset.p0i8.i64(i8* align 4 %3, i8 0, i64 24, i1 false), !dbg !2305
  %4 = getelementptr inbounds [6 x i32], [6 x i32]* %expected_buffer, i64 0, i64 0, !dbg !2306
  store i32 1, i32* %4, align 4, !dbg !2306
  %5 = getelementptr inbounds [6 x i32], [6 x i32]* %expected_buffer, i64 0, i64 1, !dbg !2306
  store i32 0, i32* %5, align 4, !dbg !2306
  %6 = getelementptr inbounds [6 x i32], [6 x i32]* %expected_buffer, i64 0, i64 2, !dbg !2306
  store i32 1, i32* %6, align 4, !dbg !2306
  %7 = getelementptr inbounds [6 x i32], [6 x i32]* %expected_buffer, i64 0, i64 3, !dbg !2306
  store i32 0, i32* %7, align 4, !dbg !2306
  %8 = getelementptr inbounds [6 x i32], [6 x i32]* %expected_buffer, i64 0, i64 4, !dbg !2306
  store i32 1, i32* %8, align 4, !dbg !2306
  %9 = getelementptr inbounds [6 x i32], [6 x i32]* %expected_buffer, i64 0, i64 5, !dbg !2306
  store i32 0, i32* %9, align 4, !dbg !2306
  %_7.0 = bitcast [6 x i32]* %buffer to [0 x i32]*, !dbg !2307
; call core::slice::<impl [T]>::as_mut_ptr
  %_6 = call i32* @"_ZN4core5slice29_$LT$impl$u20$$u5b$T$u5d$$GT$10as_mut_ptr17h416cb3eecf921d6fE"([0 x i32]* align 4 %_7.0, i64 6), !dbg !2307
  br label %bb1, !dbg !2307

bb1:                                              ; preds = %start
  call void @entry5(i32 6, i32* %_6), !dbg !2308
  br label %bb2, !dbg !2308

bb2:                                              ; preds = %bb1
  %_12.0 = bitcast [6 x i32]* %rust_buffer to [0 x i32]*, !dbg !2309
; call core::slice::<impl [T]>::as_mut_ptr
  %_11 = call i32* @"_ZN4core5slice29_$LT$impl$u20$$u5b$T$u5d$$GT$10as_mut_ptr17h416cb3eecf921d6fE"([0 x i32]* align 4 %_12.0, i64 6), !dbg !2309
  br label %bb3, !dbg !2309

bb3:                                              ; preds = %bb2
  call void @rust_entry5(i32 6, i32* %_11), !dbg !2310
  br label %bb4, !dbg !2310

bb4:                                              ; preds = %bb3
  %10 = bitcast { i32*, i32* }* %_14 to [6 x i32]**, !dbg !2311
  store [6 x i32]* %buffer, [6 x i32]** %10, align 8, !dbg !2311
  %11 = getelementptr inbounds { i32*, i32* }, { i32*, i32* }* %_14, i32 0, i32 1, !dbg !2311
  %12 = bitcast i32** %11 to [6 x i32]**, !dbg !2311
  store [6 x i32]* %rust_buffer, [6 x i32]** %12, align 8, !dbg !2311
  %13 = bitcast { i32*, i32* }* %_14 to [6 x i32]**, !dbg !2311
  %left_val = load [6 x i32]*, [6 x i32]** %13, align 8, !dbg !2311, !nonnull !23, !align !290, !noundef !23
  store [6 x i32]* %left_val, [6 x i32]** %left_val.dbg.spill, align 8, !dbg !2311
  call void @llvm.dbg.declare(metadata [6 x i32]** %left_val.dbg.spill, metadata !2285, metadata !DIExpression()), !dbg !2312
