; ModuleID = '155p840qevobz80n'
source_filename = "155p840qevobz80n"
target datalayout = "e-m:e-p270:32:32-p271:32:32-p272:64:64-i64:64-f80:128-n8:16:32:64-S128"
target triple = "x86_64-unknown-linux-gnu"

%"alloc::vec::Vec<i32>" = type { { i32*, i64 }, i64 }
%"alloc::vec::Vec<[i32; 4]>" = type { { i32*, i64 }, i64 }
%"core::ptr::metadata::PtrComponents<u8>" = type { {}*, {} }
%"core::ptr::metadata::PtrRepr<u8>" = type { [1 x i64] }
%"core::alloc::layout::LayoutError" = type {}
%"core::result::Result<core::convert::Infallible, core::alloc::layout::LayoutError>::Err" = type { %"core::alloc::layout::LayoutError" }
%"core::result::Result<core::ptr::non_null::NonNull<[u8]>, alloc::collections::TryReserveError>" = type { i64, [2 x i64] }
%"core::alloc::AllocError" = type {}
%"core::result::Result<core::ptr::non_null::NonNull<[u8]>, alloc::collections::TryReserveError>::Ok" = type { [1 x i64], { i8*, i64 } }
%"core::result::Result<core::ptr::non_null::NonNull<[u8]>, alloc::collections::TryReserveError>::Err" = type { [1 x i64], { i64, i64 } }
%"[closure@alloc::raw_vec::handle_reserve::{closure#0}]" = type {}
%"core::result::Result<(), alloc::collections::TryReserveErrorKind>::Ok" = type { {} }
%"core::result::Result<core::alloc::layout::Layout, alloc::collections::TryReserveErrorKind>" = type { i64, [2 x i64] }
%"[closure@alloc::raw_vec::finish_grow<alloc::alloc::Global>::{closure#0}]" = type {}
%"core::result::Result<core::alloc::layout::Layout, alloc::collections::TryReserveErrorKind>::Ok" = type { [1 x i64], { i64, i64 } }
%"core::result::Result<core::alloc::layout::Layout, alloc::collections::TryReserveErrorKind>::Err" = type { [1 x i64], { i64, i64 } }
%"[closure@<i32 as alloc::vec::is_zero::IsZero>::is_zero::{closure#0}]" = type {}
%"alloc::vec::ExtendElement<[i32; 4]>" = type { [4 x i32] }
%"alloc::alloc::Global" = type {}
%"core::result::Result<core::convert::Infallible, core::alloc::AllocError>::Err" = type { %"core::alloc::AllocError" }
%"core::ptr::metadata::PtrRepr<[u8]>" = type { [2 x i64] }
%"[closure@core::intrinsics::copy_nonoverlapping<u8>::{closure#0}]" = type { i8**, i8**, i64* }
%"core::option::Option<(core::ptr::non_null::NonNull<u8>, core::alloc::layout::Layout)>" = type { [2 x i64], i64 }
%"core::ops::control_flow::ControlFlow<core::result::Result<core::convert::Infallible, alloc::collections::TryReserveErrorKind>, core::alloc::layout::Layout>" = type { i64, [2 x i64] }
%"core::ops::control_flow::ControlFlow<core::result::Result<core::convert::Infallible, alloc::collections::TryReserveErrorKind>, core::alloc::layout::Layout>::Continue" = type { [1 x i64], { i64, i64 } }
%"core::ops::control_flow::ControlFlow<core::result::Result<core::convert::Infallible, alloc::collections::TryReserveErrorKind>, core::alloc::layout::Layout>::Break" = type { [1 x i64], { i64, i64 } }
%"core::option::Option<(core::ptr::non_null::NonNull<u8>, core::alloc::layout::Layout)>::Some" = type { { i8*, { i64, i64 } } }
%"core::ops::control_flow::ControlFlow<core::result::Result<core::convert::Infallible, alloc::collections::TryReserveError>, core::ptr::non_null::NonNull<[u8]>>" = type { i64, [2 x i64] }
%"core::result::Result<usize, alloc::collections::TryReserveErrorKind>" = type { i64, [2 x i64] }
%"core::ops::control_flow::ControlFlow<core::result::Result<core::convert::Infallible, alloc::collections::TryReserveErrorKind>, usize>" = type { i64, [2 x i64] }
%"core::result::Result<usize, alloc::collections::TryReserveErrorKind>::Err" = type { [1 x i64], { i64, i64 } }
%"core::result::Result<usize, alloc::collections::TryReserveErrorKind>::Ok" = type { [1 x i64], i64 }
%"core::ops::control_flow::ControlFlow<core::result::Result<core::convert::Infallible, alloc::collections::TryReserveErrorKind>, usize>::Continue" = type { [1 x i64], i64 }
%"core::ops::control_flow::ControlFlow<core::result::Result<core::convert::Infallible, alloc::collections::TryReserveErrorKind>, usize>::Break" = type { [1 x i64], { i64, i64 } }
%"core::ops::control_flow::ControlFlow<core::result::Result<core::convert::Infallible, alloc::collections::TryReserveError>, core::ptr::non_null::NonNull<[u8]>>::Continue" = type { [1 x i64], { i8*, i64 } }
%"core::ops::control_flow::ControlFlow<core::result::Result<core::convert::Infallible, alloc::collections::TryReserveError>, core::ptr::non_null::NonNull<[u8]>>::Break" = type { [1 x i64], { i64, i64 } }
%"core::ptr::metadata::PtrRepr<[[i32; 4]]>" = type { [2 x i64] }
%"core::ptr::metadata::PtrRepr<[i32]>" = type { [2 x i64] }
%"uninitialized::u" = type { [1 x i32] }
%"uninitialized::s" = type { %"uninitialized::u", i8, [3 x i8], i32 }
%"core::panic::location::Location" = type { { [0 x i8]*, i64 }, i32, i32 }
%"unwind::libunwind::_Unwind_Exception" = type { i64, void (i32, %"unwind::libunwind::_Unwind_Exception"*)*, [6 x i64] }
%"unwind::libunwind::_Unwind_Context" = type { [0 x i8] }

@alloc70 = private unnamed_addr constant <{}> zeroinitializer, align 1
@alloc203 = private unnamed_addr constant <{ [13 x i8] }> <{ [13 x i8] c"src/malloc.rs" }>, align 1
@alloc200 = private unnamed_addr constant <{ i8*, [16 x i8] }> <{ i8* getelementptr inbounds (<{ [13 x i8] }>, <{ [13 x i8] }>* @alloc203, i32 0, i32 0, i32 0), [16 x i8] c"\0D\00\00\00\00\00\00\00\1E\00\00\00\09\00\00\00" }>, align 8
@str.0 = internal constant [28 x i8] c"attempt to add with overflow"
@alloc202 = private unnamed_addr constant <{ i8*, [16 x i8] }> <{ i8* getelementptr inbounds (<{ [13 x i8] }>, <{ [13 x i8] }>* @alloc203, i32 0, i32 0, i32 0), [16 x i8] c"\0D\00\00\00\00\00\00\00(\00\00\00\09\00\00\00" }>, align 8
@alloc204 = private unnamed_addr constant <{ i8*, [16 x i8] }> <{ i8* getelementptr inbounds (<{ [13 x i8] }>, <{ [13 x i8] }>* @alloc203, i32 0, i32 0, i32 0), [16 x i8] c"\0D\00\00\00\00\00\00\00+\00\00\00\09\00\00\00" }>, align 8
@alloc227 = private unnamed_addr constant <{ [14 x i8] }> <{ [14 x i8] c"src/sizeofs.rs" }>, align 1
@alloc206 = private unnamed_addr constant <{ i8*, [16 x i8] }> <{ i8* getelementptr inbounds (<{ [14 x i8] }>, <{ [14 x i8] }>* @alloc227, i32 0, i32 0, i32 0), [16 x i8] c"\0E\00\00\00\00\00\00\00\C1\00\00\00)\00\00\00" }>, align 8
@str.1 = internal constant [33 x i8] c"attempt to multiply with overflow"
@alloc208 = private unnamed_addr constant <{ i8*, [16 x i8] }> <{ i8* getelementptr inbounds (<{ [14 x i8] }>, <{ [14 x i8] }>* @alloc227, i32 0, i32 0, i32 0), [16 x i8] c"\0E\00\00\00\00\00\00\00\C1\00\00\00(\00\00\00" }>, align 8
@alloc210 = private unnamed_addr constant <{ i8*, [16 x i8] }> <{ i8* getelementptr inbounds (<{ [14 x i8] }>, <{ [14 x i8] }>* @alloc227, i32 0, i32 0, i32 0), [16 x i8] c"\0E\00\00\00\00\00\00\00\CA\00\00\00(\00\00\00" }>, align 8
@alloc212 = private unnamed_addr constant <{ i8*, [16 x i8] }> <{ i8* getelementptr inbounds (<{ [14 x i8] }>, <{ [14 x i8] }>* @alloc227, i32 0, i32 0, i32 0), [16 x i8] c"\0E\00\00\00\00\00\00\00\D2\00\00\00)\00\00\00" }>, align 8
@alloc214 = private unnamed_addr constant <{ i8*, [16 x i8] }> <{ i8* getelementptr inbounds (<{ [14 x i8] }>, <{ [14 x i8] }>* @alloc227, i32 0, i32 0, i32 0), [16 x i8] c"\0E\00\00\00\00\00\00\00\D2\00\00\00(\00\00\00" }>, align 8
@alloc216 = private unnamed_addr constant <{ i8*, [16 x i8] }> <{ i8* getelementptr inbounds (<{ [14 x i8] }>, <{ [14 x i8] }>* @alloc227, i32 0, i32 0, i32 0), [16 x i8] c"\0E\00\00\00\00\00\00\00\EE\00\00\00A\00\00\00" }>, align 8
@alloc218 = private unnamed_addr constant <{ i8*, [16 x i8] }> <{ i8* getelementptr inbounds (<{ [14 x i8] }>, <{ [14 x i8] }>* @alloc227, i32 0, i32 0, i32 0), [16 x i8] c"\0E\00\00\00\00\00\00\00\F3\00\00\00A\00\00\00" }>, align 8
@alloc220 = private unnamed_addr constant <{ i8*, [16 x i8] }> <{ i8* getelementptr inbounds (<{ [14 x i8] }>, <{ [14 x i8] }>* @alloc227, i32 0, i32 0, i32 0), [16 x i8] c"\0E\00\00\00\00\00\00\00\0F\01\00\00)\00\00\00" }>, align 8
@alloc222 = private unnamed_addr constant <{ i8*, [16 x i8] }> <{ i8* getelementptr inbounds (<{ [14 x i8] }>, <{ [14 x i8] }>* @alloc227, i32 0, i32 0, i32 0), [16 x i8] c"\0E\00\00\00\00\00\00\00\0F\01\00\00(\00\00\00" }>, align 8
@alloc224 = private unnamed_addr constant <{ i8*, [16 x i8] }> <{ i8* getelementptr inbounds (<{ [14 x i8] }>, <{ [14 x i8] }>* @alloc227, i32 0, i32 0, i32 0), [16 x i8] c"\0E\00\00\00\00\00\00\00\18\01\00\00(\00\00\00" }>, align 8
@alloc226 = private unnamed_addr constant <{ i8*, [16 x i8] }> <{ i8* getelementptr inbounds (<{ [14 x i8] }>, <{ [14 x i8] }>* @alloc227, i32 0, i32 0, i32 0), [16 x i8] c"\0E\00\00\00\00\00\00\00!\01\00\00)\00\00\00" }>, align 8
@alloc228 = private unnamed_addr constant <{ i8*, [16 x i8] }> <{ i8* getelementptr inbounds (<{ [14 x i8] }>, <{ [14 x i8] }>* @alloc227, i32 0, i32 0, i32 0), [16 x i8] c"\0E\00\00\00\00\00\00\00!\01\00\00(\00\00\00" }>, align 8
@alloc1 = private unnamed_addr constant <{ [7 x i8] }> <{ [7 x i8] c"i == n\00" }>, align 1
@alloc2 = private unnamed_addr constant <{ [10 x i8] }> <{ [10 x i8] c"sizeofs.c\00" }>, align 1
@alloc3 = private unnamed_addr constant <{ [45 x i8] }> <{ [45 x i8] c"void sizeofs(const unsigned int, int *const)\00" }>, align 1
@alloc233 = private unnamed_addr constant <{ [16 x i8] }> <{ [16 x i8] c"src/shadowing.rs" }>, align 1
@alloc230 = private unnamed_addr constant <{ i8*, [16 x i8] }> <{ i8* getelementptr inbounds (<{ [16 x i8] }>, <{ [16 x i8] }>* @alloc233, i32 0, i32 0, i32 0), [16 x i8] c"\10\00\00\00\00\00\00\00\0C\00\00\00\0C\00\00\00" }>, align 8
@alloc232 = private unnamed_addr constant <{ i8*, [16 x i8] }> <{ i8* getelementptr inbounds (<{ [16 x i8] }>, <{ [16 x i8] }>* @alloc233, i32 0, i32 0, i32 0), [16 x i8] c"\10\00\00\00\00\00\00\00\19\00\00\00\09\00\00\00" }>, align 8
@alloc234 = private unnamed_addr constant <{ i8*, [16 x i8] }> <{ i8* getelementptr inbounds (<{ [16 x i8] }>, <{ [16 x i8] }>* @alloc233, i32 0, i32 0, i32 0), [16 x i8] c"\10\00\00\00\00\00\00\00\1B\00\00\00\09\00\00\00" }>, align 8
@alloc239 = private unnamed_addr constant <{ [12 x i8] }> <{ [12 x i8] c"src/exprs.rs" }>, align 1
@alloc236 = private unnamed_addr constant <{ i8*, [16 x i8] }> <{ i8* getelementptr inbounds (<{ [12 x i8] }>, <{ [12 x i8] }>* @alloc239, i32 0, i32 0, i32 0), [16 x i8] c"\0C\00\00\00\00\00\00\00\16\00\00\00\05\00\00\00" }>, align 8
@str.2 = internal constant [31 x i8] c"attempt to negate with overflow"
@alloc7 = private unnamed_addr constant <{ [1 x i8] }> zeroinitializer, align 1
@alloc238 = private unnamed_addr constant <{ i8*, [16 x i8] }> <{ i8* getelementptr inbounds (<{ [12 x i8] }>, <{ [12 x i8] }>* @alloc239, i32 0, i32 0, i32 0), [16 x i8] c"\0C\00\00\00\00\00\00\00\1F\00\00\00\05\00\00\00" }>, align 8
@alloc240 = private unnamed_addr constant <{ i8*, [16 x i8] }> <{ i8* getelementptr inbounds (<{ [12 x i8] }>, <{ [12 x i8] }>* @alloc239, i32 0, i32 0, i32 0), [16 x i8] c"\0C\00\00\00\00\00\00\00!\00\00\00\05\00\00\00" }>, align 8
@alloc243 = private unnamed_addr constant <{ [14 x i8] }> <{ [14 x i8] c"src/lvalues.rs" }>, align 1
@alloc242 = private unnamed_addr constant <{ i8*, [16 x i8] }> <{ i8* getelementptr inbounds (<{ [14 x i8] }>, <{ [14 x i8] }>* @alloc243, i32 0, i32 0, i32 0), [16 x i8] c"\0E\00\00\00\00\00\00\00\11\00\00\00\05\00\00\00" }>, align 8
@alloc244 = private unnamed_addr constant <{ i8*, [16 x i8] }> <{ i8* getelementptr inbounds (<{ [14 x i8] }>, <{ [14 x i8] }>* @alloc243, i32 0, i32 0, i32 0), [16 x i8] c"\0E\00\00\00\00\00\00\00\1E\00\00\00\05\00\00\00" }>, align 8
@alloc259 = private unnamed_addr constant <{ [12 x i8] }> <{ [12 x i8] c"src/qsort.rs" }>, align 1
@alloc246 = private unnamed_addr constant <{ i8*, [16 x i8] }> <{ i8* getelementptr inbounds (<{ [12 x i8] }>, <{ [12 x i8] }>* @alloc259, i32 0, i32 0, i32 0), [16 x i8] c"\0C\00\00\00\00\00\00\00\1A\00\00\00\22\00\00\00" }>, align 8
@str.3 = internal constant [33 x i8] c"attempt to subtract with overflow"
@alloc248 = private unnamed_addr constant <{ i8*, [16 x i8] }> <{ i8* getelementptr inbounds (<{ [12 x i8] }>, <{ [12 x i8] }>* @alloc259, i32 0, i32 0, i32 0), [16 x i8] c"\0C\00\00\00\00\00\00\00\1C\00\00\00\10\00\00\00" }>, align 8
@alloc250 = private unnamed_addr constant <{ i8*, [16 x i8] }> <{ i8* getelementptr inbounds (<{ [12 x i8] }>, <{ [12 x i8] }>* @alloc259, i32 0, i32 0, i32 0), [16 x i8] c"\0C\00\00\00\00\00\00\00\1E\00\00\00\0D\00\00\00" }>, align 8
@alloc252 = private unnamed_addr constant <{ i8*, [16 x i8] }> <{ i8* getelementptr inbounds (<{ [12 x i8] }>, <{ [12 x i8] }>* @alloc259, i32 0, i32 0, i32 0), [16 x i8] c"\0C\00\00\00\00\00\00\00\22\00\00\00\09\00\00\00" }>, align 8
@alloc254 = private unnamed_addr constant <{ i8*, [16 x i8] }> <{ i8* getelementptr inbounds (<{ [12 x i8] }>, <{ [12 x i8] }>* @alloc259, i32 0, i32 0, i32 0), [16 x i8] c"\0C\00\00\00\00\00\00\00&\00\00\00\1A\00\00\00" }>, align 8
@alloc256 = private unnamed_addr constant <{ i8*, [16 x i8] }> <{ i8* getelementptr inbounds (<{ [12 x i8] }>, <{ [12 x i8] }>* @alloc259, i32 0, i32 0, i32 0), [16 x i8] c"\0C\00\00\00\00\00\00\00)\00\00\00\0C\00\00\00" }>, align 8
@alloc258 = private unnamed_addr constant <{ i8*, [16 x i8] }> <{ i8* getelementptr inbounds (<{ [12 x i8] }>, <{ [12 x i8] }>* @alloc259, i32 0, i32 0, i32 0), [16 x i8] c"\0C\00\00\00\00\00\00\003\00\00\00\22\00\00\00" }>, align 8
@alloc260 = private unnamed_addr constant <{ i8*, [16 x i8] }> <{ i8* getelementptr inbounds (<{ [12 x i8] }>, <{ [12 x i8] }>* @alloc259, i32 0, i32 0, i32 0), [16 x i8] c"\0C\00\00\00\00\00\00\004\00\00\00\1D\00\00\00" }>, align 8

; <core::ptr::non_null::NonNull<T> as core::convert::From<core::ptr::unique::Unique<T>>>::from
; Function Attrs: inlinehint nonlazybind uwtable
define i8* @"_ZN119_$LT$core..ptr..non_null..NonNull$LT$T$GT$$u20$as$u20$core..convert..From$LT$core..ptr..unique..Unique$LT$T$GT$$GT$$GT$4from17h631f2a220a29ccd9E"(i8* %unique) unnamed_addr #0 !dbg !103 {
start:
  %ptr.dbg.spill = alloca i8*, align 8
  %self.dbg.spill1 = alloca i8*, align 8
  %self.dbg.spill = alloca i8*, align 8
  %unique.dbg.spill = alloca i8*, align 8
  %0 = alloca i8*, align 8
  store i8* %unique, i8** %unique.dbg.spill, align 8
  call void @llvm.dbg.declare(metadata i8** %unique.dbg.spill, metadata !125, metadata !DIExpression()), !dbg !126
  store i8* %unique, i8** %self.dbg.spill, align 8, !dbg !127
  call void @llvm.dbg.declare(metadata i8** %self.dbg.spill, metadata !128, metadata !DIExpression()), !dbg !136
  store i8* %unique, i8** %self.dbg.spill1, align 8, !dbg !136
  call void @llvm.dbg.declare(metadata i8** %self.dbg.spill1, metadata !137, metadata !DIExpression()), !dbg !142
  store i8* %unique, i8** %ptr.dbg.spill, align 8, !dbg !142
  call void @llvm.dbg.declare(metadata i8** %ptr.dbg.spill, metadata !144, metadata !DIExpression()), !dbg !149
  store i8* %unique, i8** %0, align 8, !dbg !149
  %1 = load i8*, i8** %0, align 8, !dbg !151, !nonnull !123, !noundef !123
  ret i8* %1, !dbg !151
}

; <alloc::collections::TryReserveError as core::convert::From<alloc::collections::TryReserveErrorKind>>::from
; Function Attrs: inlinehint nonlazybind uwtable
define internal { i64, i64 } @"_ZN122_$LT$alloc..collections..TryReserveError$u20$as$u20$core..convert..From$LT$alloc..collections..TryReserveErrorKind$GT$$GT$4from17h2226d8fcddde883cE"(i64 %kind.0, i64 %kind.1) unnamed_addr #0 !dbg !152 {
start:
  %kind.dbg.spill = alloca { i64, i64 }, align 8
  %0 = alloca { i64, i64 }, align 8
  %1 = getelementptr inbounds { i64, i64 }, { i64, i64 }* %kind.dbg.spill, i32 0, i32 0
  store i64 %kind.0, i64* %1, align 8
  %2 = getelementptr inbounds { i64, i64 }, { i64, i64 }* %kind.dbg.spill, i32 0, i32 1
  store i64 %kind.1, i64* %2, align 8
  call void @llvm.dbg.declare(metadata { i64, i64 }* %kind.dbg.spill, metadata !185, metadata !DIExpression()), !dbg !186
  %3 = getelementptr inbounds { i64, i64 }, { i64, i64 }* %0, i32 0, i32 0, !dbg !187
  store i64 %kind.0, i64* %3, align 8, !dbg !187
  %4 = getelementptr inbounds { i64, i64 }, { i64, i64 }* %0, i32 0, i32 1, !dbg !187
  store i64 %kind.1, i64* %4, align 8, !dbg !187
  %5 = getelementptr inbounds { i64, i64 }, { i64, i64 }* %0, i32 0, i32 0, !dbg !188
  %6 = load i64, i64* %5, align 8, !dbg !188
  %7 = getelementptr inbounds { i64, i64 }, { i64, i64 }* %0, i32 0, i32 1, !dbg !188
  %8 = load i64, i64* %7, align 8, !dbg !188, !range !189, !noundef !123
  %9 = insertvalue { i64, i64 } undef, i64 %6, 0, !dbg !188
  %10 = insertvalue { i64, i64 } %9, i64 %8, 1, !dbg !188
  ret { i64, i64 } %10, !dbg !188
}

; <T as core::array::SpecArrayClone>::clone
; Function Attrs: inlinehint nonlazybind uwtable
define void @"_ZN49_$LT$T$u20$as$u20$core..array..SpecArrayClone$GT$5clone17haf9d4ae12312aaedE"([4 x i32]* sret([4 x i32]) %0, [4 x i32]* align 4 %array) unnamed_addr #0 !dbg !190 {
start:
  %array.dbg.spill = alloca [4 x i32]*, align 8
  store [4 x i32]* %array, [4 x i32]** %array.dbg.spill, align 8
  call void @llvm.dbg.declare(metadata [4 x i32]** %array.dbg.spill, metadata !202, metadata !DIExpression()), !dbg !205
  %1 = bitcast [4 x i32]* %0 to i8*, !dbg !206
  %2 = bitcast [4 x i32]* %array to i8*, !dbg !206
  call void @llvm.memcpy.p0i8.p0i8.i64(i8* align 4 %1, i8* align 4 %2, i64 16, i1 false), !dbg !206
  ret void, !dbg !207
}

; <usize as core::iter::range::Step>::forward_unchecked
; Function Attrs: inlinehint nonlazybind uwtable
define internal i64 @"_ZN49_$LT$usize$u20$as$u20$core..iter..range..Step$GT$17forward_unchecked17h71a1aa3d30fd4d04E"(i64 %start1, i64 %n) unnamed_addr #0 !dbg !208 {
start:
  %0 = alloca i64, align 8
  %rhs.dbg.spill = alloca i64, align 8
  %self.dbg.spill = alloca i64, align 8
  %n.dbg.spill = alloca i64, align 8
  %start.dbg.spill = alloca i64, align 8
  store i64 %start1, i64* %start.dbg.spill, align 8
  call void @llvm.dbg.declare(metadata i64* %start.dbg.spill, metadata !216, metadata !DIExpression()), !dbg !218
  store i64 %n, i64* %n.dbg.spill, align 8
  call void @llvm.dbg.declare(metadata i64* %n.dbg.spill, metadata !217, metadata !DIExpression()), !dbg !219
  store i64 %start1, i64* %self.dbg.spill, align 8, !dbg !220
  call void @llvm.dbg.declare(metadata i64* %self.dbg.spill, metadata !221, metadata !DIExpression()), !dbg !229
  store i64 %n, i64* %rhs.dbg.spill, align 8, !dbg !230
  call void @llvm.dbg.declare(metadata i64* %rhs.dbg.spill, metadata !228, metadata !DIExpression()), !dbg !229
  %1 = add nuw i64 %start1, %n, !dbg !229
  store i64 %1, i64* %0, align 8, !dbg !229
  %2 = load i64, i64* %0, align 8, !dbg !229
  br label %bb1, !dbg !229

bb1:                                              ; preds = %start
  ret i64 %2, !dbg !231
}

; core::cmp::Ord::max
; Function Attrs: inlinehint nonlazybind uwtable
define i64 @_ZN4core3cmp3Ord3max17h67a3312da262e475E(i64 %0, i64 %1) unnamed_addr #0 personality i32 (i32, i32, i64, %"unwind::libunwind::_Unwind_Exception"*, %"unwind::libunwind::_Unwind_Context"*)* @rust_eh_personality !dbg !232 {
start:
  %2 = alloca { i8*, i32 }, align 8
  %_9 = alloca i8, align 1
  %_8 = alloca i8, align 1
  %_3 = alloca i8, align 1
  %3 = alloca i64, align 8
  %other = alloca i64, align 8
  %self = alloca i64, align 8
  store i64 %0, i64* %self, align 8
  store i64 %1, i64* %other, align 8
  call void @llvm.dbg.declare(metadata i64* %self, metadata !236, metadata !DIExpression()), !dbg !240
  call void @llvm.dbg.declare(metadata i64* %other, metadata !237, metadata !DIExpression()), !dbg !241
  store i8 1, i8* %_9, align 1, !dbg !242
  store i8 1, i8* %_8, align 1, !dbg !242
; invoke core::cmp::impls::<impl core::cmp::Ord for usize>::cmp
  %4 = invoke i8 @"_ZN4core3cmp5impls50_$LT$impl$u20$core..cmp..Ord$u20$for$u20$usize$GT$3cmp17hb3665991a0e8a29aE"(i64* align 8 %self, i64* align 8 %other)
          to label %bb1 unwind label %cleanup, !dbg !242, !range !243

bb8:                                              ; preds = %cleanup
  br label %bb13, !dbg !244

cleanup:                                          ; preds = %start
  %5 = landingpad { i8*, i32 }
          cleanup
  %6 = extractvalue { i8*, i32 } %5, 0
  %7 = extractvalue { i8*, i32 } %5, 1
  %8 = getelementptr inbounds { i8*, i32 }, { i8*, i32 }* %2, i32 0, i32 0
  store i8* %6, i8** %8, align 8
  %9 = getelementptr inbounds { i8*, i32 }, { i8*, i32 }* %2, i32 0, i32 1
  store i32 %7, i32* %9, align 8
  br label %bb8

bb1:                                              ; preds = %start
  store i8 %4, i8* %_3, align 1, !dbg !242
  %_7 = load i8, i8* %_3, align 1, !dbg !242, !range !243, !noundef !123
  switch i8 %_7, label %bb3 [
    i8 -1, label %bb4
    i8 0, label %bb4
    i8 1, label %bb2
  ], !dbg !245

bb13:                                             ; preds = %bb8
  %10 = load i8, i8* %_9, align 1, !dbg !244, !range !246, !noundef !123
  %11 = trunc i8 %10 to i1, !dbg !244
  br i1 %11, label %bb12, label %bb9, !dbg !244

bb3:                                              ; preds = %bb1
  unreachable, !dbg !242

bb4:                                              ; preds = %bb1, %bb1
  store i8 0, i8* %_8, align 1, !dbg !247
  %12 = load i64, i64* %other, align 8, !dbg !247
  store i64 %12, i64* %3, align 8, !dbg !247
  br label %bb5, !dbg !247

bb2:                                              ; preds = %bb1
  store i8 0, i8* %_9, align 1, !dbg !248
  %13 = load i64, i64* %self, align 8, !dbg !248
  store i64 %13, i64* %3, align 8, !dbg !248
  br label %bb5, !dbg !248

bb5:                                              ; preds = %bb4, %bb2
  %14 = load i8, i8* %_8, align 1, !dbg !244, !range !246, !noundef !123
  %15 = trunc i8 %14 to i1, !dbg !244
  br i1 %15, label %bb10, label %bb6, !dbg !244

bb6:                                              ; preds = %bb10, %bb5
  %16 = load i8, i8* %_9, align 1, !dbg !244, !range !246, !noundef !123
  %17 = trunc i8 %16 to i1, !dbg !244
  br i1 %17, label %bb11, label %bb7, !dbg !244

bb10:                                             ; preds = %bb5
  br label %bb6, !dbg !244

bb9:                                              ; preds = %bb12, %bb13
  %18 = bitcast { i8*, i32 }* %2 to i8**, !dbg !249
  %19 = load i8*, i8** %18, align 8, !dbg !249
  %20 = getelementptr inbounds { i8*, i32 }, { i8*, i32 }* %2, i32 0, i32 1, !dbg !249
  %21 = load i32, i32* %20, align 8, !dbg !249
  %22 = insertvalue { i8*, i32 } undef, i8* %19, 0, !dbg !249
  %23 = insertvalue { i8*, i32 } %22, i32 %21, 1, !dbg !249
  resume { i8*, i32 } %23, !dbg !249

bb12:                                             ; preds = %bb13
  br label %bb9, !dbg !244

bb7:                                              ; preds = %bb11, %bb6
  %24 = load i64, i64* %3, align 8, !dbg !250
  ret i64 %24, !dbg !250

bb11:                                             ; preds = %bb6
  br label %bb7, !dbg !244
}

; core::cmp::impls::<impl core::cmp::Ord for usize>::cmp
; Function Attrs: inlinehint nonlazybind uwtable
define internal i8 @"_ZN4core3cmp5impls50_$LT$impl$u20$core..cmp..Ord$u20$for$u20$usize$GT$3cmp17hb3665991a0e8a29aE"(i64* align 8 %self, i64* align 8 %other) unnamed_addr #0 !dbg !251 {
start:
  %other.dbg.spill = alloca i64*, align 8
  %self.dbg.spill = alloca i64*, align 8
  %0 = alloca i8, align 1
  store i64* %self, i64** %self.dbg.spill, align 8
  call void @llvm.dbg.declare(metadata i64** %self.dbg.spill, metadata !258, metadata !DIExpression()), !dbg !260
  store i64* %other, i64** %other.dbg.spill, align 8
  call void @llvm.dbg.declare(metadata i64** %other.dbg.spill, metadata !259, metadata !DIExpression()), !dbg !261
  %_4 = load i64, i64* %self, align 8, !dbg !262
  %_5 = load i64, i64* %other, align 8, !dbg !263
  %_3 = icmp ult i64 %_4, %_5, !dbg !262
  br i1 %_3, label %bb1, label %bb2, !dbg !262

bb2:                                              ; preds = %start
  %_7 = load i64, i64* %self, align 8, !dbg !264
  %_8 = load i64, i64* %other, align 8, !dbg !265
  %_6 = icmp eq i64 %_7, %_8, !dbg !264
  br i1 %_6, label %bb3, label %bb4, !dbg !264

bb1:                                              ; preds = %start
  store i8 -1, i8* %0, align 1, !dbg !266
  br label %bb6, !dbg !267

bb6:                                              ; preds = %bb5, %bb1
  %1 = load i8, i8* %0, align 1, !dbg !268, !range !243, !noundef !123
  ret i8 %1, !dbg !268

bb4:                                              ; preds = %bb2
  store i8 1, i8* %0, align 1, !dbg !269
  br label %bb5, !dbg !270

bb3:                                              ; preds = %bb2
  store i8 0, i8* %0, align 1, !dbg !271
  br label %bb5, !dbg !270

bb5:                                              ; preds = %bb4, %bb3
  br label %bb6, !dbg !267
}

; core::cmp::impls::<impl core::cmp::PartialOrd for usize>::lt
; Function Attrs: inlinehint nonlazybind uwtable
define internal zeroext i1 @"_ZN4core3cmp5impls57_$LT$impl$u20$core..cmp..PartialOrd$u20$for$u20$usize$GT$2lt17h2541699a2e3d4347E"(i64* align 8 %self, i64* align 8 %other) unnamed_addr #0 !dbg !272 {
start:
  %other.dbg.spill = alloca i64*, align 8
  %self.dbg.spill = alloca i64*, align 8
  store i64* %self, i64** %self.dbg.spill, align 8
  call void @llvm.dbg.declare(metadata i64** %self.dbg.spill, metadata !278, metadata !DIExpression()), !dbg !280
  store i64* %other, i64** %other.dbg.spill, align 8
  call void @llvm.dbg.declare(metadata i64** %other.dbg.spill, metadata !279, metadata !DIExpression()), !dbg !281
  %_3 = load i64, i64* %self, align 8, !dbg !282
  %_4 = load i64, i64* %other, align 8, !dbg !283
  %0 = icmp ult i64 %_3, %_4, !dbg !282
  ret i1 %0, !dbg !284
}

; core::mem::replace
; Function Attrs: inlinehint nonlazybind uwtable
define i64 @_ZN4core3mem7replace17he9f9c2f224097489E(i64* align 8 %dest, i64 %src) unnamed_addr #0 personality i32 (i32, i32, i64, %"unwind::libunwind::_Unwind_Exception"*, %"unwind::libunwind::_Unwind_Context"*)* @rust_eh_personality !dbg !285 {
start:
  %dst.dbg.spill = alloca i64*, align 8
  %result.dbg.spill = alloca i64, align 8
  %slot.dbg.spill = alloca i64, align 8
  %0 = alloca { i8*, i32 }, align 8
  %self.dbg.spill3 = alloca i64, align 8
  %self.dbg.spill = alloca i64*, align 8
  %src.dbg.spill2 = alloca i64*, align 8
  %src.dbg.spill = alloca i64, align 8
  %dest.dbg.spill = alloca i64*, align 8
  %tmp = alloca i64, align 8
  %src1 = alloca i64, align 8
  store i64* %dest, i64** %dest.dbg.spill, align 8
  call void @llvm.dbg.declare(metadata i64** %dest.dbg.spill, metadata !291, metadata !DIExpression()), !dbg !297
  store i64 %src, i64* %src.dbg.spill, align 8
  call void @llvm.dbg.declare(metadata i64* %src.dbg.spill, metadata !292, metadata !DIExpression()), !dbg !298
  call void @llvm.dbg.declare(metadata i64* %src1, metadata !299, metadata !DIExpression()), !dbg !308
  call void @llvm.dbg.declare(metadata i64* %tmp, metadata !310, metadata !DIExpression()), !dbg !329
  store i64* %dest, i64** %src.dbg.spill2, align 8, !dbg !331
  call void @llvm.dbg.declare(metadata i64** %src.dbg.spill2, metadata !318, metadata !DIExpression()), !dbg !332
  %1 = bitcast i64* %tmp to {}*, !dbg !333
  store i64* %tmp, i64** %self.dbg.spill, align 8, !dbg !329
  call void @llvm.dbg.declare(metadata i64** %self.dbg.spill, metadata !340, metadata !DIExpression()), !dbg !347
  %2 = bitcast i64* %tmp to i8*, !dbg !329
  %3 = bitcast i64* %dest to i8*, !dbg !329
  call void @llvm.memcpy.p0i8.p0i8.i64(i8* align 8 %2, i8* align 8 %3, i64 8, i1 false), !dbg !329
  %self = load i64, i64* %tmp, align 8, !dbg !329
  store i64 %self, i64* %self.dbg.spill3, align 8, !dbg !329
  call void @llvm.dbg.declare(metadata i64* %self.dbg.spill3, metadata !349, metadata !DIExpression()), !dbg !369
  br label %bb4, !dbg !369

bb4:                                              ; preds = %start
  store i64 %self, i64* %slot.dbg.spill, align 8, !dbg !369
  call void @llvm.dbg.declare(metadata i64* %slot.dbg.spill, metadata !371, metadata !DIExpression()), !dbg !378
  store i64 %self, i64* %result.dbg.spill, align 8, !dbg !378
  call void @llvm.dbg.declare(metadata i64* %result.dbg.spill, metadata !293, metadata !DIExpression()), !dbg !380
  store i64* %dest, i64** %dst.dbg.spill, align 8, !dbg !381
  call void @llvm.dbg.declare(metadata i64** %dst.dbg.spill, metadata !307, metadata !DIExpression()), !dbg !308
  store i64 %src, i64* %src1, align 8, !dbg !382
  %4 = bitcast i64* %dest to i8*, !dbg !308
  %5 = bitcast i64* %src1 to i8*, !dbg !308
  call void @llvm.memcpy.p0i8.p0i8.i64(i8* align 8 %4, i8* align 8 %5, i64 8, i1 false), !dbg !308
  ret i64 %self, !dbg !383

bb3:                                              ; No predecessors!
  br i1 true, label %bb2, label %bb1, !dbg !384

bb1:                                              ; preds = %bb2, %bb3
  %6 = bitcast { i8*, i32 }* %0 to i8**, !dbg !385
  %7 = load i8*, i8** %6, align 8, !dbg !385
  %8 = getelementptr inbounds { i8*, i32 }, { i8*, i32 }* %0, i32 0, i32 1, !dbg !385
  %9 = load i32, i32* %8, align 8, !dbg !385
  %10 = insertvalue { i8*, i32 } undef, i8* %7, 0, !dbg !385
  %11 = insertvalue { i8*, i32 } %10, i32 %9, 1, !dbg !385
  resume { i8*, i32 } %11, !dbg !385

bb2:                                              ; preds = %bb3
  br label %bb1, !dbg !384
}

; core::num::<impl usize>::checked_add
; Function Attrs: inlinehint nonlazybind uwtable
define internal { i64, i64 } @"_ZN4core3num23_$LT$impl$u20$usize$GT$11checked_add17had8e6d2bc6b30659E"(i64 %self, i64 %rhs) unnamed_addr #0 !dbg !386 {
start:
  %0 = alloca i8, align 1
  %b.dbg.spill4 = alloca i8, align 1
  %a.dbg.spill3 = alloca i64, align 8
  %b.dbg.spill = alloca i8, align 1
  %a.dbg.spill = alloca i64, align 8
  %1 = alloca { i64, i8 }, align 8
  %rhs.dbg.spill2 = alloca i64, align 8
  %self.dbg.spill1 = alloca i64, align 8
  %rhs.dbg.spill = alloca i64, align 8
  %self.dbg.spill = alloca i64, align 8
  %_5 = alloca { i64, i8 }, align 8
  %2 = alloca { i64, i64 }, align 8
  store i64 %self, i64* %self.dbg.spill, align 8
  call void @llvm.dbg.declare(metadata i64* %self.dbg.spill, metadata !402, metadata !DIExpression()), !dbg !407
  store i64 %rhs, i64* %rhs.dbg.spill, align 8
  call void @llvm.dbg.declare(metadata i64* %rhs.dbg.spill, metadata !403, metadata !DIExpression()), !dbg !408
  store i64 %self, i64* %self.dbg.spill1, align 8, !dbg !409
  call void @llvm.dbg.declare(metadata i64* %self.dbg.spill1, metadata !410, metadata !DIExpression()), !dbg !423
  store i64 %rhs, i64* %rhs.dbg.spill2, align 8, !dbg !424
  call void @llvm.dbg.declare(metadata i64* %rhs.dbg.spill2, metadata !419, metadata !DIExpression()), !dbg !423
  %3 = call { i64, i1 } @llvm.uadd.with.overflow.i64(i64 %self, i64 %rhs), !dbg !423
  %4 = extractvalue { i64, i1 } %3, 0, !dbg !423
  %5 = extractvalue { i64, i1 } %3, 1, !dbg !423
  %6 = zext i1 %5 to i8, !dbg !423
  %7 = bitcast { i64, i8 }* %1 to i64*, !dbg !423
  store i64 %4, i64* %7, align 8, !dbg !423
  %8 = getelementptr inbounds { i64, i8 }, { i64, i8 }* %1, i32 0, i32 1, !dbg !423
  store i8 %6, i8* %8, align 8, !dbg !423
  %9 = getelementptr inbounds { i64, i8 }, { i64, i8 }* %1, i32 0, i32 0, !dbg !423
  %_13.0 = load i64, i64* %9, align 8, !dbg !423
  %10 = getelementptr inbounds { i64, i8 }, { i64, i8 }* %1, i32 0, i32 1, !dbg !423
  %11 = load i8, i8* %10, align 8, !dbg !423, !range !246, !noundef !123
  %_13.1 = trunc i8 %11 to i1, !dbg !423
  br label %bb5, !dbg !423

bb5:                                              ; preds = %start
  store i64 %_13.0, i64* %a.dbg.spill, align 8, !dbg !423
  call void @llvm.dbg.declare(metadata i64* %a.dbg.spill, metadata !420, metadata !DIExpression()), !dbg !425
  %12 = zext i1 %_13.1 to i8, !dbg !423
  store i8 %12, i8* %b.dbg.spill, align 1, !dbg !423
  call void @llvm.dbg.declare(metadata i8* %b.dbg.spill, metadata !422, metadata !DIExpression()), !dbg !425
  %13 = bitcast { i64, i8 }* %_5 to i64*, !dbg !425
  store i64 %_13.0, i64* %13, align 8, !dbg !425
  %14 = getelementptr inbounds { i64, i8 }, { i64, i8 }* %_5, i32 0, i32 1, !dbg !425
  %15 = zext i1 %_13.1 to i8, !dbg !425
  store i8 %15, i8* %14, align 8, !dbg !425
  %16 = bitcast { i64, i8 }* %_5 to i64*, !dbg !426
  %a = load i64, i64* %16, align 8, !dbg !426
  store i64 %a, i64* %a.dbg.spill3, align 8, !dbg !426
  call void @llvm.dbg.declare(metadata i64* %a.dbg.spill3, metadata !404, metadata !DIExpression()), !dbg !427
  %17 = getelementptr inbounds { i64, i8 }, { i64, i8 }* %_5, i32 0, i32 1, !dbg !428
  %18 = load i8, i8* %17, align 8, !dbg !428, !range !246, !noundef !123
  %b = trunc i8 %18 to i1, !dbg !428
  %19 = zext i1 %b to i8, !dbg !428
  store i8 %19, i8* %b.dbg.spill4, align 1, !dbg !428
  call void @llvm.dbg.declare(metadata i8* %b.dbg.spill4, metadata !406, metadata !DIExpression()), !dbg !429
  %20 = call i1 @llvm.expect.i1(i1 %b, i1 false), !dbg !430
  %21 = zext i1 %20 to i8, !dbg !430
  store i8 %21, i8* %0, align 1, !dbg !430
  %22 = load i8, i8* %0, align 1, !dbg !430, !range !246, !noundef !123
  %_8 = trunc i8 %22 to i1, !dbg !430
  br label %bb1, !dbg !430

bb1:                                              ; preds = %bb5
  br i1 %_8, label %bb2, label %bb3, !dbg !430

bb3:                                              ; preds = %bb1
  %23 = getelementptr inbounds { i64, i64 }, { i64, i64 }* %2, i32 0, i32 1, !dbg !431
  store i64 %a, i64* %23, align 8, !dbg !431
  %24 = bitcast { i64, i64 }* %2 to i64*, !dbg !431
  store i64 1, i64* %24, align 8, !dbg !431
  br label %bb4, !dbg !432

bb2:                                              ; preds = %bb1
  %25 = bitcast { i64, i64 }* %2 to i64*, !dbg !433
  store i64 0, i64* %25, align 8, !dbg !433
  br label %bb4, !dbg !432

bb4:                                              ; preds = %bb3, %bb2
  %26 = getelementptr inbounds { i64, i64 }, { i64, i64 }* %2, i32 0, i32 0, !dbg !434
  %27 = load i64, i64* %26, align 8, !dbg !434, !range !435, !noundef !123
  %28 = getelementptr inbounds { i64, i64 }, { i64, i64 }* %2, i32 0, i32 1, !dbg !434
  %29 = load i64, i64* %28, align 8, !dbg !434
  %30 = insertvalue { i64, i64 } undef, i64 %27, 0, !dbg !434
  %31 = insertvalue { i64, i64 } %30, i64 %29, 1, !dbg !434
  ret { i64, i64 } %31, !dbg !434
}

; core::num::<impl usize>::checked_mul
; Function Attrs: inlinehint nonlazybind uwtable
define internal { i64, i64 } @"_ZN4core3num23_$LT$impl$u20$usize$GT$11checked_mul17h9579ae8beda77501E"(i64 %self, i64 %rhs) unnamed_addr #0 !dbg !436 {
start:
  %0 = alloca i8, align 1
  %b.dbg.spill4 = alloca i8, align 1
  %a.dbg.spill3 = alloca i64, align 8
  %b.dbg.spill = alloca i8, align 1
  %a.dbg.spill = alloca i64, align 8
  %1 = alloca { i64, i8 }, align 8
  %rhs.dbg.spill2 = alloca i64, align 8
  %self.dbg.spill1 = alloca i64, align 8
  %rhs.dbg.spill = alloca i64, align 8
  %self.dbg.spill = alloca i64, align 8
  %_5 = alloca { i64, i8 }, align 8
  %2 = alloca { i64, i64 }, align 8
  store i64 %self, i64* %self.dbg.spill, align 8
  call void @llvm.dbg.declare(metadata i64* %self.dbg.spill, metadata !438, metadata !DIExpression()), !dbg !443
  store i64 %rhs, i64* %rhs.dbg.spill, align 8
  call void @llvm.dbg.declare(metadata i64* %rhs.dbg.spill, metadata !439, metadata !DIExpression()), !dbg !444
  store i64 %self, i64* %self.dbg.spill1, align 8, !dbg !445
  call void @llvm.dbg.declare(metadata i64* %self.dbg.spill1, metadata !446, metadata !DIExpression()), !dbg !453
  store i64 %rhs, i64* %rhs.dbg.spill2, align 8, !dbg !454
  call void @llvm.dbg.declare(metadata i64* %rhs.dbg.spill2, metadata !449, metadata !DIExpression()), !dbg !453
  %3 = call { i64, i1 } @llvm.umul.with.overflow.i64(i64 %self, i64 %rhs), !dbg !453
  %4 = extractvalue { i64, i1 } %3, 0, !dbg !453
  %5 = extractvalue { i64, i1 } %3, 1, !dbg !453
  %6 = zext i1 %5 to i8, !dbg !453
  %7 = bitcast { i64, i8 }* %1 to i64*, !dbg !453
  store i64 %4, i64* %7, align 8, !dbg !453
  %8 = getelementptr inbounds { i64, i8 }, { i64, i8 }* %1, i32 0, i32 1, !dbg !453
  store i8 %6, i8* %8, align 8, !dbg !453
  %9 = getelementptr inbounds { i64, i8 }, { i64, i8 }* %1, i32 0, i32 0, !dbg !453
  %_13.0 = load i64, i64* %9, align 8, !dbg !453
  %10 = getelementptr inbounds { i64, i8 }, { i64, i8 }* %1, i32 0, i32 1, !dbg !453
  %11 = load i8, i8* %10, align 8, !dbg !453, !range !246, !noundef !123
  %_13.1 = trunc i8 %11 to i1, !dbg !453
  br label %bb5, !dbg !453

bb5:                                              ; preds = %start
  store i64 %_13.0, i64* %a.dbg.spill, align 8, !dbg !453
  call void @llvm.dbg.declare(metadata i64* %a.dbg.spill, metadata !450, metadata !DIExpression()), !dbg !455
  %12 = zext i1 %_13.1 to i8, !dbg !453
  store i8 %12, i8* %b.dbg.spill, align 1, !dbg !453
  call void @llvm.dbg.declare(metadata i8* %b.dbg.spill, metadata !452, metadata !DIExpression()), !dbg !455
  %13 = bitcast { i64, i8 }* %_5 to i64*, !dbg !455
  store i64 %_13.0, i64* %13, align 8, !dbg !455
  %14 = getelementptr inbounds { i64, i8 }, { i64, i8 }* %_5, i32 0, i32 1, !dbg !455
  %15 = zext i1 %_13.1 to i8, !dbg !455
  store i8 %15, i8* %14, align 8, !dbg !455
  %16 = bitcast { i64, i8 }* %_5 to i64*, !dbg !456
  %a = load i64, i64* %16, align 8, !dbg !456
  store i64 %a, i64* %a.dbg.spill3, align 8, !dbg !456
  call void @llvm.dbg.declare(metadata i64* %a.dbg.spill3, metadata !440, metadata !DIExpression()), !dbg !457
  %17 = getelementptr inbounds { i64, i8 }, { i64, i8 }* %_5, i32 0, i32 1, !dbg !458
  %18 = load i8, i8* %17, align 8, !dbg !458, !range !246, !noundef !123
  %b = trunc i8 %18 to i1, !dbg !458
  %19 = zext i1 %b to i8, !dbg !458
  store i8 %19, i8* %b.dbg.spill4, align 1, !dbg !458
  call void @llvm.dbg.declare(metadata i8* %b.dbg.spill4, metadata !442, metadata !DIExpression()), !dbg !459
  %20 = call i1 @llvm.expect.i1(i1 %b, i1 false), !dbg !460
  %21 = zext i1 %20 to i8, !dbg !460
  store i8 %21, i8* %0, align 1, !dbg !460
  %22 = load i8, i8* %0, align 1, !dbg !460, !range !246, !noundef !123
  %_8 = trunc i8 %22 to i1, !dbg !460
  br label %bb1, !dbg !460

bb1:                                              ; preds = %bb5
  br i1 %_8, label %bb2, label %bb3, !dbg !460

bb3:                                              ; preds = %bb1
  %23 = getelementptr inbounds { i64, i64 }, { i64, i64 }* %2, i32 0, i32 1, !dbg !461
  store i64 %a, i64* %23, align 8, !dbg !461
  %24 = bitcast { i64, i64 }* %2 to i64*, !dbg !461
  store i64 1, i64* %24, align 8, !dbg !461
  br label %bb4, !dbg !462

bb2:                                              ; preds = %bb1
  %25 = bitcast { i64, i64 }* %2 to i64*, !dbg !463
  store i64 0, i64* %25, align 8, !dbg !463
  br label %bb4, !dbg !462

bb4:                                              ; preds = %bb3, %bb2
  %26 = getelementptr inbounds { i64, i64 }, { i64, i64 }* %2, i32 0, i32 0, !dbg !464
  %27 = load i64, i64* %26, align 8, !dbg !464, !range !435, !noundef !123
  %28 = getelementptr inbounds { i64, i64 }, { i64, i64 }* %2, i32 0, i32 1, !dbg !464
  %29 = load i64, i64* %28, align 8, !dbg !464
  %30 = insertvalue { i64, i64 } undef, i64 %27, 0, !dbg !464
  %31 = insertvalue { i64, i64 } %30, i64 %29, 1, !dbg !464
  ret { i64, i64 } %31, !dbg !464
}

; core::ops::function::FnMut::call_mut
; Function Attrs: inlinehint nonlazybind uwtable
define internal zeroext i1 @_ZN4core3ops8function5FnMut8call_mut17h7dd7f1ca46f43219E({}* align 1 %_1, i32* align 4 %0) unnamed_addr #0 !dbg !465 {
start:
  %_1.dbg.spill = alloca {}*, align 8
  %_2 = alloca i32*, align 8
  store i32* %0, i32** %_2, align 8
  store {}* %_1, {}** %_1.dbg.spill, align 8
  call void @llvm.dbg.declare(metadata {}** %_1.dbg.spill, metadata !478, metadata !DIExpression()), !dbg !487
  call void @llvm.dbg.declare(metadata i32** %_2, metadata !480, metadata !DIExpression()), !dbg !487
  %1 = load i32*, i32** %_2, align 8, !dbg !487, !nonnull !123, !align !488, !noundef !123
; call <i32 as alloc::vec::is_zero::IsZero>::is_zero
  %2 = call zeroext i1 @"_ZN51_$LT$i32$u20$as$u20$alloc..vec..is_zero..IsZero$GT$7is_zero17hfae9cd2abb545fc7E"(i32* align 4 %1), !dbg !487
  br label %bb1, !dbg !487

bb1:                                              ; preds = %start
  ret i1 %2, !dbg !487
}

; core::ptr::drop_in_place<alloc::vec::Vec<i32>>
; Function Attrs: nonlazybind uwtable
define void @"_ZN4core3ptr47drop_in_place$LT$alloc..vec..Vec$LT$i32$GT$$GT$17h9a0678b0f37c68f1E"(%"alloc::vec::Vec<i32>"* %_1) unnamed_addr #1 personality i32 (i32, i32, i64, %"unwind::libunwind::_Unwind_Exception"*, %"unwind::libunwind::_Unwind_Context"*)* @rust_eh_personality !dbg !489 {
start:
  %0 = alloca { i8*, i32 }, align 8
  %_1.dbg.spill = alloca %"alloc::vec::Vec<i32>"*, align 8
  store %"alloc::vec::Vec<i32>"* %_1, %"alloc::vec::Vec<i32>"** %_1.dbg.spill, align 8
  call void @llvm.dbg.declare(metadata %"alloc::vec::Vec<i32>"** %_1.dbg.spill, metadata !517, metadata !DIExpression()), !dbg !520
; invoke <alloc::vec::Vec<T,A> as core::ops::drop::Drop>::drop
  invoke void @"_ZN70_$LT$alloc..vec..Vec$LT$T$C$A$GT$$u20$as$u20$core..ops..drop..Drop$GT$4drop17ha318a52392c3d6c2E"(%"alloc::vec::Vec<i32>"* align 8 %_1)
          to label %bb4 unwind label %cleanup, !dbg !520

bb3:                                              ; preds = %cleanup
  %1 = bitcast %"alloc::vec::Vec<i32>"* %_1 to { i32*, i64 }*, !dbg !520
; invoke core::ptr::drop_in_place<alloc::raw_vec::RawVec<i32>>
  invoke void @"_ZN4core3ptr54drop_in_place$LT$alloc..raw_vec..RawVec$LT$i32$GT$$GT$17h4998464082cbdf77E"({ i32*, i64 }* %1) #14
          to label %bb1 unwind label %abort, !dbg !520

cleanup:                                          ; preds = %start
  %2 = landingpad { i8*, i32 }
          cleanup
  %3 = extractvalue { i8*, i32 } %2, 0
  %4 = extractvalue { i8*, i32 } %2, 1
  %5 = getelementptr inbounds { i8*, i32 }, { i8*, i32 }* %0, i32 0, i32 0
  store i8* %3, i8** %5, align 8
  %6 = getelementptr inbounds { i8*, i32 }, { i8*, i32 }* %0, i32 0, i32 1
  store i32 %4, i32* %6, align 8
  br label %bb3

bb4:                                              ; preds = %start
  %7 = bitcast %"alloc::vec::Vec<i32>"* %_1 to { i32*, i64 }*, !dbg !520
; call core::ptr::drop_in_place<alloc::raw_vec::RawVec<i32>>
  call void @"_ZN4core3ptr54drop_in_place$LT$alloc..raw_vec..RawVec$LT$i32$GT$$GT$17h4998464082cbdf77E"({ i32*, i64 }* %7), !dbg !520
  br label %bb2, !dbg !520

abort:                                            ; preds = %bb3
  %8 = landingpad { i8*, i32 }
          cleanup, !dbg !520
; call core::panicking::panic_no_unwind
  call void @_ZN4core9panicking15panic_no_unwind17h62f8113f44cbfcbfE() #15, !dbg !520
  unreachable, !dbg !520

bb1:                                              ; preds = %bb3
  %9 = bitcast { i8*, i32 }* %0 to i8**, !dbg !520
  %10 = load i8*, i8** %9, align 8, !dbg !520
  %11 = getelementptr inbounds { i8*, i32 }, { i8*, i32 }* %0, i32 0, i32 1, !dbg !520
  %12 = load i32, i32* %11, align 8, !dbg !520
  %13 = insertvalue { i8*, i32 } undef, i8* %10, 0, !dbg !520
  %14 = insertvalue { i8*, i32 } %13, i32 %12, 1, !dbg !520
  resume { i8*, i32 } %14, !dbg !520

bb2:                                              ; preds = %bb4
  ret void, !dbg !520
}

; core::ptr::drop_in_place<alloc::raw_vec::RawVec<i32>>
; Function Attrs: nonlazybind uwtable
define void @"_ZN4core3ptr54drop_in_place$LT$alloc..raw_vec..RawVec$LT$i32$GT$$GT$17h4998464082cbdf77E"({ i32*, i64 }* %_1) unnamed_addr #1 !dbg !521 {
start:
  %_1.dbg.spill = alloca { i32*, i64 }*, align 8
  store { i32*, i64 }* %_1, { i32*, i64 }** %_1.dbg.spill, align 8
  call void @llvm.dbg.declare(metadata { i32*, i64 }** %_1.dbg.spill, metadata !526, metadata !DIExpression()), !dbg !529
; call <alloc::raw_vec::RawVec<T,A> as core::ops::drop::Drop>::drop
  call void @"_ZN77_$LT$alloc..raw_vec..RawVec$LT$T$C$A$GT$$u20$as$u20$core..ops..drop..Drop$GT$4drop17h9dceb56ffb35bde6E"({ i32*, i64 }* align 8 %_1), !dbg !529
  br label %bb1, !dbg !529

bb1:                                              ; preds = %start
  ret void, !dbg !529
}

; core::ptr::drop_in_place<alloc::vec::set_len_on_drop::SetLenOnDrop>
; Function Attrs: nonlazybind uwtable
define void @"_ZN4core3ptr62drop_in_place$LT$alloc..vec..set_len_on_drop..SetLenOnDrop$GT$17h57968b12f1470d59E"({ i64*, i64 }* %_1) unnamed_addr #1 !dbg !530 {
start:
  %_1.dbg.spill = alloca { i64*, i64 }*, align 8
  store { i64*, i64 }* %_1, { i64*, i64 }** %_1.dbg.spill, align 8
  call void @llvm.dbg.declare(metadata { i64*, i64 }** %_1.dbg.spill, metadata !540, metadata !DIExpression()), !dbg !543
; call <alloc::vec::set_len_on_drop::SetLenOnDrop as core::ops::drop::Drop>::drop
  call void @"_ZN83_$LT$alloc..vec..set_len_on_drop..SetLenOnDrop$u20$as$u20$core..ops..drop..Drop$GT$4drop17he4ce0836a4af85b3E"({ i64*, i64 }* align 8 %_1), !dbg !543
  br label %bb1, !dbg !543

bb1:                                              ; preds = %start
  ret void, !dbg !543
}

; core::ptr::drop_in_place<alloc::vec::Vec<[i32; 4]>>
; Function Attrs: nonlazybind uwtable
define void @"_ZN4core3ptr68drop_in_place$LT$alloc..vec..Vec$LT$$u5b$i32$u3b$$u20$4$u5d$$GT$$GT$17h84f528dcddbb26ccE"(%"alloc::vec::Vec<[i32; 4]>"* %_1) unnamed_addr #1 personality i32 (i32, i32, i64, %"unwind::libunwind::_Unwind_Exception"*, %"unwind::libunwind::_Unwind_Context"*)* @rust_eh_personality !dbg !544 {
start:
  %0 = alloca { i8*, i32 }, align 8
  %_1.dbg.spill = alloca %"alloc::vec::Vec<[i32; 4]>"*, align 8
  store %"alloc::vec::Vec<[i32; 4]>"* %_1, %"alloc::vec::Vec<[i32; 4]>"** %_1.dbg.spill, align 8
  call void @llvm.dbg.declare(metadata %"alloc::vec::Vec<[i32; 4]>"** %_1.dbg.spill, metadata !570, metadata !DIExpression()), !dbg !573
; invoke <alloc::vec::Vec<T,A> as core::ops::drop::Drop>::drop
  invoke void @"_ZN70_$LT$alloc..vec..Vec$LT$T$C$A$GT$$u20$as$u20$core..ops..drop..Drop$GT$4drop17h7576b11b66c3a924E"(%"alloc::vec::Vec<[i32; 4]>"* align 8 %_1)
          to label %bb4 unwind label %cleanup, !dbg !573

bb3:                                              ; preds = %cleanup
  %1 = bitcast %"alloc::vec::Vec<[i32; 4]>"* %_1 to { i32*, i64 }*, !dbg !573
; invoke core::ptr::drop_in_place<alloc::raw_vec::RawVec<[i32; 4]>>
  invoke void @"_ZN4core3ptr75drop_in_place$LT$alloc..raw_vec..RawVec$LT$$u5b$i32$u3b$$u20$4$u5d$$GT$$GT$17h2d7cdd5085a747a3E"({ i32*, i64 }* %1) #14
          to label %bb1 unwind label %abort, !dbg !573

cleanup:                                          ; preds = %start
  %2 = landingpad { i8*, i32 }
          cleanup
  %3 = extractvalue { i8*, i32 } %2, 0
  %4 = extractvalue { i8*, i32 } %2, 1
  %5 = getelementptr inbounds { i8*, i32 }, { i8*, i32 }* %0, i32 0, i32 0
  store i8* %3, i8** %5, align 8
  %6 = getelementptr inbounds { i8*, i32 }, { i8*, i32 }* %0, i32 0, i32 1
  store i32 %4, i32* %6, align 8
  br label %bb3

bb4:                                              ; preds = %start
  %7 = bitcast %"alloc::vec::Vec<[i32; 4]>"* %_1 to { i32*, i64 }*, !dbg !573
; call core::ptr::drop_in_place<alloc::raw_vec::RawVec<[i32; 4]>>
  call void @"_ZN4core3ptr75drop_in_place$LT$alloc..raw_vec..RawVec$LT$$u5b$i32$u3b$$u20$4$u5d$$GT$$GT$17h2d7cdd5085a747a3E"({ i32*, i64 }* %7), !dbg !573
  br label %bb2, !dbg !573

abort:                                            ; preds = %bb3
  %8 = landingpad { i8*, i32 }
          cleanup, !dbg !573
; call core::panicking::panic_no_unwind
  call void @_ZN4core9panicking15panic_no_unwind17h62f8113f44cbfcbfE() #15, !dbg !573
  unreachable, !dbg !573

bb1:                                              ; preds = %bb3
  %9 = bitcast { i8*, i32 }* %0 to i8**, !dbg !573
  %10 = load i8*, i8** %9, align 8, !dbg !573
  %11 = getelementptr inbounds { i8*, i32 }, { i8*, i32 }* %0, i32 0, i32 1, !dbg !573
  %12 = load i32, i32* %11, align 8, !dbg !573
  %13 = insertvalue { i8*, i32 } undef, i8* %10, 0, !dbg !573
  %14 = insertvalue { i8*, i32 } %13, i32 %12, 1, !dbg !573
  resume { i8*, i32 } %14, !dbg !573

bb2:                                              ; preds = %bb4
  ret void, !dbg !573
}

; core::ptr::drop_in_place<alloc::raw_vec::RawVec<[i32; 4]>>
; Function Attrs: nonlazybind uwtable
define void @"_ZN4core3ptr75drop_in_place$LT$alloc..raw_vec..RawVec$LT$$u5b$i32$u3b$$u20$4$u5d$$GT$$GT$17h2d7cdd5085a747a3E"({ i32*, i64 }* %_1) unnamed_addr #1 !dbg !574 {
start:
  %_1.dbg.spill = alloca { i32*, i64 }*, align 8
  store { i32*, i64 }* %_1, { i32*, i64 }** %_1.dbg.spill, align 8
  call void @llvm.dbg.declare(metadata { i32*, i64 }** %_1.dbg.spill, metadata !579, metadata !DIExpression()), !dbg !582
; call <alloc::raw_vec::RawVec<T,A> as core::ops::drop::Drop>::drop
  call void @"_ZN77_$LT$alloc..raw_vec..RawVec$LT$T$C$A$GT$$u20$as$u20$core..ops..drop..Drop$GT$4drop17h1e93e291b533ad2aE"({ i32*, i64 }* align 8 %_1), !dbg !582
  br label %bb1, !dbg !582

bb1:                                              ; preds = %start
  ret void, !dbg !582
}

; core::ptr::non_null::NonNull<T>::new
; Function Attrs: inlinehint nonlazybind uwtable
define i8* @"_ZN4core3ptr8non_null16NonNull$LT$T$GT$3new17ha4b86d9adfd21983E"(i8* %ptr) unnamed_addr #0 !dbg !583 {
start:
  %ptr.dbg.spill2 = alloca i8*, align 8
  %0 = alloca i8, align 1
  %other.dbg.spill = alloca i8*, align 8
  %data_address.dbg.spill = alloca {}*, align 8
  %1 = alloca {}*, align 8
  %self.dbg.spill1 = alloca i8*, align 8
  %self.dbg.spill = alloca i8*, align 8
  %metadata.dbg.spill = alloca {}, align 1
  %ptr.dbg.spill = alloca i8*, align 8
  %_15 = alloca %"core::ptr::metadata::PtrComponents<u8>", align 8
  %_14 = alloca %"core::ptr::metadata::PtrRepr<u8>", align 8
  %_5 = alloca i8*, align 8
  %2 = alloca i8*, align 8
  store i8* %ptr, i8** %ptr.dbg.spill, align 8
  call void @llvm.dbg.declare(metadata i8** %ptr.dbg.spill, metadata !600, metadata !DIExpression()), !dbg !601
  call void @llvm.dbg.declare(metadata {}* %metadata.dbg.spill, metadata !602, metadata !DIExpression()), !dbg !612
  store i8* %ptr, i8** %self.dbg.spill, align 8, !dbg !627
  call void @llvm.dbg.declare(metadata i8** %self.dbg.spill, metadata !625, metadata !DIExpression()), !dbg !628
  store i8* %ptr, i8** %self.dbg.spill1, align 8, !dbg !628
  call void @llvm.dbg.declare(metadata i8** %self.dbg.spill1, metadata !629, metadata !DIExpression()), !dbg !636
  %3 = bitcast {}** %1 to i64*, !dbg !638
  store i64 0, i64* %3, align 8, !dbg !638
  %data_address = load {}*, {}** %1, align 8, !dbg !638
  store {}* %data_address, {}** %data_address.dbg.spill, align 8, !dbg !638
  call void @llvm.dbg.declare(metadata {}** %data_address.dbg.spill, metadata !611, metadata !DIExpression()), !dbg !612
  br label %bb4, !dbg !638

bb4:                                              ; preds = %start
  %4 = bitcast %"core::ptr::metadata::PtrComponents<u8>"* %_15 to {}**, !dbg !612
  store {}* %data_address, {}** %4, align 8, !dbg !612
  %5 = bitcast %"core::ptr::metadata::PtrRepr<u8>"* %_14 to %"core::ptr::metadata::PtrComponents<u8>"*, !dbg !612
  %6 = bitcast %"core::ptr::metadata::PtrComponents<u8>"* %5 to i8*, !dbg !612
  %7 = bitcast %"core::ptr::metadata::PtrComponents<u8>"* %_15 to i8*, !dbg !612
  call void @llvm.memcpy.p0i8.p0i8.i64(i8* align 8 %6, i8* align 8 %7, i64 8, i1 false), !dbg !612
  %8 = bitcast %"core::ptr::metadata::PtrRepr<u8>"* %_14 to i8**, !dbg !612
  %other = load i8*, i8** %8, align 8, !dbg !612
  store i8* %other, i8** %other.dbg.spill, align 8, !dbg !612
  call void @llvm.dbg.declare(metadata i8** %other.dbg.spill, metadata !635, metadata !DIExpression()), !dbg !636
  %9 = icmp eq i8* %ptr, %other, !dbg !636
  %10 = zext i1 %9 to i8, !dbg !636
  store i8 %10, i8* %0, align 1, !dbg !636
  %11 = load i8, i8* %0, align 1, !dbg !636, !range !246, !noundef !123
  %_3 = trunc i8 %11 to i1, !dbg !636
  br label %bb5, !dbg !636

bb5:                                              ; preds = %bb4
  %_2 = xor i1 %_3, true, !dbg !648
  br i1 %_2, label %bb1, label %bb2, !dbg !648

bb2:                                              ; preds = %bb5
  %12 = bitcast i8** %2 to {}**, !dbg !649
  store {}* null, {}** %12, align 8, !dbg !649
  br label %bb3, !dbg !650

bb1:                                              ; preds = %bb5
  store i8* %ptr, i8** %ptr.dbg.spill2, align 8, !dbg !651
  call void @llvm.dbg.declare(metadata i8** %ptr.dbg.spill2, metadata !652, metadata !DIExpression()), !dbg !655
  store i8* %ptr, i8** %_5, align 8, !dbg !655
  %13 = load i8*, i8** %_5, align 8, !dbg !657, !nonnull !123, !noundef !123
  store i8* %13, i8** %2, align 8, !dbg !657
  br label %bb3, !dbg !650

bb3:                                              ; preds = %bb2, %bb1
  %14 = load i8*, i8** %2, align 8, !dbg !658
  ret i8* %14, !dbg !658
}

; core::alloc::layout::Layout::from_size_valid_align
; Function Attrs: inlinehint nonlazybind uwtable
define internal { i64, i64 } @_ZN4core5alloc6layout6Layout21from_size_valid_align17hd870c473a7a6d79eE(i64 %size, i64 %align) unnamed_addr #0 !dbg !659 {
start:
  %n.dbg.spill = alloca i64, align 8
  %align.dbg.spill = alloca i64, align 8
  %size.dbg.spill = alloca i64, align 8
  %_11 = alloca { i64, i64 }, align 8
  %self1 = alloca i64, align 8
  %self = alloca i64, align 8
  %0 = alloca { i64, i64 }, align 8
  store i64 %size, i64* %size.dbg.spill, align 8
  call void @llvm.dbg.declare(metadata i64* %size.dbg.spill, metadata !682, metadata !DIExpression()), !dbg !684
  store i64 %align, i64* %align.dbg.spill, align 8
  call void @llvm.dbg.declare(metadata i64* %align.dbg.spill, metadata !683, metadata !DIExpression()), !dbg !685
  call void @llvm.dbg.declare(metadata i64* %self, metadata !686, metadata !DIExpression()), !dbg !697
  call void @llvm.dbg.declare(metadata i64* %self1, metadata !699, metadata !DIExpression()), !dbg !706
  store i64 %align, i64* %self1, align 8, !dbg !698
  %_15 = load i64, i64* %self1, align 8, !dbg !706, !range !707, !noundef !123
  store i64 %_15, i64* %n.dbg.spill, align 8, !dbg !706
  call void @llvm.dbg.declare(metadata i64* %n.dbg.spill, metadata !708, metadata !DIExpression()), !dbg !723
  store i64 %_15, i64* %self, align 8, !dbg !723
  %_8 = load i64, i64* %self, align 8, !dbg !697
  %_7 = sub i64 %_8, 1, !dbg !725
  %_5 = sub i64 9223372036854775807, %_7, !dbg !726
  %_3 = icmp ugt i64 %size, %_5, !dbg !727
  br i1 %_3, label %bb1, label %bb2, !dbg !727

bb2:                                              ; preds = %start
  %1 = bitcast { i64, i64 }* %_11 to i64*, !dbg !728
  store i64 %size, i64* %1, align 8, !dbg !728
  %2 = getelementptr inbounds { i64, i64 }, { i64, i64 }* %_11, i32 0, i32 1, !dbg !728
  store i64 %align, i64* %2, align 8, !dbg !728
  %3 = getelementptr inbounds { i64, i64 }, { i64, i64 }* %_11, i32 0, i32 0, !dbg !729
  %4 = load i64, i64* %3, align 8, !dbg !729
  %5 = getelementptr inbounds { i64, i64 }, { i64, i64 }* %_11, i32 0, i32 1, !dbg !729
  %6 = load i64, i64* %5, align 8, !dbg !729, !range !707, !noundef !123
  %7 = getelementptr inbounds { i64, i64 }, { i64, i64 }* %0, i32 0, i32 0, !dbg !729
  store i64 %4, i64* %7, align 8, !dbg !729
  %8 = getelementptr inbounds { i64, i64 }, { i64, i64 }* %0, i32 0, i32 1, !dbg !729
  store i64 %6, i64* %8, align 8, !dbg !729
  br label %bb3, !dbg !730

bb1:                                              ; preds = %start
  %9 = getelementptr inbounds { i64, i64 }, { i64, i64 }* %0, i32 0, i32 1, !dbg !731
  store i64 0, i64* %9, align 8, !dbg !731
  br label %bb3, !dbg !730

bb3:                                              ; preds = %bb2, %bb1
  %10 = getelementptr inbounds { i64, i64 }, { i64, i64 }* %0, i32 0, i32 0, !dbg !730
  %11 = load i64, i64* %10, align 8, !dbg !730
  %12 = getelementptr inbounds { i64, i64 }, { i64, i64 }* %0, i32 0, i32 1, !dbg !730
  %13 = load i64, i64* %12, align 8, !dbg !730, !range !189, !noundef !123
  %14 = insertvalue { i64, i64 } undef, i64 %11, 0, !dbg !730
  %15 = insertvalue { i64, i64 } %14, i64 %13, 1, !dbg !730
  ret { i64, i64 } %15, !dbg !730
}

; core::alloc::layout::Layout::array
; Function Attrs: inlinehint nonlazybind uwtable
define { i64, i64 } @_ZN4core5alloc6layout6Layout5array17h8f252bdfe3f629e5E(i64 %n) unnamed_addr #0 !dbg !732 {
start:
  %0 = alloca i64, align 8
  %align.dbg.spill = alloca i64, align 8
  %array_size.dbg.spill = alloca i64, align 8
  %val.dbg.spill = alloca i64, align 8
  %v.dbg.spill5 = alloca i64, align 8
  %v.dbg.spill = alloca i64, align 8
  %e.dbg.spill3 = alloca %"core::alloc::layout::LayoutError", align 1
  %e.dbg.spill = alloca %"core::alloc::layout::LayoutError", align 1
  %residual.dbg.spill2 = alloca %"core::result::Result<core::convert::Infallible, core::alloc::layout::LayoutError>::Err", align 1
  %residual.dbg.spill = alloca %"core::result::Result<core::convert::Infallible, core::alloc::layout::LayoutError>::Err", align 1
  %err.dbg.spill = alloca %"core::alloc::layout::LayoutError", align 1
  %n.dbg.spill = alloca i64, align 8
  %self1 = alloca { i64, i64 }, align 8
  %self = alloca { i64, i64 }, align 8
  %_3 = alloca { i64, i64 }, align 8
  %1 = alloca { i64, i64 }, align 8
  store i64 %n, i64* %n.dbg.spill, align 8
  call void @llvm.dbg.declare(metadata i64* %n.dbg.spill, metadata !736, metadata !DIExpression()), !dbg !761
  call void @llvm.dbg.declare(metadata { i64, i64 }* %self, metadata !762, metadata !DIExpression()), !dbg !807
  call void @llvm.dbg.declare(metadata { i64, i64 }* %self1, metadata !809, metadata !DIExpression()), !dbg !820
  call void @llvm.dbg.declare(metadata %"core::alloc::layout::LayoutError"* %err.dbg.spill, metadata !816, metadata !DIExpression()), !dbg !820
  call void @llvm.dbg.declare(metadata %"core::result::Result<core::convert::Infallible, core::alloc::layout::LayoutError>::Err"* %residual.dbg.spill, metadata !739, metadata !DIExpression()), !dbg !821
  call void @llvm.dbg.declare(metadata %"core::result::Result<core::convert::Infallible, core::alloc::layout::LayoutError>::Err"* %residual.dbg.spill2, metadata !822, metadata !DIExpression()), !dbg !834
  call void @llvm.dbg.declare(metadata %"core::alloc::layout::LayoutError"* %e.dbg.spill, metadata !804, metadata !DIExpression()), !dbg !836
  call void @llvm.dbg.declare(metadata %"core::alloc::layout::LayoutError"* %e.dbg.spill3, metadata !829, metadata !DIExpression()), !dbg !837
; call core::num::<impl usize>::checked_mul
  %2 = call { i64, i64 } @"_ZN4core3num23_$LT$impl$u20$usize$GT$11checked_mul17h9579ae8beda77501E"(i64 4, i64 %n), !dbg !808
  store { i64, i64 } %2, { i64, i64 }* %self1, align 8, !dbg !808
  br label %bb1, !dbg !808

bb1:                                              ; preds = %start
  %3 = bitcast { i64, i64 }* %self1 to i64*, !dbg !820
  %_15 = load i64, i64* %3, align 8, !dbg !820, !range !435, !noundef !123
  switch i64 %_15, label %bb9 [
    i64 0, label %bb8
    i64 1, label %bb10
  ], !dbg !820

bb9:                                              ; preds = %bb1
  unreachable, !dbg !820

bb8:                                              ; preds = %bb1
  %4 = bitcast { i64, i64 }* %self to i64*, !dbg !820
  store i64 1, i64* %4, align 8, !dbg !820
  br label %bb11, !dbg !820

bb10:                                             ; preds = %bb1
  %5 = getelementptr inbounds { i64, i64 }, { i64, i64 }* %self1, i32 0, i32 1, !dbg !820
  %v = load i64, i64* %5, align 8, !dbg !820
  store i64 %v, i64* %v.dbg.spill, align 8, !dbg !820
  call void @llvm.dbg.declare(metadata i64* %v.dbg.spill, metadata !817, metadata !DIExpression()), !dbg !838
  %6 = getelementptr inbounds { i64, i64 }, { i64, i64 }* %self, i32 0, i32 1, !dbg !838
  store i64 %v, i64* %6, align 8, !dbg !838
  %7 = bitcast { i64, i64 }* %self to i64*, !dbg !838
  store i64 0, i64* %7, align 8, !dbg !838
  br label %bb11, !dbg !820

bb11:                                             ; preds = %bb8, %bb10
  %8 = bitcast { i64, i64 }* %self to i64*, !dbg !807
  %_18 = load i64, i64* %8, align 8, !dbg !807, !range !435, !noundef !123
  switch i64 %_18, label %bb13 [
    i64 0, label %bb14
    i64 1, label %bb12
  ], !dbg !807

bb13:                                             ; preds = %bb11
  unreachable, !dbg !807

bb14:                                             ; preds = %bb11
  %9 = getelementptr inbounds { i64, i64 }, { i64, i64 }* %self, i32 0, i32 1, !dbg !807
  %v4 = load i64, i64* %9, align 8, !dbg !807
  store i64 %v4, i64* %v.dbg.spill5, align 8, !dbg !807
  call void @llvm.dbg.declare(metadata i64* %v.dbg.spill5, metadata !801, metadata !DIExpression()), !dbg !839
  %10 = getelementptr inbounds { i64, i64 }, { i64, i64 }* %_3, i32 0, i32 1, !dbg !839
  store i64 %v4, i64* %10, align 8, !dbg !839
  %11 = bitcast { i64, i64 }* %_3 to i64*, !dbg !839
  store i64 0, i64* %11, align 8, !dbg !839
  br label %bb2, !dbg !807

bb12:                                             ; preds = %bb11
  %12 = bitcast { i64, i64 }* %_3 to i64*, !dbg !836
  store i64 1, i64* %12, align 8, !dbg !836
  br label %bb2, !dbg !807

bb2:                                              ; preds = %bb14, %bb12
  %13 = bitcast { i64, i64 }* %_3 to i64*, !dbg !808
  %_9 = load i64, i64* %13, align 8, !dbg !808, !range !435, !noundef !123
  switch i64 %_9, label %bb4 [
    i64 0, label %bb3
    i64 1, label %bb5
  ], !dbg !808

bb4:                                              ; preds = %bb2
  unreachable, !dbg !808

bb3:                                              ; preds = %bb2
  %14 = getelementptr inbounds { i64, i64 }, { i64, i64 }* %_3, i32 0, i32 1, !dbg !808
  %val = load i64, i64* %14, align 8, !dbg !808
  store i64 %val, i64* %val.dbg.spill, align 8, !dbg !808
  call void @llvm.dbg.declare(metadata i64* %val.dbg.spill, metadata !759, metadata !DIExpression()), !dbg !840
  store i64 %val, i64* %array_size.dbg.spill, align 8, !dbg !840
  call void @llvm.dbg.declare(metadata i64* %array_size.dbg.spill, metadata !737, metadata !DIExpression()), !dbg !841
  store i64 4, i64* %align.dbg.spill, align 8, !dbg !842
  call void @llvm.dbg.declare(metadata i64* %align.dbg.spill, metadata !852, metadata !DIExpression()), !dbg !866
  store i64 4, i64* %0, align 8, !dbg !866
  %_14 = load i64, i64* %0, align 8, !dbg !866, !range !707, !noundef !123
  br label %bb15, !dbg !866

bb5:                                              ; preds = %bb2
; call <T as core::convert::From<T>>::from
  call void @"_ZN50_$LT$T$u20$as$u20$core..convert..From$LT$T$GT$$GT$4from17h99cc38833a499c29E"(), !dbg !837
  br label %bb16, !dbg !837

bb16:                                             ; preds = %bb5
  %15 = getelementptr inbounds { i64, i64 }, { i64, i64 }* %1, i32 0, i32 1, !dbg !837
  store i64 0, i64* %15, align 8, !dbg !837
  br label %bb7, !dbg !868

bb7:                                              ; preds = %bb6, %bb16
  %16 = getelementptr inbounds { i64, i64 }, { i64, i64 }* %1, i32 0, i32 0, !dbg !868
  %17 = load i64, i64* %16, align 8, !dbg !868
  %18 = getelementptr inbounds { i64, i64 }, { i64, i64 }* %1, i32 0, i32 1, !dbg !868
  %19 = load i64, i64* %18, align 8, !dbg !868, !range !189, !noundef !123
  %20 = insertvalue { i64, i64 } undef, i64 %17, 0, !dbg !868
  %21 = insertvalue { i64, i64 } %20, i64 %19, 1, !dbg !868
  ret { i64, i64 } %21, !dbg !868

bb15:                                             ; preds = %bb3
; call core::alloc::layout::Layout::from_size_valid_align
  %22 = call { i64, i64 } @_ZN4core5alloc6layout6Layout21from_size_valid_align17hd870c473a7a6d79eE(i64 %val, i64 %_14), !dbg !869
  store { i64, i64 } %22, { i64, i64 }* %1, align 8, !dbg !869
  br label %bb6, !dbg !869

bb6:                                              ; preds = %bb15
  br label %bb7, !dbg !868
}

; core::alloc::layout::Layout::array
; Function Attrs: inlinehint nonlazybind uwtable
define { i64, i64 } @_ZN4core5alloc6layout6Layout5array17ha667375df05f58c1E(i64 %n) unnamed_addr #0 !dbg !870 {
start:
  %0 = alloca i64, align 8
  %align.dbg.spill = alloca i64, align 8
  %array_size.dbg.spill = alloca i64, align 8
  %val.dbg.spill = alloca i64, align 8
  %v.dbg.spill5 = alloca i64, align 8
  %v.dbg.spill = alloca i64, align 8
  %e.dbg.spill3 = alloca %"core::alloc::layout::LayoutError", align 1
  %e.dbg.spill = alloca %"core::alloc::layout::LayoutError", align 1
  %residual.dbg.spill2 = alloca %"core::result::Result<core::convert::Infallible, core::alloc::layout::LayoutError>::Err", align 1
  %residual.dbg.spill = alloca %"core::result::Result<core::convert::Infallible, core::alloc::layout::LayoutError>::Err", align 1
  %err.dbg.spill = alloca %"core::alloc::layout::LayoutError", align 1
  %n.dbg.spill = alloca i64, align 8
  %self1 = alloca { i64, i64 }, align 8
  %self = alloca { i64, i64 }, align 8
  %_3 = alloca { i64, i64 }, align 8
  %1 = alloca { i64, i64 }, align 8
  store i64 %n, i64* %n.dbg.spill, align 8
  call void @llvm.dbg.declare(metadata i64* %n.dbg.spill, metadata !872, metadata !DIExpression()), !dbg !879
  call void @llvm.dbg.declare(metadata { i64, i64 }* %self, metadata !880, metadata !DIExpression()), !dbg !890
  call void @llvm.dbg.declare(metadata { i64, i64 }* %self1, metadata !892, metadata !DIExpression()), !dbg !900
  call void @llvm.dbg.declare(metadata %"core::alloc::layout::LayoutError"* %err.dbg.spill, metadata !896, metadata !DIExpression()), !dbg !900
  call void @llvm.dbg.declare(metadata %"core::result::Result<core::convert::Infallible, core::alloc::layout::LayoutError>::Err"* %residual.dbg.spill, metadata !875, metadata !DIExpression()), !dbg !901
  call void @llvm.dbg.declare(metadata %"core::result::Result<core::convert::Infallible, core::alloc::layout::LayoutError>::Err"* %residual.dbg.spill2, metadata !902, metadata !DIExpression()), !dbg !909
  call void @llvm.dbg.declare(metadata %"core::alloc::layout::LayoutError"* %e.dbg.spill, metadata !887, metadata !DIExpression()), !dbg !911
  call void @llvm.dbg.declare(metadata %"core::alloc::layout::LayoutError"* %e.dbg.spill3, metadata !906, metadata !DIExpression()), !dbg !912
; call core::num::<impl usize>::checked_mul
  %2 = call { i64, i64 } @"_ZN4core3num23_$LT$impl$u20$usize$GT$11checked_mul17h9579ae8beda77501E"(i64 16, i64 %n), !dbg !891
  store { i64, i64 } %2, { i64, i64 }* %self1, align 8, !dbg !891
  br label %bb1, !dbg !891

bb1:                                              ; preds = %start
  %3 = bitcast { i64, i64 }* %self1 to i64*, !dbg !900
  %_15 = load i64, i64* %3, align 8, !dbg !900, !range !435, !noundef !123
  switch i64 %_15, label %bb9 [
    i64 0, label %bb8
    i64 1, label %bb10
  ], !dbg !900

bb9:                                              ; preds = %bb1
  unreachable, !dbg !900

bb8:                                              ; preds = %bb1
  %4 = bitcast { i64, i64 }* %self to i64*, !dbg !900
  store i64 1, i64* %4, align 8, !dbg !900
  br label %bb11, !dbg !900

bb10:                                             ; preds = %bb1
  %5 = getelementptr inbounds { i64, i64 }, { i64, i64 }* %self1, i32 0, i32 1, !dbg !900
  %v = load i64, i64* %5, align 8, !dbg !900
  store i64 %v, i64* %v.dbg.spill, align 8, !dbg !900
  call void @llvm.dbg.declare(metadata i64* %v.dbg.spill, metadata !897, metadata !DIExpression()), !dbg !913
  %6 = getelementptr inbounds { i64, i64 }, { i64, i64 }* %self, i32 0, i32 1, !dbg !913
  store i64 %v, i64* %6, align 8, !dbg !913
  %7 = bitcast { i64, i64 }* %self to i64*, !dbg !913
  store i64 0, i64* %7, align 8, !dbg !913
  br label %bb11, !dbg !900

bb11:                                             ; preds = %bb8, %bb10
  %8 = bitcast { i64, i64 }* %self to i64*, !dbg !890
  %_18 = load i64, i64* %8, align 8, !dbg !890, !range !435, !noundef !123
  switch i64 %_18, label %bb13 [
    i64 0, label %bb14
    i64 1, label %bb12
  ], !dbg !890

bb13:                                             ; preds = %bb11
  unreachable, !dbg !890

bb14:                                             ; preds = %bb11
  %9 = getelementptr inbounds { i64, i64 }, { i64, i64 }* %self, i32 0, i32 1, !dbg !890
  %v4 = load i64, i64* %9, align 8, !dbg !890
  store i64 %v4, i64* %v.dbg.spill5, align 8, !dbg !890
  call void @llvm.dbg.declare(metadata i64* %v.dbg.spill5, metadata !884, metadata !DIExpression()), !dbg !914
  %10 = getelementptr inbounds { i64, i64 }, { i64, i64 }* %_3, i32 0, i32 1, !dbg !914
  store i64 %v4, i64* %10, align 8, !dbg !914
  %11 = bitcast { i64, i64 }* %_3 to i64*, !dbg !914
  store i64 0, i64* %11, align 8, !dbg !914
  br label %bb2, !dbg !890

bb12:                                             ; preds = %bb11
  %12 = bitcast { i64, i64 }* %_3 to i64*, !dbg !911
  store i64 1, i64* %12, align 8, !dbg !911
  br label %bb2, !dbg !890

bb2:                                              ; preds = %bb14, %bb12
  %13 = bitcast { i64, i64 }* %_3 to i64*, !dbg !891
  %_9 = load i64, i64* %13, align 8, !dbg !891, !range !435, !noundef !123
  switch i64 %_9, label %bb4 [
    i64 0, label %bb3
    i64 1, label %bb5
  ], !dbg !891

bb4:                                              ; preds = %bb2
  unreachable, !dbg !891

bb3:                                              ; preds = %bb2
  %14 = getelementptr inbounds { i64, i64 }, { i64, i64 }* %_3, i32 0, i32 1, !dbg !891
  %val = load i64, i64* %14, align 8, !dbg !891
  store i64 %val, i64* %val.dbg.spill, align 8, !dbg !891
  call void @llvm.dbg.declare(metadata i64* %val.dbg.spill, metadata !877, metadata !DIExpression()), !dbg !915
  store i64 %val, i64* %array_size.dbg.spill, align 8, !dbg !915
  call void @llvm.dbg.declare(metadata i64* %array_size.dbg.spill, metadata !873, metadata !DIExpression()), !dbg !916
  store i64 4, i64* %align.dbg.spill, align 8, !dbg !917
  call void @llvm.dbg.declare(metadata i64* %align.dbg.spill, metadata !923, metadata !DIExpression()), !dbg !930
  store i64 4, i64* %0, align 8, !dbg !930
  %_14 = load i64, i64* %0, align 8, !dbg !930, !range !707, !noundef !123
  br label %bb15, !dbg !930

bb5:                                              ; preds = %bb2
; call <T as core::convert::From<T>>::from
  call void @"_ZN50_$LT$T$u20$as$u20$core..convert..From$LT$T$GT$$GT$4from17h99cc38833a499c29E"(), !dbg !912
  br label %bb16, !dbg !912

bb16:                                             ; preds = %bb5
  %15 = getelementptr inbounds { i64, i64 }, { i64, i64 }* %1, i32 0, i32 1, !dbg !912
  store i64 0, i64* %15, align 8, !dbg !912
  br label %bb7, !dbg !932

bb7:                                              ; preds = %bb6, %bb16
  %16 = getelementptr inbounds { i64, i64 }, { i64, i64 }* %1, i32 0, i32 0, !dbg !932
  %17 = load i64, i64* %16, align 8, !dbg !932
  %18 = getelementptr inbounds { i64, i64 }, { i64, i64 }* %1, i32 0, i32 1, !dbg !932
  %19 = load i64, i64* %18, align 8, !dbg !932, !range !189, !noundef !123
  %20 = insertvalue { i64, i64 } undef, i64 %17, 0, !dbg !932
  %21 = insertvalue { i64, i64 } %20, i64 %19, 1, !dbg !932
  ret { i64, i64 } %21, !dbg !932

bb15:                                             ; preds = %bb3
; call core::alloc::layout::Layout::from_size_valid_align
  %22 = call { i64, i64 } @_ZN4core5alloc6layout6Layout21from_size_valid_align17hd870c473a7a6d79eE(i64 %val, i64 %_14), !dbg !933
  store { i64, i64 } %22, { i64, i64 }* %1, align 8, !dbg !933
  br label %bb6, !dbg !933

bb6:                                              ; preds = %bb15
  br label %bb7, !dbg !932
}

; core::array::<impl core::clone::Clone for [T; N]>::clone
; Function Attrs: inlinehint nonlazybind uwtable
define void @"_ZN4core5array71_$LT$impl$u20$core..clone..Clone$u20$for$u20$$u5b$T$u3b$$u20$N$u5d$$GT$5clone17h364a9f221a804600E"([4 x i32]* sret([4 x i32]) %0, [4 x i32]* align 4 %self) unnamed_addr #0 !dbg !934 {
start:
  %self.dbg.spill = alloca [4 x i32]*, align 8
  store [4 x i32]* %self, [4 x i32]** %self.dbg.spill, align 8
  call void @llvm.dbg.declare(metadata [4 x i32]** %self.dbg.spill, metadata !937, metadata !DIExpression()), !dbg !938
; call <T as core::array::SpecArrayClone>::clone
  call void @"_ZN49_$LT$T$u20$as$u20$core..array..SpecArrayClone$GT$5clone17haf9d4ae12312aaedE"([4 x i32]* sret([4 x i32]) %0, [4 x i32]* align 4 %self), !dbg !939
  br label %bb1, !dbg !939

bb1:                                              ; preds = %start
  ret void, !dbg !940
}

; core::clone::impls::<impl core::clone::Clone for i32>::clone
; Function Attrs: inlinehint nonlazybind uwtable
define internal i32 @"_ZN4core5clone5impls52_$LT$impl$u20$core..clone..Clone$u20$for$u20$i32$GT$5clone17hd75feb5e14295201E"(i32* align 4 %self) unnamed_addr #0 !dbg !941 {
start:
  %self.dbg.spill = alloca i32*, align 8
  store i32* %self, i32** %self.dbg.spill, align 8
  call void @llvm.dbg.declare(metadata i32** %self.dbg.spill, metadata !949, metadata !DIExpression()), !dbg !950
  %0 = load i32, i32* %self, align 4, !dbg !951
  ret i32 %0, !dbg !952
}

; core::clone::impls::<impl core::clone::Clone for usize>::clone
; Function Attrs: inlinehint nonlazybind uwtable
define internal i64 @"_ZN4core5clone5impls54_$LT$impl$u20$core..clone..Clone$u20$for$u20$usize$GT$5clone17h59ae0eee660f6e44E"(i64* align 8 %self) unnamed_addr #0 !dbg !953 {
start:
  %self.dbg.spill = alloca i64*, align 8
  store i64* %self, i64** %self.dbg.spill, align 8
  call void @llvm.dbg.declare(metadata i64** %self.dbg.spill, metadata !958, metadata !DIExpression()), !dbg !959
  %0 = load i64, i64* %self, align 8, !dbg !960
  ret i64 %0, !dbg !961
}

; core::slice::<impl [T]>::as_ptr
; Function Attrs: inlinehint nonlazybind uwtable
define i8* @"_ZN4core5slice29_$LT$impl$u20$$u5b$T$u5d$$GT$6as_ptr17h196fe6f8c6cd5b25E"([0 x i8]* align 1 %self.0, i64 %self.1) unnamed_addr #0 !dbg !962 {
start:
  %self.dbg.spill = alloca { [0 x i8]*, i64 }, align 8
  %0 = getelementptr inbounds { [0 x i8]*, i64 }, { [0 x i8]*, i64 }* %self.dbg.spill, i32 0, i32 0
  store [0 x i8]* %self.0, [0 x i8]** %0, align 8
  %1 = getelementptr inbounds { [0 x i8]*, i64 }, { [0 x i8]*, i64 }* %self.dbg.spill, i32 0, i32 1
  store i64 %self.1, i64* %1, align 8
  call void @llvm.dbg.declare(metadata { [0 x i8]*, i64 }* %self.dbg.spill, metadata !975, metadata !DIExpression()), !dbg !978
  %2 = bitcast [0 x i8]* %self.0 to i8*, !dbg !979
  ret i8* %2, !dbg !980
}

; core::slice::iter::Iter<T>::new
; Function Attrs: inlinehint nonlazybind uwtable
define { i32*, i32* } @"_ZN4core5slice4iter13Iter$LT$T$GT$3new17he36402a444777c62E"([0 x i32]* align 4 %slice.0, i64 %slice.1) unnamed_addr #0 !dbg !981 {
start:
  %ptr.dbg.spill11 = alloca i32*, align 8
  %0 = alloca i8*, align 8
  %count.dbg.spill10 = alloca i64, align 8
  %self.dbg.spill9 = alloca i8*, align 8
  %count.dbg.spill8 = alloca i64, align 8
  %self.dbg.spill7 = alloca i8*, align 8
  %count.dbg.spill5 = alloca i64, align 8
  %self.dbg.spill4 = alloca i32*, align 8
  %count.dbg.spill = alloca i64, align 8
  %self.dbg.spill3 = alloca i32*, align 8
  %1 = alloca i8, align 1
  %other.dbg.spill = alloca i8*, align 8
  %data_address.dbg.spill = alloca {}*, align 8
  %2 = alloca {}*, align 8
  %self.dbg.spill2 = alloca i8*, align 8
  %self.dbg.spill1 = alloca i32*, align 8
  %ptr.dbg.spill = alloca i32*, align 8
  %self.dbg.spill = alloca { [0 x i32]*, i64 }, align 8
  %metadata.dbg.spill = alloca {}, align 1
  %slice.dbg.spill = alloca { [0 x i32]*, i64 }, align 8
  %_31 = alloca %"core::ptr::metadata::PtrComponents<u8>", align 8
  %_30 = alloca %"core::ptr::metadata::PtrRepr<u8>", align 8
  %_18 = alloca i32*, align 8
  %end = alloca i32*, align 8
  %3 = alloca { i32*, i32* }, align 8
  %4 = getelementptr inbounds { [0 x i32]*, i64 }, { [0 x i32]*, i64 }* %slice.dbg.spill, i32 0, i32 0
  store [0 x i32]* %slice.0, [0 x i32]** %4, align 8
  %5 = getelementptr inbounds { [0 x i32]*, i64 }, { [0 x i32]*, i64 }* %slice.dbg.spill, i32 0, i32 1
  store i64 %slice.1, i64* %5, align 8
  call void @llvm.dbg.declare(metadata { [0 x i32]*, i64 }* %slice.dbg.spill, metadata !1000, metadata !DIExpression()), !dbg !1005
  call void @llvm.dbg.declare(metadata i32** %end, metadata !1003, metadata !DIExpression()), !dbg !1006
  call void @llvm.dbg.declare(metadata {}* %metadata.dbg.spill, metadata !1007, metadata !DIExpression()), !dbg !1015
  %6 = getelementptr inbounds { [0 x i32]*, i64 }, { [0 x i32]*, i64 }* %self.dbg.spill, i32 0, i32 0, !dbg !1031
  store [0 x i32]* %slice.0, [0 x i32]** %6, align 8, !dbg !1031
  %7 = getelementptr inbounds { [0 x i32]*, i64 }, { [0 x i32]*, i64 }* %self.dbg.spill, i32 0, i32 1, !dbg !1031
  store i64 %slice.1, i64* %7, align 8, !dbg !1031
  call void @llvm.dbg.declare(metadata { [0 x i32]*, i64 }* %self.dbg.spill, metadata !1032, metadata !DIExpression()), !dbg !1038
  %ptr = bitcast [0 x i32]* %slice.0 to i32*, !dbg !1038
  store i32* %ptr, i32** %ptr.dbg.spill, align 8, !dbg !1038
  call void @llvm.dbg.declare(metadata i32** %ptr.dbg.spill, metadata !1001, metadata !DIExpression()), !dbg !1039
  store i32* %ptr, i32** %self.dbg.spill1, align 8, !dbg !1030
  call void @llvm.dbg.declare(metadata i32** %self.dbg.spill1, metadata !1028, metadata !DIExpression()), !dbg !1040
  %self = bitcast i32* %ptr to i8*, !dbg !1040
  store i8* %self, i8** %self.dbg.spill2, align 8, !dbg !1040
  call void @llvm.dbg.declare(metadata i8** %self.dbg.spill2, metadata !1041, metadata !DIExpression()), !dbg !1048
  %8 = bitcast {}** %2 to i64*, !dbg !1050
  store i64 0, i64* %8, align 8, !dbg !1050
  %data_address = load {}*, {}** %2, align 8, !dbg !1050
  store {}* %data_address, {}** %data_address.dbg.spill, align 8, !dbg !1050
  call void @llvm.dbg.declare(metadata {}** %data_address.dbg.spill, metadata !1014, metadata !DIExpression()), !dbg !1015
  br label %bb5, !dbg !1050

bb5:                                              ; preds = %start
  %9 = bitcast %"core::ptr::metadata::PtrComponents<u8>"* %_31 to {}**, !dbg !1015
  store {}* %data_address, {}** %9, align 8, !dbg !1015
  %10 = bitcast %"core::ptr::metadata::PtrRepr<u8>"* %_30 to %"core::ptr::metadata::PtrComponents<u8>"*, !dbg !1015
  %11 = bitcast %"core::ptr::metadata::PtrComponents<u8>"* %10 to i8*, !dbg !1015
  %12 = bitcast %"core::ptr::metadata::PtrComponents<u8>"* %_31 to i8*, !dbg !1015
  call void @llvm.memcpy.p0i8.p0i8.i64(i8* align 8 %11, i8* align 8 %12, i64 8, i1 false), !dbg !1015
  %13 = bitcast %"core::ptr::metadata::PtrRepr<u8>"* %_30 to i8**, !dbg !1015
  %other = load i8*, i8** %13, align 8, !dbg !1015
  store i8* %other, i8** %other.dbg.spill, align 8, !dbg !1015
  call void @llvm.dbg.declare(metadata i8** %other.dbg.spill, metadata !1047, metadata !DIExpression()), !dbg !1048
  %14 = icmp eq i8* %self, %other, !dbg !1048
  %15 = zext i1 %14 to i8, !dbg !1048
  store i8 %15, i8* %1, align 1, !dbg !1048
  %16 = load i8, i8* %1, align 1, !dbg !1048, !range !246, !noundef !123
  %_6 = trunc i8 %16 to i1, !dbg !1048
  br label %bb6, !dbg !1048

bb6:                                              ; preds = %bb5
  %_5 = xor i1 %_6, true, !dbg !1058
  call void @llvm.assume(i1 %_5), !dbg !1059
  br label %bb1, !dbg !1059

bb1:                                              ; preds = %bb6
  br i1 false, label %bb2, label %bb3, !dbg !1060

bb2:                                              ; preds = %bb1
  %self6 = bitcast i32* %ptr to i8*, !dbg !1061
  store i8* %self6, i8** %self.dbg.spill7, align 8, !dbg !1061
  call void @llvm.dbg.declare(metadata i8** %self.dbg.spill7, metadata !1062, metadata !DIExpression()), !dbg !1069
  store i64 %slice.1, i64* %count.dbg.spill8, align 8, !dbg !1070
  call void @llvm.dbg.declare(metadata i64* %count.dbg.spill8, metadata !1068, metadata !DIExpression()), !dbg !1069
  store i8* %self6, i8** %self.dbg.spill9, align 8, !dbg !1069
  call void @llvm.dbg.declare(metadata i8** %self.dbg.spill9, metadata !1071, metadata !DIExpression()), !dbg !1079
  store i64 %slice.1, i64* %count.dbg.spill10, align 8, !dbg !1069
  call void @llvm.dbg.declare(metadata i64* %count.dbg.spill10, metadata !1078, metadata !DIExpression()), !dbg !1079
  %17 = getelementptr i8, i8* %self6, i64 %slice.1, !dbg !1079
  store i8* %17, i8** %0, align 8, !dbg !1079
  %_10 = load i8*, i8** %0, align 8, !dbg !1079
  br label %bb7, !dbg !1079

bb3:                                              ; preds = %bb1
  store i32* %ptr, i32** %self.dbg.spill3, align 8, !dbg !1081
  call void @llvm.dbg.declare(metadata i32** %self.dbg.spill3, metadata !1082, metadata !DIExpression()), !dbg !1089
  store i64 %slice.1, i64* %count.dbg.spill, align 8, !dbg !1090
  call void @llvm.dbg.declare(metadata i64* %count.dbg.spill, metadata !1088, metadata !DIExpression()), !dbg !1089
  store i32* %ptr, i32** %self.dbg.spill4, align 8, !dbg !1089
  call void @llvm.dbg.declare(metadata i32** %self.dbg.spill4, metadata !1091, metadata !DIExpression()), !dbg !1098
  store i64 %slice.1, i64* %count.dbg.spill5, align 8, !dbg !1089
  call void @llvm.dbg.declare(metadata i64* %count.dbg.spill5, metadata !1097, metadata !DIExpression()), !dbg !1098
  %18 = getelementptr inbounds i32, i32* %ptr, i64 %slice.1, !dbg !1098
  store i32* %18, i32** %end, align 8, !dbg !1098
  br label %bb8, !dbg !1098

bb8:                                              ; preds = %bb3
  br label %bb4, !dbg !1100

bb4:                                              ; preds = %bb7, %bb8
  store i32* %ptr, i32** %ptr.dbg.spill11, align 8, !dbg !1101
  call void @llvm.dbg.declare(metadata i32** %ptr.dbg.spill11, metadata !1102, metadata !DIExpression()), !dbg !1109
  store i32* %ptr, i32** %_18, align 8, !dbg !1109
  %_21 = load i32*, i32** %end, align 8, !dbg !1111
  %19 = bitcast { i32*, i32* }* %3 to i32**, !dbg !1112
  %20 = load i32*, i32** %_18, align 8, !dbg !1112, !nonnull !123, !noundef !123
  store i32* %20, i32** %19, align 8, !dbg !1112
  %21 = getelementptr inbounds { i32*, i32* }, { i32*, i32* }* %3, i32 0, i32 1, !dbg !1112
  store i32* %_21, i32** %21, align 8, !dbg !1112
  %22 = getelementptr inbounds { i32*, i32* }, { i32*, i32* }* %3, i32 0, i32 0, !dbg !1113
  %23 = load i32*, i32** %22, align 8, !dbg !1113, !nonnull !123, !noundef !123
  %24 = getelementptr inbounds { i32*, i32* }, { i32*, i32* }* %3, i32 0, i32 1, !dbg !1113
  %25 = load i32*, i32** %24, align 8, !dbg !1113
  %26 = insertvalue { i32*, i32* } undef, i32* %23, 0, !dbg !1113
  %27 = insertvalue { i32*, i32* } %26, i32* %25, 1, !dbg !1113
  ret { i32*, i32* } %27, !dbg !1113

bb7:                                              ; preds = %bb2
  %28 = bitcast i8* %_10 to i32*, !dbg !1061
  store i32* %28, i32** %end, align 8, !dbg !1061
  br label %bb4, !dbg !1100
}

; core::result::Result<T,E>::map_err
; Function Attrs: inlinehint nonlazybind uwtable
define void @"_ZN4core6result19Result$LT$T$C$E$GT$7map_err17h7e3983066fbbb5f7E"(%"core::result::Result<core::ptr::non_null::NonNull<[u8]>, alloc::collections::TryReserveError>"* sret(%"core::result::Result<core::ptr::non_null::NonNull<[u8]>, alloc::collections::TryReserveError>") %0, i8* %1, i64 %2, i64* align 8 %op) unnamed_addr #0 !dbg !1114 {
start:
  %t.dbg.spill = alloca { i8*, i64 }, align 8
  %e.dbg.spill = alloca %"core::alloc::AllocError", align 1
  %op.dbg.spill = alloca i64*, align 8
  %_11 = alloca i8, align 1
  %_9 = alloca { %"core::alloc::AllocError" }, align 1
  %self = alloca { i8*, i64 }, align 8
  %3 = getelementptr inbounds { i8*, i64 }, { i8*, i64 }* %self, i32 0, i32 0
  store i8* %1, i8** %3, align 8
  %4 = getelementptr inbounds { i8*, i64 }, { i8*, i64 }* %self, i32 0, i32 1
  store i64 %2, i64* %4, align 8
  call void @llvm.dbg.declare(metadata { i8*, i64 }* %self, metadata !1162, metadata !DIExpression()), !dbg !1171
  store i64* %op, i64** %op.dbg.spill, align 8
  call void @llvm.dbg.declare(metadata i64** %op.dbg.spill, metadata !1163, metadata !DIExpression()), !dbg !1172
  call void @llvm.dbg.declare(metadata %"core::alloc::AllocError"* %e.dbg.spill, metadata !1166, metadata !DIExpression()), !dbg !1173
  store i8 1, i8* %_11, align 1, !dbg !1174
  %5 = bitcast { i8*, i64 }* %self to {}**, !dbg !1174
  %6 = load {}*, {}** %5, align 8, !dbg !1174
  %7 = icmp eq {}* %6, null, !dbg !1174
  %_3 = select i1 %7, i64 1, i64 0, !dbg !1174
  switch i64 %_3, label %bb2 [
    i64 0, label %bb3
    i64 1, label %bb1
  ], !dbg !1175

bb2:                                              ; preds = %start
  unreachable, !dbg !1174

bb3:                                              ; preds = %start
  %8 = getelementptr inbounds { i8*, i64 }, { i8*, i64 }* %self, i32 0, i32 0, !dbg !1176
  %t.0 = load i8*, i8** %8, align 8, !dbg !1176, !nonnull !123, !noundef !123
  %9 = getelementptr inbounds { i8*, i64 }, { i8*, i64 }* %self, i32 0, i32 1, !dbg !1176
  %t.1 = load i64, i64* %9, align 8, !dbg !1176
  %10 = getelementptr inbounds { i8*, i64 }, { i8*, i64 }* %t.dbg.spill, i32 0, i32 0, !dbg !1176
  store i8* %t.0, i8** %10, align 8, !dbg !1176
  %11 = getelementptr inbounds { i8*, i64 }, { i8*, i64 }* %t.dbg.spill, i32 0, i32 1, !dbg !1176
  store i64 %t.1, i64* %11, align 8, !dbg !1176
  call void @llvm.dbg.declare(metadata { i8*, i64 }* %t.dbg.spill, metadata !1164, metadata !DIExpression()), !dbg !1177
  %12 = bitcast %"core::result::Result<core::ptr::non_null::NonNull<[u8]>, alloc::collections::TryReserveError>"* %0 to %"core::result::Result<core::ptr::non_null::NonNull<[u8]>, alloc::collections::TryReserveError>::Ok"*, !dbg !1178
  %13 = getelementptr inbounds %"core::result::Result<core::ptr::non_null::NonNull<[u8]>, alloc::collections::TryReserveError>::Ok", %"core::result::Result<core::ptr::non_null::NonNull<[u8]>, alloc::collections::TryReserveError>::Ok"* %12, i32 0, i32 1, !dbg !1178
  %14 = getelementptr inbounds { i8*, i64 }, { i8*, i64 }* %13, i32 0, i32 0, !dbg !1178
  store i8* %t.0, i8** %14, align 8, !dbg !1178
  %15 = getelementptr inbounds { i8*, i64 }, { i8*, i64 }* %13, i32 0, i32 1, !dbg !1178
  store i64 %t.1, i64* %15, align 8, !dbg !1178
  %16 = bitcast %"core::result::Result<core::ptr::non_null::NonNull<[u8]>, alloc::collections::TryReserveError>"* %0 to i64*, !dbg !1178
  store i64 0, i64* %16, align 8, !dbg !1178
  br label %bb7, !dbg !1179

bb1:                                              ; preds = %start
  store i8 0, i8* %_11, align 1, !dbg !1180
  %17 = bitcast { %"core::alloc::AllocError" }* %_9 to %"core::alloc::AllocError"*, !dbg !1180
; call alloc::raw_vec::finish_grow::{{closure}}
  %18 = call { i64, i64 } @"_ZN5alloc7raw_vec11finish_grow28_$u7b$$u7b$closure$u7d$$u7d$17h744cd256b77e8b6aE"(i64* align 8 %op), !dbg !1180
  %_7.0 = extractvalue { i64, i64 } %18, 0, !dbg !1180
  %_7.1 = extractvalue { i64, i64 } %18, 1, !dbg !1180
  br label %bb4, !dbg !1180

bb4:                                              ; preds = %bb1
  %19 = bitcast %"core::result::Result<core::ptr::non_null::NonNull<[u8]>, alloc::collections::TryReserveError>"* %0 to %"core::result::Result<core::ptr::non_null::NonNull<[u8]>, alloc::collections::TryReserveError>::Err"*, !dbg !1181
  %20 = getelementptr inbounds %"core::result::Result<core::ptr::non_null::NonNull<[u8]>, alloc::collections::TryReserveError>::Err", %"core::result::Result<core::ptr::non_null::NonNull<[u8]>, alloc::collections::TryReserveError>::Err"* %19, i32 0, i32 1, !dbg !1181
  %21 = getelementptr inbounds { i64, i64 }, { i64, i64 }* %20, i32 0, i32 0, !dbg !1181
  store i64 %_7.0, i64* %21, align 8, !dbg !1181
  %22 = getelementptr inbounds { i64, i64 }, { i64, i64 }* %20, i32 0, i32 1, !dbg !1181
  store i64 %_7.1, i64* %22, align 8, !dbg !1181
  %23 = bitcast %"core::result::Result<core::ptr::non_null::NonNull<[u8]>, alloc::collections::TryReserveError>"* %0 to i64*, !dbg !1181
  store i64 1, i64* %23, align 8, !dbg !1181
  br label %bb7, !dbg !1182

bb7:                                              ; preds = %bb3, %bb4
  %24 = load i8, i8* %_11, align 1, !dbg !1183, !range !246, !noundef !123
  %25 = trunc i8 %24 to i1, !dbg !1183
  br i1 %25, label %bb6, label %bb5, !dbg !1183

bb5:                                              ; preds = %bb6, %bb7
  ret void, !dbg !1184

bb6:                                              ; preds = %bb7
  br label %bb5, !dbg !1183
}

; core::result::Result<T,E>::map_err
; Function Attrs: inlinehint nonlazybind uwtable
define { i64, i64 } @"_ZN4core6result19Result$LT$T$C$E$GT$7map_err17hb96b30c662d6dd4eE"(i64 %0, i64 %1) unnamed_addr #0 !dbg !1185 {
start:
  %e.dbg.spill = alloca { i64, i64 }, align 8
  %t.dbg.spill = alloca {}, align 1
  %op.dbg.spill = alloca %"[closure@alloc::raw_vec::handle_reserve::{closure#0}]", align 1
  %_11 = alloca i8, align 1
  %_9 = alloca { i64, i64 }, align 8
  %2 = alloca { i64, i64 }, align 8
  %self = alloca { i64, i64 }, align 8
  %3 = getelementptr inbounds { i64, i64 }, { i64, i64 }* %self, i32 0, i32 0
  store i64 %0, i64* %3, align 8
  %4 = getelementptr inbounds { i64, i64 }, { i64, i64 }* %self, i32 0, i32 1
  store i64 %1, i64* %4, align 8
  call void @llvm.dbg.declare(metadata { i64, i64 }* %self, metadata !1220, metadata !DIExpression()), !dbg !1229
  call void @llvm.dbg.declare(metadata %"[closure@alloc::raw_vec::handle_reserve::{closure#0}]"* %op.dbg.spill, metadata !1221, metadata !DIExpression()), !dbg !1230
  call void @llvm.dbg.declare(metadata {}* %t.dbg.spill, metadata !1222, metadata !DIExpression()), !dbg !1231
  store i8 1, i8* %_11, align 1, !dbg !1232
  %5 = getelementptr inbounds { i64, i64 }, { i64, i64 }* %self, i32 0, i32 1, !dbg !1232
  %6 = load i64, i64* %5, align 8, !dbg !1232, !range !1233, !noundef !123
  %7 = sub i64 %6, -9223372036854775807, !dbg !1232
  %8 = icmp eq i64 %7, 0, !dbg !1232
  %_3 = select i1 %8, i64 0, i64 1, !dbg !1232
  switch i64 %_3, label %bb2 [
    i64 0, label %bb3
    i64 1, label %bb1
  ], !dbg !1234

bb2:                                              ; preds = %start
  unreachable, !dbg !1232

bb3:                                              ; preds = %start
  %9 = bitcast { i64, i64 }* %2 to %"core::result::Result<(), alloc::collections::TryReserveErrorKind>::Ok"*, !dbg !1235
  %10 = bitcast %"core::result::Result<(), alloc::collections::TryReserveErrorKind>::Ok"* %9 to {}*, !dbg !1235
  %11 = getelementptr inbounds { i64, i64 }, { i64, i64 }* %2, i32 0, i32 1, !dbg !1235
  store i64 -9223372036854775807, i64* %11, align 8, !dbg !1235
  br label %bb7, !dbg !1236

bb1:                                              ; preds = %start
  %12 = getelementptr inbounds { i64, i64 }, { i64, i64 }* %self, i32 0, i32 0, !dbg !1237
  %e.0 = load i64, i64* %12, align 8, !dbg !1237
  %13 = getelementptr inbounds { i64, i64 }, { i64, i64 }* %self, i32 0, i32 1, !dbg !1237
  %e.1 = load i64, i64* %13, align 8, !dbg !1237, !range !189, !noundef !123
  %14 = getelementptr inbounds { i64, i64 }, { i64, i64 }* %e.dbg.spill, i32 0, i32 0, !dbg !1237
  store i64 %e.0, i64* %14, align 8, !dbg !1237
  %15 = getelementptr inbounds { i64, i64 }, { i64, i64 }* %e.dbg.spill, i32 0, i32 1, !dbg !1237
  store i64 %e.1, i64* %15, align 8, !dbg !1237
  call void @llvm.dbg.declare(metadata { i64, i64 }* %e.dbg.spill, metadata !1224, metadata !DIExpression()), !dbg !1238
  store i8 0, i8* %_11, align 1, !dbg !1239
  %16 = getelementptr inbounds { i64, i64 }, { i64, i64 }* %_9, i32 0, i32 0, !dbg !1239
  store i64 %e.0, i64* %16, align 8, !dbg !1239
  %17 = getelementptr inbounds { i64, i64 }, { i64, i64 }* %_9, i32 0, i32 1, !dbg !1239
  store i64 %e.1, i64* %17, align 8, !dbg !1239
  %18 = getelementptr inbounds { i64, i64 }, { i64, i64 }* %_9, i32 0, i32 0, !dbg !1239
  %19 = load i64, i64* %18, align 8, !dbg !1239
  %20 = getelementptr inbounds { i64, i64 }, { i64, i64 }* %_9, i32 0, i32 1, !dbg !1239
  %21 = load i64, i64* %20, align 8, !dbg !1239, !range !189, !noundef !123
; call alloc::raw_vec::handle_reserve::{{closure}}
  %22 = call { i64, i64 } @"_ZN5alloc7raw_vec14handle_reserve28_$u7b$$u7b$closure$u7d$$u7d$17he236e8f64c83531fE"(i64 %19, i64 %21), !dbg !1239
  %_7.0 = extractvalue { i64, i64 } %22, 0, !dbg !1239
  %_7.1 = extractvalue { i64, i64 } %22, 1, !dbg !1239
  br label %bb4, !dbg !1239

bb4:                                              ; preds = %bb1
  %23 = getelementptr inbounds { i64, i64 }, { i64, i64 }* %2, i32 0, i32 0, !dbg !1240
  store i64 %_7.0, i64* %23, align 8, !dbg !1240
  %24 = getelementptr inbounds { i64, i64 }, { i64, i64 }* %2, i32 0, i32 1, !dbg !1240
  store i64 %_7.1, i64* %24, align 8, !dbg !1240
  br label %bb7, !dbg !1241

bb7:                                              ; preds = %bb3, %bb4
  %25 = load i8, i8* %_11, align 1, !dbg !1242, !range !246, !noundef !123
  %26 = trunc i8 %25 to i1, !dbg !1242
  br i1 %26, label %bb6, label %bb5, !dbg !1242

bb5:                                              ; preds = %bb6, %bb7
  %27 = getelementptr inbounds { i64, i64 }, { i64, i64 }* %2, i32 0, i32 0, !dbg !1243
  %28 = load i64, i64* %27, align 8, !dbg !1243
  %29 = getelementptr inbounds { i64, i64 }, { i64, i64 }* %2, i32 0, i32 1, !dbg !1243
  %30 = load i64, i64* %29, align 8, !dbg !1243, !range !1233, !noundef !123
  %31 = insertvalue { i64, i64 } undef, i64 %28, 0, !dbg !1243
  %32 = insertvalue { i64, i64 } %31, i64 %30, 1, !dbg !1243
  ret { i64, i64 } %32, !dbg !1243

bb6:                                              ; preds = %bb7
  br label %bb5, !dbg !1242
}

; core::result::Result<T,E>::map_err
; Function Attrs: inlinehint nonlazybind uwtable
define void @"_ZN4core6result19Result$LT$T$C$E$GT$7map_err17hd9fd1719d11a6026E"(%"core::result::Result<core::alloc::layout::Layout, alloc::collections::TryReserveErrorKind>"* sret(%"core::result::Result<core::alloc::layout::Layout, alloc::collections::TryReserveErrorKind>") %0, i64 %1, i64 %2) unnamed_addr #0 !dbg !1244 {
start:
  %t.dbg.spill = alloca { i64, i64 }, align 8
  %e.dbg.spill = alloca %"core::alloc::layout::LayoutError", align 1
  %op.dbg.spill = alloca %"[closure@alloc::raw_vec::finish_grow<alloc::alloc::Global>::{closure#0}]", align 1
  %_11 = alloca i8, align 1
  %_9 = alloca { %"core::alloc::layout::LayoutError" }, align 1
  %self = alloca { i64, i64 }, align 8
  %3 = getelementptr inbounds { i64, i64 }, { i64, i64 }* %self, i32 0, i32 0
  store i64 %1, i64* %3, align 8
  %4 = getelementptr inbounds { i64, i64 }, { i64, i64 }* %self, i32 0, i32 1
  store i64 %2, i64* %4, align 8
  call void @llvm.dbg.declare(metadata { i64, i64 }* %self, metadata !1263, metadata !DIExpression()), !dbg !1271
  call void @llvm.dbg.declare(metadata %"[closure@alloc::raw_vec::finish_grow<alloc::alloc::Global>::{closure#0}]"* %op.dbg.spill, metadata !1264, metadata !DIExpression()), !dbg !1272
  call void @llvm.dbg.declare(metadata %"core::alloc::layout::LayoutError"* %e.dbg.spill, metadata !1267, metadata !DIExpression()), !dbg !1273
  store i8 1, i8* %_11, align 1, !dbg !1274
  %5 = getelementptr inbounds { i64, i64 }, { i64, i64 }* %self, i32 0, i32 1, !dbg !1274
  %6 = load i64, i64* %5, align 8, !dbg !1274, !range !189, !noundef !123
  %7 = icmp eq i64 %6, 0, !dbg !1274
  %_3 = select i1 %7, i64 1, i64 0, !dbg !1274
  switch i64 %_3, label %bb2 [
    i64 0, label %bb3
    i64 1, label %bb1
  ], !dbg !1275

bb2:                                              ; preds = %start
  unreachable, !dbg !1274

bb3:                                              ; preds = %start
  %8 = getelementptr inbounds { i64, i64 }, { i64, i64 }* %self, i32 0, i32 0, !dbg !1276
  %t.0 = load i64, i64* %8, align 8, !dbg !1276
  %9 = getelementptr inbounds { i64, i64 }, { i64, i64 }* %self, i32 0, i32 1, !dbg !1276
  %t.1 = load i64, i64* %9, align 8, !dbg !1276, !range !707, !noundef !123
  %10 = getelementptr inbounds { i64, i64 }, { i64, i64 }* %t.dbg.spill, i32 0, i32 0, !dbg !1276
  store i64 %t.0, i64* %10, align 8, !dbg !1276
  %11 = getelementptr inbounds { i64, i64 }, { i64, i64 }* %t.dbg.spill, i32 0, i32 1, !dbg !1276
  store i64 %t.1, i64* %11, align 8, !dbg !1276
  call void @llvm.dbg.declare(metadata { i64, i64 }* %t.dbg.spill, metadata !1265, metadata !DIExpression()), !dbg !1277
  %12 = bitcast %"core::result::Result<core::alloc::layout::Layout, alloc::collections::TryReserveErrorKind>"* %0 to %"core::result::Result<core::alloc::layout::Layout, alloc::collections::TryReserveErrorKind>::Ok"*, !dbg !1278
  %13 = getelementptr inbounds %"core::result::Result<core::alloc::layout::Layout, alloc::collections::TryReserveErrorKind>::Ok", %"core::result::Result<core::alloc::layout::Layout, alloc::collections::TryReserveErrorKind>::Ok"* %12, i32 0, i32 1, !dbg !1278
  %14 = getelementptr inbounds { i64, i64 }, { i64, i64 }* %13, i32 0, i32 0, !dbg !1278
  store i64 %t.0, i64* %14, align 8, !dbg !1278
  %15 = getelementptr inbounds { i64, i64 }, { i64, i64 }* %13, i32 0, i32 1, !dbg !1278
  store i64 %t.1, i64* %15, align 8, !dbg !1278
  %16 = bitcast %"core::result::Result<core::alloc::layout::Layout, alloc::collections::TryReserveErrorKind>"* %0 to i64*, !dbg !1278
  store i64 0, i64* %16, align 8, !dbg !1278
  br label %bb7, !dbg !1279

bb1:                                              ; preds = %start
  store i8 0, i8* %_11, align 1, !dbg !1280
  %17 = bitcast { %"core::alloc::layout::LayoutError" }* %_9 to %"core::alloc::layout::LayoutError"*, !dbg !1280
; call alloc::raw_vec::finish_grow::{{closure}}
  %18 = call { i64, i64 } @"_ZN5alloc7raw_vec11finish_grow28_$u7b$$u7b$closure$u7d$$u7d$17h39180b195ba50e94E"(), !dbg !1280
  %_7.0 = extractvalue { i64, i64 } %18, 0, !dbg !1280
  %_7.1 = extractvalue { i64, i64 } %18, 1, !dbg !1280
  br label %bb4, !dbg !1280

bb4:                                              ; preds = %bb1
  %19 = bitcast %"core::result::Result<core::alloc::layout::Layout, alloc::collections::TryReserveErrorKind>"* %0 to %"core::result::Result<core::alloc::layout::Layout, alloc::collections::TryReserveErrorKind>::Err"*, !dbg !1281
  %20 = getelementptr inbounds %"core::result::Result<core::alloc::layout::Layout, alloc::collections::TryReserveErrorKind>::Err", %"core::result::Result<core::alloc::layout::Layout, alloc::collections::TryReserveErrorKind>::Err"* %19, i32 0, i32 1, !dbg !1281
  %21 = getelementptr inbounds { i64, i64 }, { i64, i64 }* %20, i32 0, i32 0, !dbg !1281
  store i64 %_7.0, i64* %21, align 8, !dbg !1281
  %22 = getelementptr inbounds { i64, i64 }, { i64, i64 }* %20, i32 0, i32 1, !dbg !1281
  store i64 %_7.1, i64* %22, align 8, !dbg !1281
  %23 = bitcast %"core::result::Result<core::alloc::layout::Layout, alloc::collections::TryReserveErrorKind>"* %0 to i64*, !dbg !1281
  store i64 1, i64* %23, align 8, !dbg !1281
  br label %bb7, !dbg !1282

bb7:                                              ; preds = %bb3, %bb4
  %24 = load i8, i8* %_11, align 1, !dbg !1283, !range !246, !noundef !123
  %25 = trunc i8 %24 to i1, !dbg !1283
  br i1 %25, label %bb6, label %bb5, !dbg !1283

bb5:                                              ; preds = %bb6, %bb7
  ret void, !dbg !1284

bb6:                                              ; preds = %bb7
  br label %bb5, !dbg !1283
}

; <T as core::convert::From<T>>::from
; Function Attrs: nonlazybind uwtable
define void @"_ZN50_$LT$T$u20$as$u20$core..convert..From$LT$T$GT$$GT$4from17h99cc38833a499c29E"() unnamed_addr #1 !dbg !1285 {
start:
  %t.dbg.spill = alloca %"core::alloc::layout::LayoutError", align 1
  call void @llvm.dbg.declare(metadata %"core::alloc::layout::LayoutError"* %t.dbg.spill, metadata !1291, metadata !DIExpression()), !dbg !1294
  ret void, !dbg !1295
}

; <T as core::convert::From<T>>::from
; Function Attrs: nonlazybind uwtable
define { i64, i64 } @"_ZN50_$LT$T$u20$as$u20$core..convert..From$LT$T$GT$$GT$4from17ha1cdac25e4a263b8E"(i64 %t.0, i64 %t.1) unnamed_addr #1 !dbg !1296 {
start:
  %t.dbg.spill = alloca { i64, i64 }, align 8
  %0 = getelementptr inbounds { i64, i64 }, { i64, i64 }* %t.dbg.spill, i32 0, i32 0
  store i64 %t.0, i64* %0, align 8
  %1 = getelementptr inbounds { i64, i64 }, { i64, i64 }* %t.dbg.spill, i32 0, i32 1
  store i64 %t.1, i64* %1, align 8
  call void @llvm.dbg.declare(metadata { i64, i64 }* %t.dbg.spill, metadata !1300, metadata !DIExpression()), !dbg !1303
  %2 = insertvalue { i64, i64 } undef, i64 %t.0, 0, !dbg !1304
  %3 = insertvalue { i64, i64 } %2, i64 %t.1, 1, !dbg !1304
  ret { i64, i64 } %3, !dbg !1304
}

; <T as core::convert::From<T>>::from
; Function Attrs: nonlazybind uwtable
define void @"_ZN50_$LT$T$u20$as$u20$core..convert..From$LT$T$GT$$GT$4from17he70645bce0dea0c2E"() unnamed_addr #1 !dbg !1305 {
start:
  %t.dbg.spill = alloca %"core::alloc::AllocError", align 1
  call void @llvm.dbg.declare(metadata %"core::alloc::AllocError"* %t.dbg.spill, metadata !1309, metadata !DIExpression()), !dbg !1312
  ret void, !dbg !1313
}

; <T as core::convert::Into<U>>::into
; Function Attrs: nonlazybind uwtable
define i8* @"_ZN50_$LT$T$u20$as$u20$core..convert..Into$LT$U$GT$$GT$4into17h1753afcf8147a933E"(i8* %self) unnamed_addr #1 !dbg !1314 {
start:
  %self.dbg.spill = alloca i8*, align 8
  store i8* %self, i8** %self.dbg.spill, align 8
  call void @llvm.dbg.declare(metadata i8** %self.dbg.spill, metadata !1317, metadata !DIExpression()), !dbg !1321
; call <core::ptr::non_null::NonNull<T> as core::convert::From<core::ptr::unique::Unique<T>>>::from
  %0 = call i8* @"_ZN119_$LT$core..ptr..non_null..NonNull$LT$T$GT$$u20$as$u20$core..convert..From$LT$core..ptr..unique..Unique$LT$T$GT$$GT$$GT$4from17h631f2a220a29ccd9E"(i8* %self), !dbg !1322
  br label %bb1, !dbg !1322

bb1:                                              ; preds = %start
  ret i8* %0, !dbg !1323
}

; <T as core::convert::Into<U>>::into
; Function Attrs: nonlazybind uwtable
define { i64, i64 } @"_ZN50_$LT$T$u20$as$u20$core..convert..Into$LT$U$GT$$GT$4into17hd471e5dbc2571ad4E"(i64 %self.0, i64 %self.1) unnamed_addr #1 !dbg !1324 {
start:
  %self.dbg.spill = alloca { i64, i64 }, align 8
  %0 = getelementptr inbounds { i64, i64 }, { i64, i64 }* %self.dbg.spill, i32 0, i32 0
  store i64 %self.0, i64* %0, align 8
  %1 = getelementptr inbounds { i64, i64 }, { i64, i64 }* %self.dbg.spill, i32 0, i32 1
  store i64 %self.1, i64* %1, align 8
  call void @llvm.dbg.declare(metadata { i64, i64 }* %self.dbg.spill, metadata !1326, metadata !DIExpression()), !dbg !1330
; call <alloc::collections::TryReserveError as core::convert::From<alloc::collections::TryReserveErrorKind>>::from
  %2 = call { i64, i64 } @"_ZN122_$LT$alloc..collections..TryReserveError$u20$as$u20$core..convert..From$LT$alloc..collections..TryReserveErrorKind$GT$$GT$4from17h2226d8fcddde883cE"(i64 %self.0, i64 %self.1), !dbg !1331
  %3 = extractvalue { i64, i64 } %2, 0, !dbg !1331
  %4 = extractvalue { i64, i64 } %2, 1, !dbg !1331
  br label %bb1, !dbg !1331

bb1:                                              ; preds = %start
  %5 = insertvalue { i64, i64 } undef, i64 %3, 0, !dbg !1332
  %6 = insertvalue { i64, i64 } %5, i64 %4, 1, !dbg !1332
  ret { i64, i64 } %6, !dbg !1332
}

; <i32 as alloc::vec::is_zero::IsZero>::is_zero
; Function Attrs: inlinehint nonlazybind uwtable
define internal zeroext i1 @"_ZN51_$LT$i32$u20$as$u20$alloc..vec..is_zero..IsZero$GT$7is_zero17hfae9cd2abb545fc7E"(i32* align 4 %self) unnamed_addr #0 !dbg !1333 {
start:
  %self.dbg.spill = alloca i32*, align 8
  %_3 = alloca i32, align 4
  store i32* %self, i32** %self.dbg.spill, align 8
  call void @llvm.dbg.declare(metadata i32** %self.dbg.spill, metadata !1338, metadata !DIExpression()), !dbg !1339
  %_4 = load i32, i32* %self, align 4, !dbg !1340
  store i32 %_4, i32* %_3, align 4, !dbg !1341
  %0 = load i32, i32* %_3, align 4, !dbg !1341
; call <i32 as alloc::vec::is_zero::IsZero>::is_zero::{{closure}}
  %1 = call zeroext i1 @"_ZN51_$LT$i32$u20$as$u20$alloc..vec..is_zero..IsZero$GT$7is_zero28_$u7b$$u7b$closure$u7d$$u7d$17h1772ba44d18acf7dE"(%"[closure@<i32 as alloc::vec::is_zero::IsZero>::is_zero::{closure#0}]"* align 1 bitcast (<{}>* @alloc70 to %"[closure@<i32 as alloc::vec::is_zero::IsZero>::is_zero::{closure#0}]"*), i32 %0), !dbg !1341
  br label %bb1, !dbg !1341

bb1:                                              ; preds = %start
  ret i1 %1, !dbg !1342
}

; <i32 as alloc::vec::is_zero::IsZero>::is_zero::{{closure}}
; Function Attrs: inlinehint nonlazybind uwtable
define zeroext i1 @"_ZN51_$LT$i32$u20$as$u20$alloc..vec..is_zero..IsZero$GT$7is_zero28_$u7b$$u7b$closure$u7d$$u7d$17h1772ba44d18acf7dE"(%"[closure@<i32 as alloc::vec::is_zero::IsZero>::is_zero::{closure#0}]"* align 1 %_1, i32 %x) unnamed_addr #0 !dbg !1343 {
start:
  %x.dbg.spill = alloca i32, align 4
  %_1.dbg.spill = alloca %"[closure@<i32 as alloc::vec::is_zero::IsZero>::is_zero::{closure#0}]"*, align 8
  store %"[closure@<i32 as alloc::vec::is_zero::IsZero>::is_zero::{closure#0}]"* %_1, %"[closure@<i32 as alloc::vec::is_zero::IsZero>::is_zero::{closure#0}]"** %_1.dbg.spill, align 8
  call void @llvm.dbg.declare(metadata %"[closure@<i32 as alloc::vec::is_zero::IsZero>::is_zero::{closure#0}]"** %_1.dbg.spill, metadata !1351, metadata !DIExpression()), !dbg !1352
  store i32 %x, i32* %x.dbg.spill, align 4
  call void @llvm.dbg.declare(metadata i32* %x.dbg.spill, metadata !1350, metadata !DIExpression()), !dbg !1353
  %0 = icmp eq i32 %x, 0, !dbg !1354
  ret i1 %0, !dbg !1355
}

; alloc::vec::Vec<T,A>::as_mut_ptr
; Function Attrs: inlinehint nonlazybind uwtable
define i32* @"_ZN5alloc3vec16Vec$LT$T$C$A$GT$10as_mut_ptr17hc32a8b2996952385E"(%"alloc::vec::Vec<i32>"* align 8 %self) unnamed_addr #0 !dbg !1356 {
start:
  %0 = alloca i8, align 1
  %other.dbg.spill = alloca i8*, align 8
  %data_address.dbg.spill = alloca {}*, align 8
  %1 = alloca {}*, align 8
  %self.dbg.spill8 = alloca i8*, align 8
  %self.dbg.spill6 = alloca i32*, align 8
  %ptr.dbg.spill = alloca i32*, align 8
  %self.dbg.spill5 = alloca i32*, align 8
  %self.dbg.spill4 = alloca i32*, align 8
  %self.dbg.spill2 = alloca { i32*, i64 }*, align 8
  %metadata.dbg.spill = alloca {}, align 1
  %self.dbg.spill = alloca %"alloc::vec::Vec<i32>"*, align 8
  %_18 = alloca %"core::ptr::metadata::PtrComponents<u8>", align 8
  %_17 = alloca %"core::ptr::metadata::PtrRepr<u8>", align 8
  store %"alloc::vec::Vec<i32>"* %self, %"alloc::vec::Vec<i32>"** %self.dbg.spill, align 8
  call void @llvm.dbg.declare(metadata %"alloc::vec::Vec<i32>"** %self.dbg.spill, metadata !1362, metadata !DIExpression()), !dbg !1365
  call void @llvm.dbg.declare(metadata {}* %metadata.dbg.spill, metadata !1366, metadata !DIExpression()), !dbg !1371
  %self1 = bitcast %"alloc::vec::Vec<i32>"* %self to { i32*, i64 }*, !dbg !1382
  store { i32*, i64 }* %self1, { i32*, i64 }** %self.dbg.spill2, align 8, !dbg !1382
  call void @llvm.dbg.declare(metadata { i32*, i64 }** %self.dbg.spill2, metadata !1383, metadata !DIExpression()), !dbg !1391
  %2 = bitcast { i32*, i64 }* %self1 to i32**, !dbg !1391
  %self3 = load i32*, i32** %2, align 8, !dbg !1391, !nonnull !123, !noundef !123
  store i32* %self3, i32** %self.dbg.spill4, align 8, !dbg !1391
  call void @llvm.dbg.declare(metadata i32** %self.dbg.spill4, metadata !1392, metadata !DIExpression()), !dbg !1398
  store i32* %self3, i32** %self.dbg.spill5, align 8, !dbg !1398
  call void @llvm.dbg.declare(metadata i32** %self.dbg.spill5, metadata !1400, metadata !DIExpression()), !dbg !1406
  store i32* %self3, i32** %ptr.dbg.spill, align 8, !dbg !1406
  call void @llvm.dbg.declare(metadata i32** %ptr.dbg.spill, metadata !1363, metadata !DIExpression()), !dbg !1408
  store i32* %self3, i32** %self.dbg.spill6, align 8, !dbg !1381
  call void @llvm.dbg.declare(metadata i32** %self.dbg.spill6, metadata !1379, metadata !DIExpression()), !dbg !1409
  %self7 = bitcast i32* %self3 to i8*, !dbg !1409
  store i8* %self7, i8** %self.dbg.spill8, align 8, !dbg !1409
  call void @llvm.dbg.declare(metadata i8** %self.dbg.spill8, metadata !1410, metadata !DIExpression()), !dbg !1415
  %3 = bitcast {}** %1 to i64*, !dbg !1417
  store i64 0, i64* %3, align 8, !dbg !1417
  %data_address = load {}*, {}** %1, align 8, !dbg !1417
  store {}* %data_address, {}** %data_address.dbg.spill, align 8, !dbg !1417
  call void @llvm.dbg.declare(metadata {}** %data_address.dbg.spill, metadata !1370, metadata !DIExpression()), !dbg !1371
  br label %bb2, !dbg !1417

bb2:                                              ; preds = %start
  %4 = bitcast %"core::ptr::metadata::PtrComponents<u8>"* %_18 to {}**, !dbg !1371
  store {}* %data_address, {}** %4, align 8, !dbg !1371
  %5 = bitcast %"core::ptr::metadata::PtrRepr<u8>"* %_17 to %"core::ptr::metadata::PtrComponents<u8>"*, !dbg !1371
  %6 = bitcast %"core::ptr::metadata::PtrComponents<u8>"* %5 to i8*, !dbg !1371
  %7 = bitcast %"core::ptr::metadata::PtrComponents<u8>"* %_18 to i8*, !dbg !1371
  call void @llvm.memcpy.p0i8.p0i8.i64(i8* align 8 %6, i8* align 8 %7, i64 8, i1 false), !dbg !1371
  %8 = bitcast %"core::ptr::metadata::PtrRepr<u8>"* %_17 to i8**, !dbg !1371
  %other = load i8*, i8** %8, align 8, !dbg !1371
  store i8* %other, i8** %other.dbg.spill, align 8, !dbg !1371
  call void @llvm.dbg.declare(metadata i8** %other.dbg.spill, metadata !1414, metadata !DIExpression()), !dbg !1415
  %9 = icmp eq i8* %self7, %other, !dbg !1415
  %10 = zext i1 %9 to i8, !dbg !1415
  store i8 %10, i8* %0, align 1, !dbg !1415
  %11 = load i8, i8* %0, align 1, !dbg !1415, !range !246, !noundef !123
  %_5 = trunc i8 %11 to i1, !dbg !1415
  br label %bb3, !dbg !1415

bb3:                                              ; preds = %bb2
  %_4 = xor i1 %_5, true, !dbg !1423
  call void @llvm.assume(i1 %_4), !dbg !1424
  br label %bb1, !dbg !1424

bb1:                                              ; preds = %bb3
  ret i32* %self3, !dbg !1425
}

; alloc::vec::Vec<T,A>::as_mut_ptr
; Function Attrs: inlinehint nonlazybind uwtable
define [4 x i32]* @"_ZN5alloc3vec16Vec$LT$T$C$A$GT$10as_mut_ptr17he8004093a66f805cE"(%"alloc::vec::Vec<[i32; 4]>"* align 8 %self) unnamed_addr #0 !dbg !1426 {
start:
  %0 = alloca i8, align 1
  %other.dbg.spill = alloca i8*, align 8
  %data_address.dbg.spill = alloca {}*, align 8
  %1 = alloca {}*, align 8
  %self.dbg.spill8 = alloca i8*, align 8
  %self.dbg.spill6 = alloca [4 x i32]*, align 8
  %ptr.dbg.spill = alloca [4 x i32]*, align 8
  %self.dbg.spill5 = alloca i32*, align 8
  %self.dbg.spill4 = alloca i32*, align 8
  %self.dbg.spill2 = alloca { i32*, i64 }*, align 8
  %metadata.dbg.spill = alloca {}, align 1
  %self.dbg.spill = alloca %"alloc::vec::Vec<[i32; 4]>"*, align 8
  %_18 = alloca %"core::ptr::metadata::PtrComponents<u8>", align 8
  %_17 = alloca %"core::ptr::metadata::PtrRepr<u8>", align 8
  store %"alloc::vec::Vec<[i32; 4]>"* %self, %"alloc::vec::Vec<[i32; 4]>"** %self.dbg.spill, align 8
  call void @llvm.dbg.declare(metadata %"alloc::vec::Vec<[i32; 4]>"** %self.dbg.spill, metadata !1432, metadata !DIExpression()), !dbg !1435
  call void @llvm.dbg.declare(metadata {}* %metadata.dbg.spill, metadata !1436, metadata !DIExpression()), !dbg !1441
  %self1 = bitcast %"alloc::vec::Vec<[i32; 4]>"* %self to { i32*, i64 }*, !dbg !1452
  store { i32*, i64 }* %self1, { i32*, i64 }** %self.dbg.spill2, align 8, !dbg !1452
  call void @llvm.dbg.declare(metadata { i32*, i64 }** %self.dbg.spill2, metadata !1453, metadata !DIExpression()), !dbg !1460
  %2 = bitcast { i32*, i64 }* %self1 to i32**, !dbg !1460
  %self3 = load i32*, i32** %2, align 8, !dbg !1460, !nonnull !123, !noundef !123
  store i32* %self3, i32** %self.dbg.spill4, align 8, !dbg !1460
  call void @llvm.dbg.declare(metadata i32** %self.dbg.spill4, metadata !1461, metadata !DIExpression()), !dbg !1467
  store i32* %self3, i32** %self.dbg.spill5, align 8, !dbg !1467
  call void @llvm.dbg.declare(metadata i32** %self.dbg.spill5, metadata !1469, metadata !DIExpression()), !dbg !1475
  %_9 = bitcast i32* %self3 to [4 x i32]*, !dbg !1475
  store [4 x i32]* %_9, [4 x i32]** %ptr.dbg.spill, align 8, !dbg !1475
  call void @llvm.dbg.declare(metadata [4 x i32]** %ptr.dbg.spill, metadata !1433, metadata !DIExpression()), !dbg !1477
  store [4 x i32]* %_9, [4 x i32]** %self.dbg.spill6, align 8, !dbg !1451
  call void @llvm.dbg.declare(metadata [4 x i32]** %self.dbg.spill6, metadata !1449, metadata !DIExpression()), !dbg !1478
  %self7 = bitcast [4 x i32]* %_9 to i8*, !dbg !1478
  store i8* %self7, i8** %self.dbg.spill8, align 8, !dbg !1478
  call void @llvm.dbg.declare(metadata i8** %self.dbg.spill8, metadata !1479, metadata !DIExpression()), !dbg !1484
  %3 = bitcast {}** %1 to i64*, !dbg !1486
  store i64 0, i64* %3, align 8, !dbg !1486
  %data_address = load {}*, {}** %1, align 8, !dbg !1486
  store {}* %data_address, {}** %data_address.dbg.spill, align 8, !dbg !1486
  call void @llvm.dbg.declare(metadata {}** %data_address.dbg.spill, metadata !1440, metadata !DIExpression()), !dbg !1441
  br label %bb2, !dbg !1486

bb2:                                              ; preds = %start
  %4 = bitcast %"core::ptr::metadata::PtrComponents<u8>"* %_18 to {}**, !dbg !1441
  store {}* %data_address, {}** %4, align 8, !dbg !1441
  %5 = bitcast %"core::ptr::metadata::PtrRepr<u8>"* %_17 to %"core::ptr::metadata::PtrComponents<u8>"*, !dbg !1441
  %6 = bitcast %"core::ptr::metadata::PtrComponents<u8>"* %5 to i8*, !dbg !1441
  %7 = bitcast %"core::ptr::metadata::PtrComponents<u8>"* %_18 to i8*, !dbg !1441
  call void @llvm.memcpy.p0i8.p0i8.i64(i8* align 8 %6, i8* align 8 %7, i64 8, i1 false), !dbg !1441
  %8 = bitcast %"core::ptr::metadata::PtrRepr<u8>"* %_17 to i8**, !dbg !1441
  %other = load i8*, i8** %8, align 8, !dbg !1441
  store i8* %other, i8** %other.dbg.spill, align 8, !dbg !1441
  call void @llvm.dbg.declare(metadata i8** %other.dbg.spill, metadata !1483, metadata !DIExpression()), !dbg !1484
  %9 = icmp eq i8* %self7, %other, !dbg !1484
  %10 = zext i1 %9 to i8, !dbg !1484
  store i8 %10, i8* %0, align 1, !dbg !1484
  %11 = load i8, i8* %0, align 1, !dbg !1484, !range !246, !noundef !123
  %_5 = trunc i8 %11 to i1, !dbg !1484
  br label %bb3, !dbg !1484

bb3:                                              ; preds = %bb2
  %_4 = xor i1 %_5, true, !dbg !1492
  call void @llvm.assume(i1 %_4), !dbg !1493
  br label %bb1, !dbg !1493

bb1:                                              ; preds = %bb3
  ret [4 x i32]* %_9, !dbg !1494
}

; alloc::vec::Vec<T,A>::extend_with
; Function Attrs: nonlazybind uwtable
define void @"_ZN5alloc3vec16Vec$LT$T$C$A$GT$11extend_with17h42053287b2bcda4bE"(%"alloc::vec::Vec<[i32; 4]>"* align 8 %self, i64 %n, %"alloc::vec::ExtendElement<[i32; 4]>"* %value) unnamed_addr #1 personality i32 (i32, i32, i64, %"unwind::libunwind::_Unwind_Exception"*, %"unwind::libunwind::_Unwind_Context"*)* @rust_eh_personality !dbg !1495 {
start:
  %self.dbg.spill15 = alloca { i64*, i64 }*, align 8
  %dst.dbg.spill14 = alloca [4 x i32]*, align 8
  %self.dbg.spill12 = alloca { i64*, i64 }*, align 8
  %0 = alloca [4 x i32]*, align 8
  %self.dbg.spill11 = alloca [4 x i32]*, align 8
  %dst.dbg.spill = alloca [4 x i32]*, align 8
  %self.dbg.spill8 = alloca { i64, i64 }*, align 8
  %len.dbg.spill = alloca i64*, align 8
  %1 = alloca [4 x i32]*, align 8
  %count.dbg.spill7 = alloca i64, align 8
  %self.dbg.spill6 = alloca [4 x i32]*, align 8
  %count.dbg.spill = alloca i64, align 8
  %self.dbg.spill5 = alloca %"alloc::vec::Vec<[i32; 4]>"*, align 8
  %self.dbg.spill4 = alloca [4 x i32]*, align 8
  %2 = alloca { i8*, i32 }, align 8
  %n.dbg.spill = alloca i64, align 8
  %self.dbg.spill = alloca %"alloc::vec::Vec<[i32; 4]>"*, align 8
  %_35 = alloca i8, align 1
  %_33 = alloca %"alloc::vec::ExtendElement<[i32; 4]>", align 4
  %src2 = alloca [4 x i32], align 4
  %src = alloca [4 x i32], align 4
  %_19 = alloca { i64, i64 }, align 8
  %iter = alloca { i64, i64 }, align 8
  %self1 = alloca { i64, i64 }, align 8
  %local_len = alloca { i64*, i64 }, align 8
  %ptr = alloca [4 x i32]*, align 8
  store %"alloc::vec::Vec<[i32; 4]>"* %self, %"alloc::vec::Vec<[i32; 4]>"** %self.dbg.spill, align 8
  call void @llvm.dbg.declare(metadata %"alloc::vec::Vec<[i32; 4]>"** %self.dbg.spill, metadata !1502, metadata !DIExpression()), !dbg !1520
  store i64 %n, i64* %n.dbg.spill, align 8
  call void @llvm.dbg.declare(metadata i64* %n.dbg.spill, metadata !1503, metadata !DIExpression()), !dbg !1521
  call void @llvm.dbg.declare(metadata %"alloc::vec::ExtendElement<[i32; 4]>"* %value, metadata !1504, metadata !DIExpression()), !dbg !1522
  call void @llvm.dbg.declare(metadata [4 x i32]** %ptr, metadata !1505, metadata !DIExpression()), !dbg !1523
  call void @llvm.dbg.declare(metadata { i64*, i64 }* %local_len, metadata !1507, metadata !DIExpression()), !dbg !1524
  call void @llvm.dbg.declare(metadata { i64, i64 }* %self1, metadata !1525, metadata !DIExpression()), !dbg !1537
  call void @llvm.dbg.declare(metadata { i64, i64 }* %iter, metadata !1509, metadata !DIExpression()), !dbg !1539
  call void @llvm.dbg.declare(metadata [4 x i32]* %src, metadata !1540, metadata !DIExpression()), !dbg !1547
  call void @llvm.dbg.declare(metadata [4 x i32]* %src2, metadata !1549, metadata !DIExpression()), !dbg !1554
  store i8 1, i8* %_35, align 1, !dbg !1556
; invoke alloc::vec::Vec<T,A>::reserve
  invoke void @"_ZN5alloc3vec16Vec$LT$T$C$A$GT$7reserve17h448db330074d47b4E"(%"alloc::vec::Vec<[i32; 4]>"* align 8 %self, i64 %n)
          to label %bb1 unwind label %cleanup, !dbg !1556

bb17:                                             ; preds = %bb13, %cleanup
  %3 = load i8, i8* %_35, align 1, !dbg !1557, !range !246, !noundef !123
  %4 = trunc i8 %3 to i1, !dbg !1557
  br i1 %4, label %bb16, label %bb14, !dbg !1557

cleanup:                                          ; preds = %bb10, %bb1, %start
  %5 = landingpad { i8*, i32 }
          cleanup
  %6 = extractvalue { i8*, i32 } %5, 0
  %7 = extractvalue { i8*, i32 } %5, 1
  %8 = getelementptr inbounds { i8*, i32 }, { i8*, i32 }* %2, i32 0, i32 0
  store i8* %6, i8** %8, align 8
  %9 = getelementptr inbounds { i8*, i32 }, { i8*, i32 }* %2, i32 0, i32 1
  store i32 %7, i32* %9, align 8
  br label %bb17

bb1:                                              ; preds = %start
; invoke alloc::vec::Vec<T,A>::as_mut_ptr
  %self3 = invoke [4 x i32]* @"_ZN5alloc3vec16Vec$LT$T$C$A$GT$10as_mut_ptr17he8004093a66f805cE"(%"alloc::vec::Vec<[i32; 4]>"* align 8 %self)
          to label %bb2 unwind label %cleanup, !dbg !1558

bb2:                                              ; preds = %bb1
  store [4 x i32]* %self3, [4 x i32]** %self.dbg.spill4, align 8, !dbg !1558
  call void @llvm.dbg.declare(metadata [4 x i32]** %self.dbg.spill4, metadata !1559, metadata !DIExpression()), !dbg !1566
  store %"alloc::vec::Vec<[i32; 4]>"* %self, %"alloc::vec::Vec<[i32; 4]>"** %self.dbg.spill5, align 8, !dbg !1567
  call void @llvm.dbg.declare(metadata %"alloc::vec::Vec<[i32; 4]>"** %self.dbg.spill5, metadata !1568, metadata !DIExpression()), !dbg !1574
  %10 = getelementptr inbounds %"alloc::vec::Vec<[i32; 4]>", %"alloc::vec::Vec<[i32; 4]>"* %self, i32 0, i32 1, !dbg !1574
  %count = load i64, i64* %10, align 8, !dbg !1574
  store i64 %count, i64* %count.dbg.spill, align 8, !dbg !1574
  call void @llvm.dbg.declare(metadata i64* %count.dbg.spill, metadata !1565, metadata !DIExpression()), !dbg !1566
  store [4 x i32]* %self3, [4 x i32]** %self.dbg.spill6, align 8, !dbg !1566
  call void @llvm.dbg.declare(metadata [4 x i32]** %self.dbg.spill6, metadata !1575, metadata !DIExpression()), !dbg !1582
  store i64 %count, i64* %count.dbg.spill7, align 8, !dbg !1566
  call void @llvm.dbg.declare(metadata i64* %count.dbg.spill7, metadata !1581, metadata !DIExpression()), !dbg !1582
  %11 = getelementptr inbounds [4 x i32], [4 x i32]* %self3, i64 %count, !dbg !1582
  store [4 x i32]* %11, [4 x i32]** %1, align 8, !dbg !1582
  %_39 = load [4 x i32]*, [4 x i32]** %1, align 8, !dbg !1582
  br label %bb18, !dbg !1582

bb18:                                             ; preds = %bb2
  store [4 x i32]* %_39, [4 x i32]** %ptr, align 8, !dbg !1582
  %_14 = getelementptr inbounds %"alloc::vec::Vec<[i32; 4]>", %"alloc::vec::Vec<[i32; 4]>"* %self, i32 0, i32 1, !dbg !1584
  store i64* %_14, i64** %len.dbg.spill, align 8, !dbg !1584
  call void @llvm.dbg.declare(metadata i64** %len.dbg.spill, metadata !1585, metadata !DIExpression()), !dbg !1592
  %_43 = load i64, i64* %_14, align 8, !dbg !1592
  %12 = bitcast { i64*, i64 }* %local_len to i64**, !dbg !1592
  store i64* %_14, i64** %12, align 8, !dbg !1592
  %13 = getelementptr inbounds { i64*, i64 }, { i64*, i64 }* %local_len, i32 0, i32 1, !dbg !1592
  store i64 %_43, i64* %13, align 8, !dbg !1592
  %14 = bitcast { i64, i64 }* %self1 to i64*, !dbg !1538
  store i64 1, i64* %14, align 8, !dbg !1538
  %15 = getelementptr inbounds { i64, i64 }, { i64, i64 }* %self1, i32 0, i32 1, !dbg !1538
  store i64 %n, i64* %15, align 8, !dbg !1538
  %16 = getelementptr inbounds { i64, i64 }, { i64, i64 }* %self1, i32 0, i32 0, !dbg !1537
  %_15.0 = load i64, i64* %16, align 8, !dbg !1537
  %17 = getelementptr inbounds { i64, i64 }, { i64, i64 }* %self1, i32 0, i32 1, !dbg !1537
  %_15.1 = load i64, i64* %17, align 8, !dbg !1537
  %18 = getelementptr inbounds { i64, i64 }, { i64, i64 }* %iter, i32 0, i32 0, !dbg !1538
  store i64 %_15.0, i64* %18, align 8, !dbg !1538
  %19 = getelementptr inbounds { i64, i64 }, { i64, i64 }* %iter, i32 0, i32 1, !dbg !1538
  store i64 %_15.1, i64* %19, align 8, !dbg !1538
  br label %bb3, !dbg !1594

bb3:                                              ; preds = %bb20, %bb18
  store { i64, i64 }* %iter, { i64, i64 }** %self.dbg.spill8, align 8, !dbg !1539
  call void @llvm.dbg.declare(metadata { i64, i64 }** %self.dbg.spill8, metadata !1595, metadata !DIExpression()), !dbg !1605
; invoke <core::ops::range::Range<T> as core::iter::range::RangeIteratorImpl>::spec_next
  %20 = invoke { i64, i64 } @"_ZN89_$LT$core..ops..range..Range$LT$T$GT$$u20$as$u20$core..iter..range..RangeIteratorImpl$GT$9spec_next17hebc235f2b2856581E"({ i64, i64 }* align 8 %iter)
          to label %bb19 unwind label %cleanup9, !dbg !1605

bb13:                                             ; preds = %cleanup9
; invoke core::ptr::drop_in_place<alloc::vec::set_len_on_drop::SetLenOnDrop>
  invoke void @"_ZN4core3ptr62drop_in_place$LT$alloc..vec..set_len_on_drop..SetLenOnDrop$GT$17h57968b12f1470d59E"({ i64*, i64 }* %local_len) #14
          to label %bb17 unwind label %abort, !dbg !1606

cleanup9:                                         ; preds = %bb8, %bb4, %bb3
  %21 = landingpad { i8*, i32 }
          cleanup
  %22 = extractvalue { i8*, i32 } %21, 0
  %23 = extractvalue { i8*, i32 } %21, 1
  %24 = getelementptr inbounds { i8*, i32 }, { i8*, i32 }* %2, i32 0, i32 0
  store i8* %22, i8** %24, align 8
  %25 = getelementptr inbounds { i8*, i32 }, { i8*, i32 }* %2, i32 0, i32 1
  store i32 %23, i32* %25, align 8
  br label %bb13

bb19:                                             ; preds = %bb3
  store { i64, i64 } %20, { i64, i64 }* %_19, align 8, !dbg !1605
  %26 = bitcast { i64, i64 }* %_19 to i64*, !dbg !1539
  %_22 = load i64, i64* %26, align 8, !dbg !1539, !range !435, !noundef !123
  switch i64 %_22, label %bb5 [
    i64 0, label %bb6
    i64 1, label %bb4
  ], !dbg !1539

bb5:                                              ; preds = %bb19
  unreachable, !dbg !1539

bb6:                                              ; preds = %bb19
  %_29 = icmp ugt i64 %n, 0, !dbg !1607
  br i1 %_29, label %bb8, label %bb10, !dbg !1607

bb4:                                              ; preds = %bb19
  %dst = load [4 x i32]*, [4 x i32]** %ptr, align 8, !dbg !1608
  store [4 x i32]* %dst, [4 x i32]** %dst.dbg.spill, align 8, !dbg !1608
  call void @llvm.dbg.declare(metadata [4 x i32]** %dst.dbg.spill, metadata !1546, metadata !DIExpression()), !dbg !1547
; invoke <alloc::vec::ExtendElement<T> as alloc::vec::ExtendWith<T>>::next
  invoke void @"_ZN86_$LT$alloc..vec..ExtendElement$LT$T$GT$$u20$as$u20$alloc..vec..ExtendWith$LT$T$GT$$GT$4next17h79af20dac365c045E"([4 x i32]* sret([4 x i32]) %src, %"alloc::vec::ExtendElement<[i32; 4]>"* align 4 %value)
          to label %bb7 unwind label %cleanup9, !dbg !1609

bb7:                                              ; preds = %bb4
  %27 = bitcast [4 x i32]* %dst to i8*, !dbg !1547
  %28 = bitcast [4 x i32]* %src to i8*, !dbg !1547
  call void @llvm.memcpy.p0i8.p0i8.i64(i8* align 4 %27, i8* align 4 %28, i64 16, i1 false), !dbg !1547
  %self10 = load [4 x i32]*, [4 x i32]** %ptr, align 8, !dbg !1610
  store [4 x i32]* %self10, [4 x i32]** %self.dbg.spill11, align 8, !dbg !1610
  call void @llvm.dbg.declare(metadata [4 x i32]** %self.dbg.spill11, metadata !1611, metadata !DIExpression()), !dbg !1616
  %29 = getelementptr inbounds [4 x i32], [4 x i32]* %self10, i64 1, !dbg !1616
  store [4 x i32]* %29, [4 x i32]** %0, align 8, !dbg !1616
  %_50 = load [4 x i32]*, [4 x i32]** %0, align 8, !dbg !1616
  br label %bb20, !dbg !1616

bb20:                                             ; preds = %bb7
  store [4 x i32]* %_50, [4 x i32]** %ptr, align 8, !dbg !1617
  store { i64*, i64 }* %local_len, { i64*, i64 }** %self.dbg.spill12, align 8, !dbg !1618
  call void @llvm.dbg.declare(metadata { i64*, i64 }** %self.dbg.spill12, metadata !1619, metadata !DIExpression()), !dbg !1627
  %30 = getelementptr inbounds { i64*, i64 }, { i64*, i64 }* %local_len, i32 0, i32 1, !dbg !1627
  %31 = getelementptr inbounds { i64*, i64 }, { i64*, i64 }* %local_len, i32 0, i32 1, !dbg !1627
  %32 = load i64, i64* %31, align 8, !dbg !1627
  %33 = add i64 %32, 1, !dbg !1627
  store i64 %33, i64* %30, align 8, !dbg !1627
  br label %bb3, !dbg !1594

bb10:                                             ; preds = %bb9, %bb6
; invoke core::ptr::drop_in_place<alloc::vec::set_len_on_drop::SetLenOnDrop>
  invoke void @"_ZN4core3ptr62drop_in_place$LT$alloc..vec..set_len_on_drop..SetLenOnDrop$GT$17h57968b12f1470d59E"({ i64*, i64 }* %local_len)
          to label %bb11 unwind label %cleanup, !dbg !1606

bb8:                                              ; preds = %bb6
  %dst13 = load [4 x i32]*, [4 x i32]** %ptr, align 8, !dbg !1628
  store [4 x i32]* %dst13, [4 x i32]** %dst.dbg.spill14, align 8, !dbg !1628
  call void @llvm.dbg.declare(metadata [4 x i32]** %dst.dbg.spill14, metadata !1553, metadata !DIExpression()), !dbg !1554
  store i8 0, i8* %_35, align 1, !dbg !1629
  %34 = bitcast %"alloc::vec::ExtendElement<[i32; 4]>"* %_33 to i8*, !dbg !1629
  %35 = bitcast %"alloc::vec::ExtendElement<[i32; 4]>"* %value to i8*, !dbg !1629
  call void @llvm.memcpy.p0i8.p0i8.i64(i8* align 4 %34, i8* align 4 %35, i64 16, i1 false), !dbg !1629
; invoke <alloc::vec::ExtendElement<T> as alloc::vec::ExtendWith<T>>::last
  invoke void @"_ZN86_$LT$alloc..vec..ExtendElement$LT$T$GT$$u20$as$u20$alloc..vec..ExtendWith$LT$T$GT$$GT$4last17h9c245d025282c622E"([4 x i32]* sret([4 x i32]) %src2, %"alloc::vec::ExtendElement<[i32; 4]>"* %_33)
          to label %bb9 unwind label %cleanup9, !dbg !1629

bb9:                                              ; preds = %bb8
  %36 = bitcast [4 x i32]* %dst13 to i8*, !dbg !1554
  %37 = bitcast [4 x i32]* %src2 to i8*, !dbg !1554
  call void @llvm.memcpy.p0i8.p0i8.i64(i8* align 4 %36, i8* align 4 %37, i64 16, i1 false), !dbg !1554
  store { i64*, i64 }* %local_len, { i64*, i64 }** %self.dbg.spill15, align 8, !dbg !1630
  call void @llvm.dbg.declare(metadata { i64*, i64 }** %self.dbg.spill15, metadata !1631, metadata !DIExpression()), !dbg !1636
  %38 = getelementptr inbounds { i64*, i64 }, { i64*, i64 }* %local_len, i32 0, i32 1, !dbg !1636
  %39 = getelementptr inbounds { i64*, i64 }, { i64*, i64 }* %local_len, i32 0, i32 1, !dbg !1636
  %40 = load i64, i64* %39, align 8, !dbg !1636
  %41 = add i64 %40, 1, !dbg !1636
  store i64 %41, i64* %38, align 8, !dbg !1636
  br label %bb10, !dbg !1637

abort:                                            ; preds = %bb13
  %42 = landingpad { i8*, i32 }
          cleanup, !dbg !1638
; call core::panicking::panic_no_unwind
  call void @_ZN4core9panicking15panic_no_unwind17h62f8113f44cbfcbfE() #15, !dbg !1638
  unreachable, !dbg !1638

bb11:                                             ; preds = %bb10
  %43 = load i8, i8* %_35, align 1, !dbg !1557, !range !246, !noundef !123
  %44 = trunc i8 %43 to i1, !dbg !1557
  br i1 %44, label %bb15, label %bb12, !dbg !1557

bb14:                                             ; preds = %bb16, %bb17
  %45 = bitcast { i8*, i32 }* %2 to i8**, !dbg !1638
  %46 = load i8*, i8** %45, align 8, !dbg !1638
  %47 = getelementptr inbounds { i8*, i32 }, { i8*, i32 }* %2, i32 0, i32 1, !dbg !1638
  %48 = load i32, i32* %47, align 8, !dbg !1638
  %49 = insertvalue { i8*, i32 } undef, i8* %46, 0, !dbg !1638
  %50 = insertvalue { i8*, i32 } %49, i32 %48, 1, !dbg !1638
  resume { i8*, i32 } %50, !dbg !1638

bb16:                                             ; preds = %bb17
  br label %bb14, !dbg !1557

bb12:                                             ; preds = %bb15, %bb11
  ret void, !dbg !1639

bb15:                                             ; preds = %bb11
  br label %bb12, !dbg !1557
}

; alloc::vec::Vec<T,A>::extend_with
; Function Attrs: nonlazybind uwtable
define void @"_ZN5alloc3vec16Vec$LT$T$C$A$GT$11extend_with17h84c3fc5526f21f12E"(%"alloc::vec::Vec<i32>"* align 8 %self, i64 %n, i32 %0) unnamed_addr #1 personality i32 (i32, i32, i64, %"unwind::libunwind::_Unwind_Exception"*, %"unwind::libunwind::_Unwind_Context"*)* @rust_eh_personality !dbg !1640 {
start:
  %self.dbg.spill15 = alloca { i64*, i64 }*, align 8
  %dst.dbg.spill14 = alloca i32*, align 8
  %self.dbg.spill12 = alloca { i64*, i64 }*, align 8
  %1 = alloca i32*, align 8
  %self.dbg.spill11 = alloca i32*, align 8
  %dst.dbg.spill = alloca i32*, align 8
  %self.dbg.spill8 = alloca { i64, i64 }*, align 8
  %len.dbg.spill = alloca i64*, align 8
  %2 = alloca i32*, align 8
  %count.dbg.spill7 = alloca i64, align 8
  %self.dbg.spill6 = alloca i32*, align 8
  %count.dbg.spill = alloca i64, align 8
  %self.dbg.spill5 = alloca %"alloc::vec::Vec<i32>"*, align 8
  %self.dbg.spill4 = alloca i32*, align 8
  %3 = alloca { i8*, i32 }, align 8
  %n.dbg.spill = alloca i64, align 8
  %self.dbg.spill = alloca %"alloc::vec::Vec<i32>"*, align 8
  %_35 = alloca i8, align 1
  %src2 = alloca i32, align 4
  %src = alloca i32, align 4
  %_19 = alloca { i64, i64 }, align 8
  %iter = alloca { i64, i64 }, align 8
  %self1 = alloca { i64, i64 }, align 8
  %local_len = alloca { i64*, i64 }, align 8
  %ptr = alloca i32*, align 8
  %value = alloca i32, align 4
  store i32 %0, i32* %value, align 4
  store %"alloc::vec::Vec<i32>"* %self, %"alloc::vec::Vec<i32>"** %self.dbg.spill, align 8
  call void @llvm.dbg.declare(metadata %"alloc::vec::Vec<i32>"** %self.dbg.spill, metadata !1647, metadata !DIExpression()), !dbg !1658
  store i64 %n, i64* %n.dbg.spill, align 8
  call void @llvm.dbg.declare(metadata i64* %n.dbg.spill, metadata !1648, metadata !DIExpression()), !dbg !1659
  call void @llvm.dbg.declare(metadata i32* %value, metadata !1649, metadata !DIExpression()), !dbg !1660
  call void @llvm.dbg.declare(metadata i32** %ptr, metadata !1650, metadata !DIExpression()), !dbg !1661
  call void @llvm.dbg.declare(metadata { i64*, i64 }* %local_len, metadata !1652, metadata !DIExpression()), !dbg !1662
  call void @llvm.dbg.declare(metadata { i64, i64 }* %self1, metadata !1663, metadata !DIExpression()), !dbg !1667
  call void @llvm.dbg.declare(metadata { i64, i64 }* %iter, metadata !1654, metadata !DIExpression()), !dbg !1669
  call void @llvm.dbg.declare(metadata i32* %src, metadata !1670, metadata !DIExpression()), !dbg !1677
  call void @llvm.dbg.declare(metadata i32* %src2, metadata !1679, metadata !DIExpression()), !dbg !1684
  store i8 1, i8* %_35, align 1, !dbg !1686
; invoke alloc::vec::Vec<T,A>::reserve
  invoke void @"_ZN5alloc3vec16Vec$LT$T$C$A$GT$7reserve17h17c5a7b1b9adfb6dE"(%"alloc::vec::Vec<i32>"* align 8 %self, i64 %n)
          to label %bb1 unwind label %cleanup, !dbg !1686

bb17:                                             ; preds = %bb13, %cleanup
  %4 = load i8, i8* %_35, align 1, !dbg !1687, !range !246, !noundef !123
  %5 = trunc i8 %4 to i1, !dbg !1687
  br i1 %5, label %bb16, label %bb14, !dbg !1687

cleanup:                                          ; preds = %bb10, %bb1, %start
  %6 = landingpad { i8*, i32 }
          cleanup
  %7 = extractvalue { i8*, i32 } %6, 0
  %8 = extractvalue { i8*, i32 } %6, 1
  %9 = getelementptr inbounds { i8*, i32 }, { i8*, i32 }* %3, i32 0, i32 0
  store i8* %7, i8** %9, align 8
  %10 = getelementptr inbounds { i8*, i32 }, { i8*, i32 }* %3, i32 0, i32 1
  store i32 %8, i32* %10, align 8
  br label %bb17

bb1:                                              ; preds = %start
; invoke alloc::vec::Vec<T,A>::as_mut_ptr
  %self3 = invoke i32* @"_ZN5alloc3vec16Vec$LT$T$C$A$GT$10as_mut_ptr17hc32a8b2996952385E"(%"alloc::vec::Vec<i32>"* align 8 %self)
          to label %bb2 unwind label %cleanup, !dbg !1688

bb2:                                              ; preds = %bb1
  store i32* %self3, i32** %self.dbg.spill4, align 8, !dbg !1688
  call void @llvm.dbg.declare(metadata i32** %self.dbg.spill4, metadata !1689, metadata !DIExpression()), !dbg !1696
  store %"alloc::vec::Vec<i32>"* %self, %"alloc::vec::Vec<i32>"** %self.dbg.spill5, align 8, !dbg !1697
  call void @llvm.dbg.declare(metadata %"alloc::vec::Vec<i32>"** %self.dbg.spill5, metadata !1698, metadata !DIExpression()), !dbg !1704
  %11 = getelementptr inbounds %"alloc::vec::Vec<i32>", %"alloc::vec::Vec<i32>"* %self, i32 0, i32 1, !dbg !1704
  %count = load i64, i64* %11, align 8, !dbg !1704
  store i64 %count, i64* %count.dbg.spill, align 8, !dbg !1704
  call void @llvm.dbg.declare(metadata i64* %count.dbg.spill, metadata !1695, metadata !DIExpression()), !dbg !1696
  store i32* %self3, i32** %self.dbg.spill6, align 8, !dbg !1696
  call void @llvm.dbg.declare(metadata i32** %self.dbg.spill6, metadata !1705, metadata !DIExpression()), !dbg !1712
  store i64 %count, i64* %count.dbg.spill7, align 8, !dbg !1696
  call void @llvm.dbg.declare(metadata i64* %count.dbg.spill7, metadata !1711, metadata !DIExpression()), !dbg !1712
  %12 = getelementptr inbounds i32, i32* %self3, i64 %count, !dbg !1712
  store i32* %12, i32** %2, align 8, !dbg !1712
  %_39 = load i32*, i32** %2, align 8, !dbg !1712
  br label %bb18, !dbg !1712

bb18:                                             ; preds = %bb2
  store i32* %_39, i32** %ptr, align 8, !dbg !1712
  %_14 = getelementptr inbounds %"alloc::vec::Vec<i32>", %"alloc::vec::Vec<i32>"* %self, i32 0, i32 1, !dbg !1714
  store i64* %_14, i64** %len.dbg.spill, align 8, !dbg !1714
  call void @llvm.dbg.declare(metadata i64** %len.dbg.spill, metadata !1715, metadata !DIExpression()), !dbg !1719
  %_43 = load i64, i64* %_14, align 8, !dbg !1719
  %13 = bitcast { i64*, i64 }* %local_len to i64**, !dbg !1719
  store i64* %_14, i64** %13, align 8, !dbg !1719
  %14 = getelementptr inbounds { i64*, i64 }, { i64*, i64 }* %local_len, i32 0, i32 1, !dbg !1719
  store i64 %_43, i64* %14, align 8, !dbg !1719
  %15 = bitcast { i64, i64 }* %self1 to i64*, !dbg !1668
  store i64 1, i64* %15, align 8, !dbg !1668
  %16 = getelementptr inbounds { i64, i64 }, { i64, i64 }* %self1, i32 0, i32 1, !dbg !1668
  store i64 %n, i64* %16, align 8, !dbg !1668
  %17 = getelementptr inbounds { i64, i64 }, { i64, i64 }* %self1, i32 0, i32 0, !dbg !1667
  %_15.0 = load i64, i64* %17, align 8, !dbg !1667
  %18 = getelementptr inbounds { i64, i64 }, { i64, i64 }* %self1, i32 0, i32 1, !dbg !1667
  %_15.1 = load i64, i64* %18, align 8, !dbg !1667
  %19 = getelementptr inbounds { i64, i64 }, { i64, i64 }* %iter, i32 0, i32 0, !dbg !1668
  store i64 %_15.0, i64* %19, align 8, !dbg !1668
  %20 = getelementptr inbounds { i64, i64 }, { i64, i64 }* %iter, i32 0, i32 1, !dbg !1668
  store i64 %_15.1, i64* %20, align 8, !dbg !1668
  br label %bb3, !dbg !1721

bb3:                                              ; preds = %bb20, %bb18
  store { i64, i64 }* %iter, { i64, i64 }** %self.dbg.spill8, align 8, !dbg !1669
  call void @llvm.dbg.declare(metadata { i64, i64 }** %self.dbg.spill8, metadata !1722, metadata !DIExpression()), !dbg !1726
; invoke <core::ops::range::Range<T> as core::iter::range::RangeIteratorImpl>::spec_next
  %21 = invoke { i64, i64 } @"_ZN89_$LT$core..ops..range..Range$LT$T$GT$$u20$as$u20$core..iter..range..RangeIteratorImpl$GT$9spec_next17hebc235f2b2856581E"({ i64, i64 }* align 8 %iter)
          to label %bb19 unwind label %cleanup9, !dbg !1726

bb13:                                             ; preds = %cleanup9
; invoke core::ptr::drop_in_place<alloc::vec::set_len_on_drop::SetLenOnDrop>
  invoke void @"_ZN4core3ptr62drop_in_place$LT$alloc..vec..set_len_on_drop..SetLenOnDrop$GT$17h57968b12f1470d59E"({ i64*, i64 }* %local_len) #14
          to label %bb17 unwind label %abort, !dbg !1727

cleanup9:                                         ; preds = %bb8, %bb4, %bb3
  %22 = landingpad { i8*, i32 }
          cleanup
  %23 = extractvalue { i8*, i32 } %22, 0
  %24 = extractvalue { i8*, i32 } %22, 1
  %25 = getelementptr inbounds { i8*, i32 }, { i8*, i32 }* %3, i32 0, i32 0
  store i8* %23, i8** %25, align 8
  %26 = getelementptr inbounds { i8*, i32 }, { i8*, i32 }* %3, i32 0, i32 1
  store i32 %24, i32* %26, align 8
  br label %bb13

bb19:                                             ; preds = %bb3
  store { i64, i64 } %21, { i64, i64 }* %_19, align 8, !dbg !1726
  %27 = bitcast { i64, i64 }* %_19 to i64*, !dbg !1669
  %_22 = load i64, i64* %27, align 8, !dbg !1669, !range !435, !noundef !123
  switch i64 %_22, label %bb5 [
    i64 0, label %bb6
    i64 1, label %bb4
  ], !dbg !1669

bb5:                                              ; preds = %bb19
  unreachable, !dbg !1669

bb6:                                              ; preds = %bb19
  %_29 = icmp ugt i64 %n, 0, !dbg !1728
  br i1 %_29, label %bb8, label %bb10, !dbg !1728

bb4:                                              ; preds = %bb19
  %dst = load i32*, i32** %ptr, align 8, !dbg !1729
  store i32* %dst, i32** %dst.dbg.spill, align 8, !dbg !1729
  call void @llvm.dbg.declare(metadata i32** %dst.dbg.spill, metadata !1676, metadata !DIExpression()), !dbg !1677
; invoke <alloc::vec::ExtendElement<T> as alloc::vec::ExtendWith<T>>::next
  %28 = invoke i32 @"_ZN86_$LT$alloc..vec..ExtendElement$LT$T$GT$$u20$as$u20$alloc..vec..ExtendWith$LT$T$GT$$GT$4next17h0d567809cc9aa6dfE"(i32* align 4 %value)
          to label %bb7 unwind label %cleanup9, !dbg !1730

bb7:                                              ; preds = %bb4
  store i32 %28, i32* %src, align 4, !dbg !1730
  %29 = bitcast i32* %dst to i8*, !dbg !1677
  %30 = bitcast i32* %src to i8*, !dbg !1677
  call void @llvm.memcpy.p0i8.p0i8.i64(i8* align 4 %29, i8* align 4 %30, i64 4, i1 false), !dbg !1677
  %self10 = load i32*, i32** %ptr, align 8, !dbg !1731
  store i32* %self10, i32** %self.dbg.spill11, align 8, !dbg !1731
  call void @llvm.dbg.declare(metadata i32** %self.dbg.spill11, metadata !1732, metadata !DIExpression()), !dbg !1737
  %31 = getelementptr inbounds i32, i32* %self10, i64 1, !dbg !1737
  store i32* %31, i32** %1, align 8, !dbg !1737
  %_50 = load i32*, i32** %1, align 8, !dbg !1737
  br label %bb20, !dbg !1737

bb20:                                             ; preds = %bb7
  store i32* %_50, i32** %ptr, align 8, !dbg !1738
  store { i64*, i64 }* %local_len, { i64*, i64 }** %self.dbg.spill12, align 8, !dbg !1739
  call void @llvm.dbg.declare(metadata { i64*, i64 }** %self.dbg.spill12, metadata !1740, metadata !DIExpression()), !dbg !1745
  %32 = getelementptr inbounds { i64*, i64 }, { i64*, i64 }* %local_len, i32 0, i32 1, !dbg !1745
  %33 = getelementptr inbounds { i64*, i64 }, { i64*, i64 }* %local_len, i32 0, i32 1, !dbg !1745
  %34 = load i64, i64* %33, align 8, !dbg !1745
  %35 = add i64 %34, 1, !dbg !1745
  store i64 %35, i64* %32, align 8, !dbg !1745
  br label %bb3, !dbg !1721

bb10:                                             ; preds = %bb9, %bb6
; invoke core::ptr::drop_in_place<alloc::vec::set_len_on_drop::SetLenOnDrop>
  invoke void @"_ZN4core3ptr62drop_in_place$LT$alloc..vec..set_len_on_drop..SetLenOnDrop$GT$17h57968b12f1470d59E"({ i64*, i64 }* %local_len)
          to label %bb11 unwind label %cleanup, !dbg !1727

bb8:                                              ; preds = %bb6
  %dst13 = load i32*, i32** %ptr, align 8, !dbg !1746
  store i32* %dst13, i32** %dst.dbg.spill14, align 8, !dbg !1746
  call void @llvm.dbg.declare(metadata i32** %dst.dbg.spill14, metadata !1683, metadata !DIExpression()), !dbg !1684
  store i8 0, i8* %_35, align 1, !dbg !1747
  %_33 = load i32, i32* %value, align 4, !dbg !1747
; invoke <alloc::vec::ExtendElement<T> as alloc::vec::ExtendWith<T>>::last
  %36 = invoke i32 @"_ZN86_$LT$alloc..vec..ExtendElement$LT$T$GT$$u20$as$u20$alloc..vec..ExtendWith$LT$T$GT$$GT$4last17hbe1b5f86095245bfE"(i32 %_33)
          to label %bb9 unwind label %cleanup9, !dbg !1747

bb9:                                              ; preds = %bb8
  store i32 %36, i32* %src2, align 4, !dbg !1747
  %37 = bitcast i32* %dst13 to i8*, !dbg !1684
  %38 = bitcast i32* %src2 to i8*, !dbg !1684
  call void @llvm.memcpy.p0i8.p0i8.i64(i8* align 4 %37, i8* align 4 %38, i64 4, i1 false), !dbg !1684
  store { i64*, i64 }* %local_len, { i64*, i64 }** %self.dbg.spill15, align 8, !dbg !1748
  call void @llvm.dbg.declare(metadata { i64*, i64 }** %self.dbg.spill15, metadata !1749, metadata !DIExpression()), !dbg !1754
  %39 = getelementptr inbounds { i64*, i64 }, { i64*, i64 }* %local_len, i32 0, i32 1, !dbg !1754
  %40 = getelementptr inbounds { i64*, i64 }, { i64*, i64 }* %local_len, i32 0, i32 1, !dbg !1754
  %41 = load i64, i64* %40, align 8, !dbg !1754
  %42 = add i64 %41, 1, !dbg !1754
  store i64 %42, i64* %39, align 8, !dbg !1754
  br label %bb10, !dbg !1755

abort:                                            ; preds = %bb13
  %43 = landingpad { i8*, i32 }
          cleanup, !dbg !1756
; call core::panicking::panic_no_unwind
  call void @_ZN4core9panicking15panic_no_unwind17h62f8113f44cbfcbfE() #15, !dbg !1756
  unreachable, !dbg !1756

bb11:                                             ; preds = %bb10
  %44 = load i8, i8* %_35, align 1, !dbg !1687, !range !246, !noundef !123
  %45 = trunc i8 %44 to i1, !dbg !1687
  br i1 %45, label %bb15, label %bb12, !dbg !1687

bb14:                                             ; preds = %bb16, %bb17
  %46 = bitcast { i8*, i32 }* %3 to i8**, !dbg !1756
  %47 = load i8*, i8** %46, align 8, !dbg !1756
  %48 = getelementptr inbounds { i8*, i32 }, { i8*, i32 }* %3, i32 0, i32 1, !dbg !1756
  %49 = load i32, i32* %48, align 8, !dbg !1756
  %50 = insertvalue { i8*, i32 } undef, i8* %47, 0, !dbg !1756
  %51 = insertvalue { i8*, i32 } %50, i32 %49, 1, !dbg !1756
  resume { i8*, i32 } %51, !dbg !1756

bb16:                                             ; preds = %bb17
  br label %bb14, !dbg !1687

bb12:                                             ; preds = %bb15, %bb11
  ret void, !dbg !1757

bb15:                                             ; preds = %bb11
  br label %bb12, !dbg !1687
}

; alloc::vec::Vec<T,A>::reserve
; Function Attrs: nonlazybind uwtable
define void @"_ZN5alloc3vec16Vec$LT$T$C$A$GT$7reserve17h17c5a7b1b9adfb6dE"(%"alloc::vec::Vec<i32>"* align 8 %self, i64 %additional) unnamed_addr #1 !dbg !1758 {
start:
  %additional.dbg.spill = alloca i64, align 8
  %self.dbg.spill = alloca %"alloc::vec::Vec<i32>"*, align 8
  store %"alloc::vec::Vec<i32>"* %self, %"alloc::vec::Vec<i32>"** %self.dbg.spill, align 8
  call void @llvm.dbg.declare(metadata %"alloc::vec::Vec<i32>"** %self.dbg.spill, metadata !1762, metadata !DIExpression()), !dbg !1764
  store i64 %additional, i64* %additional.dbg.spill, align 8
  call void @llvm.dbg.declare(metadata i64* %additional.dbg.spill, metadata !1763, metadata !DIExpression()), !dbg !1765
  %_4 = bitcast %"alloc::vec::Vec<i32>"* %self to { i32*, i64 }*, !dbg !1766
  %0 = getelementptr inbounds %"alloc::vec::Vec<i32>", %"alloc::vec::Vec<i32>"* %self, i32 0, i32 1, !dbg !1767
  %_5 = load i64, i64* %0, align 8, !dbg !1767
; call alloc::raw_vec::RawVec<T,A>::reserve
  call void @"_ZN5alloc7raw_vec19RawVec$LT$T$C$A$GT$7reserve17he4330044925f45e7E"({ i32*, i64 }* align 8 %_4, i64 %_5, i64 %additional), !dbg !1766
  br label %bb1, !dbg !1766

bb1:                                              ; preds = %start
  ret void, !dbg !1768
}

; alloc::vec::Vec<T,A>::reserve
; Function Attrs: nonlazybind uwtable
define void @"_ZN5alloc3vec16Vec$LT$T$C$A$GT$7reserve17h448db330074d47b4E"(%"alloc::vec::Vec<[i32; 4]>"* align 8 %self, i64 %additional) unnamed_addr #1 !dbg !1769 {
start:
  %additional.dbg.spill = alloca i64, align 8
  %self.dbg.spill = alloca %"alloc::vec::Vec<[i32; 4]>"*, align 8
  store %"alloc::vec::Vec<[i32; 4]>"* %self, %"alloc::vec::Vec<[i32; 4]>"** %self.dbg.spill, align 8
  call void @llvm.dbg.declare(metadata %"alloc::vec::Vec<[i32; 4]>"** %self.dbg.spill, metadata !1773, metadata !DIExpression()), !dbg !1775
  store i64 %additional, i64* %additional.dbg.spill, align 8
  call void @llvm.dbg.declare(metadata i64* %additional.dbg.spill, metadata !1774, metadata !DIExpression()), !dbg !1776
  %_4 = bitcast %"alloc::vec::Vec<[i32; 4]>"* %self to { i32*, i64 }*, !dbg !1777
  %0 = getelementptr inbounds %"alloc::vec::Vec<[i32; 4]>", %"alloc::vec::Vec<[i32; 4]>"* %self, i32 0, i32 1, !dbg !1778
  %_5 = load i64, i64* %0, align 8, !dbg !1778
; call alloc::raw_vec::RawVec<T,A>::reserve
  call void @"_ZN5alloc7raw_vec19RawVec$LT$T$C$A$GT$7reserve17haf34e066d99ede8bE"({ i32*, i64 }* align 8 %_4, i64 %_5, i64 %additional), !dbg !1777
  br label %bb1, !dbg !1777

bb1:                                              ; preds = %start
  ret void, !dbg !1779
}

; alloc::vec::from_elem
; Function Attrs: nonlazybind uwtable
define void @_ZN5alloc3vec9from_elem17h6ce0ebfb681b7ff1E(%"alloc::vec::Vec<[i32; 4]>"* sret(%"alloc::vec::Vec<[i32; 4]>") %0, [4 x i32]* %elem, i64 %n) unnamed_addr #1 !dbg !1780 {
start:
  %n.dbg.spill = alloca i64, align 8
  %_3 = alloca [4 x i32], align 4
  call void @llvm.dbg.declare(metadata [4 x i32]* %elem, metadata !1784, metadata !DIExpression()), !dbg !1786
  store i64 %n, i64* %n.dbg.spill, align 8
  call void @llvm.dbg.declare(metadata i64* %n.dbg.spill, metadata !1785, metadata !DIExpression()), !dbg !1787
  %1 = bitcast [4 x i32]* %_3 to i8*, !dbg !1788
  %2 = bitcast [4 x i32]* %elem to i8*, !dbg !1788
  call void @llvm.memcpy.p0i8.p0i8.i64(i8* align 4 %1, i8* align 4 %2, i64 16, i1 false), !dbg !1788
; call <T as alloc::vec::spec_from_elem::SpecFromElem>::from_elem
  call void @"_ZN62_$LT$T$u20$as$u20$alloc..vec..spec_from_elem..SpecFromElem$GT$9from_elem17h996e49c786255476E"(%"alloc::vec::Vec<[i32; 4]>"* sret(%"alloc::vec::Vec<[i32; 4]>") %0, [4 x i32]* %_3, i64 %n), !dbg !1789
  br label %bb1, !dbg !1789

bb1:                                              ; preds = %start
  ret void, !dbg !1790
}

; alloc::vec::from_elem
; Function Attrs: nonlazybind uwtable
define void @_ZN5alloc3vec9from_elem17hf0aa3e9bfc20192eE(%"alloc::vec::Vec<i32>"* sret(%"alloc::vec::Vec<i32>") %0, i32 %elem, i64 %n) unnamed_addr #1 !dbg !1791 {
start:
  %n.dbg.spill = alloca i64, align 8
  %elem.dbg.spill = alloca i32, align 4
  store i32 %elem, i32* %elem.dbg.spill, align 4
  call void @llvm.dbg.declare(metadata i32* %elem.dbg.spill, metadata !1795, metadata !DIExpression()), !dbg !1797
  store i64 %n, i64* %n.dbg.spill, align 8
  call void @llvm.dbg.declare(metadata i64* %n.dbg.spill, metadata !1796, metadata !DIExpression()), !dbg !1798
; call <T as alloc::vec::spec_from_elem::SpecFromElem>::from_elem
  call void @"_ZN62_$LT$T$u20$as$u20$alloc..vec..spec_from_elem..SpecFromElem$GT$9from_elem17h1e41d7a94cfcccffE"(%"alloc::vec::Vec<i32>"* sret(%"alloc::vec::Vec<i32>") %0, i32 %elem, i64 %n), !dbg !1799
  br label %bb1, !dbg !1799

bb1:                                              ; preds = %start
  ret void, !dbg !1800
}

; alloc::alloc::Global::alloc_impl
; Function Attrs: inlinehint nonlazybind uwtable
define internal { i8*, i64 } @_ZN5alloc5alloc6Global10alloc_impl17h079db7c8e4f3ce7aE(%"alloc::alloc::Global"* align 1 %self, i64 %0, i64 %1, i1 zeroext %zeroed) unnamed_addr #0 !dbg !1801 {
start:
  %ptr.dbg.spill38 = alloca { [0 x i8]*, i64 }, align 8
  %data_address.dbg.spill35 = alloca {}*, align 8
  %self.dbg.spill33 = alloca i8*, align 8
  %data.dbg.spill32 = alloca i8*, align 8
  %self.dbg.spill31 = alloca i8*, align 8
  %ptr.dbg.spill29 = alloca i8*, align 8
  %2 = alloca i8*, align 8
  %addr.dbg.spill = alloca i64, align 8
  %n.dbg.spill28 = alloca i64, align 8
  %self.dbg.spill27 = alloca { i64, i64 }*, align 8
  %self.dbg.spill26 = alloca { i64, i64 }*, align 8
  %ptr.dbg.spill25 = alloca { [0 x i8]*, i64 }, align 8
  %metadata.dbg.spill = alloca i64, align 8
  %data_address.dbg.spill = alloca {}*, align 8
  %self.dbg.spill24 = alloca i8*, align 8
  %len.dbg.spill23 = alloca i64, align 8
  %data.dbg.spill22 = alloca i8*, align 8
  %self.dbg.spill21 = alloca i8*, align 8
  %len.dbg.spill = alloca i64, align 8
  %data.dbg.spill = alloca i8*, align 8
  %ptr.dbg.spill = alloca i8*, align 8
  %val.dbg.spill = alloca i8*, align 8
  %v.dbg.spill20 = alloca i8*, align 8
  %v.dbg.spill = alloca i8*, align 8
  %n.dbg.spill18 = alloca i64, align 8
  %self.dbg.spill17 = alloca { i64, i64 }*, align 8
  %self.dbg.spill16 = alloca { i64, i64 }*, align 8
  %n.dbg.spill = alloca i64, align 8
  %self.dbg.spill15 = alloca { i64, i64 }*, align 8
  %self.dbg.spill14 = alloca { i64, i64 }*, align 8
  %size.dbg.spill = alloca i64, align 8
  %self.dbg.spill13 = alloca { i64, i64 }*, align 8
  %e.dbg.spill12 = alloca %"core::alloc::AllocError", align 1
  %e.dbg.spill = alloca %"core::alloc::AllocError", align 1
  %residual.dbg.spill5 = alloca %"core::result::Result<core::convert::Infallible, core::alloc::AllocError>::Err", align 1
  %residual.dbg.spill = alloca %"core::result::Result<core::convert::Infallible, core::alloc::AllocError>::Err", align 1
  %err.dbg.spill = alloca %"core::alloc::AllocError", align 1
  %zeroed.dbg.spill = alloca i8, align 1
  %self.dbg.spill = alloca %"alloc::alloc::Global"*, align 8
  %_94 = alloca { i8*, i64 }, align 8
  %_93 = alloca %"core::ptr::metadata::PtrRepr<[u8]>", align 8
  %self11 = alloca i64, align 8
  %self10 = alloca i64, align 8
  %self9 = alloca i64, align 8
  %self8 = alloca i64, align 8
  %_51 = alloca { i8*, i64 }, align 8
  %_50 = alloca %"core::ptr::metadata::PtrRepr<[u8]>", align 8
  %self7 = alloca i64, align 8
  %self6 = alloca i64, align 8
  %_24 = alloca { i8*, i64 }, align 8
  %self4 = alloca i8*, align 8
  %self3 = alloca i8*, align 8
  %_15 = alloca i8*, align 8
  %layout2 = alloca { i64, i64 }, align 8
  %layout1 = alloca { i64, i64 }, align 8
  %raw_ptr = alloca i8*, align 8
  %data = alloca i8*, align 8
  %_6 = alloca { i8*, i64 }, align 8
  %3 = alloca { i8*, i64 }, align 8
  %layout = alloca { i64, i64 }, align 8
  %4 = getelementptr inbounds { i64, i64 }, { i64, i64 }* %layout, i32 0, i32 0
  store i64 %0, i64* %4, align 8
  %5 = getelementptr inbounds { i64, i64 }, { i64, i64 }* %layout, i32 0, i32 1
  store i64 %1, i64* %5, align 8
  store %"alloc::alloc::Global"* %self, %"alloc::alloc::Global"** %self.dbg.spill, align 8
  call void @llvm.dbg.declare(metadata %"alloc::alloc::Global"** %self.dbg.spill, metadata !1807, metadata !DIExpression()), !dbg !1833
  call void @llvm.dbg.declare(metadata { i64, i64 }* %layout, metadata !1808, metadata !DIExpression()), !dbg !1834
  %6 = zext i1 %zeroed to i8
  store i8 %6, i8* %zeroed.dbg.spill, align 1
  call void @llvm.dbg.declare(metadata i8* %zeroed.dbg.spill, metadata !1809, metadata !DIExpression()), !dbg !1835
  call void @llvm.dbg.declare(metadata i8** %data, metadata !1836, metadata !DIExpression()), !dbg !1843
  call void @llvm.dbg.declare(metadata i8** %raw_ptr, metadata !1812, metadata !DIExpression()), !dbg !1845
  call void @llvm.dbg.declare(metadata { i64, i64 }* %layout1, metadata !1846, metadata !DIExpression()), !dbg !1851
  call void @llvm.dbg.declare(metadata { i64, i64 }* %layout2, metadata !1853, metadata !DIExpression()), !dbg !1856
  call void @llvm.dbg.declare(metadata i8** %self3, metadata !1858, metadata !DIExpression()), !dbg !1900
  call void @llvm.dbg.declare(metadata i8** %self4, metadata !1902, metadata !DIExpression()), !dbg !1912
  call void @llvm.dbg.declare(metadata %"core::alloc::AllocError"* %err.dbg.spill, metadata !1908, metadata !DIExpression()), !dbg !1912
  call void @llvm.dbg.declare(metadata %"core::result::Result<core::convert::Infallible, core::alloc::AllocError>::Err"* %residual.dbg.spill, metadata !1816, metadata !DIExpression()), !dbg !1913
  call void @llvm.dbg.declare(metadata %"core::result::Result<core::convert::Infallible, core::alloc::AllocError>::Err"* %residual.dbg.spill5, metadata !1914, metadata !DIExpression()), !dbg !1925
  call void @llvm.dbg.declare(metadata i64* %self6, metadata !1927, metadata !DIExpression()), !dbg !1931
  call void @llvm.dbg.declare(metadata i64* %self7, metadata !1947, metadata !DIExpression()), !dbg !1951
  call void @llvm.dbg.declare(metadata i64* %self8, metadata !1952, metadata !DIExpression()), !dbg !1956
  call void @llvm.dbg.declare(metadata i64* %self9, metadata !1963, metadata !DIExpression()), !dbg !1967
  call void @llvm.dbg.declare(metadata i64* %self10, metadata !1968, metadata !DIExpression()), !dbg !1972
  call void @llvm.dbg.declare(metadata i64* %self11, metadata !1979, metadata !DIExpression()), !dbg !1983
  call void @llvm.dbg.declare(metadata %"core::alloc::AllocError"* %e.dbg.spill, metadata !1897, metadata !DIExpression()), !dbg !1984
  call void @llvm.dbg.declare(metadata %"core::alloc::AllocError"* %e.dbg.spill12, metadata !1920, metadata !DIExpression()), !dbg !1985
  store { i64, i64 }* %layout, { i64, i64 }** %self.dbg.spill13, align 8, !dbg !1986
  call void @llvm.dbg.declare(metadata { i64, i64 }** %self.dbg.spill13, metadata !1987, metadata !DIExpression()), !dbg !1991
  %7 = bitcast { i64, i64 }* %layout to i64*, !dbg !1991
  %_4 = load i64, i64* %7, align 8, !dbg !1991
  %8 = icmp eq i64 %_4, 0, !dbg !1992
  br i1 %8, label %bb2, label %bb1, !dbg !1992

bb2:                                              ; preds = %start
  store { i64, i64 }* %layout, { i64, i64 }** %self.dbg.spill26, align 8, !dbg !1946
  call void @llvm.dbg.declare(metadata { i64, i64 }** %self.dbg.spill26, metadata !1944, metadata !DIExpression()), !dbg !1993
  store { i64, i64 }* %layout, { i64, i64 }** %self.dbg.spill27, align 8, !dbg !1993
  call void @llvm.dbg.declare(metadata { i64, i64 }** %self.dbg.spill27, metadata !1937, metadata !DIExpression()), !dbg !1994
  %9 = getelementptr inbounds { i64, i64 }, { i64, i64 }* %layout, i32 0, i32 1, !dbg !1994
  %10 = load i64, i64* %9, align 8, !dbg !1994, !range !707, !noundef !123
  store i64 %10, i64* %self7, align 8, !dbg !1994
  %_33 = load i64, i64* %self7, align 8, !dbg !1951, !range !707, !noundef !123
  store i64 %_33, i64* %n.dbg.spill28, align 8, !dbg !1951
  call void @llvm.dbg.declare(metadata i64* %n.dbg.spill28, metadata !1995, metadata !DIExpression()), !dbg !2002
  store i64 %_33, i64* %self6, align 8, !dbg !2002
  %addr = load i64, i64* %self6, align 8, !dbg !1931
  store i64 %addr, i64* %addr.dbg.spill, align 8, !dbg !1931
  call void @llvm.dbg.declare(metadata i64* %addr.dbg.spill, metadata !2004, metadata !DIExpression()), !dbg !2010
  %11 = bitcast i8** %2 to i64*, !dbg !2010
  store i64 %addr, i64* %11, align 8, !dbg !2010
  %ptr = load i8*, i8** %2, align 8, !dbg !2010
  store i8* %ptr, i8** %ptr.dbg.spill29, align 8, !dbg !2010
  call void @llvm.dbg.declare(metadata i8** %ptr.dbg.spill29, metadata !2012, metadata !DIExpression()), !dbg !2016
  br label %bb13, !dbg !2010

bb1:                                              ; preds = %start
  store i64 %_4, i64* %size.dbg.spill, align 8, !dbg !2018
  call void @llvm.dbg.declare(metadata i64* %size.dbg.spill, metadata !1810, metadata !DIExpression()), !dbg !2019
  br i1 %zeroed, label %bb3, label %bb4, !dbg !2020

bb4:                                              ; preds = %bb1
  %12 = getelementptr inbounds { i64, i64 }, { i64, i64 }* %layout, i32 0, i32 0, !dbg !2021
  %13 = load i64, i64* %12, align 8, !dbg !2021
  %14 = getelementptr inbounds { i64, i64 }, { i64, i64 }* %layout, i32 0, i32 1, !dbg !2021
  %15 = load i64, i64* %14, align 8, !dbg !2021, !range !707, !noundef !123
  %16 = getelementptr inbounds { i64, i64 }, { i64, i64 }* %layout2, i32 0, i32 0, !dbg !2021
  store i64 %13, i64* %16, align 8, !dbg !2021
  %17 = getelementptr inbounds { i64, i64 }, { i64, i64 }* %layout2, i32 0, i32 1, !dbg !2021
  store i64 %15, i64* %17, align 8, !dbg !2021
  store { i64, i64 }* %layout2, { i64, i64 }** %self.dbg.spill16, align 8, !dbg !1856
  call void @llvm.dbg.declare(metadata { i64, i64 }** %self.dbg.spill16, metadata !2022, metadata !DIExpression()), !dbg !2026
  %18 = bitcast { i64, i64 }* %layout2 to i64*, !dbg !2026
  %_67 = load i64, i64* %18, align 8, !dbg !2026
  store { i64, i64 }* %layout2, { i64, i64 }** %self.dbg.spill17, align 8, !dbg !1856
  call void @llvm.dbg.declare(metadata { i64, i64 }** %self.dbg.spill17, metadata !1976, metadata !DIExpression()), !dbg !2028
  %19 = getelementptr inbounds { i64, i64 }, { i64, i64 }* %layout2, i32 0, i32 1, !dbg !2028
  %20 = load i64, i64* %19, align 8, !dbg !2028, !range !707, !noundef !123
  store i64 %20, i64* %self11, align 8, !dbg !2028
  %_74 = load i64, i64* %self11, align 8, !dbg !1983, !range !707, !noundef !123
  store i64 %_74, i64* %n.dbg.spill18, align 8, !dbg !1983
  call void @llvm.dbg.declare(metadata i64* %n.dbg.spill18, metadata !2029, metadata !DIExpression()), !dbg !2036
  store i64 %_74, i64* %self10, align 8, !dbg !2036
  %_69 = load i64, i64* %self10, align 8, !dbg !1972
  %21 = call i8* @__rust_alloc(i64 %_67, i64 %_69) #16, !dbg !1856
  store i8* %21, i8** %raw_ptr, align 8, !dbg !1856
  br label %bb15, !dbg !1856

bb3:                                              ; preds = %bb1
  %22 = getelementptr inbounds { i64, i64 }, { i64, i64 }* %layout, i32 0, i32 0, !dbg !2038
  %23 = load i64, i64* %22, align 8, !dbg !2038
  %24 = getelementptr inbounds { i64, i64 }, { i64, i64 }* %layout, i32 0, i32 1, !dbg !2038
  %25 = load i64, i64* %24, align 8, !dbg !2038, !range !707, !noundef !123
  %26 = getelementptr inbounds { i64, i64 }, { i64, i64 }* %layout1, i32 0, i32 0, !dbg !2038
  store i64 %23, i64* %26, align 8, !dbg !2038
  %27 = getelementptr inbounds { i64, i64 }, { i64, i64 }* %layout1, i32 0, i32 1, !dbg !2038
  store i64 %25, i64* %27, align 8, !dbg !2038
  store { i64, i64 }* %layout1, { i64, i64 }** %self.dbg.spill14, align 8, !dbg !1851
  call void @llvm.dbg.declare(metadata { i64, i64 }** %self.dbg.spill14, metadata !2039, metadata !DIExpression()), !dbg !2043
  %28 = bitcast { i64, i64 }* %layout1 to i64*, !dbg !2043
  %_57 = load i64, i64* %28, align 8, !dbg !2043
  store { i64, i64 }* %layout1, { i64, i64 }** %self.dbg.spill15, align 8, !dbg !1851
  call void @llvm.dbg.declare(metadata { i64, i64 }** %self.dbg.spill15, metadata !1960, metadata !DIExpression()), !dbg !2045
  %29 = getelementptr inbounds { i64, i64 }, { i64, i64 }* %layout1, i32 0, i32 1, !dbg !2045
  %30 = load i64, i64* %29, align 8, !dbg !2045, !range !707, !noundef !123
  store i64 %30, i64* %self9, align 8, !dbg !2045
  %_64 = load i64, i64* %self9, align 8, !dbg !1967, !range !707, !noundef !123
  store i64 %_64, i64* %n.dbg.spill, align 8, !dbg !1967
  call void @llvm.dbg.declare(metadata i64* %n.dbg.spill, metadata !2046, metadata !DIExpression()), !dbg !2053
  store i64 %_64, i64* %self8, align 8, !dbg !2053
  %_59 = load i64, i64* %self8, align 8, !dbg !1956
  %31 = call i8* @__rust_alloc_zeroed(i64 %_57, i64 %_59) #16, !dbg !1851
  store i8* %31, i8** %raw_ptr, align 8, !dbg !1851
  br label %bb14, !dbg !1851

bb14:                                             ; preds = %bb3
  br label %bb5, !dbg !2055

bb5:                                              ; preds = %bb15, %bb14
  %_18 = load i8*, i8** %raw_ptr, align 8, !dbg !2056
; call core::ptr::non_null::NonNull<T>::new
  %32 = call i8* @"_ZN4core3ptr8non_null16NonNull$LT$T$GT$3new17ha4b86d9adfd21983E"(i8* %_18), !dbg !1901
  store i8* %32, i8** %self4, align 8, !dbg !1901
  br label %bb6, !dbg !1901

bb15:                                             ; preds = %bb4
  br label %bb5, !dbg !2055

bb6:                                              ; preds = %bb5
  %33 = bitcast i8** %self4 to {}**, !dbg !1912
  %34 = load {}*, {}** %33, align 8, !dbg !1912
  %35 = icmp eq {}* %34, null, !dbg !1912
  %_77 = select i1 %35, i64 0, i64 1, !dbg !1912
  switch i64 %_77, label %bb17 [
    i64 0, label %bb16
    i64 1, label %bb18
  ], !dbg !1912

bb17:                                             ; preds = %bb6
  unreachable, !dbg !1912

bb16:                                             ; preds = %bb6
  %36 = bitcast i8** %self3 to {}**, !dbg !1912
  store {}* null, {}** %36, align 8, !dbg !1912
  br label %bb19, !dbg !1912

bb18:                                             ; preds = %bb6
  %v = load i8*, i8** %self4, align 8, !dbg !1912, !nonnull !123, !noundef !123
  store i8* %v, i8** %v.dbg.spill, align 8, !dbg !1912
  call void @llvm.dbg.declare(metadata i8** %v.dbg.spill, metadata !1909, metadata !DIExpression()), !dbg !2057
  store i8* %v, i8** %self3, align 8, !dbg !2057
  br label %bb19, !dbg !1912

bb19:                                             ; preds = %bb16, %bb18
  %37 = bitcast i8** %self3 to {}**, !dbg !1900
  %38 = load {}*, {}** %37, align 8, !dbg !1900
  %39 = icmp eq {}* %38, null, !dbg !1900
  %_80 = select i1 %39, i64 1, i64 0, !dbg !1900
  switch i64 %_80, label %bb21 [
    i64 0, label %bb22
    i64 1, label %bb20
  ], !dbg !1900

bb21:                                             ; preds = %bb19
  unreachable, !dbg !1900

bb22:                                             ; preds = %bb19
  %v19 = load i8*, i8** %self3, align 8, !dbg !1900, !nonnull !123, !noundef !123
  store i8* %v19, i8** %v.dbg.spill20, align 8, !dbg !1900
  call void @llvm.dbg.declare(metadata i8** %v.dbg.spill20, metadata !1894, metadata !DIExpression()), !dbg !2058
  store i8* %v19, i8** %_15, align 8, !dbg !2058
  br label %bb7, !dbg !1900

bb20:                                             ; preds = %bb19
  %40 = bitcast i8** %_15 to {}**, !dbg !1984
  store {}* null, {}** %40, align 8, !dbg !1984
  br label %bb7, !dbg !1900

bb7:                                              ; preds = %bb22, %bb20
  %41 = bitcast i8** %_15 to {}**, !dbg !1901
  %42 = load {}*, {}** %41, align 8, !dbg !1901
  %43 = icmp eq {}* %42, null, !dbg !1901
  %_20 = select i1 %43, i64 1, i64 0, !dbg !1901
  switch i64 %_20, label %bb9 [
    i64 0, label %bb8
    i64 1, label %bb10
  ], !dbg !1901

bb9:                                              ; preds = %bb7
  unreachable, !dbg !1901

bb8:                                              ; preds = %bb7
  %val = load i8*, i8** %_15, align 8, !dbg !1901, !nonnull !123, !noundef !123
  store i8* %val, i8** %val.dbg.spill, align 8, !dbg !1901
  call void @llvm.dbg.declare(metadata i8** %val.dbg.spill, metadata !1831, metadata !DIExpression()), !dbg !2059
  store i8* %val, i8** %ptr.dbg.spill, align 8, !dbg !2059
  call void @llvm.dbg.declare(metadata i8** %ptr.dbg.spill, metadata !1814, metadata !DIExpression()), !dbg !2060
  store i8* %val, i8** %data.dbg.spill, align 8, !dbg !2061
  call void @llvm.dbg.declare(metadata i8** %data.dbg.spill, metadata !2062, metadata !DIExpression()), !dbg !2067
  store i64 %_4, i64* %len.dbg.spill, align 8, !dbg !2069
  call void @llvm.dbg.declare(metadata i64* %len.dbg.spill, metadata !2066, metadata !DIExpression()), !dbg !2067
  store i8* %val, i8** %self.dbg.spill21, align 8, !dbg !2067
  call void @llvm.dbg.declare(metadata i8** %self.dbg.spill21, metadata !2070, metadata !DIExpression()), !dbg !2074
  store i8* %val, i8** %data.dbg.spill22, align 8, !dbg !2074
  call void @llvm.dbg.declare(metadata i8** %data.dbg.spill22, metadata !2076, metadata !DIExpression()), !dbg !2087
  store i64 %_4, i64* %len.dbg.spill23, align 8, !dbg !2067
  call void @llvm.dbg.declare(metadata i64* %len.dbg.spill23, metadata !2086, metadata !DIExpression()), !dbg !2087
  store i8* %val, i8** %self.dbg.spill24, align 8, !dbg !2087
  call void @llvm.dbg.declare(metadata i8** %self.dbg.spill24, metadata !2089, metadata !DIExpression()), !dbg !2097
  %data_address = bitcast i8* %val to {}*, !dbg !2097
  store {}* %data_address, {}** %data_address.dbg.spill, align 8, !dbg !2097
  call void @llvm.dbg.declare(metadata {}** %data_address.dbg.spill, metadata !2099, metadata !DIExpression()), !dbg !2106
  store i64 %_4, i64* %metadata.dbg.spill, align 8, !dbg !2087
  call void @llvm.dbg.declare(metadata i64* %metadata.dbg.spill, metadata !2105, metadata !DIExpression()), !dbg !2106
  %44 = bitcast { i8*, i64 }* %_94 to {}**, !dbg !2106
  store {}* %data_address, {}** %44, align 8, !dbg !2106
  %45 = getelementptr inbounds { i8*, i64 }, { i8*, i64 }* %_94, i32 0, i32 1, !dbg !2106
  store i64 %_4, i64* %45, align 8, !dbg !2106
  %46 = bitcast %"core::ptr::metadata::PtrRepr<[u8]>"* %_93 to { i8*, i64 }*, !dbg !2106
  %47 = getelementptr inbounds { i8*, i64 }, { i8*, i64 }* %_94, i32 0, i32 0, !dbg !2106
  %48 = load i8*, i8** %47, align 8, !dbg !2106
  %49 = getelementptr inbounds { i8*, i64 }, { i8*, i64 }* %_94, i32 0, i32 1, !dbg !2106
  %50 = load i64, i64* %49, align 8, !dbg !2106
  %51 = getelementptr inbounds { i8*, i64 }, { i8*, i64 }* %46, i32 0, i32 0, !dbg !2106
  store i8* %48, i8** %51, align 8, !dbg !2106
  %52 = getelementptr inbounds { i8*, i64 }, { i8*, i64 }* %46, i32 0, i32 1, !dbg !2106
  store i64 %50, i64* %52, align 8, !dbg !2106
  %53 = bitcast %"core::ptr::metadata::PtrRepr<[u8]>"* %_93 to { [0 x i8]*, i64 }*, !dbg !2106
  %54 = getelementptr inbounds { [0 x i8]*, i64 }, { [0 x i8]*, i64 }* %53, i32 0, i32 0, !dbg !2106
  %ptr.0 = load [0 x i8]*, [0 x i8]** %54, align 8, !dbg !2106
  %55 = getelementptr inbounds { [0 x i8]*, i64 }, { [0 x i8]*, i64 }* %53, i32 0, i32 1, !dbg !2106
  %ptr.1 = load i64, i64* %55, align 8, !dbg !2106
  %56 = getelementptr inbounds { [0 x i8]*, i64 }, { [0 x i8]*, i64 }* %ptr.dbg.spill25, i32 0, i32 0, !dbg !2106
  store [0 x i8]* %ptr.0, [0 x i8]** %56, align 8, !dbg !2106
  %57 = getelementptr inbounds { [0 x i8]*, i64 }, { [0 x i8]*, i64 }* %ptr.dbg.spill25, i32 0, i32 1, !dbg !2106
  store i64 %ptr.1, i64* %57, align 8, !dbg !2106
  call void @llvm.dbg.declare(metadata { [0 x i8]*, i64 }* %ptr.dbg.spill25, metadata !2108, metadata !DIExpression()), !dbg !2114
  %58 = bitcast { i8*, i64 }* %_24 to { [0 x i8]*, i64 }*, !dbg !2114
  %59 = getelementptr inbounds { [0 x i8]*, i64 }, { [0 x i8]*, i64 }* %58, i32 0, i32 0, !dbg !2114
  store [0 x i8]* %ptr.0, [0 x i8]** %59, align 8, !dbg !2114
  %60 = getelementptr inbounds { [0 x i8]*, i64 }, { [0 x i8]*, i64 }* %58, i32 0, i32 1, !dbg !2114
  store i64 %ptr.1, i64* %60, align 8, !dbg !2114
  %61 = getelementptr inbounds { i8*, i64 }, { i8*, i64 }* %_24, i32 0, i32 0, !dbg !2116
  %62 = load i8*, i8** %61, align 8, !dbg !2116, !nonnull !123, !noundef !123
  %63 = getelementptr inbounds { i8*, i64 }, { i8*, i64 }* %_24, i32 0, i32 1, !dbg !2116
  %64 = load i64, i64* %63, align 8, !dbg !2116
  %65 = getelementptr inbounds { i8*, i64 }, { i8*, i64 }* %3, i32 0, i32 0, !dbg !2116
  store i8* %62, i8** %65, align 8, !dbg !2116
  %66 = getelementptr inbounds { i8*, i64 }, { i8*, i64 }* %3, i32 0, i32 1, !dbg !2116
  store i64 %64, i64* %66, align 8, !dbg !2116
  br label %bb11, !dbg !2117

bb10:                                             ; preds = %bb7
; call <T as core::convert::From<T>>::from
  call void @"_ZN50_$LT$T$u20$as$u20$core..convert..From$LT$T$GT$$GT$4from17he70645bce0dea0c2E"(), !dbg !1985
  br label %bb23, !dbg !1985

bb23:                                             ; preds = %bb10
  %67 = bitcast { i8*, i64 }* %3 to {}**, !dbg !1985
  store {}* null, {}** %67, align 8, !dbg !1985
  br label %bb12, !dbg !2118

bb12:                                             ; preds = %bb11, %bb23
  %68 = getelementptr inbounds { i8*, i64 }, { i8*, i64 }* %3, i32 0, i32 0, !dbg !2118
  %69 = load i8*, i8** %68, align 8, !dbg !2118
  %70 = getelementptr inbounds { i8*, i64 }, { i8*, i64 }* %3, i32 0, i32 1, !dbg !2118
  %71 = load i64, i64* %70, align 8, !dbg !2118
  %72 = insertvalue { i8*, i64 } undef, i8* %69, 0, !dbg !2118
  %73 = insertvalue { i8*, i64 } %72, i64 %71, 1, !dbg !2118
  ret { i8*, i64 } %73, !dbg !2118

bb11:                                             ; preds = %bb13, %bb8
  br label %bb12, !dbg !2118

bb13:                                             ; preds = %bb2
  store i8* %ptr, i8** %data, align 8, !dbg !2016
  %self30 = load i8*, i8** %data, align 8, !dbg !1843, !nonnull !123, !noundef !123
  store i8* %self30, i8** %self.dbg.spill31, align 8, !dbg !1843
  call void @llvm.dbg.declare(metadata i8** %self.dbg.spill31, metadata !2119, metadata !DIExpression()), !dbg !2123
  store i8* %self30, i8** %data.dbg.spill32, align 8, !dbg !2123
  call void @llvm.dbg.declare(metadata i8** %data.dbg.spill32, metadata !2125, metadata !DIExpression()), !dbg !2130
  store i8* %self30, i8** %self.dbg.spill33, align 8, !dbg !2130
  call void @llvm.dbg.declare(metadata i8** %self.dbg.spill33, metadata !2132, metadata !DIExpression()), !dbg !2136
  %data_address34 = bitcast i8* %self30 to {}*, !dbg !2136
  store {}* %data_address34, {}** %data_address.dbg.spill35, align 8, !dbg !2136
  call void @llvm.dbg.declare(metadata {}** %data_address.dbg.spill35, metadata !2138, metadata !DIExpression()), !dbg !2143
  %74 = bitcast { i8*, i64 }* %_51 to {}**, !dbg !2143
  store {}* %data_address34, {}** %74, align 8, !dbg !2143
  %75 = getelementptr inbounds { i8*, i64 }, { i8*, i64 }* %_51, i32 0, i32 1, !dbg !2143
  store i64 0, i64* %75, align 8, !dbg !2143
  %76 = bitcast %"core::ptr::metadata::PtrRepr<[u8]>"* %_50 to { i8*, i64 }*, !dbg !2143
  %77 = getelementptr inbounds { i8*, i64 }, { i8*, i64 }* %_51, i32 0, i32 0, !dbg !2143
  %78 = load i8*, i8** %77, align 8, !dbg !2143
  %79 = getelementptr inbounds { i8*, i64 }, { i8*, i64 }* %_51, i32 0, i32 1, !dbg !2143
  %80 = load i64, i64* %79, align 8, !dbg !2143
  %81 = getelementptr inbounds { i8*, i64 }, { i8*, i64 }* %76, i32 0, i32 0, !dbg !2143
  store i8* %78, i8** %81, align 8, !dbg !2143
  %82 = getelementptr inbounds { i8*, i64 }, { i8*, i64 }* %76, i32 0, i32 1, !dbg !2143
  store i64 %80, i64* %82, align 8, !dbg !2143
  %83 = bitcast %"core::ptr::metadata::PtrRepr<[u8]>"* %_50 to { [0 x i8]*, i64 }*, !dbg !2143
  %84 = getelementptr inbounds { [0 x i8]*, i64 }, { [0 x i8]*, i64 }* %83, i32 0, i32 0, !dbg !2143
  %ptr.036 = load [0 x i8]*, [0 x i8]** %84, align 8, !dbg !2143
  %85 = getelementptr inbounds { [0 x i8]*, i64 }, { [0 x i8]*, i64 }* %83, i32 0, i32 1, !dbg !2143
  %ptr.137 = load i64, i64* %85, align 8, !dbg !2143
  %86 = getelementptr inbounds { [0 x i8]*, i64 }, { [0 x i8]*, i64 }* %ptr.dbg.spill38, i32 0, i32 0, !dbg !2143
  store [0 x i8]* %ptr.036, [0 x i8]** %86, align 8, !dbg !2143
  %87 = getelementptr inbounds { [0 x i8]*, i64 }, { [0 x i8]*, i64 }* %ptr.dbg.spill38, i32 0, i32 1, !dbg !2143
  store i64 %ptr.137, i64* %87, align 8, !dbg !2143
  call void @llvm.dbg.declare(metadata { [0 x i8]*, i64 }* %ptr.dbg.spill38, metadata !2145, metadata !DIExpression()), !dbg !2149
  %88 = bitcast { i8*, i64 }* %_6 to { [0 x i8]*, i64 }*, !dbg !2149
  %89 = getelementptr inbounds { [0 x i8]*, i64 }, { [0 x i8]*, i64 }* %88, i32 0, i32 0, !dbg !2149
  store [0 x i8]* %ptr.036, [0 x i8]** %89, align 8, !dbg !2149
  %90 = getelementptr inbounds { [0 x i8]*, i64 }, { [0 x i8]*, i64 }* %88, i32 0, i32 1, !dbg !2149
  store i64 %ptr.137, i64* %90, align 8, !dbg !2149
  %91 = getelementptr inbounds { i8*, i64 }, { i8*, i64 }* %_6, i32 0, i32 0, !dbg !2151
  %92 = load i8*, i8** %91, align 8, !dbg !2151, !nonnull !123, !noundef !123
  %93 = getelementptr inbounds { i8*, i64 }, { i8*, i64 }* %_6, i32 0, i32 1, !dbg !2151
  %94 = load i64, i64* %93, align 8, !dbg !2151
  %95 = getelementptr inbounds { i8*, i64 }, { i8*, i64 }* %3, i32 0, i32 0, !dbg !2151
  store i8* %92, i8** %95, align 8, !dbg !2151
  %96 = getelementptr inbounds { i8*, i64 }, { i8*, i64 }* %3, i32 0, i32 1, !dbg !2151
  store i64 %94, i64* %96, align 8, !dbg !2151
  br label %bb11, !dbg !2152
}

; alloc::alloc::Global::grow_impl
; Function Attrs: inlinehint nonlazybind uwtable
define internal { i8*, i64 } @_ZN5alloc5alloc6Global9grow_impl17he9db47eb197f98abE(%"alloc::alloc::Global"* align 1 %self, i8* %ptr, i64 %0, i64 %1, i64 %2, i64 %3, i1 zeroext %zeroed) unnamed_addr #0 !dbg !2153 {
start:
  %count.dbg.spill54 = alloca i64, align 8
  %dst.dbg.spill53 = alloca i8*, align 8
  %ptr.dbg.spill52 = alloca i8*, align 8
  %self.dbg.spill50 = alloca { [0 x i8]*, i64 }, align 8
  %self.dbg.spill49 = alloca { i8*, i64 }, align 8
  %self.dbg.spill48 = alloca { i8*, i64 }, align 8
  %self.dbg.spill47 = alloca { i8*, i64 }, align 8
  %src.dbg.spill = alloca i8*, align 8
  %self.dbg.spill46 = alloca i8*, align 8
  %new_ptr.dbg.spill = alloca { i8*, i64 }, align 8
  %val.dbg.spill45 = alloca { i8*, i64 }, align 8
  %v.dbg.spill44 = alloca { i8*, i64 }, align 8
  %old_size.dbg.spill43 = alloca i64, align 8
  %ptr.dbg.spill42 = alloca { [0 x i8]*, i64 }, align 8
  %metadata.dbg.spill = alloca i64, align 8
  %data_address.dbg.spill = alloca {}*, align 8
  %self.dbg.spill41 = alloca i8*, align 8
  %len.dbg.spill40 = alloca i64, align 8
  %data.dbg.spill39 = alloca i8*, align 8
  %self.dbg.spill38 = alloca i8*, align 8
  %len.dbg.spill = alloca i64, align 8
  %data.dbg.spill = alloca i8*, align 8
  %count.dbg.spill37 = alloca i64, align 8
  %dst.dbg.spill = alloca i8*, align 8
  %count.dbg.spill36 = alloca i64, align 8
  %self.dbg.spill35 = alloca i8*, align 8
  %4 = alloca i8*, align 8
  %count.dbg.spill34 = alloca i64, align 8
  %self.dbg.spill33 = alloca i8*, align 8
  %count.dbg.spill = alloca i64, align 8
  %self.dbg.spill32 = alloca i8*, align 8
  %ptr.dbg.spill31 = alloca i8*, align 8
  %val.dbg.spill = alloca i8*, align 8
  %v.dbg.spill30 = alloca i8*, align 8
  %v.dbg.spill = alloca i8*, align 8
  %raw_ptr.dbg.spill = alloca i8*, align 8
  %n.dbg.spill28 = alloca i64, align 8
  %self.dbg.spill27 = alloca { i64, i64 }*, align 8
  %self.dbg.spill26 = alloca { i64, i64 }*, align 8
  %new_size.dbg.spill25 = alloca i64, align 8
  %ptr.dbg.spill24 = alloca i8*, align 8
  %self.dbg.spill23 = alloca i8*, align 8
  %self.dbg.spill22 = alloca { i64, i64 }*, align 8
  %new_size.dbg.spill = alloca i64, align 8
  %self.dbg.spill21 = alloca { i64, i64 }*, align 8
  %old_size.dbg.spill = alloca i64, align 8
  %n.dbg.spill20 = alloca i64, align 8
  %self.dbg.spill19 = alloca { i64, i64 }*, align 8
  %n.dbg.spill = alloca i64, align 8
  %self.dbg.spill18 = alloca { i64, i64 }*, align 8
  %self.dbg.spill17 = alloca { i64, i64 }*, align 8
  %e.dbg.spill15 = alloca %"core::alloc::AllocError", align 1
  %e.dbg.spill14 = alloca %"core::alloc::AllocError", align 1
  %e.dbg.spill13 = alloca %"core::alloc::AllocError", align 1
  %e.dbg.spill = alloca %"core::alloc::AllocError", align 1
  %residual.dbg.spill6 = alloca %"core::result::Result<core::convert::Infallible, core::alloc::AllocError>::Err", align 1
  %residual.dbg.spill5 = alloca %"core::result::Result<core::convert::Infallible, core::alloc::AllocError>::Err", align 1
  %residual.dbg.spill3 = alloca %"core::result::Result<core::convert::Infallible, core::alloc::AllocError>::Err", align 1
  %residual.dbg.spill = alloca %"core::result::Result<core::convert::Infallible, core::alloc::AllocError>::Err", align 1
  %err.dbg.spill = alloca %"core::alloc::AllocError", align 1
  %zeroed.dbg.spill = alloca i8, align 1
  %ptr.dbg.spill = alloca i8*, align 8
  %self.dbg.spill = alloca %"alloc::alloc::Global"*, align 8
  %runtime = alloca %"[closure@core::intrinsics::copy_nonoverlapping<u8>::{closure#0}]", align 8
  %self16 = alloca i8*, align 8
  %_135 = alloca { i8*, i64 }, align 8
  %_134 = alloca %"core::ptr::metadata::PtrRepr<[u8]>", align 8
  %self12 = alloca i64, align 8
  %self11 = alloca i64, align 8
  %self10 = alloca i64, align 8
  %self9 = alloca i64, align 8
  %self8 = alloca i64, align 8
  %self7 = alloca i64, align 8
  %self4 = alloca { i8*, i64 }, align 8
  %_55 = alloca { i8*, i64 }, align 8
  %_50 = alloca { i8*, i64 }, align 8
  %self2 = alloca i8*, align 8
  %self1 = alloca i8*, align 8
  %_33 = alloca i8*, align 8
  %layout = alloca { i64, i64 }, align 8
  %5 = alloca { i8*, i64 }, align 8
  %new_layout = alloca { i64, i64 }, align 8
  %old_layout = alloca { i64, i64 }, align 8
  %6 = getelementptr inbounds { i64, i64 }, { i64, i64 }* %old_layout, i32 0, i32 0
  store i64 %0, i64* %6, align 8
  %7 = getelementptr inbounds { i64, i64 }, { i64, i64 }* %old_layout, i32 0, i32 1
  store i64 %1, i64* %7, align 8
  %8 = getelementptr inbounds { i64, i64 }, { i64, i64 }* %new_layout, i32 0, i32 0
  store i64 %2, i64* %8, align 8
  %9 = getelementptr inbounds { i64, i64 }, { i64, i64 }* %new_layout, i32 0, i32 1
  store i64 %3, i64* %9, align 8
  store %"alloc::alloc::Global"* %self, %"alloc::alloc::Global"** %self.dbg.spill, align 8
  call void @llvm.dbg.declare(metadata %"alloc::alloc::Global"** %self.dbg.spill, metadata !2157, metadata !DIExpression()), !dbg !2183
  store i8* %ptr, i8** %ptr.dbg.spill, align 8
  call void @llvm.dbg.declare(metadata i8** %ptr.dbg.spill, metadata !2158, metadata !DIExpression()), !dbg !2184
  call void @llvm.dbg.declare(metadata { i64, i64 }* %old_layout, metadata !2159, metadata !DIExpression()), !dbg !2185
  call void @llvm.dbg.declare(metadata { i64, i64 }* %new_layout, metadata !2160, metadata !DIExpression()), !dbg !2186
  %10 = zext i1 %zeroed to i8
  store i8 %10, i8* %zeroed.dbg.spill, align 1
  call void @llvm.dbg.declare(metadata i8* %zeroed.dbg.spill, metadata !2161, metadata !DIExpression()), !dbg !2187
  call void @llvm.dbg.declare(metadata { i64, i64 }* %layout, metadata !2188, metadata !DIExpression()), !dbg !2195
  call void @llvm.dbg.declare(metadata i8** %self1, metadata !2197, metadata !DIExpression()), !dbg !2207
  call void @llvm.dbg.declare(metadata i8** %self2, metadata !2209, metadata !DIExpression()), !dbg !2217
  call void @llvm.dbg.declare(metadata %"core::alloc::AllocError"* %err.dbg.spill, metadata !2213, metadata !DIExpression()), !dbg !2217
  call void @llvm.dbg.declare(metadata %"core::result::Result<core::convert::Infallible, core::alloc::AllocError>::Err"* %residual.dbg.spill, metadata !2171, metadata !DIExpression()), !dbg !2218
  call void @llvm.dbg.declare(metadata %"core::result::Result<core::convert::Infallible, core::alloc::AllocError>::Err"* %residual.dbg.spill3, metadata !2219, metadata !DIExpression()), !dbg !2226
  call void @llvm.dbg.declare(metadata { i8*, i64 }* %self4, metadata !2228, metadata !DIExpression()), !dbg !2255
  call void @llvm.dbg.declare(metadata %"core::result::Result<core::convert::Infallible, core::alloc::AllocError>::Err"* %residual.dbg.spill5, metadata !2179, metadata !DIExpression()), !dbg !2257
  call void @llvm.dbg.declare(metadata %"core::result::Result<core::convert::Infallible, core::alloc::AllocError>::Err"* %residual.dbg.spill6, metadata !2258, metadata !DIExpression()), !dbg !2265
  call void @llvm.dbg.declare(metadata i64* %self7, metadata !2267, metadata !DIExpression()), !dbg !2271
  call void @llvm.dbg.declare(metadata i64* %self8, metadata !2278, metadata !DIExpression()), !dbg !2282
  call void @llvm.dbg.declare(metadata i64* %self9, metadata !2283, metadata !DIExpression()), !dbg !2287
  call void @llvm.dbg.declare(metadata i64* %self10, metadata !2294, metadata !DIExpression()), !dbg !2298
  call void @llvm.dbg.declare(metadata i64* %self11, metadata !2299, metadata !DIExpression()), !dbg !2303
  call void @llvm.dbg.declare(metadata i64* %self12, metadata !2310, metadata !DIExpression()), !dbg !2314
  call void @llvm.dbg.declare(metadata %"core::alloc::AllocError"* %e.dbg.spill, metadata !2204, metadata !DIExpression()), !dbg !2315
  call void @llvm.dbg.declare(metadata %"core::alloc::AllocError"* %e.dbg.spill13, metadata !2223, metadata !DIExpression()), !dbg !2316
  call void @llvm.dbg.declare(metadata %"core::alloc::AllocError"* %e.dbg.spill14, metadata !2252, metadata !DIExpression()), !dbg !2317
  call void @llvm.dbg.declare(metadata %"core::alloc::AllocError"* %e.dbg.spill15, metadata !2262, metadata !DIExpression()), !dbg !2318
  call void @llvm.dbg.declare(metadata i8** %self16, metadata !2319, metadata !DIExpression()), !dbg !2323
  call void @llvm.dbg.declare(metadata %"[closure@core::intrinsics::copy_nonoverlapping<u8>::{closure#0}]"* %runtime, metadata !2332, metadata !DIExpression()), !dbg !2352
  store { i64, i64 }* %old_layout, { i64, i64 }** %self.dbg.spill17, align 8, !dbg !2354
  call void @llvm.dbg.declare(metadata { i64, i64 }** %self.dbg.spill17, metadata !2355, metadata !DIExpression()), !dbg !2359
  %11 = bitcast { i64, i64 }* %old_layout to i64*, !dbg !2359
  %_8 = load i64, i64* %11, align 8, !dbg !2359
  %12 = icmp eq i64 %_8, 0, !dbg !2360
  br i1 %12, label %bb1, label %bb3, !dbg !2360

bb1:                                              ; preds = %start
  %13 = getelementptr inbounds { i64, i64 }, { i64, i64 }* %new_layout, i32 0, i32 0, !dbg !2361
  %_11.0 = load i64, i64* %13, align 8, !dbg !2361
  %14 = getelementptr inbounds { i64, i64 }, { i64, i64 }* %new_layout, i32 0, i32 1, !dbg !2361
  %_11.1 = load i64, i64* %14, align 8, !dbg !2361, !range !707, !noundef !123
; call alloc::alloc::Global::alloc_impl
  %15 = call { i8*, i64 } @_ZN5alloc5alloc6Global10alloc_impl17h079db7c8e4f3ce7aE(%"alloc::alloc::Global"* align 1 %self, i64 %_11.0, i64 %_11.1, i1 zeroext %zeroed), !dbg !2362
  store { i8*, i64 } %15, { i8*, i64 }* %5, align 8, !dbg !2362
  br label %bb2, !dbg !2362

bb3:                                              ; preds = %start
  store { i64, i64 }* %old_layout, { i64, i64 }** %self.dbg.spill18, align 8, !dbg !2277
  call void @llvm.dbg.declare(metadata { i64, i64 }** %self.dbg.spill18, metadata !2275, metadata !DIExpression()), !dbg !2363
  %16 = getelementptr inbounds { i64, i64 }, { i64, i64 }* %old_layout, i32 0, i32 1, !dbg !2363
  %17 = load i64, i64* %16, align 8, !dbg !2363, !range !707, !noundef !123
  store i64 %17, i64* %self8, align 8, !dbg !2363
  %_78 = load i64, i64* %self8, align 8, !dbg !2282, !range !707, !noundef !123
  store i64 %_78, i64* %n.dbg.spill, align 8, !dbg !2282
  call void @llvm.dbg.declare(metadata i64* %n.dbg.spill, metadata !2364, metadata !DIExpression()), !dbg !2371
  store i64 %_78, i64* %self7, align 8, !dbg !2371
  %_16 = load i64, i64* %self7, align 8, !dbg !2271
  store { i64, i64 }* %new_layout, { i64, i64 }** %self.dbg.spill19, align 8, !dbg !2293
  call void @llvm.dbg.declare(metadata { i64, i64 }** %self.dbg.spill19, metadata !2291, metadata !DIExpression()), !dbg !2373
  %18 = getelementptr inbounds { i64, i64 }, { i64, i64 }* %new_layout, i32 0, i32 1, !dbg !2373
  %19 = load i64, i64* %18, align 8, !dbg !2373, !range !707, !noundef !123
  store i64 %19, i64* %self10, align 8, !dbg !2373
  %_84 = load i64, i64* %self10, align 8, !dbg !2298, !range !707, !noundef !123
  store i64 %_84, i64* %n.dbg.spill20, align 8, !dbg !2298
  call void @llvm.dbg.declare(metadata i64* %n.dbg.spill20, metadata !2374, metadata !DIExpression()), !dbg !2381
  store i64 %_84, i64* %self9, align 8, !dbg !2381
  %_18 = load i64, i64* %self9, align 8, !dbg !2287
  %_15 = icmp eq i64 %_16, %_18, !dbg !2277
  br i1 %_15, label %bb4, label %bb5, !dbg !2277

bb5:                                              ; preds = %bb3
  store i64 %_8, i64* %old_size.dbg.spill43, align 8, !dbg !2383
  call void @llvm.dbg.declare(metadata i64* %old_size.dbg.spill43, metadata !2175, metadata !DIExpression()), !dbg !2384
  %20 = getelementptr inbounds { i64, i64 }, { i64, i64 }* %new_layout, i32 0, i32 0, !dbg !2385
  %_58.0 = load i64, i64* %20, align 8, !dbg !2385
  %21 = getelementptr inbounds { i64, i64 }, { i64, i64 }* %new_layout, i32 0, i32 1, !dbg !2385
  %_58.1 = load i64, i64* %21, align 8, !dbg !2385, !range !707, !noundef !123
; call alloc::alloc::Global::alloc_impl
  %22 = call { i8*, i64 } @_ZN5alloc5alloc6Global10alloc_impl17h079db7c8e4f3ce7aE(%"alloc::alloc::Global"* align 1 %self, i64 %_58.0, i64 %_58.1, i1 zeroext %zeroed), !dbg !2256
  store { i8*, i64 } %22, { i8*, i64 }* %self4, align 8, !dbg !2256
  br label %bb14, !dbg !2256

bb4:                                              ; preds = %bb3
  store i64 %_8, i64* %old_size.dbg.spill, align 8, !dbg !2386
  call void @llvm.dbg.declare(metadata i64* %old_size.dbg.spill, metadata !2162, metadata !DIExpression()), !dbg !2387
  store { i64, i64 }* %new_layout, { i64, i64 }** %self.dbg.spill21, align 8, !dbg !2388
  call void @llvm.dbg.declare(metadata { i64, i64 }** %self.dbg.spill21, metadata !2389, metadata !DIExpression()), !dbg !2393
  %23 = bitcast { i64, i64 }* %new_layout to i64*, !dbg !2393
  %new_size = load i64, i64* %23, align 8, !dbg !2393
  store i64 %new_size, i64* %new_size.dbg.spill, align 8, !dbg !2393
  call void @llvm.dbg.declare(metadata i64* %new_size.dbg.spill, metadata !2165, metadata !DIExpression()), !dbg !2394
  store { i64, i64 }* %old_layout, { i64, i64 }** %self.dbg.spill22, align 8, !dbg !2395
  call void @llvm.dbg.declare(metadata { i64, i64 }** %self.dbg.spill22, metadata !2396, metadata !DIExpression()), !dbg !2400
  %24 = bitcast { i64, i64 }* %old_layout to i64*, !dbg !2400
  %_25 = load i64, i64* %24, align 8, !dbg !2400
  %_23 = icmp uge i64 %new_size, %_25, !dbg !2401
  call void @llvm.assume(i1 %_23), !dbg !2402
  br label %bb6, !dbg !2402

bb6:                                              ; preds = %bb4
  store i8* %ptr, i8** %self.dbg.spill23, align 8, !dbg !2403
  call void @llvm.dbg.declare(metadata i8** %self.dbg.spill23, metadata !2404, metadata !DIExpression()), !dbg !2408
  store i8* %ptr, i8** %ptr.dbg.spill24, align 8, !dbg !2408
  call void @llvm.dbg.declare(metadata i8** %ptr.dbg.spill24, metadata !2193, metadata !DIExpression()), !dbg !2195
  %25 = getelementptr inbounds { i64, i64 }, { i64, i64 }* %old_layout, i32 0, i32 0, !dbg !2409
  %26 = load i64, i64* %25, align 8, !dbg !2409
  %27 = getelementptr inbounds { i64, i64 }, { i64, i64 }* %old_layout, i32 0, i32 1, !dbg !2409
  %28 = load i64, i64* %27, align 8, !dbg !2409, !range !707, !noundef !123
  %29 = getelementptr inbounds { i64, i64 }, { i64, i64 }* %layout, i32 0, i32 0, !dbg !2409
  store i64 %26, i64* %29, align 8, !dbg !2409
  %30 = getelementptr inbounds { i64, i64 }, { i64, i64 }* %layout, i32 0, i32 1, !dbg !2409
  store i64 %28, i64* %30, align 8, !dbg !2409
  store i64 %new_size, i64* %new_size.dbg.spill25, align 8, !dbg !2410
  call void @llvm.dbg.declare(metadata i64* %new_size.dbg.spill25, metadata !2194, metadata !DIExpression()), !dbg !2195
  store { i64, i64 }* %layout, { i64, i64 }** %self.dbg.spill26, align 8, !dbg !2195
  call void @llvm.dbg.declare(metadata { i64, i64 }** %self.dbg.spill26, metadata !2411, metadata !DIExpression()), !dbg !2415
  %31 = bitcast { i64, i64 }* %layout to i64*, !dbg !2415
  %_89 = load i64, i64* %31, align 8, !dbg !2415
  store { i64, i64 }* %layout, { i64, i64 }** %self.dbg.spill27, align 8, !dbg !2195
  call void @llvm.dbg.declare(metadata { i64, i64 }** %self.dbg.spill27, metadata !2307, metadata !DIExpression()), !dbg !2417
  %32 = getelementptr inbounds { i64, i64 }, { i64, i64 }* %layout, i32 0, i32 1, !dbg !2417
  %33 = load i64, i64* %32, align 8, !dbg !2417, !range !707, !noundef !123
  store i64 %33, i64* %self12, align 8, !dbg !2417
  %_97 = load i64, i64* %self12, align 8, !dbg !2314, !range !707, !noundef !123
  store i64 %_97, i64* %n.dbg.spill28, align 8, !dbg !2314
  call void @llvm.dbg.declare(metadata i64* %n.dbg.spill28, metadata !2418, metadata !DIExpression()), !dbg !2425
  store i64 %_97, i64* %self11, align 8, !dbg !2425
  %_91 = load i64, i64* %self11, align 8, !dbg !2303
  %raw_ptr = call i8* @__rust_realloc(i8* %ptr, i64 %_89, i64 %_91, i64 %new_size) #16, !dbg !2195
  store i8* %raw_ptr, i8** %raw_ptr.dbg.spill, align 8, !dbg !2195
  call void @llvm.dbg.declare(metadata i8** %raw_ptr.dbg.spill, metadata !2167, metadata !DIExpression()), !dbg !2427
  br label %bb23, !dbg !2195

bb23:                                             ; preds = %bb6
; call core::ptr::non_null::NonNull<T>::new
  %34 = call i8* @"_ZN4core3ptr8non_null16NonNull$LT$T$GT$3new17ha4b86d9adfd21983E"(i8* %raw_ptr), !dbg !2208
  store i8* %34, i8** %self2, align 8, !dbg !2208
  br label %bb7, !dbg !2208

bb7:                                              ; preds = %bb23
  %35 = bitcast i8** %self2 to {}**, !dbg !2217
  %36 = load {}*, {}** %35, align 8, !dbg !2217
  %37 = icmp eq {}* %36, null, !dbg !2217
  %_100 = select i1 %37, i64 0, i64 1, !dbg !2217
  switch i64 %_100, label %bb25 [
    i64 0, label %bb24
    i64 1, label %bb26
  ], !dbg !2217

bb25:                                             ; preds = %bb7
  unreachable, !dbg !2217

bb24:                                             ; preds = %bb7
  %38 = bitcast i8** %self1 to {}**, !dbg !2217
  store {}* null, {}** %38, align 8, !dbg !2217
  br label %bb27, !dbg !2217

bb26:                                             ; preds = %bb7
  %v = load i8*, i8** %self2, align 8, !dbg !2217, !nonnull !123, !noundef !123
  store i8* %v, i8** %v.dbg.spill, align 8, !dbg !2217
  call void @llvm.dbg.declare(metadata i8** %v.dbg.spill, metadata !2214, metadata !DIExpression()), !dbg !2428
  store i8* %v, i8** %self1, align 8, !dbg !2428
  br label %bb27, !dbg !2217

bb27:                                             ; preds = %bb24, %bb26
  %39 = bitcast i8** %self1 to {}**, !dbg !2207
  %40 = load {}*, {}** %39, align 8, !dbg !2207
  %41 = icmp eq {}* %40, null, !dbg !2207
  %_103 = select i1 %41, i64 1, i64 0, !dbg !2207
  switch i64 %_103, label %bb29 [
    i64 0, label %bb30
    i64 1, label %bb28
  ], !dbg !2207

bb29:                                             ; preds = %bb27
  unreachable, !dbg !2207

bb30:                                             ; preds = %bb27
  %v29 = load i8*, i8** %self1, align 8, !dbg !2207, !nonnull !123, !noundef !123
  store i8* %v29, i8** %v.dbg.spill30, align 8, !dbg !2207
  call void @llvm.dbg.declare(metadata i8** %v.dbg.spill30, metadata !2201, metadata !DIExpression()), !dbg !2429
  store i8* %v29, i8** %_33, align 8, !dbg !2429
  br label %bb8, !dbg !2207

bb28:                                             ; preds = %bb27
  %42 = bitcast i8** %_33 to {}**, !dbg !2315
  store {}* null, {}** %42, align 8, !dbg !2315
  br label %bb8, !dbg !2207

bb8:                                              ; preds = %bb30, %bb28
  %43 = bitcast i8** %_33 to {}**, !dbg !2208
  %44 = load {}*, {}** %43, align 8, !dbg !2208
  %45 = icmp eq {}* %44, null, !dbg !2208
  %_38 = select i1 %45, i64 1, i64 0, !dbg !2208
  switch i64 %_38, label %bb10 [
    i64 0, label %bb9
    i64 1, label %bb11
  ], !dbg !2208

bb10:                                             ; preds = %bb8
  unreachable, !dbg !2208

bb9:                                              ; preds = %bb8
  %val = load i8*, i8** %_33, align 8, !dbg !2208, !nonnull !123, !noundef !123
  store i8* %val, i8** %val.dbg.spill, align 8, !dbg !2208
  call void @llvm.dbg.declare(metadata i8** %val.dbg.spill, metadata !2173, metadata !DIExpression()), !dbg !2430
  store i8* %val, i8** %ptr.dbg.spill31, align 8, !dbg !2430
  call void @llvm.dbg.declare(metadata i8** %ptr.dbg.spill31, metadata !2169, metadata !DIExpression()), !dbg !2431
  br i1 %zeroed, label %bb12, label %bb13, !dbg !2432

bb11:                                             ; preds = %bb8
; call <T as core::convert::From<T>>::from
  call void @"_ZN50_$LT$T$u20$as$u20$core..convert..From$LT$T$GT$$GT$4from17he70645bce0dea0c2E"(), !dbg !2316
  br label %bb31, !dbg !2316

bb31:                                             ; preds = %bb11
  %46 = bitcast { i8*, i64 }* %5 to {}**, !dbg !2316
  store {}* null, {}** %46, align 8, !dbg !2316
  br label %bb21, !dbg !2433

bb21:                                             ; preds = %bb37, %bb31
  br label %bb22, !dbg !2436

bb13:                                             ; preds = %bb33, %bb9
  store i8* %val, i8** %data.dbg.spill, align 8, !dbg !2437
  call void @llvm.dbg.declare(metadata i8** %data.dbg.spill, metadata !2438, metadata !DIExpression()), !dbg !2443
  store i64 %new_size, i64* %len.dbg.spill, align 8, !dbg !2445
  call void @llvm.dbg.declare(metadata i64* %len.dbg.spill, metadata !2442, metadata !DIExpression()), !dbg !2443
  store i8* %val, i8** %self.dbg.spill38, align 8, !dbg !2443
  call void @llvm.dbg.declare(metadata i8** %self.dbg.spill38, metadata !2446, metadata !DIExpression()), !dbg !2450
  store i8* %val, i8** %data.dbg.spill39, align 8, !dbg !2450
  call void @llvm.dbg.declare(metadata i8** %data.dbg.spill39, metadata !2452, metadata !DIExpression()), !dbg !2457
  store i64 %new_size, i64* %len.dbg.spill40, align 8, !dbg !2443
  call void @llvm.dbg.declare(metadata i64* %len.dbg.spill40, metadata !2456, metadata !DIExpression()), !dbg !2457
  store i8* %val, i8** %self.dbg.spill41, align 8, !dbg !2457
  call void @llvm.dbg.declare(metadata i8** %self.dbg.spill41, metadata !2459, metadata !DIExpression()), !dbg !2463
  %data_address = bitcast i8* %val to {}*, !dbg !2463
  store {}* %data_address, {}** %data_address.dbg.spill, align 8, !dbg !2463
  call void @llvm.dbg.declare(metadata {}** %data_address.dbg.spill, metadata !2465, metadata !DIExpression()), !dbg !2470
  store i64 %new_size, i64* %metadata.dbg.spill, align 8, !dbg !2457
  call void @llvm.dbg.declare(metadata i64* %metadata.dbg.spill, metadata !2469, metadata !DIExpression()), !dbg !2470
  %47 = bitcast { i8*, i64 }* %_135 to {}**, !dbg !2470
  store {}* %data_address, {}** %47, align 8, !dbg !2470
  %48 = getelementptr inbounds { i8*, i64 }, { i8*, i64 }* %_135, i32 0, i32 1, !dbg !2470
  store i64 %new_size, i64* %48, align 8, !dbg !2470
  %49 = bitcast %"core::ptr::metadata::PtrRepr<[u8]>"* %_134 to { i8*, i64 }*, !dbg !2470
  %50 = getelementptr inbounds { i8*, i64 }, { i8*, i64 }* %_135, i32 0, i32 0, !dbg !2470
  %51 = load i8*, i8** %50, align 8, !dbg !2470
  %52 = getelementptr inbounds { i8*, i64 }, { i8*, i64 }* %_135, i32 0, i32 1, !dbg !2470
  %53 = load i64, i64* %52, align 8, !dbg !2470
  %54 = getelementptr inbounds { i8*, i64 }, { i8*, i64 }* %49, i32 0, i32 0, !dbg !2470
  store i8* %51, i8** %54, align 8, !dbg !2470
  %55 = getelementptr inbounds { i8*, i64 }, { i8*, i64 }* %49, i32 0, i32 1, !dbg !2470
  store i64 %53, i64* %55, align 8, !dbg !2470
  %56 = bitcast %"core::ptr::metadata::PtrRepr<[u8]>"* %_134 to { [0 x i8]*, i64 }*, !dbg !2470
  %57 = getelementptr inbounds { [0 x i8]*, i64 }, { [0 x i8]*, i64 }* %56, i32 0, i32 0, !dbg !2470
  %ptr.0 = load [0 x i8]*, [0 x i8]** %57, align 8, !dbg !2470
  %58 = getelementptr inbounds { [0 x i8]*, i64 }, { [0 x i8]*, i64 }* %56, i32 0, i32 1, !dbg !2470
  %ptr.1 = load i64, i64* %58, align 8, !dbg !2470
  %59 = getelementptr inbounds { [0 x i8]*, i64 }, { [0 x i8]*, i64 }* %ptr.dbg.spill42, i32 0, i32 0, !dbg !2470
  store [0 x i8]* %ptr.0, [0 x i8]** %59, align 8, !dbg !2470
  %60 = getelementptr inbounds { [0 x i8]*, i64 }, { [0 x i8]*, i64 }* %ptr.dbg.spill42, i32 0, i32 1, !dbg !2470
  store i64 %ptr.1, i64* %60, align 8, !dbg !2470
  call void @llvm.dbg.declare(metadata { [0 x i8]*, i64 }* %ptr.dbg.spill42, metadata !2472, metadata !DIExpression()), !dbg !2476
  %61 = bitcast { i8*, i64 }* %_50 to { [0 x i8]*, i64 }*, !dbg !2476
  %62 = getelementptr inbounds { [0 x i8]*, i64 }, { [0 x i8]*, i64 }* %61, i32 0, i32 0, !dbg !2476
  store [0 x i8]* %ptr.0, [0 x i8]** %62, align 8, !dbg !2476
  %63 = getelementptr inbounds { [0 x i8]*, i64 }, { [0 x i8]*, i64 }* %61, i32 0, i32 1, !dbg !2476
  store i64 %ptr.1, i64* %63, align 8, !dbg !2476
  %64 = getelementptr inbounds { i8*, i64 }, { i8*, i64 }* %_50, i32 0, i32 0, !dbg !2478
  %65 = load i8*, i8** %64, align 8, !dbg !2478, !nonnull !123, !noundef !123
  %66 = getelementptr inbounds { i8*, i64 }, { i8*, i64 }* %_50, i32 0, i32 1, !dbg !2478
  %67 = load i64, i64* %66, align 8, !dbg !2478
  %68 = getelementptr inbounds { i8*, i64 }, { i8*, i64 }* %5, i32 0, i32 0, !dbg !2478
  store i8* %65, i8** %68, align 8, !dbg !2478
  %69 = getelementptr inbounds { i8*, i64 }, { i8*, i64 }* %5, i32 0, i32 1, !dbg !2478
  store i64 %67, i64* %69, align 8, !dbg !2478
  br label %bb20, !dbg !2479

bb12:                                             ; preds = %bb9
  store i8* %raw_ptr, i8** %self.dbg.spill32, align 8, !dbg !2480
  call void @llvm.dbg.declare(metadata i8** %self.dbg.spill32, metadata !2481, metadata !DIExpression()), !dbg !2488
  store i64 %_8, i64* %count.dbg.spill, align 8, !dbg !2489
  call void @llvm.dbg.declare(metadata i64* %count.dbg.spill, metadata !2487, metadata !DIExpression()), !dbg !2488
  store i8* %raw_ptr, i8** %self.dbg.spill33, align 8, !dbg !2488
  call void @llvm.dbg.declare(metadata i8** %self.dbg.spill33, metadata !2490, metadata !DIExpression()), !dbg !2497
  store i64 %_8, i64* %count.dbg.spill34, align 8, !dbg !2488
  call void @llvm.dbg.declare(metadata i64* %count.dbg.spill34, metadata !2496, metadata !DIExpression()), !dbg !2497
  %70 = getelementptr inbounds i8, i8* %raw_ptr, i64 %_8, !dbg !2497
  store i8* %70, i8** %4, align 8, !dbg !2497
  %_113 = load i8*, i8** %4, align 8, !dbg !2497
  br label %bb32, !dbg !2497

bb32:                                             ; preds = %bb12
  store i8* %_113, i8** %self.dbg.spill35, align 8, !dbg !2497
  call void @llvm.dbg.declare(metadata i8** %self.dbg.spill35, metadata !2499, metadata !DIExpression()), !dbg !2507
  %count = sub i64 %new_size, %_8, !dbg !2508
  store i64 %count, i64* %count.dbg.spill36, align 8, !dbg !2508
  call void @llvm.dbg.declare(metadata i64* %count.dbg.spill36, metadata !2506, metadata !DIExpression()), !dbg !2507
  store i8* %_113, i8** %dst.dbg.spill, align 8, !dbg !2507
  call void @llvm.dbg.declare(metadata i8** %dst.dbg.spill, metadata !2509, metadata !DIExpression()), !dbg !2522
  store i64 %count, i64* %count.dbg.spill37, align 8, !dbg !2507
  call void @llvm.dbg.declare(metadata i64* %count.dbg.spill37, metadata !2514, metadata !DIExpression()), !dbg !2522
  %71 = mul i64 1, %count, !dbg !2522
  call void @llvm.memset.p0i8.i64(i8* align 1 %_113, i8 0, i64 %71, i1 false), !dbg !2522
  br label %bb33, !dbg !2522

bb33:                                             ; preds = %bb32
  br label %bb13, !dbg !2524

bb20:                                             ; preds = %bb2, %bb19, %bb13
  br label %bb22, !dbg !2436

bb14:                                             ; preds = %bb5
  %72 = bitcast { i8*, i64 }* %self4 to {}**, !dbg !2255
  %73 = load {}*, {}** %72, align 8, !dbg !2255
  %74 = icmp eq {}* %73, null, !dbg !2255
  %_142 = select i1 %74, i64 1, i64 0, !dbg !2255
  switch i64 %_142, label %bb35 [
    i64 0, label %bb36
    i64 1, label %bb34
  ], !dbg !2255

bb35:                                             ; preds = %bb14
  unreachable, !dbg !2255

bb36:                                             ; preds = %bb14
  %75 = getelementptr inbounds { i8*, i64 }, { i8*, i64 }* %self4, i32 0, i32 0, !dbg !2255
  %v.0 = load i8*, i8** %75, align 8, !dbg !2255, !nonnull !123, !noundef !123
  %76 = getelementptr inbounds { i8*, i64 }, { i8*, i64 }* %self4, i32 0, i32 1, !dbg !2255
  %v.1 = load i64, i64* %76, align 8, !dbg !2255
  %77 = getelementptr inbounds { i8*, i64 }, { i8*, i64 }* %v.dbg.spill44, i32 0, i32 0, !dbg !2255
  store i8* %v.0, i8** %77, align 8, !dbg !2255
  %78 = getelementptr inbounds { i8*, i64 }, { i8*, i64 }* %v.dbg.spill44, i32 0, i32 1, !dbg !2255
  store i64 %v.1, i64* %78, align 8, !dbg !2255
  call void @llvm.dbg.declare(metadata { i8*, i64 }* %v.dbg.spill44, metadata !2249, metadata !DIExpression()), !dbg !2525
  %79 = getelementptr inbounds { i8*, i64 }, { i8*, i64 }* %_55, i32 0, i32 0, !dbg !2525
  store i8* %v.0, i8** %79, align 8, !dbg !2525
  %80 = getelementptr inbounds { i8*, i64 }, { i8*, i64 }* %_55, i32 0, i32 1, !dbg !2525
  store i64 %v.1, i64* %80, align 8, !dbg !2525
  br label %bb15, !dbg !2255

bb34:                                             ; preds = %bb14
  %81 = bitcast { i8*, i64 }* %_55 to {}**, !dbg !2317
  store {}* null, {}** %81, align 8, !dbg !2317
  br label %bb15, !dbg !2255

bb15:                                             ; preds = %bb36, %bb34
  %82 = bitcast { i8*, i64 }* %_55 to {}**, !dbg !2256
  %83 = load {}*, {}** %82, align 8, !dbg !2256
  %84 = icmp eq {}* %83, null, !dbg !2256
  %_60 = select i1 %84, i64 1, i64 0, !dbg !2256
  switch i64 %_60, label %bb17 [
    i64 0, label %bb16
    i64 1, label %bb18
  ], !dbg !2256

bb17:                                             ; preds = %bb15
  unreachable, !dbg !2256

bb16:                                             ; preds = %bb15
  %85 = getelementptr inbounds { i8*, i64 }, { i8*, i64 }* %_55, i32 0, i32 0, !dbg !2256
  %val.0 = load i8*, i8** %85, align 8, !dbg !2256, !nonnull !123, !noundef !123
  %86 = getelementptr inbounds { i8*, i64 }, { i8*, i64 }* %_55, i32 0, i32 1, !dbg !2256
  %val.1 = load i64, i64* %86, align 8, !dbg !2256
  %87 = getelementptr inbounds { i8*, i64 }, { i8*, i64 }* %val.dbg.spill45, i32 0, i32 0, !dbg !2256
  store i8* %val.0, i8** %87, align 8, !dbg !2256
  %88 = getelementptr inbounds { i8*, i64 }, { i8*, i64 }* %val.dbg.spill45, i32 0, i32 1, !dbg !2256
  store i64 %val.1, i64* %88, align 8, !dbg !2256
  call void @llvm.dbg.declare(metadata { i8*, i64 }* %val.dbg.spill45, metadata !2181, metadata !DIExpression()), !dbg !2526
  %89 = getelementptr inbounds { i8*, i64 }, { i8*, i64 }* %new_ptr.dbg.spill, i32 0, i32 0, !dbg !2526
  store i8* %val.0, i8** %89, align 8, !dbg !2526
  %90 = getelementptr inbounds { i8*, i64 }, { i8*, i64 }* %new_ptr.dbg.spill, i32 0, i32 1, !dbg !2526
  store i64 %val.1, i64* %90, align 8, !dbg !2526
  call void @llvm.dbg.declare(metadata { i8*, i64 }* %new_ptr.dbg.spill, metadata !2177, metadata !DIExpression()), !dbg !2527
  store i8* %ptr, i8** %self.dbg.spill46, align 8, !dbg !2528
  call void @llvm.dbg.declare(metadata i8** %self.dbg.spill46, metadata !2529, metadata !DIExpression()), !dbg !2533
  store i8* %ptr, i8** %src.dbg.spill, align 8, !dbg !2528
  call void @llvm.dbg.declare(metadata i8** %src.dbg.spill, metadata !2340, metadata !DIExpression()), !dbg !2534
  %91 = getelementptr inbounds { i8*, i64 }, { i8*, i64 }* %self.dbg.spill47, i32 0, i32 0, !dbg !2331
  store i8* %val.0, i8** %91, align 8, !dbg !2331
  %92 = getelementptr inbounds { i8*, i64 }, { i8*, i64 }* %self.dbg.spill47, i32 0, i32 1, !dbg !2331
  store i64 %val.1, i64* %92, align 8, !dbg !2331
  call void @llvm.dbg.declare(metadata { i8*, i64 }* %self.dbg.spill47, metadata !2329, metadata !DIExpression()), !dbg !2535
  %93 = getelementptr inbounds { i8*, i64 }, { i8*, i64 }* %self.dbg.spill48, i32 0, i32 0, !dbg !2535
  store i8* %val.0, i8** %93, align 8, !dbg !2535
  %94 = getelementptr inbounds { i8*, i64 }, { i8*, i64 }* %self.dbg.spill48, i32 0, i32 1, !dbg !2535
  store i64 %val.1, i64* %94, align 8, !dbg !2535
  call void @llvm.dbg.declare(metadata { i8*, i64 }* %self.dbg.spill48, metadata !2536, metadata !DIExpression()), !dbg !2542
  %95 = getelementptr inbounds { i8*, i64 }, { i8*, i64 }* %self.dbg.spill49, i32 0, i32 0, !dbg !2542
  store i8* %val.0, i8** %95, align 8, !dbg !2542
  %96 = getelementptr inbounds { i8*, i64 }, { i8*, i64 }* %self.dbg.spill49, i32 0, i32 1, !dbg !2542
  store i64 %val.1, i64* %96, align 8, !dbg !2542
  call void @llvm.dbg.declare(metadata { i8*, i64 }* %self.dbg.spill49, metadata !2543, metadata !DIExpression()), !dbg !2549
  %_155.0 = bitcast i8* %val.0 to [0 x i8]*, !dbg !2549
  %97 = getelementptr inbounds { [0 x i8]*, i64 }, { [0 x i8]*, i64 }* %self.dbg.spill50, i32 0, i32 0, !dbg !2549
  store [0 x i8]* %_155.0, [0 x i8]** %97, align 8, !dbg !2549
  %98 = getelementptr inbounds { [0 x i8]*, i64 }, { [0 x i8]*, i64 }* %self.dbg.spill50, i32 0, i32 1, !dbg !2549
  store i64 %val.1, i64* %98, align 8, !dbg !2549
  call void @llvm.dbg.declare(metadata { [0 x i8]*, i64 }* %self.dbg.spill50, metadata !2551, metadata !DIExpression()), !dbg !2558
  %ptr51 = bitcast [0 x i8]* %_155.0 to i8*, !dbg !2558
  store i8* %ptr51, i8** %ptr.dbg.spill52, align 8, !dbg !2558
  call void @llvm.dbg.declare(metadata i8** %ptr.dbg.spill52, metadata !2559, metadata !DIExpression()), !dbg !2563
  store i8* %ptr51, i8** %self16, align 8, !dbg !2563
  %_160 = load i8*, i8** %self16, align 8, !dbg !2323
  store i8* %_160, i8** %dst.dbg.spill53, align 8, !dbg !2323
  call void @llvm.dbg.declare(metadata i8** %dst.dbg.spill53, metadata !2342, metadata !DIExpression()), !dbg !2534
  store i64 %_8, i64* %count.dbg.spill54, align 8, !dbg !2565
  call void @llvm.dbg.declare(metadata i64* %count.dbg.spill54, metadata !2343, metadata !DIExpression()), !dbg !2534
  %99 = mul i64 %_8, 1, !dbg !2534
  call void @llvm.memcpy.p0i8.p0i8.i64(i8* align 1 %_160, i8* align 1 %ptr, i64 %99, i1 false), !dbg !2534
  %100 = getelementptr inbounds { i64, i64 }, { i64, i64 }* %old_layout, i32 0, i32 0, !dbg !2566
  %_73.0 = load i64, i64* %100, align 8, !dbg !2566
  %101 = getelementptr inbounds { i64, i64 }, { i64, i64 }* %old_layout, i32 0, i32 1, !dbg !2566
  %_73.1 = load i64, i64* %101, align 8, !dbg !2566, !range !707, !noundef !123
; call <alloc::alloc::Global as core::alloc::Allocator>::deallocate
  call void @"_ZN63_$LT$alloc..alloc..Global$u20$as$u20$core..alloc..Allocator$GT$10deallocate17h6138674035ba6f2cE"(%"alloc::alloc::Global"* align 1 %self, i8* %ptr, i64 %_73.0, i64 %_73.1), !dbg !2567
  br label %bb19, !dbg !2567

bb18:                                             ; preds = %bb15
; call <T as core::convert::From<T>>::from
  call void @"_ZN50_$LT$T$u20$as$u20$core..convert..From$LT$T$GT$$GT$4from17he70645bce0dea0c2E"(), !dbg !2318
  br label %bb37, !dbg !2318

bb37:                                             ; preds = %bb18
  %102 = bitcast { i8*, i64 }* %5 to {}**, !dbg !2318
  store {}* null, {}** %102, align 8, !dbg !2318
  br label %bb21, !dbg !2433

bb22:                                             ; preds = %bb20, %bb21
  %103 = getelementptr inbounds { i8*, i64 }, { i8*, i64 }* %5, i32 0, i32 0, !dbg !2436
  %104 = load i8*, i8** %103, align 8, !dbg !2436
  %105 = getelementptr inbounds { i8*, i64 }, { i8*, i64 }* %5, i32 0, i32 1, !dbg !2436
  %106 = load i64, i64* %105, align 8, !dbg !2436
  %107 = insertvalue { i8*, i64 } undef, i8* %104, 0, !dbg !2436
  %108 = insertvalue { i8*, i64 } %107, i64 %106, 1, !dbg !2436
  ret { i8*, i64 } %108, !dbg !2436

bb19:                                             ; preds = %bb16
  %109 = getelementptr inbounds { i8*, i64 }, { i8*, i64 }* %5, i32 0, i32 0, !dbg !2568
  store i8* %val.0, i8** %109, align 8, !dbg !2568
  %110 = getelementptr inbounds { i8*, i64 }, { i8*, i64 }* %5, i32 0, i32 1, !dbg !2568
  store i64 %val.1, i64* %110, align 8, !dbg !2568
  br label %bb20, !dbg !2569

bb2:                                              ; preds = %bb1
  br label %bb20, !dbg !2570
}

; alloc::raw_vec::finish_grow
; Function Attrs: noinline nonlazybind uwtable
define void @_ZN5alloc7raw_vec11finish_grow17h8633871f7638433aE(%"core::result::Result<core::ptr::non_null::NonNull<[u8]>, alloc::collections::TryReserveError>"* sret(%"core::result::Result<core::ptr::non_null::NonNull<[u8]>, alloc::collections::TryReserveError>") %0, i64 %new_layout.0, i64 %new_layout.1, %"core::option::Option<(core::ptr::non_null::NonNull<u8>, core::alloc::layout::Layout)>"* %current_memory, %"alloc::alloc::Global"* align 1 %alloc) unnamed_addr #2 !dbg !2571 {
start:
  %n.dbg.spill22 = alloca i64, align 8
  %self.dbg.spill21 = alloca { i64, i64 }*, align 8
  %n.dbg.spill = alloca i64, align 8
  %self.dbg.spill = alloca { i64, i64 }*, align 8
  %ptr.dbg.spill = alloca i8*, align 8
  %e.dbg.spill20 = alloca { i64, i64 }, align 8
  %residual.dbg.spill17 = alloca { i64, i64 }, align 8
  %e.dbg.spill14 = alloca { i64, i64 }, align 8
  %val.dbg.spill11 = alloca { i64, i64 }, align 8
  %kind.dbg.spill = alloca { i64, i64 }, align 8
  %e.dbg.spill10 = alloca { i64, i64 }, align 8
  %residual.dbg.spill = alloca { i64, i64 }, align 8
  %v.dbg.spill7 = alloca { i64, i64 }, align 8
  %e.dbg.spill = alloca { i64, i64 }, align 8
  %v.dbg.spill = alloca {}, align 1
  %val.dbg.spill = alloca {}, align 1
  %alloc.dbg.spill = alloca %"alloc::alloc::Global"*, align 8
  %new_layout.dbg.spill = alloca { i64, i64 }, align 8
  %self6 = alloca i64, align 8
  %self5 = alloca i64, align 8
  %self4 = alloca i64, align 8
  %self3 = alloca i64, align 8
  %_58 = alloca { i64, i64 }, align 8
  %_52 = alloca { i64, i64 }, align 8
  %_49 = alloca { i64, i64 }, align 8
  %_43 = alloca i64*, align 8
  %old_layout = alloca { i64, i64 }, align 8
  %memory = alloca { i8*, i64 }, align 8
  %residual2 = alloca { i64, i64 }, align 8
  %self1 = alloca { i64, i64 }, align 8
  %_13 = alloca { i64, i64 }, align 8
  %residual = alloca { i64, i64 }, align 8
  %self = alloca %"core::result::Result<core::alloc::layout::Layout, alloc::collections::TryReserveErrorKind>", align 8
  %_5 = alloca %"core::ops::control_flow::ControlFlow<core::result::Result<core::convert::Infallible, alloc::collections::TryReserveErrorKind>, core::alloc::layout::Layout>", align 8
  %new_layout = alloca { i64, i64 }, align 8
  %1 = getelementptr inbounds { i64, i64 }, { i64, i64 }* %new_layout.dbg.spill, i32 0, i32 0
  store i64 %new_layout.0, i64* %1, align 8
  %2 = getelementptr inbounds { i64, i64 }, { i64, i64 }* %new_layout.dbg.spill, i32 0, i32 1
  store i64 %new_layout.1, i64* %2, align 8
  call void @llvm.dbg.declare(metadata { i64, i64 }* %new_layout.dbg.spill, metadata !2593, metadata !DIExpression()), !dbg !2646
  call void @llvm.dbg.declare(metadata %"core::option::Option<(core::ptr::non_null::NonNull<u8>, core::alloc::layout::Layout)>"* %current_memory, metadata !2594, metadata !DIExpression()), !dbg !2647
  store %"alloc::alloc::Global"* %alloc, %"alloc::alloc::Global"** %alloc.dbg.spill, align 8
  call void @llvm.dbg.declare(metadata %"alloc::alloc::Global"** %alloc.dbg.spill, metadata !2595, metadata !DIExpression()), !dbg !2648
  call void @llvm.dbg.declare(metadata { i64, i64 }* %new_layout, metadata !2596, metadata !DIExpression()), !dbg !2649
  call void @llvm.dbg.declare(metadata %"core::result::Result<core::alloc::layout::Layout, alloc::collections::TryReserveErrorKind>"* %self, metadata !2650, metadata !DIExpression()), !dbg !2678
  call void @llvm.dbg.declare(metadata { i64, i64 }* %residual, metadata !2680, metadata !DIExpression()), !dbg !2690
  call void @llvm.dbg.declare(metadata { i64, i64 }* %self1, metadata !2692, metadata !DIExpression()), !dbg !2720
  call void @llvm.dbg.declare(metadata { i64, i64 }* %residual2, metadata !2722, metadata !DIExpression()), !dbg !2732
  call void @llvm.dbg.declare(metadata {}* %val.dbg.spill, metadata !2630, metadata !DIExpression()), !dbg !2734
  call void @llvm.dbg.declare(metadata { i8*, i64 }* %memory, metadata !2632, metadata !DIExpression()), !dbg !2735
  call void @llvm.dbg.declare(metadata { i64, i64 }* %old_layout, metadata !2636, metadata !DIExpression()), !dbg !2736
  call void @llvm.dbg.declare(metadata {}* %v.dbg.spill, metadata !2714, metadata !DIExpression()), !dbg !2737
  call void @llvm.dbg.declare(metadata i64* %self3, metadata !2738, metadata !DIExpression()), !dbg !2742
  call void @llvm.dbg.declare(metadata i64* %self4, metadata !2749, metadata !DIExpression()), !dbg !2753
  call void @llvm.dbg.declare(metadata i64* %self5, metadata !2754, metadata !DIExpression()), !dbg !2758
  call void @llvm.dbg.declare(metadata i64* %self6, metadata !2765, metadata !DIExpression()), !dbg !2769
; call core::result::Result<T,E>::map_err
  call void @"_ZN4core6result19Result$LT$T$C$E$GT$7map_err17hd9fd1719d11a6026E"(%"core::result::Result<core::alloc::layout::Layout, alloc::collections::TryReserveErrorKind>"* sret(%"core::result::Result<core::alloc::layout::Layout, alloc::collections::TryReserveErrorKind>") %self, i64 %new_layout.0, i64 %new_layout.1), !dbg !2679
  br label %bb1, !dbg !2679

bb1:                                              ; preds = %start
  %3 = bitcast %"core::result::Result<core::alloc::layout::Layout, alloc::collections::TryReserveErrorKind>"* %self to i64*, !dbg !2678
  %_45 = load i64, i64* %3, align 8, !dbg !2678, !range !435, !noundef !123
  switch i64 %_45, label %bb20 [
    i64 0, label %bb21
    i64 1, label %bb19
  ], !dbg !2678

bb20:                                             ; preds = %bb1
  unreachable, !dbg !2678

bb21:                                             ; preds = %bb1
  %4 = bitcast %"core::result::Result<core::alloc::layout::Layout, alloc::collections::TryReserveErrorKind>"* %self to %"core::result::Result<core::alloc::layout::Layout, alloc::collections::TryReserveErrorKind>::Ok"*, !dbg !2678
  %5 = getelementptr inbounds %"core::result::Result<core::alloc::layout::Layout, alloc::collections::TryReserveErrorKind>::Ok", %"core::result::Result<core::alloc::layout::Layout, alloc::collections::TryReserveErrorKind>::Ok"* %4, i32 0, i32 1, !dbg !2678
  %6 = getelementptr inbounds { i64, i64 }, { i64, i64 }* %5, i32 0, i32 0, !dbg !2678
  %v.0 = load i64, i64* %6, align 8, !dbg !2678
  %7 = getelementptr inbounds { i64, i64 }, { i64, i64 }* %5, i32 0, i32 1, !dbg !2678
  %v.1 = load i64, i64* %7, align 8, !dbg !2678, !range !707, !noundef !123
  %8 = getelementptr inbounds { i64, i64 }, { i64, i64 }* %v.dbg.spill7, i32 0, i32 0, !dbg !2678
  store i64 %v.0, i64* %8, align 8, !dbg !2678
  %9 = getelementptr inbounds { i64, i64 }, { i64, i64 }* %v.dbg.spill7, i32 0, i32 1, !dbg !2678
  store i64 %v.1, i64* %9, align 8, !dbg !2678
  call void @llvm.dbg.declare(metadata { i64, i64 }* %v.dbg.spill7, metadata !2672, metadata !DIExpression()), !dbg !2770
  %10 = bitcast %"core::ops::control_flow::ControlFlow<core::result::Result<core::convert::Infallible, alloc::collections::TryReserveErrorKind>, core::alloc::layout::Layout>"* %_5 to %"core::ops::control_flow::ControlFlow<core::result::Result<core::convert::Infallible, alloc::collections::TryReserveErrorKind>, core::alloc::layout::Layout>::Continue"*, !dbg !2770
  %11 = getelementptr inbounds %"core::ops::control_flow::ControlFlow<core::result::Result<core::convert::Infallible, alloc::collections::TryReserveErrorKind>, core::alloc::layout::Layout>::Continue", %"core::ops::control_flow::ControlFlow<core::result::Result<core::convert::Infallible, alloc::collections::TryReserveErrorKind>, core::alloc::layout::Layout>::Continue"* %10, i32 0, i32 1, !dbg !2770
  %12 = getelementptr inbounds { i64, i64 }, { i64, i64 }* %11, i32 0, i32 0, !dbg !2770
  store i64 %v.0, i64* %12, align 8, !dbg !2770
  %13 = getelementptr inbounds { i64, i64 }, { i64, i64 }* %11, i32 0, i32 1, !dbg !2770
  store i64 %v.1, i64* %13, align 8, !dbg !2770
  %14 = bitcast %"core::ops::control_flow::ControlFlow<core::result::Result<core::convert::Infallible, alloc::collections::TryReserveErrorKind>, core::alloc::layout::Layout>"* %_5 to i64*, !dbg !2770
  store i64 0, i64* %14, align 8, !dbg !2770
  br label %bb2, !dbg !2678

bb19:                                             ; preds = %bb1
  %15 = bitcast %"core::result::Result<core::alloc::layout::Layout, alloc::collections::TryReserveErrorKind>"* %self to %"core::result::Result<core::alloc::layout::Layout, alloc::collections::TryReserveErrorKind>::Err"*, !dbg !2678
  %16 = getelementptr inbounds %"core::result::Result<core::alloc::layout::Layout, alloc::collections::TryReserveErrorKind>::Err", %"core::result::Result<core::alloc::layout::Layout, alloc::collections::TryReserveErrorKind>::Err"* %15, i32 0, i32 1, !dbg !2678
  %17 = getelementptr inbounds { i64, i64 }, { i64, i64 }* %16, i32 0, i32 0, !dbg !2678
  %e.0 = load i64, i64* %17, align 8, !dbg !2678
  %18 = getelementptr inbounds { i64, i64 }, { i64, i64 }* %16, i32 0, i32 1, !dbg !2678
  %e.1 = load i64, i64* %18, align 8, !dbg !2678, !range !189, !noundef !123
  %19 = getelementptr inbounds { i64, i64 }, { i64, i64 }* %e.dbg.spill, i32 0, i32 0, !dbg !2678
  store i64 %e.0, i64* %19, align 8, !dbg !2678
  %20 = getelementptr inbounds { i64, i64 }, { i64, i64 }* %e.dbg.spill, i32 0, i32 1, !dbg !2678
  store i64 %e.1, i64* %20, align 8, !dbg !2678
  call void @llvm.dbg.declare(metadata { i64, i64 }* %e.dbg.spill, metadata !2675, metadata !DIExpression()), !dbg !2771
  %21 = getelementptr inbounds { i64, i64 }, { i64, i64 }* %_49, i32 0, i32 0, !dbg !2771
  store i64 %e.0, i64* %21, align 8, !dbg !2771
  %22 = getelementptr inbounds { i64, i64 }, { i64, i64 }* %_49, i32 0, i32 1, !dbg !2771
  store i64 %e.1, i64* %22, align 8, !dbg !2771
  %23 = bitcast %"core::ops::control_flow::ControlFlow<core::result::Result<core::convert::Infallible, alloc::collections::TryReserveErrorKind>, core::alloc::layout::Layout>"* %_5 to %"core::ops::control_flow::ControlFlow<core::result::Result<core::convert::Infallible, alloc::collections::TryReserveErrorKind>, core::alloc::layout::Layout>::Break"*, !dbg !2771
  %24 = getelementptr inbounds %"core::ops::control_flow::ControlFlow<core::result::Result<core::convert::Infallible, alloc::collections::TryReserveErrorKind>, core::alloc::layout::Layout>::Break", %"core::ops::control_flow::ControlFlow<core::result::Result<core::convert::Infallible, alloc::collections::TryReserveErrorKind>, core::alloc::layout::Layout>::Break"* %23, i32 0, i32 1, !dbg !2771
  %25 = getelementptr inbounds { i64, i64 }, { i64, i64 }* %_49, i32 0, i32 0, !dbg !2771
  %26 = load i64, i64* %25, align 8, !dbg !2771
  %27 = getelementptr inbounds { i64, i64 }, { i64, i64 }* %_49, i32 0, i32 1, !dbg !2771
  %28 = load i64, i64* %27, align 8, !dbg !2771, !range !189, !noundef !123
  %29 = getelementptr inbounds { i64, i64 }, { i64, i64 }* %24, i32 0, i32 0, !dbg !2771
  store i64 %26, i64* %29, align 8, !dbg !2771
  %30 = getelementptr inbounds { i64, i64 }, { i64, i64 }* %24, i32 0, i32 1, !dbg !2771
  store i64 %28, i64* %30, align 8, !dbg !2771
  %31 = bitcast %"core::ops::control_flow::ControlFlow<core::result::Result<core::convert::Infallible, alloc::collections::TryReserveErrorKind>, core::alloc::layout::Layout>"* %_5 to i64*, !dbg !2771
  store i64 1, i64* %31, align 8, !dbg !2771
  br label %bb2, !dbg !2678

bb2:                                              ; preds = %bb21, %bb19
  %32 = bitcast %"core::ops::control_flow::ControlFlow<core::result::Result<core::convert::Infallible, alloc::collections::TryReserveErrorKind>, core::alloc::layout::Layout>"* %_5 to i64*, !dbg !2679
  %_9 = load i64, i64* %32, align 8, !dbg !2679, !range !435, !noundef !123
  switch i64 %_9, label %bb4 [
    i64 0, label %bb3
    i64 1, label %bb5
  ], !dbg !2679

bb4:                                              ; preds = %bb2
  unreachable, !dbg !2679

bb3:                                              ; preds = %bb2
  %33 = bitcast %"core::ops::control_flow::ControlFlow<core::result::Result<core::convert::Infallible, alloc::collections::TryReserveErrorKind>, core::alloc::layout::Layout>"* %_5 to %"core::ops::control_flow::ControlFlow<core::result::Result<core::convert::Infallible, alloc::collections::TryReserveErrorKind>, core::alloc::layout::Layout>::Continue"*, !dbg !2679
  %34 = getelementptr inbounds %"core::ops::control_flow::ControlFlow<core::result::Result<core::convert::Infallible, alloc::collections::TryReserveErrorKind>, core::alloc::layout::Layout>::Continue", %"core::ops::control_flow::ControlFlow<core::result::Result<core::convert::Infallible, alloc::collections::TryReserveErrorKind>, core::alloc::layout::Layout>::Continue"* %33, i32 0, i32 1, !dbg !2679
  %35 = getelementptr inbounds { i64, i64 }, { i64, i64 }* %34, i32 0, i32 0, !dbg !2679
  %val.0 = load i64, i64* %35, align 8, !dbg !2679
  %36 = getelementptr inbounds { i64, i64 }, { i64, i64 }* %34, i32 0, i32 1, !dbg !2679
  %val.1 = load i64, i64* %36, align 8, !dbg !2679, !range !707, !noundef !123
  %37 = getelementptr inbounds { i64, i64 }, { i64, i64 }* %val.dbg.spill11, i32 0, i32 0, !dbg !2679
  store i64 %val.0, i64* %37, align 8, !dbg !2679
  %38 = getelementptr inbounds { i64, i64 }, { i64, i64 }* %val.dbg.spill11, i32 0, i32 1, !dbg !2679
  store i64 %val.1, i64* %38, align 8, !dbg !2679
  call void @llvm.dbg.declare(metadata { i64, i64 }* %val.dbg.spill11, metadata !2613, metadata !DIExpression()), !dbg !2772
  %39 = getelementptr inbounds { i64, i64 }, { i64, i64 }* %new_layout, i32 0, i32 0, !dbg !2772
  store i64 %val.0, i64* %39, align 8, !dbg !2772
  %40 = getelementptr inbounds { i64, i64 }, { i64, i64 }* %new_layout, i32 0, i32 1, !dbg !2772
  store i64 %val.1, i64* %40, align 8, !dbg !2772
  %41 = getelementptr inbounds { i64, i64 }, { i64, i64 }* %self1, i32 0, i32 1, !dbg !2773
  store i64 -9223372036854775807, i64* %41, align 8, !dbg !2773
  %42 = getelementptr inbounds { i64, i64 }, { i64, i64 }* %self1, i32 0, i32 1, !dbg !2720
  %43 = load i64, i64* %42, align 8, !dbg !2720, !range !1233, !noundef !123
  %44 = sub i64 %43, -9223372036854775807, !dbg !2720
  %45 = icmp eq i64 %44, 0, !dbg !2720
  %_55 = select i1 %45, i64 0, i64 1, !dbg !2720
  switch i64 %_55, label %bb23 [
    i64 0, label %bb24
    i64 1, label %bb22
  ], !dbg !2720

bb5:                                              ; preds = %bb2
  %46 = bitcast %"core::ops::control_flow::ControlFlow<core::result::Result<core::convert::Infallible, alloc::collections::TryReserveErrorKind>, core::alloc::layout::Layout>"* %_5 to %"core::ops::control_flow::ControlFlow<core::result::Result<core::convert::Infallible, alloc::collections::TryReserveErrorKind>, core::alloc::layout::Layout>::Break"*, !dbg !2779
  %47 = getelementptr inbounds %"core::ops::control_flow::ControlFlow<core::result::Result<core::convert::Infallible, alloc::collections::TryReserveErrorKind>, core::alloc::layout::Layout>::Break", %"core::ops::control_flow::ControlFlow<core::result::Result<core::convert::Infallible, alloc::collections::TryReserveErrorKind>, core::alloc::layout::Layout>::Break"* %46, i32 0, i32 1, !dbg !2779
  %48 = getelementptr inbounds { i64, i64 }, { i64, i64 }* %47, i32 0, i32 0, !dbg !2779
  %residual.0 = load i64, i64* %48, align 8, !dbg !2779
  %49 = getelementptr inbounds { i64, i64 }, { i64, i64 }* %47, i32 0, i32 1, !dbg !2779
  %residual.1 = load i64, i64* %49, align 8, !dbg !2779, !range !189, !noundef !123
  %50 = getelementptr inbounds { i64, i64 }, { i64, i64 }* %residual.dbg.spill, i32 0, i32 0, !dbg !2779
  store i64 %residual.0, i64* %50, align 8, !dbg !2779
  %51 = getelementptr inbounds { i64, i64 }, { i64, i64 }* %residual.dbg.spill, i32 0, i32 1, !dbg !2779
  store i64 %residual.1, i64* %51, align 8, !dbg !2779
  call void @llvm.dbg.declare(metadata { i64, i64 }* %residual.dbg.spill, metadata !2598, metadata !DIExpression()), !dbg !2780
  %52 = getelementptr inbounds { i64, i64 }, { i64, i64 }* %residual, i32 0, i32 0, !dbg !2780
  store i64 %residual.0, i64* %52, align 8, !dbg !2780
  %53 = getelementptr inbounds { i64, i64 }, { i64, i64 }* %residual, i32 0, i32 1, !dbg !2780
  store i64 %residual.1, i64* %53, align 8, !dbg !2780
  %54 = getelementptr inbounds { i64, i64 }, { i64, i64 }* %residual, i32 0, i32 0, !dbg !2690
  %e.08 = load i64, i64* %54, align 8, !dbg !2690
  %55 = getelementptr inbounds { i64, i64 }, { i64, i64 }* %residual, i32 0, i32 1, !dbg !2690
  %e.19 = load i64, i64* %55, align 8, !dbg !2690, !range !189, !noundef !123
  %56 = getelementptr inbounds { i64, i64 }, { i64, i64 }* %e.dbg.spill10, i32 0, i32 0, !dbg !2690
  store i64 %e.08, i64* %56, align 8, !dbg !2690
  %57 = getelementptr inbounds { i64, i64 }, { i64, i64 }* %e.dbg.spill10, i32 0, i32 1, !dbg !2690
  store i64 %e.19, i64* %57, align 8, !dbg !2690
  call void @llvm.dbg.declare(metadata { i64, i64 }* %e.dbg.spill10, metadata !2686, metadata !DIExpression()), !dbg !2781
  %58 = getelementptr inbounds { i64, i64 }, { i64, i64 }* %kind.dbg.spill, i32 0, i32 0, !dbg !2781
  store i64 %e.08, i64* %58, align 8, !dbg !2781
  %59 = getelementptr inbounds { i64, i64 }, { i64, i64 }* %kind.dbg.spill, i32 0, i32 1, !dbg !2781
  store i64 %e.19, i64* %59, align 8, !dbg !2781
  call void @llvm.dbg.declare(metadata { i64, i64 }* %kind.dbg.spill, metadata !2782, metadata !DIExpression()), !dbg !2786
  %60 = getelementptr inbounds { i64, i64 }, { i64, i64 }* %_52, i32 0, i32 0, !dbg !2786
  store i64 %e.08, i64* %60, align 8, !dbg !2786
  %61 = getelementptr inbounds { i64, i64 }, { i64, i64 }* %_52, i32 0, i32 1, !dbg !2786
  store i64 %e.19, i64* %61, align 8, !dbg !2786
  %62 = bitcast %"core::result::Result<core::ptr::non_null::NonNull<[u8]>, alloc::collections::TryReserveError>"* %0 to %"core::result::Result<core::ptr::non_null::NonNull<[u8]>, alloc::collections::TryReserveError>::Err"*, !dbg !2781
  %63 = getelementptr inbounds %"core::result::Result<core::ptr::non_null::NonNull<[u8]>, alloc::collections::TryReserveError>::Err", %"core::result::Result<core::ptr::non_null::NonNull<[u8]>, alloc::collections::TryReserveError>::Err"* %62, i32 0, i32 1, !dbg !2781
  %64 = getelementptr inbounds { i64, i64 }, { i64, i64 }* %_52, i32 0, i32 0, !dbg !2781
  %65 = load i64, i64* %64, align 8, !dbg !2781
  %66 = getelementptr inbounds { i64, i64 }, { i64, i64 }* %_52, i32 0, i32 1, !dbg !2781
  %67 = load i64, i64* %66, align 8, !dbg !2781, !range !189, !noundef !123
  %68 = getelementptr inbounds { i64, i64 }, { i64, i64 }* %63, i32 0, i32 0, !dbg !2781
  store i64 %65, i64* %68, align 8, !dbg !2781
  %69 = getelementptr inbounds { i64, i64 }, { i64, i64 }* %63, i32 0, i32 1, !dbg !2781
  store i64 %67, i64* %69, align 8, !dbg !2781
  %70 = bitcast %"core::result::Result<core::ptr::non_null::NonNull<[u8]>, alloc::collections::TryReserveError>"* %0 to i64*, !dbg !2781
  store i64 1, i64* %70, align 8, !dbg !2781
  br label %bb17, !dbg !2788

bb17:                                             ; preds = %bb25, %bb5
  br label %bb18, !dbg !2790

bb23:                                             ; preds = %bb3
  unreachable, !dbg !2720

bb24:                                             ; preds = %bb3
  %71 = getelementptr inbounds { i64, i64 }, { i64, i64 }* %_13, i32 0, i32 1, !dbg !2737
  store i64 -9223372036854775807, i64* %71, align 8, !dbg !2737
  br label %bb6, !dbg !2720

bb22:                                             ; preds = %bb3
  %72 = getelementptr inbounds { i64, i64 }, { i64, i64 }* %self1, i32 0, i32 0, !dbg !2720
  %e.012 = load i64, i64* %72, align 8, !dbg !2720
  %73 = getelementptr inbounds { i64, i64 }, { i64, i64 }* %self1, i32 0, i32 1, !dbg !2720
  %e.113 = load i64, i64* %73, align 8, !dbg !2720, !range !189, !noundef !123
  %74 = getelementptr inbounds { i64, i64 }, { i64, i64 }* %e.dbg.spill14, i32 0, i32 0, !dbg !2720
  store i64 %e.012, i64* %74, align 8, !dbg !2720
  %75 = getelementptr inbounds { i64, i64 }, { i64, i64 }* %e.dbg.spill14, i32 0, i32 1, !dbg !2720
  store i64 %e.113, i64* %75, align 8, !dbg !2720
  call void @llvm.dbg.declare(metadata { i64, i64 }* %e.dbg.spill14, metadata !2717, metadata !DIExpression()), !dbg !2791
  %76 = getelementptr inbounds { i64, i64 }, { i64, i64 }* %_58, i32 0, i32 0, !dbg !2791
  store i64 %e.012, i64* %76, align 8, !dbg !2791
  %77 = getelementptr inbounds { i64, i64 }, { i64, i64 }* %_58, i32 0, i32 1, !dbg !2791
  store i64 %e.113, i64* %77, align 8, !dbg !2791
  %78 = getelementptr inbounds { i64, i64 }, { i64, i64 }* %_58, i32 0, i32 0, !dbg !2791
  %79 = load i64, i64* %78, align 8, !dbg !2791
  %80 = getelementptr inbounds { i64, i64 }, { i64, i64 }* %_58, i32 0, i32 1, !dbg !2791
  %81 = load i64, i64* %80, align 8, !dbg !2791, !range !189, !noundef !123
  %82 = getelementptr inbounds { i64, i64 }, { i64, i64 }* %_13, i32 0, i32 0, !dbg !2791
  store i64 %79, i64* %82, align 8, !dbg !2791
  %83 = getelementptr inbounds { i64, i64 }, { i64, i64 }* %_13, i32 0, i32 1, !dbg !2791
  store i64 %81, i64* %83, align 8, !dbg !2791
  br label %bb6, !dbg !2720

bb6:                                              ; preds = %bb24, %bb22
  %84 = getelementptr inbounds { i64, i64 }, { i64, i64 }* %_13, i32 0, i32 1, !dbg !2721
  %85 = load i64, i64* %84, align 8, !dbg !2721, !range !1233, !noundef !123
  %86 = sub i64 %85, -9223372036854775807, !dbg !2721
  %87 = icmp eq i64 %86, 0, !dbg !2721
  %_17 = select i1 %87, i64 0, i64 1, !dbg !2721
  switch i64 %_17, label %bb8 [
    i64 0, label %bb7
    i64 1, label %bb9
  ], !dbg !2721

bb8:                                              ; preds = %bb6
  unreachable, !dbg !2721

bb7:                                              ; preds = %bb6
  %88 = getelementptr inbounds %"core::option::Option<(core::ptr::non_null::NonNull<u8>, core::alloc::layout::Layout)>", %"core::option::Option<(core::ptr::non_null::NonNull<u8>, core::alloc::layout::Layout)>"* %current_memory, i32 0, i32 1, !dbg !2792
  %89 = load i64, i64* %88, align 8, !dbg !2792, !range !189, !noundef !123
  %90 = icmp eq i64 %89, 0, !dbg !2792
  %_22 = select i1 %90, i64 0, i64 1, !dbg !2792
  %91 = icmp eq i64 %_22, 1, !dbg !2792
  br i1 %91, label %bb11, label %bb10, !dbg !2792

bb9:                                              ; preds = %bb6
  %92 = getelementptr inbounds { i64, i64 }, { i64, i64 }* %_13, i32 0, i32 0, !dbg !2793
  %residual.015 = load i64, i64* %92, align 8, !dbg !2793
  %93 = getelementptr inbounds { i64, i64 }, { i64, i64 }* %_13, i32 0, i32 1, !dbg !2793
  %residual.116 = load i64, i64* %93, align 8, !dbg !2793, !range !189, !noundef !123
  %94 = getelementptr inbounds { i64, i64 }, { i64, i64 }* %residual.dbg.spill17, i32 0, i32 0, !dbg !2793
  store i64 %residual.015, i64* %94, align 8, !dbg !2793
  %95 = getelementptr inbounds { i64, i64 }, { i64, i64 }* %residual.dbg.spill17, i32 0, i32 1, !dbg !2793
  store i64 %residual.116, i64* %95, align 8, !dbg !2793
  call void @llvm.dbg.declare(metadata { i64, i64 }* %residual.dbg.spill17, metadata !2615, metadata !DIExpression()), !dbg !2794
  %96 = getelementptr inbounds { i64, i64 }, { i64, i64 }* %residual2, i32 0, i32 0, !dbg !2794
  store i64 %residual.015, i64* %96, align 8, !dbg !2794
  %97 = getelementptr inbounds { i64, i64 }, { i64, i64 }* %residual2, i32 0, i32 1, !dbg !2794
  store i64 %residual.116, i64* %97, align 8, !dbg !2794
  %98 = getelementptr inbounds { i64, i64 }, { i64, i64 }* %residual2, i32 0, i32 0, !dbg !2732
  %e.018 = load i64, i64* %98, align 8, !dbg !2732
  %99 = getelementptr inbounds { i64, i64 }, { i64, i64 }* %residual2, i32 0, i32 1, !dbg !2732
  %e.119 = load i64, i64* %99, align 8, !dbg !2732, !range !189, !noundef !123
  %100 = getelementptr inbounds { i64, i64 }, { i64, i64 }* %e.dbg.spill20, i32 0, i32 0, !dbg !2732
  store i64 %e.018, i64* %100, align 8, !dbg !2732
  %101 = getelementptr inbounds { i64, i64 }, { i64, i64 }* %e.dbg.spill20, i32 0, i32 1, !dbg !2732
  store i64 %e.119, i64* %101, align 8, !dbg !2732
  call void @llvm.dbg.declare(metadata { i64, i64 }* %e.dbg.spill20, metadata !2728, metadata !DIExpression()), !dbg !2795
; call <T as core::convert::From<T>>::from
  %102 = call { i64, i64 } @"_ZN50_$LT$T$u20$as$u20$core..convert..From$LT$T$GT$$GT$4from17ha1cdac25e4a263b8E"(i64 %e.018, i64 %e.119), !dbg !2795
  %_61.0 = extractvalue { i64, i64 } %102, 0, !dbg !2795
  %_61.1 = extractvalue { i64, i64 } %102, 1, !dbg !2795
  br label %bb25, !dbg !2795

bb25:                                             ; preds = %bb9
  %103 = bitcast %"core::result::Result<core::ptr::non_null::NonNull<[u8]>, alloc::collections::TryReserveError>"* %0 to %"core::result::Result<core::ptr::non_null::NonNull<[u8]>, alloc::collections::TryReserveError>::Err"*, !dbg !2795
  %104 = getelementptr inbounds %"core::result::Result<core::ptr::non_null::NonNull<[u8]>, alloc::collections::TryReserveError>::Err", %"core::result::Result<core::ptr::non_null::NonNull<[u8]>, alloc::collections::TryReserveError>::Err"* %103, i32 0, i32 1, !dbg !2795
  %105 = getelementptr inbounds { i64, i64 }, { i64, i64 }* %104, i32 0, i32 0, !dbg !2795
  store i64 %_61.0, i64* %105, align 8, !dbg !2795
  %106 = getelementptr inbounds { i64, i64 }, { i64, i64 }* %104, i32 0, i32 1, !dbg !2795
  store i64 %_61.1, i64* %106, align 8, !dbg !2795
  %107 = bitcast %"core::result::Result<core::ptr::non_null::NonNull<[u8]>, alloc::collections::TryReserveError>"* %0 to i64*, !dbg !2795
  store i64 1, i64* %107, align 8, !dbg !2795
  br label %bb17, !dbg !2796

bb18:                                             ; preds = %bb16, %bb17
  ret void, !dbg !2790

bb11:                                             ; preds = %bb7
  %108 = bitcast %"core::option::Option<(core::ptr::non_null::NonNull<u8>, core::alloc::layout::Layout)>"* %current_memory to %"core::option::Option<(core::ptr::non_null::NonNull<u8>, core::alloc::layout::Layout)>::Some"*, !dbg !2798
  %109 = bitcast %"core::option::Option<(core::ptr::non_null::NonNull<u8>, core::alloc::layout::Layout)>::Some"* %108 to { i8*, { i64, i64 } }*, !dbg !2798
  %110 = bitcast { i8*, { i64, i64 } }* %109 to i8**, !dbg !2798
  %ptr = load i8*, i8** %110, align 8, !dbg !2798, !nonnull !123, !noundef !123
  store i8* %ptr, i8** %ptr.dbg.spill, align 8, !dbg !2798
  call void @llvm.dbg.declare(metadata i8** %ptr.dbg.spill, metadata !2634, metadata !DIExpression()), !dbg !2798
  %111 = bitcast %"core::option::Option<(core::ptr::non_null::NonNull<u8>, core::alloc::layout::Layout)>"* %current_memory to %"core::option::Option<(core::ptr::non_null::NonNull<u8>, core::alloc::layout::Layout)>::Some"*, !dbg !2736
  %112 = bitcast %"core::option::Option<(core::ptr::non_null::NonNull<u8>, core::alloc::layout::Layout)>::Some"* %111 to { i8*, { i64, i64 } }*, !dbg !2736
  %113 = getelementptr inbounds { i8*, { i64, i64 } }, { i8*, { i64, i64 } }* %112, i32 0, i32 1, !dbg !2736
  %114 = getelementptr inbounds { i64, i64 }, { i64, i64 }* %113, i32 0, i32 0, !dbg !2736
  %115 = load i64, i64* %114, align 8, !dbg !2736
  %116 = getelementptr inbounds { i64, i64 }, { i64, i64 }* %113, i32 0, i32 1, !dbg !2736
  %117 = load i64, i64* %116, align 8, !dbg !2736, !range !707, !noundef !123
  %118 = getelementptr inbounds { i64, i64 }, { i64, i64 }* %old_layout, i32 0, i32 0, !dbg !2736
  store i64 %115, i64* %118, align 8, !dbg !2736
  %119 = getelementptr inbounds { i64, i64 }, { i64, i64 }* %old_layout, i32 0, i32 1, !dbg !2736
  store i64 %117, i64* %119, align 8, !dbg !2736
  store { i64, i64 }* %old_layout, { i64, i64 }** %self.dbg.spill, align 8, !dbg !2748
  call void @llvm.dbg.declare(metadata { i64, i64 }** %self.dbg.spill, metadata !2746, metadata !DIExpression()), !dbg !2799
  %120 = getelementptr inbounds { i64, i64 }, { i64, i64 }* %old_layout, i32 0, i32 1, !dbg !2799
  %121 = load i64, i64* %120, align 8, !dbg !2799, !range !707, !noundef !123
  store i64 %121, i64* %self4, align 8, !dbg !2799
  %_74 = load i64, i64* %self4, align 8, !dbg !2753, !range !707, !noundef !123
  store i64 %_74, i64* %n.dbg.spill, align 8, !dbg !2753
  call void @llvm.dbg.declare(metadata i64* %n.dbg.spill, metadata !2800, metadata !DIExpression()), !dbg !2807
  store i64 %_74, i64* %self3, align 8, !dbg !2807
  %_32 = load i64, i64* %self3, align 8, !dbg !2742
  store { i64, i64 }* %new_layout, { i64, i64 }** %self.dbg.spill21, align 8, !dbg !2764
  call void @llvm.dbg.declare(metadata { i64, i64 }** %self.dbg.spill21, metadata !2762, metadata !DIExpression()), !dbg !2809
  %122 = getelementptr inbounds { i64, i64 }, { i64, i64 }* %new_layout, i32 0, i32 1, !dbg !2809
  %123 = load i64, i64* %122, align 8, !dbg !2809, !range !707, !noundef !123
  store i64 %123, i64* %self6, align 8, !dbg !2809
  %_80 = load i64, i64* %self6, align 8, !dbg !2769, !range !707, !noundef !123
  store i64 %_80, i64* %n.dbg.spill22, align 8, !dbg !2769
  call void @llvm.dbg.declare(metadata i64* %n.dbg.spill22, metadata !2810, metadata !DIExpression()), !dbg !2817
  store i64 %_80, i64* %self5, align 8, !dbg !2817
  %_34 = load i64, i64* %self5, align 8, !dbg !2758
  %_31 = icmp eq i64 %_32, %_34, !dbg !2748
  call void @llvm.assume(i1 %_31), !dbg !2819
  br label %bb12, !dbg !2819

bb10:                                             ; preds = %bb7
  %124 = getelementptr inbounds { i64, i64 }, { i64, i64 }* %new_layout, i32 0, i32 0, !dbg !2820
  %_41.0 = load i64, i64* %124, align 8, !dbg !2820
  %125 = getelementptr inbounds { i64, i64 }, { i64, i64 }* %new_layout, i32 0, i32 1, !dbg !2820
  %_41.1 = load i64, i64* %125, align 8, !dbg !2820, !range !707, !noundef !123
; call <alloc::alloc::Global as core::alloc::Allocator>::allocate
  %126 = call { i8*, i64 } @"_ZN63_$LT$alloc..alloc..Global$u20$as$u20$core..alloc..Allocator$GT$8allocate17ha2667dffd550f6bdE"(%"alloc::alloc::Global"* align 1 %alloc, i64 %_41.0, i64 %_41.1), !dbg !2821
  store { i8*, i64 } %126, { i8*, i64 }* %memory, align 8, !dbg !2821
  br label %bb14, !dbg !2821

bb14:                                             ; preds = %bb10
  br label %bb15, !dbg !2822

bb15:                                             ; preds = %bb13, %bb14
  %127 = getelementptr inbounds { i8*, i64 }, { i8*, i64 }* %memory, i32 0, i32 0, !dbg !2823
  %_42.0 = load i8*, i8** %127, align 8, !dbg !2823
  %128 = getelementptr inbounds { i8*, i64 }, { i8*, i64 }* %memory, i32 0, i32 1, !dbg !2823
  %_42.1 = load i64, i64* %128, align 8, !dbg !2823
  %129 = bitcast i64** %_43 to { i64, i64 }**, !dbg !2824
  store { i64, i64 }* %new_layout, { i64, i64 }** %129, align 8, !dbg !2824
  %130 = load i64*, i64** %_43, align 8, !dbg !2823, !nonnull !123, !align !2825, !noundef !123
; call core::result::Result<T,E>::map_err
  call void @"_ZN4core6result19Result$LT$T$C$E$GT$7map_err17h7e3983066fbbb5f7E"(%"core::result::Result<core::ptr::non_null::NonNull<[u8]>, alloc::collections::TryReserveError>"* sret(%"core::result::Result<core::ptr::non_null::NonNull<[u8]>, alloc::collections::TryReserveError>") %0, i8* %_42.0, i64 %_42.1, i64* align 8 %130), !dbg !2823
  br label %bb16, !dbg !2823

bb12:                                             ; preds = %bb11
  %131 = getelementptr inbounds { i64, i64 }, { i64, i64 }* %old_layout, i32 0, i32 0, !dbg !2826
  %_38.0 = load i64, i64* %131, align 8, !dbg !2826
  %132 = getelementptr inbounds { i64, i64 }, { i64, i64 }* %old_layout, i32 0, i32 1, !dbg !2826
  %_38.1 = load i64, i64* %132, align 8, !dbg !2826, !range !707, !noundef !123
  %133 = getelementptr inbounds { i64, i64 }, { i64, i64 }* %new_layout, i32 0, i32 0, !dbg !2827
  %_39.0 = load i64, i64* %133, align 8, !dbg !2827
  %134 = getelementptr inbounds { i64, i64 }, { i64, i64 }* %new_layout, i32 0, i32 1, !dbg !2827
  %_39.1 = load i64, i64* %134, align 8, !dbg !2827, !range !707, !noundef !123
; call <alloc::alloc::Global as core::alloc::Allocator>::grow
  %135 = call { i8*, i64 } @"_ZN63_$LT$alloc..alloc..Global$u20$as$u20$core..alloc..Allocator$GT$4grow17h28578777b0220191E"(%"alloc::alloc::Global"* align 1 %alloc, i8* %ptr, i64 %_38.0, i64 %_38.1, i64 %_39.0, i64 %_39.1), !dbg !2828
  store { i8*, i64 } %135, { i8*, i64 }* %memory, align 8, !dbg !2828
  br label %bb13, !dbg !2828

bb13:                                             ; preds = %bb12
  br label %bb15, !dbg !2822

bb16:                                             ; preds = %bb15
  br label %bb18, !dbg !2790
}

; alloc::raw_vec::finish_grow::{{closure}}
; Function Attrs: inlinehint nonlazybind uwtable
define { i64, i64 } @"_ZN5alloc7raw_vec11finish_grow28_$u7b$$u7b$closure$u7d$$u7d$17h39180b195ba50e94E"() unnamed_addr #0 !dbg !2829 {
start:
  %_2.dbg.spill = alloca %"core::alloc::layout::LayoutError", align 1
  %_1.dbg.spill = alloca %"[closure@alloc::raw_vec::finish_grow<alloc::alloc::Global>::{closure#0}]", align 1
  %0 = alloca { i64, i64 }, align 8
  call void @llvm.dbg.declare(metadata %"[closure@alloc::raw_vec::finish_grow<alloc::alloc::Global>::{closure#0}]"* %_1.dbg.spill, metadata !2833, metadata !DIExpression()), !dbg !2835
  call void @llvm.dbg.declare(metadata %"core::alloc::layout::LayoutError"* %_2.dbg.spill, metadata !2834, metadata !DIExpression()), !dbg !2836
  %1 = getelementptr inbounds { i64, i64 }, { i64, i64 }* %0, i32 0, i32 1, !dbg !2837
  store i64 0, i64* %1, align 8, !dbg !2837
  %2 = getelementptr inbounds { i64, i64 }, { i64, i64 }* %0, i32 0, i32 0, !dbg !2838
  %3 = load i64, i64* %2, align 8, !dbg !2838
  %4 = getelementptr inbounds { i64, i64 }, { i64, i64 }* %0, i32 0, i32 1, !dbg !2838
  %5 = load i64, i64* %4, align 8, !dbg !2838, !range !189, !noundef !123
  %6 = insertvalue { i64, i64 } undef, i64 %3, 0, !dbg !2838
  %7 = insertvalue { i64, i64 } %6, i64 %5, 1, !dbg !2838
  ret { i64, i64 } %7, !dbg !2838
}

; alloc::raw_vec::finish_grow::{{closure}}
; Function Attrs: inlinehint nonlazybind uwtable
define { i64, i64 } @"_ZN5alloc7raw_vec11finish_grow28_$u7b$$u7b$closure$u7d$$u7d$17h744cd256b77e8b6aE"(i64* align 8 %0) unnamed_addr #0 !dbg !2839 {
start:
  %_2.dbg.spill = alloca %"core::alloc::AllocError", align 1
  %_3 = alloca { i64, i64 }, align 8
  %_1 = alloca i64*, align 8
  store i64* %0, i64** %_1, align 8
  %1 = bitcast i64** %_1 to { i64, i64 }**
  %2 = load { i64, i64 }*, { i64, i64 }** %1, align 8, !nonnull !123, !align !2825, !noundef !123
  call void @llvm.dbg.declare(metadata i64** %_1, metadata !2843, metadata !DIExpression(DW_OP_deref)), !dbg !2845
  call void @llvm.dbg.declare(metadata %"core::alloc::AllocError"* %_2.dbg.spill, metadata !2844, metadata !DIExpression()), !dbg !2846
  %3 = bitcast i64** %_1 to { i64, i64 }**, !dbg !2847
  %_5 = load { i64, i64 }*, { i64, i64 }** %3, align 8, !dbg !2847, !nonnull !123, !align !2825, !noundef !123
  %4 = getelementptr inbounds { i64, i64 }, { i64, i64 }* %_5, i32 0, i32 0, !dbg !2847
  %_4.0 = load i64, i64* %4, align 8, !dbg !2847
  %5 = getelementptr inbounds { i64, i64 }, { i64, i64 }* %_5, i32 0, i32 1, !dbg !2847
  %_4.1 = load i64, i64* %5, align 8, !dbg !2847, !range !707, !noundef !123
  %6 = getelementptr inbounds { i64, i64 }, { i64, i64 }* %_3, i32 0, i32 0, !dbg !2848
  store i64 %_4.0, i64* %6, align 8, !dbg !2848
  %7 = getelementptr inbounds { i64, i64 }, { i64, i64 }* %_3, i32 0, i32 1, !dbg !2848
  store i64 %_4.1, i64* %7, align 8, !dbg !2848
  %8 = getelementptr inbounds { i64, i64 }, { i64, i64 }* %_3, i32 0, i32 0, !dbg !2848
  %9 = load i64, i64* %8, align 8, !dbg !2848
  %10 = getelementptr inbounds { i64, i64 }, { i64, i64 }* %_3, i32 0, i32 1, !dbg !2848
  %11 = load i64, i64* %10, align 8, !dbg !2848, !range !189, !noundef !123
; call <T as core::convert::Into<U>>::into
  %12 = call { i64, i64 } @"_ZN50_$LT$T$u20$as$u20$core..convert..Into$LT$U$GT$$GT$4into17hd471e5dbc2571ad4E"(i64 %9, i64 %11), !dbg !2848
  %13 = extractvalue { i64, i64 } %12, 0, !dbg !2848
  %14 = extractvalue { i64, i64 } %12, 1, !dbg !2848
  br label %bb1, !dbg !2848

bb1:                                              ; preds = %start
  %15 = insertvalue { i64, i64 } undef, i64 %13, 0, !dbg !2849
  %16 = insertvalue { i64, i64 } %15, i64 %14, 1, !dbg !2849
  ret { i64, i64 } %16, !dbg !2849
}

; alloc::raw_vec::handle_reserve
; Function Attrs: inlinehint nonlazybind uwtable
define internal void @_ZN5alloc7raw_vec14handle_reserve17h31e65bd8654ba87eE(i64 %result.0, i64 %result.1) unnamed_addr #0 !dbg !2850 {
start:
  %layout.dbg.spill = alloca { i64, i64 }, align 8
  %result.dbg.spill = alloca { i64, i64 }, align 8
  %_2 = alloca { i64, i64 }, align 8
  %0 = getelementptr inbounds { i64, i64 }, { i64, i64 }* %result.dbg.spill, i32 0, i32 0
  store i64 %result.0, i64* %0, align 8
  %1 = getelementptr inbounds { i64, i64 }, { i64, i64 }* %result.dbg.spill, i32 0, i32 1
  store i64 %result.1, i64* %1, align 8
  call void @llvm.dbg.declare(metadata { i64, i64 }* %result.dbg.spill, metadata !2854, metadata !DIExpression()), !dbg !2857
; call core::result::Result<T,E>::map_err
  %2 = call { i64, i64 } @"_ZN4core6result19Result$LT$T$C$E$GT$7map_err17hb96b30c662d6dd4eE"(i64 %result.0, i64 %result.1), !dbg !2858
  store { i64, i64 } %2, { i64, i64 }* %_2, align 8, !dbg !2858
  br label %bb1, !dbg !2858

bb1:                                              ; preds = %start
  %3 = getelementptr inbounds { i64, i64 }, { i64, i64 }* %_2, i32 0, i32 1, !dbg !2858
  %4 = load i64, i64* %3, align 8, !dbg !2858, !range !1233, !noundef !123
  %5 = sub i64 %4, -9223372036854775807, !dbg !2858
  %6 = icmp eq i64 %5, 0, !dbg !2858
  %_6 = select i1 %6, i64 0, i64 1, !dbg !2858
  switch i64 %_6, label %bb4 [
    i64 0, label %bb2
    i64 1, label %bb3
  ], !dbg !2859

bb4:                                              ; preds = %bb3, %bb1
  unreachable, !dbg !2858

bb2:                                              ; preds = %bb1
  ret void, !dbg !2860

bb3:                                              ; preds = %bb1
  %7 = getelementptr inbounds { i64, i64 }, { i64, i64 }* %_2, i32 0, i32 1, !dbg !2858
  %8 = load i64, i64* %7, align 8, !dbg !2858, !range !189, !noundef !123
  %9 = icmp eq i64 %8, 0, !dbg !2858
  %_5 = select i1 %9, i64 0, i64 1, !dbg !2858
  switch i64 %_5, label %bb4 [
    i64 0, label %bb5
    i64 1, label %bb6
  ], !dbg !2859

bb5:                                              ; preds = %bb3
; call alloc::raw_vec::capacity_overflow
  call void @_ZN5alloc7raw_vec17capacity_overflow17hc80d63a780181a5dE() #17, !dbg !2861
  unreachable, !dbg !2861

bb6:                                              ; preds = %bb3
  %10 = getelementptr inbounds { i64, i64 }, { i64, i64 }* %_2, i32 0, i32 0, !dbg !2862
  %layout.0 = load i64, i64* %10, align 8, !dbg !2862
  %11 = getelementptr inbounds { i64, i64 }, { i64, i64 }* %_2, i32 0, i32 1, !dbg !2862
  %layout.1 = load i64, i64* %11, align 8, !dbg !2862, !range !707, !noundef !123
  %12 = getelementptr inbounds { i64, i64 }, { i64, i64 }* %layout.dbg.spill, i32 0, i32 0, !dbg !2862
  store i64 %layout.0, i64* %12, align 8, !dbg !2862
  %13 = getelementptr inbounds { i64, i64 }, { i64, i64 }* %layout.dbg.spill, i32 0, i32 1, !dbg !2862
  store i64 %layout.1, i64* %13, align 8, !dbg !2862
  call void @llvm.dbg.declare(metadata { i64, i64 }* %layout.dbg.spill, metadata !2855, metadata !DIExpression()), !dbg !2863
; call alloc::alloc::handle_alloc_error
  call void @_ZN5alloc5alloc18handle_alloc_error17h0eb7a9e63f5042c6E(i64 %layout.0, i64 %layout.1) #17, !dbg !2864
  unreachable, !dbg !2864
}

; alloc::raw_vec::handle_reserve::{{closure}}
; Function Attrs: inlinehint nonlazybind uwtable
define { i64, i64 } @"_ZN5alloc7raw_vec14handle_reserve28_$u7b$$u7b$closure$u7d$$u7d$17he236e8f64c83531fE"(i64 %0, i64 %1) unnamed_addr #0 !dbg !2865 {
start:
  %self.dbg.spill2 = alloca { i64, i64 }*, align 8
  %__self_0.dbg.spill = alloca { i64, i64 }*, align 8
  %self.dbg.spill1 = alloca { i64, i64 }*, align 8
  %self.dbg.spill = alloca { i64, i64 }*, align 8
  %_1.dbg.spill = alloca %"[closure@alloc::raw_vec::handle_reserve::{closure#0}]", align 1
  %2 = alloca { i64, i64 }, align 8
  %e = alloca { i64, i64 }, align 8
  %3 = getelementptr inbounds { i64, i64 }, { i64, i64 }* %e, i32 0, i32 0
  store i64 %0, i64* %3, align 8
  %4 = getelementptr inbounds { i64, i64 }, { i64, i64 }* %e, i32 0, i32 1
  store i64 %1, i64* %4, align 8
  call void @llvm.dbg.declare(metadata %"[closure@alloc::raw_vec::handle_reserve::{closure#0}]"* %_1.dbg.spill, metadata !2870, metadata !DIExpression()), !dbg !2871
  call void @llvm.dbg.declare(metadata { i64, i64 }* %e, metadata !2869, metadata !DIExpression()), !dbg !2872
  store { i64, i64 }* %e, { i64, i64 }** %self.dbg.spill, align 8, !dbg !2873
  call void @llvm.dbg.declare(metadata { i64, i64 }** %self.dbg.spill, metadata !2874, metadata !DIExpression()), !dbg !2881
  store { i64, i64 }* %e, { i64, i64 }** %self.dbg.spill1, align 8, !dbg !2881
  call void @llvm.dbg.declare(metadata { i64, i64 }** %self.dbg.spill1, metadata !2882, metadata !DIExpression()), !dbg !2895
  %5 = getelementptr inbounds { i64, i64 }, { i64, i64 }* %e, i32 0, i32 1, !dbg !2895
  %6 = load i64, i64* %5, align 8, !dbg !2895, !range !189, !noundef !123
  %7 = icmp eq i64 %6, 0, !dbg !2895
  %_5 = select i1 %7, i64 0, i64 1, !dbg !2895
  switch i64 %_5, label %bb3 [
    i64 0, label %bb4
    i64 1, label %bb2
  ], !dbg !2895

bb3:                                              ; preds = %start
  unreachable, !dbg !2895

bb4:                                              ; preds = %start
  %8 = getelementptr inbounds { i64, i64 }, { i64, i64 }* %2, i32 0, i32 1, !dbg !2895
  store i64 0, i64* %8, align 8, !dbg !2895
  br label %bb1, !dbg !2895

bb2:                                              ; preds = %start
  store { i64, i64 }* %e, { i64, i64 }** %__self_0.dbg.spill, align 8, !dbg !2895
  call void @llvm.dbg.declare(metadata { i64, i64 }** %__self_0.dbg.spill, metadata !2890, metadata !DIExpression()), !dbg !2897
  store { i64, i64 }* %e, { i64, i64 }** %self.dbg.spill2, align 8, !dbg !2897
  call void @llvm.dbg.declare(metadata { i64, i64 }** %self.dbg.spill2, metadata !2898, metadata !DIExpression()), !dbg !2905
  %9 = getelementptr inbounds { i64, i64 }, { i64, i64 }* %e, i32 0, i32 0, !dbg !2905
  %_8.0 = load i64, i64* %9, align 8, !dbg !2905
  %10 = getelementptr inbounds { i64, i64 }, { i64, i64 }* %e, i32 0, i32 1, !dbg !2905
  %_8.1 = load i64, i64* %10, align 8, !dbg !2905, !range !707, !noundef !123
  %11 = getelementptr inbounds { i64, i64 }, { i64, i64 }* %2, i32 0, i32 0, !dbg !2897
  store i64 %_8.0, i64* %11, align 8, !dbg !2897
  %12 = getelementptr inbounds { i64, i64 }, { i64, i64 }* %2, i32 0, i32 1, !dbg !2897
  store i64 %_8.1, i64* %12, align 8, !dbg !2897
  br label %bb1, !dbg !2895

bb1:                                              ; preds = %bb4, %bb2
  %13 = getelementptr inbounds { i64, i64 }, { i64, i64 }* %2, i32 0, i32 0, !dbg !2907
  %14 = load i64, i64* %13, align 8, !dbg !2907
  %15 = getelementptr inbounds { i64, i64 }, { i64, i64 }* %2, i32 0, i32 1, !dbg !2907
  %16 = load i64, i64* %15, align 8, !dbg !2907, !range !189, !noundef !123
  %17 = insertvalue { i64, i64 } undef, i64 %14, 0, !dbg !2907
  %18 = insertvalue { i64, i64 } %17, i64 %16, 1, !dbg !2907
