; ModuleID = '1hgguzirg7c3m196'
source_filename = "1hgguzirg7c3m196"
target datalayout = "e-m:e-p270:32:32-p271:32:32-p272:64:64-i64:64-f80:128-n8:16:32:64-S128"
target triple = "x86_64-unknown-linux-gnu"

%"core::fmt::Formatter" = type { { i64, i64 }, { i64, i64 }, { {}*, [3 x i64]* }, i32, i32, i8, [7 x i8] }
%"core::fmt::builders::DebugList" = type { %"core::fmt::builders::DebugInner" }
%"core::fmt::builders::DebugInner" = type { %"core::fmt::Formatter"*, i8, i8, [6 x i8] }
%"core::fmt::Opaque" = type {}
%"core::fmt::Arguments" = type { { [0 x { [0 x i8]*, i64 }]*, i64 }, { i64*, i64 }, { [0 x { i8*, i64* }]*, i64 } }
%"core::panic::location::Location" = type { { [0 x i8]*, i64 }, i32, i32 }
%"[closure@src/test_uninitialized.rs:11:1: 23:2]" = type {}
%"[closure@src/test_quicksort.rs:46:1: 61:2]" = type {}
%"[closure@src/test_typedef.rs:11:1: 27:2]" = type {}
%"[closure@src/test_memory.rs:31:1: 43:2]" = type {}
%"[closure@src/test_exprs.rs:12:1: 24:2]" = type {}
%"[closure@src/test_lvalues.rs:12:1: 24:2]" = type {}
%"[closure@src/test_quicksort.rs:14:1: 28:2]" = type {}
%"[closure@src/test_shadowing.rs:14:1: 21:2]" = type {}
%"[closure@src/test_sizeofs.rs:14:1: 26:2]" = type {}
%"[closure@src/test_memory.rs:16:1: 28:2]" = type {}
%"[closure@src/test_shadowing.rs:24:1: 36:2]" = type {}
%"[closure@src/test_quicksort.rs:31:1: 43:2]" = type {}
%"[closure@src/test_uninitialized.rs:26:1: 39:2]" = type {}
%"alloc::vec::Vec<i32>" = type { { i32*, i64 }, i64 }
%"alloc::vec::Vec<[i32; 4]>" = type { { i32*, i64 }, i64 }
%"core::ptr::metadata::PtrComponents<u8>" = type { {}*, {} }
%"core::ptr::metadata::PtrRepr<u8>" = type { [1 x i64] }
%"core::alloc::layout::LayoutError" = type {}
%"core::result::Result<core::convert::Infallible, core::alloc::layout::LayoutError>::Err" = type { %"core::alloc::layout::LayoutError" }
%"core::ops::range::RangeFull" = type {}
%"core::result::Result<core::alloc::layout::Layout, alloc::collections::TryReserveErrorKind>" = type { i64, [2 x i64] }
%"[closure@alloc::raw_vec::finish_grow<alloc::alloc::Global>::{closure#0}]" = type {}
%"core::result::Result<core::alloc::layout::Layout, alloc::collections::TryReserveErrorKind>::Ok" = type { [1 x i64], { i64, i64 } }
%"core::result::Result<core::alloc::layout::Layout, alloc::collections::TryReserveErrorKind>::Err" = type { [1 x i64], { i64, i64 } }
%"core::result::Result<core::ptr::non_null::NonNull<[u8]>, alloc::collections::TryReserveError>" = type { i64, [2 x i64] }
%"core::alloc::AllocError" = type {}
%"core::result::Result<core::ptr::non_null::NonNull<[u8]>, alloc::collections::TryReserveError>::Ok" = type { [1 x i64], { i8*, i64 } }
%"core::result::Result<core::ptr::non_null::NonNull<[u8]>, alloc::collections::TryReserveError>::Err" = type { [1 x i64], { i64, i64 } }
%"[closure@alloc::raw_vec::handle_reserve::{closure#0}]" = type {}
%"core::result::Result<(), alloc::collections::TryReserveErrorKind>::Ok" = type { {} }
%"core::option::Option<core::fmt::Arguments>" = type { {}*, [5 x i64] }
%"core::option::Option<core::fmt::Arguments>::Some" = type { %"core::fmt::Arguments" }
%"[closure@<i32 as alloc::vec::is_zero::IsZero>::is_zero::{closure#0}]" = type {}
%"alloc::vec::ExtendElement<[i32; 4]>" = type { [4 x i32] }
%"alloc::alloc::Global" = type {}
%"core::result::Result<core::convert::Infallible, core::alloc::AllocError>::Err" = type { %"core::alloc::AllocError" }
%"core::ptr::metadata::PtrRepr<[u8]>" = type { [2 x i64] }
%"[closure@core::intrinsics::copy_nonoverlapping<u8>::{closure#0}]" = type { i8**, i8**, i64* }
%"core::option::Option<(core::ptr::non_null::NonNull<u8>, core::alloc::layout::Layout)>" = type { [2 x i64], i64 }
%"core::ops::control_flow::ControlFlow<core::result::Result<core::convert::Infallible, alloc::collections::TryReserveErrorKind>, core::alloc::layout::Layout>" = type { i64, [2 x i64] }
%"core::ops::control_flow::ControlFlow<core::result::Result<core::convert::Infallible, alloc::collections::TryReserveErrorKind>, core::alloc::layout::Layout>::Continue" = type { [1 x i64], { i64, i64 } }
%"core::ops::control_flow::ControlFlow<core::result::Result<core::convert::Infallible, alloc::collections::TryReserveErrorKind>, core::alloc::layout::Layout>::Break" = type { [1 x i64], { i64, i64 } }
%"core::option::Option<(core::ptr::non_null::NonNull<u8>, core::alloc::layout::Layout)>::Some" = type { { i8*, { i64, i64 } } }
%"core::ops::control_flow::ControlFlow<core::result::Result<core::convert::Infallible, alloc::collections::TryReserveError>, core::ptr::non_null::NonNull<[u8]>>" = type { i64, [2 x i64] }
%"core::result::Result<usize, alloc::collections::TryReserveErrorKind>" = type { i64, [2 x i64] }
%"core::ops::control_flow::ControlFlow<core::result::Result<core::convert::Infallible, alloc::collections::TryReserveErrorKind>, usize>" = type { i64, [2 x i64] }
%"core::result::Result<usize, alloc::collections::TryReserveErrorKind>::Err" = type { [1 x i64], { i64, i64 } }
%"core::result::Result<usize, alloc::collections::TryReserveErrorKind>::Ok" = type { [1 x i64], i64 }
%"core::ops::control_flow::ControlFlow<core::result::Result<core::convert::Infallible, alloc::collections::TryReserveErrorKind>, usize>::Continue" = type { [1 x i64], i64 }
%"core::ops::control_flow::ControlFlow<core::result::Result<core::convert::Infallible, alloc::collections::TryReserveErrorKind>, usize>::Break" = type { [1 x i64], { i64, i64 } }
%"core::ops::control_flow::ControlFlow<core::result::Result<core::convert::Infallible, alloc::collections::TryReserveError>, core::ptr::non_null::NonNull<[u8]>>::Continue" = type { [1 x i64], { i8*, i64 } }
%"core::ops::control_flow::ControlFlow<core::result::Result<core::convert::Infallible, alloc::collections::TryReserveError>, core::ptr::non_null::NonNull<[u8]>>::Break" = type { [1 x i64], { i64, i64 } }
%"core::ptr::metadata::PtrRepr<[i32]>" = type { [2 x i64] }
%"core::ptr::metadata::PtrRepr<[[i32; 4]]>" = type { [2 x i64] }
%"uninitialized::u" = type { [1 x i32] }
%"uninitialized::s" = type { %"uninitialized::u", i8, [3 x i8], i32 }
%"test::types::TestDescAndFn" = type { %"test::types::TestDesc", %"test::types::TestFn" }
%"test::types::TestDesc" = type { %"test::types::TestName", { i8*, i64 }, %"test::options::ShouldPanic", i8, i8, i8, i8, [4 x i8] }
%"test::types::TestName" = type { i8, [39 x i8] }
%"test::options::ShouldPanic" = type { i64, [2 x i64] }
%"test::types::TestFn" = type { i64, [2 x i64] }
%"unwind::libunwind::_Unwind_Exception" = type { i64, void (i32, %"unwind::libunwind::_Unwind_Exception"*)*, [6 x i64] }
%"unwind::libunwind::_Unwind_Context" = type { [0 x i8] }

@vtable.0 = private unnamed_addr constant <{ i8*, [16 x i8], i8*, i8*, i8* }> <{ i8* bitcast (void (i64**)* @"_ZN4core3ptr85drop_in_place$LT$std..rt..lang_start$LT$$LP$$RP$$GT$..$u7b$$u7b$closure$u7d$$u7d$$GT$17hff7050e790475270E" to i8*), [16 x i8] c"\08\00\00\00\00\00\00\00\08\00\00\00\00\00\00\00", i8* bitcast (i32 (i64**)* @"_ZN4core3ops8function6FnOnce40call_once$u7b$$u7b$vtable.shim$u7d$$u7d$17hf3480924c578e713E" to i8*), i8* bitcast (i32 (i64**)* @"_ZN3std2rt10lang_start28_$u7b$$u7b$closure$u7d$$u7d$17h9976755c369c8586E" to i8*), i8* bitcast (i32 (i64**)* @"_ZN3std2rt10lang_start28_$u7b$$u7b$closure$u7d$$u7d$17h9976755c369c8586E" to i8*) }>, align 8, !dbg !0
@alloc694 = private unnamed_addr constant <{ [2 x i8] }> <{ [2 x i8] c"()" }>, align 1
@vtable.1 = private unnamed_addr constant <{ i8*, [16 x i8], i8* }> <{ i8* bitcast (void (i32**)* @"_ZN4core3ptr28drop_in_place$LT$$RF$i32$GT$17h55f4c3eed93eff6cE" to i8*), [16 x i8] c"\08\00\00\00\00\00\00\00\08\00\00\00\00\00\00\00", i8* bitcast (i1 (i32**, %"core::fmt::Formatter"*)* @"_ZN42_$LT$$RF$T$u20$as$u20$core..fmt..Debug$GT$3fmt17h325bf7e19275887aE" to i8*) }>, align 8, !dbg !24
@alloc202 = private unnamed_addr constant <{ [12 x i8] }> <{ [12 x i8] c"invalid args" }>, align 1
@alloc203 = private unnamed_addr constant <{ i8*, [8 x i8] }> <{ i8* getelementptr inbounds (<{ [12 x i8] }>, <{ [12 x i8] }>* @alloc202, i32 0, i32 0, i32 0), [8 x i8] c"\0C\00\00\00\00\00\00\00" }>, align 8
@alloc193 = private unnamed_addr constant <{}> zeroinitializer, align 8
@alloc698 = private unnamed_addr constant <{ [75 x i8] }> <{ [75 x i8] c"/rustc/d394408fb38c4de61f765a3ed5189d2731a1da91/library/core/src/fmt/mod.rs" }>, align 1
@alloc699 = private unnamed_addr constant <{ i8*, [16 x i8] }> <{ i8* getelementptr inbounds (<{ [75 x i8] }>, <{ [75 x i8] }>* @alloc698, i32 0, i32 0, i32 0), [16 x i8] c"K\00\00\00\00\00\00\00\88\01\00\00\0D\00\00\00" }>, align 8
@vtable.2 = private unnamed_addr constant <{ i8*, [16 x i8], i8* }> <{ i8* bitcast (void ([10 x i32]**)* @"_ZN4core3ptr50drop_in_place$LT$$RF$$u5b$i32$u3b$$u20$10$u5d$$GT$17hedff71cbd66a5e9fE" to i8*), [16 x i8] c"\08\00\00\00\00\00\00\00\08\00\00\00\00\00\00\00", i8* bitcast (i1 ([10 x i32]**, %"core::fmt::Formatter"*)* @"_ZN42_$LT$$RF$T$u20$as$u20$core..fmt..Debug$GT$3fmt17h8453208e0de1799fE" to i8*) }>, align 8, !dbg !34
@vtable.3 = private unnamed_addr constant <{ i8*, [16 x i8], i8* }> <{ i8* bitcast (void ({}**)* @"_ZN4core3ptr33drop_in_place$LT$$RF$$LP$$RP$$GT$17hc2274c1d1ec8c39aE" to i8*), [16 x i8] c"\08\00\00\00\00\00\00\00\08\00\00\00\00\00\00\00", i8* bitcast (i1 ({}**, %"core::fmt::Formatter"*)* @"_ZN42_$LT$$RF$T$u20$as$u20$core..fmt..Debug$GT$3fmt17h70f892cf23d84968E" to i8*) }>, align 8, !dbg !46
@vtable.4 = private unnamed_addr constant <{ i8*, [16 x i8], i8* }> <{ i8* bitcast (void ([3 x i32]**)* @"_ZN4core3ptr49drop_in_place$LT$$RF$$u5b$i32$u3b$$u20$3$u5d$$GT$17h0af8c2383515be9bE" to i8*), [16 x i8] c"\08\00\00\00\00\00\00\00\08\00\00\00\00\00\00\00", i8* bitcast (i1 ([3 x i32]**, %"core::fmt::Formatter"*)* @"_ZN42_$LT$$RF$T$u20$as$u20$core..fmt..Debug$GT$3fmt17h588532a1b3e46bfcE" to i8*) }>, align 8, !dbg !55
@vtable.5 = private unnamed_addr constant <{ i8*, [16 x i8], i8* }> <{ i8* bitcast (void ([1 x i32]**)* @"_ZN4core3ptr49drop_in_place$LT$$RF$$u5b$i32$u3b$$u20$1$u5d$$GT$17hd984f955d0e1083dE" to i8*), [16 x i8] c"\08\00\00\00\00\00\00\00\08\00\00\00\00\00\00\00", i8* bitcast (i1 ([1 x i32]**, %"core::fmt::Formatter"*)* @"_ZN42_$LT$$RF$T$u20$as$u20$core..fmt..Debug$GT$3fmt17h133358f10bce4bc6E" to i8*) }>, align 8, !dbg !67
@vtable.6 = private unnamed_addr constant <{ i8*, [16 x i8], i8* }> <{ i8* bitcast (void ([5 x i32]**)* @"_ZN4core3ptr49drop_in_place$LT$$RF$$u5b$i32$u3b$$u20$5$u5d$$GT$17h55c2f46b5138ef3cE" to i8*), [16 x i8] c"\08\00\00\00\00\00\00\00\08\00\00\00\00\00\00\00", i8* bitcast (i1 ([5 x i32]**, %"core::fmt::Formatter"*)* @"_ZN42_$LT$$RF$T$u20$as$u20$core..fmt..Debug$GT$3fmt17hb4053abcc1bbde9bE" to i8*) }>, align 8, !dbg !79
@vtable.7 = private unnamed_addr constant <{ i8*, [16 x i8], i8* }> <{ i8* bitcast (void ([6 x i32]**)* @"_ZN4core3ptr49drop_in_place$LT$$RF$$u5b$i32$u3b$$u20$6$u5d$$GT$17hfbc5c32dc62ea6d3E" to i8*), [16 x i8] c"\08\00\00\00\00\00\00\00\08\00\00\00\00\00\00\00", i8* bitcast (i1 ([6 x i32]**, %"core::fmt::Formatter"*)* @"_ZN42_$LT$$RF$T$u20$as$u20$core..fmt..Debug$GT$3fmt17ha853fb7d2d322f68E" to i8*) }>, align 8, !dbg !91
@alloc344 = private unnamed_addr constant <{ [4 x i8] }> zeroinitializer, align 4
@alloc209 = private unnamed_addr constant <{ [67 x i8] }> <{ [67 x i8] c"the test returned a termination value with a non-zero status code (" }>, align 1
@alloc211 = private unnamed_addr constant <{ [27 x i8] }> <{ [27 x i8] c") which indicates a failure" }>, align 1
@alloc210 = private unnamed_addr constant <{ i8*, [8 x i8], i8*, [8 x i8] }> <{ i8* getelementptr inbounds (<{ [67 x i8] }>, <{ [67 x i8] }>* @alloc209, i32 0, i32 0, i32 0), [8 x i8] c"C\00\00\00\00\00\00\00", i8* getelementptr inbounds (<{ [27 x i8] }>, <{ [27 x i8] }>* @alloc211, i32 0, i32 0, i32 0), [8 x i8] c"\1B\00\00\00\00\00\00\00" }>, align 8
@alloc718 = private unnamed_addr constant <{ [71 x i8] }> <{ [71 x i8] c"/rustc/d394408fb38c4de61f765a3ed5189d2731a1da91/library/test/src/lib.rs" }>, align 1
@alloc719 = private unnamed_addr constant <{ i8*, [16 x i8] }> <{ i8* getelementptr inbounds (<{ [71 x i8] }>, <{ [71 x i8] }>* @alloc718, i32 0, i32 0, i32 0), [16 x i8] c"G\00\00\00\00\00\00\00\B8\00\00\00\05\00\00\00" }>, align 8
@alloc724 = private unnamed_addr constant <{ [13 x i8] }> <{ [13 x i8] c"src/malloc.rs" }>, align 1
@alloc721 = private unnamed_addr constant <{ i8*, [16 x i8] }> <{ i8* getelementptr inbounds (<{ [13 x i8] }>, <{ [13 x i8] }>* @alloc724, i32 0, i32 0, i32 0), [16 x i8] c"\0D\00\00\00\00\00\00\00\1E\00\00\00\09\00\00\00" }>, align 8
@str.8 = internal constant [28 x i8] c"attempt to add with overflow"
@alloc723 = private unnamed_addr constant <{ i8*, [16 x i8] }> <{ i8* getelementptr inbounds (<{ [13 x i8] }>, <{ [13 x i8] }>* @alloc724, i32 0, i32 0, i32 0), [16 x i8] c"\0D\00\00\00\00\00\00\00(\00\00\00\09\00\00\00" }>, align 8
@alloc725 = private unnamed_addr constant <{ i8*, [16 x i8] }> <{ i8* getelementptr inbounds (<{ [13 x i8] }>, <{ [13 x i8] }>* @alloc724, i32 0, i32 0, i32 0), [16 x i8] c"\0D\00\00\00\00\00\00\00+\00\00\00\09\00\00\00" }>, align 8
@alloc748 = private unnamed_addr constant <{ [14 x i8] }> <{ [14 x i8] c"src/sizeofs.rs" }>, align 1
@alloc727 = private unnamed_addr constant <{ i8*, [16 x i8] }> <{ i8* getelementptr inbounds (<{ [14 x i8] }>, <{ [14 x i8] }>* @alloc748, i32 0, i32 0, i32 0), [16 x i8] c"\0E\00\00\00\00\00\00\00\C1\00\00\00)\00\00\00" }>, align 8
@str.9 = internal constant [33 x i8] c"attempt to multiply with overflow"
@alloc729 = private unnamed_addr constant <{ i8*, [16 x i8] }> <{ i8* getelementptr inbounds (<{ [14 x i8] }>, <{ [14 x i8] }>* @alloc748, i32 0, i32 0, i32 0), [16 x i8] c"\0E\00\00\00\00\00\00\00\C1\00\00\00(\00\00\00" }>, align 8
@alloc731 = private unnamed_addr constant <{ i8*, [16 x i8] }> <{ i8* getelementptr inbounds (<{ [14 x i8] }>, <{ [14 x i8] }>* @alloc748, i32 0, i32 0, i32 0), [16 x i8] c"\0E\00\00\00\00\00\00\00\CA\00\00\00(\00\00\00" }>, align 8
@alloc733 = private unnamed_addr constant <{ i8*, [16 x i8] }> <{ i8* getelementptr inbounds (<{ [14 x i8] }>, <{ [14 x i8] }>* @alloc748, i32 0, i32 0, i32 0), [16 x i8] c"\0E\00\00\00\00\00\00\00\D2\00\00\00)\00\00\00" }>, align 8
@alloc735 = private unnamed_addr constant <{ i8*, [16 x i8] }> <{ i8* getelementptr inbounds (<{ [14 x i8] }>, <{ [14 x i8] }>* @alloc748, i32 0, i32 0, i32 0), [16 x i8] c"\0E\00\00\00\00\00\00\00\D2\00\00\00(\00\00\00" }>, align 8
@alloc737 = private unnamed_addr constant <{ i8*, [16 x i8] }> <{ i8* getelementptr inbounds (<{ [14 x i8] }>, <{ [14 x i8] }>* @alloc748, i32 0, i32 0, i32 0), [16 x i8] c"\0E\00\00\00\00\00\00\00\EE\00\00\00A\00\00\00" }>, align 8
@alloc739 = private unnamed_addr constant <{ i8*, [16 x i8] }> <{ i8* getelementptr inbounds (<{ [14 x i8] }>, <{ [14 x i8] }>* @alloc748, i32 0, i32 0, i32 0), [16 x i8] c"\0E\00\00\00\00\00\00\00\F3\00\00\00A\00\00\00" }>, align 8
@alloc741 = private unnamed_addr constant <{ i8*, [16 x i8] }> <{ i8* getelementptr inbounds (<{ [14 x i8] }>, <{ [14 x i8] }>* @alloc748, i32 0, i32 0, i32 0), [16 x i8] c"\0E\00\00\00\00\00\00\00\0F\01\00\00)\00\00\00" }>, align 8
@alloc743 = private unnamed_addr constant <{ i8*, [16 x i8] }> <{ i8* getelementptr inbounds (<{ [14 x i8] }>, <{ [14 x i8] }>* @alloc748, i32 0, i32 0, i32 0), [16 x i8] c"\0E\00\00\00\00\00\00\00\0F\01\00\00(\00\00\00" }>, align 8
@alloc745 = private unnamed_addr constant <{ i8*, [16 x i8] }> <{ i8* getelementptr inbounds (<{ [14 x i8] }>, <{ [14 x i8] }>* @alloc748, i32 0, i32 0, i32 0), [16 x i8] c"\0E\00\00\00\00\00\00\00\18\01\00\00(\00\00\00" }>, align 8
@alloc747 = private unnamed_addr constant <{ i8*, [16 x i8] }> <{ i8* getelementptr inbounds (<{ [14 x i8] }>, <{ [14 x i8] }>* @alloc748, i32 0, i32 0, i32 0), [16 x i8] c"\0E\00\00\00\00\00\00\00!\01\00\00)\00\00\00" }>, align 8
@alloc749 = private unnamed_addr constant <{ i8*, [16 x i8] }> <{ i8* getelementptr inbounds (<{ [14 x i8] }>, <{ [14 x i8] }>* @alloc748, i32 0, i32 0, i32 0), [16 x i8] c"\0E\00\00\00\00\00\00\00!\01\00\00(\00\00\00" }>, align 8
@alloc23 = private unnamed_addr constant <{ [7 x i8] }> <{ [7 x i8] c"i == n\00" }>, align 1
@alloc24 = private unnamed_addr constant <{ [10 x i8] }> <{ [10 x i8] c"sizeofs.c\00" }>, align 1
@alloc25 = private unnamed_addr constant <{ [45 x i8] }> <{ [45 x i8] c"void sizeofs(const unsigned int, int *const)\00" }>, align 1
@alloc754 = private unnamed_addr constant <{ [16 x i8] }> <{ [16 x i8] c"src/shadowing.rs" }>, align 1
@alloc751 = private unnamed_addr constant <{ i8*, [16 x i8] }> <{ i8* getelementptr inbounds (<{ [16 x i8] }>, <{ [16 x i8] }>* @alloc754, i32 0, i32 0, i32 0), [16 x i8] c"\10\00\00\00\00\00\00\00\0C\00\00\00\0C\00\00\00" }>, align 8
@alloc753 = private unnamed_addr constant <{ i8*, [16 x i8] }> <{ i8* getelementptr inbounds (<{ [16 x i8] }>, <{ [16 x i8] }>* @alloc754, i32 0, i32 0, i32 0), [16 x i8] c"\10\00\00\00\00\00\00\00\19\00\00\00\09\00\00\00" }>, align 8
@alloc755 = private unnamed_addr constant <{ i8*, [16 x i8] }> <{ i8* getelementptr inbounds (<{ [16 x i8] }>, <{ [16 x i8] }>* @alloc754, i32 0, i32 0, i32 0), [16 x i8] c"\10\00\00\00\00\00\00\00\1B\00\00\00\09\00\00\00" }>, align 8
@alloc760 = private unnamed_addr constant <{ [12 x i8] }> <{ [12 x i8] c"src/exprs.rs" }>, align 1
@alloc757 = private unnamed_addr constant <{ i8*, [16 x i8] }> <{ i8* getelementptr inbounds (<{ [12 x i8] }>, <{ [12 x i8] }>* @alloc760, i32 0, i32 0, i32 0), [16 x i8] c"\0C\00\00\00\00\00\00\00\16\00\00\00\05\00\00\00" }>, align 8
@str.a = internal constant [31 x i8] c"attempt to negate with overflow"
@alloc29 = private unnamed_addr constant <{ [1 x i8] }> zeroinitializer, align 1
@alloc759 = private unnamed_addr constant <{ i8*, [16 x i8] }> <{ i8* getelementptr inbounds (<{ [12 x i8] }>, <{ [12 x i8] }>* @alloc760, i32 0, i32 0, i32 0), [16 x i8] c"\0C\00\00\00\00\00\00\00\1F\00\00\00\05\00\00\00" }>, align 8
@alloc761 = private unnamed_addr constant <{ i8*, [16 x i8] }> <{ i8* getelementptr inbounds (<{ [12 x i8] }>, <{ [12 x i8] }>* @alloc760, i32 0, i32 0, i32 0), [16 x i8] c"\0C\00\00\00\00\00\00\00!\00\00\00\05\00\00\00" }>, align 8
@alloc764 = private unnamed_addr constant <{ [14 x i8] }> <{ [14 x i8] c"src/lvalues.rs" }>, align 1
@alloc763 = private unnamed_addr constant <{ i8*, [16 x i8] }> <{ i8* getelementptr inbounds (<{ [14 x i8] }>, <{ [14 x i8] }>* @alloc764, i32 0, i32 0, i32 0), [16 x i8] c"\0E\00\00\00\00\00\00\00\11\00\00\00\05\00\00\00" }>, align 8
@alloc765 = private unnamed_addr constant <{ i8*, [16 x i8] }> <{ i8* getelementptr inbounds (<{ [14 x i8] }>, <{ [14 x i8] }>* @alloc764, i32 0, i32 0, i32 0), [16 x i8] c"\0E\00\00\00\00\00\00\00\1E\00\00\00\05\00\00\00" }>, align 8
@alloc780 = private unnamed_addr constant <{ [12 x i8] }> <{ [12 x i8] c"src/qsort.rs" }>, align 1
@alloc767 = private unnamed_addr constant <{ i8*, [16 x i8] }> <{ i8* getelementptr inbounds (<{ [12 x i8] }>, <{ [12 x i8] }>* @alloc780, i32 0, i32 0, i32 0), [16 x i8] c"\0C\00\00\00\00\00\00\00\1A\00\00\00\22\00\00\00" }>, align 8
@str.b = internal constant [33 x i8] c"attempt to subtract with overflow"
@alloc769 = private unnamed_addr constant <{ i8*, [16 x i8] }> <{ i8* getelementptr inbounds (<{ [12 x i8] }>, <{ [12 x i8] }>* @alloc780, i32 0, i32 0, i32 0), [16 x i8] c"\0C\00\00\00\00\00\00\00\1C\00\00\00\10\00\00\00" }>, align 8
@alloc771 = private unnamed_addr constant <{ i8*, [16 x i8] }> <{ i8* getelementptr inbounds (<{ [12 x i8] }>, <{ [12 x i8] }>* @alloc780, i32 0, i32 0, i32 0), [16 x i8] c"\0C\00\00\00\00\00\00\00\1E\00\00\00\0D\00\00\00" }>, align 8
@alloc773 = private unnamed_addr constant <{ i8*, [16 x i8] }> <{ i8* getelementptr inbounds (<{ [12 x i8] }>, <{ [12 x i8] }>* @alloc780, i32 0, i32 0, i32 0), [16 x i8] c"\0C\00\00\00\00\00\00\00\22\00\00\00\09\00\00\00" }>, align 8
@alloc775 = private unnamed_addr constant <{ i8*, [16 x i8] }> <{ i8* getelementptr inbounds (<{ [12 x i8] }>, <{ [12 x i8] }>* @alloc780, i32 0, i32 0, i32 0), [16 x i8] c"\0C\00\00\00\00\00\00\00&\00\00\00\1A\00\00\00" }>, align 8
@alloc777 = private unnamed_addr constant <{ i8*, [16 x i8] }> <{ i8* getelementptr inbounds (<{ [12 x i8] }>, <{ [12 x i8] }>* @alloc780, i32 0, i32 0, i32 0), [16 x i8] c"\0C\00\00\00\00\00\00\00)\00\00\00\0C\00\00\00" }>, align 8
@alloc779 = private unnamed_addr constant <{ i8*, [16 x i8] }> <{ i8* getelementptr inbounds (<{ [12 x i8] }>, <{ [12 x i8] }>* @alloc780, i32 0, i32 0, i32 0), [16 x i8] c"\0C\00\00\00\00\00\00\003\00\00\00\22\00\00\00" }>, align 8
@alloc781 = private unnamed_addr constant <{ i8*, [16 x i8] }> <{ i8* getelementptr inbounds (<{ [12 x i8] }>, <{ [12 x i8] }>* @alloc780, i32 0, i32 0, i32 0), [16 x i8] c"\0C\00\00\00\00\00\00\004\00\00\00\1D\00\00\00" }>, align 8
@alloc786 = private unnamed_addr constant <{ [19 x i8] }> <{ [19 x i8] c"src/test_sizeofs.rs" }>, align 1
@alloc783 = private unnamed_addr constant <{ i8*, [16 x i8] }> <{ i8* getelementptr inbounds (<{ [19 x i8] }>, <{ [19 x i8] }>* @alloc786, i32 0, i32 0, i32 0), [16 x i8] c"\13\00\00\00\00\00\00\00\18\00\00\00\14\00\00\00" }>, align 8
@alloc785 = private unnamed_addr constant <{ i8*, [16 x i8] }> <{ i8* getelementptr inbounds (<{ [19 x i8] }>, <{ [19 x i8] }>* @alloc786, i32 0, i32 0, i32 0), [16 x i8] c"\13\00\00\00\00\00\00\00\18\00\00\00\1F\00\00\00" }>, align 8
@alloc570 = private unnamed_addr constant <{ [6 x i8] }> <{ [6 x i8] c"index " }>, align 1
@alloc571 = private unnamed_addr constant <{ i8*, [8 x i8] }> <{ i8* getelementptr inbounds (<{ [6 x i8] }>, <{ [6 x i8] }>* @alloc570, i32 0, i32 0, i32 0), [8 x i8] c"\06\00\00\00\00\00\00\00" }>, align 8
@alloc787 = private unnamed_addr constant <{ i8*, [16 x i8] }> <{ i8* getelementptr inbounds (<{ [19 x i8] }>, <{ [19 x i8] }>* @alloc786, i32 0, i32 0, i32 0), [16 x i8] c"\13\00\00\00\00\00\00\00\18\00\00\00\09\00\00\00" }>, align 8
@alloc790 = private unnamed_addr constant <{ [25 x i8] }> <{ [25 x i8] c"src/test_uninitialized.rs" }>, align 1
@alloc789 = private unnamed_addr constant <{ i8*, [16 x i8] }> <{ i8* getelementptr inbounds (<{ [25 x i8] }>, <{ [25 x i8] }>* @alloc790, i32 0, i32 0, i32 0), [16 x i8] c"\19\00\00\00\00\00\00\00\15\00\00\00\05\00\00\00" }>, align 8
@alloc791 = private unnamed_addr constant <{ i8*, [16 x i8] }> <{ i8* getelementptr inbounds (<{ [25 x i8] }>, <{ [25 x i8] }>* @alloc790, i32 0, i32 0, i32 0), [16 x i8] c"\19\00\00\00\00\00\00\00\16\00\00\00\05\00\00\00" }>, align 8
@alloc478 = private unnamed_addr constant <{ [4 x i8] }> <{ [4 x i8] c"\01\00\00\00" }>, align 4
@alloc484 = private unnamed_addr constant <{ [4 x i8] }> <{ [4 x i8] c"\02\00\00\00" }>, align 4
@alloc281 = private unnamed_addr constant <{ [4 x i8] }> <{ [4 x i8] c"\03\00\00\00" }>, align 4
@alloc796 = private unnamed_addr constant <{ [21 x i8] }> <{ [21 x i8] c"src/test_shadowing.rs" }>, align 1
@alloc793 = private unnamed_addr constant <{ i8*, [16 x i8] }> <{ i8* getelementptr inbounds (<{ [21 x i8] }>, <{ [21 x i8] }>* @alloc796, i32 0, i32 0, i32 0), [16 x i8] c"\15\00\00\00\00\00\00\00\13\00\00\00\09\00\00\00" }>, align 8
@alloc795 = private unnamed_addr constant <{ i8*, [16 x i8] }> <{ i8* getelementptr inbounds (<{ [21 x i8] }>, <{ [21 x i8] }>* @alloc796, i32 0, i32 0, i32 0), [16 x i8] c"\15\00\00\00\00\00\00\00\22\00\00\00\05\00\00\00" }>, align 8
@alloc797 = private unnamed_addr constant <{ i8*, [16 x i8] }> <{ i8* getelementptr inbounds (<{ [21 x i8] }>, <{ [21 x i8] }>* @alloc796, i32 0, i32 0, i32 0), [16 x i8] c"\15\00\00\00\00\00\00\00#\00\00\00\05\00\00\00" }>, align 8
@alloc804 = private unnamed_addr constant <{ [19 x i8] }> <{ [19 x i8] c"src/test_typedef.rs" }>, align 1
@alloc799 = private unnamed_addr constant <{ i8*, [16 x i8] }> <{ i8* getelementptr inbounds (<{ [19 x i8] }>, <{ [19 x i8] }>* @alloc804, i32 0, i32 0, i32 0), [16 x i8] c"\13\00\00\00\00\00\00\00\0E\00\00\00\05\00\00\00" }>, align 8
@alloc801 = private unnamed_addr constant <{ i8*, [16 x i8] }> <{ i8* getelementptr inbounds (<{ [19 x i8] }>, <{ [19 x i8] }>* @alloc804, i32 0, i32 0, i32 0), [16 x i8] c"\13\00\00\00\00\00\00\00\0F\00\00\00\05\00\00\00" }>, align 8
@alloc803 = private unnamed_addr constant <{ i8*, [16 x i8] }> <{ i8* getelementptr inbounds (<{ [19 x i8] }>, <{ [19 x i8] }>* @alloc804, i32 0, i32 0, i32 0), [16 x i8] c"\13\00\00\00\00\00\00\00\13\00\00\00\05\00\00\00" }>, align 8
@alloc805 = private unnamed_addr constant <{ i8*, [16 x i8] }> <{ i8* getelementptr inbounds (<{ [19 x i8] }>, <{ [19 x i8] }>* @alloc804, i32 0, i32 0, i32 0), [16 x i8] c"\13\00\00\00\00\00\00\00\19\00\00\00\09\00\00\00" }>, align 8
@alloc812 = private unnamed_addr constant <{ [18 x i8] }> <{ [18 x i8] c"src/test_memory.rs" }>, align 1
@alloc807 = private unnamed_addr constant <{ i8*, [16 x i8] }> <{ i8* getelementptr inbounds (<{ [18 x i8] }>, <{ [18 x i8] }>* @alloc812, i32 0, i32 0, i32 0), [16 x i8] c"\12\00\00\00\00\00\00\00\1A\00\00\00\05\00\00\00" }>, align 8
@alloc809 = private unnamed_addr constant <{ i8*, [16 x i8] }> <{ i8* getelementptr inbounds (<{ [18 x i8] }>, <{ [18 x i8] }>* @alloc812, i32 0, i32 0, i32 0), [16 x i8] c"\12\00\00\00\00\00\00\00\1B\00\00\00\05\00\00\00" }>, align 8
@alloc811 = private unnamed_addr constant <{ i8*, [16 x i8] }> <{ i8* getelementptr inbounds (<{ [18 x i8] }>, <{ [18 x i8] }>* @alloc812, i32 0, i32 0, i32 0), [16 x i8] c"\12\00\00\00\00\00\00\00)\00\00\00\05\00\00\00" }>, align 8
@alloc813 = private unnamed_addr constant <{ i8*, [16 x i8] }> <{ i8* getelementptr inbounds (<{ [18 x i8] }>, <{ [18 x i8] }>* @alloc812, i32 0, i32 0, i32 0), [16 x i8] c"\12\00\00\00\00\00\00\00*\00\00\00\05\00\00\00" }>, align 8
@alloc816 = private unnamed_addr constant <{ [19 x i8] }> <{ [19 x i8] c"src/test_lvalues.rs" }>, align 1
@alloc815 = private unnamed_addr constant <{ i8*, [16 x i8] }> <{ i8* getelementptr inbounds (<{ [19 x i8] }>, <{ [19 x i8] }>* @alloc816, i32 0, i32 0, i32 0), [16 x i8] c"\13\00\00\00\00\00\00\00\16\00\00\00\05\00\00\00" }>, align 8
@alloc817 = private unnamed_addr constant <{ i8*, [16 x i8] }> <{ i8* getelementptr inbounds (<{ [19 x i8] }>, <{ [19 x i8] }>* @alloc816, i32 0, i32 0, i32 0), [16 x i8] c"\13\00\00\00\00\00\00\00\17\00\00\00\05\00\00\00" }>, align 8
@alloc834 = private unnamed_addr constant <{ [21 x i8] }> <{ [21 x i8] c"src/test_quicksort.rs" }>, align 1
@alloc819 = private unnamed_addr constant <{ i8*, [16 x i8] }> <{ i8* getelementptr inbounds (<{ [21 x i8] }>, <{ [21 x i8] }>* @alloc834, i32 0, i32 0, i32 0), [16 x i8] c"\15\00\00\00\00\00\00\00\15\00\00\00\05\00\00\00" }>, align 8
@alloc821 = private unnamed_addr constant <{ i8*, [16 x i8] }> <{ i8* getelementptr inbounds (<{ [21 x i8] }>, <{ [21 x i8] }>* @alloc834, i32 0, i32 0, i32 0), [16 x i8] c"\15\00\00\00\00\00\00\00\16\00\00\00\05\00\00\00" }>, align 8
@alloc823 = private unnamed_addr constant <{ i8*, [16 x i8] }> <{ i8* getelementptr inbounds (<{ [21 x i8] }>, <{ [21 x i8] }>* @alloc834, i32 0, i32 0, i32 0), [16 x i8] c"\15\00\00\00\00\00\00\00\1A\00\00\00\05\00\00\00" }>, align 8
@alloc825 = private unnamed_addr constant <{ i8*, [16 x i8] }> <{ i8* getelementptr inbounds (<{ [21 x i8] }>, <{ [21 x i8] }>* @alloc834, i32 0, i32 0, i32 0), [16 x i8] c"\15\00\00\00\00\00\00\00\1B\00\00\00\05\00\00\00" }>, align 8
@alloc827 = private unnamed_addr constant <{ i8*, [16 x i8] }> <{ i8* getelementptr inbounds (<{ [21 x i8] }>, <{ [21 x i8] }>* @alloc834, i32 0, i32 0, i32 0), [16 x i8] c"\15\00\00\00\00\00\00\00)\00\00\00\05\00\00\00" }>, align 8
@alloc829 = private unnamed_addr constant <{ i8*, [16 x i8] }> <{ i8* getelementptr inbounds (<{ [21 x i8] }>, <{ [21 x i8] }>* @alloc834, i32 0, i32 0, i32 0), [16 x i8] c"\15\00\00\00\00\00\00\00*\00\00\00\05\00\00\00" }>, align 8
@alloc831 = private unnamed_addr constant <{ i8*, [16 x i8] }> <{ i8* getelementptr inbounds (<{ [21 x i8] }>, <{ [21 x i8] }>* @alloc834, i32 0, i32 0, i32 0), [16 x i8] c"\15\00\00\00\00\00\00\00:\00\00\00\05\00\00\00" }>, align 8
@alloc833 = private unnamed_addr constant <{ i8*, [16 x i8] }> <{ i8* getelementptr inbounds (<{ [21 x i8] }>, <{ [21 x i8] }>* @alloc834, i32 0, i32 0, i32 0), [16 x i8] c"\15\00\00\00\00\00\00\00;\00\00\00\05\00\00\00" }>, align 8
@alloc835 = private unnamed_addr constant <{ i8*, [16 x i8] }> <{ i8* getelementptr inbounds (<{ [21 x i8] }>, <{ [21 x i8] }>* @alloc834, i32 0, i32 0, i32 0), [16 x i8] c"\15\00\00\00\00\00\00\00<\00\00\00\05\00\00\00" }>, align 8
@alloc840 = private unnamed_addr constant <{ [17 x i8] }> <{ [17 x i8] c"src/test_exprs.rs" }>, align 1
@alloc837 = private unnamed_addr constant <{ i8*, [16 x i8] }> <{ i8* getelementptr inbounds (<{ [17 x i8] }>, <{ [17 x i8] }>* @alloc840, i32 0, i32 0, i32 0), [16 x i8] c"\11\00\00\00\00\00\00\00\16\00\00\00\14\00\00\00" }>, align 8
@alloc839 = private unnamed_addr constant <{ i8*, [16 x i8] }> <{ i8* getelementptr inbounds (<{ [17 x i8] }>, <{ [17 x i8] }>* @alloc840, i32 0, i32 0, i32 0), [16 x i8] c"\11\00\00\00\00\00\00\00\16\00\00\00\1F\00\00\00" }>, align 8
@alloc841 = private unnamed_addr constant <{ i8*, [16 x i8] }> <{ i8* getelementptr inbounds (<{ [17 x i8] }>, <{ [17 x i8] }>* @alloc840, i32 0, i32 0, i32 0), [16 x i8] c"\11\00\00\00\00\00\00\00\16\00\00\00\09\00\00\00" }>, align 8
@alloc32 = private unnamed_addr constant <{ [26 x i8] }> <{ [26 x i8] c"test_sizeofs::test_sizeofs" }>, align 1
@alloc590 = private unnamed_addr constant <{ [1 x i8], [7 x i8], i8*, [8 x i8], [16 x i8], [8 x i8], [8 x i8], [8 x i8], [16 x i8], [4 x i8], [4 x i8], [8 x i8], i8*, [8 x i8] }> <{ [1 x i8] zeroinitializer, [7 x i8] undef, i8* getelementptr inbounds (<{ [26 x i8] }>, <{ [26 x i8] }>* @alloc32, i32 0, i32 0, i32 0), [8 x i8] c"\1A\00\00\00\00\00\00\00", [16 x i8] undef, [8 x i8] zeroinitializer, [8 x i8] undef, [8 x i8] zeroinitializer, [16 x i8] undef, [4 x i8] zeroinitializer, [4 x i8] undef, [8 x i8] zeroinitializer, i8* bitcast (void ()* @_ZN4core3ops8function6FnOnce9call_once17he6cfa5965298963dE to i8*), [8 x i8] undef }>, align 8
@alloc42 = private unnamed_addr constant <{ [31 x i8] }> <{ [31 x i8] c"test_uninitialized::test_buffer" }>, align 1
@alloc591 = private unnamed_addr constant <{ [1 x i8], [7 x i8], i8*, [8 x i8], [16 x i8], [8 x i8], [8 x i8], [8 x i8], [16 x i8], [4 x i8], [4 x i8], [8 x i8], i8*, [8 x i8] }> <{ [1 x i8] zeroinitializer, [7 x i8] undef, i8* getelementptr inbounds (<{ [31 x i8] }>, <{ [31 x i8] }>* @alloc42, i32 0, i32 0, i32 0), [8 x i8] c"\1F\00\00\00\00\00\00\00", [16 x i8] undef, [8 x i8] zeroinitializer, [8 x i8] undef, [8 x i8] zeroinitializer, [16 x i8] undef, [4 x i8] zeroinitializer, [4 x i8] undef, [8 x i8] zeroinitializer, i8* bitcast (void ()* @_ZN4core3ops8function6FnOnce9call_once17h2aaf47d9463627a6E to i8*), [8 x i8] undef }>, align 8
@alloc52 = private unnamed_addr constant <{ [30 x i8] }> <{ [30 x i8] c"test_uninitialized::test_types" }>, align 1
@alloc592 = private unnamed_addr constant <{ [1 x i8], [7 x i8], i8*, [8 x i8], [16 x i8], [8 x i8], [8 x i8], [8 x i8], [16 x i8], [4 x i8], [4 x i8], [8 x i8], i8*, [8 x i8] }> <{ [1 x i8] zeroinitializer, [7 x i8] undef, i8* getelementptr inbounds (<{ [30 x i8] }>, <{ [30 x i8] }>* @alloc52, i32 0, i32 0, i32 0), [8 x i8] c"\1E\00\00\00\00\00\00\00", [16 x i8] undef, [8 x i8] zeroinitializer, [8 x i8] undef, [8 x i8] zeroinitializer, [16 x i8] undef, [4 x i8] zeroinitializer, [4 x i8] undef, [8 x i8] zeroinitializer, i8* bitcast (void ()* @_ZN4core3ops8function6FnOnce9call_once17hffcafe7089bcdb86E to i8*), [8 x i8] undef }>, align 8
@alloc62 = private unnamed_addr constant <{ [26 x i8] }> <{ [26 x i8] c"test_shadowing::test_twice" }>, align 1
@alloc593 = private unnamed_addr constant <{ [1 x i8], [7 x i8], i8*, [8 x i8], [16 x i8], [8 x i8], [8 x i8], [8 x i8], [16 x i8], [4 x i8], [4 x i8], [8 x i8], i8*, [8 x i8] }> <{ [1 x i8] zeroinitializer, [7 x i8] undef, i8* getelementptr inbounds (<{ [26 x i8] }>, <{ [26 x i8] }>* @alloc62, i32 0, i32 0, i32 0), [8 x i8] c"\1A\00\00\00\00\00\00\00", [16 x i8] undef, [8 x i8] zeroinitializer, [8 x i8] undef, [8 x i8] zeroinitializer, [16 x i8] undef, [4 x i8] zeroinitializer, [4 x i8] undef, [8 x i8] zeroinitializer, i8* bitcast (void ()* @_ZN4core3ops8function6FnOnce9call_once17hd4e7d2f2cde61ecfE to i8*), [8 x i8] undef }>, align 8
@alloc72 = private unnamed_addr constant <{ [30 x i8] }> <{ [30 x i8] c"test_shadowing::test_shadowing" }>, align 1
@alloc594 = private unnamed_addr constant <{ [1 x i8], [7 x i8], i8*, [8 x i8], [16 x i8], [8 x i8], [8 x i8], [8 x i8], [16 x i8], [4 x i8], [4 x i8], [8 x i8], i8*, [8 x i8] }> <{ [1 x i8] zeroinitializer, [7 x i8] undef, i8* getelementptr inbounds (<{ [30 x i8] }>, <{ [30 x i8] }>* @alloc72, i32 0, i32 0, i32 0), [8 x i8] c"\1E\00\00\00\00\00\00\00", [16 x i8] undef, [8 x i8] zeroinitializer, [8 x i8] undef, [8 x i8] zeroinitializer, [16 x i8] undef, [4 x i8] zeroinitializer, [4 x i8] undef, [8 x i8] zeroinitializer, i8* bitcast (void ()* @_ZN4core3ops8function6FnOnce9call_once17hf3fbbd19834e62dcE to i8*), [8 x i8] undef }>, align 8
@alloc82 = private unnamed_addr constant <{ [26 x i8] }> <{ [26 x i8] c"test_typedef::test_typedef" }>, align 1
@alloc595 = private unnamed_addr constant <{ [1 x i8], [7 x i8], i8*, [8 x i8], [16 x i8], [8 x i8], [8 x i8], [8 x i8], [16 x i8], [4 x i8], [4 x i8], [8 x i8], i8*, [8 x i8] }> <{ [1 x i8] zeroinitializer, [7 x i8] undef, i8* getelementptr inbounds (<{ [26 x i8] }>, <{ [26 x i8] }>* @alloc82, i32 0, i32 0, i32 0), [8 x i8] c"\1A\00\00\00\00\00\00\00", [16 x i8] undef, [8 x i8] zeroinitializer, [8 x i8] undef, [8 x i8] zeroinitializer, [16 x i8] undef, [4 x i8] zeroinitializer, [4 x i8] undef, [8 x i8] zeroinitializer, i8* bitcast (void ()* @_ZN4core3ops8function6FnOnce9call_once17h469d1cfeae6a1c89E to i8*), [8 x i8] undef }>, align 8
@alloc95 = private unnamed_addr constant <{ [24 x i8] }> <{ [24 x i8] c"test_memory::test_malloc" }>, align 1
@alloc596 = private unnamed_addr constant <{ [1 x i8], [7 x i8], i8*, [8 x i8], [16 x i8], [8 x i8], [8 x i8], [8 x i8], [16 x i8], [4 x i8], [4 x i8], [8 x i8], i8*, [8 x i8] }> <{ [1 x i8] zeroinitializer, [7 x i8] undef, i8* getelementptr inbounds (<{ [24 x i8] }>, <{ [24 x i8] }>* @alloc95, i32 0, i32 0, i32 0), [8 x i8] c"\18\00\00\00\00\00\00\00", [16 x i8] undef, [8 x i8] zeroinitializer, [8 x i8] undef, [8 x i8] zeroinitializer, [16 x i8] undef, [4 x i8] zeroinitializer, [4 x i8] undef, [8 x i8] zeroinitializer, i8* bitcast (void ()* @_ZN4core3ops8function6FnOnce9call_once17hef526dcca281d131E to i8*), [8 x i8] undef }>, align 8
@alloc105 = private unnamed_addr constant <{ [24 x i8] }> <{ [24 x i8] c"test_memory::test_memset" }>, align 1
@alloc597 = private unnamed_addr constant <{ [1 x i8], [7 x i8], i8*, [8 x i8], [16 x i8], [8 x i8], [8 x i8], [8 x i8], [16 x i8], [4 x i8], [4 x i8], [8 x i8], i8*, [8 x i8] }> <{ [1 x i8] zeroinitializer, [7 x i8] undef, i8* getelementptr inbounds (<{ [24 x i8] }>, <{ [24 x i8] }>* @alloc105, i32 0, i32 0, i32 0), [8 x i8] c"\18\00\00\00\00\00\00\00", [16 x i8] undef, [8 x i8] zeroinitializer, [8 x i8] undef, [8 x i8] zeroinitializer, [16 x i8] undef, [4 x i8] zeroinitializer, [4 x i8] undef, [8 x i8] zeroinitializer, i8* bitcast (void ()* @_ZN4core3ops8function6FnOnce9call_once17h674999c85c10c66bE to i8*), [8 x i8] undef }>, align 8
@alloc115 = private unnamed_addr constant <{ [25 x i8] }> <{ [25 x i8] c"test_lvalues::test_lvalue" }>, align 1
@alloc598 = private unnamed_addr constant <{ [1 x i8], [7 x i8], i8*, [8 x i8], [16 x i8], [8 x i8], [8 x i8], [8 x i8], [16 x i8], [4 x i8], [4 x i8], [8 x i8], i8*, [8 x i8] }> <{ [1 x i8] zeroinitializer, [7 x i8] undef, i8* getelementptr inbounds (<{ [25 x i8] }>, <{ [25 x i8] }>* @alloc115, i32 0, i32 0, i32 0), [8 x i8] c"\19\00\00\00\00\00\00\00", [16 x i8] undef, [8 x i8] zeroinitializer, [8 x i8] undef, [8 x i8] zeroinitializer, [16 x i8] undef, [4 x i8] zeroinitializer, [4 x i8] undef, [8 x i8] zeroinitializer, i8* bitcast (void ()* @_ZN4core3ops8function6FnOnce9call_once17hc2838c4de4ab2d20E to i8*), [8 x i8] undef }>, align 8
@alloc125 = private unnamed_addr constant <{ [25 x i8] }> <{ [25 x i8] c"test_quicksort::test_swap" }>, align 1
@alloc599 = private unnamed_addr constant <{ [1 x i8], [7 x i8], i8*, [8 x i8], [16 x i8], [8 x i8], [8 x i8], [8 x i8], [16 x i8], [4 x i8], [4 x i8], [8 x i8], i8*, [8 x i8] }> <{ [1 x i8] zeroinitializer, [7 x i8] undef, i8* getelementptr inbounds (<{ [25 x i8] }>, <{ [25 x i8] }>* @alloc125, i32 0, i32 0, i32 0), [8 x i8] c"\19\00\00\00\00\00\00\00", [16 x i8] undef, [8 x i8] zeroinitializer, [8 x i8] undef, [8 x i8] zeroinitializer, [16 x i8] undef, [4 x i8] zeroinitializer, [4 x i8] undef, [8 x i8] zeroinitializer, i8* bitcast (void ()* @_ZN4core3ops8function6FnOnce9call_once17hd249bbf57cc3d7e7E to i8*), [8 x i8] undef }>, align 8
@alloc135 = private unnamed_addr constant <{ [30 x i8] }> <{ [30 x i8] c"test_quicksort::test_partition" }>, align 1
@alloc600 = private unnamed_addr constant <{ [1 x i8], [7 x i8], i8*, [8 x i8], [16 x i8], [8 x i8], [8 x i8], [8 x i8], [16 x i8], [4 x i8], [4 x i8], [8 x i8], i8*, [8 x i8] }> <{ [1 x i8] zeroinitializer, [7 x i8] undef, i8* getelementptr inbounds (<{ [30 x i8] }>, <{ [30 x i8] }>* @alloc135, i32 0, i32 0, i32 0), [8 x i8] c"\1E\00\00\00\00\00\00\00", [16 x i8] undef, [8 x i8] zeroinitializer, [8 x i8] undef, [8 x i8] zeroinitializer, [16 x i8] undef, [4 x i8] zeroinitializer, [4 x i8] undef, [8 x i8] zeroinitializer, i8* bitcast (void ()* @_ZN4core3ops8function6FnOnce9call_once17hf8231621d30575b0E to i8*), [8 x i8] undef }>, align 8
@alloc145 = private unnamed_addr constant <{ [30 x i8] }> <{ [30 x i8] c"test_quicksort::test_quicksort" }>, align 1
@alloc601 = private unnamed_addr constant <{ [1 x i8], [7 x i8], i8*, [8 x i8], [16 x i8], [8 x i8], [8 x i8], [8 x i8], [16 x i8], [4 x i8], [4 x i8], [8 x i8], i8*, [8 x i8] }> <{ [1 x i8] zeroinitializer, [7 x i8] undef, i8* getelementptr inbounds (<{ [30 x i8] }>, <{ [30 x i8] }>* @alloc145, i32 0, i32 0, i32 0), [8 x i8] c"\1E\00\00\00\00\00\00\00", [16 x i8] undef, [8 x i8] zeroinitializer, [8 x i8] undef, [8 x i8] zeroinitializer, [16 x i8] undef, [4 x i8] zeroinitializer, [4 x i8] undef, [8 x i8] zeroinitializer, i8* bitcast (void ()* @_ZN4core3ops8function6FnOnce9call_once17h3ccad5d1263d321bE to i8*), [8 x i8] undef }>, align 8
@alloc155 = private unnamed_addr constant <{ [22 x i8] }> <{ [22 x i8] c"test_exprs::test_exprs" }>, align 1
@alloc602 = private unnamed_addr constant <{ [1 x i8], [7 x i8], i8*, [8 x i8], [16 x i8], [8 x i8], [8 x i8], [8 x i8], [16 x i8], [4 x i8], [4 x i8], [8 x i8], i8*, [8 x i8] }> <{ [1 x i8] zeroinitializer, [7 x i8] undef, i8* getelementptr inbounds (<{ [22 x i8] }>, <{ [22 x i8] }>* @alloc155, i32 0, i32 0, i32 0), [8 x i8] c"\16\00\00\00\00\00\00\00", [16 x i8] undef, [8 x i8] zeroinitializer, [8 x i8] undef, [8 x i8] zeroinitializer, [16 x i8] undef, [4 x i8] zeroinitializer, [4 x i8] undef, [8 x i8] zeroinitializer, i8* bitcast (void ()* @_ZN4core3ops8function6FnOnce9call_once17h9213feb16ac2742eE to i8*), [8 x i8] undef }>, align 8
@alloc603 = private unnamed_addr constant <{ i8*, i8*, i8*, i8*, i8*, i8*, i8*, i8*, i8*, i8*, i8*, i8*, i8* }> <{ i8* getelementptr inbounds (<{ [1 x i8], [7 x i8], i8*, [8 x i8], [16 x i8], [8 x i8], [8 x i8], [8 x i8], [16 x i8], [4 x i8], [4 x i8], [8 x i8], i8*, [8 x i8] }>, <{ [1 x i8], [7 x i8], i8*, [8 x i8], [16 x i8], [8 x i8], [8 x i8], [8 x i8], [16 x i8], [4 x i8], [4 x i8], [8 x i8], i8*, [8 x i8] }>* @alloc590, i32 0, i32 0, i32 0), i8* getelementptr inbounds (<{ [1 x i8], [7 x i8], i8*, [8 x i8], [16 x i8], [8 x i8], [8 x i8], [8 x i8], [16 x i8], [4 x i8], [4 x i8], [8 x i8], i8*, [8 x i8] }>, <{ [1 x i8], [7 x i8], i8*, [8 x i8], [16 x i8], [8 x i8], [8 x i8], [8 x i8], [16 x i8], [4 x i8], [4 x i8], [8 x i8], i8*, [8 x i8] }>* @alloc591, i32 0, i32 0, i32 0), i8* getelementptr inbounds (<{ [1 x i8], [7 x i8], i8*, [8 x i8], [16 x i8], [8 x i8], [8 x i8], [8 x i8], [16 x i8], [4 x i8], [4 x i8], [8 x i8], i8*, [8 x i8] }>, <{ [1 x i8], [7 x i8], i8*, [8 x i8], [16 x i8], [8 x i8], [8 x i8], [8 x i8], [16 x i8], [4 x i8], [4 x i8], [8 x i8], i8*, [8 x i8] }>* @alloc592, i32 0, i32 0, i32 0), i8* getelementptr inbounds (<{ [1 x i8], [7 x i8], i8*, [8 x i8], [16 x i8], [8 x i8], [8 x i8], [8 x i8], [16 x i8], [4 x i8], [4 x i8], [8 x i8], i8*, [8 x i8] }>, <{ [1 x i8], [7 x i8], i8*, [8 x i8], [16 x i8], [8 x i8], [8 x i8], [8 x i8], [16 x i8], [4 x i8], [4 x i8], [8 x i8], i8*, [8 x i8] }>* @alloc593, i32 0, i32 0, i32 0), i8* getelementptr inbounds (<{ [1 x i8], [7 x i8], i8*, [8 x i8], [16 x i8], [8 x i8], [8 x i8], [8 x i8], [16 x i8], [4 x i8], [4 x i8], [8 x i8], i8*, [8 x i8] }>, <{ [1 x i8], [7 x i8], i8*, [8 x i8], [16 x i8], [8 x i8], [8 x i8], [8 x i8], [16 x i8], [4 x i8], [4 x i8], [8 x i8], i8*, [8 x i8] }>* @alloc594, i32 0, i32 0, i32 0), i8* getelementptr inbounds (<{ [1 x i8], [7 x i8], i8*, [8 x i8], [16 x i8], [8 x i8], [8 x i8], [8 x i8], [16 x i8], [4 x i8], [4 x i8], [8 x i8], i8*, [8 x i8] }>, <{ [1 x i8], [7 x i8], i8*, [8 x i8], [16 x i8], [8 x i8], [8 x i8], [8 x i8], [16 x i8], [4 x i8], [4 x i8], [8 x i8], i8*, [8 x i8] }>* @alloc595, i32 0, i32 0, i32 0), i8* getelementptr inbounds (<{ [1 x i8], [7 x i8], i8*, [8 x i8], [16 x i8], [8 x i8], [8 x i8], [8 x i8], [16 x i8], [4 x i8], [4 x i8], [8 x i8], i8*, [8 x i8] }>, <{ [1 x i8], [7 x i8], i8*, [8 x i8], [16 x i8], [8 x i8], [8 x i8], [8 x i8], [16 x i8], [4 x i8], [4 x i8], [8 x i8], i8*, [8 x i8] }>* @alloc596, i32 0, i32 0, i32 0), i8* getelementptr inbounds (<{ [1 x i8], [7 x i8], i8*, [8 x i8], [16 x i8], [8 x i8], [8 x i8], [8 x i8], [16 x i8], [4 x i8], [4 x i8], [8 x i8], i8*, [8 x i8] }>, <{ [1 x i8], [7 x i8], i8*, [8 x i8], [16 x i8], [8 x i8], [8 x i8], [8 x i8], [16 x i8], [4 x i8], [4 x i8], [8 x i8], i8*, [8 x i8] }>* @alloc597, i32 0, i32 0, i32 0), i8* getelementptr inbounds (<{ [1 x i8], [7 x i8], i8*, [8 x i8], [16 x i8], [8 x i8], [8 x i8], [8 x i8], [16 x i8], [4 x i8], [4 x i8], [8 x i8], i8*, [8 x i8] }>, <{ [1 x i8], [7 x i8], i8*, [8 x i8], [16 x i8], [8 x i8], [8 x i8], [8 x i8], [16 x i8], [4 x i8], [4 x i8], [8 x i8], i8*, [8 x i8] }>* @alloc598, i32 0, i32 0, i32 0), i8* getelementptr inbounds (<{ [1 x i8], [7 x i8], i8*, [8 x i8], [16 x i8], [8 x i8], [8 x i8], [8 x i8], [16 x i8], [4 x i8], [4 x i8], [8 x i8], i8*, [8 x i8] }>, <{ [1 x i8], [7 x i8], i8*, [8 x i8], [16 x i8], [8 x i8], [8 x i8], [8 x i8], [16 x i8], [4 x i8], [4 x i8], [8 x i8], i8*, [8 x i8] }>* @alloc599, i32 0, i32 0, i32 0), i8* getelementptr inbounds (<{ [1 x i8], [7 x i8], i8*, [8 x i8], [16 x i8], [8 x i8], [8 x i8], [8 x i8], [16 x i8], [4 x i8], [4 x i8], [8 x i8], i8*, [8 x i8] }>, <{ [1 x i8], [7 x i8], i8*, [8 x i8], [16 x i8], [8 x i8], [8 x i8], [8 x i8], [16 x i8], [4 x i8], [4 x i8], [8 x i8], i8*, [8 x i8] }>* @alloc600, i32 0, i32 0, i32 0), i8* getelementptr inbounds (<{ [1 x i8], [7 x i8], i8*, [8 x i8], [16 x i8], [8 x i8], [8 x i8], [8 x i8], [16 x i8], [4 x i8], [4 x i8], [8 x i8], i8*, [8 x i8] }>, <{ [1 x i8], [7 x i8], i8*, [8 x i8], [16 x i8], [8 x i8], [8 x i8], [8 x i8], [16 x i8], [4 x i8], [4 x i8], [8 x i8], i8*, [8 x i8] }>* @alloc601, i32 0, i32 0, i32 0), i8* getelementptr inbounds (<{ [1 x i8], [7 x i8], i8*, [8 x i8], [16 x i8], [8 x i8], [8 x i8], [8 x i8], [16 x i8], [4 x i8], [4 x i8], [8 x i8], i8*, [8 x i8] }>, <{ [1 x i8], [7 x i8], i8*, [8 x i8], [16 x i8], [8 x i8], [8 x i8], [8 x i8], [16 x i8], [4 x i8], [4 x i8], [8 x i8], i8*, [8 x i8] }>* @alloc602, i32 0, i32 0, i32 0) }>, align 8
@__rustc_debug_gdb_scripts_section__ = linkonce_odr unnamed_addr constant [34 x i8] c"\01gdb_load_rust_pretty_printers.py\00", section ".debug_gdb_scripts", align 1

; <core::ptr::non_null::NonNull<T> as core::convert::From<core::ptr::unique::Unique<T>>>::from
; Function Attrs: inlinehint nonlazybind uwtable
define internal i8* @"_ZN119_$LT$core..ptr..non_null..NonNull$LT$T$GT$$u20$as$u20$core..convert..From$LT$core..ptr..unique..Unique$LT$T$GT$$GT$$GT$4from17h8102e8b4a9951160E"(i8* %unique) unnamed_addr #0 !dbg !216 {
start:
  %ptr.dbg.spill = alloca i8*, align 8
  %self.dbg.spill1 = alloca i8*, align 8
  %self.dbg.spill = alloca i8*, align 8
  %unique.dbg.spill = alloca i8*, align 8
  %0 = alloca i8*, align 8
  store i8* %unique, i8** %unique.dbg.spill, align 8
  call void @llvm.dbg.declare(metadata i8** %unique.dbg.spill, metadata !237, metadata !DIExpression()), !dbg !238
  store i8* %unique, i8** %self.dbg.spill, align 8, !dbg !239
  call void @llvm.dbg.declare(metadata i8** %self.dbg.spill, metadata !240, metadata !DIExpression()), !dbg !248
  store i8* %unique, i8** %self.dbg.spill1, align 8, !dbg !248
  call void @llvm.dbg.declare(metadata i8** %self.dbg.spill1, metadata !249, metadata !DIExpression()), !dbg !254
  store i8* %unique, i8** %ptr.dbg.spill, align 8, !dbg !254
  call void @llvm.dbg.declare(metadata i8** %ptr.dbg.spill, metadata !256, metadata !DIExpression()), !dbg !261
  store i8* %unique, i8** %0, align 8, !dbg !261
  %1 = load i8*, i8** %0, align 8, !dbg !263, !nonnull !23, !noundef !23
  ret i8* %1, !dbg !263
}

; <alloc::collections::TryReserveError as core::convert::From<alloc::collections::TryReserveErrorKind>>::from
; Function Attrs: inlinehint nonlazybind uwtable
define internal { i64, i64 } @"_ZN122_$LT$alloc..collections..TryReserveError$u20$as$u20$core..convert..From$LT$alloc..collections..TryReserveErrorKind$GT$$GT$4from17hf590d0dc0bf2911aE"(i64 %kind.0, i64 %kind.1) unnamed_addr #0 !dbg !264 {
start:
  %kind.dbg.spill = alloca { i64, i64 }, align 8
  %0 = alloca { i64, i64 }, align 8
  %1 = getelementptr inbounds { i64, i64 }, { i64, i64 }* %kind.dbg.spill, i32 0, i32 0
  store i64 %kind.0, i64* %1, align 8
  %2 = getelementptr inbounds { i64, i64 }, { i64, i64 }* %kind.dbg.spill, i32 0, i32 1
  store i64 %kind.1, i64* %2, align 8
  call void @llvm.dbg.declare(metadata { i64, i64 }* %kind.dbg.spill, metadata !295, metadata !DIExpression()), !dbg !296
  %3 = getelementptr inbounds { i64, i64 }, { i64, i64 }* %0, i32 0, i32 0, !dbg !297
  store i64 %kind.0, i64* %3, align 8, !dbg !297
  %4 = getelementptr inbounds { i64, i64 }, { i64, i64 }* %0, i32 0, i32 1, !dbg !297
  store i64 %kind.1, i64* %4, align 8, !dbg !297
  %5 = getelementptr inbounds { i64, i64 }, { i64, i64 }* %0, i32 0, i32 0, !dbg !298
  %6 = load i64, i64* %5, align 8, !dbg !298
  %7 = getelementptr inbounds { i64, i64 }, { i64, i64 }* %0, i32 0, i32 1, !dbg !298
  %8 = load i64, i64* %7, align 8, !dbg !298, !range !299, !noundef !23
  %9 = insertvalue { i64, i64 } undef, i64 %6, 0, !dbg !298
  %10 = insertvalue { i64, i64 } %9, i64 %8, 1, !dbg !298
  ret { i64, i64 } %10, !dbg !298
}

; std::sys_common::backtrace::__rust_begin_short_backtrace
; Function Attrs: noinline nonlazybind uwtable
define internal void @_ZN3std10sys_common9backtrace28__rust_begin_short_backtrace17h11418466094ac077E(void ()* %f) unnamed_addr #1 personality i32 (i32, i32, i64, %"unwind::libunwind::_Unwind_Exception"*, %"unwind::libunwind::_Unwind_Context"*)* @rust_eh_personality !dbg !300 {
start:
  %0 = alloca { i8*, i32 }, align 8
  %dummy.dbg.spill = alloca {}, align 1
  %f.dbg.spill = alloca void ()*, align 8
  %result.dbg.spill = alloca {}, align 1
  call void @llvm.dbg.declare(metadata {}* %result.dbg.spill, metadata !308, metadata !DIExpression()), !dbg !313
  store void ()* %f, void ()** %f.dbg.spill, align 8
  call void @llvm.dbg.declare(metadata void ()** %f.dbg.spill, metadata !307, metadata !DIExpression()), !dbg !314
  call void @llvm.dbg.declare(metadata {}* %dummy.dbg.spill, metadata !315, metadata !DIExpression()), !dbg !324
; call core::ops::function::FnOnce::call_once
  call void @_ZN4core3ops8function6FnOnce9call_once17hcb538e4adf9693b7E(void ()* %f), !dbg !326
  br label %bb1, !dbg !326

bb1:                                              ; preds = %start
  call void asm sideeffect "", "r,~{memory}"({}* undef), !dbg !324, !srcloc !327
  br label %bb4, !dbg !324

bb4:                                              ; preds = %bb1
  ret void, !dbg !328

bb2:                                              ; No predecessors!
  br label %bb3, !dbg !329

bb3:                                              ; preds = %bb2
  %1 = bitcast { i8*, i32 }* %0 to i8**, !dbg !330
  %2 = load i8*, i8** %1, align 8, !dbg !330
  %3 = getelementptr inbounds { i8*, i32 }, { i8*, i32 }* %0, i32 0, i32 1, !dbg !330
  %4 = load i32, i32* %3, align 8, !dbg !330
  %5 = insertvalue { i8*, i32 } undef, i8* %2, 0, !dbg !330
  %6 = insertvalue { i8*, i32 } %5, i32 %4, 1, !dbg !330
  resume { i8*, i32 } %6, !dbg !330
}

; std::rt::lang_start
; Function Attrs: nonlazybind uwtable
define hidden i64 @_ZN3std2rt10lang_start17hc5c05a1a5be45ca5E(void ()* %main, i64 %argc, i8** %argv) unnamed_addr #2 !dbg !331 {
start:
  %v.dbg.spill = alloca i64, align 8
  %argv.dbg.spill = alloca i8**, align 8
  %argc.dbg.spill = alloca i64, align 8
  %main.dbg.spill = alloca void ()*, align 8
  %_8 = alloca i64*, align 8
  %_4 = alloca i64, align 8
  store void ()* %main, void ()** %main.dbg.spill, align 8
  call void @llvm.dbg.declare(metadata void ()** %main.dbg.spill, metadata !338, metadata !DIExpression()), !dbg !343
  store i64 %argc, i64* %argc.dbg.spill, align 8
  call void @llvm.dbg.declare(metadata i64* %argc.dbg.spill, metadata !339, metadata !DIExpression()), !dbg !344
  store i8** %argv, i8*** %argv.dbg.spill, align 8
  call void @llvm.dbg.declare(metadata i8*** %argv.dbg.spill, metadata !340, metadata !DIExpression()), !dbg !345
  %0 = bitcast i64** %_8 to void ()**, !dbg !346
  store void ()* %main, void ()** %0, align 8, !dbg !346
  %_5.0 = bitcast i64** %_8 to {}*, !dbg !347
; call std::rt::lang_start_internal
  %1 = call i64 @_ZN3std2rt19lang_start_internal17h498f9556b87c8e5fE({}* align 1 %_5.0, [3 x i64]* align 8 bitcast (<{ i8*, [16 x i8], i8*, i8*, i8* }>* @vtable.0 to [3 x i64]*), i64 %argc, i8** %argv), !dbg !348
  store i64 %1, i64* %_4, align 8, !dbg !348
  br label %bb1, !dbg !348

bb1:                                              ; preds = %start
  %v = load i64, i64* %_4, align 8, !dbg !349
  store i64 %v, i64* %v.dbg.spill, align 8, !dbg !349
  call void @llvm.dbg.declare(metadata i64* %v.dbg.spill, metadata !341, metadata !DIExpression()), !dbg !350
  ret i64 %v, !dbg !351
}

; std::rt::lang_start::{{closure}}
; Function Attrs: inlinehint nonlazybind uwtable
define internal i32 @"_ZN3std2rt10lang_start28_$u7b$$u7b$closure$u7d$$u7d$17h9976755c369c8586E"(i64** align 8 %_1) unnamed_addr #0 !dbg !352 {
start:
  %self.dbg.spill = alloca i8*, align 8
  %_1.dbg.spill = alloca i64**, align 8
  %self = alloca i8, align 1
  store i64** %_1, i64*** %_1.dbg.spill, align 8
  %0 = load i64**, i64*** %_1.dbg.spill, align 8, !nonnull !23, !align !358, !noundef !23
  %1 = bitcast i64** %0 to void ()**
  call void @llvm.dbg.declare(metadata i64*** %_1.dbg.spill, metadata !357, metadata !DIExpression(DW_OP_deref)), !dbg !359
  call void @llvm.dbg.declare(metadata i8* %self, metadata !360, metadata !DIExpression()), !dbg !378
  %2 = bitcast i64** %_1 to void ()**, !dbg !380
  %_4 = load void ()*, void ()** %2, align 8, !dbg !380, !nonnull !23, !noundef !23
; call std::sys_common::backtrace::__rust_begin_short_backtrace
  call void @_ZN3std10sys_common9backtrace28__rust_begin_short_backtrace17h11418466094ac077E(void ()* %_4), !dbg !379
  br label %bb1, !dbg !379

bb1:                                              ; preds = %start
; call <() as std::process::Termination>::report
  %3 = call i8 @"_ZN54_$LT$$LP$$RP$$u20$as$u20$std..process..Termination$GT$6report17hcfdf933bfc0960b4E"(), !dbg !379
  store i8 %3, i8* %self, align 1, !dbg !379
  br label %bb2, !dbg !379

bb2:                                              ; preds = %bb1
  store i8* %self, i8** %self.dbg.spill, align 8, !dbg !378
  call void @llvm.dbg.declare(metadata i8** %self.dbg.spill, metadata !381, metadata !DIExpression()), !dbg !389
  %_6 = load i8, i8* %self, align 1, !dbg !389
  %4 = zext i8 %_6 to i32, !dbg !389
  ret i32 %4, !dbg !391
}

; <&T as core::fmt::Debug>::fmt
; Function Attrs: nonlazybind uwtable
define internal zeroext i1 @"_ZN42_$LT$$RF$T$u20$as$u20$core..fmt..Debug$GT$3fmt17h133358f10bce4bc6E"([1 x i32]** align 8 %self, %"core::fmt::Formatter"* align 8 %f) unnamed_addr #2 !dbg !392 {
start:
  %f.dbg.spill = alloca %"core::fmt::Formatter"*, align 8
  %self.dbg.spill = alloca [1 x i32]**, align 8
  store [1 x i32]** %self, [1 x i32]*** %self.dbg.spill, align 8
  call void @llvm.dbg.declare(metadata [1 x i32]*** %self.dbg.spill, metadata !449, metadata !DIExpression()), !dbg !453
  store %"core::fmt::Formatter"* %f, %"core::fmt::Formatter"** %f.dbg.spill, align 8
  call void @llvm.dbg.declare(metadata %"core::fmt::Formatter"** %f.dbg.spill, metadata !450, metadata !DIExpression()), !dbg !454
  %_6 = load [1 x i32]*, [1 x i32]** %self, align 8, !dbg !455, !nonnull !23, !align !456, !noundef !23
; call core::array::<impl core::fmt::Debug for [T; N]>::fmt
  %0 = call zeroext i1 @"_ZN4core5array69_$LT$impl$u20$core..fmt..Debug$u20$for$u20$$u5b$T$u3b$$u20$N$u5d$$GT$3fmt17h053978c79cf2d9e5E"([1 x i32]* align 4 %_6, %"core::fmt::Formatter"* align 8 %f), !dbg !457
  br label %bb1, !dbg !457

bb1:                                              ; preds = %start
  ret i1 %0, !dbg !458
}

; <&T as core::fmt::Debug>::fmt
; Function Attrs: nonlazybind uwtable
define internal zeroext i1 @"_ZN42_$LT$$RF$T$u20$as$u20$core..fmt..Debug$GT$3fmt17h325bf7e19275887aE"(i32** align 8 %self, %"core::fmt::Formatter"* align 8 %f) unnamed_addr #2 !dbg !459 {
start:
  %f.dbg.spill = alloca %"core::fmt::Formatter"*, align 8
  %self.dbg.spill = alloca i32**, align 8
  store i32** %self, i32*** %self.dbg.spill, align 8
  call void @llvm.dbg.declare(metadata i32*** %self.dbg.spill, metadata !464, metadata !DIExpression()), !dbg !468
  store %"core::fmt::Formatter"* %f, %"core::fmt::Formatter"** %f.dbg.spill, align 8
  call void @llvm.dbg.declare(metadata %"core::fmt::Formatter"** %f.dbg.spill, metadata !465, metadata !DIExpression()), !dbg !469
  %_6 = load i32*, i32** %self, align 8, !dbg !470, !nonnull !23, !align !456, !noundef !23
; call core::fmt::num::<impl core::fmt::Debug for i32>::fmt
  %0 = call zeroext i1 @"_ZN4core3fmt3num50_$LT$impl$u20$core..fmt..Debug$u20$for$u20$i32$GT$3fmt17hf0d3aeeaba475001E"(i32* align 4 %_6, %"core::fmt::Formatter"* align 8 %f), !dbg !471
  br label %bb1, !dbg !471

bb1:                                              ; preds = %start
  ret i1 %0, !dbg !472
}

; <&T as core::fmt::Debug>::fmt
; Function Attrs: nonlazybind uwtable
define internal zeroext i1 @"_ZN42_$LT$$RF$T$u20$as$u20$core..fmt..Debug$GT$3fmt17h588532a1b3e46bfcE"([3 x i32]** align 8 %self, %"core::fmt::Formatter"* align 8 %f) unnamed_addr #2 !dbg !473 {
start:
  %f.dbg.spill = alloca %"core::fmt::Formatter"*, align 8
  %self.dbg.spill = alloca [3 x i32]**, align 8
  store [3 x i32]** %self, [3 x i32]*** %self.dbg.spill, align 8
  call void @llvm.dbg.declare(metadata [3 x i32]*** %self.dbg.spill, metadata !478, metadata !DIExpression()), !dbg !482
  store %"core::fmt::Formatter"* %f, %"core::fmt::Formatter"** %f.dbg.spill, align 8
  call void @llvm.dbg.declare(metadata %"core::fmt::Formatter"** %f.dbg.spill, metadata !479, metadata !DIExpression()), !dbg !483
  %_6 = load [3 x i32]*, [3 x i32]** %self, align 8, !dbg !484, !nonnull !23, !align !456, !noundef !23
; call core::array::<impl core::fmt::Debug for [T; N]>::fmt
  %0 = call zeroext i1 @"_ZN4core5array69_$LT$impl$u20$core..fmt..Debug$u20$for$u20$$u5b$T$u3b$$u20$N$u5d$$GT$3fmt17h6cf5eec818869c0cE"([3 x i32]* align 4 %_6, %"core::fmt::Formatter"* align 8 %f), !dbg !485
  br label %bb1, !dbg !485

bb1:                                              ; preds = %start
  ret i1 %0, !dbg !486
}

; <&T as core::fmt::Debug>::fmt
; Function Attrs: nonlazybind uwtable
define internal zeroext i1 @"_ZN42_$LT$$RF$T$u20$as$u20$core..fmt..Debug$GT$3fmt17h70f892cf23d84968E"({}** align 8 %self, %"core::fmt::Formatter"* align 8 %f) unnamed_addr #2 !dbg !487 {
start:
  %f.dbg.spill = alloca %"core::fmt::Formatter"*, align 8
  %self.dbg.spill = alloca {}**, align 8
  store {}** %self, {}*** %self.dbg.spill, align 8
  call void @llvm.dbg.declare(metadata {}*** %self.dbg.spill, metadata !492, metadata !DIExpression()), !dbg !494
  store %"core::fmt::Formatter"* %f, %"core::fmt::Formatter"** %f.dbg.spill, align 8
  call void @llvm.dbg.declare(metadata %"core::fmt::Formatter"** %f.dbg.spill, metadata !493, metadata !DIExpression()), !dbg !495
  %_6 = load {}*, {}** %self, align 8, !dbg !496, !nonnull !23, !align !497, !noundef !23
; call <() as core::fmt::Debug>::fmt
  %0 = call zeroext i1 @"_ZN45_$LT$$LP$$RP$$u20$as$u20$core..fmt..Debug$GT$3fmt17hcd3e8f8771e87a4cE"({}* align 1 %_6, %"core::fmt::Formatter"* align 8 %f), !dbg !498
  br label %bb1, !dbg !498

bb1:                                              ; preds = %start
  ret i1 %0, !dbg !499
}

; <&T as core::fmt::Debug>::fmt
; Function Attrs: nonlazybind uwtable
define internal zeroext i1 @"_ZN42_$LT$$RF$T$u20$as$u20$core..fmt..Debug$GT$3fmt17h8453208e0de1799fE"([10 x i32]** align 8 %self, %"core::fmt::Formatter"* align 8 %f) unnamed_addr #2 !dbg !500 {
start:
  %f.dbg.spill = alloca %"core::fmt::Formatter"*, align 8
  %self.dbg.spill = alloca [10 x i32]**, align 8
  store [10 x i32]** %self, [10 x i32]*** %self.dbg.spill, align 8
  call void @llvm.dbg.declare(metadata [10 x i32]*** %self.dbg.spill, metadata !505, metadata !DIExpression()), !dbg !509
  store %"core::fmt::Formatter"* %f, %"core::fmt::Formatter"** %f.dbg.spill, align 8
  call void @llvm.dbg.declare(metadata %"core::fmt::Formatter"** %f.dbg.spill, metadata !506, metadata !DIExpression()), !dbg !510
  %_6 = load [10 x i32]*, [10 x i32]** %self, align 8, !dbg !511, !nonnull !23, !align !456, !noundef !23
; call core::array::<impl core::fmt::Debug for [T; N]>::fmt
  %0 = call zeroext i1 @"_ZN4core5array69_$LT$impl$u20$core..fmt..Debug$u20$for$u20$$u5b$T$u3b$$u20$N$u5d$$GT$3fmt17h4b00c9e669529a7dE"([10 x i32]* align 4 %_6, %"core::fmt::Formatter"* align 8 %f), !dbg !512
  br label %bb1, !dbg !512

bb1:                                              ; preds = %start
  ret i1 %0, !dbg !513
}

; <&T as core::fmt::Debug>::fmt
; Function Attrs: nonlazybind uwtable
define internal zeroext i1 @"_ZN42_$LT$$RF$T$u20$as$u20$core..fmt..Debug$GT$3fmt17ha853fb7d2d322f68E"([6 x i32]** align 8 %self, %"core::fmt::Formatter"* align 8 %f) unnamed_addr #2 !dbg !514 {
start:
  %f.dbg.spill = alloca %"core::fmt::Formatter"*, align 8
  %self.dbg.spill = alloca [6 x i32]**, align 8
  store [6 x i32]** %self, [6 x i32]*** %self.dbg.spill, align 8
  call void @llvm.dbg.declare(metadata [6 x i32]*** %self.dbg.spill, metadata !519, metadata !DIExpression()), !dbg !523
  store %"core::fmt::Formatter"* %f, %"core::fmt::Formatter"** %f.dbg.spill, align 8
  call void @llvm.dbg.declare(metadata %"core::fmt::Formatter"** %f.dbg.spill, metadata !520, metadata !DIExpression()), !dbg !524
  %_6 = load [6 x i32]*, [6 x i32]** %self, align 8, !dbg !525, !nonnull !23, !align !456, !noundef !23
; call core::array::<impl core::fmt::Debug for [T; N]>::fmt
  %0 = call zeroext i1 @"_ZN4core5array69_$LT$impl$u20$core..fmt..Debug$u20$for$u20$$u5b$T$u3b$$u20$N$u5d$$GT$3fmt17hee4abddf1f13537bE"([6 x i32]* align 4 %_6, %"core::fmt::Formatter"* align 8 %f), !dbg !526
  br label %bb1, !dbg !526

bb1:                                              ; preds = %start
  ret i1 %0, !dbg !527
}

; <&T as core::fmt::Debug>::fmt
; Function Attrs: nonlazybind uwtable
define internal zeroext i1 @"_ZN42_$LT$$RF$T$u20$as$u20$core..fmt..Debug$GT$3fmt17hb4053abcc1bbde9bE"([5 x i32]** align 8 %self, %"core::fmt::Formatter"* align 8 %f) unnamed_addr #2 !dbg !528 {
start:
  %f.dbg.spill = alloca %"core::fmt::Formatter"*, align 8
  %self.dbg.spill = alloca [5 x i32]**, align 8
  store [5 x i32]** %self, [5 x i32]*** %self.dbg.spill, align 8
  call void @llvm.dbg.declare(metadata [5 x i32]*** %self.dbg.spill, metadata !533, metadata !DIExpression()), !dbg !537
  store %"core::fmt::Formatter"* %f, %"core::fmt::Formatter"** %f.dbg.spill, align 8
  call void @llvm.dbg.declare(metadata %"core::fmt::Formatter"** %f.dbg.spill, metadata !534, metadata !DIExpression()), !dbg !538
  %_6 = load [5 x i32]*, [5 x i32]** %self, align 8, !dbg !539, !nonnull !23, !align !456, !noundef !23
; call core::array::<impl core::fmt::Debug for [T; N]>::fmt
  %0 = call zeroext i1 @"_ZN4core5array69_$LT$impl$u20$core..fmt..Debug$u20$for$u20$$u5b$T$u3b$$u20$N$u5d$$GT$3fmt17hcfda82f1da1c4c29E"([5 x i32]* align 4 %_6, %"core::fmt::Formatter"* align 8 %f), !dbg !540
  br label %bb1, !dbg !540

bb1:                                              ; preds = %start
  ret i1 %0, !dbg !541
}

; <&T as core::fmt::Debug>::fmt
; Function Attrs: nonlazybind uwtable
define internal zeroext i1 @"_ZN42_$LT$$RF$T$u20$as$u20$core..fmt..Debug$GT$3fmt17hfef8a23a17576969E"({ [0 x i32]*, i64 }* align 8 %self, %"core::fmt::Formatter"* align 8 %f) unnamed_addr #2 !dbg !542 {
start:
  %f.dbg.spill = alloca %"core::fmt::Formatter"*, align 8
  %self.dbg.spill = alloca { [0 x i32]*, i64 }*, align 8
  store { [0 x i32]*, i64 }* %self, { [0 x i32]*, i64 }** %self.dbg.spill, align 8
  call void @llvm.dbg.declare(metadata { [0 x i32]*, i64 }** %self.dbg.spill, metadata !552, metadata !DIExpression()), !dbg !554
  store %"core::fmt::Formatter"* %f, %"core::fmt::Formatter"** %f.dbg.spill, align 8
  call void @llvm.dbg.declare(metadata %"core::fmt::Formatter"** %f.dbg.spill, metadata !553, metadata !DIExpression()), !dbg !555
  %0 = getelementptr inbounds { [0 x i32]*, i64 }, { [0 x i32]*, i64 }* %self, i32 0, i32 0, !dbg !556
  %_6.0 = load [0 x i32]*, [0 x i32]** %0, align 8, !dbg !556, !nonnull !23, !align !456, !noundef !23
  %1 = getelementptr inbounds { [0 x i32]*, i64 }, { [0 x i32]*, i64 }* %self, i32 0, i32 1, !dbg !556
  %_6.1 = load i64, i64* %1, align 8, !dbg !556
; call <[T] as core::fmt::Debug>::fmt
  %2 = call zeroext i1 @"_ZN48_$LT$$u5b$T$u5d$$u20$as$u20$core..fmt..Debug$GT$3fmt17hf1ad82ba7d10e26aE"([0 x i32]* align 4 %_6.0, i64 %_6.1, %"core::fmt::Formatter"* align 8 %f), !dbg !557
  br label %bb1, !dbg !557

bb1:                                              ; preds = %start
  ret i1 %2, !dbg !558
}

; <() as core::fmt::Debug>::fmt
; Function Attrs: inlinehint nonlazybind uwtable
define internal zeroext i1 @"_ZN45_$LT$$LP$$RP$$u20$as$u20$core..fmt..Debug$GT$3fmt17hcd3e8f8771e87a4cE"({}* align 1 %self, %"core::fmt::Formatter"* align 8 %f) unnamed_addr #0 !dbg !559 {
start:
  %f.dbg.spill = alloca %"core::fmt::Formatter"*, align 8
  %self.dbg.spill = alloca {}*, align 8
  store {}* %self, {}** %self.dbg.spill, align 8
  call void @llvm.dbg.declare(metadata {}** %self.dbg.spill, metadata !564, metadata !DIExpression()), !dbg !566
  store %"core::fmt::Formatter"* %f, %"core::fmt::Formatter"** %f.dbg.spill, align 8
  call void @llvm.dbg.declare(metadata %"core::fmt::Formatter"** %f.dbg.spill, metadata !565, metadata !DIExpression()), !dbg !567
; call core::fmt::Formatter::pad
  %0 = call zeroext i1 @_ZN4core3fmt9Formatter3pad17h6f4380cf598a2e03E(%"core::fmt::Formatter"* align 8 %f, [0 x i8]* align 1 bitcast (<{ [2 x i8] }>* @alloc694 to [0 x i8]*), i64 2), !dbg !568
  br label %bb1, !dbg !568

bb1:                                              ; preds = %start
  ret i1 %0, !dbg !569
}

; <i32 as core::iter::range::Step>::forward_unchecked
; Function Attrs: inlinehint nonlazybind uwtable
define internal i32 @"_ZN47_$LT$i32$u20$as$u20$core..iter..range..Step$GT$17forward_unchecked17h07e2e83ce07bcf79E"(i32 %start1, i64 %n) unnamed_addr #0 !dbg !570 {
start:
  %0 = alloca i32, align 4
  %rhs.dbg.spill = alloca i32, align 4
  %self.dbg.spill = alloca i32, align 4
  %n.dbg.spill = alloca i64, align 8
  %start.dbg.spill = alloca i32, align 4
  store i32 %start1, i32* %start.dbg.spill, align 4
  call void @llvm.dbg.declare(metadata i32* %start.dbg.spill, metadata !578, metadata !DIExpression()), !dbg !580
  store i64 %n, i64* %n.dbg.spill, align 8
  call void @llvm.dbg.declare(metadata i64* %n.dbg.spill, metadata !579, metadata !DIExpression()), !dbg !581
  store i32 %start1, i32* %self.dbg.spill, align 4, !dbg !582
  call void @llvm.dbg.declare(metadata i32* %self.dbg.spill, metadata !583, metadata !DIExpression()), !dbg !593
  %rhs = trunc i64 %n to i32, !dbg !594
  store i32 %rhs, i32* %rhs.dbg.spill, align 4, !dbg !594
  call void @llvm.dbg.declare(metadata i32* %rhs.dbg.spill, metadata !592, metadata !DIExpression()), !dbg !593
  %1 = add nsw i32 %start1, %rhs, !dbg !593
  store i32 %1, i32* %0, align 4, !dbg !593
  %2 = load i32, i32* %0, align 4, !dbg !593
  br label %bb1, !dbg !593

bb1:                                              ; preds = %start
  ret i32 %2, !dbg !595
}

; <[T] as core::fmt::Debug>::fmt
; Function Attrs: nonlazybind uwtable
define internal zeroext i1 @"_ZN48_$LT$$u5b$T$u5d$$u20$as$u20$core..fmt..Debug$GT$3fmt17hf1ad82ba7d10e26aE"([0 x i32]* align 4 %self.0, i64 %self.1, %"core::fmt::Formatter"* align 8 %f) unnamed_addr #2 !dbg !596 {
start:
  %self.dbg.spill1 = alloca { [0 x i32]*, i64 }, align 8
  %f.dbg.spill = alloca %"core::fmt::Formatter"*, align 8
  %self.dbg.spill = alloca { [0 x i32]*, i64 }, align 8
  %_6 = alloca %"core::fmt::builders::DebugList", align 8
  %0 = getelementptr inbounds { [0 x i32]*, i64 }, { [0 x i32]*, i64 }* %self.dbg.spill, i32 0, i32 0
  store [0 x i32]* %self.0, [0 x i32]** %0, align 8
  %1 = getelementptr inbounds { [0 x i32]*, i64 }, { [0 x i32]*, i64 }* %self.dbg.spill, i32 0, i32 1
  store i64 %self.1, i64* %1, align 8
  call void @llvm.dbg.declare(metadata { [0 x i32]*, i64 }* %self.dbg.spill, metadata !601, metadata !DIExpression()), !dbg !603
  store %"core::fmt::Formatter"* %f, %"core::fmt::Formatter"** %f.dbg.spill, align 8
  call void @llvm.dbg.declare(metadata %"core::fmt::Formatter"** %f.dbg.spill, metadata !602, metadata !DIExpression()), !dbg !604
; call core::fmt::Formatter::debug_list
  call void @_ZN4core3fmt9Formatter10debug_list17h2e70d1c34e8cb782E(%"core::fmt::builders::DebugList"* sret(%"core::fmt::builders::DebugList") %_6, %"core::fmt::Formatter"* align 8 %f), !dbg !605
  br label %bb1, !dbg !605

bb1:                                              ; preds = %start
  %2 = getelementptr inbounds { [0 x i32]*, i64 }, { [0 x i32]*, i64 }* %self.dbg.spill1, i32 0, i32 0, !dbg !606
  store [0 x i32]* %self.0, [0 x i32]** %2, align 8, !dbg !606
  %3 = getelementptr inbounds { [0 x i32]*, i64 }, { [0 x i32]*, i64 }* %self.dbg.spill1, i32 0, i32 1, !dbg !606
  store i64 %self.1, i64* %3, align 8, !dbg !606
  call void @llvm.dbg.declare(metadata { [0 x i32]*, i64 }* %self.dbg.spill1, metadata !607, metadata !DIExpression()), !dbg !629
; call core::slice::iter::Iter<T>::new
  %4 = call { i32*, i32* } @"_ZN4core5slice4iter13Iter$LT$T$GT$3new17hc8f477891223844fE"([0 x i32]* align 4 %self.0, i64 %self.1), !dbg !629
  %_8.0 = extractvalue { i32*, i32* } %4, 0, !dbg !629
  %_8.1 = extractvalue { i32*, i32* } %4, 1, !dbg !629
  br label %bb4, !dbg !629

bb4:                                              ; preds = %bb1
; call core::fmt::builders::DebugList::entries
  %_4 = call align 8 %"core::fmt::builders::DebugList"* @_ZN4core3fmt8builders9DebugList7entries17he033867fae65c462E(%"core::fmt::builders::DebugList"* align 8 %_6, i32* %_8.0, i32* %_8.1), !dbg !605
  br label %bb2, !dbg !605

bb2:                                              ; preds = %bb4
; call core::fmt::builders::DebugList::finish
  %5 = call zeroext i1 @_ZN4core3fmt8builders9DebugList6finish17ha896c0aa3642bf32E(%"core::fmt::builders::DebugList"* align 8 %_4), !dbg !605
  br label %bb3, !dbg !605

bb3:                                              ; preds = %bb2
  ret i1 %5, !dbg !630
}

; <T as core::array::SpecArrayClone>::clone
; Function Attrs: inlinehint nonlazybind uwtable
define internal void @"_ZN49_$LT$T$u20$as$u20$core..array..SpecArrayClone$GT$5clone17h07d9554687c29659E"([4 x i32]* sret([4 x i32]) %0, [4 x i32]* align 4 %array) unnamed_addr #0 !dbg !631 {
start:
  %array.dbg.spill = alloca [4 x i32]*, align 8
  store [4 x i32]* %array, [4 x i32]** %array.dbg.spill, align 8
  call void @llvm.dbg.declare(metadata [4 x i32]** %array.dbg.spill, metadata !642, metadata !DIExpression()), !dbg !643
  %1 = bitcast [4 x i32]* %0 to i8*, !dbg !644
  %2 = bitcast [4 x i32]* %array to i8*, !dbg !644
  call void @llvm.memcpy.p0i8.p0i8.i64(i8* align 4 %1, i8* align 4 %2, i64 16, i1 false), !dbg !644
  ret void, !dbg !645
}

; <usize as core::iter::range::Step>::forward_unchecked
; Function Attrs: inlinehint nonlazybind uwtable
define internal i64 @"_ZN49_$LT$usize$u20$as$u20$core..iter..range..Step$GT$17forward_unchecked17h59e7e956e21d8993E"(i64 %start1, i64 %n) unnamed_addr #0 !dbg !646 {
start:
  %0 = alloca i64, align 8
  %rhs.dbg.spill = alloca i64, align 8
  %self.dbg.spill = alloca i64, align 8
  %n.dbg.spill = alloca i64, align 8
  %start.dbg.spill = alloca i64, align 8
  store i64 %start1, i64* %start.dbg.spill, align 8
  call void @llvm.dbg.declare(metadata i64* %start.dbg.spill, metadata !651, metadata !DIExpression()), !dbg !653
  store i64 %n, i64* %n.dbg.spill, align 8
  call void @llvm.dbg.declare(metadata i64* %n.dbg.spill, metadata !652, metadata !DIExpression()), !dbg !654
  store i64 %start1, i64* %self.dbg.spill, align 8, !dbg !655
  call void @llvm.dbg.declare(metadata i64* %self.dbg.spill, metadata !656, metadata !DIExpression()), !dbg !663
  store i64 %n, i64* %rhs.dbg.spill, align 8, !dbg !664
  call void @llvm.dbg.declare(metadata i64* %rhs.dbg.spill, metadata !662, metadata !DIExpression()), !dbg !663
  %1 = add nuw i64 %start1, %n, !dbg !663
  store i64 %1, i64* %0, align 8, !dbg !663
  %2 = load i64, i64* %0, align 8, !dbg !663
  br label %bb1, !dbg !663

bb1:                                              ; preds = %start
  ret i64 %2, !dbg !665
}

; core::cmp::Ord::max
; Function Attrs: inlinehint nonlazybind uwtable
define internal i64 @_ZN4core3cmp3Ord3max17hb944eef8168f423aE(i64 %0, i64 %1) unnamed_addr #0 personality i32 (i32, i32, i64, %"unwind::libunwind::_Unwind_Exception"*, %"unwind::libunwind::_Unwind_Context"*)* @rust_eh_personality !dbg !666 {
start:
  %2 = alloca { i8*, i32 }, align 8
  %_9 = alloca i8, align 1
  %_8 = alloca i8, align 1
  %_3 = alloca i8, align 1
  %3 = alloca i64, align 8
  %other = alloca i64, align 8
  %self = alloca i64, align 8
  store i64 %0, i64* %self, align 8
  store i64 %1, i64* %other, align 8
  call void @llvm.dbg.declare(metadata i64* %self, metadata !670, metadata !DIExpression()), !dbg !674
  call void @llvm.dbg.declare(metadata i64* %other, metadata !671, metadata !DIExpression()), !dbg !675
  store i8 1, i8* %_9, align 1, !dbg !676
  store i8 1, i8* %_8, align 1, !dbg !676
; invoke core::cmp::impls::<impl core::cmp::Ord for usize>::cmp
  %4 = invoke i8 @"_ZN4core3cmp5impls50_$LT$impl$u20$core..cmp..Ord$u20$for$u20$usize$GT$3cmp17h05ae9de739f93db7E"(i64* align 8 %self, i64* align 8 %other)
          to label %bb1 unwind label %cleanup, !dbg !676, !range !677

bb8:                                              ; preds = %cleanup
  br label %bb13, !dbg !678

cleanup:                                          ; preds = %start
  %5 = landingpad { i8*, i32 }
          cleanup
  %6 = extractvalue { i8*, i32 } %5, 0
  %7 = extractvalue { i8*, i32 } %5, 1
  %8 = getelementptr inbounds { i8*, i32 }, { i8*, i32 }* %2, i32 0, i32 0
  store i8* %6, i8** %8, align 8
  %9 = getelementptr inbounds { i8*, i32 }, { i8*, i32 }* %2, i32 0, i32 1
  store i32 %7, i32* %9, align 8
  br label %bb8

bb1:                                              ; preds = %start
  store i8 %4, i8* %_3, align 1, !dbg !676
  %_7 = load i8, i8* %_3, align 1, !dbg !676, !range !677, !noundef !23
  switch i8 %_7, label %bb3 [
    i8 -1, label %bb4
    i8 0, label %bb4
    i8 1, label %bb2
  ], !dbg !679

bb13:                                             ; preds = %bb8
  %10 = load i8, i8* %_9, align 1, !dbg !678, !range !680, !noundef !23
  %11 = trunc i8 %10 to i1, !dbg !678
  br i1 %11, label %bb12, label %bb9, !dbg !678

bb3:                                              ; preds = %bb1
  unreachable, !dbg !676

bb4:                                              ; preds = %bb1, %bb1
  store i8 0, i8* %_8, align 1, !dbg !681
  %12 = load i64, i64* %other, align 8, !dbg !681
  store i64 %12, i64* %3, align 8, !dbg !681
  br label %bb5, !dbg !681

bb2:                                              ; preds = %bb1
  store i8 0, i8* %_9, align 1, !dbg !682
  %13 = load i64, i64* %self, align 8, !dbg !682
  store i64 %13, i64* %3, align 8, !dbg !682
  br label %bb5, !dbg !682

bb5:                                              ; preds = %bb4, %bb2
  %14 = load i8, i8* %_8, align 1, !dbg !678, !range !680, !noundef !23
  %15 = trunc i8 %14 to i1, !dbg !678
  br i1 %15, label %bb10, label %bb6, !dbg !678

bb6:                                              ; preds = %bb10, %bb5
  %16 = load i8, i8* %_9, align 1, !dbg !678, !range !680, !noundef !23
  %17 = trunc i8 %16 to i1, !dbg !678
  br i1 %17, label %bb11, label %bb7, !dbg !678

bb10:                                             ; preds = %bb5
  br label %bb6, !dbg !678

bb9:                                              ; preds = %bb12, %bb13
  %18 = bitcast { i8*, i32 }* %2 to i8**, !dbg !683
  %19 = load i8*, i8** %18, align 8, !dbg !683
  %20 = getelementptr inbounds { i8*, i32 }, { i8*, i32 }* %2, i32 0, i32 1, !dbg !683
  %21 = load i32, i32* %20, align 8, !dbg !683
  %22 = insertvalue { i8*, i32 } undef, i8* %19, 0, !dbg !683
  %23 = insertvalue { i8*, i32 } %22, i32 %21, 1, !dbg !683
  resume { i8*, i32 } %23, !dbg !683

bb12:                                             ; preds = %bb13
  br label %bb9, !dbg !678

bb7:                                              ; preds = %bb11, %bb6
  %24 = load i64, i64* %3, align 8, !dbg !684
  ret i64 %24, !dbg !684

bb11:                                             ; preds = %bb6
  br label %bb7, !dbg !678
}

; core::cmp::impls::<impl core::cmp::Ord for usize>::cmp
; Function Attrs: inlinehint nonlazybind uwtable
define internal i8 @"_ZN4core3cmp5impls50_$LT$impl$u20$core..cmp..Ord$u20$for$u20$usize$GT$3cmp17h05ae9de739f93db7E"(i64* align 8 %self, i64* align 8 %other) unnamed_addr #0 !dbg !685 {
start:
  %other.dbg.spill = alloca i64*, align 8
  %self.dbg.spill = alloca i64*, align 8
  %0 = alloca i8, align 1
  store i64* %self, i64** %self.dbg.spill, align 8
  call void @llvm.dbg.declare(metadata i64** %self.dbg.spill, metadata !692, metadata !DIExpression()), !dbg !694
  store i64* %other, i64** %other.dbg.spill, align 8
  call void @llvm.dbg.declare(metadata i64** %other.dbg.spill, metadata !693, metadata !DIExpression()), !dbg !695
  %_4 = load i64, i64* %self, align 8, !dbg !696
  %_5 = load i64, i64* %other, align 8, !dbg !697
  %_3 = icmp ult i64 %_4, %_5, !dbg !696
  br i1 %_3, label %bb1, label %bb2, !dbg !696

bb2:                                              ; preds = %start
  %_7 = load i64, i64* %self, align 8, !dbg !698
  %_8 = load i64, i64* %other, align 8, !dbg !699
  %_6 = icmp eq i64 %_7, %_8, !dbg !698
  br i1 %_6, label %bb3, label %bb4, !dbg !698

bb1:                                              ; preds = %start
  store i8 -1, i8* %0, align 1, !dbg !700
  br label %bb6, !dbg !701

bb6:                                              ; preds = %bb5, %bb1
  %1 = load i8, i8* %0, align 1, !dbg !702, !range !677, !noundef !23
  ret i8 %1, !dbg !702

bb4:                                              ; preds = %bb2
  store i8 1, i8* %0, align 1, !dbg !703
  br label %bb5, !dbg !704

bb3:                                              ; preds = %bb2
  store i8 0, i8* %0, align 1, !dbg !705
  br label %bb5, !dbg !704

bb5:                                              ; preds = %bb4, %bb3
  br label %bb6, !dbg !701
}

; core::cmp::impls::<impl core::cmp::PartialOrd for i32>::lt
; Function Attrs: inlinehint nonlazybind uwtable
define internal zeroext i1 @"_ZN4core3cmp5impls55_$LT$impl$u20$core..cmp..PartialOrd$u20$for$u20$i32$GT$2lt17h4a8da4c42e37e412E"(i32* align 4 %self, i32* align 4 %other) unnamed_addr #0 !dbg !706 {
start:
  %other.dbg.spill = alloca i32*, align 8
  %self.dbg.spill = alloca i32*, align 8
  store i32* %self, i32** %self.dbg.spill, align 8
  call void @llvm.dbg.declare(metadata i32** %self.dbg.spill, metadata !712, metadata !DIExpression()), !dbg !714
  store i32* %other, i32** %other.dbg.spill, align 8
  call void @llvm.dbg.declare(metadata i32** %other.dbg.spill, metadata !713, metadata !DIExpression()), !dbg !715
  %_3 = load i32, i32* %self, align 4, !dbg !716
  %_4 = load i32, i32* %other, align 4, !dbg !717
  %0 = icmp slt i32 %_3, %_4, !dbg !716
  ret i1 %0, !dbg !718
}

; core::cmp::impls::<impl core::cmp::PartialOrd for usize>::lt
; Function Attrs: inlinehint nonlazybind uwtable
define internal zeroext i1 @"_ZN4core3cmp5impls57_$LT$impl$u20$core..cmp..PartialOrd$u20$for$u20$usize$GT$2lt17h803e94e7826b17f6E"(i64* align 8 %self, i64* align 8 %other) unnamed_addr #0 !dbg !719 {
start:
  %other.dbg.spill = alloca i64*, align 8
  %self.dbg.spill = alloca i64*, align 8
  store i64* %self, i64** %self.dbg.spill, align 8
  call void @llvm.dbg.declare(metadata i64** %self.dbg.spill, metadata !724, metadata !DIExpression()), !dbg !726
  store i64* %other, i64** %other.dbg.spill, align 8
  call void @llvm.dbg.declare(metadata i64** %other.dbg.spill, metadata !725, metadata !DIExpression()), !dbg !727
  %_3 = load i64, i64* %self, align 8, !dbg !728
  %_4 = load i64, i64* %other, align 8, !dbg !729
  %0 = icmp ult i64 %_3, %_4, !dbg !728
  ret i1 %0, !dbg !730
}

; core::cmp::impls::<impl core::cmp::PartialEq for ()>::eq
; Function Attrs: inlinehint nonlazybind uwtable
define internal zeroext i1 @"_ZN4core3cmp5impls59_$LT$impl$u20$core..cmp..PartialEq$u20$for$u20$$LP$$RP$$GT$2eq17h9b35e2cee4cb8532E"({}* align 1 %self, {}* align 1 %_other) unnamed_addr #0 !dbg !731 {
start:
  %_other.dbg.spill = alloca {}*, align 8
  %self.dbg.spill = alloca {}*, align 8
  store {}* %self, {}** %self.dbg.spill, align 8
  call void @llvm.dbg.declare(metadata {}** %self.dbg.spill, metadata !736, metadata !DIExpression()), !dbg !738
  store {}* %_other, {}** %_other.dbg.spill, align 8
  call void @llvm.dbg.declare(metadata {}** %_other.dbg.spill, metadata !737, metadata !DIExpression()), !dbg !739
  ret i1 true, !dbg !740
}

; core::fmt::ArgumentV1::new_display
; Function Attrs: inlinehint nonlazybind uwtable
define internal { i8*, i64* } @_ZN4core3fmt10ArgumentV111new_display17hdc27862aaaff6c82E(i64* align 8 %x) unnamed_addr #0 !dbg !741 {
start:
  %0 = alloca %"core::fmt::Opaque"*, align 8
  %1 = alloca i1 (%"core::fmt::Opaque"*, %"core::fmt::Formatter"*)*, align 8
  %f.dbg.spill = alloca i1 (i64*, %"core::fmt::Formatter"*)*, align 8
  %x.dbg.spill1 = alloca i64*, align 8
  %x.dbg.spill = alloca i64*, align 8
  %2 = alloca { i8*, i64* }, align 8
  store i64* %x, i64** %x.dbg.spill, align 8
  call void @llvm.dbg.declare(metadata i64** %x.dbg.spill, metadata !755, metadata !DIExpression()), !dbg !756
  store i64* %x, i64** %x.dbg.spill1, align 8, !dbg !757
  call void @llvm.dbg.declare(metadata i64** %x.dbg.spill1, metadata !758, metadata !DIExpression()), !dbg !767
  store i1 (i64*, %"core::fmt::Formatter"*)* @"_ZN4core3fmt3num3imp54_$LT$impl$u20$core..fmt..Display$u20$for$u20$usize$GT$3fmt17h13884cc54f932e9aE", i1 (i64*, %"core::fmt::Formatter"*)** %f.dbg.spill, align 8, !dbg !769
  call void @llvm.dbg.declare(metadata i1 (i64*, %"core::fmt::Formatter"*)** %f.dbg.spill, metadata !766, metadata !DIExpression()), !dbg !767
  store i1 (%"core::fmt::Opaque"*, %"core::fmt::Formatter"*)* bitcast (i1 (i64*, %"core::fmt::Formatter"*)* @"_ZN4core3fmt3num3imp54_$LT$impl$u20$core..fmt..Display$u20$for$u20$usize$GT$3fmt17h13884cc54f932e9aE" to i1 (%"core::fmt::Opaque"*, %"core::fmt::Formatter"*)*), i1 (%"core::fmt::Opaque"*, %"core::fmt::Formatter"*)** %1, align 8, !dbg !767
  %_4 = load i1 (%"core::fmt::Opaque"*, %"core::fmt::Formatter"*)*, i1 (%"core::fmt::Opaque"*, %"core::fmt::Formatter"*)** %1, align 8, !dbg !767, !nonnull !23, !noundef !23
  br label %bb1, !dbg !767

bb1:                                              ; preds = %start
  %3 = bitcast i64* %x to %"core::fmt::Opaque"*, !dbg !767
  store %"core::fmt::Opaque"* %3, %"core::fmt::Opaque"** %0, align 8, !dbg !767
  %_6 = load %"core::fmt::Opaque"*, %"core::fmt::Opaque"** %0, align 8, !dbg !767, !nonnull !23, !align !497, !noundef !23
  br label %bb2, !dbg !767

bb2:                                              ; preds = %bb1
  %4 = bitcast { i8*, i64* }* %2 to %"core::fmt::Opaque"**, !dbg !767
  store %"core::fmt::Opaque"* %_6, %"core::fmt::Opaque"** %4, align 8, !dbg !767
  %5 = getelementptr inbounds { i8*, i64* }, { i8*, i64* }* %2, i32 0, i32 1, !dbg !767
  %6 = bitcast i64** %5 to i1 (%"core::fmt::Opaque"*, %"core::fmt::Formatter"*)**, !dbg !767
  store i1 (%"core::fmt::Opaque"*, %"core::fmt::Formatter"*)* %_4, i1 (%"core::fmt::Opaque"*, %"core::fmt::Formatter"*)** %6, align 8, !dbg !767
  %7 = getelementptr inbounds { i8*, i64* }, { i8*, i64* }* %2, i32 0, i32 0, !dbg !770
  %8 = load i8*, i8** %7, align 8, !dbg !770, !nonnull !23, !align !497, !noundef !23
  %9 = getelementptr inbounds { i8*, i64* }, { i8*, i64* }* %2, i32 0, i32 1, !dbg !770
  %10 = load i64*, i64** %9, align 8, !dbg !770, !nonnull !23, !noundef !23
  %11 = insertvalue { i8*, i64* } undef, i8* %8, 0, !dbg !770
  %12 = insertvalue { i8*, i64* } %11, i64* %10, 1, !dbg !770
  ret { i8*, i64* } %12, !dbg !770
}

; core::fmt::num::<impl core::fmt::Debug for i32>::fmt
; Function Attrs: inlinehint nonlazybind uwtable
define internal zeroext i1 @"_ZN4core3fmt3num50_$LT$impl$u20$core..fmt..Debug$u20$for$u20$i32$GT$3fmt17hf0d3aeeaba475001E"(i32* align 4 %self, %"core::fmt::Formatter"* align 8 %f) unnamed_addr #0 !dbg !771 {
start:
  %f.dbg.spill = alloca %"core::fmt::Formatter"*, align 8
  %self.dbg.spill = alloca i32*, align 8
  %0 = alloca i8, align 1
  store i32* %self, i32** %self.dbg.spill, align 8
  call void @llvm.dbg.declare(metadata i32** %self.dbg.spill, metadata !778, metadata !DIExpression()), !dbg !780
  store %"core::fmt::Formatter"* %f, %"core::fmt::Formatter"** %f.dbg.spill, align 8
  call void @llvm.dbg.declare(metadata %"core::fmt::Formatter"** %f.dbg.spill, metadata !779, metadata !DIExpression()), !dbg !781
; call core::fmt::Formatter::debug_lower_hex
  %_3 = call zeroext i1 @_ZN4core3fmt9Formatter15debug_lower_hex17h861f5ddbf758e4f9E(%"core::fmt::Formatter"* align 8 %f), !dbg !782
  br label %bb1, !dbg !782

bb1:                                              ; preds = %start
  br i1 %_3, label %bb2, label %bb4, !dbg !782

bb4:                                              ; preds = %bb1
; call core::fmt::Formatter::debug_upper_hex
  %_7 = call zeroext i1 @_ZN4core3fmt9Formatter15debug_upper_hex17h21ddf2be2e6a0fd5E(%"core::fmt::Formatter"* align 8 %f), !dbg !783
  br label %bb5, !dbg !783

bb2:                                              ; preds = %bb1
; call core::fmt::num::<impl core::fmt::LowerHex for i32>::fmt
  %1 = call zeroext i1 @"_ZN4core3fmt3num53_$LT$impl$u20$core..fmt..LowerHex$u20$for$u20$i32$GT$3fmt17h46ab6094afed2354E"(i32* align 4 %self, %"core::fmt::Formatter"* align 8 %f), !dbg !784
  %2 = zext i1 %1 to i8, !dbg !784
  store i8 %2, i8* %0, align 1, !dbg !784
  br label %bb3, !dbg !784

bb3:                                              ; preds = %bb2
  br label %bb11, !dbg !785

bb11:                                             ; preds = %bb10, %bb3
  %3 = load i8, i8* %0, align 1, !dbg !786, !range !680, !noundef !23
  %4 = trunc i8 %3 to i1, !dbg !786
  ret i1 %4, !dbg !786

bb5:                                              ; preds = %bb4
  br i1 %_7, label %bb6, label %bb8, !dbg !783

bb8:                                              ; preds = %bb5
; call core::fmt::num::imp::<impl core::fmt::Display for i32>::fmt
  %5 = call zeroext i1 @"_ZN4core3fmt3num3imp52_$LT$impl$u20$core..fmt..Display$u20$for$u20$i32$GT$3fmt17h52a4838d0eaa2babE"(i32* align 4 %self, %"core::fmt::Formatter"* align 8 %f), !dbg !787
  %6 = zext i1 %5 to i8, !dbg !787
  store i8 %6, i8* %0, align 1, !dbg !787
  br label %bb9, !dbg !787

bb6:                                              ; preds = %bb5
; call core::fmt::num::<impl core::fmt::UpperHex for i32>::fmt
  %7 = call zeroext i1 @"_ZN4core3fmt3num53_$LT$impl$u20$core..fmt..UpperHex$u20$for$u20$i32$GT$3fmt17h827553a54a7e037dE"(i32* align 4 %self, %"core::fmt::Formatter"* align 8 %f), !dbg !788
  %8 = zext i1 %7 to i8, !dbg !788
  store i8 %8, i8* %0, align 1, !dbg !788
  br label %bb7, !dbg !788

bb7:                                              ; preds = %bb6
  br label %bb10, !dbg !789

bb10:                                             ; preds = %bb9, %bb7
  br label %bb11, !dbg !785

bb9:                                              ; preds = %bb8
  br label %bb10, !dbg !789
}

; core::fmt::builders::DebugList::entries
; Function Attrs: nonlazybind uwtable
define internal align 8 %"core::fmt::builders::DebugList"* @_ZN4core3fmt8builders9DebugList7entries17he033867fae65c462E(%"core::fmt::builders::DebugList"* align 8 %self, i32* %entries.0, i32* %entries.1) unnamed_addr #2 personality i32 (i32, i32, i64, %"unwind::libunwind::_Unwind_Exception"*, %"unwind::libunwind::_Unwind_Context"*)* @rust_eh_personality !dbg !790 {
start:
  %0 = alloca { i8*, i32 }, align 8
  %entries.dbg.spill = alloca { i32*, i32* }, align 8
  %self.dbg.spill = alloca %"core::fmt::builders::DebugList"*, align 8
  %entry = alloca i32*, align 8
  %_7 = alloca i32*, align 8
  %iter = alloca { i32*, i32* }, align 8
  store %"core::fmt::builders::DebugList"* %self, %"core::fmt::builders::DebugList"** %self.dbg.spill, align 8
  call void @llvm.dbg.declare(metadata %"core::fmt::builders::DebugList"** %self.dbg.spill, metadata !805, metadata !DIExpression()), !dbg !814
  %1 = getelementptr inbounds { i32*, i32* }, { i32*, i32* }* %entries.dbg.spill, i32 0, i32 0
  store i32* %entries.0, i32** %1, align 8
  %2 = getelementptr inbounds { i32*, i32* }, { i32*, i32* }* %entries.dbg.spill, i32 0, i32 1
  store i32* %entries.1, i32** %2, align 8
  call void @llvm.dbg.declare(metadata { i32*, i32* }* %entries.dbg.spill, metadata !806, metadata !DIExpression()), !dbg !815
  call void @llvm.dbg.declare(metadata { i32*, i32* }* %iter, metadata !807, metadata !DIExpression()), !dbg !816
  call void @llvm.dbg.declare(metadata i32** %entry, metadata !809, metadata !DIExpression()), !dbg !817
; call <I as core::iter::traits::collect::IntoIterator>::into_iter
  %3 = call { i32*, i32* } @"_ZN63_$LT$I$u20$as$u20$core..iter..traits..collect..IntoIterator$GT$9into_iter17ha0c076b82c67d947E"(i32* %entries.0, i32* %entries.1), !dbg !818
  %_4.0 = extractvalue { i32*, i32* } %3, 0, !dbg !818
  %_4.1 = extractvalue { i32*, i32* } %3, 1, !dbg !818
  br label %bb1, !dbg !818

bb1:                                              ; preds = %start
  %4 = getelementptr inbounds { i32*, i32* }, { i32*, i32* }* %iter, i32 0, i32 0, !dbg !818
  store i32* %_4.0, i32** %4, align 8, !dbg !818
  %5 = getelementptr inbounds { i32*, i32* }, { i32*, i32* }* %iter, i32 0, i32 1, !dbg !818
  store i32* %_4.1, i32** %5, align 8, !dbg !818
  br label %bb2, !dbg !819

bb2:                                              ; preds = %bb8, %bb1
; invoke <core::slice::iter::Iter<T> as core::iter::traits::iterator::Iterator>::next
  %6 = invoke align 4 i32* @"_ZN91_$LT$core..slice..iter..Iter$LT$T$GT$$u20$as$u20$core..iter..traits..iterator..Iterator$GT$4next17h9766c42dda2c44abE"({ i32*, i32* }* align 8 %iter)
          to label %bb3 unwind label %cleanup, !dbg !816

bb11:                                             ; preds = %bb10, %cleanup
  br label %bb12, !dbg !820

cleanup:                                          ; preds = %bb2
  %7 = landingpad { i8*, i32 }
          cleanup
  %8 = extractvalue { i8*, i32 } %7, 0
  %9 = extractvalue { i8*, i32 } %7, 1
  %10 = getelementptr inbounds { i8*, i32 }, { i8*, i32 }* %0, i32 0, i32 0
  store i8* %8, i8** %10, align 8
  %11 = getelementptr inbounds { i8*, i32 }, { i8*, i32 }* %0, i32 0, i32 1
  store i32 %9, i32* %11, align 8
  br label %bb11

bb3:                                              ; preds = %bb2
  store i32* %6, i32** %_7, align 8, !dbg !816
  %12 = bitcast i32** %_7 to {}**, !dbg !816
  %13 = load {}*, {}** %12, align 8, !dbg !816
  %14 = icmp eq {}* %13, null, !dbg !816
  %_10 = select i1 %14, i64 0, i64 1, !dbg !816
  switch i64 %_10, label %bb5 [
    i64 0, label %bb6
    i64 1, label %bb4
  ], !dbg !816

bb5:                                              ; preds = %bb3
  unreachable, !dbg !816

bb6:                                              ; preds = %bb3
  br label %bb9, !dbg !820

bb4:                                              ; preds = %bb3
  %15 = load i32*, i32** %_7, align 8, !dbg !821, !nonnull !23, !align !456, !noundef !23
  store i32* %15, i32** %entry, align 8, !dbg !821
  %_14.0 = bitcast i32** %entry to {}*, !dbg !822
; invoke core::fmt::builders::DebugList::entry
  %_12 = invoke align 8 %"core::fmt::builders::DebugList"* @_ZN4core3fmt8builders9DebugList5entry17h5007920add23274dE(%"core::fmt::builders::DebugList"* align 8 %self, {}* align 1 %_14.0, [3 x i64]* align 8 bitcast (<{ i8*, [16 x i8], i8* }>* @vtable.1 to [3 x i64]*))
          to label %bb7 unwind label %cleanup1, !dbg !823

bb10:                                             ; preds = %cleanup1
  br label %bb11, !dbg !824

cleanup1:                                         ; preds = %bb4
  %16 = landingpad { i8*, i32 }
          cleanup
  %17 = extractvalue { i8*, i32 } %16, 0
  %18 = extractvalue { i8*, i32 } %16, 1
  %19 = getelementptr inbounds { i8*, i32 }, { i8*, i32 }* %0, i32 0, i32 0
  store i8* %17, i8** %19, align 8
  %20 = getelementptr inbounds { i8*, i32 }, { i8*, i32 }* %0, i32 0, i32 1
  store i32 %18, i32* %20, align 8
  br label %bb10

bb7:                                              ; preds = %bb4
  br label %bb8, !dbg !824

bb8:                                              ; preds = %bb7
  br label %bb2, !dbg !819

bb12:                                             ; preds = %bb11
  %21 = bitcast { i8*, i32 }* %0 to i8**, !dbg !825
  %22 = load i8*, i8** %21, align 8, !dbg !825
  %23 = getelementptr inbounds { i8*, i32 }, { i8*, i32 }* %0, i32 0, i32 1, !dbg !825
  %24 = load i32, i32* %23, align 8, !dbg !825
  %25 = insertvalue { i8*, i32 } undef, i8* %22, 0, !dbg !825
  %26 = insertvalue { i8*, i32 } %25, i32 %24, 1, !dbg !825
  resume { i8*, i32 } %26, !dbg !825

bb9:                                              ; preds = %bb6
  ret %"core::fmt::builders::DebugList"* %self, !dbg !826
}

; core::fmt::Arguments::new_v1
; Function Attrs: inlinehint nonlazybind uwtable
define internal void @_ZN4core3fmt9Arguments6new_v117h090b18600dc0d53dE(%"core::fmt::Arguments"* sret(%"core::fmt::Arguments") %0, [0 x { [0 x i8]*, i64 }]* align 8 %pieces.0, i64 %pieces.1, [0 x { i8*, i64* }]* align 8 %args.0, i64 %args.1) unnamed_addr #0 !dbg !827 {
start:
  %args.dbg.spill = alloca { [0 x { i8*, i64* }]*, i64 }, align 8
  %pieces.dbg.spill = alloca { [0 x { [0 x i8]*, i64 }]*, i64 }, align 8
  %_24 = alloca { i64*, i64 }, align 8
  %_16 = alloca %"core::fmt::Arguments", align 8
  %_3 = alloca i8, align 1
  %1 = getelementptr inbounds { [0 x { [0 x i8]*, i64 }]*, i64 }, { [0 x { [0 x i8]*, i64 }]*, i64 }* %pieces.dbg.spill, i32 0, i32 0
  store [0 x { [0 x i8]*, i64 }]* %pieces.0, [0 x { [0 x i8]*, i64 }]** %1, align 8
  %2 = getelementptr inbounds { [0 x { [0 x i8]*, i64 }]*, i64 }, { [0 x { [0 x i8]*, i64 }]*, i64 }* %pieces.dbg.spill, i32 0, i32 1
  store i64 %pieces.1, i64* %2, align 8
  call void @llvm.dbg.declare(metadata { [0 x { [0 x i8]*, i64 }]*, i64 }* %pieces.dbg.spill, metadata !895, metadata !DIExpression()), !dbg !897
  %3 = getelementptr inbounds { [0 x { i8*, i64* }]*, i64 }, { [0 x { i8*, i64* }]*, i64 }* %args.dbg.spill, i32 0, i32 0
  store [0 x { i8*, i64* }]* %args.0, [0 x { i8*, i64* }]** %3, align 8
  %4 = getelementptr inbounds { [0 x { i8*, i64* }]*, i64 }, { [0 x { i8*, i64* }]*, i64 }* %args.dbg.spill, i32 0, i32 1
  store i64 %args.1, i64* %4, align 8
  call void @llvm.dbg.declare(metadata { [0 x { i8*, i64* }]*, i64 }* %args.dbg.spill, metadata !896, metadata !DIExpression()), !dbg !898
  %_4 = icmp ult i64 %pieces.1, %args.1, !dbg !899
  br i1 %_4, label %bb1, label %bb2, !dbg !899

bb2:                                              ; preds = %start
  %_12 = add i64 %args.1, 1, !dbg !900
  %_9 = icmp ugt i64 %pieces.1, %_12, !dbg !901
  %5 = zext i1 %_9 to i8, !dbg !899
  store i8 %5, i8* %_3, align 1, !dbg !899
  br label %bb3, !dbg !899

bb1:                                              ; preds = %start
  store i8 1, i8* %_3, align 1, !dbg !899
  br label %bb3, !dbg !899

bb3:                                              ; preds = %bb2, %bb1
  %6 = load i8, i8* %_3, align 1, !dbg !899, !range !680, !noundef !23
  %7 = trunc i8 %6 to i1, !dbg !899
  br i1 %7, label %bb4, label %bb6, !dbg !899

bb6:                                              ; preds = %bb3
  %8 = bitcast { i64*, i64 }* %_24 to {}**, !dbg !902
  store {}* null, {}** %8, align 8, !dbg !902
  %9 = bitcast %"core::fmt::Arguments"* %0 to { [0 x { [0 x i8]*, i64 }]*, i64 }*, !dbg !903
  %10 = getelementptr inbounds { [0 x { [0 x i8]*, i64 }]*, i64 }, { [0 x { [0 x i8]*, i64 }]*, i64 }* %9, i32 0, i32 0, !dbg !903
  store [0 x { [0 x i8]*, i64 }]* %pieces.0, [0 x { [0 x i8]*, i64 }]** %10, align 8, !dbg !903
  %11 = getelementptr inbounds { [0 x { [0 x i8]*, i64 }]*, i64 }, { [0 x { [0 x i8]*, i64 }]*, i64 }* %9, i32 0, i32 1, !dbg !903
  store i64 %pieces.1, i64* %11, align 8, !dbg !903
  %12 = getelementptr inbounds %"core::fmt::Arguments", %"core::fmt::Arguments"* %0, i32 0, i32 1, !dbg !903
  %13 = getelementptr inbounds { i64*, i64 }, { i64*, i64 }* %_24, i32 0, i32 0, !dbg !903
  %14 = load i64*, i64** %13, align 8, !dbg !903, !align !358
  %15 = getelementptr inbounds { i64*, i64 }, { i64*, i64 }* %_24, i32 0, i32 1, !dbg !903
  %16 = load i64, i64* %15, align 8, !dbg !903
  %17 = getelementptr inbounds { i64*, i64 }, { i64*, i64 }* %12, i32 0, i32 0, !dbg !903
  store i64* %14, i64** %17, align 8, !dbg !903
  %18 = getelementptr inbounds { i64*, i64 }, { i64*, i64 }* %12, i32 0, i32 1, !dbg !903
  store i64 %16, i64* %18, align 8, !dbg !903
  %19 = getelementptr inbounds %"core::fmt::Arguments", %"core::fmt::Arguments"* %0, i32 0, i32 2, !dbg !903
  %20 = getelementptr inbounds { [0 x { i8*, i64* }]*, i64 }, { [0 x { i8*, i64* }]*, i64 }* %19, i32 0, i32 0, !dbg !903
  store [0 x { i8*, i64* }]* %args.0, [0 x { i8*, i64* }]** %20, align 8, !dbg !903
  %21 = getelementptr inbounds { [0 x { i8*, i64* }]*, i64 }, { [0 x { i8*, i64* }]*, i64 }* %19, i32 0, i32 1, !dbg !903
  store i64 %args.1, i64* %21, align 8, !dbg !903
  ret void, !dbg !904

bb4:                                              ; preds = %bb3
; call core::fmt::Arguments::new_v1
  call void @_ZN4core3fmt9Arguments6new_v117h090b18600dc0d53dE(%"core::fmt::Arguments"* sret(%"core::fmt::Arguments") %_16, [0 x { [0 x i8]*, i64 }]* align 8 bitcast (<{ i8*, [8 x i8] }>* @alloc203 to [0 x { [0 x i8]*, i64 }]*), i64 1, [0 x { i8*, i64* }]* align 8 bitcast (<{}>* @alloc193 to [0 x { i8*, i64* }]*), i64 0), !dbg !905
  br label %bb5, !dbg !905

bb5:                                              ; preds = %bb4
; call core::panicking::panic_fmt
  call void @_ZN4core9panicking9panic_fmt17h62ccf03c8a8a51b5E(%"core::fmt::Arguments"* %_16, %"core::panic::location::Location"* align 8 bitcast (<{ i8*, [16 x i8] }>* @alloc699 to %"core::panic::location::Location"*)) #16, !dbg !905
  unreachable, !dbg !905
}

; core::mem::replace
; Function Attrs: inlinehint nonlazybind uwtable
define internal i64 @_ZN4core3mem7replace17h6c3152bae60ef064E(i64* align 8 %dest, i64 %src) unnamed_addr #0 personality i32 (i32, i32, i64, %"unwind::libunwind::_Unwind_Exception"*, %"unwind::libunwind::_Unwind_Context"*)* @rust_eh_personality !dbg !906 {
start:
  %dst.dbg.spill = alloca i64*, align 8
  %result.dbg.spill = alloca i64, align 8
  %slot.dbg.spill = alloca i64, align 8
  %0 = alloca { i8*, i32 }, align 8
  %self.dbg.spill3 = alloca i64, align 8
  %self.dbg.spill = alloca i64*, align 8
  %src.dbg.spill2 = alloca i64*, align 8
  %src.dbg.spill = alloca i64, align 8
  %dest.dbg.spill = alloca i64*, align 8
  %tmp = alloca i64, align 8
  %src1 = alloca i64, align 8
  store i64* %dest, i64** %dest.dbg.spill, align 8
  call void @llvm.dbg.declare(metadata i64** %dest.dbg.spill, metadata !912, metadata !DIExpression()), !dbg !916
  store i64 %src, i64* %src.dbg.spill, align 8
  call void @llvm.dbg.declare(metadata i64* %src.dbg.spill, metadata !913, metadata !DIExpression()), !dbg !917
  call void @llvm.dbg.declare(metadata i64* %src1, metadata !918, metadata !DIExpression()), !dbg !927
  call void @llvm.dbg.declare(metadata i64* %tmp, metadata !929, metadata !DIExpression()), !dbg !948
  store i64* %dest, i64** %src.dbg.spill2, align 8, !dbg !950
  call void @llvm.dbg.declare(metadata i64** %src.dbg.spill2, metadata !937, metadata !DIExpression()), !dbg !951
  %1 = bitcast i64* %tmp to {}*, !dbg !952
  store i64* %tmp, i64** %self.dbg.spill, align 8, !dbg !948
  call void @llvm.dbg.declare(metadata i64** %self.dbg.spill, metadata !959, metadata !DIExpression()), !dbg !966
  %2 = bitcast i64* %tmp to i8*, !dbg !948
  %3 = bitcast i64* %dest to i8*, !dbg !948
  call void @llvm.memcpy.p0i8.p0i8.i64(i8* align 8 %2, i8* align 8 %3, i64 8, i1 false), !dbg !948
  %self = load i64, i64* %tmp, align 8, !dbg !948
  store i64 %self, i64* %self.dbg.spill3, align 8, !dbg !948
  call void @llvm.dbg.declare(metadata i64* %self.dbg.spill3, metadata !968, metadata !DIExpression()), !dbg !982
  br label %bb4, !dbg !982

bb4:                                              ; preds = %start
  store i64 %self, i64* %slot.dbg.spill, align 8, !dbg !982
  call void @llvm.dbg.declare(metadata i64* %slot.dbg.spill, metadata !984, metadata !DIExpression()), !dbg !991
  store i64 %self, i64* %result.dbg.spill, align 8, !dbg !991
  call void @llvm.dbg.declare(metadata i64* %result.dbg.spill, metadata !914, metadata !DIExpression()), !dbg !993
  store i64* %dest, i64** %dst.dbg.spill, align 8, !dbg !994
  call void @llvm.dbg.declare(metadata i64** %dst.dbg.spill, metadata !926, metadata !DIExpression()), !dbg !927
  store i64 %src, i64* %src1, align 8, !dbg !995
  %4 = bitcast i64* %dest to i8*, !dbg !927
  %5 = bitcast i64* %src1 to i8*, !dbg !927
  call void @llvm.memcpy.p0i8.p0i8.i64(i8* align 8 %4, i8* align 8 %5, i64 8, i1 false), !dbg !927
  ret i64 %self, !dbg !996

bb3:                                              ; No predecessors!
  br i1 true, label %bb2, label %bb1, !dbg !997

bb1:                                              ; preds = %bb2, %bb3
  %6 = bitcast { i8*, i32 }* %0 to i8**, !dbg !998
  %7 = load i8*, i8** %6, align 8, !dbg !998
  %8 = getelementptr inbounds { i8*, i32 }, { i8*, i32 }* %0, i32 0, i32 1, !dbg !998
  %9 = load i32, i32* %8, align 8, !dbg !998
  %10 = insertvalue { i8*, i32 } undef, i8* %7, 0, !dbg !998
  %11 = insertvalue { i8*, i32 } %10, i32 %9, 1, !dbg !998
  resume { i8*, i32 } %11, !dbg !998

bb2:                                              ; preds = %bb3
  br label %bb1, !dbg !997
}

; core::mem::replace
; Function Attrs: inlinehint nonlazybind uwtable
define internal i32 @_ZN4core3mem7replace17hf1ca98093c8ae647E(i32* align 4 %dest, i32 %src) unnamed_addr #0 personality i32 (i32, i32, i64, %"unwind::libunwind::_Unwind_Exception"*, %"unwind::libunwind::_Unwind_Context"*)* @rust_eh_personality !dbg !999 {
start:
  %dst.dbg.spill = alloca i32*, align 8
  %result.dbg.spill = alloca i32, align 4
  %slot.dbg.spill = alloca i32, align 4
  %0 = alloca { i8*, i32 }, align 8
  %self.dbg.spill3 = alloca i32, align 4
  %self.dbg.spill = alloca i32*, align 8
  %src.dbg.spill2 = alloca i32*, align 8
  %src.dbg.spill = alloca i32, align 4
  %dest.dbg.spill = alloca i32*, align 8
  %tmp = alloca i32, align 4
  %src1 = alloca i32, align 4
  store i32* %dest, i32** %dest.dbg.spill, align 8
  call void @llvm.dbg.declare(metadata i32** %dest.dbg.spill, metadata !1004, metadata !DIExpression()), !dbg !1008
  store i32 %src, i32* %src.dbg.spill, align 4
  call void @llvm.dbg.declare(metadata i32* %src.dbg.spill, metadata !1005, metadata !DIExpression()), !dbg !1009
  call void @llvm.dbg.declare(metadata i32* %src1, metadata !1010, metadata !DIExpression()), !dbg !1018
  call void @llvm.dbg.declare(metadata i32* %tmp, metadata !1020, metadata !DIExpression()), !dbg !1036
  store i32* %dest, i32** %src.dbg.spill2, align 8, !dbg !1038
  call void @llvm.dbg.declare(metadata i32** %src.dbg.spill2, metadata !1027, metadata !DIExpression()), !dbg !1039
  %1 = bitcast i32* %tmp to {}*, !dbg !1040
  store i32* %tmp, i32** %self.dbg.spill, align 8, !dbg !1036
  call void @llvm.dbg.declare(metadata i32** %self.dbg.spill, metadata !1046, metadata !DIExpression()), !dbg !1053
  %2 = bitcast i32* %tmp to i8*, !dbg !1036
  %3 = bitcast i32* %dest to i8*, !dbg !1036
  call void @llvm.memcpy.p0i8.p0i8.i64(i8* align 4 %2, i8* align 4 %3, i64 4, i1 false), !dbg !1036
  %self = load i32, i32* %tmp, align 4, !dbg !1036
  store i32 %self, i32* %self.dbg.spill3, align 4, !dbg !1036
  call void @llvm.dbg.declare(metadata i32* %self.dbg.spill3, metadata !1055, metadata !DIExpression()), !dbg !1061
  br label %bb4, !dbg !1061

bb4:                                              ; preds = %start
  store i32 %self, i32* %slot.dbg.spill, align 4, !dbg !1061
  call void @llvm.dbg.declare(metadata i32* %slot.dbg.spill, metadata !1063, metadata !DIExpression()), !dbg !1069
  store i32 %self, i32* %result.dbg.spill, align 4, !dbg !1069
  call void @llvm.dbg.declare(metadata i32* %result.dbg.spill, metadata !1006, metadata !DIExpression()), !dbg !1071
  store i32* %dest, i32** %dst.dbg.spill, align 8, !dbg !1072
  call void @llvm.dbg.declare(metadata i32** %dst.dbg.spill, metadata !1017, metadata !DIExpression()), !dbg !1018
  store i32 %src, i32* %src1, align 4, !dbg !1073
  %4 = bitcast i32* %dest to i8*, !dbg !1018
  %5 = bitcast i32* %src1 to i8*, !dbg !1018
  call void @llvm.memcpy.p0i8.p0i8.i64(i8* align 4 %4, i8* align 4 %5, i64 4, i1 false), !dbg !1018
  ret i32 %self, !dbg !1074

bb3:                                              ; No predecessors!
  br i1 true, label %bb2, label %bb1, !dbg !1075

bb1:                                              ; preds = %bb2, %bb3
  %6 = bitcast { i8*, i32 }* %0 to i8**, !dbg !1076
  %7 = load i8*, i8** %6, align 8, !dbg !1076
  %8 = getelementptr inbounds { i8*, i32 }, { i8*, i32 }* %0, i32 0, i32 1, !dbg !1076
  %9 = load i32, i32* %8, align 8, !dbg !1076
  %10 = insertvalue { i8*, i32 } undef, i8* %7, 0, !dbg !1076
  %11 = insertvalue { i8*, i32 } %10, i32 %9, 1, !dbg !1076
  resume { i8*, i32 } %11, !dbg !1076

bb2:                                              ; preds = %bb3
  br label %bb1, !dbg !1075
}

; core::num::<impl usize>::checked_add
; Function Attrs: inlinehint nonlazybind uwtable
define internal { i64, i64 } @"_ZN4core3num23_$LT$impl$u20$usize$GT$11checked_add17h9a7ed23975e82aa2E"(i64 %self, i64 %rhs) unnamed_addr #0 !dbg !1077 {
start:
  %0 = alloca i8, align 1
  %b.dbg.spill4 = alloca i8, align 1
  %a.dbg.spill3 = alloca i64, align 8
  %b.dbg.spill = alloca i8, align 1
  %a.dbg.spill = alloca i64, align 8
  %1 = alloca { i64, i8 }, align 8
  %rhs.dbg.spill2 = alloca i64, align 8
  %self.dbg.spill1 = alloca i64, align 8
  %rhs.dbg.spill = alloca i64, align 8
  %self.dbg.spill = alloca i64, align 8
  %_5 = alloca { i64, i8 }, align 8
  %2 = alloca { i64, i64 }, align 8
  store i64 %self, i64* %self.dbg.spill, align 8
  call void @llvm.dbg.declare(metadata i64* %self.dbg.spill, metadata !1081, metadata !DIExpression()), !dbg !1086
  store i64 %rhs, i64* %rhs.dbg.spill, align 8
  call void @llvm.dbg.declare(metadata i64* %rhs.dbg.spill, metadata !1082, metadata !DIExpression()), !dbg !1087
  store i64 %self, i64* %self.dbg.spill1, align 8, !dbg !1088
  call void @llvm.dbg.declare(metadata i64* %self.dbg.spill1, metadata !1089, metadata !DIExpression()), !dbg !1102
  store i64 %rhs, i64* %rhs.dbg.spill2, align 8, !dbg !1103
  call void @llvm.dbg.declare(metadata i64* %rhs.dbg.spill2, metadata !1098, metadata !DIExpression()), !dbg !1102
  %3 = call { i64, i1 } @llvm.uadd.with.overflow.i64(i64 %self, i64 %rhs), !dbg !1102
  %4 = extractvalue { i64, i1 } %3, 0, !dbg !1102
  %5 = extractvalue { i64, i1 } %3, 1, !dbg !1102
  %6 = zext i1 %5 to i8, !dbg !1102
  %7 = bitcast { i64, i8 }* %1 to i64*, !dbg !1102
  store i64 %4, i64* %7, align 8, !dbg !1102
  %8 = getelementptr inbounds { i64, i8 }, { i64, i8 }* %1, i32 0, i32 1, !dbg !1102
  store i8 %6, i8* %8, align 8, !dbg !1102
  %9 = getelementptr inbounds { i64, i8 }, { i64, i8 }* %1, i32 0, i32 0, !dbg !1102
  %_13.0 = load i64, i64* %9, align 8, !dbg !1102
  %10 = getelementptr inbounds { i64, i8 }, { i64, i8 }* %1, i32 0, i32 1, !dbg !1102
  %11 = load i8, i8* %10, align 8, !dbg !1102, !range !680, !noundef !23
  %_13.1 = trunc i8 %11 to i1, !dbg !1102
  br label %bb5, !dbg !1102

bb5:                                              ; preds = %start
  store i64 %_13.0, i64* %a.dbg.spill, align 8, !dbg !1102
  call void @llvm.dbg.declare(metadata i64* %a.dbg.spill, metadata !1099, metadata !DIExpression()), !dbg !1104
  %12 = zext i1 %_13.1 to i8, !dbg !1102
  store i8 %12, i8* %b.dbg.spill, align 1, !dbg !1102
  call void @llvm.dbg.declare(metadata i8* %b.dbg.spill, metadata !1101, metadata !DIExpression()), !dbg !1104
  %13 = bitcast { i64, i8 }* %_5 to i64*, !dbg !1104
  store i64 %_13.0, i64* %13, align 8, !dbg !1104
  %14 = getelementptr inbounds { i64, i8 }, { i64, i8 }* %_5, i32 0, i32 1, !dbg !1104
  %15 = zext i1 %_13.1 to i8, !dbg !1104
  store i8 %15, i8* %14, align 8, !dbg !1104
  %16 = bitcast { i64, i8 }* %_5 to i64*, !dbg !1105
  %a = load i64, i64* %16, align 8, !dbg !1105
  store i64 %a, i64* %a.dbg.spill3, align 8, !dbg !1105
  call void @llvm.dbg.declare(metadata i64* %a.dbg.spill3, metadata !1083, metadata !DIExpression()), !dbg !1106
  %17 = getelementptr inbounds { i64, i8 }, { i64, i8 }* %_5, i32 0, i32 1, !dbg !1107
  %18 = load i8, i8* %17, align 8, !dbg !1107, !range !680, !noundef !23
  %b = trunc i8 %18 to i1, !dbg !1107
  %19 = zext i1 %b to i8, !dbg !1107
  store i8 %19, i8* %b.dbg.spill4, align 1, !dbg !1107
  call void @llvm.dbg.declare(metadata i8* %b.dbg.spill4, metadata !1085, metadata !DIExpression()), !dbg !1108
  %20 = call i1 @llvm.expect.i1(i1 %b, i1 false), !dbg !1109
  %21 = zext i1 %20 to i8, !dbg !1109
  store i8 %21, i8* %0, align 1, !dbg !1109
  %22 = load i8, i8* %0, align 1, !dbg !1109, !range !680, !noundef !23
  %_8 = trunc i8 %22 to i1, !dbg !1109
  br label %bb1, !dbg !1109

bb1:                                              ; preds = %bb5
  br i1 %_8, label %bb2, label %bb3, !dbg !1109

bb3:                                              ; preds = %bb1
  %23 = getelementptr inbounds { i64, i64 }, { i64, i64 }* %2, i32 0, i32 1, !dbg !1110
  store i64 %a, i64* %23, align 8, !dbg !1110
  %24 = bitcast { i64, i64 }* %2 to i64*, !dbg !1110
  store i64 1, i64* %24, align 8, !dbg !1110
  br label %bb4, !dbg !1111

bb2:                                              ; preds = %bb1
  %25 = bitcast { i64, i64 }* %2 to i64*, !dbg !1112
  store i64 0, i64* %25, align 8, !dbg !1112
  br label %bb4, !dbg !1111

bb4:                                              ; preds = %bb3, %bb2
  %26 = getelementptr inbounds { i64, i64 }, { i64, i64 }* %2, i32 0, i32 0, !dbg !1113
  %27 = load i64, i64* %26, align 8, !dbg !1113, !range !1114, !noundef !23
  %28 = getelementptr inbounds { i64, i64 }, { i64, i64 }* %2, i32 0, i32 1, !dbg !1113
  %29 = load i64, i64* %28, align 8, !dbg !1113
  %30 = insertvalue { i64, i64 } undef, i64 %27, 0, !dbg !1113
  %31 = insertvalue { i64, i64 } %30, i64 %29, 1, !dbg !1113
  ret { i64, i64 } %31, !dbg !1113
}

; core::num::<impl usize>::checked_mul
; Function Attrs: inlinehint nonlazybind uwtable
define internal { i64, i64 } @"_ZN4core3num23_$LT$impl$u20$usize$GT$11checked_mul17hf791a6b7be2128e2E"(i64 %self, i64 %rhs) unnamed_addr #0 !dbg !1115 {
start:
  %0 = alloca i8, align 1
  %b.dbg.spill4 = alloca i8, align 1
  %a.dbg.spill3 = alloca i64, align 8
  %b.dbg.spill = alloca i8, align 1
  %a.dbg.spill = alloca i64, align 8
  %1 = alloca { i64, i8 }, align 8
  %rhs.dbg.spill2 = alloca i64, align 8
  %self.dbg.spill1 = alloca i64, align 8
  %rhs.dbg.spill = alloca i64, align 8
  %self.dbg.spill = alloca i64, align 8
  %_5 = alloca { i64, i8 }, align 8
  %2 = alloca { i64, i64 }, align 8
  store i64 %self, i64* %self.dbg.spill, align 8
  call void @llvm.dbg.declare(metadata i64* %self.dbg.spill, metadata !1117, metadata !DIExpression()), !dbg !1122
  store i64 %rhs, i64* %rhs.dbg.spill, align 8
  call void @llvm.dbg.declare(metadata i64* %rhs.dbg.spill, metadata !1118, metadata !DIExpression()), !dbg !1123
  store i64 %self, i64* %self.dbg.spill1, align 8, !dbg !1124
  call void @llvm.dbg.declare(metadata i64* %self.dbg.spill1, metadata !1125, metadata !DIExpression()), !dbg !1132
  store i64 %rhs, i64* %rhs.dbg.spill2, align 8, !dbg !1133
  call void @llvm.dbg.declare(metadata i64* %rhs.dbg.spill2, metadata !1128, metadata !DIExpression()), !dbg !1132
  %3 = call { i64, i1 } @llvm.umul.with.overflow.i64(i64 %self, i64 %rhs), !dbg !1132
  %4 = extractvalue { i64, i1 } %3, 0, !dbg !1132
  %5 = extractvalue { i64, i1 } %3, 1, !dbg !1132
  %6 = zext i1 %5 to i8, !dbg !1132
  %7 = bitcast { i64, i8 }* %1 to i64*, !dbg !1132
  store i64 %4, i64* %7, align 8, !dbg !1132
  %8 = getelementptr inbounds { i64, i8 }, { i64, i8 }* %1, i32 0, i32 1, !dbg !1132
  store i8 %6, i8* %8, align 8, !dbg !1132
  %9 = getelementptr inbounds { i64, i8 }, { i64, i8 }* %1, i32 0, i32 0, !dbg !1132
  %_13.0 = load i64, i64* %9, align 8, !dbg !1132
  %10 = getelementptr inbounds { i64, i8 }, { i64, i8 }* %1, i32 0, i32 1, !dbg !1132
  %11 = load i8, i8* %10, align 8, !dbg !1132, !range !680, !noundef !23
  %_13.1 = trunc i8 %11 to i1, !dbg !1132
  br label %bb5, !dbg !1132

bb5:                                              ; preds = %start
  store i64 %_13.0, i64* %a.dbg.spill, align 8, !dbg !1132
  call void @llvm.dbg.declare(metadata i64* %a.dbg.spill, metadata !1129, metadata !DIExpression()), !dbg !1134
  %12 = zext i1 %_13.1 to i8, !dbg !1132
  store i8 %12, i8* %b.dbg.spill, align 1, !dbg !1132
  call void @llvm.dbg.declare(metadata i8* %b.dbg.spill, metadata !1131, metadata !DIExpression()), !dbg !1134
  %13 = bitcast { i64, i8 }* %_5 to i64*, !dbg !1134
  store i64 %_13.0, i64* %13, align 8, !dbg !1134
  %14 = getelementptr inbounds { i64, i8 }, { i64, i8 }* %_5, i32 0, i32 1, !dbg !1134
  %15 = zext i1 %_13.1 to i8, !dbg !1134
  store i8 %15, i8* %14, align 8, !dbg !1134
  %16 = bitcast { i64, i8 }* %_5 to i64*, !dbg !1135
  %a = load i64, i64* %16, align 8, !dbg !1135
  store i64 %a, i64* %a.dbg.spill3, align 8, !dbg !1135
  call void @llvm.dbg.declare(metadata i64* %a.dbg.spill3, metadata !1119, metadata !DIExpression()), !dbg !1136
  %17 = getelementptr inbounds { i64, i8 }, { i64, i8 }* %_5, i32 0, i32 1, !dbg !1137
  %18 = load i8, i8* %17, align 8, !dbg !1137, !range !680, !noundef !23
  %b = trunc i8 %18 to i1, !dbg !1137
  %19 = zext i1 %b to i8, !dbg !1137
  store i8 %19, i8* %b.dbg.spill4, align 1, !dbg !1137
  call void @llvm.dbg.declare(metadata i8* %b.dbg.spill4, metadata !1121, metadata !DIExpression()), !dbg !1138
  %20 = call i1 @llvm.expect.i1(i1 %b, i1 false), !dbg !1139
  %21 = zext i1 %20 to i8, !dbg !1139
  store i8 %21, i8* %0, align 1, !dbg !1139
  %22 = load i8, i8* %0, align 1, !dbg !1139, !range !680, !noundef !23
  %_8 = trunc i8 %22 to i1, !dbg !1139
  br label %bb1, !dbg !1139

bb1:                                              ; preds = %bb5
  br i1 %_8, label %bb2, label %bb3, !dbg !1139

bb3:                                              ; preds = %bb1
  %23 = getelementptr inbounds { i64, i64 }, { i64, i64 }* %2, i32 0, i32 1, !dbg !1140
  store i64 %a, i64* %23, align 8, !dbg !1140
  %24 = bitcast { i64, i64 }* %2 to i64*, !dbg !1140
  store i64 1, i64* %24, align 8, !dbg !1140
  br label %bb4, !dbg !1141

bb2:                                              ; preds = %bb1
  %25 = bitcast { i64, i64 }* %2 to i64*, !dbg !1142
  store i64 0, i64* %25, align 8, !dbg !1142
  br label %bb4, !dbg !1141

bb4:                                              ; preds = %bb3, %bb2
  %26 = getelementptr inbounds { i64, i64 }, { i64, i64 }* %2, i32 0, i32 0, !dbg !1143
  %27 = load i64, i64* %26, align 8, !dbg !1143, !range !1114, !noundef !23
  %28 = getelementptr inbounds { i64, i64 }, { i64, i64 }* %2, i32 0, i32 1, !dbg !1143
  %29 = load i64, i64* %28, align 8, !dbg !1143
  %30 = insertvalue { i64, i64 } undef, i64 %27, 0, !dbg !1143
  %31 = insertvalue { i64, i64 } %30, i64 %29, 1, !dbg !1143
  ret { i64, i64 } %31, !dbg !1143
}

; core::ops::function::FnMut::call_mut
; Function Attrs: inlinehint nonlazybind uwtable
define internal zeroext i1 @_ZN4core3ops8function5FnMut8call_mut17hdb098b4208e965adE({}* align 1 %_1, i32* align 4 %0) unnamed_addr #0 !dbg !1144 {
start:
  %_1.dbg.spill = alloca {}*, align 8
  %_2 = alloca i32*, align 8
  store i32* %0, i32** %_2, align 8
  store {}* %_1, {}** %_1.dbg.spill, align 8
  call void @llvm.dbg.declare(metadata {}** %_1.dbg.spill, metadata !1156, metadata !DIExpression()), !dbg !1165
  call void @llvm.dbg.declare(metadata i32** %_2, metadata !1158, metadata !DIExpression()), !dbg !1165
  %1 = load i32*, i32** %_2, align 8, !dbg !1165, !nonnull !23, !align !456, !noundef !23
; call <i32 as alloc::vec::is_zero::IsZero>::is_zero
  %2 = call zeroext i1 @"_ZN51_$LT$i32$u20$as$u20$alloc..vec..is_zero..IsZero$GT$7is_zero17hd885cb56167bc602E"(i32* align 4 %1), !dbg !1165
  br label %bb1, !dbg !1165

bb1:                                              ; preds = %start
  ret i1 %2, !dbg !1165
}

; core::ops::function::FnOnce::call_once{{vtable.shim}}
; Function Attrs: inlinehint nonlazybind uwtable
define internal i32 @"_ZN4core3ops8function6FnOnce40call_once$u7b$$u7b$vtable.shim$u7d$$u7d$17hf3480924c578e713E"(i64** %_1) unnamed_addr #0 !dbg !1166 {
start:
  %_1.dbg.spill = alloca i64**, align 8
  %_2 = alloca {}, align 1
  store i64** %_1, i64*** %_1.dbg.spill, align 8
  call void @llvm.dbg.declare(metadata i64*** %_1.dbg.spill, metadata !1172, metadata !DIExpression()), !dbg !1177
  call void @llvm.dbg.declare(metadata {}* %_2, metadata !1173, metadata !DIExpression()), !dbg !1177
  %0 = load i64*, i64** %_1, align 8, !dbg !1177, !nonnull !23, !noundef !23
; call core::ops::function::FnOnce::call_once
  %1 = call i32 @_ZN4core3ops8function6FnOnce9call_once17hc939b7f1fb900d6aE(i64* %0), !dbg !1177
  br label %bb1, !dbg !1177

bb1:                                              ; preds = %start
  ret i32 %1, !dbg !1177
}

; core::ops::function::FnOnce::call_once
; Function Attrs: inlinehint nonlazybind uwtable
define internal void @_ZN4core3ops8function6FnOnce9call_once17h2aaf47d9463627a6E() unnamed_addr #0 personality i32 (i32, i32, i64, %"unwind::libunwind::_Unwind_Exception"*, %"unwind::libunwind::_Unwind_Context"*)* @rust_eh_personality !dbg !1178 {
start:
  %0 = alloca { i8*, i32 }, align 8
  %_2 = alloca {}, align 1
  %_1 = alloca %"[closure@src/test_uninitialized.rs:11:1: 23:2]", align 1
  call void @llvm.dbg.declare(metadata %"[closure@src/test_uninitialized.rs:11:1: 23:2]"* %_1, metadata !1186, metadata !DIExpression()), !dbg !1190
  call void @llvm.dbg.declare(metadata {}* %_2, metadata !1187, metadata !DIExpression()), !dbg !1190
; invoke misc_tests::test_uninitialized::test_buffer::{{closure}}
  invoke void @"_ZN10misc_tests18test_uninitialized11test_buffer28_$u7b$$u7b$closure$u7d$$u7d$17h55bee68f352943a6E"(%"[closure@src/test_uninitialized.rs:11:1: 23:2]"* align 1 %_1)
          to label %bb1 unwind label %cleanup, !dbg !1190

bb3:                                              ; preds = %cleanup
  br label %bb4, !dbg !1190

cleanup:                                          ; preds = %start
  %1 = landingpad { i8*, i32 }
          cleanup
  %2 = extractvalue { i8*, i32 } %1, 0
  %3 = extractvalue { i8*, i32 } %1, 1
  %4 = getelementptr inbounds { i8*, i32 }, { i8*, i32 }* %0, i32 0, i32 0
  store i8* %2, i8** %4, align 8
  %5 = getelementptr inbounds { i8*, i32 }, { i8*, i32 }* %0, i32 0, i32 1
  store i32 %3, i32* %5, align 8
  br label %bb3

bb1:                                              ; preds = %start
  br label %bb2, !dbg !1190

bb4:                                              ; preds = %bb3
  %6 = bitcast { i8*, i32 }* %0 to i8**, !dbg !1190
  %7 = load i8*, i8** %6, align 8, !dbg !1190
  %8 = getelementptr inbounds { i8*, i32 }, { i8*, i32 }* %0, i32 0, i32 1, !dbg !1190
  %9 = load i32, i32* %8, align 8, !dbg !1190
  %10 = insertvalue { i8*, i32 } undef, i8* %7, 0, !dbg !1190
  %11 = insertvalue { i8*, i32 } %10, i32 %9, 1, !dbg !1190
  resume { i8*, i32 } %11, !dbg !1190

bb2:                                              ; preds = %bb1
  ret void, !dbg !1190
}

; core::ops::function::FnOnce::call_once
; Function Attrs: inlinehint nonlazybind uwtable
define internal void @_ZN4core3ops8function6FnOnce9call_once17h3ccad5d1263d321bE() unnamed_addr #0 personality i32 (i32, i32, i64, %"unwind::libunwind::_Unwind_Exception"*, %"unwind::libunwind::_Unwind_Context"*)* @rust_eh_personality !dbg !1191 {
start:
  %0 = alloca { i8*, i32 }, align 8
  %_2 = alloca {}, align 1
  %_1 = alloca %"[closure@src/test_quicksort.rs:46:1: 61:2]", align 1
  call void @llvm.dbg.declare(metadata %"[closure@src/test_quicksort.rs:46:1: 61:2]"* %_1, metadata !1198, metadata !DIExpression()), !dbg !1202
  call void @llvm.dbg.declare(metadata {}* %_2, metadata !1199, metadata !DIExpression()), !dbg !1202
; invoke misc_tests::test_quicksort::test_quicksort::{{closure}}
  invoke void @"_ZN10misc_tests14test_quicksort14test_quicksort28_$u7b$$u7b$closure$u7d$$u7d$17hfa9fc962a9d803daE"(%"[closure@src/test_quicksort.rs:46:1: 61:2]"* align 1 %_1)
          to label %bb1 unwind label %cleanup, !dbg !1202

bb3:                                              ; preds = %cleanup
  br label %bb4, !dbg !1202

cleanup:                                          ; preds = %start
  %1 = landingpad { i8*, i32 }
          cleanup
  %2 = extractvalue { i8*, i32 } %1, 0
  %3 = extractvalue { i8*, i32 } %1, 1
  %4 = getelementptr inbounds { i8*, i32 }, { i8*, i32 }* %0, i32 0, i32 0
  store i8* %2, i8** %4, align 8
  %5 = getelementptr inbounds { i8*, i32 }, { i8*, i32 }* %0, i32 0, i32 1
  store i32 %3, i32* %5, align 8
  br label %bb3

bb1:                                              ; preds = %start
  br label %bb2, !dbg !1202

bb4:                                              ; preds = %bb3
  %6 = bitcast { i8*, i32 }* %0 to i8**, !dbg !1202
  %7 = load i8*, i8** %6, align 8, !dbg !1202
  %8 = getelementptr inbounds { i8*, i32 }, { i8*, i32 }* %0, i32 0, i32 1, !dbg !1202
  %9 = load i32, i32* %8, align 8, !dbg !1202
  %10 = insertvalue { i8*, i32 } undef, i8* %7, 0, !dbg !1202
  %11 = insertvalue { i8*, i32 } %10, i32 %9, 1, !dbg !1202
  resume { i8*, i32 } %11, !dbg !1202

bb2:                                              ; preds = %bb1
  ret void, !dbg !1202
}

; core::ops::function::FnOnce::call_once
; Function Attrs: inlinehint nonlazybind uwtable
define internal void @_ZN4core3ops8function6FnOnce9call_once17h469d1cfeae6a1c89E() unnamed_addr #0 personality i32 (i32, i32, i64, %"unwind::libunwind::_Unwind_Exception"*, %"unwind::libunwind::_Unwind_Context"*)* @rust_eh_personality !dbg !1203 {
start:
  %0 = alloca { i8*, i32 }, align 8
  %_2 = alloca {}, align 1
  %_1 = alloca %"[closure@src/test_typedef.rs:11:1: 27:2]", align 1
  call void @llvm.dbg.declare(metadata %"[closure@src/test_typedef.rs:11:1: 27:2]"* %_1, metadata !1210, metadata !DIExpression()), !dbg !1214
  call void @llvm.dbg.declare(metadata {}* %_2, metadata !1211, metadata !DIExpression()), !dbg !1214
; invoke misc_tests::test_typedef::test_typedef::{{closure}}
  invoke void @"_ZN10misc_tests12test_typedef12test_typedef28_$u7b$$u7b$closure$u7d$$u7d$17hd7b10812bb99a067E"(%"[closure@src/test_typedef.rs:11:1: 27:2]"* align 1 %_1)
          to label %bb1 unwind label %cleanup, !dbg !1214

bb3:                                              ; preds = %cleanup
  br label %bb4, !dbg !1214

cleanup:                                          ; preds = %start
  %1 = landingpad { i8*, i32 }
          cleanup
  %2 = extractvalue { i8*, i32 } %1, 0
  %3 = extractvalue { i8*, i32 } %1, 1
  %4 = getelementptr inbounds { i8*, i32 }, { i8*, i32 }* %0, i32 0, i32 0
  store i8* %2, i8** %4, align 8
  %5 = getelementptr inbounds { i8*, i32 }, { i8*, i32 }* %0, i32 0, i32 1
  store i32 %3, i32* %5, align 8
  br label %bb3

bb1:                                              ; preds = %start
  br label %bb2, !dbg !1214

bb4:                                              ; preds = %bb3
  %6 = bitcast { i8*, i32 }* %0 to i8**, !dbg !1214
  %7 = load i8*, i8** %6, align 8, !dbg !1214
  %8 = getelementptr inbounds { i8*, i32 }, { i8*, i32 }* %0, i32 0, i32 1, !dbg !1214
  %9 = load i32, i32* %8, align 8, !dbg !1214
  %10 = insertvalue { i8*, i32 } undef, i8* %7, 0, !dbg !1214
  %11 = insertvalue { i8*, i32 } %10, i32 %9, 1, !dbg !1214
  resume { i8*, i32 } %11, !dbg !1214

bb2:                                              ; preds = %bb1
  ret void, !dbg !1214
}

; core::ops::function::FnOnce::call_once
; Function Attrs: inlinehint nonlazybind uwtable
define internal void @_ZN4core3ops8function6FnOnce9call_once17h674999c85c10c66bE() unnamed_addr #0 personality i32 (i32, i32, i64, %"unwind::libunwind::_Unwind_Exception"*, %"unwind::libunwind::_Unwind_Context"*)* @rust_eh_personality !dbg !1215 {
start:
  %0 = alloca { i8*, i32 }, align 8
  %_2 = alloca {}, align 1
  %_1 = alloca %"[closure@src/test_memory.rs:31:1: 43:2]", align 1
  call void @llvm.dbg.declare(metadata %"[closure@src/test_memory.rs:31:1: 43:2]"* %_1, metadata !1222, metadata !DIExpression()), !dbg !1226
  call void @llvm.dbg.declare(metadata {}* %_2, metadata !1223, metadata !DIExpression()), !dbg !1226
; invoke misc_tests::test_memory::test_memset::{{closure}}
  invoke void @"_ZN10misc_tests11test_memory11test_memset28_$u7b$$u7b$closure$u7d$$u7d$17h57776ad2bc7b9083E"(%"[closure@src/test_memory.rs:31:1: 43:2]"* align 1 %_1)
          to label %bb1 unwind label %cleanup, !dbg !1226

bb3:                                              ; preds = %cleanup
  br label %bb4, !dbg !1226

cleanup:                                          ; preds = %start
  %1 = landingpad { i8*, i32 }
          cleanup
  %2 = extractvalue { i8*, i32 } %1, 0
  %3 = extractvalue { i8*, i32 } %1, 1
  %4 = getelementptr inbounds { i8*, i32 }, { i8*, i32 }* %0, i32 0, i32 0
  store i8* %2, i8** %4, align 8
  %5 = getelementptr inbounds { i8*, i32 }, { i8*, i32 }* %0, i32 0, i32 1
  store i32 %3, i32* %5, align 8
  br label %bb3

bb1:                                              ; preds = %start
  br label %bb2, !dbg !1226

bb4:                                              ; preds = %bb3
  %6 = bitcast { i8*, i32 }* %0 to i8**, !dbg !1226
  %7 = load i8*, i8** %6, align 8, !dbg !1226
  %8 = getelementptr inbounds { i8*, i32 }, { i8*, i32 }* %0, i32 0, i32 1, !dbg !1226
  %9 = load i32, i32* %8, align 8, !dbg !1226
  %10 = insertvalue { i8*, i32 } undef, i8* %7, 0, !dbg !1226
  %11 = insertvalue { i8*, i32 } %10, i32 %9, 1, !dbg !1226
  resume { i8*, i32 } %11, !dbg !1226

bb2:                                              ; preds = %bb1
  ret void, !dbg !1226
}

; core::ops::function::FnOnce::call_once
; Function Attrs: inlinehint nonlazybind uwtable
define internal void @_ZN4core3ops8function6FnOnce9call_once17h9213feb16ac2742eE() unnamed_addr #0 personality i32 (i32, i32, i64, %"unwind::libunwind::_Unwind_Exception"*, %"unwind::libunwind::_Unwind_Context"*)* @rust_eh_personality !dbg !1227 {
start:
  %0 = alloca { i8*, i32 }, align 8
  %_2 = alloca {}, align 1
  %_1 = alloca %"[closure@src/test_exprs.rs:12:1: 24:2]", align 1
  call void @llvm.dbg.declare(metadata %"[closure@src/test_exprs.rs:12:1: 24:2]"* %_1, metadata !1234, metadata !DIExpression()), !dbg !1238
  call void @llvm.dbg.declare(metadata {}* %_2, metadata !1235, metadata !DIExpression()), !dbg !1238
; invoke misc_tests::test_exprs::test_exprs::{{closure}}
  invoke void @"_ZN10misc_tests10test_exprs10test_exprs28_$u7b$$u7b$closure$u7d$$u7d$17h0597e21984baff64E"(%"[closure@src/test_exprs.rs:12:1: 24:2]"* align 1 %_1)
          to label %bb1 unwind label %cleanup, !dbg !1238

bb3:                                              ; preds = %cleanup
  br label %bb4, !dbg !1238

cleanup:                                          ; preds = %start
  %1 = landingpad { i8*, i32 }
          cleanup
  %2 = extractvalue { i8*, i32 } %1, 0
  %3 = extractvalue { i8*, i32 } %1, 1
  %4 = getelementptr inbounds { i8*, i32 }, { i8*, i32 }* %0, i32 0, i32 0
  store i8* %2, i8** %4, align 8
  %5 = getelementptr inbounds { i8*, i32 }, { i8*, i32 }* %0, i32 0, i32 1
  store i32 %3, i32* %5, align 8
  br label %bb3

bb1:                                              ; preds = %start
  br label %bb2, !dbg !1238

bb4:                                              ; preds = %bb3
  %6 = bitcast { i8*, i32 }* %0 to i8**, !dbg !1238
  %7 = load i8*, i8** %6, align 8, !dbg !1238
  %8 = getelementptr inbounds { i8*, i32 }, { i8*, i32 }* %0, i32 0, i32 1, !dbg !1238
  %9 = load i32, i32* %8, align 8, !dbg !1238
  %10 = insertvalue { i8*, i32 } undef, i8* %7, 0, !dbg !1238
  %11 = insertvalue { i8*, i32 } %10, i32 %9, 1, !dbg !1238
  resume { i8*, i32 } %11, !dbg !1238

bb2:                                              ; preds = %bb1
  ret void, !dbg !1238
}

; core::ops::function::FnOnce::call_once
; Function Attrs: inlinehint nonlazybind uwtable
define internal void @_ZN4core3ops8function6FnOnce9call_once17hc2838c4de4ab2d20E() unnamed_addr #0 personality i32 (i32, i32, i64, %"unwind::libunwind::_Unwind_Exception"*, %"unwind::libunwind::_Unwind_Context"*)* @rust_eh_personality !dbg !1239 {
start:
  %0 = alloca { i8*, i32 }, align 8
  %_2 = alloca {}, align 1
  %_1 = alloca %"[closure@src/test_lvalues.rs:12:1: 24:2]", align 1
  call void @llvm.dbg.declare(metadata %"[closure@src/test_lvalues.rs:12:1: 24:2]"* %_1, metadata !1246, metadata !DIExpression()), !dbg !1250
  call void @llvm.dbg.declare(metadata {}* %_2, metadata !1247, metadata !DIExpression()), !dbg !1250
; invoke misc_tests::test_lvalues::test_lvalue::{{closure}}
  invoke void @"_ZN10misc_tests12test_lvalues11test_lvalue28_$u7b$$u7b$closure$u7d$$u7d$17h5e512760a21da14cE"(%"[closure@src/test_lvalues.rs:12:1: 24:2]"* align 1 %_1)
          to label %bb1 unwind label %cleanup, !dbg !1250

bb3:                                              ; preds = %cleanup
  br label %bb4, !dbg !1250

cleanup:                                          ; preds = %start
  %1 = landingpad { i8*, i32 }
          cleanup
  %2 = extractvalue { i8*, i32 } %1, 0
  %3 = extractvalue { i8*, i32 } %1, 1
  %4 = getelementptr inbounds { i8*, i32 }, { i8*, i32 }* %0, i32 0, i32 0
  store i8* %2, i8** %4, align 8
  %5 = getelementptr inbounds { i8*, i32 }, { i8*, i32 }* %0, i32 0, i32 1
  store i32 %3, i32* %5, align 8
  br label %bb3

bb1:                                              ; preds = %start
  br label %bb2, !dbg !1250

bb4:                                              ; preds = %bb3
  %6 = bitcast { i8*, i32 }* %0 to i8**, !dbg !1250
  %7 = load i8*, i8** %6, align 8, !dbg !1250
  %8 = getelementptr inbounds { i8*, i32 }, { i8*, i32 }* %0, i32 0, i32 1, !dbg !1250
  %9 = load i32, i32* %8, align 8, !dbg !1250
  %10 = insertvalue { i8*, i32 } undef, i8* %7, 0, !dbg !1250
  %11 = insertvalue { i8*, i32 } %10, i32 %9, 1, !dbg !1250
  resume { i8*, i32 } %11, !dbg !1250

bb2:                                              ; preds = %bb1
  ret void, !dbg !1250
}

; core::ops::function::FnOnce::call_once
; Function Attrs: inlinehint nonlazybind uwtable
define internal i32 @_ZN4core3ops8function6FnOnce9call_once17hc939b7f1fb900d6aE(i64* %0) unnamed_addr #0 personality i32 (i32, i32, i64, %"unwind::libunwind::_Unwind_Exception"*, %"unwind::libunwind::_Unwind_Context"*)* @rust_eh_personality !dbg !1251 {
start:
  %1 = alloca { i8*, i32 }, align 8
  %_2 = alloca {}, align 1
  %_1 = alloca i64*, align 8
  store i64* %0, i64** %_1, align 8
  call void @llvm.dbg.declare(metadata i64** %_1, metadata !1255, metadata !DIExpression()), !dbg !1257
  call void @llvm.dbg.declare(metadata {}* %_2, metadata !1256, metadata !DIExpression()), !dbg !1257
; invoke std::rt::lang_start::{{closure}}
  %2 = invoke i32 @"_ZN3std2rt10lang_start28_$u7b$$u7b$closure$u7d$$u7d$17h9976755c369c8586E"(i64** align 8 %_1)
          to label %bb1 unwind label %cleanup, !dbg !1257

bb3:                                              ; preds = %cleanup
  br label %bb4, !dbg !1257

cleanup:                                          ; preds = %start
  %3 = landingpad { i8*, i32 }
          cleanup
  %4 = extractvalue { i8*, i32 } %3, 0
  %5 = extractvalue { i8*, i32 } %3, 1
  %6 = getelementptr inbounds { i8*, i32 }, { i8*, i32 }* %1, i32 0, i32 0
  store i8* %4, i8** %6, align 8
  %7 = getelementptr inbounds { i8*, i32 }, { i8*, i32 }* %1, i32 0, i32 1
  store i32 %5, i32* %7, align 8
  br label %bb3

bb1:                                              ; preds = %start
  br label %bb2, !dbg !1257

bb4:                                              ; preds = %bb3
  %8 = bitcast { i8*, i32 }* %1 to i8**, !dbg !1257
  %9 = load i8*, i8** %8, align 8, !dbg !1257
  %10 = getelementptr inbounds { i8*, i32 }, { i8*, i32 }* %1, i32 0, i32 1, !dbg !1257
  %11 = load i32, i32* %10, align 8, !dbg !1257
  %12 = insertvalue { i8*, i32 } undef, i8* %9, 0, !dbg !1257
  %13 = insertvalue { i8*, i32 } %12, i32 %11, 1, !dbg !1257
  resume { i8*, i32 } %13, !dbg !1257

bb2:                                              ; preds = %bb1
  ret i32 %2, !dbg !1257
}

; core::ops::function::FnOnce::call_once
; Function Attrs: inlinehint nonlazybind uwtable
define internal void @_ZN4core3ops8function6FnOnce9call_once17hcb538e4adf9693b7E(void ()* %_1) unnamed_addr #0 !dbg !1258 {
start:
  %_1.dbg.spill = alloca void ()*, align 8
  %_2 = alloca {}, align 1
  store void ()* %_1, void ()** %_1.dbg.spill, align 8
  call void @llvm.dbg.declare(metadata void ()** %_1.dbg.spill, metadata !1260, metadata !DIExpression()), !dbg !1264
  call void @llvm.dbg.declare(metadata {}* %_2, metadata !1261, metadata !DIExpression()), !dbg !1264
  call void %_1(), !dbg !1264
  br label %bb1, !dbg !1264

bb1:                                              ; preds = %start
  ret void, !dbg !1264
}

; core::ops::function::FnOnce::call_once
; Function Attrs: inlinehint nonlazybind uwtable
define internal void @_ZN4core3ops8function6FnOnce9call_once17hd249bbf57cc3d7e7E() unnamed_addr #0 personality i32 (i32, i32, i64, %"unwind::libunwind::_Unwind_Exception"*, %"unwind::libunwind::_Unwind_Context"*)* @rust_eh_personality !dbg !1265 {
start:
  %0 = alloca { i8*, i32 }, align 8
  %_2 = alloca {}, align 1
  %_1 = alloca %"[closure@src/test_quicksort.rs:14:1: 28:2]", align 1
  call void @llvm.dbg.declare(metadata %"[closure@src/test_quicksort.rs:14:1: 28:2]"* %_1, metadata !1271, metadata !DIExpression()), !dbg !1275
  call void @llvm.dbg.declare(metadata {}* %_2, metadata !1272, metadata !DIExpression()), !dbg !1275
; invoke misc_tests::test_quicksort::test_swap::{{closure}}
  invoke void @"_ZN10misc_tests14test_quicksort9test_swap28_$u7b$$u7b$closure$u7d$$u7d$17hc7ae43fd07ef6aa0E"(%"[closure@src/test_quicksort.rs:14:1: 28:2]"* align 1 %_1)
          to label %bb1 unwind label %cleanup, !dbg !1275

bb3:                                              ; preds = %cleanup
  br label %bb4, !dbg !1275

cleanup:                                          ; preds = %start
  %1 = landingpad { i8*, i32 }
          cleanup
  %2 = extractvalue { i8*, i32 } %1, 0
  %3 = extractvalue { i8*, i32 } %1, 1
  %4 = getelementptr inbounds { i8*, i32 }, { i8*, i32 }* %0, i32 0, i32 0
  store i8* %2, i8** %4, align 8
  %5 = getelementptr inbounds { i8*, i32 }, { i8*, i32 }* %0, i32 0, i32 1
  store i32 %3, i32* %5, align 8
  br label %bb3

bb1:                                              ; preds = %start
  br label %bb2, !dbg !1275

bb4:                                              ; preds = %bb3
  %6 = bitcast { i8*, i32 }* %0 to i8**, !dbg !1275
  %7 = load i8*, i8** %6, align 8, !dbg !1275
  %8 = getelementptr inbounds { i8*, i32 }, { i8*, i32 }* %0, i32 0, i32 1, !dbg !1275
  %9 = load i32, i32* %8, align 8, !dbg !1275
  %10 = insertvalue { i8*, i32 } undef, i8* %7, 0, !dbg !1275
  %11 = insertvalue { i8*, i32 } %10, i32 %9, 1, !dbg !1275
  resume { i8*, i32 } %11, !dbg !1275

bb2:                                              ; preds = %bb1
  ret void, !dbg !1275
}

; core::ops::function::FnOnce::call_once
; Function Attrs: inlinehint nonlazybind uwtable
define internal void @_ZN4core3ops8function6FnOnce9call_once17hd4e7d2f2cde61ecfE() unnamed_addr #0 personality i32 (i32, i32, i64, %"unwind::libunwind::_Unwind_Exception"*, %"unwind::libunwind::_Unwind_Context"*)* @rust_eh_personality !dbg !1276 {
start:
  %0 = alloca { i8*, i32 }, align 8
  %_2 = alloca {}, align 1
  %_1 = alloca %"[closure@src/test_shadowing.rs:14:1: 21:2]", align 1
  call void @llvm.dbg.declare(metadata %"[closure@src/test_shadowing.rs:14:1: 21:2]"* %_1, metadata !1283, metadata !DIExpression()), !dbg !1287
  call void @llvm.dbg.declare(metadata {}* %_2, metadata !1284, metadata !DIExpression()), !dbg !1287
; invoke misc_tests::test_shadowing::test_twice::{{closure}}
  invoke void @"_ZN10misc_tests14test_shadowing10test_twice28_$u7b$$u7b$closure$u7d$$u7d$17h91511127ca1da4aeE"(%"[closure@src/test_shadowing.rs:14:1: 21:2]"* align 1 %_1)
          to label %bb1 unwind label %cleanup, !dbg !1287

bb3:                                              ; preds = %cleanup
  br label %bb4, !dbg !1287

cleanup:                                          ; preds = %start
  %1 = landingpad { i8*, i32 }
          cleanup
  %2 = extractvalue { i8*, i32 } %1, 0
  %3 = extractvalue { i8*, i32 } %1, 1
  %4 = getelementptr inbounds { i8*, i32 }, { i8*, i32 }* %0, i32 0, i32 0
  store i8* %2, i8** %4, align 8
  %5 = getelementptr inbounds { i8*, i32 }, { i8*, i32 }* %0, i32 0, i32 1
  store i32 %3, i32* %5, align 8
  br label %bb3

bb1:                                              ; preds = %start
  br label %bb2, !dbg !1287

bb4:                                              ; preds = %bb3
  %6 = bitcast { i8*, i32 }* %0 to i8**, !dbg !1287
  %7 = load i8*, i8** %6, align 8, !dbg !1287
  %8 = getelementptr inbounds { i8*, i32 }, { i8*, i32 }* %0, i32 0, i32 1, !dbg !1287
  %9 = load i32, i32* %8, align 8, !dbg !1287
  %10 = insertvalue { i8*, i32 } undef, i8* %7, 0, !dbg !1287
  %11 = insertvalue { i8*, i32 } %10, i32 %9, 1, !dbg !1287
  resume { i8*, i32 } %11, !dbg !1287

bb2:                                              ; preds = %bb1
  ret void, !dbg !1287
}

; core::ops::function::FnOnce::call_once
; Function Attrs: inlinehint nonlazybind uwtable
define internal void @_ZN4core3ops8function6FnOnce9call_once17he6cfa5965298963dE() unnamed_addr #0 personality i32 (i32, i32, i64, %"unwind::libunwind::_Unwind_Exception"*, %"unwind::libunwind::_Unwind_Context"*)* @rust_eh_personality !dbg !1288 {
start:
  %0 = alloca { i8*, i32 }, align 8
  %_2 = alloca {}, align 1
  %_1 = alloca %"[closure@src/test_sizeofs.rs:14:1: 26:2]", align 1
  call void @llvm.dbg.declare(metadata %"[closure@src/test_sizeofs.rs:14:1: 26:2]"* %_1, metadata !1295, metadata !DIExpression()), !dbg !1299
  call void @llvm.dbg.declare(metadata {}* %_2, metadata !1296, metadata !DIExpression()), !dbg !1299
; invoke misc_tests::test_sizeofs::test_sizeofs::{{closure}}
  invoke void @"_ZN10misc_tests12test_sizeofs12test_sizeofs28_$u7b$$u7b$closure$u7d$$u7d$17h7ba3292778a18d8aE"(%"[closure@src/test_sizeofs.rs:14:1: 26:2]"* align 1 %_1)
          to label %bb1 unwind label %cleanup, !dbg !1299

bb3:                                              ; preds = %cleanup
  br label %bb4, !dbg !1299

cleanup:                                          ; preds = %start
  %1 = landingpad { i8*, i32 }
          cleanup
  %2 = extractvalue { i8*, i32 } %1, 0
  %3 = extractvalue { i8*, i32 } %1, 1
  %4 = getelementptr inbounds { i8*, i32 }, { i8*, i32 }* %0, i32 0, i32 0
  store i8* %2, i8** %4, align 8
  %5 = getelementptr inbounds { i8*, i32 }, { i8*, i32 }* %0, i32 0, i32 1
  store i32 %3, i32* %5, align 8
  br label %bb3

bb1:                                              ; preds = %start
  br label %bb2, !dbg !1299

bb4:                                              ; preds = %bb3
  %6 = bitcast { i8*, i32 }* %0 to i8**, !dbg !1299
  %7 = load i8*, i8** %6, align 8, !dbg !1299
  %8 = getelementptr inbounds { i8*, i32 }, { i8*, i32 }* %0, i32 0, i32 1, !dbg !1299
  %9 = load i32, i32* %8, align 8, !dbg !1299
  %10 = insertvalue { i8*, i32 } undef, i8* %7, 0, !dbg !1299
  %11 = insertvalue { i8*, i32 } %10, i32 %9, 1, !dbg !1299
  resume { i8*, i32 } %11, !dbg !1299

bb2:                                              ; preds = %bb1
  ret void, !dbg !1299
}

; core::ops::function::FnOnce::call_once
; Function Attrs: inlinehint nonlazybind uwtable
define internal void @_ZN4core3ops8function6FnOnce9call_once17hef526dcca281d131E() unnamed_addr #0 personality i32 (i32, i32, i64, %"unwind::libunwind::_Unwind_Exception"*, %"unwind::libunwind::_Unwind_Context"*)* @rust_eh_personality !dbg !1300 {
start:
  %0 = alloca { i8*, i32 }, align 8
  %_2 = alloca {}, align 1
  %_1 = alloca %"[closure@src/test_memory.rs:16:1: 28:2]", align 1
  call void @llvm.dbg.declare(metadata %"[closure@src/test_memory.rs:16:1: 28:2]"* %_1, metadata !1306, metadata !DIExpression()), !dbg !1310
  call void @llvm.dbg.declare(metadata {}* %_2, metadata !1307, metadata !DIExpression()), !dbg !1310
; invoke misc_tests::test_memory::test_malloc::{{closure}}
  invoke void @"_ZN10misc_tests11test_memory11test_malloc28_$u7b$$u7b$closure$u7d$$u7d$17h4c6d6ecf073736baE"(%"[closure@src/test_memory.rs:16:1: 28:2]"* align 1 %_1)
          to label %bb1 unwind label %cleanup, !dbg !1310

bb3:                                              ; preds = %cleanup
  br label %bb4, !dbg !1310

cleanup:                                          ; preds = %start
  %1 = landingpad { i8*, i32 }
          cleanup
  %2 = extractvalue { i8*, i32 } %1, 0
  %3 = extractvalue { i8*, i32 } %1, 1
  %4 = getelementptr inbounds { i8*, i32 }, { i8*, i32 }* %0, i32 0, i32 0
  store i8* %2, i8** %4, align 8
  %5 = getelementptr inbounds { i8*, i32 }, { i8*, i32 }* %0, i32 0, i32 1
  store i32 %3, i32* %5, align 8
  br label %bb3

bb1:                                              ; preds = %start
  br label %bb2, !dbg !1310

bb4:                                              ; preds = %bb3
  %6 = bitcast { i8*, i32 }* %0 to i8**, !dbg !1310
  %7 = load i8*, i8** %6, align 8, !dbg !1310
  %8 = getelementptr inbounds { i8*, i32 }, { i8*, i32 }* %0, i32 0, i32 1, !dbg !1310
  %9 = load i32, i32* %8, align 8, !dbg !1310
  %10 = insertvalue { i8*, i32 } undef, i8* %7, 0, !dbg !1310
  %11 = insertvalue { i8*, i32 } %10, i32 %9, 1, !dbg !1310
  resume { i8*, i32 } %11, !dbg !1310

bb2:                                              ; preds = %bb1
  ret void, !dbg !1310
}

; core::ops::function::FnOnce::call_once
; Function Attrs: inlinehint nonlazybind uwtable
define internal void @_ZN4core3ops8function6FnOnce9call_once17hf3fbbd19834e62dcE() unnamed_addr #0 personality i32 (i32, i32, i64, %"unwind::libunwind::_Unwind_Exception"*, %"unwind::libunwind::_Unwind_Context"*)* @rust_eh_personality !dbg !1311 {
start:
  %0 = alloca { i8*, i32 }, align 8
  %_2 = alloca {}, align 1
  %_1 = alloca %"[closure@src/test_shadowing.rs:24:1: 36:2]", align 1
  call void @llvm.dbg.declare(metadata %"[closure@src/test_shadowing.rs:24:1: 36:2]"* %_1, metadata !1317, metadata !DIExpression()), !dbg !1321
  call void @llvm.dbg.declare(metadata {}* %_2, metadata !1318, metadata !DIExpression()), !dbg !1321
; invoke misc_tests::test_shadowing::test_shadowing::{{closure}}
  invoke void @"_ZN10misc_tests14test_shadowing14test_shadowing28_$u7b$$u7b$closure$u7d$$u7d$17h21f84b91f0cde026E"(%"[closure@src/test_shadowing.rs:24:1: 36:2]"* align 1 %_1)
          to label %bb1 unwind label %cleanup, !dbg !1321

bb3:                                              ; preds = %cleanup
  br label %bb4, !dbg !1321

cleanup:                                          ; preds = %start
  %1 = landingpad { i8*, i32 }
          cleanup
  %2 = extractvalue { i8*, i32 } %1, 0
  %3 = extractvalue { i8*, i32 } %1, 1
  %4 = getelementptr inbounds { i8*, i32 }, { i8*, i32 }* %0, i32 0, i32 0
  store i8* %2, i8** %4, align 8
  %5 = getelementptr inbounds { i8*, i32 }, { i8*, i32 }* %0, i32 0, i32 1
  store i32 %3, i32* %5, align 8
  br label %bb3

bb1:                                              ; preds = %start
  br label %bb2, !dbg !1321

bb4:                                              ; preds = %bb3
  %6 = bitcast { i8*, i32 }* %0 to i8**, !dbg !1321
  %7 = load i8*, i8** %6, align 8, !dbg !1321
  %8 = getelementptr inbounds { i8*, i32 }, { i8*, i32 }* %0, i32 0, i32 1, !dbg !1321
  %9 = load i32, i32* %8, align 8, !dbg !1321
  %10 = insertvalue { i8*, i32 } undef, i8* %7, 0, !dbg !1321
  %11 = insertvalue { i8*, i32 } %10, i32 %9, 1, !dbg !1321
  resume { i8*, i32 } %11, !dbg !1321

bb2:                                              ; preds = %bb1
  ret void, !dbg !1321
}

; core::ops::function::FnOnce::call_once
; Function Attrs: inlinehint nonlazybind uwtable
define internal void @_ZN4core3ops8function6FnOnce9call_once17hf8231621d30575b0E() unnamed_addr #0 personality i32 (i32, i32, i64, %"unwind::libunwind::_Unwind_Exception"*, %"unwind::libunwind::_Unwind_Context"*)* @rust_eh_personality !dbg !1322 {
start:
  %0 = alloca { i8*, i32 }, align 8
  %_2 = alloca {}, align 1
  %_1 = alloca %"[closure@src/test_quicksort.rs:31:1: 43:2]", align 1
  call void @llvm.dbg.declare(metadata %"[closure@src/test_quicksort.rs:31:1: 43:2]"* %_1, metadata !1328, metadata !DIExpression()), !dbg !1332
  call void @llvm.dbg.declare(metadata {}* %_2, metadata !1329, metadata !DIExpression()), !dbg !1332
; invoke misc_tests::test_quicksort::test_partition::{{closure}}
  invoke void @"_ZN10misc_tests14test_quicksort14test_partition28_$u7b$$u7b$closure$u7d$$u7d$17he20c6d4d533c755dE"(%"[closure@src/test_quicksort.rs:31:1: 43:2]"* align 1 %_1)
          to label %bb1 unwind label %cleanup, !dbg !1332

bb3:                                              ; preds = %cleanup
  br label %bb4, !dbg !1332

cleanup:                                          ; preds = %start
  %1 = landingpad { i8*, i32 }
          cleanup
  %2 = extractvalue { i8*, i32 } %1, 0
  %3 = extractvalue { i8*, i32 } %1, 1
  %4 = getelementptr inbounds { i8*, i32 }, { i8*, i32 }* %0, i32 0, i32 0
  store i8* %2, i8** %4, align 8
  %5 = getelementptr inbounds { i8*, i32 }, { i8*, i32 }* %0, i32 0, i32 1
  store i32 %3, i32* %5, align 8
  br label %bb3

bb1:                                              ; preds = %start
  br label %bb2, !dbg !1332

bb4:                                              ; preds = %bb3
  %6 = bitcast { i8*, i32 }* %0 to i8**, !dbg !1332
  %7 = load i8*, i8** %6, align 8, !dbg !1332
  %8 = getelementptr inbounds { i8*, i32 }, { i8*, i32 }* %0, i32 0, i32 1, !dbg !1332
  %9 = load i32, i32* %8, align 8, !dbg !1332
  %10 = insertvalue { i8*, i32 } undef, i8* %7, 0, !dbg !1332
  %11 = insertvalue { i8*, i32 } %10, i32 %9, 1, !dbg !1332
  resume { i8*, i32 } %11, !dbg !1332

bb2:                                              ; preds = %bb1
  ret void, !dbg !1332
}

; core::ops::function::FnOnce::call_once
; Function Attrs: inlinehint nonlazybind uwtable
define internal void @_ZN4core3ops8function6FnOnce9call_once17hffcafe7089bcdb86E() unnamed_addr #0 personality i32 (i32, i32, i64, %"unwind::libunwind::_Unwind_Exception"*, %"unwind::libunwind::_Unwind_Context"*)* @rust_eh_personality !dbg !1333 {
start:
  %0 = alloca { i8*, i32 }, align 8
  %_2 = alloca {}, align 1
  %_1 = alloca %"[closure@src/test_uninitialized.rs:26:1: 39:2]", align 1
  call void @llvm.dbg.declare(metadata %"[closure@src/test_uninitialized.rs:26:1: 39:2]"* %_1, metadata !1339, metadata !DIExpression()), !dbg !1343
  call void @llvm.dbg.declare(metadata {}* %_2, metadata !1340, metadata !DIExpression()), !dbg !1343
; invoke misc_tests::test_uninitialized::test_types::{{closure}}
  invoke void @"_ZN10misc_tests18test_uninitialized10test_types28_$u7b$$u7b$closure$u7d$$u7d$17h62f328f61d4fc5a7E"(%"[closure@src/test_uninitialized.rs:26:1: 39:2]"* align 1 %_1)
          to label %bb1 unwind label %cleanup, !dbg !1343

bb3:                                              ; preds = %cleanup
  br label %bb4, !dbg !1343

cleanup:                                          ; preds = %start
  %1 = landingpad { i8*, i32 }
          cleanup
  %2 = extractvalue { i8*, i32 } %1, 0
  %3 = extractvalue { i8*, i32 } %1, 1
  %4 = getelementptr inbounds { i8*, i32 }, { i8*, i32 }* %0, i32 0, i32 0
  store i8* %2, i8** %4, align 8
  %5 = getelementptr inbounds { i8*, i32 }, { i8*, i32 }* %0, i32 0, i32 1
  store i32 %3, i32* %5, align 8
  br label %bb3

bb1:                                              ; preds = %start
  br label %bb2, !dbg !1343

bb4:                                              ; preds = %bb3
  %6 = bitcast { i8*, i32 }* %0 to i8**, !dbg !1343
  %7 = load i8*, i8** %6, align 8, !dbg !1343
  %8 = getelementptr inbounds { i8*, i32 }, { i8*, i32 }* %0, i32 0, i32 1, !dbg !1343
  %9 = load i32, i32* %8, align 8, !dbg !1343
  %10 = insertvalue { i8*, i32 } undef, i8* %7, 0, !dbg !1343
  %11 = insertvalue { i8*, i32 } %10, i32 %9, 1, !dbg !1343
  resume { i8*, i32 } %11, !dbg !1343

bb2:                                              ; preds = %bb1
  ret void, !dbg !1343
}

; core::ptr::drop_in_place<&i32>
; Function Attrs: inlinehint nonlazybind uwtable
define internal void @"_ZN4core3ptr28drop_in_place$LT$$RF$i32$GT$17h55f4c3eed93eff6cE"(i32** %_1) unnamed_addr #0 !dbg !1344 {
start:
  %_1.dbg.spill = alloca i32**, align 8
  store i32** %_1, i32*** %_1.dbg.spill, align 8
  call void @llvm.dbg.declare(metadata i32*** %_1.dbg.spill, metadata !1349, metadata !DIExpression()), !dbg !1350
  ret void, !dbg !1350
}

; core::ptr::drop_in_place<&()>
; Function Attrs: inlinehint nonlazybind uwtable
define internal void @"_ZN4core3ptr33drop_in_place$LT$$RF$$LP$$RP$$GT$17hc2274c1d1ec8c39aE"({}** %_1) unnamed_addr #0 !dbg !1351 {
start:
  %_1.dbg.spill = alloca {}**, align 8
  store {}** %_1, {}*** %_1.dbg.spill, align 8
  call void @llvm.dbg.declare(metadata {}*** %_1.dbg.spill, metadata !1356, metadata !DIExpression()), !dbg !1359
  ret void, !dbg !1359
}

; core::ptr::drop_in_place<alloc::vec::Vec<i32>>
; Function Attrs: nonlazybind uwtable
define internal void @"_ZN4core3ptr47drop_in_place$LT$alloc..vec..Vec$LT$i32$GT$$GT$17hc42f131b2d017f6fE"(%"alloc::vec::Vec<i32>"* %_1) unnamed_addr #2 personality i32 (i32, i32, i64, %"unwind::libunwind::_Unwind_Exception"*, %"unwind::libunwind::_Unwind_Context"*)* @rust_eh_personality !dbg !1360 {
start:
  %0 = alloca { i8*, i32 }, align 8
  %_1.dbg.spill = alloca %"alloc::vec::Vec<i32>"*, align 8
  store %"alloc::vec::Vec<i32>"* %_1, %"alloc::vec::Vec<i32>"** %_1.dbg.spill, align 8
  call void @llvm.dbg.declare(metadata %"alloc::vec::Vec<i32>"** %_1.dbg.spill, metadata !1384, metadata !DIExpression()), !dbg !1387
; invoke <alloc::vec::Vec<T,A> as core::ops::drop::Drop>::drop
  invoke void @"_ZN70_$LT$alloc..vec..Vec$LT$T$C$A$GT$$u20$as$u20$core..ops..drop..Drop$GT$4drop17h5df701328a99ba49E"(%"alloc::vec::Vec<i32>"* align 8 %_1)
          to label %bb4 unwind label %cleanup, !dbg !1387

bb3:                                              ; preds = %cleanup
  %1 = bitcast %"alloc::vec::Vec<i32>"* %_1 to { i32*, i64 }*, !dbg !1387
; invoke core::ptr::drop_in_place<alloc::raw_vec::RawVec<i32>>
  invoke void @"_ZN4core3ptr54drop_in_place$LT$alloc..raw_vec..RawVec$LT$i32$GT$$GT$17hb3aaa09deee1536aE"({ i32*, i64 }* %1) #17
          to label %bb1 unwind label %abort, !dbg !1387

cleanup:                                          ; preds = %start
  %2 = landingpad { i8*, i32 }
          cleanup
  %3 = extractvalue { i8*, i32 } %2, 0
  %4 = extractvalue { i8*, i32 } %2, 1
  %5 = getelementptr inbounds { i8*, i32 }, { i8*, i32 }* %0, i32 0, i32 0
  store i8* %3, i8** %5, align 8
  %6 = getelementptr inbounds { i8*, i32 }, { i8*, i32 }* %0, i32 0, i32 1
  store i32 %4, i32* %6, align 8
  br label %bb3

bb4:                                              ; preds = %start
  %7 = bitcast %"alloc::vec::Vec<i32>"* %_1 to { i32*, i64 }*, !dbg !1387
; call core::ptr::drop_in_place<alloc::raw_vec::RawVec<i32>>
  call void @"_ZN4core3ptr54drop_in_place$LT$alloc..raw_vec..RawVec$LT$i32$GT$$GT$17hb3aaa09deee1536aE"({ i32*, i64 }* %7), !dbg !1387
  br label %bb2, !dbg !1387

abort:                                            ; preds = %bb3
  %8 = landingpad { i8*, i32 }
          cleanup, !dbg !1387
; call core::panicking::panic_no_unwind
  call void @_ZN4core9panicking15panic_no_unwind17h62f8113f44cbfcbfE() #18, !dbg !1387
  unreachable, !dbg !1387

bb1:                                              ; preds = %bb3
  %9 = bitcast { i8*, i32 }* %0 to i8**, !dbg !1387
  %10 = load i8*, i8** %9, align 8, !dbg !1387
  %11 = getelementptr inbounds { i8*, i32 }, { i8*, i32 }* %0, i32 0, i32 1, !dbg !1387
  %12 = load i32, i32* %11, align 8, !dbg !1387
  %13 = insertvalue { i8*, i32 } undef, i8* %10, 0, !dbg !1387
  %14 = insertvalue { i8*, i32 } %13, i32 %12, 1, !dbg !1387
  resume { i8*, i32 } %14, !dbg !1387

bb2:                                              ; preds = %bb4
  ret void, !dbg !1387
}

; core::ptr::drop_in_place<&[i32; 1]>
; Function Attrs: inlinehint nonlazybind uwtable
define internal void @"_ZN4core3ptr49drop_in_place$LT$$RF$$u5b$i32$u3b$$u20$1$u5d$$GT$17hd984f955d0e1083dE"([1 x i32]** %_1) unnamed_addr #0 !dbg !1388 {
start:
  %_1.dbg.spill = alloca [1 x i32]**, align 8
  store [1 x i32]** %_1, [1 x i32]*** %_1.dbg.spill, align 8
  call void @llvm.dbg.declare(metadata [1 x i32]*** %_1.dbg.spill, metadata !1393, metadata !DIExpression()), !dbg !1396
  ret void, !dbg !1396
}

; core::ptr::drop_in_place<&[i32; 3]>
; Function Attrs: inlinehint nonlazybind uwtable
define internal void @"_ZN4core3ptr49drop_in_place$LT$$RF$$u5b$i32$u3b$$u20$3$u5d$$GT$17h0af8c2383515be9bE"([3 x i32]** %_1) unnamed_addr #0 !dbg !1397 {
start:
  %_1.dbg.spill = alloca [3 x i32]**, align 8
  store [3 x i32]** %_1, [3 x i32]*** %_1.dbg.spill, align 8
  call void @llvm.dbg.declare(metadata [3 x i32]*** %_1.dbg.spill, metadata !1402, metadata !DIExpression()), !dbg !1405
  ret void, !dbg !1405
}

; core::ptr::drop_in_place<&[i32; 5]>
; Function Attrs: inlinehint nonlazybind uwtable
define internal void @"_ZN4core3ptr49drop_in_place$LT$$RF$$u5b$i32$u3b$$u20$5$u5d$$GT$17h55c2f46b5138ef3cE"([5 x i32]** %_1) unnamed_addr #0 !dbg !1406 {
start:
  %_1.dbg.spill = alloca [5 x i32]**, align 8
  store [5 x i32]** %_1, [5 x i32]*** %_1.dbg.spill, align 8
  call void @llvm.dbg.declare(metadata [5 x i32]*** %_1.dbg.spill, metadata !1411, metadata !DIExpression()), !dbg !1414
  ret void, !dbg !1414
}

; core::ptr::drop_in_place<&[i32; 6]>
; Function Attrs: inlinehint nonlazybind uwtable
define internal void @"_ZN4core3ptr49drop_in_place$LT$$RF$$u5b$i32$u3b$$u20$6$u5d$$GT$17hfbc5c32dc62ea6d3E"([6 x i32]** %_1) unnamed_addr #0 !dbg !1415 {
start:
  %_1.dbg.spill = alloca [6 x i32]**, align 8
  store [6 x i32]** %_1, [6 x i32]*** %_1.dbg.spill, align 8
  call void @llvm.dbg.declare(metadata [6 x i32]*** %_1.dbg.spill, metadata !1420, metadata !DIExpression()), !dbg !1423
  ret void, !dbg !1423
}

; core::ptr::drop_in_place<&[i32; 10]>
; Function Attrs: inlinehint nonlazybind uwtable
define internal void @"_ZN4core3ptr50drop_in_place$LT$$RF$$u5b$i32$u3b$$u20$10$u5d$$GT$17hedff71cbd66a5e9fE"([10 x i32]** %_1) unnamed_addr #0 !dbg !1424 {
start:
  %_1.dbg.spill = alloca [10 x i32]**, align 8
  store [10 x i32]** %_1, [10 x i32]*** %_1.dbg.spill, align 8
  call void @llvm.dbg.declare(metadata [10 x i32]*** %_1.dbg.spill, metadata !1429, metadata !DIExpression()), !dbg !1432
  ret void, !dbg !1432
}

; core::ptr::drop_in_place<alloc::raw_vec::RawVec<i32>>
; Function Attrs: nonlazybind uwtable
define internal void @"_ZN4core3ptr54drop_in_place$LT$alloc..raw_vec..RawVec$LT$i32$GT$$GT$17hb3aaa09deee1536aE"({ i32*, i64 }* %_1) unnamed_addr #2 !dbg !1433 {
start:
  %_1.dbg.spill = alloca { i32*, i64 }*, align 8
  store { i32*, i64 }* %_1, { i32*, i64 }** %_1.dbg.spill, align 8
  call void @llvm.dbg.declare(metadata { i32*, i64 }** %_1.dbg.spill, metadata !1438, metadata !DIExpression()), !dbg !1441
; call <alloc::raw_vec::RawVec<T,A> as core::ops::drop::Drop>::drop
  call void @"_ZN77_$LT$alloc..raw_vec..RawVec$LT$T$C$A$GT$$u20$as$u20$core..ops..drop..Drop$GT$4drop17hee40db5093132691E"({ i32*, i64 }* align 8 %_1), !dbg !1441
  br label %bb1, !dbg !1441

bb1:                                              ; preds = %start
  ret void, !dbg !1441
}

; core::ptr::drop_in_place<alloc::vec::set_len_on_drop::SetLenOnDrop>
; Function Attrs: nonlazybind uwtable
define internal void @"_ZN4core3ptr62drop_in_place$LT$alloc..vec..set_len_on_drop..SetLenOnDrop$GT$17haf88146aabe3cfcdE"({ i64*, i64 }* %_1) unnamed_addr #2 !dbg !1442 {
start:
  %_1.dbg.spill = alloca { i64*, i64 }*, align 8
  store { i64*, i64 }* %_1, { i64*, i64 }** %_1.dbg.spill, align 8
  call void @llvm.dbg.declare(metadata { i64*, i64 }** %_1.dbg.spill, metadata !1452, metadata !DIExpression()), !dbg !1455
; call <alloc::vec::set_len_on_drop::SetLenOnDrop as core::ops::drop::Drop>::drop
  call void @"_ZN83_$LT$alloc..vec..set_len_on_drop..SetLenOnDrop$u20$as$u20$core..ops..drop..Drop$GT$4drop17h04d8fe95e94e9f97E"({ i64*, i64 }* align 8 %_1), !dbg !1455
  br label %bb1, !dbg !1455

bb1:                                              ; preds = %start
  ret void, !dbg !1455
}

; core::ptr::drop_in_place<alloc::vec::Vec<[i32; 4]>>
; Function Attrs: nonlazybind uwtable
define internal void @"_ZN4core3ptr68drop_in_place$LT$alloc..vec..Vec$LT$$u5b$i32$u3b$$u20$4$u5d$$GT$$GT$17hf07e1a2a4e158af9E"(%"alloc::vec::Vec<[i32; 4]>"* %_1) unnamed_addr #2 personality i32 (i32, i32, i64, %"unwind::libunwind::_Unwind_Exception"*, %"unwind::libunwind::_Unwind_Context"*)* @rust_eh_personality !dbg !1456 {
start:
  %0 = alloca { i8*, i32 }, align 8
  %_1.dbg.spill = alloca %"alloc::vec::Vec<[i32; 4]>"*, align 8
  store %"alloc::vec::Vec<[i32; 4]>"* %_1, %"alloc::vec::Vec<[i32; 4]>"** %_1.dbg.spill, align 8
  call void @llvm.dbg.declare(metadata %"alloc::vec::Vec<[i32; 4]>"** %_1.dbg.spill, metadata !1482, metadata !DIExpression()), !dbg !1485
; invoke <alloc::vec::Vec<T,A> as core::ops::drop::Drop>::drop
  invoke void @"_ZN70_$LT$alloc..vec..Vec$LT$T$C$A$GT$$u20$as$u20$core..ops..drop..Drop$GT$4drop17hb4fef587a28f2bddE"(%"alloc::vec::Vec<[i32; 4]>"* align 8 %_1)
          to label %bb4 unwind label %cleanup, !dbg !1485

bb3:                                              ; preds = %cleanup
  %1 = bitcast %"alloc::vec::Vec<[i32; 4]>"* %_1 to { i32*, i64 }*, !dbg !1485
; invoke core::ptr::drop_in_place<alloc::raw_vec::RawVec<[i32; 4]>>
  invoke void @"_ZN4core3ptr75drop_in_place$LT$alloc..raw_vec..RawVec$LT$$u5b$i32$u3b$$u20$4$u5d$$GT$$GT$17hd325950bbc3ab561E"({ i32*, i64 }* %1) #17
          to label %bb1 unwind label %abort, !dbg !1485

cleanup:                                          ; preds = %start
  %2 = landingpad { i8*, i32 }
          cleanup
  %3 = extractvalue { i8*, i32 } %2, 0
  %4 = extractvalue { i8*, i32 } %2, 1
  %5 = getelementptr inbounds { i8*, i32 }, { i8*, i32 }* %0, i32 0, i32 0
  store i8* %3, i8** %5, align 8
  %6 = getelementptr inbounds { i8*, i32 }, { i8*, i32 }* %0, i32 0, i32 1
  store i32 %4, i32* %6, align 8
  br label %bb3

bb4:                                              ; preds = %start
  %7 = bitcast %"alloc::vec::Vec<[i32; 4]>"* %_1 to { i32*, i64 }*, !dbg !1485
; call core::ptr::drop_in_place<alloc::raw_vec::RawVec<[i32; 4]>>
  call void @"_ZN4core3ptr75drop_in_place$LT$alloc..raw_vec..RawVec$LT$$u5b$i32$u3b$$u20$4$u5d$$GT$$GT$17hd325950bbc3ab561E"({ i32*, i64 }* %7), !dbg !1485
  br label %bb2, !dbg !1485

abort:                                            ; preds = %bb3
  %8 = landingpad { i8*, i32 }
          cleanup, !dbg !1485
; call core::panicking::panic_no_unwind
  call void @_ZN4core9panicking15panic_no_unwind17h62f8113f44cbfcbfE() #18, !dbg !1485
  unreachable, !dbg !1485

bb1:                                              ; preds = %bb3
  %9 = bitcast { i8*, i32 }* %0 to i8**, !dbg !1485
  %10 = load i8*, i8** %9, align 8, !dbg !1485
  %11 = getelementptr inbounds { i8*, i32 }, { i8*, i32 }* %0, i32 0, i32 1, !dbg !1485
  %12 = load i32, i32* %11, align 8, !dbg !1485
  %13 = insertvalue { i8*, i32 } undef, i8* %10, 0, !dbg !1485
  %14 = insertvalue { i8*, i32 } %13, i32 %12, 1, !dbg !1485
  resume { i8*, i32 } %14, !dbg !1485

bb2:                                              ; preds = %bb4
  ret void, !dbg !1485
}

; core::ptr::drop_in_place<alloc::raw_vec::RawVec<[i32; 4]>>
; Function Attrs: nonlazybind uwtable
define internal void @"_ZN4core3ptr75drop_in_place$LT$alloc..raw_vec..RawVec$LT$$u5b$i32$u3b$$u20$4$u5d$$GT$$GT$17hd325950bbc3ab561E"({ i32*, i64 }* %_1) unnamed_addr #2 !dbg !1486 {
start:
  %_1.dbg.spill = alloca { i32*, i64 }*, align 8
  store { i32*, i64 }* %_1, { i32*, i64 }** %_1.dbg.spill, align 8
  call void @llvm.dbg.declare(metadata { i32*, i64 }** %_1.dbg.spill, metadata !1491, metadata !DIExpression()), !dbg !1494
; call <alloc::raw_vec::RawVec<T,A> as core::ops::drop::Drop>::drop
  call void @"_ZN77_$LT$alloc..raw_vec..RawVec$LT$T$C$A$GT$$u20$as$u20$core..ops..drop..Drop$GT$4drop17he52222e5fff1b3f5E"({ i32*, i64 }* align 8 %_1), !dbg !1494
  br label %bb1, !dbg !1494

bb1:                                              ; preds = %start
  ret void, !dbg !1494
}

; core::ptr::drop_in_place<std::rt::lang_start<()>::{{closure}}>
; Function Attrs: inlinehint nonlazybind uwtable
define internal void @"_ZN4core3ptr85drop_in_place$LT$std..rt..lang_start$LT$$LP$$RP$$GT$..$u7b$$u7b$closure$u7d$$u7d$$GT$17hff7050e790475270E"(i64** %_1) unnamed_addr #0 !dbg !1495 {
start:
  %_1.dbg.spill = alloca i64**, align 8
  store i64** %_1, i64*** %_1.dbg.spill, align 8
  call void @llvm.dbg.declare(metadata i64*** %_1.dbg.spill, metadata !1499, metadata !DIExpression()), !dbg !1502
  ret void, !dbg !1502
}

; core::ptr::non_null::NonNull<T>::new
; Function Attrs: inlinehint nonlazybind uwtable
define internal i8* @"_ZN4core3ptr8non_null16NonNull$LT$T$GT$3new17hd3bacb1f2d9d38d1E"(i8* %ptr) unnamed_addr #0 !dbg !1503 {
start:
  %ptr.dbg.spill2 = alloca i8*, align 8
  %0 = alloca i8, align 1
  %other.dbg.spill = alloca i8*, align 8
  %data_address.dbg.spill = alloca {}*, align 8
  %1 = alloca {}*, align 8
  %self.dbg.spill1 = alloca i8*, align 8
  %self.dbg.spill = alloca i8*, align 8
  %metadata.dbg.spill = alloca {}, align 1
  %ptr.dbg.spill = alloca i8*, align 8
  %_15 = alloca %"core::ptr::metadata::PtrComponents<u8>", align 8
  %_14 = alloca %"core::ptr::metadata::PtrRepr<u8>", align 8
  %_5 = alloca i8*, align 8
  %2 = alloca i8*, align 8
  store i8* %ptr, i8** %ptr.dbg.spill, align 8
  call void @llvm.dbg.declare(metadata i8** %ptr.dbg.spill, metadata !1520, metadata !DIExpression()), !dbg !1521
  call void @llvm.dbg.declare(metadata {}* %metadata.dbg.spill, metadata !1522, metadata !DIExpression()), !dbg !1532
  store i8* %ptr, i8** %self.dbg.spill, align 8, !dbg !1547
  call void @llvm.dbg.declare(metadata i8** %self.dbg.spill, metadata !1545, metadata !DIExpression()), !dbg !1548
  store i8* %ptr, i8** %self.dbg.spill1, align 8, !dbg !1548
  call void @llvm.dbg.declare(metadata i8** %self.dbg.spill1, metadata !1549, metadata !DIExpression()), !dbg !1556
  %3 = bitcast {}** %1 to i64*, !dbg !1558
  store i64 0, i64* %3, align 8, !dbg !1558
  %data_address = load {}*, {}** %1, align 8, !dbg !1558
  store {}* %data_address, {}** %data_address.dbg.spill, align 8, !dbg !1558
  call void @llvm.dbg.declare(metadata {}** %data_address.dbg.spill, metadata !1531, metadata !DIExpression()), !dbg !1532
  br label %bb4, !dbg !1558

bb4:                                              ; preds = %start
  %4 = bitcast %"core::ptr::metadata::PtrComponents<u8>"* %_15 to {}**, !dbg !1532
  store {}* %data_address, {}** %4, align 8, !dbg !1532
  %5 = bitcast %"core::ptr::metadata::PtrRepr<u8>"* %_14 to %"core::ptr::metadata::PtrComponents<u8>"*, !dbg !1532
  %6 = bitcast %"core::ptr::metadata::PtrComponents<u8>"* %5 to i8*, !dbg !1532
  %7 = bitcast %"core::ptr::metadata::PtrComponents<u8>"* %_15 to i8*, !dbg !1532
  call void @llvm.memcpy.p0i8.p0i8.i64(i8* align 8 %6, i8* align 8 %7, i64 8, i1 false), !dbg !1532
  %8 = bitcast %"core::ptr::metadata::PtrRepr<u8>"* %_14 to i8**, !dbg !1532
  %other = load i8*, i8** %8, align 8, !dbg !1532
  store i8* %other, i8** %other.dbg.spill, align 8, !dbg !1532
  call void @llvm.dbg.declare(metadata i8** %other.dbg.spill, metadata !1555, metadata !DIExpression()), !dbg !1556
  %9 = icmp eq i8* %ptr, %other, !dbg !1556
  %10 = zext i1 %9 to i8, !dbg !1556
  store i8 %10, i8* %0, align 1, !dbg !1556
  %11 = load i8, i8* %0, align 1, !dbg !1556, !range !680, !noundef !23
  %_3 = trunc i8 %11 to i1, !dbg !1556
  br label %bb5, !dbg !1556

bb5:                                              ; preds = %bb4
  %_2 = xor i1 %_3, true, !dbg !1566
  br i1 %_2, label %bb1, label %bb2, !dbg !1566

bb2:                                              ; preds = %bb5
  %12 = bitcast i8** %2 to {}**, !dbg !1567
  store {}* null, {}** %12, align 8, !dbg !1567
  br label %bb3, !dbg !1568

bb1:                                              ; preds = %bb5
  store i8* %ptr, i8** %ptr.dbg.spill2, align 8, !dbg !1569
  call void @llvm.dbg.declare(metadata i8** %ptr.dbg.spill2, metadata !1570, metadata !DIExpression()), !dbg !1573
  store i8* %ptr, i8** %_5, align 8, !dbg !1573
  %13 = load i8*, i8** %_5, align 8, !dbg !1575, !nonnull !23, !noundef !23
  store i8* %13, i8** %2, align 8, !dbg !1575
  br label %bb3, !dbg !1568

bb3:                                              ; preds = %bb2, %bb1
  %14 = load i8*, i8** %2, align 8, !dbg !1576
  ret i8* %14, !dbg !1576
}

; core::iter::range::<impl core::iter::traits::iterator::Iterator for core::ops::range::Range<A>>::next
; Function Attrs: inlinehint nonlazybind uwtable
define internal { i32, i32 } @"_ZN4core4iter5range101_$LT$impl$u20$core..iter..traits..iterator..Iterator$u20$for$u20$core..ops..range..Range$LT$A$GT$$GT$4next17h6fb1179d75a4beb0E"({ i32, i32 }* align 4 %self) unnamed_addr #0 !dbg !1577 {
start:
  %self.dbg.spill = alloca { i32, i32 }*, align 8
  store { i32, i32 }* %self, { i32, i32 }** %self.dbg.spill, align 8
  call void @llvm.dbg.declare(metadata { i32, i32 }** %self.dbg.spill, metadata !1601, metadata !DIExpression()), !dbg !1604
; call <core::ops::range::Range<T> as core::iter::range::RangeIteratorImpl>::spec_next
  %0 = call { i32, i32 } @"_ZN89_$LT$core..ops..range..Range$LT$T$GT$$u20$as$u20$core..iter..range..RangeIteratorImpl$GT$9spec_next17ha3f59215a7fe2bcfE"({ i32, i32 }* align 4 %self), !dbg !1605
  %1 = extractvalue { i32, i32 } %0, 0, !dbg !1605
  %2 = extractvalue { i32, i32 } %0, 1, !dbg !1605
  br label %bb1, !dbg !1605

bb1:                                              ; preds = %start
  %3 = insertvalue { i32, i32 } undef, i32 %1, 0, !dbg !1606
  %4 = insertvalue { i32, i32 } %3, i32 %2, 1, !dbg !1606
  ret { i32, i32 } %4, !dbg !1606
}

; core::iter::range::<impl core::iter::traits::iterator::Iterator for core::ops::range::Range<A>>::next
; Function Attrs: inlinehint nonlazybind uwtable
define internal { i64, i64 } @"_ZN4core4iter5range101_$LT$impl$u20$core..iter..traits..iterator..Iterator$u20$for$u20$core..ops..range..Range$LT$A$GT$$GT$4next17h7b1637b1988718b5E"({ i64, i64 }* align 8 %self) unnamed_addr #0 !dbg !1607 {
start:
  %self.dbg.spill = alloca { i64, i64 }*, align 8
  store { i64, i64 }* %self, { i64, i64 }** %self.dbg.spill, align 8
  call void @llvm.dbg.declare(metadata { i64, i64 }** %self.dbg.spill, metadata !1618, metadata !DIExpression()), !dbg !1621
; call <core::ops::range::Range<T> as core::iter::range::RangeIteratorImpl>::spec_next
  %0 = call { i64, i64 } @"_ZN89_$LT$core..ops..range..Range$LT$T$GT$$u20$as$u20$core..iter..range..RangeIteratorImpl$GT$9spec_next17h013f4cf64bb64df5E"({ i64, i64 }* align 8 %self), !dbg !1622
  %1 = extractvalue { i64, i64 } %0, 0, !dbg !1622
  %2 = extractvalue { i64, i64 } %0, 1, !dbg !1622
  br label %bb1, !dbg !1622

bb1:                                              ; preds = %start
  %3 = insertvalue { i64, i64 } undef, i64 %1, 0, !dbg !1623
  %4 = insertvalue { i64, i64 } %3, i64 %2, 1, !dbg !1623
  ret { i64, i64 } %4, !dbg !1623
}

; core::alloc::layout::Layout::from_size_valid_align
; Function Attrs: inlinehint nonlazybind uwtable
define internal { i64, i64 } @_ZN4core5alloc6layout6Layout21from_size_valid_align17h2bd876eb57732763E(i64 %size, i64 %align) unnamed_addr #0 !dbg !1624 {
start:
  %n.dbg.spill = alloca i64, align 8
  %align.dbg.spill = alloca i64, align 8
  %size.dbg.spill = alloca i64, align 8
  %_11 = alloca { i64, i64 }, align 8
  %self1 = alloca i64, align 8
  %self = alloca i64, align 8
  %0 = alloca { i64, i64 }, align 8
  store i64 %size, i64* %size.dbg.spill, align 8
  call void @llvm.dbg.declare(metadata i64* %size.dbg.spill, metadata !1646, metadata !DIExpression()), !dbg !1648
  store i64 %align, i64* %align.dbg.spill, align 8
  call void @llvm.dbg.declare(metadata i64* %align.dbg.spill, metadata !1647, metadata !DIExpression()), !dbg !1649
  call void @llvm.dbg.declare(metadata i64* %self, metadata !1650, metadata !DIExpression()), !dbg !1661
  call void @llvm.dbg.declare(metadata i64* %self1, metadata !1663, metadata !DIExpression()), !dbg !1670
  store i64 %align, i64* %self1, align 8, !dbg !1662
  %_15 = load i64, i64* %self1, align 8, !dbg !1670, !range !1671, !noundef !23
  store i64 %_15, i64* %n.dbg.spill, align 8, !dbg !1670
  call void @llvm.dbg.declare(metadata i64* %n.dbg.spill, metadata !1672, metadata !DIExpression()), !dbg !1687
  store i64 %_15, i64* %self, align 8, !dbg !1687
  %_8 = load i64, i64* %self, align 8, !dbg !1661
  %_7 = sub i64 %_8, 1, !dbg !1689
  %_5 = sub i64 9223372036854775807, %_7, !dbg !1690
  %_3 = icmp ugt i64 %size, %_5, !dbg !1691
  br i1 %_3, label %bb1, label %bb2, !dbg !1691

bb2:                                              ; preds = %start
  %1 = bitcast { i64, i64 }* %_11 to i64*, !dbg !1692
  store i64 %size, i64* %1, align 8, !dbg !1692
  %2 = getelementptr inbounds { i64, i64 }, { i64, i64 }* %_11, i32 0, i32 1, !dbg !1692
  store i64 %align, i64* %2, align 8, !dbg !1692
  %3 = getelementptr inbounds { i64, i64 }, { i64, i64 }* %_11, i32 0, i32 0, !dbg !1693
  %4 = load i64, i64* %3, align 8, !dbg !1693
  %5 = getelementptr inbounds { i64, i64 }, { i64, i64 }* %_11, i32 0, i32 1, !dbg !1693
  %6 = load i64, i64* %5, align 8, !dbg !1693, !range !1671, !noundef !23
  %7 = getelementptr inbounds { i64, i64 }, { i64, i64 }* %0, i32 0, i32 0, !dbg !1693
  store i64 %4, i64* %7, align 8, !dbg !1693
  %8 = getelementptr inbounds { i64, i64 }, { i64, i64 }* %0, i32 0, i32 1, !dbg !1693
  store i64 %6, i64* %8, align 8, !dbg !1693
  br label %bb3, !dbg !1694

bb1:                                              ; preds = %start
  %9 = getelementptr inbounds { i64, i64 }, { i64, i64 }* %0, i32 0, i32 1, !dbg !1695
  store i64 0, i64* %9, align 8, !dbg !1695
  br label %bb3, !dbg !1694

bb3:                                              ; preds = %bb2, %bb1
  %10 = getelementptr inbounds { i64, i64 }, { i64, i64 }* %0, i32 0, i32 0, !dbg !1694
  %11 = load i64, i64* %10, align 8, !dbg !1694
  %12 = getelementptr inbounds { i64, i64 }, { i64, i64 }* %0, i32 0, i32 1, !dbg !1694
  %13 = load i64, i64* %12, align 8, !dbg !1694, !range !299, !noundef !23
  %14 = insertvalue { i64, i64 } undef, i64 %11, 0, !dbg !1694
  %15 = insertvalue { i64, i64 } %14, i64 %13, 1, !dbg !1694
  ret { i64, i64 } %15, !dbg !1694
}

; core::alloc::layout::Layout::array
; Function Attrs: inlinehint nonlazybind uwtable
define internal { i64, i64 } @_ZN4core5alloc6layout6Layout5array17h21430b4bd37f8f85E(i64 %n) unnamed_addr #0 !dbg !1696 {
start:
  %0 = alloca i64, align 8
  %align.dbg.spill = alloca i64, align 8
  %array_size.dbg.spill = alloca i64, align 8
  %val.dbg.spill = alloca i64, align 8
  %v.dbg.spill5 = alloca i64, align 8
  %v.dbg.spill = alloca i64, align 8
  %e.dbg.spill3 = alloca %"core::alloc::layout::LayoutError", align 1
  %e.dbg.spill = alloca %"core::alloc::layout::LayoutError", align 1
  %residual.dbg.spill2 = alloca %"core::result::Result<core::convert::Infallible, core::alloc::layout::LayoutError>::Err", align 1
  %residual.dbg.spill = alloca %"core::result::Result<core::convert::Infallible, core::alloc::layout::LayoutError>::Err", align 1
  %err.dbg.spill = alloca %"core::alloc::layout::LayoutError", align 1
  %n.dbg.spill = alloca i64, align 8
  %self1 = alloca { i64, i64 }, align 8
  %self = alloca { i64, i64 }, align 8
  %_3 = alloca { i64, i64 }, align 8
  %1 = alloca { i64, i64 }, align 8
  store i64 %n, i64* %n.dbg.spill, align 8
  call void @llvm.dbg.declare(metadata i64* %n.dbg.spill, metadata !1700, metadata !DIExpression()), !dbg !1725
  call void @llvm.dbg.declare(metadata { i64, i64 }* %self, metadata !1726, metadata !DIExpression()), !dbg !1771
  call void @llvm.dbg.declare(metadata { i64, i64 }* %self1, metadata !1773, metadata !DIExpression()), !dbg !1784
  call void @llvm.dbg.declare(metadata %"core::alloc::layout::LayoutError"* %err.dbg.spill, metadata !1780, metadata !DIExpression()), !dbg !1784
  call void @llvm.dbg.declare(metadata %"core::result::Result<core::convert::Infallible, core::alloc::layout::LayoutError>::Err"* %residual.dbg.spill, metadata !1703, metadata !DIExpression()), !dbg !1785
  call void @llvm.dbg.declare(metadata %"core::result::Result<core::convert::Infallible, core::alloc::layout::LayoutError>::Err"* %residual.dbg.spill2, metadata !1786, metadata !DIExpression()), !dbg !1798
  call void @llvm.dbg.declare(metadata %"core::alloc::layout::LayoutError"* %e.dbg.spill, metadata !1768, metadata !DIExpression()), !dbg !1800
  call void @llvm.dbg.declare(metadata %"core::alloc::layout::LayoutError"* %e.dbg.spill3, metadata !1793, metadata !DIExpression()), !dbg !1801
; call core::num::<impl usize>::checked_mul
  %2 = call { i64, i64 } @"_ZN4core3num23_$LT$impl$u20$usize$GT$11checked_mul17hf791a6b7be2128e2E"(i64 16, i64 %n), !dbg !1772
  store { i64, i64 } %2, { i64, i64 }* %self1, align 8, !dbg !1772
  br label %bb1, !dbg !1772

bb1:                                              ; preds = %start
  %3 = bitcast { i64, i64 }* %self1 to i64*, !dbg !1784
  %_15 = load i64, i64* %3, align 8, !dbg !1784, !range !1114, !noundef !23
  switch i64 %_15, label %bb9 [
    i64 0, label %bb8
    i64 1, label %bb10
  ], !dbg !1784

bb9:                                              ; preds = %bb1
  unreachable, !dbg !1784

bb8:                                              ; preds = %bb1
  %4 = bitcast { i64, i64 }* %self to i64*, !dbg !1784
  store i64 1, i64* %4, align 8, !dbg !1784
  br label %bb11, !dbg !1784

bb10:                                             ; preds = %bb1
  %5 = getelementptr inbounds { i64, i64 }, { i64, i64 }* %self1, i32 0, i32 1, !dbg !1784
  %v = load i64, i64* %5, align 8, !dbg !1784
  store i64 %v, i64* %v.dbg.spill, align 8, !dbg !1784
  call void @llvm.dbg.declare(metadata i64* %v.dbg.spill, metadata !1781, metadata !DIExpression()), !dbg !1802
  %6 = getelementptr inbounds { i64, i64 }, { i64, i64 }* %self, i32 0, i32 1, !dbg !1802
  store i64 %v, i64* %6, align 8, !dbg !1802
  %7 = bitcast { i64, i64 }* %self to i64*, !dbg !1802
  store i64 0, i64* %7, align 8, !dbg !1802
  br label %bb11, !dbg !1784

bb11:                                             ; preds = %bb8, %bb10
  %8 = bitcast { i64, i64 }* %self to i64*, !dbg !1771
  %_18 = load i64, i64* %8, align 8, !dbg !1771, !range !1114, !noundef !23
  switch i64 %_18, label %bb13 [
    i64 0, label %bb14
    i64 1, label %bb12
  ], !dbg !1771

bb13:                                             ; preds = %bb11
  unreachable, !dbg !1771

bb14:                                             ; preds = %bb11
  %9 = getelementptr inbounds { i64, i64 }, { i64, i64 }* %self, i32 0, i32 1, !dbg !1771
  %v4 = load i64, i64* %9, align 8, !dbg !1771
  store i64 %v4, i64* %v.dbg.spill5, align 8, !dbg !1771
  call void @llvm.dbg.declare(metadata i64* %v.dbg.spill5, metadata !1765, metadata !DIExpression()), !dbg !1803
  %10 = getelementptr inbounds { i64, i64 }, { i64, i64 }* %_3, i32 0, i32 1, !dbg !1803
  store i64 %v4, i64* %10, align 8, !dbg !1803
  %11 = bitcast { i64, i64 }* %_3 to i64*, !dbg !1803
  store i64 0, i64* %11, align 8, !dbg !1803
  br label %bb2, !dbg !1771

bb12:                                             ; preds = %bb11
  %12 = bitcast { i64, i64 }* %_3 to i64*, !dbg !1800
  store i64 1, i64* %12, align 8, !dbg !1800
  br label %bb2, !dbg !1771

bb2:                                              ; preds = %bb14, %bb12
  %13 = bitcast { i64, i64 }* %_3 to i64*, !dbg !1772
  %_9 = load i64, i64* %13, align 8, !dbg !1772, !range !1114, !noundef !23
  switch i64 %_9, label %bb4 [
    i64 0, label %bb3
    i64 1, label %bb5
  ], !dbg !1772

bb4:                                              ; preds = %bb2
  unreachable, !dbg !1772

bb3:                                              ; preds = %bb2
  %14 = getelementptr inbounds { i64, i64 }, { i64, i64 }* %_3, i32 0, i32 1, !dbg !1772
  %val = load i64, i64* %14, align 8, !dbg !1772
  store i64 %val, i64* %val.dbg.spill, align 8, !dbg !1772
  call void @llvm.dbg.declare(metadata i64* %val.dbg.spill, metadata !1723, metadata !DIExpression()), !dbg !1804
  store i64 %val, i64* %array_size.dbg.spill, align 8, !dbg !1804
  call void @llvm.dbg.declare(metadata i64* %array_size.dbg.spill, metadata !1701, metadata !DIExpression()), !dbg !1805
  store i64 4, i64* %align.dbg.spill, align 8, !dbg !1806
  call void @llvm.dbg.declare(metadata i64* %align.dbg.spill, metadata !1816, metadata !DIExpression()), !dbg !1830
  store i64 4, i64* %0, align 8, !dbg !1830
  %_14 = load i64, i64* %0, align 8, !dbg !1830, !range !1671, !noundef !23
  br label %bb15, !dbg !1830

bb5:                                              ; preds = %bb2
; call <T as core::convert::From<T>>::from
  call void @"_ZN50_$LT$T$u20$as$u20$core..convert..From$LT$T$GT$$GT$4from17h2602f275c11ff874E"(), !dbg !1801
  br label %bb16, !dbg !1801

bb16:                                             ; preds = %bb5
  %15 = getelementptr inbounds { i64, i64 }, { i64, i64 }* %1, i32 0, i32 1, !dbg !1801
  store i64 0, i64* %15, align 8, !dbg !1801
  br label %bb7, !dbg !1832

bb7:                                              ; preds = %bb6, %bb16
  %16 = getelementptr inbounds { i64, i64 }, { i64, i64 }* %1, i32 0, i32 0, !dbg !1832
  %17 = load i64, i64* %16, align 8, !dbg !1832
  %18 = getelementptr inbounds { i64, i64 }, { i64, i64 }* %1, i32 0, i32 1, !dbg !1832
  %19 = load i64, i64* %18, align 8, !dbg !1832, !range !299, !noundef !23
  %20 = insertvalue { i64, i64 } undef, i64 %17, 0, !dbg !1832
  %21 = insertvalue { i64, i64 } %20, i64 %19, 1, !dbg !1832
  ret { i64, i64 } %21, !dbg !1832

bb15:                                             ; preds = %bb3
; call core::alloc::layout::Layout::from_size_valid_align
  %22 = call { i64, i64 } @_ZN4core5alloc6layout6Layout21from_size_valid_align17h2bd876eb57732763E(i64 %val, i64 %_14), !dbg !1833
  store { i64, i64 } %22, { i64, i64 }* %1, align 8, !dbg !1833
  br label %bb6, !dbg !1833

bb6:                                              ; preds = %bb15
  br label %bb7, !dbg !1832
}

; core::alloc::layout::Layout::array
; Function Attrs: inlinehint nonlazybind uwtable
define internal { i64, i64 } @_ZN4core5alloc6layout6Layout5array17h27fd1a567895a074E(i64 %n) unnamed_addr #0 !dbg !1834 {
start:
  %0 = alloca i64, align 8
  %align.dbg.spill = alloca i64, align 8
  %array_size.dbg.spill = alloca i64, align 8
  %val.dbg.spill = alloca i64, align 8
  %v.dbg.spill5 = alloca i64, align 8
  %v.dbg.spill = alloca i64, align 8
  %e.dbg.spill3 = alloca %"core::alloc::layout::LayoutError", align 1
  %e.dbg.spill = alloca %"core::alloc::layout::LayoutError", align 1
  %residual.dbg.spill2 = alloca %"core::result::Result<core::convert::Infallible, core::alloc::layout::LayoutError>::Err", align 1
  %residual.dbg.spill = alloca %"core::result::Result<core::convert::Infallible, core::alloc::layout::LayoutError>::Err", align 1
  %err.dbg.spill = alloca %"core::alloc::layout::LayoutError", align 1
  %n.dbg.spill = alloca i64, align 8
  %self1 = alloca { i64, i64 }, align 8
  %self = alloca { i64, i64 }, align 8
  %_3 = alloca { i64, i64 }, align 8
  %1 = alloca { i64, i64 }, align 8
  store i64 %n, i64* %n.dbg.spill, align 8
  call void @llvm.dbg.declare(metadata i64* %n.dbg.spill, metadata !1836, metadata !DIExpression()), !dbg !1843
  call void @llvm.dbg.declare(metadata { i64, i64 }* %self, metadata !1844, metadata !DIExpression()), !dbg !1854
  call void @llvm.dbg.declare(metadata { i64, i64 }* %self1, metadata !1856, metadata !DIExpression()), !dbg !1864
  call void @llvm.dbg.declare(metadata %"core::alloc::layout::LayoutError"* %err.dbg.spill, metadata !1860, metadata !DIExpression()), !dbg !1864
  call void @llvm.dbg.declare(metadata %"core::result::Result<core::convert::Infallible, core::alloc::layout::LayoutError>::Err"* %residual.dbg.spill, metadata !1839, metadata !DIExpression()), !dbg !1865
  call void @llvm.dbg.declare(metadata %"core::result::Result<core::convert::Infallible, core::alloc::layout::LayoutError>::Err"* %residual.dbg.spill2, metadata !1866, metadata !DIExpression()), !dbg !1873
  call void @llvm.dbg.declare(metadata %"core::alloc::layout::LayoutError"* %e.dbg.spill, metadata !1851, metadata !DIExpression()), !dbg !1875
  call void @llvm.dbg.declare(metadata %"core::alloc::layout::LayoutError"* %e.dbg.spill3, metadata !1870, metadata !DIExpression()), !dbg !1876
; call core::num::<impl usize>::checked_mul
  %2 = call { i64, i64 } @"_ZN4core3num23_$LT$impl$u20$usize$GT$11checked_mul17hf791a6b7be2128e2E"(i64 4, i64 %n), !dbg !1855
  store { i64, i64 } %2, { i64, i64 }* %self1, align 8, !dbg !1855
  br label %bb1, !dbg !1855

bb1:                                              ; preds = %start
  %3 = bitcast { i64, i64 }* %self1 to i64*, !dbg !1864
  %_15 = load i64, i64* %3, align 8, !dbg !1864, !range !1114, !noundef !23
  switch i64 %_15, label %bb9 [
    i64 0, label %bb8
    i64 1, label %bb10
  ], !dbg !1864

bb9:                                              ; preds = %bb1
  unreachable, !dbg !1864

bb8:                                              ; preds = %bb1
  %4 = bitcast { i64, i64 }* %self to i64*, !dbg !1864
  store i64 1, i64* %4, align 8, !dbg !1864
  br label %bb11, !dbg !1864

bb10:                                             ; preds = %bb1
  %5 = getelementptr inbounds { i64, i64 }, { i64, i64 }* %self1, i32 0, i32 1, !dbg !1864
  %v = load i64, i64* %5, align 8, !dbg !1864
  store i64 %v, i64* %v.dbg.spill, align 8, !dbg !1864
  call void @llvm.dbg.declare(metadata i64* %v.dbg.spill, metadata !1861, metadata !DIExpression()), !dbg !1877
  %6 = getelementptr inbounds { i64, i64 }, { i64, i64 }* %self, i32 0, i32 1, !dbg !1877
  store i64 %v, i64* %6, align 8, !dbg !1877
  %7 = bitcast { i64, i64 }* %self to i64*, !dbg !1877
  store i64 0, i64* %7, align 8, !dbg !1877
  br label %bb11, !dbg !1864

bb11:                                             ; preds = %bb8, %bb10
  %8 = bitcast { i64, i64 }* %self to i64*, !dbg !1854
  %_18 = load i64, i64* %8, align 8, !dbg !1854, !range !1114, !noundef !23
  switch i64 %_18, label %bb13 [
    i64 0, label %bb14
    i64 1, label %bb12
  ], !dbg !1854

bb13:                                             ; preds = %bb11
  unreachable, !dbg !1854

bb14:                                             ; preds = %bb11
  %9 = getelementptr inbounds { i64, i64 }, { i64, i64 }* %self, i32 0, i32 1, !dbg !1854
  %v4 = load i64, i64* %9, align 8, !dbg !1854
  store i64 %v4, i64* %v.dbg.spill5, align 8, !dbg !1854
  call void @llvm.dbg.declare(metadata i64* %v.dbg.spill5, metadata !1848, metadata !DIExpression()), !dbg !1878
  %10 = getelementptr inbounds { i64, i64 }, { i64, i64 }* %_3, i32 0, i32 1, !dbg !1878
  store i64 %v4, i64* %10, align 8, !dbg !1878
  %11 = bitcast { i64, i64 }* %_3 to i64*, !dbg !1878
  store i64 0, i64* %11, align 8, !dbg !1878
  br label %bb2, !dbg !1854

bb12:                                             ; preds = %bb11
  %12 = bitcast { i64, i64 }* %_3 to i64*, !dbg !1875
  store i64 1, i64* %12, align 8, !dbg !1875
  br label %bb2, !dbg !1854

bb2:                                              ; preds = %bb14, %bb12
  %13 = bitcast { i64, i64 }* %_3 to i64*, !dbg !1855
  %_9 = load i64, i64* %13, align 8, !dbg !1855, !range !1114, !noundef !23
  switch i64 %_9, label %bb4 [
    i64 0, label %bb3
    i64 1, label %bb5
  ], !dbg !1855

bb4:                                              ; preds = %bb2
  unreachable, !dbg !1855

bb3:                                              ; preds = %bb2
  %14 = getelementptr inbounds { i64, i64 }, { i64, i64 }* %_3, i32 0, i32 1, !dbg !1855
  %val = load i64, i64* %14, align 8, !dbg !1855
  store i64 %val, i64* %val.dbg.spill, align 8, !dbg !1855
  call void @llvm.dbg.declare(metadata i64* %val.dbg.spill, metadata !1841, metadata !DIExpression()), !dbg !1879
  store i64 %val, i64* %array_size.dbg.spill, align 8, !dbg !1879
  call void @llvm.dbg.declare(metadata i64* %array_size.dbg.spill, metadata !1837, metadata !DIExpression()), !dbg !1880
  store i64 4, i64* %align.dbg.spill, align 8, !dbg !1881
  call void @llvm.dbg.declare(metadata i64* %align.dbg.spill, metadata !1887, metadata !DIExpression()), !dbg !1894
  store i64 4, i64* %0, align 8, !dbg !1894
  %_14 = load i64, i64* %0, align 8, !dbg !1894, !range !1671, !noundef !23
  br label %bb15, !dbg !1894

bb5:                                              ; preds = %bb2
; call <T as core::convert::From<T>>::from
  call void @"_ZN50_$LT$T$u20$as$u20$core..convert..From$LT$T$GT$$GT$4from17h2602f275c11ff874E"(), !dbg !1876
  br label %bb16, !dbg !1876

bb16:                                             ; preds = %bb5
  %15 = getelementptr inbounds { i64, i64 }, { i64, i64 }* %1, i32 0, i32 1, !dbg !1876
  store i64 0, i64* %15, align 8, !dbg !1876
  br label %bb7, !dbg !1896

bb7:                                              ; preds = %bb6, %bb16
  %16 = getelementptr inbounds { i64, i64 }, { i64, i64 }* %1, i32 0, i32 0, !dbg !1896
  %17 = load i64, i64* %16, align 8, !dbg !1896
  %18 = getelementptr inbounds { i64, i64 }, { i64, i64 }* %1, i32 0, i32 1, !dbg !1896
  %19 = load i64, i64* %18, align 8, !dbg !1896, !range !299, !noundef !23
  %20 = insertvalue { i64, i64 } undef, i64 %17, 0, !dbg !1896
  %21 = insertvalue { i64, i64 } %20, i64 %19, 1, !dbg !1896
  ret { i64, i64 } %21, !dbg !1896

bb15:                                             ; preds = %bb3
; call core::alloc::layout::Layout::from_size_valid_align
  %22 = call { i64, i64 } @_ZN4core5alloc6layout6Layout21from_size_valid_align17h2bd876eb57732763E(i64 %val, i64 %_14), !dbg !1897
  store { i64, i64 } %22, { i64, i64 }* %1, align 8, !dbg !1897
  br label %bb6, !dbg !1897

bb6:                                              ; preds = %bb15
  br label %bb7, !dbg !1896
}

; core::array::<impl core::fmt::Debug for [T; N]>::fmt
; Function Attrs: nonlazybind uwtable
define internal zeroext i1 @"_ZN4core5array69_$LT$impl$u20$core..fmt..Debug$u20$for$u20$$u5b$T$u3b$$u20$N$u5d$$GT$3fmt17h053978c79cf2d9e5E"([1 x i32]* align 4 %self, %"core::fmt::Formatter"* align 8 %f) unnamed_addr #2 !dbg !1898 {
start:
  %slice.dbg.spill = alloca { [0 x i32]*, i64 }, align 8
  %self.dbg.spill4 = alloca { [0 x i32]*, i64 }, align 8
  %self.dbg.spill3 = alloca [1 x i32]*, align 8
  %self.dbg.spill2 = alloca %"core::ops::range::RangeFull", align 1
  %index.dbg.spill1 = alloca %"core::ops::range::RangeFull", align 1
  %index.dbg.spill = alloca %"core::ops::range::RangeFull", align 1
  %f.dbg.spill = alloca %"core::fmt::Formatter"*, align 8
  %self.dbg.spill = alloca [1 x i32]*, align 8
  %_5 = alloca { [0 x i32]*, i64 }, align 8
  store [1 x i32]* %self, [1 x i32]** %self.dbg.spill, align 8
  call void @llvm.dbg.declare(metadata [1 x i32]** %self.dbg.spill, metadata !1903, metadata !DIExpression()), !dbg !1905
  store %"core::fmt::Formatter"* %f, %"core::fmt::Formatter"** %f.dbg.spill, align 8
  call void @llvm.dbg.declare(metadata %"core::fmt::Formatter"** %f.dbg.spill, metadata !1904, metadata !DIExpression()), !dbg !1906
  call void @llvm.dbg.declare(metadata %"core::ops::range::RangeFull"* %index.dbg.spill, metadata !1907, metadata !DIExpression()), !dbg !1917
  call void @llvm.dbg.declare(metadata %"core::ops::range::RangeFull"* %index.dbg.spill1, metadata !1919, metadata !DIExpression()), !dbg !1929
  call void @llvm.dbg.declare(metadata %"core::ops::range::RangeFull"* %self.dbg.spill2, metadata !1931, metadata !DIExpression()), !dbg !1939
  store [1 x i32]* %self, [1 x i32]** %self.dbg.spill3, align 8, !dbg !1918
  call void @llvm.dbg.declare(metadata [1 x i32]** %self.dbg.spill3, metadata !1914, metadata !DIExpression()), !dbg !1917
  %_11.0 = bitcast [1 x i32]* %self to [0 x i32]*, !dbg !1917
  %0 = getelementptr inbounds { [0 x i32]*, i64 }, { [0 x i32]*, i64 }* %self.dbg.spill4, i32 0, i32 0, !dbg !1917
  store [0 x i32]* %_11.0, [0 x i32]** %0, align 8, !dbg !1917
  %1 = getelementptr inbounds { [0 x i32]*, i64 }, { [0 x i32]*, i64 }* %self.dbg.spill4, i32 0, i32 1, !dbg !1917
  store i64 1, i64* %1, align 8, !dbg !1917
  call void @llvm.dbg.declare(metadata { [0 x i32]*, i64 }* %self.dbg.spill4, metadata !1928, metadata !DIExpression()), !dbg !1929
  %2 = getelementptr inbounds { [0 x i32]*, i64 }, { [0 x i32]*, i64 }* %slice.dbg.spill, i32 0, i32 0, !dbg !1929
  store [0 x i32]* %_11.0, [0 x i32]** %2, align 8, !dbg !1929
  %3 = getelementptr inbounds { [0 x i32]*, i64 }, { [0 x i32]*, i64 }* %slice.dbg.spill, i32 0, i32 1, !dbg !1929
  store i64 1, i64* %3, align 8, !dbg !1929
  call void @llvm.dbg.declare(metadata { [0 x i32]*, i64 }* %slice.dbg.spill, metadata !1938, metadata !DIExpression()), !dbg !1939
  %4 = getelementptr inbounds { [0 x i32]*, i64 }, { [0 x i32]*, i64 }* %_5, i32 0, i32 0, !dbg !1941
  store [0 x i32]* %_11.0, [0 x i32]** %4, align 8, !dbg !1941
  %5 = getelementptr inbounds { [0 x i32]*, i64 }, { [0 x i32]*, i64 }* %_5, i32 0, i32 1, !dbg !1941
  store i64 1, i64* %5, align 8, !dbg !1941
; call <&T as core::fmt::Debug>::fmt
  %6 = call zeroext i1 @"_ZN42_$LT$$RF$T$u20$as$u20$core..fmt..Debug$GT$3fmt17hfef8a23a17576969E"({ [0 x i32]*, i64 }* align 8 %_5, %"core::fmt::Formatter"* align 8 %f), !dbg !1942
  br label %bb1, !dbg !1942

bb1:                                              ; preds = %start
  ret i1 %6, !dbg !1943
}

; core::array::<impl core::fmt::Debug for [T; N]>::fmt
; Function Attrs: nonlazybind uwtable
define internal zeroext i1 @"_ZN4core5array69_$LT$impl$u20$core..fmt..Debug$u20$for$u20$$u5b$T$u3b$$u20$N$u5d$$GT$3fmt17h4b00c9e669529a7dE"([10 x i32]* align 4 %self, %"core::fmt::Formatter"* align 8 %f) unnamed_addr #2 !dbg !1944 {
start:
  %slice.dbg.spill = alloca { [0 x i32]*, i64 }, align 8
  %self.dbg.spill4 = alloca { [0 x i32]*, i64 }, align 8
  %self.dbg.spill3 = alloca [10 x i32]*, align 8
  %self.dbg.spill2 = alloca %"core::ops::range::RangeFull", align 1
  %index.dbg.spill1 = alloca %"core::ops::range::RangeFull", align 1
  %index.dbg.spill = alloca %"core::ops::range::RangeFull", align 1
  %f.dbg.spill = alloca %"core::fmt::Formatter"*, align 8
  %self.dbg.spill = alloca [10 x i32]*, align 8
  %_5 = alloca { [0 x i32]*, i64 }, align 8
  store [10 x i32]* %self, [10 x i32]** %self.dbg.spill, align 8
  call void @llvm.dbg.declare(metadata [10 x i32]** %self.dbg.spill, metadata !1948, metadata !DIExpression()), !dbg !1950
  store %"core::fmt::Formatter"* %f, %"core::fmt::Formatter"** %f.dbg.spill, align 8
  call void @llvm.dbg.declare(metadata %"core::fmt::Formatter"** %f.dbg.spill, metadata !1949, metadata !DIExpression()), !dbg !1951
  call void @llvm.dbg.declare(metadata %"core::ops::range::RangeFull"* %index.dbg.spill, metadata !1952, metadata !DIExpression()), !dbg !1958
  call void @llvm.dbg.declare(metadata %"core::ops::range::RangeFull"* %index.dbg.spill1, metadata !1960, metadata !DIExpression()), !dbg !1965
  call void @llvm.dbg.declare(metadata %"core::ops::range::RangeFull"* %self.dbg.spill2, metadata !1967, metadata !DIExpression()), !dbg !1972
  store [10 x i32]* %self, [10 x i32]** %self.dbg.spill3, align 8, !dbg !1959
  call void @llvm.dbg.declare(metadata [10 x i32]** %self.dbg.spill3, metadata !1957, metadata !DIExpression()), !dbg !1958
  %_11.0 = bitcast [10 x i32]* %self to [0 x i32]*, !dbg !1958
  %0 = getelementptr inbounds { [0 x i32]*, i64 }, { [0 x i32]*, i64 }* %self.dbg.spill4, i32 0, i32 0, !dbg !1958
  store [0 x i32]* %_11.0, [0 x i32]** %0, align 8, !dbg !1958
  %1 = getelementptr inbounds { [0 x i32]*, i64 }, { [0 x i32]*, i64 }* %self.dbg.spill4, i32 0, i32 1, !dbg !1958
  store i64 10, i64* %1, align 8, !dbg !1958
  call void @llvm.dbg.declare(metadata { [0 x i32]*, i64 }* %self.dbg.spill4, metadata !1964, metadata !DIExpression()), !dbg !1965
  %2 = getelementptr inbounds { [0 x i32]*, i64 }, { [0 x i32]*, i64 }* %slice.dbg.spill, i32 0, i32 0, !dbg !1965
  store [0 x i32]* %_11.0, [0 x i32]** %2, align 8, !dbg !1965
  %3 = getelementptr inbounds { [0 x i32]*, i64 }, { [0 x i32]*, i64 }* %slice.dbg.spill, i32 0, i32 1, !dbg !1965
  store i64 10, i64* %3, align 8, !dbg !1965
  call void @llvm.dbg.declare(metadata { [0 x i32]*, i64 }* %slice.dbg.spill, metadata !1971, metadata !DIExpression()), !dbg !1972
  %4 = getelementptr inbounds { [0 x i32]*, i64 }, { [0 x i32]*, i64 }* %_5, i32 0, i32 0, !dbg !1974
  store [0 x i32]* %_11.0, [0 x i32]** %4, align 8, !dbg !1974
  %5 = getelementptr inbounds { [0 x i32]*, i64 }, { [0 x i32]*, i64 }* %_5, i32 0, i32 1, !dbg !1974
  store i64 10, i64* %5, align 8, !dbg !1974
; call <&T as core::fmt::Debug>::fmt
  %6 = call zeroext i1 @"_ZN42_$LT$$RF$T$u20$as$u20$core..fmt..Debug$GT$3fmt17hfef8a23a17576969E"({ [0 x i32]*, i64 }* align 8 %_5, %"core::fmt::Formatter"* align 8 %f), !dbg !1975
  br label %bb1, !dbg !1975

bb1:                                              ; preds = %start
  ret i1 %6, !dbg !1976
}

; core::array::<impl core::fmt::Debug for [T; N]>::fmt
; Function Attrs: nonlazybind uwtable
define internal zeroext i1 @"_ZN4core5array69_$LT$impl$u20$core..fmt..Debug$u20$for$u20$$u5b$T$u3b$$u20$N$u5d$$GT$3fmt17h6cf5eec818869c0cE"([3 x i32]* align 4 %self, %"core::fmt::Formatter"* align 8 %f) unnamed_addr #2 !dbg !1977 {
start:
  %slice.dbg.spill = alloca { [0 x i32]*, i64 }, align 8
  %self.dbg.spill4 = alloca { [0 x i32]*, i64 }, align 8
  %self.dbg.spill3 = alloca [3 x i32]*, align 8
  %self.dbg.spill2 = alloca %"core::ops::range::RangeFull", align 1
  %index.dbg.spill1 = alloca %"core::ops::range::RangeFull", align 1
  %index.dbg.spill = alloca %"core::ops::range::RangeFull", align 1
  %f.dbg.spill = alloca %"core::fmt::Formatter"*, align 8
  %self.dbg.spill = alloca [3 x i32]*, align 8
  %_5 = alloca { [0 x i32]*, i64 }, align 8
  store [3 x i32]* %self, [3 x i32]** %self.dbg.spill, align 8
  call void @llvm.dbg.declare(metadata [3 x i32]** %self.dbg.spill, metadata !1981, metadata !DIExpression()), !dbg !1983
  store %"core::fmt::Formatter"* %f, %"core::fmt::Formatter"** %f.dbg.spill, align 8
  call void @llvm.dbg.declare(metadata %"core::fmt::Formatter"** %f.dbg.spill, metadata !1982, metadata !DIExpression()), !dbg !1984
  call void @llvm.dbg.declare(metadata %"core::ops::range::RangeFull"* %index.dbg.spill, metadata !1985, metadata !DIExpression()), !dbg !1991
  call void @llvm.dbg.declare(metadata %"core::ops::range::RangeFull"* %index.dbg.spill1, metadata !1993, metadata !DIExpression()), !dbg !1998
  call void @llvm.dbg.declare(metadata %"core::ops::range::RangeFull"* %self.dbg.spill2, metadata !2000, metadata !DIExpression()), !dbg !2005
  store [3 x i32]* %self, [3 x i32]** %self.dbg.spill3, align 8, !dbg !1992
  call void @llvm.dbg.declare(metadata [3 x i32]** %self.dbg.spill3, metadata !1990, metadata !DIExpression()), !dbg !1991
  %_11.0 = bitcast [3 x i32]* %self to [0 x i32]*, !dbg !1991
  %0 = getelementptr inbounds { [0 x i32]*, i64 }, { [0 x i32]*, i64 }* %self.dbg.spill4, i32 0, i32 0, !dbg !1991
  store [0 x i32]* %_11.0, [0 x i32]** %0, align 8, !dbg !1991
  %1 = getelementptr inbounds { [0 x i32]*, i64 }, { [0 x i32]*, i64 }* %self.dbg.spill4, i32 0, i32 1, !dbg !1991
  store i64 3, i64* %1, align 8, !dbg !1991
  call void @llvm.dbg.declare(metadata { [0 x i32]*, i64 }* %self.dbg.spill4, metadata !1997, metadata !DIExpression()), !dbg !1998
  %2 = getelementptr inbounds { [0 x i32]*, i64 }, { [0 x i32]*, i64 }* %slice.dbg.spill, i32 0, i32 0, !dbg !1998
  store [0 x i32]* %_11.0, [0 x i32]** %2, align 8, !dbg !1998
  %3 = getelementptr inbounds { [0 x i32]*, i64 }, { [0 x i32]*, i64 }* %slice.dbg.spill, i32 0, i32 1, !dbg !1998
  store i64 3, i64* %3, align 8, !dbg !1998
  call void @llvm.dbg.declare(metadata { [0 x i32]*, i64 }* %slice.dbg.spill, metadata !2004, metadata !DIExpression()), !dbg !2005
  %4 = getelementptr inbounds { [0 x i32]*, i64 }, { [0 x i32]*, i64 }* %_5, i32 0, i32 0, !dbg !2007
  store [0 x i32]* %_11.0, [0 x i32]** %4, align 8, !dbg !2007
  %5 = getelementptr inbounds { [0 x i32]*, i64 }, { [0 x i32]*, i64 }* %_5, i32 0, i32 1, !dbg !2007
  store i64 3, i64* %5, align 8, !dbg !2007
; call <&T as core::fmt::Debug>::fmt
  %6 = call zeroext i1 @"_ZN42_$LT$$RF$T$u20$as$u20$core..fmt..Debug$GT$3fmt17hfef8a23a17576969E"({ [0 x i32]*, i64 }* align 8 %_5, %"core::fmt::Formatter"* align 8 %f), !dbg !2008
  br label %bb1, !dbg !2008

bb1:                                              ; preds = %start
  ret i1 %6, !dbg !2009
}

; core::array::<impl core::fmt::Debug for [T; N]>::fmt
; Function Attrs: nonlazybind uwtable
define internal zeroext i1 @"_ZN4core5array69_$LT$impl$u20$core..fmt..Debug$u20$for$u20$$u5b$T$u3b$$u20$N$u5d$$GT$3fmt17hcfda82f1da1c4c29E"([5 x i32]* align 4 %self, %"core::fmt::Formatter"* align 8 %f) unnamed_addr #2 !dbg !2010 {
start:
  %slice.dbg.spill = alloca { [0 x i32]*, i64 }, align 8
  %self.dbg.spill4 = alloca { [0 x i32]*, i64 }, align 8
  %self.dbg.spill3 = alloca [5 x i32]*, align 8
  %self.dbg.spill2 = alloca %"core::ops::range::RangeFull", align 1
  %index.dbg.spill1 = alloca %"core::ops::range::RangeFull", align 1
  %index.dbg.spill = alloca %"core::ops::range::RangeFull", align 1
  %f.dbg.spill = alloca %"core::fmt::Formatter"*, align 8
  %self.dbg.spill = alloca [5 x i32]*, align 8
  %_5 = alloca { [0 x i32]*, i64 }, align 8
  store [5 x i32]* %self, [5 x i32]** %self.dbg.spill, align 8
  call void @llvm.dbg.declare(metadata [5 x i32]** %self.dbg.spill, metadata !2014, metadata !DIExpression()), !dbg !2016
  store %"core::fmt::Formatter"* %f, %"core::fmt::Formatter"** %f.dbg.spill, align 8
  call void @llvm.dbg.declare(metadata %"core::fmt::Formatter"** %f.dbg.spill, metadata !2015, metadata !DIExpression()), !dbg !2017
  call void @llvm.dbg.declare(metadata %"core::ops::range::RangeFull"* %index.dbg.spill, metadata !2018, metadata !DIExpression()), !dbg !2024
  call void @llvm.dbg.declare(metadata %"core::ops::range::RangeFull"* %index.dbg.spill1, metadata !2026, metadata !DIExpression()), !dbg !2031
  call void @llvm.dbg.declare(metadata %"core::ops::range::RangeFull"* %self.dbg.spill2, metadata !2033, metadata !DIExpression()), !dbg !2038
  store [5 x i32]* %self, [5 x i32]** %self.dbg.spill3, align 8, !dbg !2025
  call void @llvm.dbg.declare(metadata [5 x i32]** %self.dbg.spill3, metadata !2023, metadata !DIExpression()), !dbg !2024
  %_11.0 = bitcast [5 x i32]* %self to [0 x i32]*, !dbg !2024
  %0 = getelementptr inbounds { [0 x i32]*, i64 }, { [0 x i32]*, i64 }* %self.dbg.spill4, i32 0, i32 0, !dbg !2024
  store [0 x i32]* %_11.0, [0 x i32]** %0, align 8, !dbg !2024
  %1 = getelementptr inbounds { [0 x i32]*, i64 }, { [0 x i32]*, i64 }* %self.dbg.spill4, i32 0, i32 1, !dbg !2024
  store i64 5, i64* %1, align 8, !dbg !2024
  call void @llvm.dbg.declare(metadata { [0 x i32]*, i64 }* %self.dbg.spill4, metadata !2030, metadata !DIExpression()), !dbg !2031
  %2 = getelementptr inbounds { [0 x i32]*, i64 }, { [0 x i32]*, i64 }* %slice.dbg.spill, i32 0, i32 0, !dbg !2031
  store [0 x i32]* %_11.0, [0 x i32]** %2, align 8, !dbg !2031
  %3 = getelementptr inbounds { [0 x i32]*, i64 }, { [0 x i32]*, i64 }* %slice.dbg.spill, i32 0, i32 1, !dbg !2031
  store i64 5, i64* %3, align 8, !dbg !2031
  call void @llvm.dbg.declare(metadata { [0 x i32]*, i64 }* %slice.dbg.spill, metadata !2037, metadata !DIExpression()), !dbg !2038
  %4 = getelementptr inbounds { [0 x i32]*, i64 }, { [0 x i32]*, i64 }* %_5, i32 0, i32 0, !dbg !2040
  store [0 x i32]* %_11.0, [0 x i32]** %4, align 8, !dbg !2040
  %5 = getelementptr inbounds { [0 x i32]*, i64 }, { [0 x i32]*, i64 }* %_5, i32 0, i32 1, !dbg !2040
  store i64 5, i64* %5, align 8, !dbg !2040
; call <&T as core::fmt::Debug>::fmt
  %6 = call zeroext i1 @"_ZN42_$LT$$RF$T$u20$as$u20$core..fmt..Debug$GT$3fmt17hfef8a23a17576969E"({ [0 x i32]*, i64 }* align 8 %_5, %"core::fmt::Formatter"* align 8 %f), !dbg !2041
  br label %bb1, !dbg !2041

bb1:                                              ; preds = %start
  ret i1 %6, !dbg !2042
}

; core::array::<impl core::fmt::Debug for [T; N]>::fmt
; Function Attrs: nonlazybind uwtable
define internal zeroext i1 @"_ZN4core5array69_$LT$impl$u20$core..fmt..Debug$u20$for$u20$$u5b$T$u3b$$u20$N$u5d$$GT$3fmt17hee4abddf1f13537bE"([6 x i32]* align 4 %self, %"core::fmt::Formatter"* align 8 %f) unnamed_addr #2 !dbg !2043 {
start:
  %slice.dbg.spill = alloca { [0 x i32]*, i64 }, align 8
  %self.dbg.spill4 = alloca { [0 x i32]*, i64 }, align 8
  %self.dbg.spill3 = alloca [6 x i32]*, align 8
  %self.dbg.spill2 = alloca %"core::ops::range::RangeFull", align 1
  %index.dbg.spill1 = alloca %"core::ops::range::RangeFull", align 1
  %index.dbg.spill = alloca %"core::ops::range::RangeFull", align 1
  %f.dbg.spill = alloca %"core::fmt::Formatter"*, align 8
  %self.dbg.spill = alloca [6 x i32]*, align 8
  %_5 = alloca { [0 x i32]*, i64 }, align 8
  store [6 x i32]* %self, [6 x i32]** %self.dbg.spill, align 8
  call void @llvm.dbg.declare(metadata [6 x i32]** %self.dbg.spill, metadata !2047, metadata !DIExpression()), !dbg !2049
  store %"core::fmt::Formatter"* %f, %"core::fmt::Formatter"** %f.dbg.spill, align 8
  call void @llvm.dbg.declare(metadata %"core::fmt::Formatter"** %f.dbg.spill, metadata !2048, metadata !DIExpression()), !dbg !2050
  call void @llvm.dbg.declare(metadata %"core::ops::range::RangeFull"* %index.dbg.spill, metadata !2051, metadata !DIExpression()), !dbg !2057
  call void @llvm.dbg.declare(metadata %"core::ops::range::RangeFull"* %index.dbg.spill1, metadata !2059, metadata !DIExpression()), !dbg !2064
  call void @llvm.dbg.declare(metadata %"core::ops::range::RangeFull"* %self.dbg.spill2, metadata !2066, metadata !DIExpression()), !dbg !2071
  store [6 x i32]* %self, [6 x i32]** %self.dbg.spill3, align 8, !dbg !2058
  call void @llvm.dbg.declare(metadata [6 x i32]** %self.dbg.spill3, metadata !2056, metadata !DIExpression()), !dbg !2057
  %_11.0 = bitcast [6 x i32]* %self to [0 x i32]*, !dbg !2057
  %0 = getelementptr inbounds { [0 x i32]*, i64 }, { [0 x i32]*, i64 }* %self.dbg.spill4, i32 0, i32 0, !dbg !2057
  store [0 x i32]* %_11.0, [0 x i32]** %0, align 8, !dbg !2057
  %1 = getelementptr inbounds { [0 x i32]*, i64 }, { [0 x i32]*, i64 }* %self.dbg.spill4, i32 0, i32 1, !dbg !2057
  store i64 6, i64* %1, align 8, !dbg !2057
  call void @llvm.dbg.declare(metadata { [0 x i32]*, i64 }* %self.dbg.spill4, metadata !2063, metadata !DIExpression()), !dbg !2064
  %2 = getelementptr inbounds { [0 x i32]*, i64 }, { [0 x i32]*, i64 }* %slice.dbg.spill, i32 0, i32 0, !dbg !2064
  store [0 x i32]* %_11.0, [0 x i32]** %2, align 8, !dbg !2064
  %3 = getelementptr inbounds { [0 x i32]*, i64 }, { [0 x i32]*, i64 }* %slice.dbg.spill, i32 0, i32 1, !dbg !2064
  store i64 6, i64* %3, align 8, !dbg !2064
  call void @llvm.dbg.declare(metadata { [0 x i32]*, i64 }* %slice.dbg.spill, metadata !2070, metadata !DIExpression()), !dbg !2071
  %4 = getelementptr inbounds { [0 x i32]*, i64 }, { [0 x i32]*, i64 }* %_5, i32 0, i32 0, !dbg !2073
  store [0 x i32]* %_11.0, [0 x i32]** %4, align 8, !dbg !2073
  %5 = getelementptr inbounds { [0 x i32]*, i64 }, { [0 x i32]*, i64 }* %_5, i32 0, i32 1, !dbg !2073
  store i64 6, i64* %5, align 8, !dbg !2073
; call <&T as core::fmt::Debug>::fmt
  %6 = call zeroext i1 @"_ZN42_$LT$$RF$T$u20$as$u20$core..fmt..Debug$GT$3fmt17hfef8a23a17576969E"({ [0 x i32]*, i64 }* align 8 %_5, %"core::fmt::Formatter"* align 8 %f), !dbg !2074
  br label %bb1, !dbg !2074

bb1:                                              ; preds = %start
  ret i1 %6, !dbg !2075
}

; core::array::<impl core::clone::Clone for [T; N]>::clone
; Function Attrs: inlinehint nonlazybind uwtable
define internal void @"_ZN4core5array71_$LT$impl$u20$core..clone..Clone$u20$for$u20$$u5b$T$u3b$$u20$N$u5d$$GT$5clone17hb83dcd290f124dd7E"([4 x i32]* sret([4 x i32]) %0, [4 x i32]* align 4 %self) unnamed_addr #0 !dbg !2076 {
start:
  %self.dbg.spill = alloca [4 x i32]*, align 8
  store [4 x i32]* %self, [4 x i32]** %self.dbg.spill, align 8
  call void @llvm.dbg.declare(metadata [4 x i32]** %self.dbg.spill, metadata !2079, metadata !DIExpression()), !dbg !2080
; call <T as core::array::SpecArrayClone>::clone
  call void @"_ZN49_$LT$T$u20$as$u20$core..array..SpecArrayClone$GT$5clone17h07d9554687c29659E"([4 x i32]* sret([4 x i32]) %0, [4 x i32]* align 4 %self), !dbg !2081
  br label %bb1, !dbg !2081

bb1:                                              ; preds = %start
  ret void, !dbg !2082
}

; core::array::equality::<impl core::cmp::PartialEq<[B; N]> for [A; N]>::eq
; Function Attrs: inlinehint nonlazybind uwtable
define internal zeroext i1 @"_ZN4core5array8equality103_$LT$impl$u20$core..cmp..PartialEq$LT$$u5b$B$u3b$$u20$N$u5d$$GT$$u20$for$u20$$u5b$A$u3b$$u20$N$u5d$$GT$2eq17h4b48ce01a5ecb68eE"([10 x i32]* align 4 %self, [10 x i32]* align 4 %other) unnamed_addr #0 !dbg !2083 {
start:
  %other.dbg.spill = alloca [10 x i32]*, align 8
  %self.dbg.spill = alloca [10 x i32]*, align 8
  store [10 x i32]* %self, [10 x i32]** %self.dbg.spill, align 8
  call void @llvm.dbg.declare(metadata [10 x i32]** %self.dbg.spill, metadata !2090, metadata !DIExpression()), !dbg !2094
  store [10 x i32]* %other, [10 x i32]** %other.dbg.spill, align 8
  call void @llvm.dbg.declare(metadata [10 x i32]** %other.dbg.spill, metadata !2091, metadata !DIExpression()), !dbg !2095
; call <T as core::array::equality::SpecArrayEq<U,_>>::spec_eq
  %0 = call zeroext i1 @"_ZN69_$LT$T$u20$as$u20$core..array..equality..SpecArrayEq$LT$U$C$_$GT$$GT$7spec_eq17hacddd80052b2be27E"([10 x i32]* align 4 %self, [10 x i32]* align 4 %other), !dbg !2096
  br label %bb1, !dbg !2096

bb1:                                              ; preds = %start
  ret i1 %0, !dbg !2097
}

; core::array::equality::<impl core::cmp::PartialEq<[B; N]> for [A; N]>::eq
; Function Attrs: inlinehint nonlazybind uwtable
define internal zeroext i1 @"_ZN4core5array8equality103_$LT$impl$u20$core..cmp..PartialEq$LT$$u5b$B$u3b$$u20$N$u5d$$GT$$u20$for$u20$$u5b$A$u3b$$u20$N$u5d$$GT$2eq17h57a6b9bad75e9263E"([5 x i32]* align 4 %self, [5 x i32]* align 4 %other) unnamed_addr #0 !dbg !2098 {
start:
  %other.dbg.spill = alloca [5 x i32]*, align 8
  %self.dbg.spill = alloca [5 x i32]*, align 8
  store [5 x i32]* %self, [5 x i32]** %self.dbg.spill, align 8
  call void @llvm.dbg.declare(metadata [5 x i32]** %self.dbg.spill, metadata !2102, metadata !DIExpression()), !dbg !2104
  store [5 x i32]* %other, [5 x i32]** %other.dbg.spill, align 8
  call void @llvm.dbg.declare(metadata [5 x i32]** %other.dbg.spill, metadata !2103, metadata !DIExpression()), !dbg !2105
; call <T as core::array::equality::SpecArrayEq<U,_>>::spec_eq
  %0 = call zeroext i1 @"_ZN69_$LT$T$u20$as$u20$core..array..equality..SpecArrayEq$LT$U$C$_$GT$$GT$7spec_eq17h4daae926dd5717a6E"([5 x i32]* align 4 %self, [5 x i32]* align 4 %other), !dbg !2106
  br label %bb1, !dbg !2106

bb1:                                              ; preds = %start
  ret i1 %0, !dbg !2107
}

; core::array::equality::<impl core::cmp::PartialEq<[B; N]> for [A; N]>::eq
; Function Attrs: inlinehint nonlazybind uwtable
define internal zeroext i1 @"_ZN4core5array8equality103_$LT$impl$u20$core..cmp..PartialEq$LT$$u5b$B$u3b$$u20$N$u5d$$GT$$u20$for$u20$$u5b$A$u3b$$u20$N$u5d$$GT$2eq17h62fa740c32e6ba88E"([1 x i32]* align 4 %self, [1 x i32]* align 4 %other) unnamed_addr #0 !dbg !2108 {
start:
  %other.dbg.spill = alloca [1 x i32]*, align 8
  %self.dbg.spill = alloca [1 x i32]*, align 8
  store [1 x i32]* %self, [1 x i32]** %self.dbg.spill, align 8
  call void @llvm.dbg.declare(metadata [1 x i32]** %self.dbg.spill, metadata !2112, metadata !DIExpression()), !dbg !2114
  store [1 x i32]* %other, [1 x i32]** %other.dbg.spill, align 8
  call void @llvm.dbg.declare(metadata [1 x i32]** %other.dbg.spill, metadata !2113, metadata !DIExpression()), !dbg !2115
; call <T as core::array::equality::SpecArrayEq<U,_>>::spec_eq
  %0 = call zeroext i1 @"_ZN69_$LT$T$u20$as$u20$core..array..equality..SpecArrayEq$LT$U$C$_$GT$$GT$7spec_eq17h3c017ad696ca7813E"([1 x i32]* align 4 %self, [1 x i32]* align 4 %other), !dbg !2116
  br label %bb1, !dbg !2116

bb1:                                              ; preds = %start
  ret i1 %0, !dbg !2117
}

; core::array::equality::<impl core::cmp::PartialEq<[B; N]> for [A; N]>::eq
; Function Attrs: inlinehint nonlazybind uwtable
define internal zeroext i1 @"_ZN4core5array8equality103_$LT$impl$u20$core..cmp..PartialEq$LT$$u5b$B$u3b$$u20$N$u5d$$GT$$u20$for$u20$$u5b$A$u3b$$u20$N$u5d$$GT$2eq17hc54fa0657217e2dcE"([3 x i32]* align 4 %self, [3 x i32]* align 4 %other) unnamed_addr #0 !dbg !2118 {
start:
  %other.dbg.spill = alloca [3 x i32]*, align 8
  %self.dbg.spill = alloca [3 x i32]*, align 8
  store [3 x i32]* %self, [3 x i32]** %self.dbg.spill, align 8
  call void @llvm.dbg.declare(metadata [3 x i32]** %self.dbg.spill, metadata !2122, metadata !DIExpression()), !dbg !2124
  store [3 x i32]* %other, [3 x i32]** %other.dbg.spill, align 8
  call void @llvm.dbg.declare(metadata [3 x i32]** %other.dbg.spill, metadata !2123, metadata !DIExpression()), !dbg !2125
; call <T as core::array::equality::SpecArrayEq<U,_>>::spec_eq
  %0 = call zeroext i1 @"_ZN69_$LT$T$u20$as$u20$core..array..equality..SpecArrayEq$LT$U$C$_$GT$$GT$7spec_eq17h25ffee337b5d26ffE"([3 x i32]* align 4 %self, [3 x i32]* align 4 %other), !dbg !2126
  br label %bb1, !dbg !2126

bb1:                                              ; preds = %start
  ret i1 %0, !dbg !2127
}

; core::array::equality::<impl core::cmp::PartialEq<[B; N]> for [A; N]>::eq
; Function Attrs: inlinehint nonlazybind uwtable
define internal zeroext i1 @"_ZN4core5array8equality103_$LT$impl$u20$core..cmp..PartialEq$LT$$u5b$B$u3b$$u20$N$u5d$$GT$$u20$for$u20$$u5b$A$u3b$$u20$N$u5d$$GT$2eq17hebee8802bebf6791E"([6 x i32]* align 4 %self, [6 x i32]* align 4 %other) unnamed_addr #0 !dbg !2128 {
start:
  %other.dbg.spill = alloca [6 x i32]*, align 8
  %self.dbg.spill = alloca [6 x i32]*, align 8
  store [6 x i32]* %self, [6 x i32]** %self.dbg.spill, align 8
  call void @llvm.dbg.declare(metadata [6 x i32]** %self.dbg.spill, metadata !2132, metadata !DIExpression()), !dbg !2134
  store [6 x i32]* %other, [6 x i32]** %other.dbg.spill, align 8
  call void @llvm.dbg.declare(metadata [6 x i32]** %other.dbg.spill, metadata !2133, metadata !DIExpression()), !dbg !2135
; call <T as core::array::equality::SpecArrayEq<U,_>>::spec_eq
  %0 = call zeroext i1 @"_ZN69_$LT$T$u20$as$u20$core..array..equality..SpecArrayEq$LT$U$C$_$GT$$GT$7spec_eq17h3d79f9b6c556ee67E"([6 x i32]* align 4 %self, [6 x i32]* align 4 %other), !dbg !2136
  br label %bb1, !dbg !2136

bb1:                                              ; preds = %start
  ret i1 %0, !dbg !2137
}

; core::clone::impls::<impl core::clone::Clone for i32>::clone
; Function Attrs: inlinehint nonlazybind uwtable
define internal i32 @"_ZN4core5clone5impls52_$LT$impl$u20$core..clone..Clone$u20$for$u20$i32$GT$5clone17hd34e0bea25b3ffc7E"(i32* align 4 %self) unnamed_addr #0 !dbg !2138 {
start:
  %self.dbg.spill = alloca i32*, align 8
  store i32* %self, i32** %self.dbg.spill, align 8
  call void @llvm.dbg.declare(metadata i32** %self.dbg.spill, metadata !2146, metadata !DIExpression()), !dbg !2147
  %0 = load i32, i32* %self, align 4, !dbg !2148
  ret i32 %0, !dbg !2149
}

; core::clone::impls::<impl core::clone::Clone for usize>::clone
; Function Attrs: inlinehint nonlazybind uwtable
define internal i64 @"_ZN4core5clone5impls54_$LT$impl$u20$core..clone..Clone$u20$for$u20$usize$GT$5clone17h1a02ee8c3206d04dE"(i64* align 8 %self) unnamed_addr #0 !dbg !2150 {
start:
  %self.dbg.spill = alloca i64*, align 8
  store i64* %self, i64** %self.dbg.spill, align 8
  call void @llvm.dbg.declare(metadata i64** %self.dbg.spill, metadata !2155, metadata !DIExpression()), !dbg !2156
  %0 = load i64, i64* %self, align 8, !dbg !2157
  ret i64 %0, !dbg !2158
}

; core::slice::<impl [T]>::as_mut_ptr
; Function Attrs: inlinehint nonlazybind uwtable
define internal i32* @"_ZN4core5slice29_$LT$impl$u20$$u5b$T$u5d$$GT$10as_mut_ptr17hcc198bcf490c4d88E"([0 x i32]* align 4 %self.0, i64 %self.1) unnamed_addr #0 !dbg !2159 {
start:
  %self.dbg.spill = alloca { [0 x i32]*, i64 }, align 8
  %0 = getelementptr inbounds { [0 x i32]*, i64 }, { [0 x i32]*, i64 }* %self.dbg.spill, i32 0, i32 0
  store [0 x i32]* %self.0, [0 x i32]** %0, align 8
  %1 = getelementptr inbounds { [0 x i32]*, i64 }, { [0 x i32]*, i64 }* %self.dbg.spill, i32 0, i32 1
  store i64 %self.1, i64* %1, align 8
  call void @llvm.dbg.declare(metadata { [0 x i32]*, i64 }* %self.dbg.spill, metadata !2167, metadata !DIExpression()), !dbg !2168
  %2 = bitcast [0 x i32]* %self.0 to i32*, !dbg !2169
  ret i32* %2, !dbg !2170
}

; core::slice::<impl [T]>::as_ptr
; Function Attrs: inlinehint nonlazybind uwtable
define internal i8* @"_ZN4core5slice29_$LT$impl$u20$$u5b$T$u5d$$GT$6as_ptr17haf1c774ddfcf8a7dE"([0 x i8]* align 1 %self.0, i64 %self.1) unnamed_addr #0 !dbg !2171 {
start:
  %self.dbg.spill = alloca { [0 x i8]*, i64 }, align 8
  %0 = getelementptr inbounds { [0 x i8]*, i64 }, { [0 x i8]*, i64 }* %self.dbg.spill, i32 0, i32 0
  store [0 x i8]* %self.0, [0 x i8]** %0, align 8
  %1 = getelementptr inbounds { [0 x i8]*, i64 }, { [0 x i8]*, i64 }* %self.dbg.spill, i32 0, i32 1
  store i64 %self.1, i64* %1, align 8
  call void @llvm.dbg.declare(metadata { [0 x i8]*, i64 }* %self.dbg.spill, metadata !2181, metadata !DIExpression()), !dbg !2184
  %2 = bitcast [0 x i8]* %self.0 to i8*, !dbg !2185
  ret i8* %2, !dbg !2186
}

; core::slice::iter::Iter<T>::new
; Function Attrs: inlinehint nonlazybind uwtable
define internal { i32*, i32* } @"_ZN4core5slice4iter13Iter$LT$T$GT$3new17hc8f477891223844fE"([0 x i32]* align 4 %slice.0, i64 %slice.1) unnamed_addr #0 !dbg !2187 {
start:
  %ptr.dbg.spill11 = alloca i32*, align 8
  %0 = alloca i8*, align 8
  %count.dbg.spill10 = alloca i64, align 8
  %self.dbg.spill9 = alloca i8*, align 8
  %count.dbg.spill8 = alloca i64, align 8
  %self.dbg.spill7 = alloca i8*, align 8
  %count.dbg.spill5 = alloca i64, align 8
  %self.dbg.spill4 = alloca i32*, align 8
  %count.dbg.spill = alloca i64, align 8
  %self.dbg.spill3 = alloca i32*, align 8
  %1 = alloca i8, align 1
  %other.dbg.spill = alloca i8*, align 8
  %data_address.dbg.spill = alloca {}*, align 8
  %2 = alloca {}*, align 8
  %self.dbg.spill2 = alloca i8*, align 8
  %self.dbg.spill1 = alloca i32*, align 8
  %ptr.dbg.spill = alloca i32*, align 8
  %self.dbg.spill = alloca { [0 x i32]*, i64 }, align 8
  %metadata.dbg.spill = alloca {}, align 1
  %slice.dbg.spill = alloca { [0 x i32]*, i64 }, align 8
  %_31 = alloca %"core::ptr::metadata::PtrComponents<u8>", align 8
  %_30 = alloca %"core::ptr::metadata::PtrRepr<u8>", align 8
  %_18 = alloca i32*, align 8
  %end = alloca i32*, align 8
  %3 = alloca { i32*, i32* }, align 8
  %4 = getelementptr inbounds { [0 x i32]*, i64 }, { [0 x i32]*, i64 }* %slice.dbg.spill, i32 0, i32 0
  store [0 x i32]* %slice.0, [0 x i32]** %4, align 8
  %5 = getelementptr inbounds { [0 x i32]*, i64 }, { [0 x i32]*, i64 }* %slice.dbg.spill, i32 0, i32 1
  store i64 %slice.1, i64* %5, align 8
  call void @llvm.dbg.declare(metadata { [0 x i32]*, i64 }* %slice.dbg.spill, metadata !2190, metadata !DIExpression()), !dbg !2195
  call void @llvm.dbg.declare(metadata i32** %end, metadata !2193, metadata !DIExpression()), !dbg !2196
  call void @llvm.dbg.declare(metadata {}* %metadata.dbg.spill, metadata !2197, metadata !DIExpression()), !dbg !2204
  %6 = getelementptr inbounds { [0 x i32]*, i64 }, { [0 x i32]*, i64 }* %self.dbg.spill, i32 0, i32 0, !dbg !2220
  store [0 x i32]* %slice.0, [0 x i32]** %6, align 8, !dbg !2220
  %7 = getelementptr inbounds { [0 x i32]*, i64 }, { [0 x i32]*, i64 }* %self.dbg.spill, i32 0, i32 1, !dbg !2220
  store i64 %slice.1, i64* %7, align 8, !dbg !2220
  call void @llvm.dbg.declare(metadata { [0 x i32]*, i64 }* %self.dbg.spill, metadata !2221, metadata !DIExpression()), !dbg !2227
  %ptr = bitcast [0 x i32]* %slice.0 to i32*, !dbg !2227
  store i32* %ptr, i32** %ptr.dbg.spill, align 8, !dbg !2227
  call void @llvm.dbg.declare(metadata i32** %ptr.dbg.spill, metadata !2191, metadata !DIExpression()), !dbg !2228
  store i32* %ptr, i32** %self.dbg.spill1, align 8, !dbg !2219
  call void @llvm.dbg.declare(metadata i32** %self.dbg.spill1, metadata !2217, metadata !DIExpression()), !dbg !2229
  %self = bitcast i32* %ptr to i8*, !dbg !2229
  store i8* %self, i8** %self.dbg.spill2, align 8, !dbg !2229
  call void @llvm.dbg.declare(metadata i8** %self.dbg.spill2, metadata !2230, metadata !DIExpression()), !dbg !2237
  %8 = bitcast {}** %2 to i64*, !dbg !2239
  store i64 0, i64* %8, align 8, !dbg !2239
  %data_address = load {}*, {}** %2, align 8, !dbg !2239
  store {}* %data_address, {}** %data_address.dbg.spill, align 8, !dbg !2239
  call void @llvm.dbg.declare(metadata {}** %data_address.dbg.spill, metadata !2203, metadata !DIExpression()), !dbg !2204
  br label %bb5, !dbg !2239

bb5:                                              ; preds = %start
  %9 = bitcast %"core::ptr::metadata::PtrComponents<u8>"* %_31 to {}**, !dbg !2204
  store {}* %data_address, {}** %9, align 8, !dbg !2204
  %10 = bitcast %"core::ptr::metadata::PtrRepr<u8>"* %_30 to %"core::ptr::metadata::PtrComponents<u8>"*, !dbg !2204
  %11 = bitcast %"core::ptr::metadata::PtrComponents<u8>"* %10 to i8*, !dbg !2204
  %12 = bitcast %"core::ptr::metadata::PtrComponents<u8>"* %_31 to i8*, !dbg !2204
  call void @llvm.memcpy.p0i8.p0i8.i64(i8* align 8 %11, i8* align 8 %12, i64 8, i1 false), !dbg !2204
  %13 = bitcast %"core::ptr::metadata::PtrRepr<u8>"* %_30 to i8**, !dbg !2204
  %other = load i8*, i8** %13, align 8, !dbg !2204
  store i8* %other, i8** %other.dbg.spill, align 8, !dbg !2204
  call void @llvm.dbg.declare(metadata i8** %other.dbg.spill, metadata !2236, metadata !DIExpression()), !dbg !2237
  %14 = icmp eq i8* %self, %other, !dbg !2237
  %15 = zext i1 %14 to i8, !dbg !2237
  store i8 %15, i8* %1, align 1, !dbg !2237
  %16 = load i8, i8* %1, align 1, !dbg !2237, !range !680, !noundef !23
  %_6 = trunc i8 %16 to i1, !dbg !2237
  br label %bb6, !dbg !2237

bb6:                                              ; preds = %bb5
  %_5 = xor i1 %_6, true, !dbg !2247
  call void @llvm.assume(i1 %_5), !dbg !2248
  br label %bb1, !dbg !2248

bb1:                                              ; preds = %bb6
  br i1 false, label %bb2, label %bb3, !dbg !2249

bb2:                                              ; preds = %bb1
  %self6 = bitcast i32* %ptr to i8*, !dbg !2250
  store i8* %self6, i8** %self.dbg.spill7, align 8, !dbg !2250
  call void @llvm.dbg.declare(metadata i8** %self.dbg.spill7, metadata !2251, metadata !DIExpression()), !dbg !2258
  store i64 %slice.1, i64* %count.dbg.spill8, align 8, !dbg !2259
  call void @llvm.dbg.declare(metadata i64* %count.dbg.spill8, metadata !2257, metadata !DIExpression()), !dbg !2258
  store i8* %self6, i8** %self.dbg.spill9, align 8, !dbg !2258
  call void @llvm.dbg.declare(metadata i8** %self.dbg.spill9, metadata !2260, metadata !DIExpression()), !dbg !2267
  store i64 %slice.1, i64* %count.dbg.spill10, align 8, !dbg !2258
  call void @llvm.dbg.declare(metadata i64* %count.dbg.spill10, metadata !2266, metadata !DIExpression()), !dbg !2267
  %17 = getelementptr i8, i8* %self6, i64 %slice.1, !dbg !2267
  store i8* %17, i8** %0, align 8, !dbg !2267
  %_10 = load i8*, i8** %0, align 8, !dbg !2267
  br label %bb7, !dbg !2267

bb3:                                              ; preds = %bb1
  store i32* %ptr, i32** %self.dbg.spill3, align 8, !dbg !2269
  call void @llvm.dbg.declare(metadata i32** %self.dbg.spill3, metadata !2270, metadata !DIExpression()), !dbg !2277
  store i64 %slice.1, i64* %count.dbg.spill, align 8, !dbg !2278
  call void @llvm.dbg.declare(metadata i64* %count.dbg.spill, metadata !2276, metadata !DIExpression()), !dbg !2277
  store i32* %ptr, i32** %self.dbg.spill4, align 8, !dbg !2277
  call void @llvm.dbg.declare(metadata i32** %self.dbg.spill4, metadata !2279, metadata !DIExpression()), !dbg !2286
  store i64 %slice.1, i64* %count.dbg.spill5, align 8, !dbg !2277
  call void @llvm.dbg.declare(metadata i64* %count.dbg.spill5, metadata !2285, metadata !DIExpression()), !dbg !2286
  %18 = getelementptr inbounds i32, i32* %ptr, i64 %slice.1, !dbg !2286
  store i32* %18, i32** %end, align 8, !dbg !2286
  br label %bb8, !dbg !2286

bb8:                                              ; preds = %bb3
  br label %bb4, !dbg !2288

bb4:                                              ; preds = %bb7, %bb8
  store i32* %ptr, i32** %ptr.dbg.spill11, align 8, !dbg !2289
  call void @llvm.dbg.declare(metadata i32** %ptr.dbg.spill11, metadata !2290, metadata !DIExpression()), !dbg !2296
  store i32* %ptr, i32** %_18, align 8, !dbg !2296
  %_21 = load i32*, i32** %end, align 8, !dbg !2298
  %19 = bitcast { i32*, i32* }* %3 to i32**, !dbg !2299
  %20 = load i32*, i32** %_18, align 8, !dbg !2299, !nonnull !23, !noundef !23
  store i32* %20, i32** %19, align 8, !dbg !2299
  %21 = getelementptr inbounds { i32*, i32* }, { i32*, i32* }* %3, i32 0, i32 1, !dbg !2299
  store i32* %_21, i32** %21, align 8, !dbg !2299
  %22 = getelementptr inbounds { i32*, i32* }, { i32*, i32* }* %3, i32 0, i32 0, !dbg !2300
  %23 = load i32*, i32** %22, align 8, !dbg !2300, !nonnull !23, !noundef !23
  %24 = getelementptr inbounds { i32*, i32* }, { i32*, i32* }* %3, i32 0, i32 1, !dbg !2300
  %25 = load i32*, i32** %24, align 8, !dbg !2300
  %26 = insertvalue { i32*, i32* } undef, i32* %23, 0, !dbg !2300
  %27 = insertvalue { i32*, i32* } %26, i32* %25, 1, !dbg !2300
  ret { i32*, i32* } %27, !dbg !2300

bb7:                                              ; preds = %bb2
  %28 = bitcast i8* %_10 to i32*, !dbg !2250
  store i32* %28, i32** %end, align 8, !dbg !2250
  br label %bb4, !dbg !2288
}

; core::result::Result<T,E>::map_err
; Function Attrs: inlinehint nonlazybind uwtable
define internal void @"_ZN4core6result19Result$LT$T$C$E$GT$7map_err17h465af87d79c9bb4eE"(%"core::result::Result<core::alloc::layout::Layout, alloc::collections::TryReserveErrorKind>"* sret(%"core::result::Result<core::alloc::layout::Layout, alloc::collections::TryReserveErrorKind>") %0, i64 %1, i64 %2) unnamed_addr #0 !dbg !2301 {
start:
  %t.dbg.spill = alloca { i64, i64 }, align 8
  %e.dbg.spill = alloca %"core::alloc::layout::LayoutError", align 1
  %op.dbg.spill = alloca %"[closure@alloc::raw_vec::finish_grow<alloc::alloc::Global>::{closure#0}]", align 1
  %_11 = alloca i8, align 1
  %_9 = alloca { %"core::alloc::layout::LayoutError" }, align 1
  %self = alloca { i64, i64 }, align 8
  %3 = getelementptr inbounds { i64, i64 }, { i64, i64 }* %self, i32 0, i32 0
  store i64 %1, i64* %3, align 8
  %4 = getelementptr inbounds { i64, i64 }, { i64, i64 }* %self, i32 0, i32 1
  store i64 %2, i64* %4, align 8
  call void @llvm.dbg.declare(metadata { i64, i64 }* %self, metadata !2322, metadata !DIExpression()), !dbg !2331
  call void @llvm.dbg.declare(metadata %"[closure@alloc::raw_vec::finish_grow<alloc::alloc::Global>::{closure#0}]"* %op.dbg.spill, metadata !2323, metadata !DIExpression()), !dbg !2332
  call void @llvm.dbg.declare(metadata %"core::alloc::layout::LayoutError"* %e.dbg.spill, metadata !2326, metadata !DIExpression()), !dbg !2333
  store i8 1, i8* %_11, align 1, !dbg !2334
  %5 = getelementptr inbounds { i64, i64 }, { i64, i64 }* %self, i32 0, i32 1, !dbg !2334
  %6 = load i64, i64* %5, align 8, !dbg !2334, !range !299, !noundef !23
  %7 = icmp eq i64 %6, 0, !dbg !2334
  %_3 = select i1 %7, i64 1, i64 0, !dbg !2334
  switch i64 %_3, label %bb2 [
    i64 0, label %bb3
    i64 1, label %bb1
  ], !dbg !2335

bb2:                                              ; preds = %start
  unreachable, !dbg !2334

bb3:                                              ; preds = %start
  %8 = getelementptr inbounds { i64, i64 }, { i64, i64 }* %self, i32 0, i32 0, !dbg !2336
  %t.0 = load i64, i64* %8, align 8, !dbg !2336
  %9 = getelementptr inbounds { i64, i64 }, { i64, i64 }* %self, i32 0, i32 1, !dbg !2336
  %t.1 = load i64, i64* %9, align 8, !dbg !2336, !range !1671, !noundef !23
  %10 = getelementptr inbounds { i64, i64 }, { i64, i64 }* %t.dbg.spill, i32 0, i32 0, !dbg !2336
  store i64 %t.0, i64* %10, align 8, !dbg !2336
  %11 = getelementptr inbounds { i64, i64 }, { i64, i64 }* %t.dbg.spill, i32 0, i32 1, !dbg !2336
  store i64 %t.1, i64* %11, align 8, !dbg !2336
  call void @llvm.dbg.declare(metadata { i64, i64 }* %t.dbg.spill, metadata !2324, metadata !DIExpression()), !dbg !2337
  %12 = bitcast %"core::result::Result<core::alloc::layout::Layout, alloc::collections::TryReserveErrorKind>"* %0 to %"core::result::Result<core::alloc::layout::Layout, alloc::collections::TryReserveErrorKind>::Ok"*, !dbg !2338
  %13 = getelementptr inbounds %"core::result::Result<core::alloc::layout::Layout, alloc::collections::TryReserveErrorKind>::Ok", %"core::result::Result<core::alloc::layout::Layout, alloc::collections::TryReserveErrorKind>::Ok"* %12, i32 0, i32 1, !dbg !2338
  %14 = getelementptr inbounds { i64, i64 }, { i64, i64 }* %13, i32 0, i32 0, !dbg !2338
  store i64 %t.0, i64* %14, align 8, !dbg !2338
  %15 = getelementptr inbounds { i64, i64 }, { i64, i64 }* %13, i32 0, i32 1, !dbg !2338
  store i64 %t.1, i64* %15, align 8, !dbg !2338
  %16 = bitcast %"core::result::Result<core::alloc::layout::Layout, alloc::collections::TryReserveErrorKind>"* %0 to i64*, !dbg !2338
  store i64 0, i64* %16, align 8, !dbg !2338
  br label %bb7, !dbg !2339

bb1:                                              ; preds = %start
  store i8 0, i8* %_11, align 1, !dbg !2340
  %17 = bitcast { %"core::alloc::layout::LayoutError" }* %_9 to %"core::alloc::layout::LayoutError"*, !dbg !2340
; call alloc::raw_vec::finish_grow::{{closure}}
  %18 = call { i64, i64 } @"_ZN5alloc7raw_vec11finish_grow28_$u7b$$u7b$closure$u7d$$u7d$17h68279da78d4449ffE"(), !dbg !2340
  %_7.0 = extractvalue { i64, i64 } %18, 0, !dbg !2340
  %_7.1 = extractvalue { i64, i64 } %18, 1, !dbg !2340
  br label %bb4, !dbg !2340

bb4:                                              ; preds = %bb1
  %19 = bitcast %"core::result::Result<core::alloc::layout::Layout, alloc::collections::TryReserveErrorKind>"* %0 to %"core::result::Result<core::alloc::layout::Layout, alloc::collections::TryReserveErrorKind>::Err"*, !dbg !2341
  %20 = getelementptr inbounds %"core::result::Result<core::alloc::layout::Layout, alloc::collections::TryReserveErrorKind>::Err", %"core::result::Result<core::alloc::layout::Layout, alloc::collections::TryReserveErrorKind>::Err"* %19, i32 0, i32 1, !dbg !2341
  %21 = getelementptr inbounds { i64, i64 }, { i64, i64 }* %20, i32 0, i32 0, !dbg !2341
  store i64 %_7.0, i64* %21, align 8, !dbg !2341
  %22 = getelementptr inbounds { i64, i64 }, { i64, i64 }* %20, i32 0, i32 1, !dbg !2341
  store i64 %_7.1, i64* %22, align 8, !dbg !2341
  %23 = bitcast %"core::result::Result<core::alloc::layout::Layout, alloc::collections::TryReserveErrorKind>"* %0 to i64*, !dbg !2341
  store i64 1, i64* %23, align 8, !dbg !2341
  br label %bb7, !dbg !2342

bb7:                                              ; preds = %bb3, %bb4
  %24 = load i8, i8* %_11, align 1, !dbg !2343, !range !680, !noundef !23
  %25 = trunc i8 %24 to i1, !dbg !2343
  br i1 %25, label %bb6, label %bb5, !dbg !2343

bb5:                                              ; preds = %bb6, %bb7
  ret void, !dbg !2344

bb6:                                              ; preds = %bb7
  br label %bb5, !dbg !2343
}

; core::result::Result<T,E>::map_err
; Function Attrs: inlinehint nonlazybind uwtable
define internal void @"_ZN4core6result19Result$LT$T$C$E$GT$7map_err17h7199e5644a34f8f6E"(%"core::result::Result<core::ptr::non_null::NonNull<[u8]>, alloc::collections::TryReserveError>"* sret(%"core::result::Result<core::ptr::non_null::NonNull<[u8]>, alloc::collections::TryReserveError>") %0, i8* %1, i64 %2, i64* align 8 %op) unnamed_addr #0 !dbg !2345 {
start:
  %t.dbg.spill = alloca { i8*, i64 }, align 8
  %e.dbg.spill = alloca %"core::alloc::AllocError", align 1
  %op.dbg.spill = alloca i64*, align 8
  %_11 = alloca i8, align 1
  %_9 = alloca { %"core::alloc::AllocError" }, align 1
  %self = alloca { i8*, i64 }, align 8
  %3 = getelementptr inbounds { i8*, i64 }, { i8*, i64 }* %self, i32 0, i32 0
  store i8* %1, i8** %3, align 8
  %4 = getelementptr inbounds { i8*, i64 }, { i8*, i64 }* %self, i32 0, i32 1
  store i64 %2, i64* %4, align 8
  call void @llvm.dbg.declare(metadata { i8*, i64 }* %self, metadata !2392, metadata !DIExpression()), !dbg !2401
  store i64* %op, i64** %op.dbg.spill, align 8
  call void @llvm.dbg.declare(metadata i64** %op.dbg.spill, metadata !2393, metadata !DIExpression()), !dbg !2402
  call void @llvm.dbg.declare(metadata %"core::alloc::AllocError"* %e.dbg.spill, metadata !2396, metadata !DIExpression()), !dbg !2403
  store i8 1, i8* %_11, align 1, !dbg !2404
  %5 = bitcast { i8*, i64 }* %self to {}**, !dbg !2404
  %6 = load {}*, {}** %5, align 8, !dbg !2404
  %7 = icmp eq {}* %6, null, !dbg !2404
  %_3 = select i1 %7, i64 1, i64 0, !dbg !2404
  switch i64 %_3, label %bb2 [
    i64 0, label %bb3
    i64 1, label %bb1
  ], !dbg !2405

bb2:                                              ; preds = %start
  unreachable, !dbg !2404

bb3:                                              ; preds = %start
  %8 = getelementptr inbounds { i8*, i64 }, { i8*, i64 }* %self, i32 0, i32 0, !dbg !2406
  %t.0 = load i8*, i8** %8, align 8, !dbg !2406, !nonnull !23, !noundef !23
  %9 = getelementptr inbounds { i8*, i64 }, { i8*, i64 }* %self, i32 0, i32 1, !dbg !2406
  %t.1 = load i64, i64* %9, align 8, !dbg !2406
  %10 = getelementptr inbounds { i8*, i64 }, { i8*, i64 }* %t.dbg.spill, i32 0, i32 0, !dbg !2406
  store i8* %t.0, i8** %10, align 8, !dbg !2406
  %11 = getelementptr inbounds { i8*, i64 }, { i8*, i64 }* %t.dbg.spill, i32 0, i32 1, !dbg !2406
  store i64 %t.1, i64* %11, align 8, !dbg !2406
  call void @llvm.dbg.declare(metadata { i8*, i64 }* %t.dbg.spill, metadata !2394, metadata !DIExpression()), !dbg !2407
  %12 = bitcast %"core::result::Result<core::ptr::non_null::NonNull<[u8]>, alloc::collections::TryReserveError>"* %0 to %"core::result::Result<core::ptr::non_null::NonNull<[u8]>, alloc::collections::TryReserveError>::Ok"*, !dbg !2408
  %13 = getelementptr inbounds %"core::result::Result<core::ptr::non_null::NonNull<[u8]>, alloc::collections::TryReserveError>::Ok", %"core::result::Result<core::ptr::non_null::NonNull<[u8]>, alloc::collections::TryReserveError>::Ok"* %12, i32 0, i32 1, !dbg !2408
  %14 = getelementptr inbounds { i8*, i64 }, { i8*, i64 }* %13, i32 0, i32 0, !dbg !2408
  store i8* %t.0, i8** %14, align 8, !dbg !2408
  %15 = getelementptr inbounds { i8*, i64 }, { i8*, i64 }* %13, i32 0, i32 1, !dbg !2408
  store i64 %t.1, i64* %15, align 8, !dbg !2408
  %16 = bitcast %"core::result::Result<core::ptr::non_null::NonNull<[u8]>, alloc::collections::TryReserveError>"* %0 to i64*, !dbg !2408
  store i64 0, i64* %16, align 8, !dbg !2408
  br label %bb7, !dbg !2409

bb1:                                              ; preds = %start
  store i8 0, i8* %_11, align 1, !dbg !2410
  %17 = bitcast { %"core::alloc::AllocError" }* %_9 to %"core::alloc::AllocError"*, !dbg !2410
; call alloc::raw_vec::finish_grow::{{closure}}
  %18 = call { i64, i64 } @"_ZN5alloc7raw_vec11finish_grow28_$u7b$$u7b$closure$u7d$$u7d$17ha5dda3eec3319225E"(i64* align 8 %op), !dbg !2410
  %_7.0 = extractvalue { i64, i64 } %18, 0, !dbg !2410
  %_7.1 = extractvalue { i64, i64 } %18, 1, !dbg !2410
  br label %bb4, !dbg !2410

bb4:                                              ; preds = %bb1
  %19 = bitcast %"core::result::Result<core::ptr::non_null::NonNull<[u8]>, alloc::collections::TryReserveError>"* %0 to %"core::result::Result<core::ptr::non_null::NonNull<[u8]>, alloc::collections::TryReserveError>::Err"*, !dbg !2411
  %20 = getelementptr inbounds %"core::result::Result<core::ptr::non_null::NonNull<[u8]>, alloc::collections::TryReserveError>::Err", %"core::result::Result<core::ptr::non_null::NonNull<[u8]>, alloc::collections::TryReserveError>::Err"* %19, i32 0, i32 1, !dbg !2411
  %21 = getelementptr inbounds { i64, i64 }, { i64, i64 }* %20, i32 0, i32 0, !dbg !2411
  store i64 %_7.0, i64* %21, align 8, !dbg !2411
  %22 = getelementptr inbounds { i64, i64 }, { i64, i64 }* %20, i32 0, i32 1, !dbg !2411
  store i64 %_7.1, i64* %22, align 8, !dbg !2411
  %23 = bitcast %"core::result::Result<core::ptr::non_null::NonNull<[u8]>, alloc::collections::TryReserveError>"* %0 to i64*, !dbg !2411
  store i64 1, i64* %23, align 8, !dbg !2411
  br label %bb7, !dbg !2412

bb7:                                              ; preds = %bb3, %bb4
  %24 = load i8, i8* %_11, align 1, !dbg !2413, !range !680, !noundef !23
  %25 = trunc i8 %24 to i1, !dbg !2413
  br i1 %25, label %bb6, label %bb5, !dbg !2413

bb5:                                              ; preds = %bb6, %bb7
  ret void, !dbg !2414

bb6:                                              ; preds = %bb7
  br label %bb5, !dbg !2413
}

; core::result::Result<T,E>::map_err
; Function Attrs: inlinehint nonlazybind uwtable
define internal { i64, i64 } @"_ZN4core6result19Result$LT$T$C$E$GT$7map_err17hb2f0b5181bc162c4E"(i64 %0, i64 %1) unnamed_addr #0 !dbg !2415 {
start:
  %e.dbg.spill = alloca { i64, i64 }, align 8
  %t.dbg.spill = alloca {}, align 1
  %op.dbg.spill = alloca %"[closure@alloc::raw_vec::handle_reserve::{closure#0}]", align 1
  %_11 = alloca i8, align 1
  %_9 = alloca { i64, i64 }, align 8
  %2 = alloca { i64, i64 }, align 8
  %self = alloca { i64, i64 }, align 8
  %3 = getelementptr inbounds { i64, i64 }, { i64, i64 }* %self, i32 0, i32 0
  store i64 %0, i64* %3, align 8
  %4 = getelementptr inbounds { i64, i64 }, { i64, i64 }* %self, i32 0, i32 1
  store i64 %1, i64* %4, align 8
  call void @llvm.dbg.declare(metadata { i64, i64 }* %self, metadata !2449, metadata !DIExpression()), !dbg !2457
  call void @llvm.dbg.declare(metadata %"[closure@alloc::raw_vec::handle_reserve::{closure#0}]"* %op.dbg.spill, metadata !2450, metadata !DIExpression()), !dbg !2458
  call void @llvm.dbg.declare(metadata {}* %t.dbg.spill, metadata !2451, metadata !DIExpression()), !dbg !2459
  store i8 1, i8* %_11, align 1, !dbg !2460
  %5 = getelementptr inbounds { i64, i64 }, { i64, i64 }* %self, i32 0, i32 1, !dbg !2460
  %6 = load i64, i64* %5, align 8, !dbg !2460, !range !2461, !noundef !23
  %7 = sub i64 %6, -9223372036854775807, !dbg !2460
  %8 = icmp eq i64 %7, 0, !dbg !2460
  %_3 = select i1 %8, i64 0, i64 1, !dbg !2460
  switch i64 %_3, label %bb2 [
    i64 0, label %bb3
    i64 1, label %bb1
  ], !dbg !2462

bb2:                                              ; preds = %start
  unreachable, !dbg !2460

bb3:                                              ; preds = %start
  %9 = bitcast { i64, i64 }* %2 to %"core::result::Result<(), alloc::collections::TryReserveErrorKind>::Ok"*, !dbg !2463
  %10 = bitcast %"core::result::Result<(), alloc::collections::TryReserveErrorKind>::Ok"* %9 to {}*, !dbg !2463
  %11 = getelementptr inbounds { i64, i64 }, { i64, i64 }* %2, i32 0, i32 1, !dbg !2463
  store i64 -9223372036854775807, i64* %11, align 8, !dbg !2463
  br label %bb7, !dbg !2464

bb1:                                              ; preds = %start
  %12 = getelementptr inbounds { i64, i64 }, { i64, i64 }* %self, i32 0, i32 0, !dbg !2465
  %e.0 = load i64, i64* %12, align 8, !dbg !2465
  %13 = getelementptr inbounds { i64, i64 }, { i64, i64 }* %self, i32 0, i32 1, !dbg !2465
  %e.1 = load i64, i64* %13, align 8, !dbg !2465, !range !299, !noundef !23
  %14 = getelementptr inbounds { i64, i64 }, { i64, i64 }* %e.dbg.spill, i32 0, i32 0, !dbg !2465
  store i64 %e.0, i64* %14, align 8, !dbg !2465
  %15 = getelementptr inbounds { i64, i64 }, { i64, i64 }* %e.dbg.spill, i32 0, i32 1, !dbg !2465
  store i64 %e.1, i64* %15, align 8, !dbg !2465
  call void @llvm.dbg.declare(metadata { i64, i64 }* %e.dbg.spill, metadata !2453, metadata !DIExpression()), !dbg !2466
  store i8 0, i8* %_11, align 1, !dbg !2467
  %16 = getelementptr inbounds { i64, i64 }, { i64, i64 }* %_9, i32 0, i32 0, !dbg !2467
  store i64 %e.0, i64* %16, align 8, !dbg !2467
  %17 = getelementptr inbounds { i64, i64 }, { i64, i64 }* %_9, i32 0, i32 1, !dbg !2467
  store i64 %e.1, i64* %17, align 8, !dbg !2467
  %18 = getelementptr inbounds { i64, i64 }, { i64, i64 }* %_9, i32 0, i32 0, !dbg !2467
  %19 = load i64, i64* %18, align 8, !dbg !2467
  %20 = getelementptr inbounds { i64, i64 }, { i64, i64 }* %_9, i32 0, i32 1, !dbg !2467
  %21 = load i64, i64* %20, align 8, !dbg !2467, !range !299, !noundef !23
; call alloc::raw_vec::handle_reserve::{{closure}}
  %22 = call { i64, i64 } @"_ZN5alloc7raw_vec14handle_reserve28_$u7b$$u7b$closure$u7d$$u7d$17hfa61a9303ea46fc9E"(i64 %19, i64 %21), !dbg !2467
  %_7.0 = extractvalue { i64, i64 } %22, 0, !dbg !2467
  %_7.1 = extractvalue { i64, i64 } %22, 1, !dbg !2467
  br label %bb4, !dbg !2467

bb4:                                              ; preds = %bb1
  %23 = getelementptr inbounds { i64, i64 }, { i64, i64 }* %2, i32 0, i32 0, !dbg !2468
  store i64 %_7.0, i64* %23, align 8, !dbg !2468
  %24 = getelementptr inbounds { i64, i64 }, { i64, i64 }* %2, i32 0, i32 1, !dbg !2468
  store i64 %_7.1, i64* %24, align 8, !dbg !2468
  br label %bb7, !dbg !2469

bb7:                                              ; preds = %bb3, %bb4
  %25 = load i8, i8* %_11, align 1, !dbg !2470, !range !680, !noundef !23
  %26 = trunc i8 %25 to i1, !dbg !2470
  br i1 %26, label %bb6, label %bb5, !dbg !2470

bb5:                                              ; preds = %bb6, %bb7
  %27 = getelementptr inbounds { i64, i64 }, { i64, i64 }* %2, i32 0, i32 0, !dbg !2471
  %28 = load i64, i64* %27, align 8, !dbg !2471
  %29 = getelementptr inbounds { i64, i64 }, { i64, i64 }* %2, i32 0, i32 1, !dbg !2471
  %30 = load i64, i64* %29, align 8, !dbg !2471, !range !2461, !noundef !23
  %31 = insertvalue { i64, i64 } undef, i64 %28, 0, !dbg !2471
  %32 = insertvalue { i64, i64 } %31, i64 %30, 1, !dbg !2471
  ret { i64, i64 } %32, !dbg !2471

bb6:                                              ; preds = %bb7
  br label %bb5, !dbg !2470
}

; core::panicking::assert_failed
; Function Attrs: cold noreturn nonlazybind uwtable
define internal void @_ZN4core9panicking13assert_failed17h102e7dff1d1804d2E(i8 %kind, [10 x i32]* align 4 %0, [10 x i32]* align 4 %1, %"core::option::Option<core::fmt::Arguments>"* %args, %"core::panic::location::Location"* align 8 %2) unnamed_addr #3 !dbg !2472 {
start:
  %kind.dbg.spill = alloca i8, align 1
  %_13 = alloca %"core::option::Option<core::fmt::Arguments>", align 8
  %right = alloca [10 x i32]*, align 8
  %left = alloca [10 x i32]*, align 8
  store [10 x i32]* %0, [10 x i32]** %left, align 8
  store [10 x i32]* %1, [10 x i32]** %right, align 8
  store i8 %kind, i8* %kind.dbg.spill, align 1
  call void @llvm.dbg.declare(metadata i8* %kind.dbg.spill, metadata !2490, metadata !DIExpression()), !dbg !2496
  call void @llvm.dbg.declare(metadata [10 x i32]** %left, metadata !2491, metadata !DIExpression()), !dbg !2497
  call void @llvm.dbg.declare(metadata [10 x i32]** %right, metadata !2492, metadata !DIExpression()), !dbg !2498
  call void @llvm.dbg.declare(metadata %"core::option::Option<core::fmt::Arguments>"* %args, metadata !2493, metadata !DIExpression()), !dbg !2499
  %_7.0 = bitcast [10 x i32]** %left to {}*, !dbg !2500
  %_10.0 = bitcast [10 x i32]** %right to {}*, !dbg !2501
  %3 = bitcast %"core::option::Option<core::fmt::Arguments>"* %_13 to i8*, !dbg !2502
  %4 = bitcast %"core::option::Option<core::fmt::Arguments>"* %args to i8*, !dbg !2502
  call void @llvm.memcpy.p0i8.p0i8.i64(i8* align 8 %3, i8* align 8 %4, i64 48, i1 false), !dbg !2502
; call core::panicking::assert_failed_inner
  call void @_ZN4core9panicking19assert_failed_inner17h2784388051aff910E(i8 %kind, {}* align 1 %_7.0, [3 x i64]* align 8 bitcast (<{ i8*, [16 x i8], i8* }>* @vtable.2 to [3 x i64]*), {}* align 1 %_10.0, [3 x i64]* align 8 bitcast (<{ i8*, [16 x i8], i8* }>* @vtable.2 to [3 x i64]*), %"core::option::Option<core::fmt::Arguments>"* %_13, %"core::panic::location::Location"* align 8 %2) #16, !dbg !2503
  unreachable, !dbg !2503
}

; core::panicking::assert_failed
; Function Attrs: cold noreturn nonlazybind uwtable
define internal void @_ZN4core9panicking13assert_failed17h247fb856b715c146E(i8 %kind, {}* align 1 %0, {}* align 1 %1, %"core::option::Option<core::fmt::Arguments>"* %args, %"core::panic::location::Location"* align 8 %2) unnamed_addr #3 !dbg !2504 {
start:
  %kind.dbg.spill = alloca i8, align 1
  %_13 = alloca %"core::option::Option<core::fmt::Arguments>", align 8
  %right = alloca {}*, align 8
  %left = alloca {}*, align 8
  store {}* %0, {}** %left, align 8
  store {}* %1, {}** %right, align 8
  store i8 %kind, i8* %kind.dbg.spill, align 1
  call void @llvm.dbg.declare(metadata i8* %kind.dbg.spill, metadata !2508, metadata !DIExpression()), !dbg !2514
  call void @llvm.dbg.declare(metadata {}** %left, metadata !2509, metadata !DIExpression()), !dbg !2515
  call void @llvm.dbg.declare(metadata {}** %right, metadata !2510, metadata !DIExpression()), !dbg !2516
  call void @llvm.dbg.declare(metadata %"core::option::Option<core::fmt::Arguments>"* %args, metadata !2511, metadata !DIExpression()), !dbg !2517
  %_7.0 = bitcast {}** %left to {}*, !dbg !2518
  %_10.0 = bitcast {}** %right to {}*, !dbg !2519
  %3 = bitcast %"core::option::Option<core::fmt::Arguments>"* %_13 to i8*, !dbg !2520
  %4 = bitcast %"core::option::Option<core::fmt::Arguments>"* %args to i8*, !dbg !2520
  call void @llvm.memcpy.p0i8.p0i8.i64(i8* align 8 %3, i8* align 8 %4, i64 48, i1 false), !dbg !2520
; call core::panicking::assert_failed_inner
  call void @_ZN4core9panicking19assert_failed_inner17h2784388051aff910E(i8 %kind, {}* align 1 %_7.0, [3 x i64]* align 8 bitcast (<{ i8*, [16 x i8], i8* }>* @vtable.3 to [3 x i64]*), {}* align 1 %_10.0, [3 x i64]* align 8 bitcast (<{ i8*, [16 x i8], i8* }>* @vtable.3 to [3 x i64]*), %"core::option::Option<core::fmt::Arguments>"* %_13, %"core::panic::location::Location"* align 8 %2) #16, !dbg !2521
  unreachable, !dbg !2521
}

; core::panicking::assert_failed
; Function Attrs: cold noreturn nonlazybind uwtable
define internal void @_ZN4core9panicking13assert_failed17ha932f64f05093c01E(i8 %kind, i32* align 4 %0, i32* align 4 %1, %"core::option::Option<core::fmt::Arguments>"* %args, %"core::panic::location::Location"* align 8 %2) unnamed_addr #3 !dbg !2522 {
start:
  %kind.dbg.spill = alloca i8, align 1
  %_13 = alloca %"core::option::Option<core::fmt::Arguments>", align 8
  %right = alloca i32*, align 8
  %left = alloca i32*, align 8
  store i32* %0, i32** %left, align 8
  store i32* %1, i32** %right, align 8
  store i8 %kind, i8* %kind.dbg.spill, align 1
  call void @llvm.dbg.declare(metadata i8* %kind.dbg.spill, metadata !2526, metadata !DIExpression()), !dbg !2532
  call void @llvm.dbg.declare(metadata i32** %left, metadata !2527, metadata !DIExpression()), !dbg !2533
  call void @llvm.dbg.declare(metadata i32** %right, metadata !2528, metadata !DIExpression()), !dbg !2534
  call void @llvm.dbg.declare(metadata %"core::option::Option<core::fmt::Arguments>"* %args, metadata !2529, metadata !DIExpression()), !dbg !2535
  %_7.0 = bitcast i32** %left to {}*, !dbg !2536
  %_10.0 = bitcast i32** %right to {}*, !dbg !2537
  %3 = bitcast %"core::option::Option<core::fmt::Arguments>"* %_13 to i8*, !dbg !2538
  %4 = bitcast %"core::option::Option<core::fmt::Arguments>"* %args to i8*, !dbg !2538
  call void @llvm.memcpy.p0i8.p0i8.i64(i8* align 8 %3, i8* align 8 %4, i64 48, i1 false), !dbg !2538
; call core::panicking::assert_failed_inner
  call void @_ZN4core9panicking19assert_failed_inner17h2784388051aff910E(i8 %kind, {}* align 1 %_7.0, [3 x i64]* align 8 bitcast (<{ i8*, [16 x i8], i8* }>* @vtable.1 to [3 x i64]*), {}* align 1 %_10.0, [3 x i64]* align 8 bitcast (<{ i8*, [16 x i8], i8* }>* @vtable.1 to [3 x i64]*), %"core::option::Option<core::fmt::Arguments>"* %_13, %"core::panic::location::Location"* align 8 %2) #16, !dbg !2539
  unreachable, !dbg !2539
}

; core::panicking::assert_failed
; Function Attrs: cold noreturn nonlazybind uwtable
define internal void @_ZN4core9panicking13assert_failed17hab645ff57cceb137E(i8 %kind, [3 x i32]* align 4 %0, [3 x i32]* align 4 %1, %"core::option::Option<core::fmt::Arguments>"* %args, %"core::panic::location::Location"* align 8 %2) unnamed_addr #3 !dbg !2540 {
start:
  %kind.dbg.spill = alloca i8, align 1
  %_13 = alloca %"core::option::Option<core::fmt::Arguments>", align 8
  %right = alloca [3 x i32]*, align 8
  %left = alloca [3 x i32]*, align 8
  store [3 x i32]* %0, [3 x i32]** %left, align 8
  store [3 x i32]* %1, [3 x i32]** %right, align 8
  store i8 %kind, i8* %kind.dbg.spill, align 1
  call void @llvm.dbg.declare(metadata i8* %kind.dbg.spill, metadata !2544, metadata !DIExpression()), !dbg !2550
  call void @llvm.dbg.declare(metadata [3 x i32]** %left, metadata !2545, metadata !DIExpression()), !dbg !2551
  call void @llvm.dbg.declare(metadata [3 x i32]** %right, metadata !2546, metadata !DIExpression()), !dbg !2552
  call void @llvm.dbg.declare(metadata %"core::option::Option<core::fmt::Arguments>"* %args, metadata !2547, metadata !DIExpression()), !dbg !2553
  %_7.0 = bitcast [3 x i32]** %left to {}*, !dbg !2554
  %_10.0 = bitcast [3 x i32]** %right to {}*, !dbg !2555
  %3 = bitcast %"core::option::Option<core::fmt::Arguments>"* %_13 to i8*, !dbg !2556
  %4 = bitcast %"core::option::Option<core::fmt::Arguments>"* %args to i8*, !dbg !2556
  call void @llvm.memcpy.p0i8.p0i8.i64(i8* align 8 %3, i8* align 8 %4, i64 48, i1 false), !dbg !2556
; call core::panicking::assert_failed_inner
  call void @_ZN4core9panicking19assert_failed_inner17h2784388051aff910E(i8 %kind, {}* align 1 %_7.0, [3 x i64]* align 8 bitcast (<{ i8*, [16 x i8], i8* }>* @vtable.4 to [3 x i64]*), {}* align 1 %_10.0, [3 x i64]* align 8 bitcast (<{ i8*, [16 x i8], i8* }>* @vtable.4 to [3 x i64]*), %"core::option::Option<core::fmt::Arguments>"* %_13, %"core::panic::location::Location"* align 8 %2) #16, !dbg !2557
  unreachable, !dbg !2557
}

; core::panicking::assert_failed
; Function Attrs: cold noreturn nonlazybind uwtable
define internal void @_ZN4core9panicking13assert_failed17hb3ff0a3fe01f7f1eE(i8 %kind, [1 x i32]* align 4 %0, [1 x i32]* align 4 %1, %"core::option::Option<core::fmt::Arguments>"* %args, %"core::panic::location::Location"* align 8 %2) unnamed_addr #3 !dbg !2558 {
start:
  %kind.dbg.spill = alloca i8, align 1
  %_13 = alloca %"core::option::Option<core::fmt::Arguments>", align 8
  %right = alloca [1 x i32]*, align 8
  %left = alloca [1 x i32]*, align 8
  store [1 x i32]* %0, [1 x i32]** %left, align 8
  store [1 x i32]* %1, [1 x i32]** %right, align 8
  store i8 %kind, i8* %kind.dbg.spill, align 1
  call void @llvm.dbg.declare(metadata i8* %kind.dbg.spill, metadata !2562, metadata !DIExpression()), !dbg !2568
  call void @llvm.dbg.declare(metadata [1 x i32]** %left, metadata !2563, metadata !DIExpression()), !dbg !2569
  call void @llvm.dbg.declare(metadata [1 x i32]** %right, metadata !2564, metadata !DIExpression()), !dbg !2570
  call void @llvm.dbg.declare(metadata %"core::option::Option<core::fmt::Arguments>"* %args, metadata !2565, metadata !DIExpression()), !dbg !2571
  %_7.0 = bitcast [1 x i32]** %left to {}*, !dbg !2572
  %_10.0 = bitcast [1 x i32]** %right to {}*, !dbg !2573
  %3 = bitcast %"core::option::Option<core::fmt::Arguments>"* %_13 to i8*, !dbg !2574
  %4 = bitcast %"core::option::Option<core::fmt::Arguments>"* %args to i8*, !dbg !2574
  call void @llvm.memcpy.p0i8.p0i8.i64(i8* align 8 %3, i8* align 8 %4, i64 48, i1 false), !dbg !2574
; call core::panicking::assert_failed_inner
  call void @_ZN4core9panicking19assert_failed_inner17h2784388051aff910E(i8 %kind, {}* align 1 %_7.0, [3 x i64]* align 8 bitcast (<{ i8*, [16 x i8], i8* }>* @vtable.5 to [3 x i64]*), {}* align 1 %_10.0, [3 x i64]* align 8 bitcast (<{ i8*, [16 x i8], i8* }>* @vtable.5 to [3 x i64]*), %"core::option::Option<core::fmt::Arguments>"* %_13, %"core::panic::location::Location"* align 8 %2) #16, !dbg !2575
  unreachable, !dbg !2575
}

; core::panicking::assert_failed
; Function Attrs: cold noreturn nonlazybind uwtable
define internal void @_ZN4core9panicking13assert_failed17hc1e236fb83b94d08E(i8 %kind, [5 x i32]* align 4 %0, [5 x i32]* align 4 %1, %"core::option::Option<core::fmt::Arguments>"* %args, %"core::panic::location::Location"* align 8 %2) unnamed_addr #3 !dbg !2576 {
start:
  %kind.dbg.spill = alloca i8, align 1
  %_13 = alloca %"core::option::Option<core::fmt::Arguments>", align 8
  %right = alloca [5 x i32]*, align 8
  %left = alloca [5 x i32]*, align 8
  store [5 x i32]* %0, [5 x i32]** %left, align 8
  store [5 x i32]* %1, [5 x i32]** %right, align 8
  store i8 %kind, i8* %kind.dbg.spill, align 1
  call void @llvm.dbg.declare(metadata i8* %kind.dbg.spill, metadata !2580, metadata !DIExpression()), !dbg !2586
  call void @llvm.dbg.declare(metadata [5 x i32]** %left, metadata !2581, metadata !DIExpression()), !dbg !2587
  call void @llvm.dbg.declare(metadata [5 x i32]** %right, metadata !2582, metadata !DIExpression()), !dbg !2588
  call void @llvm.dbg.declare(metadata %"core::option::Option<core::fmt::Arguments>"* %args, metadata !2583, metadata !DIExpression()), !dbg !2589
  %_7.0 = bitcast [5 x i32]** %left to {}*, !dbg !2590
  %_10.0 = bitcast [5 x i32]** %right to {}*, !dbg !2591
  %3 = bitcast %"core::option::Option<core::fmt::Arguments>"* %_13 to i8*, !dbg !2592
  %4 = bitcast %"core::option::Option<core::fmt::Arguments>"* %args to i8*, !dbg !2592
  call void @llvm.memcpy.p0i8.p0i8.i64(i8* align 8 %3, i8* align 8 %4, i64 48, i1 false), !dbg !2592
; call core::panicking::assert_failed_inner
  call void @_ZN4core9panicking19assert_failed_inner17h2784388051aff910E(i8 %kind, {}* align 1 %_7.0, [3 x i64]* align 8 bitcast (<{ i8*, [16 x i8], i8* }>* @vtable.6 to [3 x i64]*), {}* align 1 %_10.0, [3 x i64]* align 8 bitcast (<{ i8*, [16 x i8], i8* }>* @vtable.6 to [3 x i64]*), %"core::option::Option<core::fmt::Arguments>"* %_13, %"core::panic::location::Location"* align 8 %2) #16, !dbg !2593
  unreachable, !dbg !2593
}

; core::panicking::assert_failed
; Function Attrs: cold noreturn nonlazybind uwtable
define internal void @_ZN4core9panicking13assert_failed17hc4b73381be2307d4E(i8 %kind, [6 x i32]* align 4 %0, [6 x i32]* align 4 %1, %"core::option::Option<core::fmt::Arguments>"* %args, %"core::panic::location::Location"* align 8 %2) unnamed_addr #3 !dbg !2594 {
start:
  %kind.dbg.spill = alloca i8, align 1
  %_13 = alloca %"core::option::Option<core::fmt::Arguments>", align 8
  %right = alloca [6 x i32]*, align 8
  %left = alloca [6 x i32]*, align 8
  store [6 x i32]* %0, [6 x i32]** %left, align 8
  store [6 x i32]* %1, [6 x i32]** %right, align 8
  store i8 %kind, i8* %kind.dbg.spill, align 1
  call void @llvm.dbg.declare(metadata i8* %kind.dbg.spill, metadata !2598, metadata !DIExpression()), !dbg !2604
  call void @llvm.dbg.declare(metadata [6 x i32]** %left, metadata !2599, metadata !DIExpression()), !dbg !2605
  call void @llvm.dbg.declare(metadata [6 x i32]** %right, metadata !2600, metadata !DIExpression()), !dbg !2606
  call void @llvm.dbg.declare(metadata %"core::option::Option<core::fmt::Arguments>"* %args, metadata !2601, metadata !DIExpression()), !dbg !2607
  %_7.0 = bitcast [6 x i32]** %left to {}*, !dbg !2608
  %_10.0 = bitcast [6 x i32]** %right to {}*, !dbg !2609
  %3 = bitcast %"core::option::Option<core::fmt::Arguments>"* %_13 to i8*, !dbg !2610
