; ModuleID = 'f128_internal.55a143e5-cgu.0'
source_filename = "f128_internal.55a143e5-cgu.0"
target datalayout = "e-m:e-p270:32:32-p271:32:32-p272:64:64-i64:64-f80:128-n8:16:32:64-S128"
target triple = "x86_64-unknown-linux-gnu"

%"core::panic::location::Location" = type { { [0 x i8]*, i64 }, i32, i32 }
%"alloc::string::String" = type { %"alloc::vec::Vec<u8>" }
%"alloc::vec::Vec<u8>" = type { { i8*, i64 }, i64 }
%"core::ffi::c_str::CStr" = type { [0 x i8] }
%"core::fmt::Opaque" = type {}
%"core::fmt::Formatter" = type { { i64, i64 }, { i64, i64 }, { {}*, [3 x i64]* }, i32, i32, i8, [7 x i8] }
%"core::fmt::Arguments" = type { { [0 x { [0 x i8]*, i64 }]*, i64 }, { i64*, i64 }, { [0 x { i8*, i64* }]*, i64 } }
%"core::result::Result<alloc::ffi::c_str::CString, alloc::ffi::c_str::NulError>" = type { i64, [4 x i64] }
%"core::result::Result<alloc::ffi::c_str::CString, alloc::ffi::c_str::NulError>::Ok" = type { [1 x i64], { i8*, i64 } }
%"core::result::Result<alloc::ffi::c_str::CString, alloc::ffi::c_str::NulError>::Err" = type { [1 x i64], %"alloc::ffi::c_str::NulError" }
%"alloc::ffi::c_str::NulError" = type { i64, %"alloc::vec::Vec<u8>" }
%"core::str::error::Utf8Error" = type { i64, { i8, i8 }, [6 x i8] }
%"core::ptr::metadata::PtrComponents<u8>" = type { {}*, {} }
%"core::ptr::metadata::PtrRepr<u8>" = type { [1 x i64] }
%"core::alloc::layout::LayoutError" = type {}
%"core::result::Result<core::convert::Infallible, core::alloc::layout::LayoutError>::Err" = type { %"core::alloc::layout::LayoutError" }
%"f128_t::f128" = type { [16 x i8] }
%"core::option::Option<f128_t::f128>" = type { i8, [16 x i8] }
%"core::option::Option<f128_t::f128>::Some" = type { [1 x i8], %"f128_t::f128" }
%"core::result::Result<&str, core::str::error::Utf8Error>" = type { i64, [2 x i64] }
%"core::result::Result<&str, core::str::error::Utf8Error>::Ok" = type { [1 x i64], { [0 x i8]*, i64 } }
%"core::result::Result<&str, core::str::error::Utf8Error>::Err" = type { [1 x i64], %"core::str::error::Utf8Error" }
%"core::alloc::AllocError" = type {}
%"alloc::alloc::Global" = type {}
%"core::ptr::metadata::PtrRepr<[u8]>" = type { [2 x i64] }
%"[closure@core::intrinsics::copy_nonoverlapping<u8>::{closure#0}]" = type { i8**, i8**, i64* }
%"core::result::Result<core::convert::Infallible, core::alloc::AllocError>::Err" = type { %"core::alloc::AllocError" }
%"core::option::Option<(core::ptr::non_null::NonNull<u8>, core::alloc::layout::Layout)>" = type { [2 x i64], i64 }
%"core::option::Option<(core::ptr::non_null::NonNull<u8>, core::alloc::layout::Layout)>::Some" = type { { i8*, { i64, i64 } } }
%"core::option::Option<alloc::string::String>" = type { {}*, [2 x i64] }
%"core::option::Option<alloc::string::String>::Some" = type { %"alloc::string::String" }
%"ffi::Wrapper" = type { [16 x i8] }
%"core::result::Result<f128_t::f128, ()>" = type { i8, [16 x i8] }
%"unwind::libunwind::_Unwind_Exception" = type { i64, void (i32, %"unwind::libunwind::_Unwind_Exception"*)*, [6 x i64] }
%"unwind::libunwind::_Unwind_Context" = type { [0 x i8] }

@alloc998 = private unnamed_addr constant <{}> zeroinitializer, align 8
@alloc505 = private unnamed_addr constant <{ [12 x i8] }> <{ [12 x i8] c"invalid args" }>, align 1
@alloc506 = private unnamed_addr constant <{ i8*, [8 x i8] }> <{ i8* getelementptr inbounds (<{ [12 x i8] }>, <{ [12 x i8] }>* @alloc505, i32 0, i32 0, i32 0), [8 x i8] c"\0C\00\00\00\00\00\00\00" }>, align 8
@alloc1174 = private unnamed_addr constant <{ [75 x i8] }> <{ [75 x i8] c"/rustc/d394408fb38c4de61f765a3ed5189d2731a1da91/library/core/src/fmt/mod.rs" }>, align 1
@alloc1175 = private unnamed_addr constant <{ i8*, [16 x i8] }> <{ i8* getelementptr inbounds (<{ [75 x i8] }>, <{ [75 x i8] }>* @alloc1174, i32 0, i32 0, i32 0), [16 x i8] c"K\00\00\00\00\00\00\00\88\01\00\00\0D\00\00\00" }>, align 8
@alloc1176 = private unnamed_addr constant <{ [43 x i8] }> <{ [43 x i8] c"called `Option::unwrap()` on a `None` value" }>, align 1
@alloc1177 = private unnamed_addr constant <{ [43 x i8] }> <{ [43 x i8] c"called `Result::unwrap()` on an `Err` value" }>, align 1
@vtable.0 = private unnamed_addr constant <{ i8*, [16 x i8], i8* }> <{ i8* bitcast (void (%"core::str::error::Utf8Error"*)* @"_ZN4core3ptr48drop_in_place$LT$core..str..error..Utf8Error$GT$17h729935f6d7a41ec4E" to i8*), [16 x i8] c"\10\00\00\00\00\00\00\00\08\00\00\00\00\00\00\00", i8* bitcast (i1 (%"core::str::error::Utf8Error"*, %"core::fmt::Formatter"*)* @"_ZN64_$LT$core..str..error..Utf8Error$u20$as$u20$core..fmt..Debug$GT$3fmt17hcce91d8033863515E" to i8*) }>, align 8, !dbg !0
@alloc1181 = private unnamed_addr constant <{ [3 x i8] }> <{ [3 x i8] c"%Qg" }>, align 1
@alloc491 = private unnamed_addr constant <{ [2 x i8] }> <{ [2 x i8] c"%." }>, align 1
@alloc493 = private unnamed_addr constant <{ [2 x i8] }> <{ [2 x i8] c"Qg" }>, align 1
@alloc492 = private unnamed_addr constant <{ i8*, [8 x i8], i8*, [8 x i8] }> <{ i8* getelementptr inbounds (<{ [2 x i8] }>, <{ [2 x i8] }>* @alloc491, i32 0, i32 0, i32 0), [8 x i8] c"\02\00\00\00\00\00\00\00", i8* getelementptr inbounds (<{ [2 x i8] }>, <{ [2 x i8] }>* @alloc493, i32 0, i32 0, i32 0), [8 x i8] c"\02\00\00\00\00\00\00\00" }>, align 8
@alloc499 = private unnamed_addr constant <{ i8*, [8 x i8] }> <{ i8* bitcast (<{}>* @alloc998 to i8*), [8 x i8] zeroinitializer }>, align 8
@alloc519 = private unnamed_addr constant <{ [16 x i8] }> zeroinitializer, align 1
@alloc912 = private unnamed_addr constant <{ [16 x i8] }> <{ [16 x i8] c"\00\00\00\00\00\00\00\00\00\00\00\00\00\00\00\80" }>, align 1
@0 = private unnamed_addr constant <{ [16 x i8] }> <{ [16 x i8] c"\00\00\00\00\00\00\00\00\00\00\00\00\00\00\FF?" }>, align 1
@alloc1182 = private unnamed_addr constant <{ [15 x i8] }> <{ [15 x i8] c"not implemented" }>, align 1
@alloc1247 = private unnamed_addr constant <{ [97 x i8] }> <{ [97 x i8] c"/home/calvin/.cargo/registry/src/github.com-1ecc6299db9ec823/f128_internal-0.2.2/src/f128_impl.rs" }>, align 1
@alloc1184 = private unnamed_addr constant <{ i8*, [16 x i8] }> <{ i8* getelementptr inbounds (<{ [97 x i8] }>, <{ [97 x i8] }>* @alloc1247, i32 0, i32 0, i32 0), [16 x i8] c"a\00\00\00\00\00\00\00\95\00\00\00\09\00\00\00" }>, align 8
@alloc901 = private unnamed_addr constant <{ [16 x i8] }> <{ [16 x i8] c"\FF\FF\FF\FF\FF\FF\FF\FF\FF\FF\FF\FF\FF\FF\FF\7F" }>, align 1
@alloc867 = private unnamed_addr constant <{ [16 x i8] }> <{ [16 x i8] c"\00\00\00\00\00\00\00\00\00\00\00\00\00\00\FF\7F" }>, align 1
@1 = private unnamed_addr constant <{ [16 x i8] }> <{ [16 x i8] c"\00\00\00\00\00\00\00\00\00\00\00\00\00\00\FF\FF" }>, align 1
@2 = private unnamed_addr constant <{ [16 x i8] }> <{ [16 x i8] c"\FF\FF\FF\FF\FF\FF\FF\FF\FF\FF\FF\FF\FF\FF\FE\FF" }>, align 1
@3 = private unnamed_addr constant <{ [16 x i8] }> <{ [16 x i8] c"\FF\FF\FF\FF\FF\FF\FF\FF\FF\FF\FF\FF\FF\FF\FE\7F" }>, align 1
@4 = private unnamed_addr constant <{ [16 x i8] }> <{ [16 x i8] c"\00\00\00\00\00\00\00\00\00\00\00\00\00\00\00\01" }>, align 1
@alloc1185 = private unnamed_addr constant <{ [40 x i8] }> <{ [40 x i8] c"internal error: entered unreachable code" }>, align 1
@alloc1187 = private unnamed_addr constant <{ i8*, [16 x i8] }> <{ i8* getelementptr inbounds (<{ [97 x i8] }>, <{ [97 x i8] }>* @alloc1247, i32 0, i32 0, i32 0), [16 x i8] c"a\00\00\00\00\00\00\00\84\01\00\00\12\00\00\00" }>, align 8
@alloc1189 = private unnamed_addr constant <{ i8*, [16 x i8] }> <{ i8* getelementptr inbounds (<{ [97 x i8] }>, <{ [97 x i8] }>* @alloc1247, i32 0, i32 0, i32 0), [16 x i8] c"a\00\00\00\00\00\00\00\96\01\00\00\16\00\00\00" }>, align 8
@str.1 = internal constant [33 x i8] c"attempt to subtract with overflow"
@alloc1191 = private unnamed_addr constant <{ i8*, [16 x i8] }> <{ i8* getelementptr inbounds (<{ [97 x i8] }>, <{ [97 x i8] }>* @alloc1247, i32 0, i32 0, i32 0), [16 x i8] c"a\00\00\00\00\00\00\00\AF\01\00\00'\00\00\00" }>, align 8
@alloc992 = private unnamed_addr constant <{ [17 x i8] }> <{ [17 x i8] c"not implemented: " }>, align 1
@alloc993 = private unnamed_addr constant <{ i8*, [8 x i8] }> <{ i8* getelementptr inbounds (<{ [17 x i8] }>, <{ [17 x i8] }>* @alloc992, i32 0, i32 0, i32 0), [8 x i8] c"\11\00\00\00\00\00\00\00" }>, align 8
@alloc995 = private unnamed_addr constant <{ [109 x i8] }> <{ [109 x i8] c"This function cannot be accurately implemented with num v0.2.6 - the mantissa type needs to be upped to u128." }>, align 1
@alloc996 = private unnamed_addr constant <{ i8*, [8 x i8] }> <{ i8* getelementptr inbounds (<{ [109 x i8] }>, <{ [109 x i8] }>* @alloc995, i32 0, i32 0, i32 0), [8 x i8] c"m\00\00\00\00\00\00\00" }>, align 8
@alloc1193 = private unnamed_addr constant <{ i8*, [16 x i8] }> <{ i8* getelementptr inbounds (<{ [97 x i8] }>, <{ [97 x i8] }>* @alloc1247, i32 0, i32 0, i32 0), [16 x i8] c"a\00\00\00\00\00\00\00\22\02\00\00\09\00\00\00" }>, align 8
@alloc1194 = private unnamed_addr constant <{ [23 x i8] }> <{ [23 x i8] c"assertion failed: n > 0" }>, align 1
@alloc1199 = private unnamed_addr constant <{ [94 x i8] }> <{ [94 x i8] c"/home/calvin/.cargo/registry/src/github.com-1ecc6299db9ec823/f128_internal-0.2.2/src/f128_t.rs" }>, align 1
@alloc1196 = private unnamed_addr constant <{ i8*, [16 x i8] }> <{ i8* getelementptr inbounds (<{ [94 x i8] }>, <{ [94 x i8] }>* @alloc1199, i32 0, i32 0, i32 0), [16 x i8] c"^\00\00\00\00\00\00\00\D6\00\00\00\09\00\00\00" }>, align 8
@alloc1198 = private unnamed_addr constant <{ i8*, [16 x i8] }> <{ i8* getelementptr inbounds (<{ [94 x i8] }>, <{ [94 x i8] }>* @alloc1199, i32 0, i32 0, i32 0), [16 x i8] c"^\00\00\00\00\00\00\00\D8\00\00\00!\00\00\00" }>, align 8
@alloc1200 = private unnamed_addr constant <{ i8*, [16 x i8] }> <{ i8* getelementptr inbounds (<{ [94 x i8] }>, <{ [94 x i8] }>* @alloc1199, i32 0, i32 0, i32 0), [16 x i8] c"^\00\00\00\00\00\00\00\D8\00\00\00+\00\00\00" }>, align 8
@alloc1088 = private unnamed_addr constant <{ [16 x i8] }> <{ [16 x i8] c"\FF\FF\FF\FF\FF\FF\FF\FF\FF\FF\FF\FF\FF\FF\00\00" }>, align 1
@alloc1202 = private unnamed_addr constant <{ i8*, [16 x i8] }> <{ i8* getelementptr inbounds (<{ [97 x i8] }>, <{ [97 x i8] }>* @alloc1247, i32 0, i32 0, i32 0), [16 x i8] c"a\00\00\00\00\00\00\00l\02\00\00\01\00\00\00" }>, align 8
@str.2 = internal constant [36 x i8] c"attempt to shift right with overflow"
@alloc1204 = private unnamed_addr constant <{ i8*, [16 x i8] }> <{ i8* getelementptr inbounds (<{ [97 x i8] }>, <{ [97 x i8] }>* @alloc1247, i32 0, i32 0, i32 0), [16 x i8] c"a\00\00\00\00\00\00\00m\02\00\00\01\00\00\00" }>, align 8
@alloc1206 = private unnamed_addr constant <{ i8*, [16 x i8] }> <{ i8* getelementptr inbounds (<{ [97 x i8] }>, <{ [97 x i8] }>* @alloc1247, i32 0, i32 0, i32 0), [16 x i8] c"a\00\00\00\00\00\00\00n\02\00\00\01\00\00\00" }>, align 8
@alloc1208 = private unnamed_addr constant <{ i8*, [16 x i8] }> <{ i8* getelementptr inbounds (<{ [97 x i8] }>, <{ [97 x i8] }>* @alloc1247, i32 0, i32 0, i32 0), [16 x i8] c"a\00\00\00\00\00\00\00o\02\00\00\01\00\00\00" }>, align 8
@alloc1210 = private unnamed_addr constant <{ i8*, [16 x i8] }> <{ i8* getelementptr inbounds (<{ [97 x i8] }>, <{ [97 x i8] }>* @alloc1247, i32 0, i32 0, i32 0), [16 x i8] c"a\00\00\00\00\00\00\00p\02\00\00\01\00\00\00" }>, align 8
@alloc1212 = private unnamed_addr constant <{ i8*, [16 x i8] }> <{ i8* getelementptr inbounds (<{ [97 x i8] }>, <{ [97 x i8] }>* @alloc1247, i32 0, i32 0, i32 0), [16 x i8] c"a\00\00\00\00\00\00\00q\02\00\00\01\00\00\00" }>, align 8
@alloc1214 = private unnamed_addr constant <{ i8*, [16 x i8] }> <{ i8* getelementptr inbounds (<{ [97 x i8] }>, <{ [97 x i8] }>* @alloc1247, i32 0, i32 0, i32 0), [16 x i8] c"a\00\00\00\00\00\00\00s\02\00\00\01\00\00\00" }>, align 8
@alloc1216 = private unnamed_addr constant <{ i8*, [16 x i8] }> <{ i8* getelementptr inbounds (<{ [97 x i8] }>, <{ [97 x i8] }>* @alloc1247, i32 0, i32 0, i32 0), [16 x i8] c"a\00\00\00\00\00\00\00t\02\00\00\01\00\00\00" }>, align 8
@alloc1218 = private unnamed_addr constant <{ i8*, [16 x i8] }> <{ i8* getelementptr inbounds (<{ [97 x i8] }>, <{ [97 x i8] }>* @alloc1247, i32 0, i32 0, i32 0), [16 x i8] c"a\00\00\00\00\00\00\00u\02\00\00\01\00\00\00" }>, align 8
@alloc1220 = private unnamed_addr constant <{ i8*, [16 x i8] }> <{ i8* getelementptr inbounds (<{ [97 x i8] }>, <{ [97 x i8] }>* @alloc1247, i32 0, i32 0, i32 0), [16 x i8] c"a\00\00\00\00\00\00\00v\02\00\00\01\00\00\00" }>, align 8
@alloc1222 = private unnamed_addr constant <{ i8*, [16 x i8] }> <{ i8* getelementptr inbounds (<{ [97 x i8] }>, <{ [97 x i8] }>* @alloc1247, i32 0, i32 0, i32 0), [16 x i8] c"a\00\00\00\00\00\00\00w\02\00\00\01\00\00\00" }>, align 8
@alloc1224 = private unnamed_addr constant <{ i8*, [16 x i8] }> <{ i8* getelementptr inbounds (<{ [97 x i8] }>, <{ [97 x i8] }>* @alloc1247, i32 0, i32 0, i32 0), [16 x i8] c"a\00\00\00\00\00\00\00x\02\00\00\01\00\00\00" }>, align 8
@alloc1226 = private unnamed_addr constant <{ i8*, [16 x i8] }> <{ i8* getelementptr inbounds (<{ [97 x i8] }>, <{ [97 x i8] }>* @alloc1247, i32 0, i32 0, i32 0), [16 x i8] c"a\00\00\00\00\00\00\00\A5\02\00\00\01\00\00\00" }>, align 8
@str.3 = internal constant [35 x i8] c"attempt to shift left with overflow"
@alloc1228 = private unnamed_addr constant <{ i8*, [16 x i8] }> <{ i8* getelementptr inbounds (<{ [97 x i8] }>, <{ [97 x i8] }>* @alloc1247, i32 0, i32 0, i32 0), [16 x i8] c"a\00\00\00\00\00\00\00\A6\02\00\00\01\00\00\00" }>, align 8
@alloc1230 = private unnamed_addr constant <{ i8*, [16 x i8] }> <{ i8* getelementptr inbounds (<{ [97 x i8] }>, <{ [97 x i8] }>* @alloc1247, i32 0, i32 0, i32 0), [16 x i8] c"a\00\00\00\00\00\00\00\A7\02\00\00\01\00\00\00" }>, align 8
@alloc1232 = private unnamed_addr constant <{ i8*, [16 x i8] }> <{ i8* getelementptr inbounds (<{ [97 x i8] }>, <{ [97 x i8] }>* @alloc1247, i32 0, i32 0, i32 0), [16 x i8] c"a\00\00\00\00\00\00\00\A8\02\00\00\01\00\00\00" }>, align 8
@alloc1234 = private unnamed_addr constant <{ i8*, [16 x i8] }> <{ i8* getelementptr inbounds (<{ [97 x i8] }>, <{ [97 x i8] }>* @alloc1247, i32 0, i32 0, i32 0), [16 x i8] c"a\00\00\00\00\00\00\00\A9\02\00\00\01\00\00\00" }>, align 8
@alloc1236 = private unnamed_addr constant <{ i8*, [16 x i8] }> <{ i8* getelementptr inbounds (<{ [97 x i8] }>, <{ [97 x i8] }>* @alloc1247, i32 0, i32 0, i32 0), [16 x i8] c"a\00\00\00\00\00\00\00\AA\02\00\00\01\00\00\00" }>, align 8
@alloc1238 = private unnamed_addr constant <{ i8*, [16 x i8] }> <{ i8* getelementptr inbounds (<{ [97 x i8] }>, <{ [97 x i8] }>* @alloc1247, i32 0, i32 0, i32 0), [16 x i8] c"a\00\00\00\00\00\00\00\AC\02\00\00\01\00\00\00" }>, align 8
@alloc1240 = private unnamed_addr constant <{ i8*, [16 x i8] }> <{ i8* getelementptr inbounds (<{ [97 x i8] }>, <{ [97 x i8] }>* @alloc1247, i32 0, i32 0, i32 0), [16 x i8] c"a\00\00\00\00\00\00\00\AD\02\00\00\01\00\00\00" }>, align 8
@alloc1242 = private unnamed_addr constant <{ i8*, [16 x i8] }> <{ i8* getelementptr inbounds (<{ [97 x i8] }>, <{ [97 x i8] }>* @alloc1247, i32 0, i32 0, i32 0), [16 x i8] c"a\00\00\00\00\00\00\00\AE\02\00\00\01\00\00\00" }>, align 8
@alloc1244 = private unnamed_addr constant <{ i8*, [16 x i8] }> <{ i8* getelementptr inbounds (<{ [97 x i8] }>, <{ [97 x i8] }>* @alloc1247, i32 0, i32 0, i32 0), [16 x i8] c"a\00\00\00\00\00\00\00\AF\02\00\00\01\00\00\00" }>, align 8
@alloc1246 = private unnamed_addr constant <{ i8*, [16 x i8] }> <{ i8* getelementptr inbounds (<{ [97 x i8] }>, <{ [97 x i8] }>* @alloc1247, i32 0, i32 0, i32 0), [16 x i8] c"a\00\00\00\00\00\00\00\B0\02\00\00\01\00\00\00" }>, align 8
@alloc1248 = private unnamed_addr constant <{ i8*, [16 x i8] }> <{ i8* getelementptr inbounds (<{ [97 x i8] }>, <{ [97 x i8] }>* @alloc1247, i32 0, i32 0, i32 0), [16 x i8] c"a\00\00\00\00\00\00\00\B1\02\00\00\01\00\00\00" }>, align 8

; <core::ops::range::Range<usize> as core::slice::index::SliceIndex<[T]>>::index
; Function Attrs: inlinehint nonlazybind uwtable
define { [0 x i8]*, i64 } @"_ZN106_$LT$core..ops..range..Range$LT$usize$GT$$u20$as$u20$core..slice..index..SliceIndex$LT$$u5b$T$u5d$$GT$$GT$5index17h3c5f3b3dceabe859E"(i64 %self.0, i64 %self.1, [0 x i8]* align 1 %slice.0, i64 %slice.1, %"core::panic::location::Location"* align 8 %0) unnamed_addr #0 !dbg !142 {
start:
  %slice.dbg.spill = alloca { [0 x i8]*, i64 }, align 8
  %self.dbg.spill = alloca { i64, i64 }, align 8
  %1 = getelementptr inbounds { i64, i64 }, { i64, i64 }* %self.dbg.spill, i32 0, i32 0
  store i64 %self.0, i64* %1, align 8
  %2 = getelementptr inbounds { i64, i64 }, { i64, i64 }* %self.dbg.spill, i32 0, i32 1
  store i64 %self.1, i64* %2, align 8
  call void @llvm.dbg.declare(metadata { i64, i64 }* %self.dbg.spill, metadata !176, metadata !DIExpression()), !dbg !178
  %3 = getelementptr inbounds { [0 x i8]*, i64 }, { [0 x i8]*, i64 }* %slice.dbg.spill, i32 0, i32 0
  store [0 x i8]* %slice.0, [0 x i8]** %3, align 8
  %4 = getelementptr inbounds { [0 x i8]*, i64 }, { [0 x i8]*, i64 }* %slice.dbg.spill, i32 0, i32 1
  store i64 %slice.1, i64* %4, align 8
  call void @llvm.dbg.declare(metadata { [0 x i8]*, i64 }* %slice.dbg.spill, metadata !177, metadata !DIExpression()), !dbg !179
  %_3 = icmp ugt i64 %self.0, %self.1, !dbg !180
  br i1 %_3, label %bb1, label %bb2, !dbg !180

bb2:                                              ; preds = %start
  %_9 = icmp ugt i64 %self.1, %slice.1, !dbg !181
  br i1 %_9, label %bb3, label %bb4, !dbg !181

bb1:                                              ; preds = %start
; call core::slice::index::slice_index_order_fail
  call void @_ZN4core5slice5index22slice_index_order_fail17ha5ea6a931f940f05E(i64 %self.0, i64 %self.1, %"core::panic::location::Location"* align 8 %0) #12, !dbg !182
  unreachable, !dbg !182

bb4:                                              ; preds = %bb2
; call <core::ops::range::Range<usize> as core::slice::index::SliceIndex<[T]>>::get_unchecked
  %5 = call { [0 x i8]*, i64 } @"_ZN106_$LT$core..ops..range..Range$LT$usize$GT$$u20$as$u20$core..slice..index..SliceIndex$LT$$u5b$T$u5d$$GT$$GT$13get_unchecked17h027adc00ed696f09E"(i64 %self.0, i64 %self.1, [0 x i8]* %slice.0, i64 %slice.1), !dbg !183
  %_17.0 = extractvalue { [0 x i8]*, i64 } %5, 0, !dbg !183
  %_17.1 = extractvalue { [0 x i8]*, i64 } %5, 1, !dbg !183
  br label %bb5, !dbg !183

bb3:                                              ; preds = %bb2
; call core::slice::index::slice_end_index_len_fail
  call void @_ZN4core5slice5index24slice_end_index_len_fail17hc132699ea07ad3eeE(i64 %self.1, i64 %slice.1, %"core::panic::location::Location"* align 8 %0) #12, !dbg !184
  unreachable, !dbg !184

bb5:                                              ; preds = %bb4
  %6 = insertvalue { [0 x i8]*, i64 } undef, [0 x i8]* %_17.0, 0, !dbg !185
  %7 = insertvalue { [0 x i8]*, i64 } %6, i64 %_17.1, 1, !dbg !185
  ret { [0 x i8]*, i64 } %7, !dbg !185
}

; <core::ops::range::RangeTo<usize> as core::slice::index::SliceIndex<[T]>>::index
; Function Attrs: inlinehint nonlazybind uwtable
define { [0 x i8]*, i64 } @"_ZN108_$LT$core..ops..range..RangeTo$LT$usize$GT$$u20$as$u20$core..slice..index..SliceIndex$LT$$u5b$T$u5d$$GT$$GT$5index17he45df862cf1057e5E"(i64 %self, [0 x i8]* align 1 %slice.0, i64 %slice.1, %"core::panic::location::Location"* align 8 %0) unnamed_addr #0 !dbg !186 {
start:
  %slice.dbg.spill = alloca { [0 x i8]*, i64 }, align 8
  %self.dbg.spill = alloca i64, align 8
  %_3 = alloca { i64, i64 }, align 8
  store i64 %self, i64* %self.dbg.spill, align 8
  call void @llvm.dbg.declare(metadata i64* %self.dbg.spill, metadata !194, metadata !DIExpression()), !dbg !196
  %1 = getelementptr inbounds { [0 x i8]*, i64 }, { [0 x i8]*, i64 }* %slice.dbg.spill, i32 0, i32 0
  store [0 x i8]* %slice.0, [0 x i8]** %1, align 8
  %2 = getelementptr inbounds { [0 x i8]*, i64 }, { [0 x i8]*, i64 }* %slice.dbg.spill, i32 0, i32 1
  store i64 %slice.1, i64* %2, align 8
  call void @llvm.dbg.declare(metadata { [0 x i8]*, i64 }* %slice.dbg.spill, metadata !195, metadata !DIExpression()), !dbg !197
  %3 = bitcast { i64, i64 }* %_3 to i64*, !dbg !198
  store i64 0, i64* %3, align 8, !dbg !198
  %4 = getelementptr inbounds { i64, i64 }, { i64, i64 }* %_3, i32 0, i32 1, !dbg !198
  store i64 %self, i64* %4, align 8, !dbg !198
  %5 = getelementptr inbounds { i64, i64 }, { i64, i64 }* %_3, i32 0, i32 0, !dbg !198
  %6 = load i64, i64* %5, align 8, !dbg !198
  %7 = getelementptr inbounds { i64, i64 }, { i64, i64 }* %_3, i32 0, i32 1, !dbg !198
  %8 = load i64, i64* %7, align 8, !dbg !198
; call <core::ops::range::Range<usize> as core::slice::index::SliceIndex<[T]>>::index
  %9 = call { [0 x i8]*, i64 } @"_ZN106_$LT$core..ops..range..Range$LT$usize$GT$$u20$as$u20$core..slice..index..SliceIndex$LT$$u5b$T$u5d$$GT$$GT$5index17h3c5f3b3dceabe859E"(i64 %6, i64 %8, [0 x i8]* align 1 %slice.0, i64 %slice.1, %"core::panic::location::Location"* align 8 %0), !dbg !198
  %10 = extractvalue { [0 x i8]*, i64 } %9, 0, !dbg !198
  %11 = extractvalue { [0 x i8]*, i64 } %9, 1, !dbg !198
  br label %bb1, !dbg !198

bb1:                                              ; preds = %start
  %12 = insertvalue { [0 x i8]*, i64 } undef, [0 x i8]* %10, 0, !dbg !199
  %13 = insertvalue { [0 x i8]*, i64 } %12, i64 %11, 1, !dbg !199
  ret { [0 x i8]*, i64 } %13, !dbg !199
}

; <core::ptr::non_null::NonNull<T> as core::convert::From<core::ptr::unique::Unique<T>>>::from
; Function Attrs: inlinehint nonlazybind uwtable
define i8* @"_ZN119_$LT$core..ptr..non_null..NonNull$LT$T$GT$$u20$as$u20$core..convert..From$LT$core..ptr..unique..Unique$LT$T$GT$$GT$$GT$4from17hd5d28fb461c84be2E"(i8* %unique) unnamed_addr #0 !dbg !200 {
start:
  %ptr.dbg.spill = alloca i8*, align 8
  %self.dbg.spill1 = alloca i8*, align 8
  %self.dbg.spill = alloca i8*, align 8
  %unique.dbg.spill = alloca i8*, align 8
  %0 = alloca i8*, align 8
  store i8* %unique, i8** %unique.dbg.spill, align 8
  call void @llvm.dbg.declare(metadata i8** %unique.dbg.spill, metadata !219, metadata !DIExpression()), !dbg !220
  store i8* %unique, i8** %self.dbg.spill, align 8, !dbg !221
  call void @llvm.dbg.declare(metadata i8** %self.dbg.spill, metadata !222, metadata !DIExpression()), !dbg !230
  store i8* %unique, i8** %self.dbg.spill1, align 8, !dbg !230
  call void @llvm.dbg.declare(metadata i8** %self.dbg.spill1, metadata !231, metadata !DIExpression()), !dbg !236
  store i8* %unique, i8** %ptr.dbg.spill, align 8, !dbg !236
  call void @llvm.dbg.declare(metadata i8** %ptr.dbg.spill, metadata !238, metadata !DIExpression()), !dbg !243
  store i8* %unique, i8** %0, align 8, !dbg !243
  %1 = load i8*, i8** %0, align 8, !dbg !245, !nonnull !26, !noundef !26
  ret i8* %1, !dbg !245
}

; <i32 as core::iter::range::Step>::forward_unchecked
; Function Attrs: inlinehint nonlazybind uwtable
define internal i32 @"_ZN47_$LT$i32$u20$as$u20$core..iter..range..Step$GT$17forward_unchecked17hd7c3dd047be86f92E"(i32 %start1, i64 %n) unnamed_addr #0 !dbg !246 {
start:
  %0 = alloca i32, align 4
  %rhs.dbg.spill = alloca i32, align 4
  %self.dbg.spill = alloca i32, align 4
  %n.dbg.spill = alloca i64, align 8
  %start.dbg.spill = alloca i32, align 4
  store i32 %start1, i32* %start.dbg.spill, align 4
  call void @llvm.dbg.declare(metadata i32* %start.dbg.spill, metadata !255, metadata !DIExpression()), !dbg !257
  store i64 %n, i64* %n.dbg.spill, align 8
  call void @llvm.dbg.declare(metadata i64* %n.dbg.spill, metadata !256, metadata !DIExpression()), !dbg !258
  store i32 %start1, i32* %self.dbg.spill, align 4, !dbg !259
  call void @llvm.dbg.declare(metadata i32* %self.dbg.spill, metadata !260, metadata !DIExpression()), !dbg !269
  %rhs = trunc i64 %n to i32, !dbg !270
  store i32 %rhs, i32* %rhs.dbg.spill, align 4, !dbg !270
  call void @llvm.dbg.declare(metadata i32* %rhs.dbg.spill, metadata !268, metadata !DIExpression()), !dbg !269
  %1 = add nsw i32 %start1, %rhs, !dbg !269
  store i32 %1, i32* %0, align 4, !dbg !269
  %2 = load i32, i32* %0, align 4, !dbg !269
  br label %bb1, !dbg !269

bb1:                                              ; preds = %start
  ret i32 %2, !dbg !271
}

; <i64 as core::iter::range::Step>::forward_unchecked
; Function Attrs: inlinehint nonlazybind uwtable
define internal i64 @"_ZN47_$LT$i64$u20$as$u20$core..iter..range..Step$GT$17forward_unchecked17h4e4bc69ac704d107E"(i64 %start1, i64 %n) unnamed_addr #0 !dbg !272 {
start:
  %0 = alloca i64, align 8
  %rhs.dbg.spill = alloca i64, align 8
  %self.dbg.spill = alloca i64, align 8
  %n.dbg.spill = alloca i64, align 8
  %start.dbg.spill = alloca i64, align 8
  store i64 %start1, i64* %start.dbg.spill, align 8
  call void @llvm.dbg.declare(metadata i64* %start.dbg.spill, metadata !278, metadata !DIExpression()), !dbg !280
  store i64 %n, i64* %n.dbg.spill, align 8
  call void @llvm.dbg.declare(metadata i64* %n.dbg.spill, metadata !279, metadata !DIExpression()), !dbg !281
  store i64 %start1, i64* %self.dbg.spill, align 8, !dbg !282
  call void @llvm.dbg.declare(metadata i64* %self.dbg.spill, metadata !283, metadata !DIExpression()), !dbg !291
  store i64 %n, i64* %rhs.dbg.spill, align 8, !dbg !292
  call void @llvm.dbg.declare(metadata i64* %rhs.dbg.spill, metadata !290, metadata !DIExpression()), !dbg !291
  %1 = add nsw i64 %start1, %n, !dbg !291
  store i64 %1, i64* %0, align 8, !dbg !291
  %2 = load i64, i64* %0, align 8, !dbg !291
  br label %bb1, !dbg !291

bb1:                                              ; preds = %start
  ret i64 %2, !dbg !293
}

; <str as alloc::string::ToString>::to_string
; Function Attrs: inlinehint nonlazybind uwtable
define internal void @"_ZN47_$LT$str$u20$as$u20$alloc..string..ToString$GT$9to_string17hb40005f8b224a7a6E"(%"alloc::string::String"* sret(%"alloc::string::String") %0, [0 x i8]* align 1 %self.0, i64 %self.1) unnamed_addr #0 !dbg !294 {
start:
  %1 = alloca { [0 x i8]*, i64 }, align 8
  %self.dbg.spill2 = alloca { [0 x i8]*, i64 }, align 8
  %self.dbg.spill1 = alloca { [0 x i8]*, i64 }, align 8
  %s.dbg.spill = alloca { [0 x i8]*, i64 }, align 8
  %self.dbg.spill = alloca { [0 x i8]*, i64 }, align 8
  %_9 = alloca %"alloc::vec::Vec<u8>", align 8
  %bytes = alloca %"alloc::vec::Vec<u8>", align 8
  %2 = getelementptr inbounds { [0 x i8]*, i64 }, { [0 x i8]*, i64 }* %self.dbg.spill, i32 0, i32 0
  store [0 x i8]* %self.0, [0 x i8]** %2, align 8
  %3 = getelementptr inbounds { [0 x i8]*, i64 }, { [0 x i8]*, i64 }* %self.dbg.spill, i32 0, i32 1
  store i64 %self.1, i64* %3, align 8
  call void @llvm.dbg.declare(metadata { [0 x i8]*, i64 }* %self.dbg.spill, metadata !318, metadata !DIExpression()), !dbg !319
  call void @llvm.dbg.declare(metadata %"alloc::vec::Vec<u8>"* %bytes, metadata !320, metadata !DIExpression()), !dbg !325
  %4 = getelementptr inbounds { [0 x i8]*, i64 }, { [0 x i8]*, i64 }* %s.dbg.spill, i32 0, i32 0, !dbg !340
  store [0 x i8]* %self.0, [0 x i8]** %4, align 8, !dbg !340
  %5 = getelementptr inbounds { [0 x i8]*, i64 }, { [0 x i8]*, i64 }* %s.dbg.spill, i32 0, i32 1, !dbg !340
  store i64 %self.1, i64* %5, align 8, !dbg !340
  call void @llvm.dbg.declare(metadata { [0 x i8]*, i64 }* %s.dbg.spill, metadata !338, metadata !DIExpression()), !dbg !341
  %6 = getelementptr inbounds { [0 x i8]*, i64 }, { [0 x i8]*, i64 }* %self.dbg.spill1, i32 0, i32 0, !dbg !341
  store [0 x i8]* %self.0, [0 x i8]** %6, align 8, !dbg !341
  %7 = getelementptr inbounds { [0 x i8]*, i64 }, { [0 x i8]*, i64 }* %self.dbg.spill1, i32 0, i32 1, !dbg !341
  store i64 %self.1, i64* %7, align 8, !dbg !341
  call void @llvm.dbg.declare(metadata { [0 x i8]*, i64 }* %self.dbg.spill1, metadata !332, metadata !DIExpression()), !dbg !342
  %8 = getelementptr inbounds { [0 x i8]*, i64 }, { [0 x i8]*, i64 }* %self.dbg.spill2, i32 0, i32 0, !dbg !342
  store [0 x i8]* %self.0, [0 x i8]** %8, align 8, !dbg !342
  %9 = getelementptr inbounds { [0 x i8]*, i64 }, { [0 x i8]*, i64 }* %self.dbg.spill2, i32 0, i32 1, !dbg !342
  store i64 %self.1, i64* %9, align 8, !dbg !342
  call void @llvm.dbg.declare(metadata { [0 x i8]*, i64 }* %self.dbg.spill2, metadata !343, metadata !DIExpression()), !dbg !351
  %10 = getelementptr inbounds { [0 x i8]*, i64 }, { [0 x i8]*, i64 }* %1, i32 0, i32 0, !dbg !351
  store [0 x i8]* %self.0, [0 x i8]** %10, align 8, !dbg !351
  %11 = getelementptr inbounds { [0 x i8]*, i64 }, { [0 x i8]*, i64 }* %1, i32 0, i32 1, !dbg !351
  store i64 %self.1, i64* %11, align 8, !dbg !351
  %12 = getelementptr inbounds { [0 x i8]*, i64 }, { [0 x i8]*, i64 }* %1, i32 0, i32 0, !dbg !351
  %_6.0 = load [0 x i8]*, [0 x i8]** %12, align 8, !dbg !351, !nonnull !26, !align !353, !noundef !26
  %13 = getelementptr inbounds { [0 x i8]*, i64 }, { [0 x i8]*, i64 }* %1, i32 0, i32 1, !dbg !351
  %_6.1 = load i64, i64* %13, align 8, !dbg !351
  br label %bb2, !dbg !351

bb2:                                              ; preds = %start
; call alloc::slice::<impl alloc::borrow::ToOwned for [T]>::to_owned
  call void @"_ZN5alloc5slice64_$LT$impl$u20$alloc..borrow..ToOwned$u20$for$u20$$u5b$T$u5d$$GT$8to_owned17hd771beb52e788fccE"(%"alloc::vec::Vec<u8>"* sret(%"alloc::vec::Vec<u8>") %bytes, [0 x i8]* align 1 %_6.0, i64 %_6.1), !dbg !342
  br label %bb1, !dbg !342

bb1:                                              ; preds = %bb2
  %14 = bitcast %"alloc::vec::Vec<u8>"* %_9 to i8*, !dbg !325
  %15 = bitcast %"alloc::vec::Vec<u8>"* %bytes to i8*, !dbg !325
  call void @llvm.memcpy.p0i8.p0i8.i64(i8* align 8 %14, i8* align 8 %15, i64 24, i1 false), !dbg !325
  %16 = bitcast %"alloc::string::String"* %0 to %"alloc::vec::Vec<u8>"*, !dbg !325
  %17 = bitcast %"alloc::vec::Vec<u8>"* %16 to i8*, !dbg !325
  %18 = bitcast %"alloc::vec::Vec<u8>"* %_9 to i8*, !dbg !325
  call void @llvm.memcpy.p0i8.p0i8.i64(i8* align 8 %17, i8* align 8 %18, i64 24, i1 false), !dbg !325
  ret void, !dbg !354
}

; core::intrinsics::const_eval_select
; Function Attrs: inlinehint nonlazybind uwtable
define { %"core::ffi::c_str::CStr"*, i64 } @_ZN4core10intrinsics17const_eval_select17h9e040f661d44916eE(i8* align 1 %arg.0, i64 %arg.1) unnamed_addr #0 personality i32 (i32, i32, i64, %"unwind::libunwind::_Unwind_Exception"*, %"unwind::libunwind::_Unwind_Context"*)* @rust_eh_personality !dbg !355 {
start:
  %0 = alloca { i8*, i32 }, align 8
  %called_at_rt.dbg.spill = alloca {}, align 1
  %_called_in_const.dbg.spill = alloca {}, align 1
  %arg.dbg.spill = alloca { i8*, i64 }, align 8
  %1 = getelementptr inbounds { i8*, i64 }, { i8*, i64 }* %arg.dbg.spill, i32 0, i32 0
  store i8* %arg.0, i8** %1, align 8
  %2 = getelementptr inbounds { i8*, i64 }, { i8*, i64 }* %arg.dbg.spill, i32 0, i32 1
  store i64 %arg.1, i64* %2, align 8
  call void @llvm.dbg.declare(metadata { i8*, i64 }* %arg.dbg.spill, metadata !377, metadata !DIExpression()), !dbg !385
  call void @llvm.dbg.declare(metadata {}* %_called_in_const.dbg.spill, metadata !378, metadata !DIExpression()), !dbg !386
  call void @llvm.dbg.declare(metadata {}* %called_at_rt.dbg.spill, metadata !379, metadata !DIExpression()), !dbg !387
  %3 = bitcast i8* %arg.0 to [0 x i8]*, !dbg !388
; invoke core::ops::function::FnOnce::call_once
  %4 = invoke { %"core::ffi::c_str::CStr"*, i64 } @_ZN4core3ops8function6FnOnce9call_once17hce1361e6c4a1da9eE([0 x i8]* align 1 %3, i64 %arg.1)
          to label %bb1 unwind label %cleanup, !dbg !388

bb3:                                              ; preds = %cleanup
  br label %bb4, !dbg !389

cleanup:                                          ; preds = %start
  %5 = landingpad { i8*, i32 }
          cleanup
  %6 = extractvalue { i8*, i32 } %5, 0
  %7 = extractvalue { i8*, i32 } %5, 1
  %8 = getelementptr inbounds { i8*, i32 }, { i8*, i32 }* %0, i32 0, i32 0
  store i8* %6, i8** %8, align 8
  %9 = getelementptr inbounds { i8*, i32 }, { i8*, i32 }* %0, i32 0, i32 1
  store i32 %7, i32* %9, align 8
  br label %bb3

bb1:                                              ; preds = %start
  %10 = extractvalue { %"core::ffi::c_str::CStr"*, i64 } %4, 0, !dbg !388
  %11 = extractvalue { %"core::ffi::c_str::CStr"*, i64 } %4, 1, !dbg !388
  br label %bb2, !dbg !389

bb4:                                              ; preds = %bb3
  %12 = bitcast { i8*, i32 }* %0 to i8**, !dbg !390
  %13 = load i8*, i8** %12, align 8, !dbg !390
  %14 = getelementptr inbounds { i8*, i32 }, { i8*, i32 }* %0, i32 0, i32 1, !dbg !390
  %15 = load i32, i32* %14, align 8, !dbg !390
  %16 = insertvalue { i8*, i32 } undef, i8* %13, 0, !dbg !390
  %17 = insertvalue { i8*, i32 } %16, i32 %15, 1, !dbg !390
  resume { i8*, i32 } %17, !dbg !390

bb2:                                              ; preds = %bb1
  %18 = insertvalue { %"core::ffi::c_str::CStr"*, i64 } undef, %"core::ffi::c_str::CStr"* %10, 0, !dbg !391
  %19 = insertvalue { %"core::ffi::c_str::CStr"*, i64 } %18, i64 %11, 1, !dbg !391
  ret { %"core::ffi::c_str::CStr"*, i64 } %19, !dbg !391
}

; core::cmp::impls::<impl core::cmp::PartialOrd for i32>::lt
; Function Attrs: inlinehint nonlazybind uwtable
define internal zeroext i1 @"_ZN4core3cmp5impls55_$LT$impl$u20$core..cmp..PartialOrd$u20$for$u20$i32$GT$2lt17h1ca8a2a386635526E"(i32* align 4 %self, i32* align 4 %other) unnamed_addr #0 !dbg !392 {
start:
  %other.dbg.spill = alloca i32*, align 8
  %self.dbg.spill = alloca i32*, align 8
  store i32* %self, i32** %self.dbg.spill, align 8
  call void @llvm.dbg.declare(metadata i32** %self.dbg.spill, metadata !401, metadata !DIExpression()), !dbg !403
  store i32* %other, i32** %other.dbg.spill, align 8
  call void @llvm.dbg.declare(metadata i32** %other.dbg.spill, metadata !402, metadata !DIExpression()), !dbg !404
  %_3 = load i32, i32* %self, align 4, !dbg !405
  %_4 = load i32, i32* %other, align 4, !dbg !406
  %0 = icmp slt i32 %_3, %_4, !dbg !405
  ret i1 %0, !dbg !407
}

; core::cmp::impls::<impl core::cmp::PartialOrd for i64>::lt
; Function Attrs: inlinehint nonlazybind uwtable
define internal zeroext i1 @"_ZN4core3cmp5impls55_$LT$impl$u20$core..cmp..PartialOrd$u20$for$u20$i64$GT$2lt17hcc3df5354789fbccE"(i64* align 8 %self, i64* align 8 %other) unnamed_addr #0 !dbg !408 {
start:
  %other.dbg.spill = alloca i64*, align 8
  %self.dbg.spill = alloca i64*, align 8
  store i64* %self, i64** %self.dbg.spill, align 8
  call void @llvm.dbg.declare(metadata i64** %self.dbg.spill, metadata !414, metadata !DIExpression()), !dbg !416
  store i64* %other, i64** %other.dbg.spill, align 8
  call void @llvm.dbg.declare(metadata i64** %other.dbg.spill, metadata !415, metadata !DIExpression()), !dbg !417
  %_3 = load i64, i64* %self, align 8, !dbg !418
  %_4 = load i64, i64* %other, align 8, !dbg !419
  %0 = icmp slt i64 %_3, %_4, !dbg !418
  ret i1 %0, !dbg !420
}

; core::ffi::c_str::CStr::as_ptr
; Function Attrs: inlinehint nonlazybind uwtable
define internal i8* @_ZN4core3ffi5c_str4CStr6as_ptr17h5d031a68d4be8406E(%"core::ffi::c_str::CStr"* align 1 %self.0, i64 %self.1) unnamed_addr #0 !dbg !421 {
start:
  %self.dbg.spill2 = alloca { [0 x i8]*, i64 }, align 8
  %self.dbg.spill = alloca { %"core::ffi::c_str::CStr"*, i64 }, align 8
  %0 = getelementptr inbounds { %"core::ffi::c_str::CStr"*, i64 }, { %"core::ffi::c_str::CStr"*, i64 }* %self.dbg.spill, i32 0, i32 0
  store %"core::ffi::c_str::CStr"* %self.0, %"core::ffi::c_str::CStr"** %0, align 8
  %1 = getelementptr inbounds { %"core::ffi::c_str::CStr"*, i64 }, { %"core::ffi::c_str::CStr"*, i64 }* %self.dbg.spill, i32 0, i32 1
  store i64 %self.1, i64* %1, align 8
  call void @llvm.dbg.declare(metadata { %"core::ffi::c_str::CStr"*, i64 }* %self.dbg.spill, metadata !427, metadata !DIExpression()), !dbg !428
  %self.01 = bitcast %"core::ffi::c_str::CStr"* %self.0 to [0 x i8]*, !dbg !429
  %2 = getelementptr inbounds { [0 x i8]*, i64 }, { [0 x i8]*, i64 }* %self.dbg.spill2, i32 0, i32 0, !dbg !429
  store [0 x i8]* %self.01, [0 x i8]** %2, align 8, !dbg !429
  %3 = getelementptr inbounds { [0 x i8]*, i64 }, { [0 x i8]*, i64 }* %self.dbg.spill2, i32 0, i32 1, !dbg !429
  store i64 %self.1, i64* %3, align 8, !dbg !429
  call void @llvm.dbg.declare(metadata { [0 x i8]*, i64 }* %self.dbg.spill2, metadata !430, metadata !DIExpression()), !dbg !445
  %4 = bitcast [0 x i8]* %self.01 to i8*, !dbg !445
  ret i8* %4, !dbg !446
}

; core::fmt::ArgumentV1::new_display
; Function Attrs: inlinehint nonlazybind uwtable
define { i8*, i64* } @_ZN4core3fmt10ArgumentV111new_display17h8f611a8e12f0c43cE(%"alloc::string::String"* align 8 %x) unnamed_addr #0 !dbg !447 {
start:
  %0 = alloca %"core::fmt::Opaque"*, align 8
  %1 = alloca i1 (%"core::fmt::Opaque"*, %"core::fmt::Formatter"*)*, align 8
  %f.dbg.spill = alloca i1 (%"alloc::string::String"*, %"core::fmt::Formatter"*)*, align 8
  %x.dbg.spill1 = alloca %"alloc::string::String"*, align 8
  %x.dbg.spill = alloca %"alloc::string::String"*, align 8
  %2 = alloca { i8*, i64* }, align 8
  store %"alloc::string::String"* %x, %"alloc::string::String"** %x.dbg.spill, align 8
  call void @llvm.dbg.declare(metadata %"alloc::string::String"** %x.dbg.spill, metadata !514, metadata !DIExpression()), !dbg !517
  store %"alloc::string::String"* %x, %"alloc::string::String"** %x.dbg.spill1, align 8, !dbg !518
  call void @llvm.dbg.declare(metadata %"alloc::string::String"** %x.dbg.spill1, metadata !519, metadata !DIExpression()), !dbg !528
  store i1 (%"alloc::string::String"*, %"core::fmt::Formatter"*)* @"_ZN60_$LT$alloc..string..String$u20$as$u20$core..fmt..Display$GT$3fmt17h85117fc00f0a3c97E", i1 (%"alloc::string::String"*, %"core::fmt::Formatter"*)** %f.dbg.spill, align 8, !dbg !530
  call void @llvm.dbg.declare(metadata i1 (%"alloc::string::String"*, %"core::fmt::Formatter"*)** %f.dbg.spill, metadata !527, metadata !DIExpression()), !dbg !528
  store i1 (%"core::fmt::Opaque"*, %"core::fmt::Formatter"*)* bitcast (i1 (%"alloc::string::String"*, %"core::fmt::Formatter"*)* @"_ZN60_$LT$alloc..string..String$u20$as$u20$core..fmt..Display$GT$3fmt17h85117fc00f0a3c97E" to i1 (%"core::fmt::Opaque"*, %"core::fmt::Formatter"*)*), i1 (%"core::fmt::Opaque"*, %"core::fmt::Formatter"*)** %1, align 8, !dbg !528
  %_4 = load i1 (%"core::fmt::Opaque"*, %"core::fmt::Formatter"*)*, i1 (%"core::fmt::Opaque"*, %"core::fmt::Formatter"*)** %1, align 8, !dbg !528, !nonnull !26, !noundef !26
  br label %bb1, !dbg !528

bb1:                                              ; preds = %start
  %3 = bitcast %"alloc::string::String"* %x to %"core::fmt::Opaque"*, !dbg !528
  store %"core::fmt::Opaque"* %3, %"core::fmt::Opaque"** %0, align 8, !dbg !528
  %_6 = load %"core::fmt::Opaque"*, %"core::fmt::Opaque"** %0, align 8, !dbg !528, !nonnull !26, !align !353, !noundef !26
  br label %bb2, !dbg !528

bb2:                                              ; preds = %bb1
  %4 = bitcast { i8*, i64* }* %2 to %"core::fmt::Opaque"**, !dbg !528
  store %"core::fmt::Opaque"* %_6, %"core::fmt::Opaque"** %4, align 8, !dbg !528
  %5 = getelementptr inbounds { i8*, i64* }, { i8*, i64* }* %2, i32 0, i32 1, !dbg !528
  %6 = bitcast i64** %5 to i1 (%"core::fmt::Opaque"*, %"core::fmt::Formatter"*)**, !dbg !528
  store i1 (%"core::fmt::Opaque"*, %"core::fmt::Formatter"*)* %_4, i1 (%"core::fmt::Opaque"*, %"core::fmt::Formatter"*)** %6, align 8, !dbg !528
  %7 = getelementptr inbounds { i8*, i64* }, { i8*, i64* }* %2, i32 0, i32 0, !dbg !531
  %8 = load i8*, i8** %7, align 8, !dbg !531, !nonnull !26, !align !353, !noundef !26
  %9 = getelementptr inbounds { i8*, i64* }, { i8*, i64* }* %2, i32 0, i32 1, !dbg !531
  %10 = load i64*, i64** %9, align 8, !dbg !531, !nonnull !26, !noundef !26
  %11 = insertvalue { i8*, i64* } undef, i8* %8, 0, !dbg !531
  %12 = insertvalue { i8*, i64* } %11, i64* %10, 1, !dbg !531
  ret { i8*, i64* } %12, !dbg !531
}

; core::fmt::ArgumentV1::new_display
; Function Attrs: inlinehint nonlazybind uwtable
define { i8*, i64* } @_ZN4core3fmt10ArgumentV111new_display17hbe3bcef2e7e6b961E(%"core::fmt::Arguments"* align 8 %x) unnamed_addr #0 !dbg !532 {
start:
  %0 = alloca %"core::fmt::Opaque"*, align 8
  %1 = alloca i1 (%"core::fmt::Opaque"*, %"core::fmt::Formatter"*)*, align 8
  %f.dbg.spill = alloca i1 (%"core::fmt::Arguments"*, %"core::fmt::Formatter"*)*, align 8
  %x.dbg.spill1 = alloca %"core::fmt::Arguments"*, align 8
  %x.dbg.spill = alloca %"core::fmt::Arguments"*, align 8
  %2 = alloca { i8*, i64* }, align 8
  store %"core::fmt::Arguments"* %x, %"core::fmt::Arguments"** %x.dbg.spill, align 8
  call void @llvm.dbg.declare(metadata %"core::fmt::Arguments"** %x.dbg.spill, metadata !596, metadata !DIExpression()), !dbg !599
  store %"core::fmt::Arguments"* %x, %"core::fmt::Arguments"** %x.dbg.spill1, align 8, !dbg !600
  call void @llvm.dbg.declare(metadata %"core::fmt::Arguments"** %x.dbg.spill1, metadata !601, metadata !DIExpression()), !dbg !610
  store i1 (%"core::fmt::Arguments"*, %"core::fmt::Formatter"*)* @"_ZN59_$LT$core..fmt..Arguments$u20$as$u20$core..fmt..Display$GT$3fmt17h3acc6455b8791ff2E", i1 (%"core::fmt::Arguments"*, %"core::fmt::Formatter"*)** %f.dbg.spill, align 8, !dbg !612
  call void @llvm.dbg.declare(metadata i1 (%"core::fmt::Arguments"*, %"core::fmt::Formatter"*)** %f.dbg.spill, metadata !609, metadata !DIExpression()), !dbg !610
  store i1 (%"core::fmt::Opaque"*, %"core::fmt::Formatter"*)* bitcast (i1 (%"core::fmt::Arguments"*, %"core::fmt::Formatter"*)* @"_ZN59_$LT$core..fmt..Arguments$u20$as$u20$core..fmt..Display$GT$3fmt17h3acc6455b8791ff2E" to i1 (%"core::fmt::Opaque"*, %"core::fmt::Formatter"*)*), i1 (%"core::fmt::Opaque"*, %"core::fmt::Formatter"*)** %1, align 8, !dbg !610
  %_4 = load i1 (%"core::fmt::Opaque"*, %"core::fmt::Formatter"*)*, i1 (%"core::fmt::Opaque"*, %"core::fmt::Formatter"*)** %1, align 8, !dbg !610, !nonnull !26, !noundef !26
  br label %bb1, !dbg !610

bb1:                                              ; preds = %start
  %3 = bitcast %"core::fmt::Arguments"* %x to %"core::fmt::Opaque"*, !dbg !610
  store %"core::fmt::Opaque"* %3, %"core::fmt::Opaque"** %0, align 8, !dbg !610
  %_6 = load %"core::fmt::Opaque"*, %"core::fmt::Opaque"** %0, align 8, !dbg !610, !nonnull !26, !align !353, !noundef !26
  br label %bb2, !dbg !610

bb2:                                              ; preds = %bb1
  %4 = bitcast { i8*, i64* }* %2 to %"core::fmt::Opaque"**, !dbg !610
  store %"core::fmt::Opaque"* %_6, %"core::fmt::Opaque"** %4, align 8, !dbg !610
  %5 = getelementptr inbounds { i8*, i64* }, { i8*, i64* }* %2, i32 0, i32 1, !dbg !610
  %6 = bitcast i64** %5 to i1 (%"core::fmt::Opaque"*, %"core::fmt::Formatter"*)**, !dbg !610
  store i1 (%"core::fmt::Opaque"*, %"core::fmt::Formatter"*)* %_4, i1 (%"core::fmt::Opaque"*, %"core::fmt::Formatter"*)** %6, align 8, !dbg !610
  %7 = getelementptr inbounds { i8*, i64* }, { i8*, i64* }* %2, i32 0, i32 0, !dbg !613
  %8 = load i8*, i8** %7, align 8, !dbg !613, !nonnull !26, !align !353, !noundef !26
  %9 = getelementptr inbounds { i8*, i64* }, { i8*, i64* }* %2, i32 0, i32 1, !dbg !613
  %10 = load i64*, i64** %9, align 8, !dbg !613, !nonnull !26, !noundef !26
  %11 = insertvalue { i8*, i64* } undef, i8* %8, 0, !dbg !613
  %12 = insertvalue { i8*, i64* } %11, i64* %10, 1, !dbg !613
  ret { i8*, i64* } %12, !dbg !613
}

; core::fmt::ArgumentV1::new_display
; Function Attrs: inlinehint nonlazybind uwtable
define { i8*, i64* } @_ZN4core3fmt10ArgumentV111new_display17hc9388ccaeaed3d47E(i64* align 8 %x) unnamed_addr #0 !dbg !614 {
start:
  %0 = alloca %"core::fmt::Opaque"*, align 8
  %1 = alloca i1 (%"core::fmt::Opaque"*, %"core::fmt::Formatter"*)*, align 8
  %f.dbg.spill = alloca i1 (i64*, %"core::fmt::Formatter"*)*, align 8
  %x.dbg.spill1 = alloca i64*, align 8
  %x.dbg.spill = alloca i64*, align 8
  %2 = alloca { i8*, i64* }, align 8
  store i64* %x, i64** %x.dbg.spill, align 8
  call void @llvm.dbg.declare(metadata i64** %x.dbg.spill, metadata !619, metadata !DIExpression()), !dbg !620
  store i64* %x, i64** %x.dbg.spill1, align 8, !dbg !621
  call void @llvm.dbg.declare(metadata i64** %x.dbg.spill1, metadata !622, metadata !DIExpression()), !dbg !631
  store i1 (i64*, %"core::fmt::Formatter"*)* @"_ZN4core3fmt3num3imp54_$LT$impl$u20$core..fmt..Display$u20$for$u20$usize$GT$3fmt17h13884cc54f932e9aE", i1 (i64*, %"core::fmt::Formatter"*)** %f.dbg.spill, align 8, !dbg !633
  call void @llvm.dbg.declare(metadata i1 (i64*, %"core::fmt::Formatter"*)** %f.dbg.spill, metadata !630, metadata !DIExpression()), !dbg !631
  store i1 (%"core::fmt::Opaque"*, %"core::fmt::Formatter"*)* bitcast (i1 (i64*, %"core::fmt::Formatter"*)* @"_ZN4core3fmt3num3imp54_$LT$impl$u20$core..fmt..Display$u20$for$u20$usize$GT$3fmt17h13884cc54f932e9aE" to i1 (%"core::fmt::Opaque"*, %"core::fmt::Formatter"*)*), i1 (%"core::fmt::Opaque"*, %"core::fmt::Formatter"*)** %1, align 8, !dbg !631
  %_4 = load i1 (%"core::fmt::Opaque"*, %"core::fmt::Formatter"*)*, i1 (%"core::fmt::Opaque"*, %"core::fmt::Formatter"*)** %1, align 8, !dbg !631, !nonnull !26, !noundef !26
  br label %bb1, !dbg !631

bb1:                                              ; preds = %start
  %3 = bitcast i64* %x to %"core::fmt::Opaque"*, !dbg !631
  store %"core::fmt::Opaque"* %3, %"core::fmt::Opaque"** %0, align 8, !dbg !631
  %_6 = load %"core::fmt::Opaque"*, %"core::fmt::Opaque"** %0, align 8, !dbg !631, !nonnull !26, !align !353, !noundef !26
  br label %bb2, !dbg !631

bb2:                                              ; preds = %bb1
  %4 = bitcast { i8*, i64* }* %2 to %"core::fmt::Opaque"**, !dbg !631
  store %"core::fmt::Opaque"* %_6, %"core::fmt::Opaque"** %4, align 8, !dbg !631
  %5 = getelementptr inbounds { i8*, i64* }, { i8*, i64* }* %2, i32 0, i32 1, !dbg !631
  %6 = bitcast i64** %5 to i1 (%"core::fmt::Opaque"*, %"core::fmt::Formatter"*)**, !dbg !631
  store i1 (%"core::fmt::Opaque"*, %"core::fmt::Formatter"*)* %_4, i1 (%"core::fmt::Opaque"*, %"core::fmt::Formatter"*)** %6, align 8, !dbg !631
  %7 = getelementptr inbounds { i8*, i64* }, { i8*, i64* }* %2, i32 0, i32 0, !dbg !634
  %8 = load i8*, i8** %7, align 8, !dbg !634, !nonnull !26, !align !353, !noundef !26
  %9 = getelementptr inbounds { i8*, i64* }, { i8*, i64* }* %2, i32 0, i32 1, !dbg !634
  %10 = load i64*, i64** %9, align 8, !dbg !634, !nonnull !26, !noundef !26
  %11 = insertvalue { i8*, i64* } undef, i8* %8, 0, !dbg !634
  %12 = insertvalue { i8*, i64* } %11, i64* %10, 1, !dbg !634
  ret { i8*, i64* } %12, !dbg !634
}

; core::fmt::Arguments::as_str
; Function Attrs: inlinehint nonlazybind uwtable
define internal { i8*, i64 } @_ZN4core3fmt9Arguments6as_str17hc018f819405eaff4E(%"core::fmt::Arguments"* align 8 %self) unnamed_addr #0 !dbg !635 {
start:
  %s.dbg.spill = alloca { [0 x i8]*, i64 }*, align 8
  %self.dbg.spill = alloca %"core::fmt::Arguments"*, align 8
  %_2 = alloca { { [0 x { [0 x i8]*, i64 }]*, i64 }, { [0 x { i8*, i64* }]*, i64 } }, align 8
  %0 = alloca { i8*, i64 }, align 8
  store %"core::fmt::Arguments"* %self, %"core::fmt::Arguments"** %self.dbg.spill, align 8
  call void @llvm.dbg.declare(metadata %"core::fmt::Arguments"** %self.dbg.spill, metadata !652, metadata !DIExpression()), !dbg !656
  %1 = bitcast %"core::fmt::Arguments"* %self to { [0 x { [0 x i8]*, i64 }]*, i64 }*, !dbg !657
  %2 = getelementptr inbounds { [0 x { [0 x i8]*, i64 }]*, i64 }, { [0 x { [0 x i8]*, i64 }]*, i64 }* %1, i32 0, i32 0, !dbg !657
  %_3.0 = load [0 x { [0 x i8]*, i64 }]*, [0 x { [0 x i8]*, i64 }]** %2, align 8, !dbg !657, !nonnull !26, !align !658, !noundef !26
  %3 = getelementptr inbounds { [0 x { [0 x i8]*, i64 }]*, i64 }, { [0 x { [0 x i8]*, i64 }]*, i64 }* %1, i32 0, i32 1, !dbg !657
  %_3.1 = load i64, i64* %3, align 8, !dbg !657
  %4 = getelementptr inbounds %"core::fmt::Arguments", %"core::fmt::Arguments"* %self, i32 0, i32 2, !dbg !659
  %5 = getelementptr inbounds { [0 x { i8*, i64* }]*, i64 }, { [0 x { i8*, i64* }]*, i64 }* %4, i32 0, i32 0, !dbg !659
  %_4.0 = load [0 x { i8*, i64* }]*, [0 x { i8*, i64* }]** %5, align 8, !dbg !659, !nonnull !26, !align !658, !noundef !26
  %6 = getelementptr inbounds { [0 x { i8*, i64* }]*, i64 }, { [0 x { i8*, i64* }]*, i64 }* %4, i32 0, i32 1, !dbg !659
  %_4.1 = load i64, i64* %6, align 8, !dbg !659
  %7 = bitcast { { [0 x { [0 x i8]*, i64 }]*, i64 }, { [0 x { i8*, i64* }]*, i64 } }* %_2 to { [0 x { [0 x i8]*, i64 }]*, i64 }*, !dbg !660
  %8 = getelementptr inbounds { [0 x { [0 x i8]*, i64 }]*, i64 }, { [0 x { [0 x i8]*, i64 }]*, i64 }* %7, i32 0, i32 0, !dbg !660
  store [0 x { [0 x i8]*, i64 }]* %_3.0, [0 x { [0 x i8]*, i64 }]** %8, align 8, !dbg !660
  %9 = getelementptr inbounds { [0 x { [0 x i8]*, i64 }]*, i64 }, { [0 x { [0 x i8]*, i64 }]*, i64 }* %7, i32 0, i32 1, !dbg !660
  store i64 %_3.1, i64* %9, align 8, !dbg !660
  %10 = getelementptr inbounds { { [0 x { [0 x i8]*, i64 }]*, i64 }, { [0 x { i8*, i64* }]*, i64 } }, { { [0 x { [0 x i8]*, i64 }]*, i64 }, { [0 x { i8*, i64* }]*, i64 } }* %_2, i32 0, i32 1, !dbg !660
  %11 = getelementptr inbounds { [0 x { i8*, i64* }]*, i64 }, { [0 x { i8*, i64* }]*, i64 }* %10, i32 0, i32 0, !dbg !660
  store [0 x { i8*, i64* }]* %_4.0, [0 x { i8*, i64* }]** %11, align 8, !dbg !660
  %12 = getelementptr inbounds { [0 x { i8*, i64* }]*, i64 }, { [0 x { i8*, i64* }]*, i64 }* %10, i32 0, i32 1, !dbg !660
  store i64 %_4.1, i64* %12, align 8, !dbg !660
  %13 = bitcast { { [0 x { [0 x i8]*, i64 }]*, i64 }, { [0 x { i8*, i64* }]*, i64 } }* %_2 to { [0 x { [0 x i8]*, i64 }]*, i64 }*, !dbg !661
  %14 = getelementptr inbounds { [0 x { [0 x i8]*, i64 }]*, i64 }, { [0 x { [0 x i8]*, i64 }]*, i64 }* %13, i32 0, i32 0, !dbg !661
  %_21.0 = load [0 x { [0 x i8]*, i64 }]*, [0 x { [0 x i8]*, i64 }]** %14, align 8, !dbg !661, !nonnull !26, !align !658, !noundef !26
  %15 = getelementptr inbounds { [0 x { [0 x i8]*, i64 }]*, i64 }, { [0 x { [0 x i8]*, i64 }]*, i64 }* %13, i32 0, i32 1, !dbg !661
  %_21.1 = load i64, i64* %15, align 8, !dbg !661
  %_16 = icmp eq i64 %_21.1, 0, !dbg !661
  br i1 %_16, label %bb1, label %bb3, !dbg !661

bb3:                                              ; preds = %start
  %16 = bitcast { { [0 x { [0 x i8]*, i64 }]*, i64 }, { [0 x { i8*, i64* }]*, i64 } }* %_2 to { [0 x { [0 x i8]*, i64 }]*, i64 }*, !dbg !662
  %17 = getelementptr inbounds { [0 x { [0 x i8]*, i64 }]*, i64 }, { [0 x { [0 x i8]*, i64 }]*, i64 }* %16, i32 0, i32 0, !dbg !662
  %_23.0 = load [0 x { [0 x i8]*, i64 }]*, [0 x { [0 x i8]*, i64 }]** %17, align 8, !dbg !662, !nonnull !26, !align !658, !noundef !26
  %18 = getelementptr inbounds { [0 x { [0 x i8]*, i64 }]*, i64 }, { [0 x { [0 x i8]*, i64 }]*, i64 }* %16, i32 0, i32 1, !dbg !662
  %_23.1 = load i64, i64* %18, align 8, !dbg !662
  %_13 = icmp eq i64 %_23.1, 1, !dbg !662
  br i1 %_13, label %bb4, label %bb2, !dbg !662

bb1:                                              ; preds = %start
  %19 = getelementptr inbounds { { [0 x { [0 x i8]*, i64 }]*, i64 }, { [0 x { i8*, i64* }]*, i64 } }, { { [0 x { [0 x i8]*, i64 }]*, i64 }, { [0 x { i8*, i64* }]*, i64 } }* %_2, i32 0, i32 1, !dbg !663
  %20 = getelementptr inbounds { [0 x { i8*, i64* }]*, i64 }, { [0 x { i8*, i64* }]*, i64 }* %19, i32 0, i32 0, !dbg !663
  %_22.0 = load [0 x { i8*, i64* }]*, [0 x { i8*, i64* }]** %20, align 8, !dbg !663, !nonnull !26, !align !658, !noundef !26
  %21 = getelementptr inbounds { [0 x { i8*, i64* }]*, i64 }, { [0 x { i8*, i64* }]*, i64 }* %19, i32 0, i32 1, !dbg !663
  %_22.1 = load i64, i64* %21, align 8, !dbg !663
  %_7 = icmp eq i64 %_22.1, 0, !dbg !663
  br i1 %_7, label %bb5, label %bb2, !dbg !663

bb2:                                              ; preds = %bb4, %bb3, %bb1
  %22 = bitcast { i8*, i64 }* %0 to {}**, !dbg !664
  store {}* null, {}** %22, align 8, !dbg !664
  br label %bb7, !dbg !664

bb5:                                              ; preds = %bb1
  %23 = bitcast { i8*, i64 }* %0 to { [0 x i8]*, i64 }*, !dbg !665
  %24 = getelementptr inbounds { [0 x i8]*, i64 }, { [0 x i8]*, i64 }* %23, i32 0, i32 0, !dbg !665
  store [0 x i8]* bitcast (<{}>* @alloc998 to [0 x i8]*), [0 x i8]** %24, align 8, !dbg !665
  %25 = getelementptr inbounds { [0 x i8]*, i64 }, { [0 x i8]*, i64 }* %23, i32 0, i32 1, !dbg !665
  store i64 0, i64* %25, align 8, !dbg !665
  br label %bb7, !dbg !666

bb7:                                              ; preds = %bb2, %bb6, %bb5
  %26 = getelementptr inbounds { i8*, i64 }, { i8*, i64 }* %0, i32 0, i32 0, !dbg !667
  %27 = load i8*, i8** %26, align 8, !dbg !667, !align !353
  %28 = getelementptr inbounds { i8*, i64 }, { i8*, i64 }* %0, i32 0, i32 1, !dbg !667
  %29 = load i64, i64* %28, align 8, !dbg !667
  %30 = insertvalue { i8*, i64 } undef, i8* %27, 0, !dbg !667
  %31 = insertvalue { i8*, i64 } %30, i64 %29, 1, !dbg !667
  ret { i8*, i64 } %31, !dbg !667

bb4:                                              ; preds = %bb3
  %32 = getelementptr inbounds { { [0 x { [0 x i8]*, i64 }]*, i64 }, { [0 x { i8*, i64* }]*, i64 } }, { { [0 x { [0 x i8]*, i64 }]*, i64 }, { [0 x { i8*, i64* }]*, i64 } }* %_2, i32 0, i32 1, !dbg !668
  %33 = getelementptr inbounds { [0 x { i8*, i64* }]*, i64 }, { [0 x { i8*, i64* }]*, i64 }* %32, i32 0, i32 0, !dbg !668
  %_24.0 = load [0 x { i8*, i64* }]*, [0 x { i8*, i64* }]** %33, align 8, !dbg !668, !nonnull !26, !align !658, !noundef !26
  %34 = getelementptr inbounds { [0 x { i8*, i64* }]*, i64 }, { [0 x { i8*, i64* }]*, i64 }* %32, i32 0, i32 1, !dbg !668
  %_24.1 = load i64, i64* %34, align 8, !dbg !668
  %_10 = icmp eq i64 %_24.1, 0, !dbg !668
  br i1 %_10, label %bb6, label %bb2, !dbg !668

bb6:                                              ; preds = %bb4
  %35 = bitcast { { [0 x { [0 x i8]*, i64 }]*, i64 }, { [0 x { i8*, i64* }]*, i64 } }* %_2 to { [0 x { [0 x i8]*, i64 }]*, i64 }*, !dbg !669
  %36 = getelementptr inbounds { [0 x { [0 x i8]*, i64 }]*, i64 }, { [0 x { [0 x i8]*, i64 }]*, i64 }* %35, i32 0, i32 0, !dbg !669
  %_25.0 = load [0 x { [0 x i8]*, i64 }]*, [0 x { [0 x i8]*, i64 }]** %36, align 8, !dbg !669, !nonnull !26, !align !658, !noundef !26
  %37 = getelementptr inbounds { [0 x { [0 x i8]*, i64 }]*, i64 }, { [0 x { [0 x i8]*, i64 }]*, i64 }* %35, i32 0, i32 1, !dbg !669
  %_25.1 = load i64, i64* %37, align 8, !dbg !669
  %s = getelementptr inbounds [0 x { [0 x i8]*, i64 }], [0 x { [0 x i8]*, i64 }]* %_25.0, i64 0, i64 0, !dbg !669
  store { [0 x i8]*, i64 }* %s, { [0 x i8]*, i64 }** %s.dbg.spill, align 8, !dbg !669
  call void @llvm.dbg.declare(metadata { [0 x i8]*, i64 }** %s.dbg.spill, metadata !653, metadata !DIExpression()), !dbg !670
  %38 = getelementptr inbounds { [0 x i8]*, i64 }, { [0 x i8]*, i64 }* %s, i32 0, i32 0, !dbg !671
  %_26.0 = load [0 x i8]*, [0 x i8]** %38, align 8, !dbg !671, !nonnull !26, !align !353, !noundef !26
  %39 = getelementptr inbounds { [0 x i8]*, i64 }, { [0 x i8]*, i64 }* %s, i32 0, i32 1, !dbg !671
  %_26.1 = load i64, i64* %39, align 8, !dbg !671
  %40 = bitcast { i8*, i64 }* %0 to { [0 x i8]*, i64 }*, !dbg !672
  %41 = getelementptr inbounds { [0 x i8]*, i64 }, { [0 x i8]*, i64 }* %40, i32 0, i32 0, !dbg !672
  store [0 x i8]* %_26.0, [0 x i8]** %41, align 8, !dbg !672
  %42 = getelementptr inbounds { [0 x i8]*, i64 }, { [0 x i8]*, i64 }* %40, i32 0, i32 1, !dbg !672
  store i64 %_26.1, i64* %42, align 8, !dbg !672
  br label %bb7, !dbg !673
}

; core::fmt::Arguments::new_v1
; Function Attrs: inlinehint nonlazybind uwtable
define internal void @_ZN4core3fmt9Arguments6new_v117h747dba7f8d1ace20E(%"core::fmt::Arguments"* sret(%"core::fmt::Arguments") %0, [0 x { [0 x i8]*, i64 }]* align 8 %pieces.0, i64 %pieces.1, [0 x { i8*, i64* }]* align 8 %args.0, i64 %args.1) unnamed_addr #0 !dbg !674 {
start:
  %args.dbg.spill = alloca { [0 x { i8*, i64* }]*, i64 }, align 8
  %pieces.dbg.spill = alloca { [0 x { [0 x i8]*, i64 }]*, i64 }, align 8
  %_24 = alloca { i64*, i64 }, align 8
  %_16 = alloca %"core::fmt::Arguments", align 8
  %_3 = alloca i8, align 1
  %1 = getelementptr inbounds { [0 x { [0 x i8]*, i64 }]*, i64 }, { [0 x { [0 x i8]*, i64 }]*, i64 }* %pieces.dbg.spill, i32 0, i32 0
  store [0 x { [0 x i8]*, i64 }]* %pieces.0, [0 x { [0 x i8]*, i64 }]** %1, align 8
  %2 = getelementptr inbounds { [0 x { [0 x i8]*, i64 }]*, i64 }, { [0 x { [0 x i8]*, i64 }]*, i64 }* %pieces.dbg.spill, i32 0, i32 1
  store i64 %pieces.1, i64* %2, align 8
  call void @llvm.dbg.declare(metadata { [0 x { [0 x i8]*, i64 }]*, i64 }* %pieces.dbg.spill, metadata !678, metadata !DIExpression()), !dbg !680
  %3 = getelementptr inbounds { [0 x { i8*, i64* }]*, i64 }, { [0 x { i8*, i64* }]*, i64 }* %args.dbg.spill, i32 0, i32 0
  store [0 x { i8*, i64* }]* %args.0, [0 x { i8*, i64* }]** %3, align 8
  %4 = getelementptr inbounds { [0 x { i8*, i64* }]*, i64 }, { [0 x { i8*, i64* }]*, i64 }* %args.dbg.spill, i32 0, i32 1
  store i64 %args.1, i64* %4, align 8
  call void @llvm.dbg.declare(metadata { [0 x { i8*, i64* }]*, i64 }* %args.dbg.spill, metadata !679, metadata !DIExpression()), !dbg !681
  %_4 = icmp ult i64 %pieces.1, %args.1, !dbg !682
  br i1 %_4, label %bb1, label %bb2, !dbg !682

bb2:                                              ; preds = %start
  %_12 = add i64 %args.1, 1, !dbg !683
  %_9 = icmp ugt i64 %pieces.1, %_12, !dbg !684
  %5 = zext i1 %_9 to i8, !dbg !682
  store i8 %5, i8* %_3, align 1, !dbg !682
  br label %bb3, !dbg !682

bb1:                                              ; preds = %start
  store i8 1, i8* %_3, align 1, !dbg !682
  br label %bb3, !dbg !682

bb3:                                              ; preds = %bb2, %bb1
  %6 = load i8, i8* %_3, align 1, !dbg !682, !range !685, !noundef !26
  %7 = trunc i8 %6 to i1, !dbg !682
  br i1 %7, label %bb4, label %bb6, !dbg !682

bb6:                                              ; preds = %bb3
  %8 = bitcast { i64*, i64 }* %_24 to {}**, !dbg !686
  store {}* null, {}** %8, align 8, !dbg !686
  %9 = bitcast %"core::fmt::Arguments"* %0 to { [0 x { [0 x i8]*, i64 }]*, i64 }*, !dbg !687
  %10 = getelementptr inbounds { [0 x { [0 x i8]*, i64 }]*, i64 }, { [0 x { [0 x i8]*, i64 }]*, i64 }* %9, i32 0, i32 0, !dbg !687
  store [0 x { [0 x i8]*, i64 }]* %pieces.0, [0 x { [0 x i8]*, i64 }]** %10, align 8, !dbg !687
  %11 = getelementptr inbounds { [0 x { [0 x i8]*, i64 }]*, i64 }, { [0 x { [0 x i8]*, i64 }]*, i64 }* %9, i32 0, i32 1, !dbg !687
  store i64 %pieces.1, i64* %11, align 8, !dbg !687
  %12 = getelementptr inbounds %"core::fmt::Arguments", %"core::fmt::Arguments"* %0, i32 0, i32 1, !dbg !687
  %13 = getelementptr inbounds { i64*, i64 }, { i64*, i64 }* %_24, i32 0, i32 0, !dbg !687
  %14 = load i64*, i64** %13, align 8, !dbg !687, !align !658
  %15 = getelementptr inbounds { i64*, i64 }, { i64*, i64 }* %_24, i32 0, i32 1, !dbg !687
  %16 = load i64, i64* %15, align 8, !dbg !687
  %17 = getelementptr inbounds { i64*, i64 }, { i64*, i64 }* %12, i32 0, i32 0, !dbg !687
  store i64* %14, i64** %17, align 8, !dbg !687
  %18 = getelementptr inbounds { i64*, i64 }, { i64*, i64 }* %12, i32 0, i32 1, !dbg !687
  store i64 %16, i64* %18, align 8, !dbg !687
  %19 = getelementptr inbounds %"core::fmt::Arguments", %"core::fmt::Arguments"* %0, i32 0, i32 2, !dbg !687
  %20 = getelementptr inbounds { [0 x { i8*, i64* }]*, i64 }, { [0 x { i8*, i64* }]*, i64 }* %19, i32 0, i32 0, !dbg !687
  store [0 x { i8*, i64* }]* %args.0, [0 x { i8*, i64* }]** %20, align 8, !dbg !687
  %21 = getelementptr inbounds { [0 x { i8*, i64* }]*, i64 }, { [0 x { i8*, i64* }]*, i64 }* %19, i32 0, i32 1, !dbg !687
  store i64 %args.1, i64* %21, align 8, !dbg !687
  ret void, !dbg !688

bb4:                                              ; preds = %bb3
; call core::fmt::Arguments::new_v1
  call void @_ZN4core3fmt9Arguments6new_v117h747dba7f8d1ace20E(%"core::fmt::Arguments"* sret(%"core::fmt::Arguments") %_16, [0 x { [0 x i8]*, i64 }]* align 8 bitcast (<{ i8*, [8 x i8] }>* @alloc506 to [0 x { [0 x i8]*, i64 }]*), i64 1, [0 x { i8*, i64* }]* align 8 bitcast (<{}>* @alloc998 to [0 x { i8*, i64* }]*), i64 0), !dbg !689
  br label %bb5, !dbg !689

bb5:                                              ; preds = %bb4
; call core::panicking::panic_fmt
  call void @_ZN4core9panicking9panic_fmt17h62ccf03c8a8a51b5E(%"core::fmt::Arguments"* %_16, %"core::panic::location::Location"* align 8 bitcast (<{ i8*, [16 x i8] }>* @alloc1175 to %"core::panic::location::Location"*)) #12, !dbg !689
  unreachable, !dbg !689
}

; core::mem::replace
; Function Attrs: inlinehint nonlazybind uwtable
define i32 @_ZN4core3mem7replace17h1f2405c7174d7886E(i32* align 4 %dest, i32 %src) unnamed_addr #0 personality i32 (i32, i32, i64, %"unwind::libunwind::_Unwind_Exception"*, %"unwind::libunwind::_Unwind_Context"*)* @rust_eh_personality !dbg !690 {
start:
  %dst.dbg.spill = alloca i32*, align 8
  %result.dbg.spill = alloca i32, align 4
  %slot.dbg.spill = alloca i32, align 4
  %0 = alloca { i8*, i32 }, align 8
  %self.dbg.spill3 = alloca i32, align 4
  %self.dbg.spill = alloca i32*, align 8
  %src.dbg.spill2 = alloca i32*, align 8
  %src.dbg.spill = alloca i32, align 4
  %dest.dbg.spill = alloca i32*, align 8
  %tmp = alloca i32, align 4
  %src1 = alloca i32, align 4
  store i32* %dest, i32** %dest.dbg.spill, align 8
  call void @llvm.dbg.declare(metadata i32** %dest.dbg.spill, metadata !696, metadata !DIExpression()), !dbg !702
  store i32 %src, i32* %src.dbg.spill, align 4
  call void @llvm.dbg.declare(metadata i32* %src.dbg.spill, metadata !697, metadata !DIExpression()), !dbg !703
  call void @llvm.dbg.declare(metadata i32* %src1, metadata !704, metadata !DIExpression()), !dbg !713
  call void @llvm.dbg.declare(metadata i32* %tmp, metadata !715, metadata !DIExpression()), !dbg !734
  store i32* %dest, i32** %src.dbg.spill2, align 8, !dbg !736
  call void @llvm.dbg.declare(metadata i32** %src.dbg.spill2, metadata !723, metadata !DIExpression()), !dbg !737
  %1 = bitcast i32* %tmp to {}*, !dbg !738
  store i32* %tmp, i32** %self.dbg.spill, align 8, !dbg !734
  call void @llvm.dbg.declare(metadata i32** %self.dbg.spill, metadata !745, metadata !DIExpression()), !dbg !752
  %2 = bitcast i32* %tmp to i8*, !dbg !734
  %3 = bitcast i32* %dest to i8*, !dbg !734
  call void @llvm.memcpy.p0i8.p0i8.i64(i8* align 4 %2, i8* align 4 %3, i64 4, i1 false), !dbg !734
  %self = load i32, i32* %tmp, align 4, !dbg !734
  store i32 %self, i32* %self.dbg.spill3, align 4, !dbg !734
  call void @llvm.dbg.declare(metadata i32* %self.dbg.spill3, metadata !754, metadata !DIExpression()), !dbg !760
  br label %bb4, !dbg !760

bb4:                                              ; preds = %start
  store i32 %self, i32* %slot.dbg.spill, align 4, !dbg !760
  call void @llvm.dbg.declare(metadata i32* %slot.dbg.spill, metadata !762, metadata !DIExpression()), !dbg !769
  store i32 %self, i32* %result.dbg.spill, align 4, !dbg !769
  call void @llvm.dbg.declare(metadata i32* %result.dbg.spill, metadata !698, metadata !DIExpression()), !dbg !771
  store i32* %dest, i32** %dst.dbg.spill, align 8, !dbg !772
  call void @llvm.dbg.declare(metadata i32** %dst.dbg.spill, metadata !712, metadata !DIExpression()), !dbg !713
  store i32 %src, i32* %src1, align 4, !dbg !773
  %4 = bitcast i32* %dest to i8*, !dbg !713
  %5 = bitcast i32* %src1 to i8*, !dbg !713
  call void @llvm.memcpy.p0i8.p0i8.i64(i8* align 4 %4, i8* align 4 %5, i64 4, i1 false), !dbg !713
  ret i32 %self, !dbg !774

bb3:                                              ; No predecessors!
  br i1 true, label %bb2, label %bb1, !dbg !775

bb1:                                              ; preds = %bb2, %bb3
  %6 = bitcast { i8*, i32 }* %0 to i8**, !dbg !776
  %7 = load i8*, i8** %6, align 8, !dbg !776
  %8 = getelementptr inbounds { i8*, i32 }, { i8*, i32 }* %0, i32 0, i32 1, !dbg !776
  %9 = load i32, i32* %8, align 8, !dbg !776
  %10 = insertvalue { i8*, i32 } undef, i8* %7, 0, !dbg !776
  %11 = insertvalue { i8*, i32 } %10, i32 %9, 1, !dbg !776
  resume { i8*, i32 } %11, !dbg !776

bb2:                                              ; preds = %bb3
  br label %bb1, !dbg !775
}

; core::mem::replace
; Function Attrs: inlinehint nonlazybind uwtable
define i64 @_ZN4core3mem7replace17h1fb2341b0515eb1dE(i64* align 8 %dest, i64 %src) unnamed_addr #0 personality i32 (i32, i32, i64, %"unwind::libunwind::_Unwind_Exception"*, %"unwind::libunwind::_Unwind_Context"*)* @rust_eh_personality !dbg !777 {
start:
  %dst.dbg.spill = alloca i64*, align 8
  %result.dbg.spill = alloca i64, align 8
  %slot.dbg.spill = alloca i64, align 8
  %0 = alloca { i8*, i32 }, align 8
  %self.dbg.spill3 = alloca i64, align 8
  %self.dbg.spill = alloca i64*, align 8
  %src.dbg.spill2 = alloca i64*, align 8
  %src.dbg.spill = alloca i64, align 8
  %dest.dbg.spill = alloca i64*, align 8
  %tmp = alloca i64, align 8
  %src1 = alloca i64, align 8
  store i64* %dest, i64** %dest.dbg.spill, align 8
  call void @llvm.dbg.declare(metadata i64** %dest.dbg.spill, metadata !782, metadata !DIExpression()), !dbg !788
  store i64 %src, i64* %src.dbg.spill, align 8
  call void @llvm.dbg.declare(metadata i64* %src.dbg.spill, metadata !783, metadata !DIExpression()), !dbg !789
  call void @llvm.dbg.declare(metadata i64* %src1, metadata !790, metadata !DIExpression()), !dbg !798
  call void @llvm.dbg.declare(metadata i64* %tmp, metadata !800, metadata !DIExpression()), !dbg !817
  store i64* %dest, i64** %src.dbg.spill2, align 8, !dbg !819
  call void @llvm.dbg.declare(metadata i64** %src.dbg.spill2, metadata !808, metadata !DIExpression()), !dbg !820
  %1 = bitcast i64* %tmp to {}*, !dbg !821
  store i64* %tmp, i64** %self.dbg.spill, align 8, !dbg !817
  call void @llvm.dbg.declare(metadata i64** %self.dbg.spill, metadata !827, metadata !DIExpression()), !dbg !834
  %2 = bitcast i64* %tmp to i8*, !dbg !817
  %3 = bitcast i64* %dest to i8*, !dbg !817
  call void @llvm.memcpy.p0i8.p0i8.i64(i8* align 8 %2, i8* align 8 %3, i64 8, i1 false), !dbg !817
  %self = load i64, i64* %tmp, align 8, !dbg !817
  store i64 %self, i64* %self.dbg.spill3, align 8, !dbg !817
  call void @llvm.dbg.declare(metadata i64* %self.dbg.spill3, metadata !836, metadata !DIExpression()), !dbg !842
  br label %bb4, !dbg !842

bb4:                                              ; preds = %start
  store i64 %self, i64* %slot.dbg.spill, align 8, !dbg !842
  call void @llvm.dbg.declare(metadata i64* %slot.dbg.spill, metadata !844, metadata !DIExpression()), !dbg !850
  store i64 %self, i64* %result.dbg.spill, align 8, !dbg !850
  call void @llvm.dbg.declare(metadata i64* %result.dbg.spill, metadata !784, metadata !DIExpression()), !dbg !852
  store i64* %dest, i64** %dst.dbg.spill, align 8, !dbg !853
  call void @llvm.dbg.declare(metadata i64** %dst.dbg.spill, metadata !797, metadata !DIExpression()), !dbg !798
  store i64 %src, i64* %src1, align 8, !dbg !854
  %4 = bitcast i64* %dest to i8*, !dbg !798
  %5 = bitcast i64* %src1 to i8*, !dbg !798
  call void @llvm.memcpy.p0i8.p0i8.i64(i8* align 8 %4, i8* align 8 %5, i64 8, i1 false), !dbg !798
  ret i64 %self, !dbg !855

bb3:                                              ; No predecessors!
  br i1 true, label %bb2, label %bb1, !dbg !856

bb1:                                              ; preds = %bb2, %bb3
  %6 = bitcast { i8*, i32 }* %0 to i8**, !dbg !857
  %7 = load i8*, i8** %6, align 8, !dbg !857
  %8 = getelementptr inbounds { i8*, i32 }, { i8*, i32 }* %0, i32 0, i32 1, !dbg !857
  %9 = load i32, i32* %8, align 8, !dbg !857
  %10 = insertvalue { i8*, i32 } undef, i8* %7, 0, !dbg !857
  %11 = insertvalue { i8*, i32 } %10, i32 %9, 1, !dbg !857
  resume { i8*, i32 } %11, !dbg !857

bb2:                                              ; preds = %bb3
  br label %bb1, !dbg !856
}

; core::num::<impl usize>::checked_mul
; Function Attrs: inlinehint nonlazybind uwtable
define internal { i64, i64 } @"_ZN4core3num23_$LT$impl$u20$usize$GT$11checked_mul17h5440c3808e5cbaa6E"(i64 %self, i64 %rhs) unnamed_addr #0 !dbg !858 {
start:
  %0 = alloca i8, align 1
  %b.dbg.spill4 = alloca i8, align 1
  %a.dbg.spill3 = alloca i64, align 8
  %b.dbg.spill = alloca i8, align 1
  %a.dbg.spill = alloca i64, align 8
  %1 = alloca { i64, i8 }, align 8
  %rhs.dbg.spill2 = alloca i64, align 8
  %self.dbg.spill1 = alloca i64, align 8
  %rhs.dbg.spill = alloca i64, align 8
  %self.dbg.spill = alloca i64, align 8
  %_5 = alloca { i64, i8 }, align 8
  %2 = alloca { i64, i64 }, align 8
  store i64 %self, i64* %self.dbg.spill, align 8
  call void @llvm.dbg.declare(metadata i64* %self.dbg.spill, metadata !864, metadata !DIExpression()), !dbg !869
  store i64 %rhs, i64* %rhs.dbg.spill, align 8
  call void @llvm.dbg.declare(metadata i64* %rhs.dbg.spill, metadata !865, metadata !DIExpression()), !dbg !870
  store i64 %self, i64* %self.dbg.spill1, align 8, !dbg !871
  call void @llvm.dbg.declare(metadata i64* %self.dbg.spill1, metadata !872, metadata !DIExpression()), !dbg !885
  store i64 %rhs, i64* %rhs.dbg.spill2, align 8, !dbg !886
  call void @llvm.dbg.declare(metadata i64* %rhs.dbg.spill2, metadata !881, metadata !DIExpression()), !dbg !885
  %3 = call { i64, i1 } @llvm.umul.with.overflow.i64(i64 %self, i64 %rhs), !dbg !885
  %4 = extractvalue { i64, i1 } %3, 0, !dbg !885
  %5 = extractvalue { i64, i1 } %3, 1, !dbg !885
  %6 = zext i1 %5 to i8, !dbg !885
  %7 = bitcast { i64, i8 }* %1 to i64*, !dbg !885
  store i64 %4, i64* %7, align 8, !dbg !885
  %8 = getelementptr inbounds { i64, i8 }, { i64, i8 }* %1, i32 0, i32 1, !dbg !885
  store i8 %6, i8* %8, align 8, !dbg !885
  %9 = getelementptr inbounds { i64, i8 }, { i64, i8 }* %1, i32 0, i32 0, !dbg !885
  %_13.0 = load i64, i64* %9, align 8, !dbg !885
  %10 = getelementptr inbounds { i64, i8 }, { i64, i8 }* %1, i32 0, i32 1, !dbg !885
  %11 = load i8, i8* %10, align 8, !dbg !885, !range !685, !noundef !26
  %_13.1 = trunc i8 %11 to i1, !dbg !885
  br label %bb5, !dbg !885

bb5:                                              ; preds = %start
  store i64 %_13.0, i64* %a.dbg.spill, align 8, !dbg !885
  call void @llvm.dbg.declare(metadata i64* %a.dbg.spill, metadata !882, metadata !DIExpression()), !dbg !887
  %12 = zext i1 %_13.1 to i8, !dbg !885
  store i8 %12, i8* %b.dbg.spill, align 1, !dbg !885
  call void @llvm.dbg.declare(metadata i8* %b.dbg.spill, metadata !884, metadata !DIExpression()), !dbg !887
  %13 = bitcast { i64, i8 }* %_5 to i64*, !dbg !887
  store i64 %_13.0, i64* %13, align 8, !dbg !887
  %14 = getelementptr inbounds { i64, i8 }, { i64, i8 }* %_5, i32 0, i32 1, !dbg !887
  %15 = zext i1 %_13.1 to i8, !dbg !887
  store i8 %15, i8* %14, align 8, !dbg !887
  %16 = bitcast { i64, i8 }* %_5 to i64*, !dbg !888
  %a = load i64, i64* %16, align 8, !dbg !888
  store i64 %a, i64* %a.dbg.spill3, align 8, !dbg !888
  call void @llvm.dbg.declare(metadata i64* %a.dbg.spill3, metadata !866, metadata !DIExpression()), !dbg !889
  %17 = getelementptr inbounds { i64, i8 }, { i64, i8 }* %_5, i32 0, i32 1, !dbg !890
  %18 = load i8, i8* %17, align 8, !dbg !890, !range !685, !noundef !26
  %b = trunc i8 %18 to i1, !dbg !890
  %19 = zext i1 %b to i8, !dbg !890
  store i8 %19, i8* %b.dbg.spill4, align 1, !dbg !890
  call void @llvm.dbg.declare(metadata i8* %b.dbg.spill4, metadata !868, metadata !DIExpression()), !dbg !891
  %20 = call i1 @llvm.expect.i1(i1 %b, i1 false), !dbg !892
  %21 = zext i1 %20 to i8, !dbg !892
  store i8 %21, i8* %0, align 1, !dbg !892
  %22 = load i8, i8* %0, align 1, !dbg !892, !range !685, !noundef !26
  %_8 = trunc i8 %22 to i1, !dbg !892
  br label %bb1, !dbg !892

bb1:                                              ; preds = %bb5
  br i1 %_8, label %bb2, label %bb3, !dbg !892

bb3:                                              ; preds = %bb1
  %23 = getelementptr inbounds { i64, i64 }, { i64, i64 }* %2, i32 0, i32 1, !dbg !893
  store i64 %a, i64* %23, align 8, !dbg !893
  %24 = bitcast { i64, i64 }* %2 to i64*, !dbg !893
  store i64 1, i64* %24, align 8, !dbg !893
  br label %bb4, !dbg !894

bb2:                                              ; preds = %bb1
  %25 = bitcast { i64, i64 }* %2 to i64*, !dbg !895
  store i64 0, i64* %25, align 8, !dbg !895
  br label %bb4, !dbg !894

bb4:                                              ; preds = %bb3, %bb2
  %26 = getelementptr inbounds { i64, i64 }, { i64, i64 }* %2, i32 0, i32 0, !dbg !896
  %27 = load i64, i64* %26, align 8, !dbg !896, !range !897, !noundef !26
  %28 = getelementptr inbounds { i64, i64 }, { i64, i64 }* %2, i32 0, i32 1, !dbg !896
  %29 = load i64, i64* %28, align 8, !dbg !896
  %30 = insertvalue { i64, i64 } undef, i64 %27, 0, !dbg !896
  %31 = insertvalue { i64, i64 } %30, i64 %29, 1, !dbg !896
  ret { i64, i64 } %31, !dbg !896
}

; core::ops::function::FnOnce::call_once
; Function Attrs: inlinehint nonlazybind uwtable
define internal void @_ZN4core3ops8function6FnOnce9call_once17hc3f16a46991bc285E(%"alloc::string::String"* sret(%"alloc::string::String") %0, [0 x i8]* align 1 %1, i64 %2) unnamed_addr #0 !dbg !898 {
start:
  %_1.dbg.spill = alloca {}, align 1
  %_2 = alloca { i8*, i64 }, align 8
  %3 = bitcast { i8*, i64 }* %_2 to { [0 x i8]*, i64 }*
  %4 = getelementptr inbounds { [0 x i8]*, i64 }, { [0 x i8]*, i64 }* %3, i32 0, i32 0
  store [0 x i8]* %1, [0 x i8]** %4, align 8
  %5 = getelementptr inbounds { [0 x i8]*, i64 }, { [0 x i8]*, i64 }* %3, i32 0, i32 1
  store i64 %2, i64* %5, align 8
  call void @llvm.dbg.declare(metadata {}* %_1.dbg.spill, metadata !906, metadata !DIExpression()), !dbg !914
  call void @llvm.dbg.declare(metadata { i8*, i64 }* %_2, metadata !907, metadata !DIExpression()), !dbg !914
  %6 = bitcast { i8*, i64 }* %_2 to { [0 x i8]*, i64 }*, !dbg !914
  %7 = getelementptr inbounds { [0 x i8]*, i64 }, { [0 x i8]*, i64 }* %6, i32 0, i32 0, !dbg !914
  %8 = load [0 x i8]*, [0 x i8]** %7, align 8, !dbg !914, !nonnull !26, !align !353, !noundef !26
  %9 = getelementptr inbounds { [0 x i8]*, i64 }, { [0 x i8]*, i64 }* %6, i32 0, i32 1, !dbg !914
  %10 = load i64, i64* %9, align 8, !dbg !914
; call alloc::str::<impl alloc::borrow::ToOwned for str>::to_owned
  call void @"_ZN5alloc3str56_$LT$impl$u20$alloc..borrow..ToOwned$u20$for$u20$str$GT$8to_owned17h0448ba9e8f2e7d08E"(%"alloc::string::String"* sret(%"alloc::string::String") %0, [0 x i8]* align 1 %8, i64 %10), !dbg !914
  br label %bb1, !dbg !914

bb1:                                              ; preds = %start
  ret void, !dbg !914
}

; core::ops::function::FnOnce::call_once
; Function Attrs: inlinehint nonlazybind uwtable
define internal { %"core::ffi::c_str::CStr"*, i64 } @_ZN4core3ops8function6FnOnce9call_once17hce1361e6c4a1da9eE([0 x i8]* align 1 %0, i64 %1) unnamed_addr #0 !dbg !915 {
start:
  %_1.dbg.spill = alloca {}, align 1
  %_2 = alloca { i8*, i64 }, align 8
  %2 = bitcast { i8*, i64 }* %_2 to { [0 x i8]*, i64 }*
  %3 = getelementptr inbounds { [0 x i8]*, i64 }, { [0 x i8]*, i64 }* %2, i32 0, i32 0
  store [0 x i8]* %0, [0 x i8]** %3, align 8
  %4 = getelementptr inbounds { [0 x i8]*, i64 }, { [0 x i8]*, i64 }* %2, i32 0, i32 1
  store i64 %1, i64* %4, align 8
  call void @llvm.dbg.declare(metadata {}* %_1.dbg.spill, metadata !919, metadata !DIExpression()), !dbg !924
  call void @llvm.dbg.declare(metadata { i8*, i64 }* %_2, metadata !920, metadata !DIExpression()), !dbg !924
  %5 = bitcast { i8*, i64 }* %_2 to { [0 x i8]*, i64 }*, !dbg !924
  %6 = getelementptr inbounds { [0 x i8]*, i64 }, { [0 x i8]*, i64 }* %5, i32 0, i32 0, !dbg !924
  %7 = load [0 x i8]*, [0 x i8]** %6, align 8, !dbg !924, !nonnull !26, !align !353, !noundef !26
  %8 = getelementptr inbounds { [0 x i8]*, i64 }, { [0 x i8]*, i64 }* %5, i32 0, i32 1, !dbg !924
  %9 = load i64, i64* %8, align 8, !dbg !924
; call core::ffi::c_str::CStr::from_bytes_with_nul_unchecked::rt_impl
  %10 = call { %"core::ffi::c_str::CStr"*, i64 } @_ZN4core3ffi5c_str4CStr29from_bytes_with_nul_unchecked7rt_impl17h7896654501f3620cE([0 x i8]* align 1 %7, i64 %9), !dbg !924
  %11 = extractvalue { %"core::ffi::c_str::CStr"*, i64 } %10, 0, !dbg !924
  %12 = extractvalue { %"core::ffi::c_str::CStr"*, i64 } %10, 1, !dbg !924
  br label %bb1, !dbg !924

bb1:                                              ; preds = %start
  %13 = insertvalue { %"core::ffi::c_str::CStr"*, i64 } undef, %"core::ffi::c_str::CStr"* %11, 0, !dbg !924
  %14 = insertvalue { %"core::ffi::c_str::CStr"*, i64 } %13, i64 %12, 1, !dbg !924
  ret { %"core::ffi::c_str::CStr"*, i64 } %14, !dbg !924
}

; core::ptr::drop_in_place<core::result::Result<alloc::ffi::c_str::CString,alloc::ffi::c_str::NulError>>
; Function Attrs: nonlazybind uwtable
define void @"_ZN4core3ptr105drop_in_place$LT$core..result..Result$LT$alloc..ffi..c_str..CString$C$alloc..ffi..c_str..NulError$GT$$GT$17h594fea4b75c17037E"(%"core::result::Result<alloc::ffi::c_str::CString, alloc::ffi::c_str::NulError>"* %_1) unnamed_addr #1 !dbg !925 {
start:
  %_1.dbg.spill = alloca %"core::result::Result<alloc::ffi::c_str::CString, alloc::ffi::c_str::NulError>"*, align 8
  store %"core::result::Result<alloc::ffi::c_str::CString, alloc::ffi::c_str::NulError>"* %_1, %"core::result::Result<alloc::ffi::c_str::CString, alloc::ffi::c_str::NulError>"** %_1.dbg.spill, align 8
  call void @llvm.dbg.declare(metadata %"core::result::Result<alloc::ffi::c_str::CString, alloc::ffi::c_str::NulError>"** %_1.dbg.spill, metadata !959, metadata !DIExpression()), !dbg !962
  %0 = bitcast %"core::result::Result<alloc::ffi::c_str::CString, alloc::ffi::c_str::NulError>"* %_1 to i64*, !dbg !962
  %_2 = load i64, i64* %0, align 8, !dbg !962, !range !897, !noundef !26
  %1 = icmp eq i64 %_2, 0, !dbg !962
  br i1 %1, label %bb2, label %bb3, !dbg !962

bb2:                                              ; preds = %start
  %2 = bitcast %"core::result::Result<alloc::ffi::c_str::CString, alloc::ffi::c_str::NulError>"* %_1 to %"core::result::Result<alloc::ffi::c_str::CString, alloc::ffi::c_str::NulError>::Ok"*, !dbg !962
  %3 = getelementptr inbounds %"core::result::Result<alloc::ffi::c_str::CString, alloc::ffi::c_str::NulError>::Ok", %"core::result::Result<alloc::ffi::c_str::CString, alloc::ffi::c_str::NulError>::Ok"* %2, i32 0, i32 1, !dbg !962
; call core::ptr::drop_in_place<alloc::ffi::c_str::CString>
  call void @"_ZN4core3ptr47drop_in_place$LT$alloc..ffi..c_str..CString$GT$17h60597de3fa84e837E"({ i8*, i64 }* %3), !dbg !962
  br label %bb1, !dbg !962

bb3:                                              ; preds = %start
  %4 = bitcast %"core::result::Result<alloc::ffi::c_str::CString, alloc::ffi::c_str::NulError>"* %_1 to %"core::result::Result<alloc::ffi::c_str::CString, alloc::ffi::c_str::NulError>::Err"*, !dbg !962
  %5 = getelementptr inbounds %"core::result::Result<alloc::ffi::c_str::CString, alloc::ffi::c_str::NulError>::Err", %"core::result::Result<alloc::ffi::c_str::CString, alloc::ffi::c_str::NulError>::Err"* %4, i32 0, i32 1, !dbg !962
; call core::ptr::drop_in_place<alloc::ffi::c_str::NulError>
  call void @"_ZN4core3ptr48drop_in_place$LT$alloc..ffi..c_str..NulError$GT$17h298172dc09689c5bE"(%"alloc::ffi::c_str::NulError"* %5), !dbg !962
  br label %bb1, !dbg !962

bb1:                                              ; preds = %bb2, %bb3
  ret void, !dbg !962
}

; core::ptr::drop_in_place<alloc::string::String>
; Function Attrs: nonlazybind uwtable
define void @"_ZN4core3ptr42drop_in_place$LT$alloc..string..String$GT$17h323a221d64398080E"(%"alloc::string::String"* %_1) unnamed_addr #1 !dbg !963 {
start:
  %_1.dbg.spill = alloca %"alloc::string::String"*, align 8
  store %"alloc::string::String"* %_1, %"alloc::string::String"** %_1.dbg.spill, align 8
  call void @llvm.dbg.declare(metadata %"alloc::string::String"** %_1.dbg.spill, metadata !968, metadata !DIExpression()), !dbg !969
  %0 = bitcast %"alloc::string::String"* %_1 to %"alloc::vec::Vec<u8>"*, !dbg !969
; call core::ptr::drop_in_place<alloc::vec::Vec<u8>>
  call void @"_ZN4core3ptr46drop_in_place$LT$alloc..vec..Vec$LT$u8$GT$$GT$17h4ddc41bb3ac5cf34E"(%"alloc::vec::Vec<u8>"* %0), !dbg !969
  br label %bb1, !dbg !969

bb1:                                              ; preds = %start
  ret void, !dbg !969
}

; core::ptr::drop_in_place<alloc::vec::Vec<u8>>
; Function Attrs: nonlazybind uwtable
define void @"_ZN4core3ptr46drop_in_place$LT$alloc..vec..Vec$LT$u8$GT$$GT$17h4ddc41bb3ac5cf34E"(%"alloc::vec::Vec<u8>"* %_1) unnamed_addr #1 personality i32 (i32, i32, i64, %"unwind::libunwind::_Unwind_Exception"*, %"unwind::libunwind::_Unwind_Context"*)* @rust_eh_personality !dbg !970 {
start:
  %0 = alloca { i8*, i32 }, align 8
  %_1.dbg.spill = alloca %"alloc::vec::Vec<u8>"*, align 8
  store %"alloc::vec::Vec<u8>"* %_1, %"alloc::vec::Vec<u8>"** %_1.dbg.spill, align 8
  call void @llvm.dbg.declare(metadata %"alloc::vec::Vec<u8>"** %_1.dbg.spill, metadata !975, metadata !DIExpression()), !dbg !978
; invoke <alloc::vec::Vec<T,A> as core::ops::drop::Drop>::drop
  invoke void @"_ZN70_$LT$alloc..vec..Vec$LT$T$C$A$GT$$u20$as$u20$core..ops..drop..Drop$GT$4drop17ha99a412e3048bf79E"(%"alloc::vec::Vec<u8>"* align 8 %_1)
          to label %bb4 unwind label %cleanup, !dbg !978

bb3:                                              ; preds = %cleanup
  %1 = bitcast %"alloc::vec::Vec<u8>"* %_1 to { i8*, i64 }*, !dbg !978
; invoke core::ptr::drop_in_place<alloc::raw_vec::RawVec<u8>>
  invoke void @"_ZN4core3ptr53drop_in_place$LT$alloc..raw_vec..RawVec$LT$u8$GT$$GT$17h56d5e522baa95bd5E"({ i8*, i64 }* %1) #13
          to label %bb1 unwind label %abort, !dbg !978

cleanup:                                          ; preds = %start
  %2 = landingpad { i8*, i32 }
          cleanup
  %3 = extractvalue { i8*, i32 } %2, 0
  %4 = extractvalue { i8*, i32 } %2, 1
  %5 = getelementptr inbounds { i8*, i32 }, { i8*, i32 }* %0, i32 0, i32 0
  store i8* %3, i8** %5, align 8
  %6 = getelementptr inbounds { i8*, i32 }, { i8*, i32 }* %0, i32 0, i32 1
  store i32 %4, i32* %6, align 8
  br label %bb3

bb4:                                              ; preds = %start
  %7 = bitcast %"alloc::vec::Vec<u8>"* %_1 to { i8*, i64 }*, !dbg !978
; call core::ptr::drop_in_place<alloc::raw_vec::RawVec<u8>>
  call void @"_ZN4core3ptr53drop_in_place$LT$alloc..raw_vec..RawVec$LT$u8$GT$$GT$17h56d5e522baa95bd5E"({ i8*, i64 }* %7), !dbg !978
  br label %bb2, !dbg !978

abort:                                            ; preds = %bb3
  %8 = landingpad { i8*, i32 }
          cleanup, !dbg !978
; call core::panicking::panic_no_unwind
  call void @_ZN4core9panicking15panic_no_unwind17h62f8113f44cbfcbfE() #14, !dbg !978
  unreachable, !dbg !978

bb1:                                              ; preds = %bb3
  %9 = bitcast { i8*, i32 }* %0 to i8**, !dbg !978
  %10 = load i8*, i8** %9, align 8, !dbg !978
  %11 = getelementptr inbounds { i8*, i32 }, { i8*, i32 }* %0, i32 0, i32 1, !dbg !978
  %12 = load i32, i32* %11, align 8, !dbg !978
  %13 = insertvalue { i8*, i32 } undef, i8* %10, 0, !dbg !978
  %14 = insertvalue { i8*, i32 } %13, i32 %12, 1, !dbg !978
  resume { i8*, i32 } %14, !dbg !978

bb2:                                              ; preds = %bb4
  ret void, !dbg !978
}

; core::ptr::drop_in_place<alloc::ffi::c_str::CString>
; Function Attrs: nonlazybind uwtable
define void @"_ZN4core3ptr47drop_in_place$LT$alloc..ffi..c_str..CString$GT$17h60597de3fa84e837E"({ i8*, i64 }* %_1) unnamed_addr #1 personality i32 (i32, i32, i64, %"unwind::libunwind::_Unwind_Exception"*, %"unwind::libunwind::_Unwind_Context"*)* @rust_eh_personality !dbg !979 {
start:
  %0 = alloca { i8*, i32 }, align 8
  %_1.dbg.spill = alloca { i8*, i64 }*, align 8
  store { i8*, i64 }* %_1, { i8*, i64 }** %_1.dbg.spill, align 8
  call void @llvm.dbg.declare(metadata { i8*, i64 }** %_1.dbg.spill, metadata !984, metadata !DIExpression()), !dbg !986
; invoke <alloc::ffi::c_str::CString as core::ops::drop::Drop>::drop
  invoke void @"_ZN68_$LT$alloc..ffi..c_str..CString$u20$as$u20$core..ops..drop..Drop$GT$4drop17hfe011c84af25418aE"({ i8*, i64 }* align 8 %_1)
          to label %bb4 unwind label %cleanup, !dbg !986

bb3:                                              ; preds = %cleanup
  %1 = bitcast { i8*, i64 }* %_1 to { [0 x i8]*, i64 }*, !dbg !986
; invoke core::ptr::drop_in_place<alloc::boxed::Box<[u8]>>
  invoke void @"_ZN4core3ptr58drop_in_place$LT$alloc..boxed..Box$LT$$u5b$u8$u5d$$GT$$GT$17h0ae3e14fd2f4545aE"({ [0 x i8]*, i64 }* %1) #13
          to label %bb1 unwind label %abort, !dbg !986

cleanup:                                          ; preds = %start
  %2 = landingpad { i8*, i32 }
          cleanup
  %3 = extractvalue { i8*, i32 } %2, 0
  %4 = extractvalue { i8*, i32 } %2, 1
  %5 = getelementptr inbounds { i8*, i32 }, { i8*, i32 }* %0, i32 0, i32 0
  store i8* %3, i8** %5, align 8
  %6 = getelementptr inbounds { i8*, i32 }, { i8*, i32 }* %0, i32 0, i32 1
  store i32 %4, i32* %6, align 8
  br label %bb3

bb4:                                              ; preds = %start
  %7 = bitcast { i8*, i64 }* %_1 to { [0 x i8]*, i64 }*, !dbg !986
; call core::ptr::drop_in_place<alloc::boxed::Box<[u8]>>
  call void @"_ZN4core3ptr58drop_in_place$LT$alloc..boxed..Box$LT$$u5b$u8$u5d$$GT$$GT$17h0ae3e14fd2f4545aE"({ [0 x i8]*, i64 }* %7), !dbg !986
  br label %bb2, !dbg !986

abort:                                            ; preds = %bb3
  %8 = landingpad { i8*, i32 }
          cleanup, !dbg !986
; call core::panicking::panic_no_unwind
  call void @_ZN4core9panicking15panic_no_unwind17h62f8113f44cbfcbfE() #14, !dbg !986
  unreachable, !dbg !986

bb1:                                              ; preds = %bb3
  %9 = bitcast { i8*, i32 }* %0 to i8**, !dbg !986
  %10 = load i8*, i8** %9, align 8, !dbg !986
  %11 = getelementptr inbounds { i8*, i32 }, { i8*, i32 }* %0, i32 0, i32 1, !dbg !986
  %12 = load i32, i32* %11, align 8, !dbg !986
  %13 = insertvalue { i8*, i32 } undef, i8* %10, 0, !dbg !986
  %14 = insertvalue { i8*, i32 } %13, i32 %12, 1, !dbg !986
  resume { i8*, i32 } %14, !dbg !986

bb2:                                              ; preds = %bb4
  ret void, !dbg !986
}

; core::ptr::drop_in_place<alloc::ffi::c_str::NulError>
; Function Attrs: nonlazybind uwtable
define void @"_ZN4core3ptr48drop_in_place$LT$alloc..ffi..c_str..NulError$GT$17h298172dc09689c5bE"(%"alloc::ffi::c_str::NulError"* %_1) unnamed_addr #1 !dbg !987 {
start:
  %_1.dbg.spill = alloca %"alloc::ffi::c_str::NulError"*, align 8
  store %"alloc::ffi::c_str::NulError"* %_1, %"alloc::ffi::c_str::NulError"** %_1.dbg.spill, align 8
  call void @llvm.dbg.declare(metadata %"alloc::ffi::c_str::NulError"** %_1.dbg.spill, metadata !992, metadata !DIExpression()), !dbg !995
  %0 = getelementptr inbounds %"alloc::ffi::c_str::NulError", %"alloc::ffi::c_str::NulError"* %_1, i32 0, i32 1, !dbg !995
; call core::ptr::drop_in_place<alloc::vec::Vec<u8>>
  call void @"_ZN4core3ptr46drop_in_place$LT$alloc..vec..Vec$LT$u8$GT$$GT$17h4ddc41bb3ac5cf34E"(%"alloc::vec::Vec<u8>"* %0), !dbg !995
  br label %bb1, !dbg !995

bb1:                                              ; preds = %start
  ret void, !dbg !995
}

; core::ptr::drop_in_place<core::str::error::Utf8Error>
; Function Attrs: inlinehint nonlazybind uwtable
define internal void @"_ZN4core3ptr48drop_in_place$LT$core..str..error..Utf8Error$GT$17h729935f6d7a41ec4E"(%"core::str::error::Utf8Error"* %_1) unnamed_addr #0 !dbg !996 {
start:
  %_1.dbg.spill = alloca %"core::str::error::Utf8Error"*, align 8
  store %"core::str::error::Utf8Error"* %_1, %"core::str::error::Utf8Error"** %_1.dbg.spill, align 8
  call void @llvm.dbg.declare(metadata %"core::str::error::Utf8Error"** %_1.dbg.spill, metadata !1001, metadata !DIExpression()), !dbg !1004
  ret void, !dbg !1004
}

; core::ptr::drop_in_place<alloc::raw_vec::RawVec<u8>>
; Function Attrs: nonlazybind uwtable
define void @"_ZN4core3ptr53drop_in_place$LT$alloc..raw_vec..RawVec$LT$u8$GT$$GT$17h56d5e522baa95bd5E"({ i8*, i64 }* %_1) unnamed_addr #1 !dbg !1005 {
start:
  %_1.dbg.spill = alloca { i8*, i64 }*, align 8
  store { i8*, i64 }* %_1, { i8*, i64 }** %_1.dbg.spill, align 8
  call void @llvm.dbg.declare(metadata { i8*, i64 }** %_1.dbg.spill, metadata !1010, metadata !DIExpression()), !dbg !1013
; call <alloc::raw_vec::RawVec<T,A> as core::ops::drop::Drop>::drop
  call void @"_ZN77_$LT$alloc..raw_vec..RawVec$LT$T$C$A$GT$$u20$as$u20$core..ops..drop..Drop$GT$4drop17h38c49a3d7a5525cfE"({ i8*, i64 }* align 8 %_1), !dbg !1013
  br label %bb1, !dbg !1013

bb1:                                              ; preds = %start
  ret void, !dbg !1013
}

; core::ptr::drop_in_place<alloc::boxed::Box<[u8]>>
; Function Attrs: nonlazybind uwtable
define void @"_ZN4core3ptr58drop_in_place$LT$alloc..boxed..Box$LT$$u5b$u8$u5d$$GT$$GT$17h0ae3e14fd2f4545aE"({ [0 x i8]*, i64 }* %_1) unnamed_addr #1 personality i32 (i32, i32, i64, %"unwind::libunwind::_Unwind_Exception"*, %"unwind::libunwind::_Unwind_Context"*)* @rust_eh_personality !dbg !1014 {
start:
  %0 = alloca { i8*, i32 }, align 8
  %_1.dbg.spill = alloca { [0 x i8]*, i64 }*, align 8
  store { [0 x i8]*, i64 }* %_1, { [0 x i8]*, i64 }** %_1.dbg.spill, align 8
  call void @llvm.dbg.declare(metadata { [0 x i8]*, i64 }** %_1.dbg.spill, metadata !1019, metadata !DIExpression()), !dbg !1022
  br label %bb3, !dbg !1022

bb3:                                              ; preds = %start
  %1 = bitcast { [0 x i8]*, i64 }* %_1 to { i8*, i64 }*, !dbg !1022
  %2 = getelementptr inbounds { i8*, i64 }, { i8*, i64 }* %1, i32 0, i32 0, !dbg !1022
  %3 = load i8*, i8** %2, align 8, !dbg !1022, !nonnull !26, !noundef !26
  %4 = getelementptr inbounds { i8*, i64 }, { i8*, i64 }* %1, i32 0, i32 1, !dbg !1022
  %5 = load i64, i64* %4, align 8, !dbg !1022
; call alloc::alloc::box_free
  call void @_ZN5alloc5alloc8box_free17ha9bd49e80e121074E(i8* %3, i64 %5), !dbg !1022
  br label %bb1, !dbg !1022

bb4:                                              ; No predecessors!
  %6 = bitcast { [0 x i8]*, i64 }* %_1 to { i8*, i64 }*, !dbg !1022
  %7 = getelementptr inbounds { i8*, i64 }, { i8*, i64 }* %6, i32 0, i32 0, !dbg !1022
  %8 = load i8*, i8** %7, align 8, !dbg !1022, !nonnull !26, !noundef !26
  %9 = getelementptr inbounds { i8*, i64 }, { i8*, i64 }* %6, i32 0, i32 1, !dbg !1022
  %10 = load i64, i64* %9, align 8, !dbg !1022
; invoke alloc::alloc::box_free
  invoke void @_ZN5alloc5alloc8box_free17ha9bd49e80e121074E(i8* %8, i64 %10) #13
          to label %bb2 unwind label %abort, !dbg !1022

abort:                                            ; preds = %bb4
  %11 = landingpad { i8*, i32 }
          cleanup, !dbg !1022
; call core::panicking::panic_no_unwind
  call void @_ZN4core9panicking15panic_no_unwind17h62f8113f44cbfcbfE() #14, !dbg !1022
  unreachable, !dbg !1022

bb2:                                              ; preds = %bb4
  %12 = bitcast { i8*, i32 }* %0 to i8**, !dbg !1022
  %13 = load i8*, i8** %12, align 8, !dbg !1022
  %14 = getelementptr inbounds { i8*, i32 }, { i8*, i32 }* %0, i32 0, i32 1, !dbg !1022
  %15 = load i32, i32* %14, align 8, !dbg !1022
  %16 = insertvalue { i8*, i32 } undef, i8* %13, 0, !dbg !1022
  %17 = insertvalue { i8*, i32 } %16, i32 %15, 1, !dbg !1022
  resume { i8*, i32 } %17, !dbg !1022

bb1:                                              ; preds = %bb3
  ret void, !dbg !1022
}

; core::ptr::non_null::NonNull<T>::new
; Function Attrs: inlinehint nonlazybind uwtable
define i8* @"_ZN4core3ptr8non_null16NonNull$LT$T$GT$3new17hc739bec02c7381b9E"(i8* %ptr) unnamed_addr #0 !dbg !1023 {
start:
  %ptr.dbg.spill2 = alloca i8*, align 8
  %0 = alloca i8, align 1
  %other.dbg.spill = alloca i8*, align 8
  %data_address.dbg.spill = alloca {}*, align 8
  %1 = alloca {}*, align 8
  %self.dbg.spill1 = alloca i8*, align 8
  %self.dbg.spill = alloca i8*, align 8
  %metadata.dbg.spill = alloca {}, align 1
  %ptr.dbg.spill = alloca i8*, align 8
  %_15 = alloca %"core::ptr::metadata::PtrComponents<u8>", align 8
  %_14 = alloca %"core::ptr::metadata::PtrRepr<u8>", align 8
  %_5 = alloca i8*, align 8
  %2 = alloca i8*, align 8
  store i8* %ptr, i8** %ptr.dbg.spill, align 8
  call void @llvm.dbg.declare(metadata i8** %ptr.dbg.spill, metadata !1040, metadata !DIExpression()), !dbg !1041
  call void @llvm.dbg.declare(metadata {}* %metadata.dbg.spill, metadata !1042, metadata !DIExpression()), !dbg !1052
  store i8* %ptr, i8** %self.dbg.spill, align 8, !dbg !1067
  call void @llvm.dbg.declare(metadata i8** %self.dbg.spill, metadata !1065, metadata !DIExpression()), !dbg !1068
  store i8* %ptr, i8** %self.dbg.spill1, align 8, !dbg !1068
  call void @llvm.dbg.declare(metadata i8** %self.dbg.spill1, metadata !1069, metadata !DIExpression()), !dbg !1076
  %3 = bitcast {}** %1 to i64*, !dbg !1078
  store i64 0, i64* %3, align 8, !dbg !1078
  %data_address = load {}*, {}** %1, align 8, !dbg !1078
  store {}* %data_address, {}** %data_address.dbg.spill, align 8, !dbg !1078
  call void @llvm.dbg.declare(metadata {}** %data_address.dbg.spill, metadata !1051, metadata !DIExpression()), !dbg !1052
  br label %bb4, !dbg !1078

bb4:                                              ; preds = %start
  %4 = bitcast %"core::ptr::metadata::PtrComponents<u8>"* %_15 to {}**, !dbg !1052
  store {}* %data_address, {}** %4, align 8, !dbg !1052
  %5 = bitcast %"core::ptr::metadata::PtrRepr<u8>"* %_14 to %"core::ptr::metadata::PtrComponents<u8>"*, !dbg !1052
  %6 = bitcast %"core::ptr::metadata::PtrComponents<u8>"* %5 to i8*, !dbg !1052
  %7 = bitcast %"core::ptr::metadata::PtrComponents<u8>"* %_15 to i8*, !dbg !1052
  call void @llvm.memcpy.p0i8.p0i8.i64(i8* align 8 %6, i8* align 8 %7, i64 8, i1 false), !dbg !1052
  %8 = bitcast %"core::ptr::metadata::PtrRepr<u8>"* %_14 to i8**, !dbg !1052
  %other = load i8*, i8** %8, align 8, !dbg !1052
  store i8* %other, i8** %other.dbg.spill, align 8, !dbg !1052
  call void @llvm.dbg.declare(metadata i8** %other.dbg.spill, metadata !1075, metadata !DIExpression()), !dbg !1076
  %9 = icmp eq i8* %ptr, %other, !dbg !1076
  %10 = zext i1 %9 to i8, !dbg !1076
  store i8 %10, i8* %0, align 1, !dbg !1076
  %11 = load i8, i8* %0, align 1, !dbg !1076, !range !685, !noundef !26
  %_3 = trunc i8 %11 to i1, !dbg !1076
  br label %bb5, !dbg !1076

bb5:                                              ; preds = %bb4
  %_2 = xor i1 %_3, true, !dbg !1087
  br i1 %_2, label %bb1, label %bb2, !dbg !1087

bb2:                                              ; preds = %bb5
  %12 = bitcast i8** %2 to {}**, !dbg !1088
  store {}* null, {}** %12, align 8, !dbg !1088
  br label %bb3, !dbg !1089

bb1:                                              ; preds = %bb5
  store i8* %ptr, i8** %ptr.dbg.spill2, align 8, !dbg !1090
  call void @llvm.dbg.declare(metadata i8** %ptr.dbg.spill2, metadata !1091, metadata !DIExpression()), !dbg !1094
  store i8* %ptr, i8** %_5, align 8, !dbg !1094
  %13 = load i8*, i8** %_5, align 8, !dbg !1096, !nonnull !26, !noundef !26
  store i8* %13, i8** %2, align 8, !dbg !1096
  br label %bb3, !dbg !1089

bb3:                                              ; preds = %bb2, %bb1
  %14 = load i8*, i8** %2, align 8, !dbg !1097
  ret i8* %14, !dbg !1097
}

; core::iter::range::<impl core::iter::traits::iterator::Iterator for core::ops::range::Range<A>>::next
; Function Attrs: inlinehint nonlazybind uwtable
define { i64, i64 } @"_ZN4core4iter5range101_$LT$impl$u20$core..iter..traits..iterator..Iterator$u20$for$u20$core..ops..range..Range$LT$A$GT$$GT$4next17h4b80e619f85ebbd6E"({ i64, i64 }* align 8 %self) unnamed_addr #0 !dbg !1098 {
start:
  %self.dbg.spill = alloca { i64, i64 }*, align 8
  store { i64, i64 }* %self, { i64, i64 }** %self.dbg.spill, align 8
  call void @llvm.dbg.declare(metadata { i64, i64 }** %self.dbg.spill, metadata !1121, metadata !DIExpression()), !dbg !1124
; call <core::ops::range::Range<T> as core::iter::range::RangeIteratorImpl>::spec_next
  %0 = call { i64, i64 } @"_ZN89_$LT$core..ops..range..Range$LT$T$GT$$u20$as$u20$core..iter..range..RangeIteratorImpl$GT$9spec_next17he230a9875d2c47c9E"({ i64, i64 }* align 8 %self), !dbg !1125
  %1 = extractvalue { i64, i64 } %0, 0, !dbg !1125
  %2 = extractvalue { i64, i64 } %0, 1, !dbg !1125
  br label %bb1, !dbg !1125

bb1:                                              ; preds = %start
  %3 = insertvalue { i64, i64 } undef, i64 %1, 0, !dbg !1126
  %4 = insertvalue { i64, i64 } %3, i64 %2, 1, !dbg !1126
  ret { i64, i64 } %4, !dbg !1126
}

; core::iter::range::<impl core::iter::traits::iterator::Iterator for core::ops::range::Range<A>>::next
; Function Attrs: inlinehint nonlazybind uwtable
define { i32, i32 } @"_ZN4core4iter5range101_$LT$impl$u20$core..iter..traits..iterator..Iterator$u20$for$u20$core..ops..range..Range$LT$A$GT$$GT$4next17hb567e932e5e843d6E"({ i32, i32 }* align 4 %self) unnamed_addr #0 !dbg !1127 {
start:
  %self.dbg.spill = alloca { i32, i32 }*, align 8
  store { i32, i32 }* %self, { i32, i32 }** %self.dbg.spill, align 8
  call void @llvm.dbg.declare(metadata { i32, i32 }** %self.dbg.spill, metadata !1149, metadata !DIExpression()), !dbg !1152
; call <core::ops::range::Range<T> as core::iter::range::RangeIteratorImpl>::spec_next
  %0 = call { i32, i32 } @"_ZN89_$LT$core..ops..range..Range$LT$T$GT$$u20$as$u20$core..iter..range..RangeIteratorImpl$GT$9spec_next17h8803c82250012bf8E"({ i32, i32 }* align 4 %self), !dbg !1153
  %1 = extractvalue { i32, i32 } %0, 0, !dbg !1153
  %2 = extractvalue { i32, i32 } %0, 1, !dbg !1153
  br label %bb1, !dbg !1153

bb1:                                              ; preds = %start
  %3 = insertvalue { i32, i32 } undef, i32 %1, 0, !dbg !1154
  %4 = insertvalue { i32, i32 } %3, i32 %2, 1, !dbg !1154
  ret { i32, i32 } %4, !dbg !1154
}

; core::alloc::layout::Layout::from_size_valid_align
; Function Attrs: inlinehint nonlazybind uwtable
define internal { i64, i64 } @_ZN4core5alloc6layout6Layout21from_size_valid_align17h8781a35eec593f16E(i64 %size, i64 %align) unnamed_addr #0 !dbg !1155 {
start:
  %n.dbg.spill = alloca i64, align 8
  %align.dbg.spill = alloca i64, align 8
  %size.dbg.spill = alloca i64, align 8
  %_11 = alloca { i64, i64 }, align 8
  %self1 = alloca i64, align 8
  %self = alloca i64, align 8
  %0 = alloca { i64, i64 }, align 8
  store i64 %size, i64* %size.dbg.spill, align 8
  call void @llvm.dbg.declare(metadata i64* %size.dbg.spill, metadata !1186, metadata !DIExpression()), !dbg !1188
  store i64 %align, i64* %align.dbg.spill, align 8
  call void @llvm.dbg.declare(metadata i64* %align.dbg.spill, metadata !1187, metadata !DIExpression()), !dbg !1189
  call void @llvm.dbg.declare(metadata i64* %self, metadata !1190, metadata !DIExpression()), !dbg !1201
  call void @llvm.dbg.declare(metadata i64* %self1, metadata !1203, metadata !DIExpression()), !dbg !1210
  store i64 %align, i64* %self1, align 8, !dbg !1202
  %_15 = load i64, i64* %self1, align 8, !dbg !1210, !range !1211, !noundef !26
  store i64 %_15, i64* %n.dbg.spill, align 8, !dbg !1210
  call void @llvm.dbg.declare(metadata i64* %n.dbg.spill, metadata !1212, metadata !DIExpression()), !dbg !1226
  store i64 %_15, i64* %self, align 8, !dbg !1226
  %_8 = load i64, i64* %self, align 8, !dbg !1201
  %_7 = sub i64 %_8, 1, !dbg !1228
  %_5 = sub i64 9223372036854775807, %_7, !dbg !1229
  %_3 = icmp ugt i64 %size, %_5, !dbg !1230
  br i1 %_3, label %bb1, label %bb2, !dbg !1230

bb2:                                              ; preds = %start
  %1 = bitcast { i64, i64 }* %_11 to i64*, !dbg !1231
  store i64 %size, i64* %1, align 8, !dbg !1231
  %2 = getelementptr inbounds { i64, i64 }, { i64, i64 }* %_11, i32 0, i32 1, !dbg !1231
  store i64 %align, i64* %2, align 8, !dbg !1231
  %3 = getelementptr inbounds { i64, i64 }, { i64, i64 }* %_11, i32 0, i32 0, !dbg !1232
  %4 = load i64, i64* %3, align 8, !dbg !1232
  %5 = getelementptr inbounds { i64, i64 }, { i64, i64 }* %_11, i32 0, i32 1, !dbg !1232
  %6 = load i64, i64* %5, align 8, !dbg !1232, !range !1211, !noundef !26
  %7 = getelementptr inbounds { i64, i64 }, { i64, i64 }* %0, i32 0, i32 0, !dbg !1232
  store i64 %4, i64* %7, align 8, !dbg !1232
  %8 = getelementptr inbounds { i64, i64 }, { i64, i64 }* %0, i32 0, i32 1, !dbg !1232
  store i64 %6, i64* %8, align 8, !dbg !1232
  br label %bb3, !dbg !1233

bb1:                                              ; preds = %start
  %9 = getelementptr inbounds { i64, i64 }, { i64, i64 }* %0, i32 0, i32 1, !dbg !1234
  store i64 0, i64* %9, align 8, !dbg !1234
  br label %bb3, !dbg !1233

bb3:                                              ; preds = %bb2, %bb1
  %10 = getelementptr inbounds { i64, i64 }, { i64, i64 }* %0, i32 0, i32 0, !dbg !1233
  %11 = load i64, i64* %10, align 8, !dbg !1233
  %12 = getelementptr inbounds { i64, i64 }, { i64, i64 }* %0, i32 0, i32 1, !dbg !1233
  %13 = load i64, i64* %12, align 8, !dbg !1233, !range !1235, !noundef !26
  %14 = insertvalue { i64, i64 } undef, i64 %11, 0, !dbg !1233
  %15 = insertvalue { i64, i64 } %14, i64 %13, 1, !dbg !1233
  ret { i64, i64 } %15, !dbg !1233
}

; core::alloc::layout::Layout::array
; Function Attrs: inlinehint nonlazybind uwtable
define { i64, i64 } @_ZN4core5alloc6layout6Layout5array17hd3d68a432436475dE(i64 %n) unnamed_addr #0 !dbg !1236 {
start:
  %0 = alloca i64, align 8
  %align.dbg.spill = alloca i64, align 8
  %array_size.dbg.spill = alloca i64, align 8
  %val.dbg.spill = alloca i64, align 8
  %v.dbg.spill5 = alloca i64, align 8
  %v.dbg.spill = alloca i64, align 8
  %e.dbg.spill3 = alloca %"core::alloc::layout::LayoutError", align 1
  %e.dbg.spill = alloca %"core::alloc::layout::LayoutError", align 1
  %residual.dbg.spill2 = alloca %"core::result::Result<core::convert::Infallible, core::alloc::layout::LayoutError>::Err", align 1
  %residual.dbg.spill = alloca %"core::result::Result<core::convert::Infallible, core::alloc::layout::LayoutError>::Err", align 1
  %err.dbg.spill = alloca %"core::alloc::layout::LayoutError", align 1
  %n.dbg.spill = alloca i64, align 8
  %self1 = alloca { i64, i64 }, align 8
  %self = alloca { i64, i64 }, align 8
  %_3 = alloca { i64, i64 }, align 8
  %1 = alloca { i64, i64 }, align 8
  store i64 %n, i64* %n.dbg.spill, align 8
  call void @llvm.dbg.declare(metadata i64* %n.dbg.spill, metadata !1240, metadata !DIExpression()), !dbg !1265
  call void @llvm.dbg.declare(metadata { i64, i64 }* %self, metadata !1266, metadata !DIExpression()), !dbg !1311
  call void @llvm.dbg.declare(metadata { i64, i64 }* %self1, metadata !1313, metadata !DIExpression()), !dbg !1324
  call void @llvm.dbg.declare(metadata %"core::alloc::layout::LayoutError"* %err.dbg.spill, metadata !1320, metadata !DIExpression()), !dbg !1324
  call void @llvm.dbg.declare(metadata %"core::result::Result<core::convert::Infallible, core::alloc::layout::LayoutError>::Err"* %residual.dbg.spill, metadata !1243, metadata !DIExpression()), !dbg !1325
  call void @llvm.dbg.declare(metadata %"core::result::Result<core::convert::Infallible, core::alloc::layout::LayoutError>::Err"* %residual.dbg.spill2, metadata !1326, metadata !DIExpression()), !dbg !1338
  call void @llvm.dbg.declare(metadata %"core::alloc::layout::LayoutError"* %e.dbg.spill, metadata !1308, metadata !DIExpression()), !dbg !1340
  call void @llvm.dbg.declare(metadata %"core::alloc::layout::LayoutError"* %e.dbg.spill3, metadata !1333, metadata !DIExpression()), !dbg !1341
; call core::num::<impl usize>::checked_mul
  %2 = call { i64, i64 } @"_ZN4core3num23_$LT$impl$u20$usize$GT$11checked_mul17h5440c3808e5cbaa6E"(i64 1, i64 %n), !dbg !1312
  store { i64, i64 } %2, { i64, i64 }* %self1, align 8, !dbg !1312
  br label %bb1, !dbg !1312

bb1:                                              ; preds = %start
  %3 = bitcast { i64, i64 }* %self1 to i64*, !dbg !1324
  %_15 = load i64, i64* %3, align 8, !dbg !1324, !range !897, !noundef !26
  switch i64 %_15, label %bb9 [
    i64 0, label %bb8
    i64 1, label %bb10
  ], !dbg !1324

bb9:                                              ; preds = %bb1
  unreachable, !dbg !1324

bb8:                                              ; preds = %bb1
  %4 = bitcast { i64, i64 }* %self to i64*, !dbg !1324
  store i64 1, i64* %4, align 8, !dbg !1324
  br label %bb11, !dbg !1324

bb10:                                             ; preds = %bb1
  %5 = getelementptr inbounds { i64, i64 }, { i64, i64 }* %self1, i32 0, i32 1, !dbg !1324
  %v = load i64, i64* %5, align 8, !dbg !1324
  store i64 %v, i64* %v.dbg.spill, align 8, !dbg !1324
  call void @llvm.dbg.declare(metadata i64* %v.dbg.spill, metadata !1321, metadata !DIExpression()), !dbg !1342
  %6 = getelementptr inbounds { i64, i64 }, { i64, i64 }* %self, i32 0, i32 1, !dbg !1342
  store i64 %v, i64* %6, align 8, !dbg !1342
  %7 = bitcast { i64, i64 }* %self to i64*, !dbg !1342
  store i64 0, i64* %7, align 8, !dbg !1342
  br label %bb11, !dbg !1324

bb11:                                             ; preds = %bb8, %bb10
  %8 = bitcast { i64, i64 }* %self to i64*, !dbg !1311
  %_18 = load i64, i64* %8, align 8, !dbg !1311, !range !897, !noundef !26
  switch i64 %_18, label %bb13 [
    i64 0, label %bb14
    i64 1, label %bb12
  ], !dbg !1311

bb13:                                             ; preds = %bb11
  unreachable, !dbg !1311

bb14:                                             ; preds = %bb11
  %9 = getelementptr inbounds { i64, i64 }, { i64, i64 }* %self, i32 0, i32 1, !dbg !1311
  %v4 = load i64, i64* %9, align 8, !dbg !1311
  store i64 %v4, i64* %v.dbg.spill5, align 8, !dbg !1311
  call void @llvm.dbg.declare(metadata i64* %v.dbg.spill5, metadata !1305, metadata !DIExpression()), !dbg !1343
  %10 = getelementptr inbounds { i64, i64 }, { i64, i64 }* %_3, i32 0, i32 1, !dbg !1343
  store i64 %v4, i64* %10, align 8, !dbg !1343
  %11 = bitcast { i64, i64 }* %_3 to i64*, !dbg !1343
  store i64 0, i64* %11, align 8, !dbg !1343
  br label %bb2, !dbg !1311

bb12:                                             ; preds = %bb11
  %12 = bitcast { i64, i64 }* %_3 to i64*, !dbg !1340
  store i64 1, i64* %12, align 8, !dbg !1340
  br label %bb2, !dbg !1311

bb2:                                              ; preds = %bb14, %bb12
  %13 = bitcast { i64, i64 }* %_3 to i64*, !dbg !1312
  %_9 = load i64, i64* %13, align 8, !dbg !1312, !range !897, !noundef !26
  switch i64 %_9, label %bb4 [
    i64 0, label %bb3
    i64 1, label %bb5
  ], !dbg !1312

bb4:                                              ; preds = %bb2
  unreachable, !dbg !1312

bb3:                                              ; preds = %bb2
  %14 = getelementptr inbounds { i64, i64 }, { i64, i64 }* %_3, i32 0, i32 1, !dbg !1312
  %val = load i64, i64* %14, align 8, !dbg !1312
  store i64 %val, i64* %val.dbg.spill, align 8, !dbg !1312
  call void @llvm.dbg.declare(metadata i64* %val.dbg.spill, metadata !1263, metadata !DIExpression()), !dbg !1344
  store i64 %val, i64* %array_size.dbg.spill, align 8, !dbg !1344
  call void @llvm.dbg.declare(metadata i64* %array_size.dbg.spill, metadata !1241, metadata !DIExpression()), !dbg !1345
  store i64 1, i64* %align.dbg.spill, align 8, !dbg !1346
  call void @llvm.dbg.declare(metadata i64* %align.dbg.spill, metadata !1356, metadata !DIExpression()), !dbg !1370
  store i64 1, i64* %0, align 8, !dbg !1370
  %_14 = load i64, i64* %0, align 8, !dbg !1370, !range !1211, !noundef !26
  br label %bb15, !dbg !1370

bb5:                                              ; preds = %bb2
; call <T as core::convert::From<T>>::from
  call void @"_ZN50_$LT$T$u20$as$u20$core..convert..From$LT$T$GT$$GT$4from17h2bed783e04bb68bcE"(), !dbg !1341
  br label %bb16, !dbg !1341

bb16:                                             ; preds = %bb5
  %15 = getelementptr inbounds { i64, i64 }, { i64, i64 }* %1, i32 0, i32 1, !dbg !1341
  store i64 0, i64* %15, align 8, !dbg !1341
  br label %bb7, !dbg !1372

bb7:                                              ; preds = %bb6, %bb16
  %16 = getelementptr inbounds { i64, i64 }, { i64, i64 }* %1, i32 0, i32 0, !dbg !1372
  %17 = load i64, i64* %16, align 8, !dbg !1372
  %18 = getelementptr inbounds { i64, i64 }, { i64, i64 }* %1, i32 0, i32 1, !dbg !1372
  %19 = load i64, i64* %18, align 8, !dbg !1372, !range !1235, !noundef !26
  %20 = insertvalue { i64, i64 } undef, i64 %17, 0, !dbg !1372
  %21 = insertvalue { i64, i64 } %20, i64 %19, 1, !dbg !1372
  ret { i64, i64 } %21, !dbg !1372

bb15:                                             ; preds = %bb3
; call core::alloc::layout::Layout::from_size_valid_align
  %22 = call { i64, i64 } @_ZN4core5alloc6layout6Layout21from_size_valid_align17h8781a35eec593f16E(i64 %val, i64 %_14), !dbg !1373
  store { i64, i64 } %22, { i64, i64 }* %1, align 8, !dbg !1373
  br label %bb6, !dbg !1373

bb6:                                              ; preds = %bb15
  br label %bb7, !dbg !1372
}

; core::array::<impl core::ops::index::Index<I> for [T; N]>::index
; Function Attrs: inlinehint nonlazybind uwtable
define { [0 x i8]*, i64 } @"_ZN4core5array85_$LT$impl$u20$core..ops..index..Index$LT$I$GT$$u20$for$u20$$u5b$T$u3b$$u20$N$u5d$$GT$5index17h3df2678a0c5e8f1eE"([128 x i8]* align 1 %self, i64 %index, %"core::panic::location::Location"* align 8 %0) unnamed_addr #0 !dbg !1374 {
start:
  %index.dbg.spill = alloca i64, align 8
  %self.dbg.spill = alloca [128 x i8]*, align 8
  store [128 x i8]* %self, [128 x i8]** %self.dbg.spill, align 8
  call void @llvm.dbg.declare(metadata [128 x i8]** %self.dbg.spill, metadata !1385, metadata !DIExpression()), !dbg !1389
  store i64 %index, i64* %index.dbg.spill, align 8
  call void @llvm.dbg.declare(metadata i64* %index.dbg.spill, metadata !1386, metadata !DIExpression()), !dbg !1390
  %_4.0 = bitcast [128 x i8]* %self to [0 x i8]*, !dbg !1391
; call core::slice::index::<impl core::ops::index::Index<I> for [T]>::index
  %1 = call { [0 x i8]*, i64 } @"_ZN4core5slice5index74_$LT$impl$u20$core..ops..index..Index$LT$I$GT$$u20$for$u20$$u5b$T$u5d$$GT$5index17h2265d1d1eefd74aeE"([0 x i8]* align 1 %_4.0, i64 128, i64 %index, %"core::panic::location::Location"* align 8 %0), !dbg !1392
  %2 = extractvalue { [0 x i8]*, i64 } %1, 0, !dbg !1392
  %3 = extractvalue { [0 x i8]*, i64 } %1, 1, !dbg !1392
  br label %bb1, !dbg !1392

bb1:                                              ; preds = %start
  %4 = insertvalue { [0 x i8]*, i64 } undef, [0 x i8]* %2, 0, !dbg !1393
  %5 = insertvalue { [0 x i8]*, i64 } %4, i64 %3, 1, !dbg !1393
  ret { [0 x i8]*, i64 } %5, !dbg !1393
}

; core::array::equality::<impl core::cmp::PartialEq<[B; N]> for [A; N]>::eq
; Function Attrs: inlinehint nonlazybind uwtable
define zeroext i1 @"_ZN4core5array8equality103_$LT$impl$u20$core..cmp..PartialEq$LT$$u5b$B$u3b$$u20$N$u5d$$GT$$u20$for$u20$$u5b$A$u3b$$u20$N$u5d$$GT$2eq17hc6d3ce497554ef29E"([16 x i8]* align 1 %self, [16 x i8]* align 1 %other) unnamed_addr #0 !dbg !1394 {
start:
  %other.dbg.spill = alloca [16 x i8]*, align 8
  %self.dbg.spill = alloca [16 x i8]*, align 8
  store [16 x i8]* %self, [16 x i8]** %self.dbg.spill, align 8
  call void @llvm.dbg.declare(metadata [16 x i8]** %self.dbg.spill, metadata !1405, metadata !DIExpression()), !dbg !1410
  store [16 x i8]* %other, [16 x i8]** %other.dbg.spill, align 8
  call void @llvm.dbg.declare(metadata [16 x i8]** %other.dbg.spill, metadata !1406, metadata !DIExpression()), !dbg !1411
; call <T as core::array::equality::SpecArrayEq<U,_>>::spec_eq
  %0 = call zeroext i1 @"_ZN69_$LT$T$u20$as$u20$core..array..equality..SpecArrayEq$LT$U$C$_$GT$$GT$7spec_eq17h66243477bd61f162E"([16 x i8]* align 1 %self, [16 x i8]* align 1 %other), !dbg !1412
  br label %bb1, !dbg !1412

bb1:                                              ; preds = %start
  ret i1 %0, !dbg !1413
}

; core::clone::impls::<impl core::clone::Clone for i32>::clone
; Function Attrs: inlinehint nonlazybind uwtable
define internal i32 @"_ZN4core5clone5impls52_$LT$impl$u20$core..clone..Clone$u20$for$u20$i32$GT$5clone17h9b2bddbc476572d1E"(i32* align 4 %self) unnamed_addr #0 !dbg !1414 {
start:
  %self.dbg.spill = alloca i32*, align 8
  store i32* %self, i32** %self.dbg.spill, align 8
  call void @llvm.dbg.declare(metadata i32** %self.dbg.spill, metadata !1422, metadata !DIExpression()), !dbg !1423
  %0 = load i32, i32* %self, align 4, !dbg !1424
  ret i32 %0, !dbg !1425
}

; core::clone::impls::<impl core::clone::Clone for i64>::clone
; Function Attrs: inlinehint nonlazybind uwtable
define internal i64 @"_ZN4core5clone5impls52_$LT$impl$u20$core..clone..Clone$u20$for$u20$i64$GT$5clone17h83f44c00881ad16fE"(i64* align 8 %self) unnamed_addr #0 !dbg !1426 {
start:
  %self.dbg.spill = alloca i64*, align 8
  store i64* %self, i64** %self.dbg.spill, align 8
  call void @llvm.dbg.declare(metadata i64** %self.dbg.spill, metadata !1431, metadata !DIExpression()), !dbg !1432
  %0 = load i64, i64* %self, align 8, !dbg !1433
  ret i64 %0, !dbg !1434
}

; core::slice::<impl [T]>::as_mut_ptr
; Function Attrs: inlinehint nonlazybind uwtable
define i8* @"_ZN4core5slice29_$LT$impl$u20$$u5b$T$u5d$$GT$10as_mut_ptr17he1bead3ba556669aE"([0 x i8]* align 1 %self.0, i64 %self.1) unnamed_addr #0 !dbg !1435 {
start:
  %self.dbg.spill = alloca { [0 x i8]*, i64 }, align 8
  %0 = getelementptr inbounds { [0 x i8]*, i64 }, { [0 x i8]*, i64 }* %self.dbg.spill, i32 0, i32 0
  store [0 x i8]* %self.0, [0 x i8]** %0, align 8
  %1 = getelementptr inbounds { [0 x i8]*, i64 }, { [0 x i8]*, i64 }* %self.dbg.spill, i32 0, i32 1
  store i64 %self.1, i64* %1, align 8
  call void @llvm.dbg.declare(metadata { [0 x i8]*, i64 }* %self.dbg.spill, metadata !1443, metadata !DIExpression()), !dbg !1444
  %2 = bitcast [0 x i8]* %self.0 to i8*, !dbg !1445
  ret i8* %2, !dbg !1446
}

; core::slice::index::<impl core::ops::index::Index<I> for [T]>::index
; Function Attrs: inlinehint nonlazybind uwtable
define { [0 x i8]*, i64 } @"_ZN4core5slice5index74_$LT$impl$u20$core..ops..index..Index$LT$I$GT$$u20$for$u20$$u5b$T$u5d$$GT$5index17h2265d1d1eefd74aeE"([0 x i8]* align 1 %self.0, i64 %self.1, i64 %index, %"core::panic::location::Location"* align 8 %0) unnamed_addr #0 !dbg !1447 {
start:
  %index.dbg.spill = alloca i64, align 8
  %self.dbg.spill = alloca { [0 x i8]*, i64 }, align 8
  %1 = getelementptr inbounds { [0 x i8]*, i64 }, { [0 x i8]*, i64 }* %self.dbg.spill, i32 0, i32 0
  store [0 x i8]* %self.0, [0 x i8]** %1, align 8
  %2 = getelementptr inbounds { [0 x i8]*, i64 }, { [0 x i8]*, i64 }* %self.dbg.spill, i32 0, i32 1
  store i64 %self.1, i64* %2, align 8
  call void @llvm.dbg.declare(metadata { [0 x i8]*, i64 }* %self.dbg.spill, metadata !1452, metadata !DIExpression()), !dbg !1454
  store i64 %index, i64* %index.dbg.spill, align 8
  call void @llvm.dbg.declare(metadata i64* %index.dbg.spill, metadata !1453, metadata !DIExpression()), !dbg !1455
; call <core::ops::range::RangeTo<usize> as core::slice::index::SliceIndex<[T]>>::index
  %3 = call { [0 x i8]*, i64 } @"_ZN108_$LT$core..ops..range..RangeTo$LT$usize$GT$$u20$as$u20$core..slice..index..SliceIndex$LT$$u5b$T$u5d$$GT$$GT$5index17he45df862cf1057e5E"(i64 %index, [0 x i8]* align 1 %self.0, i64 %self.1, %"core::panic::location::Location"* align 8 %0), !dbg !1456
  %4 = extractvalue { [0 x i8]*, i64 } %3, 0, !dbg !1456
  %5 = extractvalue { [0 x i8]*, i64 } %3, 1, !dbg !1456
  br label %bb1, !dbg !1456

bb1:                                              ; preds = %start
  %6 = insertvalue { [0 x i8]*, i64 } undef, [0 x i8]* %4, 0, !dbg !1457
  %7 = insertvalue { [0 x i8]*, i64 } %6, i64 %5, 1, !dbg !1457
  ret { [0 x i8]*, i64 } %7, !dbg !1457
}

; core::option::Option<T>::map_or_else
; Function Attrs: inlinehint nonlazybind uwtable
define void @"_ZN4core6option15Option$LT$T$GT$11map_or_else17h2b746e8d475aa0c8E"(%"alloc::string::String"* sret(%"alloc::string::String") %0, i8* align 1 %1, i64 %2, i64* align 8 %default) unnamed_addr #0 personality i32 (i32, i32, i64, %"unwind::libunwind::_Unwind_Exception"*, %"unwind::libunwind::_Unwind_Context"*)* @rust_eh_personality !dbg !1458 {
start:
  %3 = alloca { i8*, i32 }, align 8
  %t.dbg.spill = alloca { [0 x i8]*, i64 }, align 8
  %f.dbg.spill = alloca {}, align 1
  %default.dbg.spill = alloca i64*, align 8
  %_12 = alloca i8, align 1
  %_11 = alloca i8, align 1
  %_7 = alloca { i8*, i64 }, align 8
  %self = alloca { i8*, i64 }, align 8
  %4 = getelementptr inbounds { i8*, i64 }, { i8*, i64 }* %self, i32 0, i32 0
  store i8* %1, i8** %4, align 8
  %5 = getelementptr inbounds { i8*, i64 }, { i8*, i64 }* %self, i32 0, i32 1
  store i64 %2, i64* %5, align 8
  call void @llvm.dbg.declare(metadata { i8*, i64 }* %self, metadata !1467, metadata !DIExpression()), !dbg !1476
  store i64* %default, i64** %default.dbg.spill, align 8
  call void @llvm.dbg.declare(metadata i64** %default.dbg.spill, metadata !1468, metadata !DIExpression()), !dbg !1477
  call void @llvm.dbg.declare(metadata {}* %f.dbg.spill, metadata !1469, metadata !DIExpression()), !dbg !1478
  store i8 1, i8* %_12, align 1, !dbg !1479
  store i8 1, i8* %_11, align 1, !dbg !1479
  %6 = bitcast { i8*, i64 }* %self to {}**, !dbg !1479
  %7 = load {}*, {}** %6, align 8, !dbg !1479
  %8 = icmp eq {}* %7, null, !dbg !1479
  %_4 = select i1 %8, i64 0, i64 1, !dbg !1479
  switch i64 %_4, label %bb2 [
    i64 0, label %bb1
    i64 1, label %bb3
  ], !dbg !1480

bb2:                                              ; preds = %start
  unreachable, !dbg !1479

bb1:                                              ; preds = %start
  store i8 0, i8* %_12, align 1, !dbg !1481
; invoke alloc::fmt::format::{{closure}}
  invoke void @"_ZN5alloc3fmt6format28_$u7b$$u7b$closure$u7d$$u7d$17ha9d3c5d1098fc22eE"(%"alloc::string::String"* sret(%"alloc::string::String") %0, i64* align 8 %default)
          to label %bb5 unwind label %cleanup, !dbg !1481

bb3:                                              ; preds = %start
  %9 = bitcast { i8*, i64 }* %self to { [0 x i8]*, i64 }*, !dbg !1482
  %10 = getelementptr inbounds { [0 x i8]*, i64 }, { [0 x i8]*, i64 }* %9, i32 0, i32 0, !dbg !1482
  %t.0 = load [0 x i8]*, [0 x i8]** %10, align 8, !dbg !1482, !nonnull !26, !align !353, !noundef !26
  %11 = getelementptr inbounds { [0 x i8]*, i64 }, { [0 x i8]*, i64 }* %9, i32 0, i32 1, !dbg !1482
  %t.1 = load i64, i64* %11, align 8, !dbg !1482
  %12 = getelementptr inbounds { [0 x i8]*, i64 }, { [0 x i8]*, i64 }* %t.dbg.spill, i32 0, i32 0, !dbg !1482
  store [0 x i8]* %t.0, [0 x i8]** %12, align 8, !dbg !1482
  %13 = getelementptr inbounds { [0 x i8]*, i64 }, { [0 x i8]*, i64 }* %t.dbg.spill, i32 0, i32 1, !dbg !1482
  store i64 %t.1, i64* %13, align 8, !dbg !1482
  call void @llvm.dbg.declare(metadata { [0 x i8]*, i64 }* %t.dbg.spill, metadata !1470, metadata !DIExpression()), !dbg !1483
  store i8 0, i8* %_11, align 1, !dbg !1484
  %14 = bitcast { i8*, i64 }* %_7 to { [0 x i8]*, i64 }*, !dbg !1484
  %15 = getelementptr inbounds { [0 x i8]*, i64 }, { [0 x i8]*, i64 }* %14, i32 0, i32 0, !dbg !1484
  store [0 x i8]* %t.0, [0 x i8]** %15, align 8, !dbg !1484
  %16 = getelementptr inbounds { [0 x i8]*, i64 }, { [0 x i8]*, i64 }* %14, i32 0, i32 1, !dbg !1484
  store i64 %t.1, i64* %16, align 8, !dbg !1484
  %17 = getelementptr inbounds { i8*, i64 }, { i8*, i64 }* %_7, i32 0, i32 0, !dbg !1484
  %18 = load i8*, i8** %17, align 8, !dbg !1484, !nonnull !26, !align !353, !noundef !26
  %19 = getelementptr inbounds { i8*, i64 }, { i8*, i64 }* %_7, i32 0, i32 1, !dbg !1484
  %20 = load i64, i64* %19, align 8, !dbg !1484
  %21 = bitcast i8* %18 to [0 x i8]*, !dbg !1484
; invoke core::ops::function::FnOnce::call_once
  invoke void @_ZN4core3ops8function6FnOnce9call_once17hc3f16a46991bc285E(%"alloc::string::String"* sret(%"alloc::string::String") %0, [0 x i8]* align 1 %21, i64 %20)
          to label %bb4 unwind label %cleanup, !dbg !1484

bb14:                                             ; preds = %cleanup
  %22 = load i8, i8* %_11, align 1, !dbg !1485, !range !685, !noundef !26
  %23 = trunc i8 %22 to i1, !dbg !1485
  br i1 %23, label %bb13, label %bb8, !dbg !1485

cleanup:                                          ; preds = %bb1, %bb3
  %24 = landingpad { i8*, i32 }
          cleanup
  %25 = extractvalue { i8*, i32 } %24, 0
  %26 = extractvalue { i8*, i32 } %24, 1
  %27 = getelementptr inbounds { i8*, i32 }, { i8*, i32 }* %3, i32 0, i32 0
  store i8* %25, i8** %27, align 8
  %28 = getelementptr inbounds { i8*, i32 }, { i8*, i32 }* %3, i32 0, i32 1
  store i32 %26, i32* %28, align 8
  br label %bb14

bb4:                                              ; preds = %bb3
  br label %bb11, !dbg !1486

bb11:                                             ; preds = %bb5, %bb4
  %29 = load i8, i8* %_11, align 1, !dbg !1485, !range !685, !noundef !26
  %30 = trunc i8 %29 to i1, !dbg !1485
  br i1 %30, label %bb10, label %bb6, !dbg !1485

bb5:                                              ; preds = %bb1
  br label %bb11, !dbg !1487

bb8:                                              ; preds = %bb13, %bb14
  %31 = load i8, i8* %_12, align 1, !dbg !1485, !range !685, !noundef !26
  %32 = trunc i8 %31 to i1, !dbg !1485
  br i1 %32, label %bb15, label %bb9, !dbg !1485

bb13:                                             ; preds = %bb14
  br label %bb8, !dbg !1485

bb6:                                              ; preds = %bb10, %bb11
  %33 = load i8, i8* %_12, align 1, !dbg !1485, !range !685, !noundef !26
  %34 = trunc i8 %33 to i1, !dbg !1485
  br i1 %34, label %bb12, label %bb7, !dbg !1485

bb10:                                             ; preds = %bb11
  br label %bb6, !dbg !1485

bb9:                                              ; preds = %bb15, %bb8
  %35 = bitcast { i8*, i32 }* %3 to i8**, !dbg !1488
  %36 = load i8*, i8** %35, align 8, !dbg !1488
  %37 = getelementptr inbounds { i8*, i32 }, { i8*, i32 }* %3, i32 0, i32 1, !dbg !1488
  %38 = load i32, i32* %37, align 8, !dbg !1488
  %39 = insertvalue { i8*, i32 } undef, i8* %36, 0, !dbg !1488
  %40 = insertvalue { i8*, i32 } %39, i32 %38, 1, !dbg !1488
  resume { i8*, i32 } %40, !dbg !1488

bb15:                                             ; preds = %bb8
  br label %bb9, !dbg !1485

bb7:                                              ; preds = %bb12, %bb6
  ret void, !dbg !1489

bb12:                                             ; preds = %bb6
  br label %bb7, !dbg !1485
}

; core::option::Option<T>::unwrap
; Function Attrs: inlinehint nonlazybind uwtable
define void @"_ZN4core6option15Option$LT$T$GT$6unwrap17h09baf5fcc786da84E"(%"f128_t::f128"* sret(%"f128_t::f128") %val, %"core::option::Option<f128_t::f128>"* %self, %"core::panic::location::Location"* align 8 %0) unnamed_addr #0 !dbg !1490 {
start:
  call void @llvm.dbg.declare(metadata %"f128_t::f128"* %val, metadata !1513, metadata !DIExpression()), !dbg !1515
  call void @llvm.dbg.declare(metadata %"core::option::Option<f128_t::f128>"* %self, metadata !1512, metadata !DIExpression()), !dbg !1516
  %1 = bitcast %"core::option::Option<f128_t::f128>"* %self to i8*, !dbg !1517
  %2 = load i8, i8* %1, align 1, !dbg !1517, !range !685, !noundef !26
  %3 = trunc i8 %2 to i1, !dbg !1517
  %_2 = zext i1 %3 to i64, !dbg !1517
  switch i64 %_2, label %bb2 [
    i64 0, label %bb1
    i64 1, label %bb3
  ], !dbg !1518

bb2:                                              ; preds = %start
  unreachable, !dbg !1517

bb1:                                              ; preds = %start
; call core::panicking::panic
  call void @_ZN4core9panicking5panic17hf5844c0338bd061cE([0 x i8]* align 1 bitcast (<{ [43 x i8] }>* @alloc1176 to [0 x i8]*), i64 43, %"core::panic::location::Location"* align 8 %0) #12, !dbg !1519
  unreachable, !dbg !1519

bb3:                                              ; preds = %start
  %4 = bitcast %"core::option::Option<f128_t::f128>"* %self to %"core::option::Option<f128_t::f128>::Some"*, !dbg !1520
  %5 = getelementptr inbounds %"core::option::Option<f128_t::f128>::Some", %"core::option::Option<f128_t::f128>::Some"* %4, i32 0, i32 1, !dbg !1520
  %6 = bitcast %"f128_t::f128"* %val to i8*, !dbg !1520
  %7 = bitcast %"f128_t::f128"* %5 to i8*, !dbg !1520
  call void @llvm.memcpy.p0i8.p0i8.i64(i8* align 1 %6, i8* align 1 %7, i64 16, i1 false), !dbg !1520
  ret void, !dbg !1521
}

; core::result::Result<T,E>::unwrap
; Function Attrs: inlinehint nonlazybind uwtable
define { [0 x i8]*, i64 } @"_ZN4core6result19Result$LT$T$C$E$GT$6unwrap17h7c6a2d7f63435a18E"(%"core::result::Result<&str, core::str::error::Utf8Error>"* %self, %"core::panic::location::Location"* align 8 %0) unnamed_addr #0 personality i32 (i32, i32, i64, %"unwind::libunwind::_Unwind_Exception"*, %"unwind::libunwind::_Unwind_Context"*)* @rust_eh_personality !dbg !1522 {
start:
  %t.dbg.spill = alloca { [0 x i8]*, i64 }, align 8
  %1 = alloca { i8*, i32 }, align 8
  %e = alloca %"core::str::error::Utf8Error", align 8
  call void @llvm.dbg.declare(metadata %"core::result::Result<&str, core::str::error::Utf8Error>"* %self, metadata !1541, metadata !DIExpression()), !dbg !1546
  call void @llvm.dbg.declare(metadata %"core::str::error::Utf8Error"* %e, metadata !1544, metadata !DIExpression()), !dbg !1547
  %2 = bitcast %"core::result::Result<&str, core::str::error::Utf8Error>"* %self to i64*, !dbg !1548
  %_2 = load i64, i64* %2, align 8, !dbg !1548, !range !897, !noundef !26
  switch i64 %_2, label %bb2 [
    i64 0, label %bb3
    i64 1, label %bb1
  ], !dbg !1549

bb2:                                              ; preds = %start
  unreachable, !dbg !1548

bb3:                                              ; preds = %start
  %3 = bitcast %"core::result::Result<&str, core::str::error::Utf8Error>"* %self to %"core::result::Result<&str, core::str::error::Utf8Error>::Ok"*, !dbg !1550
  %4 = getelementptr inbounds %"core::result::Result<&str, core::str::error::Utf8Error>::Ok", %"core::result::Result<&str, core::str::error::Utf8Error>::Ok"* %3, i32 0, i32 1, !dbg !1550
  %5 = getelementptr inbounds { [0 x i8]*, i64 }, { [0 x i8]*, i64 }* %4, i32 0, i32 0, !dbg !1550
  %t.0 = load [0 x i8]*, [0 x i8]** %5, align 8, !dbg !1550, !nonnull !26, !align !353, !noundef !26
  %6 = getelementptr inbounds { [0 x i8]*, i64 }, { [0 x i8]*, i64 }* %4, i32 0, i32 1, !dbg !1550
  %t.1 = load i64, i64* %6, align 8, !dbg !1550
  %7 = getelementptr inbounds { [0 x i8]*, i64 }, { [0 x i8]*, i64 }* %t.dbg.spill, i32 0, i32 0, !dbg !1550
  store [0 x i8]* %t.0, [0 x i8]** %7, align 8, !dbg !1550
  %8 = getelementptr inbounds { [0 x i8]*, i64 }, { [0 x i8]*, i64 }* %t.dbg.spill, i32 0, i32 1, !dbg !1550
  store i64 %t.1, i64* %8, align 8, !dbg !1550
  call void @llvm.dbg.declare(metadata { [0 x i8]*, i64 }* %t.dbg.spill, metadata !1542, metadata !DIExpression()), !dbg !1551
  %9 = insertvalue { [0 x i8]*, i64 } undef, [0 x i8]* %t.0, 0, !dbg !1552
  %10 = insertvalue { [0 x i8]*, i64 } %9, i64 %t.1, 1, !dbg !1552
  ret { [0 x i8]*, i64 } %10, !dbg !1552

bb1:                                              ; preds = %start
  %11 = bitcast %"core::result::Result<&str, core::str::error::Utf8Error>"* %self to %"core::result::Result<&str, core::str::error::Utf8Error>::Err"*, !dbg !1553
  %12 = getelementptr inbounds %"core::result::Result<&str, core::str::error::Utf8Error>::Err", %"core::result::Result<&str, core::str::error::Utf8Error>::Err"* %11, i32 0, i32 1, !dbg !1553
  %13 = bitcast %"core::str::error::Utf8Error"* %e to i8*, !dbg !1553
  %14 = bitcast %"core::str::error::Utf8Error"* %12 to i8*, !dbg !1553
  call void @llvm.memcpy.p0i8.p0i8.i64(i8* align 8 %13, i8* align 8 %14, i64 16, i1 false), !dbg !1553
  %_7.0 = bitcast %"core::str::error::Utf8Error"* %e to {}*, !dbg !1554
; invoke core::result::unwrap_failed
  invoke void @_ZN4core6result13unwrap_failed17hff48f82f03d418aeE([0 x i8]* align 1 bitcast (<{ [43 x i8] }>* @alloc1177 to [0 x i8]*), i64 43, {}* align 1 %_7.0, [3 x i64]* align 8 bitcast (<{ i8*, [16 x i8], i8* }>* @vtable.0 to [3 x i64]*), %"core::panic::location::Location"* align 8 %0) #12
          to label %unreachable unwind label %cleanup, !dbg !1555

bb4:                                              ; preds = %cleanup
  br label %bb5, !dbg !1556

cleanup:                                          ; preds = %bb1
  %15 = landingpad { i8*, i32 }
          cleanup
  %16 = extractvalue { i8*, i32 } %15, 0
  %17 = extractvalue { i8*, i32 } %15, 1
  %18 = getelementptr inbounds { i8*, i32 }, { i8*, i32 }* %1, i32 0, i32 0
  store i8* %16, i8** %18, align 8
  %19 = getelementptr inbounds { i8*, i32 }, { i8*, i32 }* %1, i32 0, i32 1
  store i32 %17, i32* %19, align 8
  br label %bb4

unreachable:                                      ; preds = %bb1
  unreachable

bb5:                                              ; preds = %bb4
  %20 = bitcast { i8*, i32 }* %1 to i8**, !dbg !1557
  %21 = load i8*, i8** %20, align 8, !dbg !1557
  %22 = getelementptr inbounds { i8*, i32 }, { i8*, i32 }* %1, i32 0, i32 1, !dbg !1557
  %23 = load i32, i32* %22, align 8, !dbg !1557
  %24 = insertvalue { i8*, i32 } undef, i8* %21, 0, !dbg !1557
  %25 = insertvalue { i8*, i32 } %24, i32 %23, 1, !dbg !1557
  resume { i8*, i32 } %25, !dbg !1557
}

; <T as core::convert::From<T>>::from
; Function Attrs: nonlazybind uwtable
define void @"_ZN50_$LT$T$u20$as$u20$core..convert..From$LT$T$GT$$GT$4from17h2bed783e04bb68bcE"() unnamed_addr #1 !dbg !1558 {
start:
  %t.dbg.spill = alloca %"core::alloc::layout::LayoutError", align 1
  call void @llvm.dbg.declare(metadata %"core::alloc::layout::LayoutError"* %t.dbg.spill, metadata !1564, metadata !DIExpression()), !dbg !1567
  ret void, !dbg !1568
}

; <T as core::convert::From<T>>::from
; Function Attrs: nonlazybind uwtable
define void @"_ZN50_$LT$T$u20$as$u20$core..convert..From$LT$T$GT$$GT$4from17h5a2efa16e49566acE"() unnamed_addr #1 !dbg !1569 {
start:
  %t.dbg.spill = alloca %"core::alloc::AllocError", align 1
  call void @llvm.dbg.declare(metadata %"core::alloc::AllocError"* %t.dbg.spill, metadata !1574, metadata !DIExpression()), !dbg !1577
  ret void, !dbg !1578
}

; <T as core::convert::Into<U>>::into
; Function Attrs: nonlazybind uwtable
define i8* @"_ZN50_$LT$T$u20$as$u20$core..convert..Into$LT$U$GT$$GT$4into17h54abd76d613f16f4E"(i8* %self) unnamed_addr #1 !dbg !1579 {
start:
  %self.dbg.spill = alloca i8*, align 8
  store i8* %self, i8** %self.dbg.spill, align 8
  call void @llvm.dbg.declare(metadata i8** %self.dbg.spill, metadata !1582, metadata !DIExpression()), !dbg !1586
; call <core::ptr::non_null::NonNull<T> as core::convert::From<core::ptr::unique::Unique<T>>>::from
  %0 = call i8* @"_ZN119_$LT$core..ptr..non_null..NonNull$LT$T$GT$$u20$as$u20$core..convert..From$LT$core..ptr..unique..Unique$LT$T$GT$$GT$$GT$4from17hd5d28fb461c84be2E"(i8* %self), !dbg !1587
  br label %bb1, !dbg !1587

bb1:                                              ; preds = %start
  ret i8* %0, !dbg !1588
}

; <T as alloc::slice::hack::ConvertVec>::to_vec
; Function Attrs: inlinehint nonlazybind uwtable
define void @"_ZN52_$LT$T$u20$as$u20$alloc..slice..hack..ConvertVec$GT$6to_vec17hb7bb30850b3c25e0E"(%"alloc::vec::Vec<u8>"* sret(%"alloc::vec::Vec<u8>") %v, [0 x i8]* align 1 %s.0, i64 %s.1) unnamed_addr #0 personality i32 (i32, i32, i64, %"unwind::libunwind::_Unwind_Exception"*, %"unwind::libunwind::_Unwind_Context"*)* @rust_eh_personality !dbg !1589 {
start:
  %new_len.dbg.spill = alloca i64, align 8
  %self.dbg.spill10 = alloca { [0 x i8]*, i64 }, align 8
  %self.dbg.spill9 = alloca %"alloc::vec::Vec<u8>"*, align 8
  %count.dbg.spill8 = alloca i64, align 8
  %dst.dbg.spill = alloca i8*, align 8
  %src.dbg.spill = alloca i8*, align 8
  %count.dbg.spill = alloca i64, align 8
  %self.dbg.spill7 = alloca { [0 x i8]*, i64 }, align 8
  %dest.dbg.spill = alloca i8*, align 8
  %self.dbg.spill5 = alloca i8*, align 8
  %self.dbg.spill4 = alloca { [0 x i8]*, i64 }, align 8
  %0 = alloca { i8*, i32 }, align 8
  %capacity.dbg.spill3 = alloca i64, align 8
  %capacity.dbg.spill = alloca i64, align 8
  %self.dbg.spill = alloca { [0 x i8]*, i64 }, align 8
  %alloc.dbg.spill2 = alloca %"alloc::alloc::Global", align 1
  %alloc.dbg.spill1 = alloca %"alloc::alloc::Global", align 1
  %alloc.dbg.spill = alloca %"alloc::alloc::Global", align 1
  %s.dbg.spill = alloca { [0 x i8]*, i64 }, align 8
  %_34 = alloca %"core::ptr::metadata::PtrRepr<[u8]>", align 8
  %runtime = alloca %"[closure@core::intrinsics::copy_nonoverlapping<u8>::{closure#0}]", align 8
  %_25 = alloca %"core::ptr::metadata::PtrRepr<[u8]>", align 8
  %_22 = alloca i8, align 1
  %_16 = alloca %"core::ptr::metadata::PtrRepr<[u8]>", align 8
  call void @llvm.dbg.declare(metadata %"alloc::vec::Vec<u8>"* %v, metadata !1599, metadata !DIExpression()), !dbg !1601
  %1 = getelementptr inbounds { [0 x i8]*, i64 }, { [0 x i8]*, i64 }* %s.dbg.spill, i32 0, i32 0
  store [0 x i8]* %s.0, [0 x i8]** %1, align 8
  %2 = getelementptr inbounds { [0 x i8]*, i64 }, { [0 x i8]*, i64 }* %s.dbg.spill, i32 0, i32 1
  store i64 %s.1, i64* %2, align 8
  call void @llvm.dbg.declare(metadata { [0 x i8]*, i64 }* %s.dbg.spill, metadata !1597, metadata !DIExpression()), !dbg !1602
  call void @llvm.dbg.declare(metadata %"alloc::alloc::Global"* %alloc.dbg.spill, metadata !1598, metadata !DIExpression()), !dbg !1603
  call void @llvm.dbg.declare(metadata %"alloc::alloc::Global"* %alloc.dbg.spill1, metadata !1604, metadata !DIExpression()), !dbg !1612
  call void @llvm.dbg.declare(metadata %"alloc::alloc::Global"* %alloc.dbg.spill2, metadata !1614, metadata !DIExpression()), !dbg !1622
  call void @llvm.dbg.declare(metadata %"[closure@core::intrinsics::copy_nonoverlapping<u8>::{closure#0}]"* %runtime, metadata !1624, metadata !DIExpression()), !dbg !1643
  %3 = getelementptr inbounds { [0 x i8]*, i64 }, { [0 x i8]*, i64 }* %self.dbg.spill, i32 0, i32 0, !dbg !1655
  store [0 x i8]* %s.0, [0 x i8]** %3, align 8, !dbg !1655
  %4 = getelementptr inbounds { [0 x i8]*, i64 }, { [0 x i8]*, i64 }* %self.dbg.spill, i32 0, i32 1, !dbg !1655
  store i64 %s.1, i64* %4, align 8, !dbg !1655
  call void @llvm.dbg.declare(metadata { [0 x i8]*, i64 }* %self.dbg.spill, metadata !1656, metadata !DIExpression()), !dbg !1662
  %5 = bitcast %"core::ptr::metadata::PtrRepr<[u8]>"* %_16 to { [0 x i8]*, i64 }*, !dbg !1662
  %6 = getelementptr inbounds { [0 x i8]*, i64 }, { [0 x i8]*, i64 }* %5, i32 0, i32 0, !dbg !1662
  store [0 x i8]* %s.0, [0 x i8]** %6, align 8, !dbg !1662
  %7 = getelementptr inbounds { [0 x i8]*, i64 }, { [0 x i8]*, i64 }* %5, i32 0, i32 1, !dbg !1662
  store i64 %s.1, i64* %7, align 8, !dbg !1662
  %8 = bitcast %"core::ptr::metadata::PtrRepr<[u8]>"* %_16 to { i8*, i64 }*, !dbg !1662
  %9 = getelementptr inbounds { i8*, i64 }, { i8*, i64 }* %8, i32 0, i32 1, !dbg !1662
  %capacity = load i64, i64* %9, align 8, !dbg !1662
  store i64 %capacity, i64* %capacity.dbg.spill, align 8, !dbg !1662
  call void @llvm.dbg.declare(metadata i64* %capacity.dbg.spill, metadata !1611, metadata !DIExpression()), !dbg !1612
  store i64 %capacity, i64* %capacity.dbg.spill3, align 8, !dbg !1612
  call void @llvm.dbg.declare(metadata i64* %capacity.dbg.spill3, metadata !1621, metadata !DIExpression()), !dbg !1622
  store i8 0, i8* %_22, align 1, !dbg !1622
  %10 = load i8, i8* %_22, align 1, !dbg !1622, !range !685, !noundef !26
  %11 = trunc i8 %10 to i1, !dbg !1622
; invoke alloc::raw_vec::RawVec<T,A>::allocate_in
  %12 = invoke { i8*, i64 } @"_ZN5alloc7raw_vec19RawVec$LT$T$C$A$GT$11allocate_in17hb7853e13fe7466c9E"(i64 %capacity, i1 zeroext %11)
          to label %bb6 unwind label %cleanup, !dbg !1622

bb5:                                              ; preds = %bb2, %cleanup
  br i1 false, label %bb4, label %bb3, !dbg !1663

cleanup:                                          ; preds = %start
  %13 = landingpad { i8*, i32 }
          cleanup
  %14 = extractvalue { i8*, i32 } %13, 0
  %15 = extractvalue { i8*, i32 } %13, 1
  %16 = getelementptr inbounds { i8*, i32 }, { i8*, i32 }* %0, i32 0, i32 0
  store i8* %14, i8** %16, align 8
  %17 = getelementptr inbounds { i8*, i32 }, { i8*, i32 }* %0, i32 0, i32 1
  store i32 %15, i32* %17, align 8
  br label %bb5

bb6:                                              ; preds = %start
  %_18.0 = extractvalue { i8*, i64 } %12, 0, !dbg !1622
  %_18.1 = extractvalue { i8*, i64 } %12, 1, !dbg !1622
  %18 = bitcast %"alloc::vec::Vec<u8>"* %v to { i8*, i64 }*, !dbg !1612
  %19 = getelementptr inbounds { i8*, i64 }, { i8*, i64 }* %18, i32 0, i32 0, !dbg !1612
  store i8* %_18.0, i8** %19, align 8, !dbg !1612
  %20 = getelementptr inbounds { i8*, i64 }, { i8*, i64 }* %18, i32 0, i32 1, !dbg !1612
  store i64 %_18.1, i64* %20, align 8, !dbg !1612
  %21 = getelementptr inbounds %"alloc::vec::Vec<u8>", %"alloc::vec::Vec<u8>"* %v, i32 0, i32 1, !dbg !1612
  store i64 0, i64* %21, align 8, !dbg !1612
  %22 = getelementptr inbounds { [0 x i8]*, i64 }, { [0 x i8]*, i64 }* %self.dbg.spill4, i32 0, i32 0, !dbg !1654
  store [0 x i8]* %s.0, [0 x i8]** %22, align 8, !dbg !1654
  %23 = getelementptr inbounds { [0 x i8]*, i64 }, { [0 x i8]*, i64 }* %self.dbg.spill4, i32 0, i32 1, !dbg !1654
  store i64 %s.1, i64* %23, align 8, !dbg !1654
  call void @llvm.dbg.declare(metadata { [0 x i8]*, i64 }* %self.dbg.spill4, metadata !1664, metadata !DIExpression()), !dbg !1670
  %self = bitcast [0 x i8]* %s.0 to i8*, !dbg !1670
  store i8* %self, i8** %self.dbg.spill5, align 8, !dbg !1670
  call void @llvm.dbg.declare(metadata i8** %self.dbg.spill5, metadata !1650, metadata !DIExpression()), !dbg !1671
; invoke alloc::vec::Vec<T,A>::as_mut_ptr
  %dest = invoke i8* @"_ZN5alloc3vec16Vec$LT$T$C$A$GT$10as_mut_ptr17h34c25918ba95f615E"(%"alloc::vec::Vec<u8>"* align 8 %v)
          to label %bb1 unwind label %cleanup6, !dbg !1672

bb2:                                              ; preds = %cleanup6
; invoke core::ptr::drop_in_place<alloc::vec::Vec<u8>>
  invoke void @"_ZN4core3ptr46drop_in_place$LT$alloc..vec..Vec$LT$u8$GT$$GT$17h4ddc41bb3ac5cf34E"(%"alloc::vec::Vec<u8>"* %v) #13
          to label %bb5 unwind label %abort, !dbg !1663

cleanup6:                                         ; preds = %bb6
  %24 = landingpad { i8*, i32 }
          cleanup
  %25 = extractvalue { i8*, i32 } %24, 0
  %26 = extractvalue { i8*, i32 } %24, 1
  %27 = getelementptr inbounds { i8*, i32 }, { i8*, i32 }* %0, i32 0, i32 0
  store i8* %25, i8** %27, align 8
  %28 = getelementptr inbounds { i8*, i32 }, { i8*, i32 }* %0, i32 0, i32 1
  store i32 %26, i32* %28, align 8
  br label %bb2

bb1:                                              ; preds = %bb6
  store i8* %dest, i8** %dest.dbg.spill, align 8, !dbg !1672
  call void @llvm.dbg.declare(metadata i8** %dest.dbg.spill, metadata !1652, metadata !DIExpression()), !dbg !1671
  %29 = getelementptr inbounds { [0 x i8]*, i64 }, { [0 x i8]*, i64 }* %self.dbg.spill7, i32 0, i32 0, !dbg !1673
  store [0 x i8]* %s.0, [0 x i8]** %29, align 8, !dbg !1673
  %30 = getelementptr inbounds { [0 x i8]*, i64 }, { [0 x i8]*, i64 }* %self.dbg.spill7, i32 0, i32 1, !dbg !1673
  store i64 %s.1, i64* %30, align 8, !dbg !1673
  call void @llvm.dbg.declare(metadata { [0 x i8]*, i64 }* %self.dbg.spill7, metadata !1674, metadata !DIExpression()), !dbg !1678
  %31 = bitcast %"core::ptr::metadata::PtrRepr<[u8]>"* %_25 to { [0 x i8]*, i64 }*, !dbg !1678
  %32 = getelementptr inbounds { [0 x i8]*, i64 }, { [0 x i8]*, i64 }* %31, i32 0, i32 0, !dbg !1678
  store [0 x i8]* %s.0, [0 x i8]** %32, align 8, !dbg !1678
  %33 = getelementptr inbounds { [0 x i8]*, i64 }, { [0 x i8]*, i64 }* %31, i32 0, i32 1, !dbg !1678
  store i64 %s.1, i64* %33, align 8, !dbg !1678
  %34 = bitcast %"core::ptr::metadata::PtrRepr<[u8]>"* %_25 to { i8*, i64 }*, !dbg !1678
  %35 = getelementptr inbounds { i8*, i64 }, { i8*, i64 }* %34, i32 0, i32 1, !dbg !1678
  %count = load i64, i64* %35, align 8, !dbg !1678
  store i64 %count, i64* %count.dbg.spill, align 8, !dbg !1678
  call void @llvm.dbg.declare(metadata i64* %count.dbg.spill, metadata !1653, metadata !DIExpression()), !dbg !1671
  store i8* %self, i8** %src.dbg.spill, align 8, !dbg !1671
  call void @llvm.dbg.declare(metadata i8** %src.dbg.spill, metadata !1631, metadata !DIExpression()), !dbg !1679
  store i8* %dest, i8** %dst.dbg.spill, align 8, !dbg !1671
  call void @llvm.dbg.declare(metadata i8** %dst.dbg.spill, metadata !1633, metadata !DIExpression()), !dbg !1679
  store i64 %count, i64* %count.dbg.spill8, align 8, !dbg !1671
  call void @llvm.dbg.declare(metadata i64* %count.dbg.spill8, metadata !1634, metadata !DIExpression()), !dbg !1679
  %36 = mul i64 %count, 1, !dbg !1679
  call void @llvm.memcpy.p0i8.p0i8.i64(i8* align 1 %dest, i8* align 1 %self, i64 %36, i1 false), !dbg !1679
  store %"alloc::vec::Vec<u8>"* %v, %"alloc::vec::Vec<u8>"** %self.dbg.spill9, align 8, !dbg !1680
  call void @llvm.dbg.declare(metadata %"alloc::vec::Vec<u8>"** %self.dbg.spill9, metadata !1681, metadata !DIExpression()), !dbg !1689
  %37 = getelementptr inbounds { [0 x i8]*, i64 }, { [0 x i8]*, i64 }* %self.dbg.spill10, i32 0, i32 0, !dbg !1690
  store [0 x i8]* %s.0, [0 x i8]** %37, align 8, !dbg !1690
  %38 = getelementptr inbounds { [0 x i8]*, i64 }, { [0 x i8]*, i64 }* %self.dbg.spill10, i32 0, i32 1, !dbg !1690
  store i64 %s.1, i64* %38, align 8, !dbg !1690
  call void @llvm.dbg.declare(metadata { [0 x i8]*, i64 }* %self.dbg.spill10, metadata !1691, metadata !DIExpression()), !dbg !1695
  %39 = bitcast %"core::ptr::metadata::PtrRepr<[u8]>"* %_34 to { [0 x i8]*, i64 }*, !dbg !1695
  %40 = getelementptr inbounds { [0 x i8]*, i64 }, { [0 x i8]*, i64 }* %39, i32 0, i32 0, !dbg !1695
  store [0 x i8]* %s.0, [0 x i8]** %40, align 8, !dbg !1695
  %41 = getelementptr inbounds { [0 x i8]*, i64 }, { [0 x i8]*, i64 }* %39, i32 0, i32 1, !dbg !1695
  store i64 %s.1, i64* %41, align 8, !dbg !1695
  %42 = bitcast %"core::ptr::metadata::PtrRepr<[u8]>"* %_34 to { i8*, i64 }*, !dbg !1695
  %43 = getelementptr inbounds { i8*, i64 }, { i8*, i64 }* %42, i32 0, i32 1, !dbg !1695
  %new_len = load i64, i64* %43, align 8, !dbg !1695
  store i64 %new_len, i64* %new_len.dbg.spill, align 8, !dbg !1695
  call void @llvm.dbg.declare(metadata i64* %new_len.dbg.spill, metadata !1688, metadata !DIExpression()), !dbg !1689
  %44 = getelementptr inbounds %"alloc::vec::Vec<u8>", %"alloc::vec::Vec<u8>"* %v, i32 0, i32 1, !dbg !1689
  store i64 %new_len, i64* %44, align 8, !dbg !1689
  ret void, !dbg !1696

abort:                                            ; preds = %bb2
  %45 = landingpad { i8*, i32 }
          cleanup, !dbg !1697
; call core::panicking::panic_no_unwind
  call void @_ZN4core9panicking15panic_no_unwind17h62f8113f44cbfcbfE() #14, !dbg !1697
  unreachable, !dbg !1697

bb3:                                              ; preds = %bb4, %bb5
  %46 = bitcast { i8*, i32 }* %0 to i8**, !dbg !1697
  %47 = load i8*, i8** %46, align 8, !dbg !1697
  %48 = getelementptr inbounds { i8*, i32 }, { i8*, i32 }* %0, i32 0, i32 1, !dbg !1697
  %49 = load i32, i32* %48, align 8, !dbg !1697
  %50 = insertvalue { i8*, i32 } undef, i8* %47, 0, !dbg !1697
  %51 = insertvalue { i8*, i32 } %50, i32 %49, 1, !dbg !1697
  resume { i8*, i32 } %51, !dbg !1697

bb4:                                              ; preds = %bb5
  br label %bb3, !dbg !1663
}

; <&T as core::convert::AsRef<U>>::as_ref
; Function Attrs: inlinehint nonlazybind uwtable
define { [0 x i8]*, i64 } @"_ZN55_$LT$$RF$T$u20$as$u20$core..convert..AsRef$LT$U$GT$$GT$6as_ref17h070ed05afd8b3047E"({ [0 x i8]*, i64 }* align 8 %self) unnamed_addr #0 !dbg !1698 {
start:
  %self.dbg.spill = alloca { [0 x i8]*, i64 }*, align 8
  store { [0 x i8]*, i64 }* %self, { [0 x i8]*, i64 }** %self.dbg.spill, align 8
  call void @llvm.dbg.declare(metadata { [0 x i8]*, i64 }** %self.dbg.spill, metadata !1703, metadata !DIExpression()), !dbg !1706
  %0 = getelementptr inbounds { [0 x i8]*, i64 }, { [0 x i8]*, i64 }* %self, i32 0, i32 0, !dbg !1707
  %_3.0 = load [0 x i8]*, [0 x i8]** %0, align 8, !dbg !1707, !nonnull !26, !align !353, !noundef !26
  %1 = getelementptr inbounds { [0 x i8]*, i64 }, { [0 x i8]*, i64 }* %self, i32 0, i32 1, !dbg !1707
  %_3.1 = load i64, i64* %1, align 8, !dbg !1707
; call <str as core::convert::AsRef<str>>::as_ref
  %2 = call { [0 x i8]*, i64 } @"_ZN55_$LT$str$u20$as$u20$core..convert..AsRef$LT$str$GT$$GT$6as_ref17h1d480eb17f735610E"([0 x i8]* align 1 %_3.0, i64 %_3.1), !dbg !1708
  %3 = extractvalue { [0 x i8]*, i64 } %2, 0, !dbg !1708
  %4 = extractvalue { [0 x i8]*, i64 } %2, 1, !dbg !1708
  br label %bb1, !dbg !1708

bb1:                                              ; preds = %start
  %5 = insertvalue { [0 x i8]*, i64 } undef, [0 x i8]* %3, 0, !dbg !1709
  %6 = insertvalue { [0 x i8]*, i64 } %5, i64 %4, 1, !dbg !1709
  ret { [0 x i8]*, i64 } %6, !dbg !1709
}

; <str as core::convert::AsRef<str>>::as_ref
; Function Attrs: inlinehint nonlazybind uwtable
define internal { [0 x i8]*, i64 } @"_ZN55_$LT$str$u20$as$u20$core..convert..AsRef$LT$str$GT$$GT$6as_ref17h1d480eb17f735610E"([0 x i8]* align 1 %self.0, i64 %self.1) unnamed_addr #0 !dbg !1710 {
start:
  %self.dbg.spill = alloca { [0 x i8]*, i64 }, align 8
  %0 = getelementptr inbounds { [0 x i8]*, i64 }, { [0 x i8]*, i64 }* %self.dbg.spill, i32 0, i32 0
  store [0 x i8]* %self.0, [0 x i8]** %0, align 8
  %1 = getelementptr inbounds { [0 x i8]*, i64 }, { [0 x i8]*, i64 }* %self.dbg.spill, i32 0, i32 1
  store i64 %self.1, i64* %1, align 8
  call void @llvm.dbg.declare(metadata { [0 x i8]*, i64 }* %self.dbg.spill, metadata !1715, metadata !DIExpression()), !dbg !1716
  %2 = insertvalue { [0 x i8]*, i64 } undef, [0 x i8]* %self.0, 0, !dbg !1717
  %3 = insertvalue { [0 x i8]*, i64 } %2, i64 %self.1, 1, !dbg !1717
  ret { [0 x i8]*, i64 } %3, !dbg !1717
}

; alloc::ffi::c_str::CString::new
; Function Attrs: nonlazybind uwtable
define void @_ZN5alloc3ffi5c_str7CString3new17h0cecf027ce58c664E(%"core::result::Result<alloc::ffi::c_str::CString, alloc::ffi::c_str::NulError>"* sret(%"core::result::Result<alloc::ffi::c_str::CString, alloc::ffi::c_str::NulError>") %0, [0 x i8]* align 1 %t.0, i64 %t.1) unnamed_addr #1 !dbg !1718 {
start:
  %t.dbg.spill = alloca { [0 x i8]*, i64 }, align 8
  %1 = getelementptr inbounds { [0 x i8]*, i64 }, { [0 x i8]*, i64 }* %t.dbg.spill, i32 0, i32 0
  store [0 x i8]* %t.0, [0 x i8]** %1, align 8
  %2 = getelementptr inbounds { [0 x i8]*, i64 }, { [0 x i8]*, i64 }* %t.dbg.spill, i32 0, i32 1
  store i64 %t.1, i64* %2, align 8
  call void @llvm.dbg.declare(metadata { [0 x i8]*, i64 }* %t.dbg.spill, metadata !1723, metadata !DIExpression()), !dbg !1724
; call <&str as alloc::ffi::c_str::CString::new::SpecNewImpl>::spec_new_impl
  call void @"_ZN72_$LT$$RF$str$u20$as$u20$alloc..ffi..c_str..CString..new..SpecNewImpl$GT$13spec_new_impl17h2b2077657056158aE"(%"core::result::Result<alloc::ffi::c_str::CString, alloc::ffi::c_str::NulError>"* sret(%"core::result::Result<alloc::ffi::c_str::CString, alloc::ffi::c_str::NulError>") %0, [0 x i8]* align 1 %t.0, i64 %t.1), !dbg !1725
  br label %bb1, !dbg !1725

bb1:                                              ; preds = %start
  ret void, !dbg !1726
}

; alloc::fmt::format
; Function Attrs: inlinehint nonlazybind uwtable
define internal void @_ZN5alloc3fmt6format17heb80f0ac00635400E(%"alloc::string::String"* sret(%"alloc::string::String") %0, %"core::fmt::Arguments"* %args) unnamed_addr #0 !dbg !1727 {
start:
  %_4 = alloca i64*, align 8
  call void @llvm.dbg.declare(metadata %"core::fmt::Arguments"* %args, metadata !1732, metadata !DIExpression()), !dbg !1733
; call core::fmt::Arguments::as_str
  %1 = call { i8*, i64 } @_ZN4core3fmt9Arguments6as_str17hc018f819405eaff4E(%"core::fmt::Arguments"* align 8 %args), !dbg !1734
  %_2.0 = extractvalue { i8*, i64 } %1, 0, !dbg !1734
  %_2.1 = extractvalue { i8*, i64 } %1, 1, !dbg !1734
  br label %bb1, !dbg !1734

bb1:                                              ; preds = %start
  %2 = bitcast i64** %_4 to %"core::fmt::Arguments"**, !dbg !1735
  store %"core::fmt::Arguments"* %args, %"core::fmt::Arguments"** %2, align 8, !dbg !1735
  %3 = load i64*, i64** %_4, align 8, !dbg !1734, !nonnull !26, !align !658, !noundef !26
; call core::option::Option<T>::map_or_else
  call void @"_ZN4core6option15Option$LT$T$GT$11map_or_else17h2b746e8d475aa0c8E"(%"alloc::string::String"* sret(%"alloc::string::String") %0, i8* align 1 %_2.0, i64 %_2.1, i64* align 8 %3), !dbg !1734
  br label %bb2, !dbg !1734

bb2:                                              ; preds = %bb1
  ret void, !dbg !1736
}

; alloc::fmt::format::{{closure}}
; Function Attrs: inlinehint nonlazybind uwtable
define void @"_ZN5alloc3fmt6format28_$u7b$$u7b$closure$u7d$$u7d$17ha9d3c5d1098fc22eE"(%"alloc::string::String"* sret(%"alloc::string::String") %0, i64* align 8 %1) unnamed_addr #0 !dbg !1737 {
start:
  %_2 = alloca %"core::fmt::Arguments", align 8
  %_1 = alloca i64*, align 8
  store i64* %1, i64** %_1, align 8
  %2 = bitcast i64** %_1 to %"core::fmt::Arguments"**
  %3 = load %"core::fmt::Arguments"*, %"core::fmt::Arguments"** %2, align 8, !nonnull !26, !align !658, !noundef !26
  call void @llvm.dbg.declare(metadata i64** %_1, metadata !1741, metadata !DIExpression(DW_OP_deref)), !dbg !1742
  %4 = bitcast i64** %_1 to %"core::fmt::Arguments"**, !dbg !1743
  %_3 = load %"core::fmt::Arguments"*, %"core::fmt::Arguments"** %4, align 8, !dbg !1743, !nonnull !26, !align !658, !noundef !26
  %5 = bitcast %"core::fmt::Arguments"* %_2 to i8*, !dbg !1743
  %6 = bitcast %"core::fmt::Arguments"* %_3 to i8*, !dbg !1743
  call void @llvm.memcpy.p0i8.p0i8.i64(i8* align 8 %5, i8* align 8 %6, i64 48, i1 false), !dbg !1743
; call alloc::fmt::format::format_inner
  call void @_ZN5alloc3fmt6format12format_inner17h840d5de64fab0778E(%"alloc::string::String"* sret(%"alloc::string::String") %0, %"core::fmt::Arguments"* %_2), !dbg !1744
  br label %bb1, !dbg !1744

bb1:                                              ; preds = %start
  ret void, !dbg !1745
}

; alloc::str::<impl alloc::borrow::ToOwned for str>::to_owned
; Function Attrs: inlinehint nonlazybind uwtable
define internal void @"_ZN5alloc3str56_$LT$impl$u20$alloc..borrow..ToOwned$u20$for$u20$str$GT$8to_owned17h0448ba9e8f2e7d08E"(%"alloc::string::String"* sret(%"alloc::string::String") %0, [0 x i8]* align 1 %self.0, i64 %self.1) unnamed_addr #0 !dbg !1746 {
start:
  %1 = alloca { [0 x i8]*, i64 }, align 8
  %self.dbg.spill1 = alloca { [0 x i8]*, i64 }, align 8
  %self.dbg.spill = alloca { [0 x i8]*, i64 }, align 8
  %_7 = alloca %"alloc::vec::Vec<u8>", align 8
  %bytes = alloca %"alloc::vec::Vec<u8>", align 8
  %2 = getelementptr inbounds { [0 x i8]*, i64 }, { [0 x i8]*, i64 }* %self.dbg.spill, i32 0, i32 0
  store [0 x i8]* %self.0, [0 x i8]** %2, align 8
  %3 = getelementptr inbounds { [0 x i8]*, i64 }, { [0 x i8]*, i64 }* %self.dbg.spill, i32 0, i32 1
  store i64 %self.1, i64* %3, align 8
  call void @llvm.dbg.declare(metadata { [0 x i8]*, i64 }* %self.dbg.spill, metadata !1748, metadata !DIExpression()), !dbg !1749
  call void @llvm.dbg.declare(metadata %"alloc::vec::Vec<u8>"* %bytes, metadata !1750, metadata !DIExpression()), !dbg !1754
  %4 = getelementptr inbounds { [0 x i8]*, i64 }, { [0 x i8]*, i64 }* %self.dbg.spill1, i32 0, i32 0, !dbg !1756
  store [0 x i8]* %self.0, [0 x i8]** %4, align 8, !dbg !1756
  %5 = getelementptr inbounds { [0 x i8]*, i64 }, { [0 x i8]*, i64 }* %self.dbg.spill1, i32 0, i32 1, !dbg !1756
  store i64 %self.1, i64* %5, align 8, !dbg !1756
  call void @llvm.dbg.declare(metadata { [0 x i8]*, i64 }* %self.dbg.spill1, metadata !1757, metadata !DIExpression()), !dbg !1761
  %6 = getelementptr inbounds { [0 x i8]*, i64 }, { [0 x i8]*, i64 }* %1, i32 0, i32 0, !dbg !1761
  store [0 x i8]* %self.0, [0 x i8]** %6, align 8, !dbg !1761
  %7 = getelementptr inbounds { [0 x i8]*, i64 }, { [0 x i8]*, i64 }* %1, i32 0, i32 1, !dbg !1761
  store i64 %self.1, i64* %7, align 8, !dbg !1761
  %8 = getelementptr inbounds { [0 x i8]*, i64 }, { [0 x i8]*, i64 }* %1, i32 0, i32 0, !dbg !1761
  %_4.0 = load [0 x i8]*, [0 x i8]** %8, align 8, !dbg !1761, !nonnull !26, !align !353, !noundef !26
  %9 = getelementptr inbounds { [0 x i8]*, i64 }, { [0 x i8]*, i64 }* %1, i32 0, i32 1, !dbg !1761
  %_4.1 = load i64, i64* %9, align 8, !dbg !1761
  br label %bb2, !dbg !1761

bb2:                                              ; preds = %start
; call alloc::slice::<impl alloc::borrow::ToOwned for [T]>::to_owned
  call void @"_ZN5alloc5slice64_$LT$impl$u20$alloc..borrow..ToOwned$u20$for$u20$$u5b$T$u5d$$GT$8to_owned17hd771beb52e788fccE"(%"alloc::vec::Vec<u8>"* sret(%"alloc::vec::Vec<u8>") %bytes, [0 x i8]* align 1 %_4.0, i64 %_4.1), !dbg !1756
  br label %bb1, !dbg !1756

bb1:                                              ; preds = %bb2
  %10 = bitcast %"alloc::vec::Vec<u8>"* %_7 to i8*, !dbg !1754
  %11 = bitcast %"alloc::vec::Vec<u8>"* %bytes to i8*, !dbg !1754
  call void @llvm.memcpy.p0i8.p0i8.i64(i8* align 8 %10, i8* align 8 %11, i64 24, i1 false), !dbg !1754
  %12 = bitcast %"alloc::string::String"* %0 to %"alloc::vec::Vec<u8>"*, !dbg !1754
  %13 = bitcast %"alloc::vec::Vec<u8>"* %12 to i8*, !dbg !1754
  %14 = bitcast %"alloc::vec::Vec<u8>"* %_7 to i8*, !dbg !1754
  call void @llvm.memcpy.p0i8.p0i8.i64(i8* align 8 %13, i8* align 8 %14, i64 24, i1 false), !dbg !1754
  ret void, !dbg !1762
}

; alloc::vec::Vec<T,A>::as_mut_ptr
; Function Attrs: inlinehint nonlazybind uwtable
define i8* @"_ZN5alloc3vec16Vec$LT$T$C$A$GT$10as_mut_ptr17h34c25918ba95f615E"(%"alloc::vec::Vec<u8>"* align 8 %self) unnamed_addr #0 !dbg !1763 {
start:
  %0 = alloca i8, align 1
  %other.dbg.spill = alloca i8*, align 8
  %data_address.dbg.spill = alloca {}*, align 8
  %1 = alloca {}*, align 8
  %self.dbg.spill7 = alloca i8*, align 8
  %self.dbg.spill6 = alloca i8*, align 8
  %ptr.dbg.spill = alloca i8*, align 8
  %self.dbg.spill5 = alloca i8*, align 8
  %self.dbg.spill4 = alloca i8*, align 8
  %self.dbg.spill2 = alloca { i8*, i64 }*, align 8
  %metadata.dbg.spill = alloca {}, align 1
  %self.dbg.spill = alloca %"alloc::vec::Vec<u8>"*, align 8
  %_18 = alloca %"core::ptr::metadata::PtrComponents<u8>", align 8
  %_17 = alloca %"core::ptr::metadata::PtrRepr<u8>", align 8
  store %"alloc::vec::Vec<u8>"* %self, %"alloc::vec::Vec<u8>"** %self.dbg.spill, align 8
  call void @llvm.dbg.declare(metadata %"alloc::vec::Vec<u8>"** %self.dbg.spill, metadata !1767, metadata !DIExpression()), !dbg !1770
  call void @llvm.dbg.declare(metadata {}* %metadata.dbg.spill, metadata !1771, metadata !DIExpression()), !dbg !1776
  %self1 = bitcast %"alloc::vec::Vec<u8>"* %self to { i8*, i64 }*, !dbg !1785
  store { i8*, i64 }* %self1, { i8*, i64 }** %self.dbg.spill2, align 8, !dbg !1785
  call void @llvm.dbg.declare(metadata { i8*, i64 }** %self.dbg.spill2, metadata !1786, metadata !DIExpression()), !dbg !1793
  %2 = bitcast { i8*, i64 }* %self1 to i8**, !dbg !1793
  %self3 = load i8*, i8** %2, align 8, !dbg !1793, !nonnull !26, !noundef !26
  store i8* %self3, i8** %self.dbg.spill4, align 8, !dbg !1793
  call void @llvm.dbg.declare(metadata i8** %self.dbg.spill4, metadata !1794, metadata !DIExpression()), !dbg !1798
  store i8* %self3, i8** %self.dbg.spill5, align 8, !dbg !1798
  call void @llvm.dbg.declare(metadata i8** %self.dbg.spill5, metadata !1800, metadata !DIExpression()), !dbg !1804
  store i8* %self3, i8** %ptr.dbg.spill, align 8, !dbg !1804
  call void @llvm.dbg.declare(metadata i8** %ptr.dbg.spill, metadata !1768, metadata !DIExpression()), !dbg !1806
  store i8* %self3, i8** %self.dbg.spill6, align 8, !dbg !1784
  call void @llvm.dbg.declare(metadata i8** %self.dbg.spill6, metadata !1782, metadata !DIExpression()), !dbg !1807
  store i8* %self3, i8** %self.dbg.spill7, align 8, !dbg !1807
  call void @llvm.dbg.declare(metadata i8** %self.dbg.spill7, metadata !1808, metadata !DIExpression()), !dbg !1813
  %3 = bitcast {}** %1 to i64*, !dbg !1815
  store i64 0, i64* %3, align 8, !dbg !1815
  %data_address = load {}*, {}** %1, align 8, !dbg !1815
  store {}* %data_address, {}** %data_address.dbg.spill, align 8, !dbg !1815
  call void @llvm.dbg.declare(metadata {}** %data_address.dbg.spill, metadata !1775, metadata !DIExpression()), !dbg !1776
  br label %bb2, !dbg !1815

bb2:                                              ; preds = %start
  %4 = bitcast %"core::ptr::metadata::PtrComponents<u8>"* %_18 to {}**, !dbg !1776
  store {}* %data_address, {}** %4, align 8, !dbg !1776
  %5 = bitcast %"core::ptr::metadata::PtrRepr<u8>"* %_17 to %"core::ptr::metadata::PtrComponents<u8>"*, !dbg !1776
  %6 = bitcast %"core::ptr::metadata::PtrComponents<u8>"* %5 to i8*, !dbg !1776
  %7 = bitcast %"core::ptr::metadata::PtrComponents<u8>"* %_18 to i8*, !dbg !1776
  call void @llvm.memcpy.p0i8.p0i8.i64(i8* align 8 %6, i8* align 8 %7, i64 8, i1 false), !dbg !1776
  %8 = bitcast %"core::ptr::metadata::PtrRepr<u8>"* %_17 to i8**, !dbg !1776
  %other = load i8*, i8** %8, align 8, !dbg !1776
  store i8* %other, i8** %other.dbg.spill, align 8, !dbg !1776
  call void @llvm.dbg.declare(metadata i8** %other.dbg.spill, metadata !1812, metadata !DIExpression()), !dbg !1813
  %9 = icmp eq i8* %self3, %other, !dbg !1813
  %10 = zext i1 %9 to i8, !dbg !1813
  store i8 %10, i8* %0, align 1, !dbg !1813
  %11 = load i8, i8* %0, align 1, !dbg !1813, !range !685, !noundef !26
  %_5 = trunc i8 %11 to i1, !dbg !1813
  br label %bb3, !dbg !1813

bb3:                                              ; preds = %bb2
  %_4 = xor i1 %_5, true, !dbg !1821
  call void @llvm.assume(i1 %_4), !dbg !1822
  br label %bb1, !dbg !1822

bb1:                                              ; preds = %bb3
  ret i8* %self3, !dbg !1823
}

; alloc::vec::Vec<T,A>::as_ptr
; Function Attrs: inlinehint nonlazybind uwtable
define i8* @"_ZN5alloc3vec16Vec$LT$T$C$A$GT$6as_ptr17hf5c71e8a33b2e895E"(%"alloc::vec::Vec<u8>"* align 8 %self) unnamed_addr #0 !dbg !1824 {
start:
  %0 = alloca i8, align 1
  %other.dbg.spill = alloca i8*, align 8
  %data_address.dbg.spill = alloca {}*, align 8
  %1 = alloca {}*, align 8
  %self.dbg.spill7 = alloca i8*, align 8
  %self.dbg.spill6 = alloca i8*, align 8
  %ptr.dbg.spill = alloca i8*, align 8
  %self.dbg.spill5 = alloca i8*, align 8
  %self.dbg.spill4 = alloca i8*, align 8
  %self.dbg.spill2 = alloca { i8*, i64 }*, align 8
  %metadata.dbg.spill = alloca {}, align 1
  %self.dbg.spill = alloca %"alloc::vec::Vec<u8>"*, align 8
  %_20 = alloca %"core::ptr::metadata::PtrComponents<u8>", align 8
  %_19 = alloca %"core::ptr::metadata::PtrRepr<u8>", align 8
  store %"alloc::vec::Vec<u8>"* %self, %"alloc::vec::Vec<u8>"** %self.dbg.spill, align 8
  call void @llvm.dbg.declare(metadata %"alloc::vec::Vec<u8>"** %self.dbg.spill, metadata !1829, metadata !DIExpression()), !dbg !1832
  call void @llvm.dbg.declare(metadata {}* %metadata.dbg.spill, metadata !1833, metadata !DIExpression()), !dbg !1838
  %self1 = bitcast %"alloc::vec::Vec<u8>"* %self to { i8*, i64 }*, !dbg !1847
  store { i8*, i64 }* %self1, { i8*, i64 }** %self.dbg.spill2, align 8, !dbg !1847
  call void @llvm.dbg.declare(metadata { i8*, i64 }** %self.dbg.spill2, metadata !1848, metadata !DIExpression()), !dbg !1852
  %2 = bitcast { i8*, i64 }* %self1 to i8**, !dbg !1852
  %self3 = load i8*, i8** %2, align 8, !dbg !1852, !nonnull !26, !noundef !26
  store i8* %self3, i8** %self.dbg.spill4, align 8, !dbg !1852
  call void @llvm.dbg.declare(metadata i8** %self.dbg.spill4, metadata !1853, metadata !DIExpression()), !dbg !1857
  store i8* %self3, i8** %self.dbg.spill5, align 8, !dbg !1857
  call void @llvm.dbg.declare(metadata i8** %self.dbg.spill5, metadata !1859, metadata !DIExpression()), !dbg !1863
  store i8* %self3, i8** %ptr.dbg.spill, align 8, !dbg !1863
  call void @llvm.dbg.declare(metadata i8** %ptr.dbg.spill, metadata !1830, metadata !DIExpression()), !dbg !1865
  store i8* %self3, i8** %self.dbg.spill6, align 8, !dbg !1846
  call void @llvm.dbg.declare(metadata i8** %self.dbg.spill6, metadata !1844, metadata !DIExpression()), !dbg !1866
  store i8* %self3, i8** %self.dbg.spill7, align 8, !dbg !1866
  call void @llvm.dbg.declare(metadata i8** %self.dbg.spill7, metadata !1867, metadata !DIExpression()), !dbg !1872
  %3 = bitcast {}** %1 to i64*, !dbg !1874
  store i64 0, i64* %3, align 8, !dbg !1874
  %data_address = load {}*, {}** %1, align 8, !dbg !1874
  store {}* %data_address, {}** %data_address.dbg.spill, align 8, !dbg !1874
  call void @llvm.dbg.declare(metadata {}** %data_address.dbg.spill, metadata !1837, metadata !DIExpression()), !dbg !1838
  br label %bb2, !dbg !1874

bb2:                                              ; preds = %start
  %4 = bitcast %"core::ptr::metadata::PtrComponents<u8>"* %_20 to {}**, !dbg !1838
  store {}* %data_address, {}** %4, align 8, !dbg !1838
  %5 = bitcast %"core::ptr::metadata::PtrRepr<u8>"* %_19 to %"core::ptr::metadata::PtrComponents<u8>"*, !dbg !1838
  %6 = bitcast %"core::ptr::metadata::PtrComponents<u8>"* %5 to i8*, !dbg !1838
  %7 = bitcast %"core::ptr::metadata::PtrComponents<u8>"* %_20 to i8*, !dbg !1838
  call void @llvm.memcpy.p0i8.p0i8.i64(i8* align 8 %6, i8* align 8 %7, i64 8, i1 false), !dbg !1838
  %8 = bitcast %"core::ptr::metadata::PtrRepr<u8>"* %_19 to i8**, !dbg !1838
  %other = load i8*, i8** %8, align 8, !dbg !1838
  store i8* %other, i8** %other.dbg.spill, align 8, !dbg !1838
  call void @llvm.dbg.declare(metadata i8** %other.dbg.spill, metadata !1871, metadata !DIExpression()), !dbg !1872
  %9 = icmp eq i8* %self3, %other, !dbg !1872
  %10 = zext i1 %9 to i8, !dbg !1872
  store i8 %10, i8* %0, align 1, !dbg !1872
  %11 = load i8, i8* %0, align 1, !dbg !1872, !range !685, !noundef !26
  %_6 = trunc i8 %11 to i1, !dbg !1872
  br label %bb3, !dbg !1872

bb3:                                              ; preds = %bb2
  %_5 = xor i1 %_6, true, !dbg !1880
  call void @llvm.assume(i1 %_5), !dbg !1881
  br label %bb1, !dbg !1881

bb1:                                              ; preds = %bb3
  ret i8* %self3, !dbg !1882
}

; alloc::alloc::Global::alloc_impl
; Function Attrs: inlinehint nonlazybind uwtable
define internal { i8*, i64 } @_ZN5alloc5alloc6Global10alloc_impl17h80dd30419e3b1a23E(%"alloc::alloc::Global"* align 1 %self, i64 %0, i64 %1, i1 zeroext %zeroed) unnamed_addr #0 !dbg !1883 {
start:
  %ptr.dbg.spill38 = alloca { [0 x i8]*, i64 }, align 8
  %data_address.dbg.spill35 = alloca {}*, align 8
  %self.dbg.spill33 = alloca i8*, align 8
  %data.dbg.spill32 = alloca i8*, align 8
  %self.dbg.spill31 = alloca i8*, align 8
  %ptr.dbg.spill29 = alloca i8*, align 8
  %2 = alloca i8*, align 8
  %addr.dbg.spill = alloca i64, align 8
  %n.dbg.spill28 = alloca i64, align 8
  %self.dbg.spill27 = alloca { i64, i64 }*, align 8
  %self.dbg.spill26 = alloca { i64, i64 }*, align 8
  %ptr.dbg.spill25 = alloca { [0 x i8]*, i64 }, align 8
  %metadata.dbg.spill = alloca i64, align 8
  %data_address.dbg.spill = alloca {}*, align 8
  %self.dbg.spill24 = alloca i8*, align 8
  %len.dbg.spill23 = alloca i64, align 8
  %data.dbg.spill22 = alloca i8*, align 8
  %self.dbg.spill21 = alloca i8*, align 8
  %len.dbg.spill = alloca i64, align 8
  %data.dbg.spill = alloca i8*, align 8
  %ptr.dbg.spill = alloca i8*, align 8
  %val.dbg.spill = alloca i8*, align 8
  %v.dbg.spill20 = alloca i8*, align 8
  %v.dbg.spill = alloca i8*, align 8
  %n.dbg.spill18 = alloca i64, align 8
  %self.dbg.spill17 = alloca { i64, i64 }*, align 8
  %self.dbg.spill16 = alloca { i64, i64 }*, align 8
  %n.dbg.spill = alloca i64, align 8
  %self.dbg.spill15 = alloca { i64, i64 }*, align 8
  %self.dbg.spill14 = alloca { i64, i64 }*, align 8
  %size.dbg.spill = alloca i64, align 8
  %self.dbg.spill13 = alloca { i64, i64 }*, align 8
  %e.dbg.spill12 = alloca %"core::alloc::AllocError", align 1
  %e.dbg.spill = alloca %"core::alloc::AllocError", align 1
  %residual.dbg.spill5 = alloca %"core::result::Result<core::convert::Infallible, core::alloc::AllocError>::Err", align 1
  %residual.dbg.spill = alloca %"core::result::Result<core::convert::Infallible, core::alloc::AllocError>::Err", align 1
  %err.dbg.spill = alloca %"core::alloc::AllocError", align 1
  %zeroed.dbg.spill = alloca i8, align 1
  %self.dbg.spill = alloca %"alloc::alloc::Global"*, align 8
  %_94 = alloca { i8*, i64 }, align 8
  %_93 = alloca %"core::ptr::metadata::PtrRepr<[u8]>", align 8
  %self11 = alloca i64, align 8
  %self10 = alloca i64, align 8
  %self9 = alloca i64, align 8
  %self8 = alloca i64, align 8
  %_51 = alloca { i8*, i64 }, align 8
  %_50 = alloca %"core::ptr::metadata::PtrRepr<[u8]>", align 8
  %self7 = alloca i64, align 8
  %self6 = alloca i64, align 8
  %_24 = alloca { i8*, i64 }, align 8
  %self4 = alloca i8*, align 8
  %self3 = alloca i8*, align 8
  %_15 = alloca i8*, align 8
  %layout2 = alloca { i64, i64 }, align 8
  %layout1 = alloca { i64, i64 }, align 8
  %raw_ptr = alloca i8*, align 8
  %data = alloca i8*, align 8
  %_6 = alloca { i8*, i64 }, align 8
  %3 = alloca { i8*, i64 }, align 8
  %layout = alloca { i64, i64 }, align 8
  %4 = getelementptr inbounds { i64, i64 }, { i64, i64 }* %layout, i32 0, i32 0
  store i64 %0, i64* %4, align 8
  %5 = getelementptr inbounds { i64, i64 }, { i64, i64 }* %layout, i32 0, i32 1
  store i64 %1, i64* %5, align 8
  store %"alloc::alloc::Global"* %self, %"alloc::alloc::Global"** %self.dbg.spill, align 8
  call void @llvm.dbg.declare(metadata %"alloc::alloc::Global"** %self.dbg.spill, metadata !1912, metadata !DIExpression()), !dbg !1938
  call void @llvm.dbg.declare(metadata { i64, i64 }* %layout, metadata !1913, metadata !DIExpression()), !dbg !1939
  %6 = zext i1 %zeroed to i8
  store i8 %6, i8* %zeroed.dbg.spill, align 1
  call void @llvm.dbg.declare(metadata i8* %zeroed.dbg.spill, metadata !1914, metadata !DIExpression()), !dbg !1940
  call void @llvm.dbg.declare(metadata i8** %data, metadata !1941, metadata !DIExpression()), !dbg !1948
  call void @llvm.dbg.declare(metadata i8** %raw_ptr, metadata !1917, metadata !DIExpression()), !dbg !1950
  call void @llvm.dbg.declare(metadata { i64, i64 }* %layout1, metadata !1951, metadata !DIExpression()), !dbg !1956
  call void @llvm.dbg.declare(metadata { i64, i64 }* %layout2, metadata !1958, metadata !DIExpression()), !dbg !1961
  call void @llvm.dbg.declare(metadata i8** %self3, metadata !1963, metadata !DIExpression()), !dbg !2005
  call void @llvm.dbg.declare(metadata i8** %self4, metadata !2007, metadata !DIExpression()), !dbg !2017
  call void @llvm.dbg.declare(metadata %"core::alloc::AllocError"* %err.dbg.spill, metadata !2013, metadata !DIExpression()), !dbg !2017
  call void @llvm.dbg.declare(metadata %"core::result::Result<core::convert::Infallible, core::alloc::AllocError>::Err"* %residual.dbg.spill, metadata !1921, metadata !DIExpression()), !dbg !2018
  call void @llvm.dbg.declare(metadata %"core::result::Result<core::convert::Infallible, core::alloc::AllocError>::Err"* %residual.dbg.spill5, metadata !2019, metadata !DIExpression()), !dbg !2030
  call void @llvm.dbg.declare(metadata i64* %self6, metadata !2032, metadata !DIExpression()), !dbg !2036
  call void @llvm.dbg.declare(metadata i64* %self7, metadata !2053, metadata !DIExpression()), !dbg !2057
  call void @llvm.dbg.declare(metadata i64* %self8, metadata !2058, metadata !DIExpression()), !dbg !2062
  call void @llvm.dbg.declare(metadata i64* %self9, metadata !2069, metadata !DIExpression()), !dbg !2073
  call void @llvm.dbg.declare(metadata i64* %self10, metadata !2074, metadata !DIExpression()), !dbg !2078
  call void @llvm.dbg.declare(metadata i64* %self11, metadata !2085, metadata !DIExpression()), !dbg !2089
  call void @llvm.dbg.declare(metadata %"core::alloc::AllocError"* %e.dbg.spill, metadata !2002, metadata !DIExpression()), !dbg !2090
  call void @llvm.dbg.declare(metadata %"core::alloc::AllocError"* %e.dbg.spill12, metadata !2025, metadata !DIExpression()), !dbg !2091
  store { i64, i64 }* %layout, { i64, i64 }** %self.dbg.spill13, align 8, !dbg !2092
  call void @llvm.dbg.declare(metadata { i64, i64 }** %self.dbg.spill13, metadata !2093, metadata !DIExpression()), !dbg !2097
  %7 = bitcast { i64, i64 }* %layout to i64*, !dbg !2097
  %_4 = load i64, i64* %7, align 8, !dbg !2097
  %8 = icmp eq i64 %_4, 0, !dbg !2098
  br i1 %8, label %bb2, label %bb1, !dbg !2098

bb2:                                              ; preds = %start
  store { i64, i64 }* %layout, { i64, i64 }** %self.dbg.spill26, align 8, !dbg !2052
  call void @llvm.dbg.declare(metadata { i64, i64 }** %self.dbg.spill26, metadata !2050, metadata !DIExpression()), !dbg !2099
  store { i64, i64 }* %layout, { i64, i64 }** %self.dbg.spill27, align 8, !dbg !2099
  call void @llvm.dbg.declare(metadata { i64, i64 }** %self.dbg.spill27, metadata !2043, metadata !DIExpression()), !dbg !2100
  %9 = getelementptr inbounds { i64, i64 }, { i64, i64 }* %layout, i32 0, i32 1, !dbg !2100
  %10 = load i64, i64* %9, align 8, !dbg !2100, !range !1211, !noundef !26
  store i64 %10, i64* %self7, align 8, !dbg !2100
  %_33 = load i64, i64* %self7, align 8, !dbg !2057, !range !1211, !noundef !26
  store i64 %_33, i64* %n.dbg.spill28, align 8, !dbg !2057
  call void @llvm.dbg.declare(metadata i64* %n.dbg.spill28, metadata !2101, metadata !DIExpression()), !dbg !2108
  store i64 %_33, i64* %self6, align 8, !dbg !2108
  %addr = load i64, i64* %self6, align 8, !dbg !2036
  store i64 %addr, i64* %addr.dbg.spill, align 8, !dbg !2036
  call void @llvm.dbg.declare(metadata i64* %addr.dbg.spill, metadata !2110, metadata !DIExpression()), !dbg !2116
  %11 = bitcast i8** %2 to i64*, !dbg !2116
  store i64 %addr, i64* %11, align 8, !dbg !2116
  %ptr = load i8*, i8** %2, align 8, !dbg !2116
  store i8* %ptr, i8** %ptr.dbg.spill29, align 8, !dbg !2116
  call void @llvm.dbg.declare(metadata i8** %ptr.dbg.spill29, metadata !2118, metadata !DIExpression()), !dbg !2122
  br label %bb13, !dbg !2116

bb1:                                              ; preds = %start
  store i64 %_4, i64* %size.dbg.spill, align 8, !dbg !2124
  call void @llvm.dbg.declare(metadata i64* %size.dbg.spill, metadata !1915, metadata !DIExpression()), !dbg !2125
  br i1 %zeroed, label %bb3, label %bb4, !dbg !2126

bb4:                                              ; preds = %bb1
  %12 = getelementptr inbounds { i64, i64 }, { i64, i64 }* %layout, i32 0, i32 0, !dbg !2127
  %13 = load i64, i64* %12, align 8, !dbg !2127
  %14 = getelementptr inbounds { i64, i64 }, { i64, i64 }* %layout, i32 0, i32 1, !dbg !2127
  %15 = load i64, i64* %14, align 8, !dbg !2127, !range !1211, !noundef !26
  %16 = getelementptr inbounds { i64, i64 }, { i64, i64 }* %layout2, i32 0, i32 0, !dbg !2127
  store i64 %13, i64* %16, align 8, !dbg !2127
  %17 = getelementptr inbounds { i64, i64 }, { i64, i64 }* %layout2, i32 0, i32 1, !dbg !2127
  store i64 %15, i64* %17, align 8, !dbg !2127
  store { i64, i64 }* %layout2, { i64, i64 }** %self.dbg.spill16, align 8, !dbg !1961
  call void @llvm.dbg.declare(metadata { i64, i64 }** %self.dbg.spill16, metadata !2128, metadata !DIExpression()), !dbg !2132
  %18 = bitcast { i64, i64 }* %layout2 to i64*, !dbg !2132
  %_67 = load i64, i64* %18, align 8, !dbg !2132
  store { i64, i64 }* %layout2, { i64, i64 }** %self.dbg.spill17, align 8, !dbg !1961
  call void @llvm.dbg.declare(metadata { i64, i64 }** %self.dbg.spill17, metadata !2082, metadata !DIExpression()), !dbg !2134
  %19 = getelementptr inbounds { i64, i64 }, { i64, i64 }* %layout2, i32 0, i32 1, !dbg !2134
  %20 = load i64, i64* %19, align 8, !dbg !2134, !range !1211, !noundef !26
  store i64 %20, i64* %self11, align 8, !dbg !2134
  %_74 = load i64, i64* %self11, align 8, !dbg !2089, !range !1211, !noundef !26
  store i64 %_74, i64* %n.dbg.spill18, align 8, !dbg !2089
  call void @llvm.dbg.declare(metadata i64* %n.dbg.spill18, metadata !2135, metadata !DIExpression()), !dbg !2142
  store i64 %_74, i64* %self10, align 8, !dbg !2142
  %_69 = load i64, i64* %self10, align 8, !dbg !2078
  %21 = call i8* @__rust_alloc(i64 %_67, i64 %_69) #15, !dbg !1961
  store i8* %21, i8** %raw_ptr, align 8, !dbg !1961
  br label %bb15, !dbg !1961

bb3:                                              ; preds = %bb1
  %22 = getelementptr inbounds { i64, i64 }, { i64, i64 }* %layout, i32 0, i32 0, !dbg !2144
  %23 = load i64, i64* %22, align 8, !dbg !2144
  %24 = getelementptr inbounds { i64, i64 }, { i64, i64 }* %layout, i32 0, i32 1, !dbg !2144
  %25 = load i64, i64* %24, align 8, !dbg !2144, !range !1211, !noundef !26
  %26 = getelementptr inbounds { i64, i64 }, { i64, i64 }* %layout1, i32 0, i32 0, !dbg !2144
  store i64 %23, i64* %26, align 8, !dbg !2144
  %27 = getelementptr inbounds { i64, i64 }, { i64, i64 }* %layout1, i32 0, i32 1, !dbg !2144
  store i64 %25, i64* %27, align 8, !dbg !2144
  store { i64, i64 }* %layout1, { i64, i64 }** %self.dbg.spill14, align 8, !dbg !1956
  call void @llvm.dbg.declare(metadata { i64, i64 }** %self.dbg.spill14, metadata !2145, metadata !DIExpression()), !dbg !2149
  %28 = bitcast { i64, i64 }* %layout1 to i64*, !dbg !2149
  %_57 = load i64, i64* %28, align 8, !dbg !2149
  store { i64, i64 }* %layout1, { i64, i64 }** %self.dbg.spill15, align 8, !dbg !1956
  call void @llvm.dbg.declare(metadata { i64, i64 }** %self.dbg.spill15, metadata !2066, metadata !DIExpression()), !dbg !2151
  %29 = getelementptr inbounds { i64, i64 }, { i64, i64 }* %layout1, i32 0, i32 1, !dbg !2151
  %30 = load i64, i64* %29, align 8, !dbg !2151, !range !1211, !noundef !26
  store i64 %30, i64* %self9, align 8, !dbg !2151
  %_64 = load i64, i64* %self9, align 8, !dbg !2073, !range !1211, !noundef !26
  store i64 %_64, i64* %n.dbg.spill, align 8, !dbg !2073
  call void @llvm.dbg.declare(metadata i64* %n.dbg.spill, metadata !2152, metadata !DIExpression()), !dbg !2159
  store i64 %_64, i64* %self8, align 8, !dbg !2159
  %_59 = load i64, i64* %self8, align 8, !dbg !2062
  %31 = call i8* @__rust_alloc_zeroed(i64 %_57, i64 %_59) #15, !dbg !1956
  store i8* %31, i8** %raw_ptr, align 8, !dbg !1956
  br label %bb14, !dbg !1956

bb14:                                             ; preds = %bb3
  br label %bb5, !dbg !2161

bb5:                                              ; preds = %bb15, %bb14
  %_18 = load i8*, i8** %raw_ptr, align 8, !dbg !2162
; call core::ptr::non_null::NonNull<T>::new
  %32 = call i8* @"_ZN4core3ptr8non_null16NonNull$LT$T$GT$3new17hc739bec02c7381b9E"(i8* %_18), !dbg !2006
  store i8* %32, i8** %self4, align 8, !dbg !2006
  br label %bb6, !dbg !2006

bb15:                                             ; preds = %bb4
  br label %bb5, !dbg !2161

bb6:                                              ; preds = %bb5
  %33 = bitcast i8** %self4 to {}**, !dbg !2017
  %34 = load {}*, {}** %33, align 8, !dbg !2017
  %35 = icmp eq {}* %34, null, !dbg !2017
  %_77 = select i1 %35, i64 0, i64 1, !dbg !2017
  switch i64 %_77, label %bb17 [
    i64 0, label %bb16
    i64 1, label %bb18
  ], !dbg !2017

bb17:                                             ; preds = %bb6
  unreachable, !dbg !2017

bb16:                                             ; preds = %bb6
  %36 = bitcast i8** %self3 to {}**, !dbg !2017
  store {}* null, {}** %36, align 8, !dbg !2017
  br label %bb19, !dbg !2017

bb18:                                             ; preds = %bb6
  %v = load i8*, i8** %self4, align 8, !dbg !2017, !nonnull !26, !noundef !26
  store i8* %v, i8** %v.dbg.spill, align 8, !dbg !2017
  call void @llvm.dbg.declare(metadata i8** %v.dbg.spill, metadata !2014, metadata !DIExpression()), !dbg !2163
  store i8* %v, i8** %self3, align 8, !dbg !2163
  br label %bb19, !dbg !2017

bb19:                                             ; preds = %bb16, %bb18
  %37 = bitcast i8** %self3 to {}**, !dbg !2005
  %38 = load {}*, {}** %37, align 8, !dbg !2005
  %39 = icmp eq {}* %38, null, !dbg !2005
  %_80 = select i1 %39, i64 1, i64 0, !dbg !2005
  switch i64 %_80, label %bb21 [
    i64 0, label %bb22
    i64 1, label %bb20
  ], !dbg !2005

bb21:                                             ; preds = %bb19
  unreachable, !dbg !2005

bb22:                                             ; preds = %bb19
  %v19 = load i8*, i8** %self3, align 8, !dbg !2005, !nonnull !26, !noundef !26
  store i8* %v19, i8** %v.dbg.spill20, align 8, !dbg !2005
  call void @llvm.dbg.declare(metadata i8** %v.dbg.spill20, metadata !1999, metadata !DIExpression()), !dbg !2164
  store i8* %v19, i8** %_15, align 8, !dbg !2164
  br label %bb7, !dbg !2005

bb20:                                             ; preds = %bb19
  %40 = bitcast i8** %_15 to {}**, !dbg !2090
  store {}* null, {}** %40, align 8, !dbg !2090
  br label %bb7, !dbg !2005

bb7:                                              ; preds = %bb22, %bb20
  %41 = bitcast i8** %_15 to {}**, !dbg !2006
  %42 = load {}*, {}** %41, align 8, !dbg !2006
  %43 = icmp eq {}* %42, null, !dbg !2006
  %_20 = select i1 %43, i64 1, i64 0, !dbg !2006
  switch i64 %_20, label %bb9 [
    i64 0, label %bb8
    i64 1, label %bb10
  ], !dbg !2006

bb9:                                              ; preds = %bb7
  unreachable, !dbg !2006

bb8:                                              ; preds = %bb7
  %val = load i8*, i8** %_15, align 8, !dbg !2006, !nonnull !26, !noundef !26
  store i8* %val, i8** %val.dbg.spill, align 8, !dbg !2006
  call void @llvm.dbg.declare(metadata i8** %val.dbg.spill, metadata !1936, metadata !DIExpression()), !dbg !2165
  store i8* %val, i8** %ptr.dbg.spill, align 8, !dbg !2165
  call void @llvm.dbg.declare(metadata i8** %ptr.dbg.spill, metadata !1919, metadata !DIExpression()), !dbg !2166
  store i8* %val, i8** %data.dbg.spill, align 8, !dbg !2167
  call void @llvm.dbg.declare(metadata i8** %data.dbg.spill, metadata !2168, metadata !DIExpression()), !dbg !2173
  store i64 %_4, i64* %len.dbg.spill, align 8, !dbg !2175
  call void @llvm.dbg.declare(metadata i64* %len.dbg.spill, metadata !2172, metadata !DIExpression()), !dbg !2173
  store i8* %val, i8** %self.dbg.spill21, align 8, !dbg !2173
  call void @llvm.dbg.declare(metadata i8** %self.dbg.spill21, metadata !2176, metadata !DIExpression()), !dbg !2180
  store i8* %val, i8** %data.dbg.spill22, align 8, !dbg !2180
  call void @llvm.dbg.declare(metadata i8** %data.dbg.spill22, metadata !2182, metadata !DIExpression()), !dbg !2193
  store i64 %_4, i64* %len.dbg.spill23, align 8, !dbg !2173
  call void @llvm.dbg.declare(metadata i64* %len.dbg.spill23, metadata !2192, metadata !DIExpression()), !dbg !2193
  store i8* %val, i8** %self.dbg.spill24, align 8, !dbg !2193
  call void @llvm.dbg.declare(metadata i8** %self.dbg.spill24, metadata !2195, metadata !DIExpression()), !dbg !2203
  %data_address = bitcast i8* %val to {}*, !dbg !2203
  store {}* %data_address, {}** %data_address.dbg.spill, align 8, !dbg !2203
  call void @llvm.dbg.declare(metadata {}** %data_address.dbg.spill, metadata !2205, metadata !DIExpression()), !dbg !2212
  store i64 %_4, i64* %metadata.dbg.spill, align 8, !dbg !2193
  call void @llvm.dbg.declare(metadata i64* %metadata.dbg.spill, metadata !2211, metadata !DIExpression()), !dbg !2212
  %44 = bitcast { i8*, i64 }* %_94 to {}**, !dbg !2212
  store {}* %data_address, {}** %44, align 8, !dbg !2212
  %45 = getelementptr inbounds { i8*, i64 }, { i8*, i64 }* %_94, i32 0, i32 1, !dbg !2212
  store i64 %_4, i64* %45, align 8, !dbg !2212
  %46 = bitcast %"core::ptr::metadata::PtrRepr<[u8]>"* %_93 to { i8*, i64 }*, !dbg !2212
  %47 = getelementptr inbounds { i8*, i64 }, { i8*, i64 }* %_94, i32 0, i32 0, !dbg !2212
  %48 = load i8*, i8** %47, align 8, !dbg !2212
  %49 = getelementptr inbounds { i8*, i64 }, { i8*, i64 }* %_94, i32 0, i32 1, !dbg !2212
  %50 = load i64, i64* %49, align 8, !dbg !2212
  %51 = getelementptr inbounds { i8*, i64 }, { i8*, i64 }* %46, i32 0, i32 0, !dbg !2212
  store i8* %48, i8** %51, align 8, !dbg !2212
  %52 = getelementptr inbounds { i8*, i64 }, { i8*, i64 }* %46, i32 0, i32 1, !dbg !2212
  store i64 %50, i64* %52, align 8, !dbg !2212
  %53 = bitcast %"core::ptr::metadata::PtrRepr<[u8]>"* %_93 to { [0 x i8]*, i64 }*, !dbg !2212
  %54 = getelementptr inbounds { [0 x i8]*, i64 }, { [0 x i8]*, i64 }* %53, i32 0, i32 0, !dbg !2212
  %ptr.0 = load [0 x i8]*, [0 x i8]** %54, align 8, !dbg !2212
  %55 = getelementptr inbounds { [0 x i8]*, i64 }, { [0 x i8]*, i64 }* %53, i32 0, i32 1, !dbg !2212
  %ptr.1 = load i64, i64* %55, align 8, !dbg !2212
  %56 = getelementptr inbounds { [0 x i8]*, i64 }, { [0 x i8]*, i64 }* %ptr.dbg.spill25, i32 0, i32 0, !dbg !2212
  store [0 x i8]* %ptr.0, [0 x i8]** %56, align 8, !dbg !2212
  %57 = getelementptr inbounds { [0 x i8]*, i64 }, { [0 x i8]*, i64 }* %ptr.dbg.spill25, i32 0, i32 1, !dbg !2212
  store i64 %ptr.1, i64* %57, align 8, !dbg !2212
  call void @llvm.dbg.declare(metadata { [0 x i8]*, i64 }* %ptr.dbg.spill25, metadata !2214, metadata !DIExpression()), !dbg !2220
  %58 = bitcast { i8*, i64 }* %_24 to { [0 x i8]*, i64 }*, !dbg !2220
  %59 = getelementptr inbounds { [0 x i8]*, i64 }, { [0 x i8]*, i64 }* %58, i32 0, i32 0, !dbg !2220
  store [0 x i8]* %ptr.0, [0 x i8]** %59, align 8, !dbg !2220
  %60 = getelementptr inbounds { [0 x i8]*, i64 }, { [0 x i8]*, i64 }* %58, i32 0, i32 1, !dbg !2220
  store i64 %ptr.1, i64* %60, align 8, !dbg !2220
  %61 = getelementptr inbounds { i8*, i64 }, { i8*, i64 }* %_24, i32 0, i32 0, !dbg !2222
  %62 = load i8*, i8** %61, align 8, !dbg !2222, !nonnull !26, !noundef !26
  %63 = getelementptr inbounds { i8*, i64 }, { i8*, i64 }* %_24, i32 0, i32 1, !dbg !2222
  %64 = load i64, i64* %63, align 8, !dbg !2222
  %65 = getelementptr inbounds { i8*, i64 }, { i8*, i64 }* %3, i32 0, i32 0, !dbg !2222
  store i8* %62, i8** %65, align 8, !dbg !2222
  %66 = getelementptr inbounds { i8*, i64 }, { i8*, i64 }* %3, i32 0, i32 1, !dbg !2222
  store i64 %64, i64* %66, align 8, !dbg !2222
  br label %bb11, !dbg !2223

bb10:                                             ; preds = %bb7
; call <T as core::convert::From<T>>::from
  call void @"_ZN50_$LT$T$u20$as$u20$core..convert..From$LT$T$GT$$GT$4from17h5a2efa16e49566acE"(), !dbg !2091
  br label %bb23, !dbg !2091

bb23:                                             ; preds = %bb10
  %67 = bitcast { i8*, i64 }* %3 to {}**, !dbg !2091
  store {}* null, {}** %67, align 8, !dbg !2091
  br label %bb12, !dbg !2224

bb12:                                             ; preds = %bb11, %bb23
  %68 = getelementptr inbounds { i8*, i64 }, { i8*, i64 }* %3, i32 0, i32 0, !dbg !2224
  %69 = load i8*, i8** %68, align 8, !dbg !2224
  %70 = getelementptr inbounds { i8*, i64 }, { i8*, i64 }* %3, i32 0, i32 1, !dbg !2224
  %71 = load i64, i64* %70, align 8, !dbg !2224
  %72 = insertvalue { i8*, i64 } undef, i8* %69, 0, !dbg !2224
  %73 = insertvalue { i8*, i64 } %72, i64 %71, 1, !dbg !2224
  ret { i8*, i64 } %73, !dbg !2224

bb11:                                             ; preds = %bb13, %bb8
  br label %bb12, !dbg !2224

bb13:                                             ; preds = %bb2
  store i8* %ptr, i8** %data, align 8, !dbg !2122
  %self30 = load i8*, i8** %data, align 8, !dbg !1948, !nonnull !26, !noundef !26
  store i8* %self30, i8** %self.dbg.spill31, align 8, !dbg !1948
  call void @llvm.dbg.declare(metadata i8** %self.dbg.spill31, metadata !2225, metadata !DIExpression()), !dbg !2229
  store i8* %self30, i8** %data.dbg.spill32, align 8, !dbg !2229
  call void @llvm.dbg.declare(metadata i8** %data.dbg.spill32, metadata !2231, metadata !DIExpression()), !dbg !2236
  store i8* %self30, i8** %self.dbg.spill33, align 8, !dbg !2236
  call void @llvm.dbg.declare(metadata i8** %self.dbg.spill33, metadata !2238, metadata !DIExpression()), !dbg !2242
  %data_address34 = bitcast i8* %self30 to {}*, !dbg !2242
  store {}* %data_address34, {}** %data_address.dbg.spill35, align 8, !dbg !2242
  call void @llvm.dbg.declare(metadata {}** %data_address.dbg.spill35, metadata !2244, metadata !DIExpression()), !dbg !2249
  %74 = bitcast { i8*, i64 }* %_51 to {}**, !dbg !2249
  store {}* %data_address34, {}** %74, align 8, !dbg !2249
  %75 = getelementptr inbounds { i8*, i64 }, { i8*, i64 }* %_51, i32 0, i32 1, !dbg !2249
  store i64 0, i64* %75, align 8, !dbg !2249
  %76 = bitcast %"core::ptr::metadata::PtrRepr<[u8]>"* %_50 to { i8*, i64 }*, !dbg !2249
  %77 = getelementptr inbounds { i8*, i64 }, { i8*, i64 }* %_51, i32 0, i32 0, !dbg !2249
  %78 = load i8*, i8** %77, align 8, !dbg !2249
  %79 = getelementptr inbounds { i8*, i64 }, { i8*, i64 }* %_51, i32 0, i32 1, !dbg !2249
  %80 = load i64, i64* %79, align 8, !dbg !2249
  %81 = getelementptr inbounds { i8*, i64 }, { i8*, i64 }* %76, i32 0, i32 0, !dbg !2249
  store i8* %78, i8** %81, align 8, !dbg !2249
  %82 = getelementptr inbounds { i8*, i64 }, { i8*, i64 }* %76, i32 0, i32 1, !dbg !2249
  store i64 %80, i64* %82, align 8, !dbg !2249
  %83 = bitcast %"core::ptr::metadata::PtrRepr<[u8]>"* %_50 to { [0 x i8]*, i64 }*, !dbg !2249
  %84 = getelementptr inbounds { [0 x i8]*, i64 }, { [0 x i8]*, i64 }* %83, i32 0, i32 0, !dbg !2249
  %ptr.036 = load [0 x i8]*, [0 x i8]** %84, align 8, !dbg !2249
  %85 = getelementptr inbounds { [0 x i8]*, i64 }, { [0 x i8]*, i64 }* %83, i32 0, i32 1, !dbg !2249
  %ptr.137 = load i64, i64* %85, align 8, !dbg !2249
  %86 = getelementptr inbounds { [0 x i8]*, i64 }, { [0 x i8]*, i64 }* %ptr.dbg.spill38, i32 0, i32 0, !dbg !2249
  store [0 x i8]* %ptr.036, [0 x i8]** %86, align 8, !dbg !2249
  %87 = getelementptr inbounds { [0 x i8]*, i64 }, { [0 x i8]*, i64 }* %ptr.dbg.spill38, i32 0, i32 1, !dbg !2249
  store i64 %ptr.137, i64* %87, align 8, !dbg !2249
  call void @llvm.dbg.declare(metadata { [0 x i8]*, i64 }* %ptr.dbg.spill38, metadata !2251, metadata !DIExpression()), !dbg !2255
  %88 = bitcast { i8*, i64 }* %_6 to { [0 x i8]*, i64 }*, !dbg !2255
  %89 = getelementptr inbounds { [0 x i8]*, i64 }, { [0 x i8]*, i64 }* %88, i32 0, i32 0, !dbg !2255
  store [0 x i8]* %ptr.036, [0 x i8]** %89, align 8, !dbg !2255
  %90 = getelementptr inbounds { [0 x i8]*, i64 }, { [0 x i8]*, i64 }* %88, i32 0, i32 1, !dbg !2255
  store i64 %ptr.137, i64* %90, align 8, !dbg !2255
  %91 = getelementptr inbounds { i8*, i64 }, { i8*, i64 }* %_6, i32 0, i32 0, !dbg !2257
  %92 = load i8*, i8** %91, align 8, !dbg !2257, !nonnull !26, !noundef !26
  %93 = getelementptr inbounds { i8*, i64 }, { i8*, i64 }* %_6, i32 0, i32 1, !dbg !2257
  %94 = load i64, i64* %93, align 8, !dbg !2257
  %95 = getelementptr inbounds { i8*, i64 }, { i8*, i64 }* %3, i32 0, i32 0, !dbg !2257
  store i8* %92, i8** %95, align 8, !dbg !2257
  %96 = getelementptr inbounds { i8*, i64 }, { i8*, i64 }* %3, i32 0, i32 1, !dbg !2257
  store i64 %94, i64* %96, align 8, !dbg !2257
  br label %bb11, !dbg !2258
}

; alloc::alloc::box_free
; Function Attrs: inlinehint nonlazybind uwtable
define void @_ZN5alloc5alloc8box_free17ha9bd49e80e121074E(i8* %0, i64 %1) unnamed_addr #0 personality i32 (i32, i32, i64, %"unwind::libunwind::_Unwind_Exception"*, %"unwind::libunwind::_Unwind_Context"*)* @rust_eh_personality !dbg !2259 {
start:
  %2 = alloca { i8*, i32 }, align 8
  %ptr.dbg.spill19 = alloca i8*, align 8
  %self.dbg.spill18 = alloca i8*, align 8
  %self.dbg.spill17 = alloca i8*, align 8
  %ptr.dbg.spill = alloca i8*, align 8
  %self.dbg.spill15 = alloca { i8*, i64 }, align 8
  %self.dbg.spill14 = alloca { i8*, i64 }, align 8
  %self.dbg.spill13 = alloca { i8*, i64 }, align 8
  %3 = alloca i64, align 8
  %align.dbg.spill10 = alloca i64, align 8
  %align.dbg.spill9 = alloca i64, align 8
  %size.dbg.spill8 = alloca i64, align 8
  %align.dbg.spill = alloca i64, align 8
  %4 = alloca i64, align 8
  %self.dbg.spill7 = alloca { i8*, i64 }, align 8
  %self.dbg.spill4 = alloca { i8*, i64 }*, align 8
  %self.dbg.spill3 = alloca { i8*, i64 }*, align 8
  %size.dbg.spill = alloca i64, align 8
  %5 = alloca i64, align 8
  %self.dbg.spill2 = alloca { i8*, i64 }, align 8
  %self.dbg.spill1 = alloca { i8*, i64 }*, align 8
  %self.dbg.spill = alloca { i8*, i64 }*, align 8
  %pointer = alloca i8*, align 8
  %unique = alloca i8*, align 8
  %_15 = alloca i8*, align 8
  %layout = alloca { i64, i64 }, align 8
  %alloc = alloca %"alloc::alloc::Global", align 1
  %ptr = alloca { i8*, i64 }, align 8
  %6 = getelementptr inbounds { i8*, i64 }, { i8*, i64 }* %ptr, i32 0, i32 0
  store i8* %0, i8** %6, align 8
  %7 = getelementptr inbounds { i8*, i64 }, { i8*, i64 }* %ptr, i32 0, i32 1
  store i64 %1, i64* %7, align 8
  call void @llvm.dbg.declare(metadata { i8*, i64 }* %ptr, metadata !2268, metadata !DIExpression()), !dbg !2276
  call void @llvm.dbg.declare(metadata %"alloc::alloc::Global"* %alloc, metadata !2269, metadata !DIExpression()), !dbg !2277
  call void @llvm.dbg.declare(metadata { i64, i64 }* %layout, metadata !2274, metadata !DIExpression()), !dbg !2278
  call void @llvm.dbg.declare(metadata i8** %unique, metadata !2279, metadata !DIExpression()), !dbg !2283
  call void @llvm.dbg.declare(metadata i8** %pointer, metadata !2285, metadata !DIExpression()), !dbg !2292
  store { i8*, i64 }* %ptr, { i8*, i64 }** %self.dbg.spill, align 8, !dbg !2301
  call void @llvm.dbg.declare(metadata { i8*, i64 }** %self.dbg.spill, metadata !2302, metadata !DIExpression()), !dbg !2309
  store { i8*, i64 }* %ptr, { i8*, i64 }** %self.dbg.spill1, align 8, !dbg !2309
  call void @llvm.dbg.declare(metadata { i8*, i64 }** %self.dbg.spill1, metadata !2310, metadata !DIExpression()), !dbg !2317
  %8 = getelementptr inbounds { i8*, i64 }, { i8*, i64 }* %ptr, i32 0, i32 0, !dbg !2317
  %self.0 = load i8*, i8** %8, align 8, !dbg !2317, !nonnull !26, !noundef !26
  %9 = getelementptr inbounds { i8*, i64 }, { i8*, i64 }* %ptr, i32 0, i32 1, !dbg !2317
  %self.1 = load i64, i64* %9, align 8, !dbg !2317
  %10 = getelementptr inbounds { i8*, i64 }, { i8*, i64 }* %self.dbg.spill2, i32 0, i32 0, !dbg !2317
  store i8* %self.0, i8** %10, align 8, !dbg !2317
  %11 = getelementptr inbounds { i8*, i64 }, { i8*, i64 }* %self.dbg.spill2, i32 0, i32 1, !dbg !2317
  store i64 %self.1, i64* %11, align 8, !dbg !2317
  call void @llvm.dbg.declare(metadata { i8*, i64 }* %self.dbg.spill2, metadata !2319, metadata !DIExpression()), !dbg !2325
  %_22.0 = bitcast i8* %self.0 to [0 x i8]*, !dbg !2325
  %12 = mul nsw i64 %self.1, 1, !dbg !2327
  store i64 %12, i64* %5, align 8, !dbg !2327
  %size = load i64, i64* %5, align 8, !dbg !2327
  store i64 %size, i64* %size.dbg.spill, align 8, !dbg !2327
  call void @llvm.dbg.declare(metadata i64* %size.dbg.spill, metadata !2270, metadata !DIExpression()), !dbg !2328
  br label %bb1, !dbg !2327

bb1:                                              ; preds = %start
  store { i8*, i64 }* %ptr, { i8*, i64 }** %self.dbg.spill3, align 8, !dbg !2329
  call void @llvm.dbg.declare(metadata { i8*, i64 }** %self.dbg.spill3, metadata !2330, metadata !DIExpression()), !dbg !2334
  store { i8*, i64 }* %ptr, { i8*, i64 }** %self.dbg.spill4, align 8, !dbg !2334
  call void @llvm.dbg.declare(metadata { i8*, i64 }** %self.dbg.spill4, metadata !2335, metadata !DIExpression()), !dbg !2339
  %13 = getelementptr inbounds { i8*, i64 }, { i8*, i64 }* %ptr, i32 0, i32 0, !dbg !2339
  %self.05 = load i8*, i8** %13, align 8, !dbg !2339, !nonnull !26, !noundef !26
  %14 = getelementptr inbounds { i8*, i64 }, { i8*, i64 }* %ptr, i32 0, i32 1, !dbg !2339
  %self.16 = load i64, i64* %14, align 8, !dbg !2339
  %15 = getelementptr inbounds { i8*, i64 }, { i8*, i64 }* %self.dbg.spill7, i32 0, i32 0, !dbg !2339
  store i8* %self.05, i8** %15, align 8, !dbg !2339
  %16 = getelementptr inbounds { i8*, i64 }, { i8*, i64 }* %self.dbg.spill7, i32 0, i32 1, !dbg !2339
  store i64 %self.16, i64* %16, align 8, !dbg !2339
  call void @llvm.dbg.declare(metadata { i8*, i64 }* %self.dbg.spill7, metadata !2341, metadata !DIExpression()), !dbg !2345
  %_26.0 = bitcast i8* %self.05 to [0 x i8]*, !dbg !2345
  %17 = mul nsw i64 %self.16, 1, !dbg !2347
  store i64 1, i64* %4, align 8, !dbg !2347
  %align = load i64, i64* %4, align 8, !dbg !2347
  store i64 %align, i64* %align.dbg.spill, align 8, !dbg !2347
  call void @llvm.dbg.declare(metadata i64* %align.dbg.spill, metadata !2272, metadata !DIExpression()), !dbg !2348
  br label %bb2, !dbg !2347

bb2:                                              ; preds = %bb1
  store i64 %size, i64* %size.dbg.spill8, align 8, !dbg !2349
  call void @llvm.dbg.declare(metadata i64* %size.dbg.spill8, metadata !2350, metadata !DIExpression()), !dbg !2357
  store i64 %align, i64* %align.dbg.spill9, align 8, !dbg !2359
  call void @llvm.dbg.declare(metadata i64* %align.dbg.spill9, metadata !2356, metadata !DIExpression()), !dbg !2357
  store i64 %align, i64* %align.dbg.spill10, align 8, !dbg !2357
  call void @llvm.dbg.declare(metadata i64* %align.dbg.spill10, metadata !2360, metadata !DIExpression()), !dbg !2367
  store i64 %align, i64* %3, align 8, !dbg !2367
  %_28 = load i64, i64* %3, align 8, !dbg !2367, !range !1211, !noundef !26
  br label %bb7, !dbg !2367

bb7:                                              ; preds = %bb2
  %18 = bitcast { i64, i64 }* %layout to i64*, !dbg !2357
  store i64 %size, i64* %18, align 8, !dbg !2357
  %19 = getelementptr inbounds { i64, i64 }, { i64, i64 }* %layout, i32 0, i32 1, !dbg !2357
  store i64 %_28, i64* %19, align 8, !dbg !2357
  %20 = getelementptr inbounds { i8*, i64 }, { i8*, i64 }* %ptr, i32 0, i32 0, !dbg !2300
  %self.011 = load i8*, i8** %20, align 8, !dbg !2300, !nonnull !26, !noundef !26
  %21 = getelementptr inbounds { i8*, i64 }, { i8*, i64 }* %ptr, i32 0, i32 1, !dbg !2300
  %self.112 = load i64, i64* %21, align 8, !dbg !2300
  %22 = getelementptr inbounds { i8*, i64 }, { i8*, i64 }* %self.dbg.spill13, i32 0, i32 0, !dbg !2300
  store i8* %self.011, i8** %22, align 8, !dbg !2300
  %23 = getelementptr inbounds { i8*, i64 }, { i8*, i64 }* %self.dbg.spill13, i32 0, i32 1, !dbg !2300
  store i64 %self.112, i64* %23, align 8, !dbg !2300
  call void @llvm.dbg.declare(metadata { i8*, i64 }* %self.dbg.spill13, metadata !2298, metadata !DIExpression()), !dbg !2369
  %24 = getelementptr inbounds { i8*, i64 }, { i8*, i64 }* %self.dbg.spill14, i32 0, i32 0, !dbg !2369
  store i8* %self.011, i8** %24, align 8, !dbg !2369
  %25 = getelementptr inbounds { i8*, i64 }, { i8*, i64 }* %self.dbg.spill14, i32 0, i32 1, !dbg !2369
  store i64 %self.112, i64* %25, align 8, !dbg !2369
  call void @llvm.dbg.declare(metadata { i8*, i64 }* %self.dbg.spill14, metadata !2370, metadata !DIExpression()), !dbg !2376
  %26 = getelementptr inbounds { i8*, i64 }, { i8*, i64 }* %self.dbg.spill15, i32 0, i32 0, !dbg !2376
  store i8* %self.011, i8** %26, align 8, !dbg !2376
  %27 = getelementptr inbounds { i8*, i64 }, { i8*, i64 }* %self.dbg.spill15, i32 0, i32 1, !dbg !2376
  store i64 %self.112, i64* %27, align 8, !dbg !2376
  call void @llvm.dbg.declare(metadata { i8*, i64 }* %self.dbg.spill15, metadata !2378, metadata !DIExpression()), !dbg !2382
  %_37.0 = bitcast i8* %self.011 to [0 x i8]*, !dbg !2382
  %ptr16 = bitcast [0 x i8]* %_37.0 to i8*, !dbg !2376
  store i8* %ptr16, i8** %ptr.dbg.spill, align 8, !dbg !2376
  call void @llvm.dbg.declare(metadata i8** %ptr.dbg.spill, metadata !2384, metadata !DIExpression()), !dbg !2388
  store i8* %ptr16, i8** %pointer, align 8, !dbg !2388
  %_41 = load i8*, i8** %pointer, align 8, !dbg !2292, !nonnull !26, !noundef !26
  store i8* %_41, i8** %unique, align 8, !dbg !2292
  %self = load i8*, i8** %unique, align 8, !dbg !2283, !nonnull !26, !noundef !26
  store i8* %self, i8** %self.dbg.spill17, align 8, !dbg !2283
  call void @llvm.dbg.declare(metadata i8** %self.dbg.spill17, metadata !2390, metadata !DIExpression()), !dbg !2394
  store i8* %self, i8** %self.dbg.spill18, align 8, !dbg !2394
  call void @llvm.dbg.declare(metadata i8** %self.dbg.spill18, metadata !2396, metadata !DIExpression()), !dbg !2400
  store i8* %self, i8** %ptr.dbg.spill19, align 8, !dbg !2400
  call void @llvm.dbg.declare(metadata i8** %ptr.dbg.spill19, metadata !2402, metadata !DIExpression()), !dbg !2406
  store i8* %self, i8** %_15, align 8, !dbg !2406
  %28 = getelementptr inbounds { i64, i64 }, { i64, i64 }* %layout, i32 0, i32 0, !dbg !2408
  %_18.0 = load i64, i64* %28, align 8, !dbg !2408
  %29 = getelementptr inbounds { i64, i64 }, { i64, i64 }* %layout, i32 0, i32 1, !dbg !2408
  %_18.1 = load i64, i64* %29, align 8, !dbg !2408, !range !1211, !noundef !26
  %30 = load i8*, i8** %_15, align 8, !dbg !2409, !nonnull !26, !noundef !26
; invoke <alloc::alloc::Global as core::alloc::Allocator>::deallocate
  invoke void @"_ZN63_$LT$alloc..alloc..Global$u20$as$u20$core..alloc..Allocator$GT$10deallocate17h45bd1516edcc9d3bE"(%"alloc::alloc::Global"* align 1 %alloc, i8* %30, i64 %_18.0, i64 %_18.1)
          to label %bb3 unwind label %cleanup, !dbg !2409

bb5:                                              ; preds = %cleanup
  br label %bb6, !dbg !2410

cleanup:                                          ; preds = %bb7
  %31 = landingpad { i8*, i32 }
          cleanup
  %32 = extractvalue { i8*, i32 } %31, 0
  %33 = extractvalue { i8*, i32 } %31, 1
  %34 = getelementptr inbounds { i8*, i32 }, { i8*, i32 }* %2, i32 0, i32 0
  store i8* %32, i8** %34, align 8
  %35 = getelementptr inbounds { i8*, i32 }, { i8*, i32 }* %2, i32 0, i32 1
  store i32 %33, i32* %35, align 8
  br label %bb5

bb3:                                              ; preds = %bb7
  br label %bb4, !dbg !2410

bb6:                                              ; preds = %bb5
  %36 = bitcast { i8*, i32 }* %2 to i8**, !dbg !2411
  %37 = load i8*, i8** %36, align 8, !dbg !2411
  %38 = getelementptr inbounds { i8*, i32 }, { i8*, i32 }* %2, i32 0, i32 1, !dbg !2411
  %39 = load i32, i32* %38, align 8, !dbg !2411
  %40 = insertvalue { i8*, i32 } undef, i8* %37, 0, !dbg !2411
  %41 = insertvalue { i8*, i32 } %40, i32 %39, 1, !dbg !2411
  resume { i8*, i32 } %41, !dbg !2411

bb4:                                              ; preds = %bb3
  ret void, !dbg !2412
}

; alloc::slice::<impl alloc::borrow::ToOwned for [T]>::to_owned
; Function Attrs: nonlazybind uwtable
define void @"_ZN5alloc5slice64_$LT$impl$u20$alloc..borrow..ToOwned$u20$for$u20$$u5b$T$u5d$$GT$8to_owned17hd771beb52e788fccE"(%"alloc::vec::Vec<u8>"* sret(%"alloc::vec::Vec<u8>") %0, [0 x i8]* align 1 %self.0, i64 %self.1) unnamed_addr #1 !dbg !2413 {
start:
  %s.dbg.spill = alloca { [0 x i8]*, i64 }, align 8
  %self.dbg.spill3 = alloca { [0 x i8]*, i64 }, align 8
  %self.dbg.spill2 = alloca { [0 x i8]*, i64 }, align 8
  %alloc.dbg.spill1 = alloca %"alloc::alloc::Global", align 1
  %alloc.dbg.spill = alloca %"alloc::alloc::Global", align 1
  %self.dbg.spill = alloca { [0 x i8]*, i64 }, align 8
  %1 = getelementptr inbounds { [0 x i8]*, i64 }, { [0 x i8]*, i64 }* %self.dbg.spill, i32 0, i32 0
  store [0 x i8]* %self.0, [0 x i8]** %1, align 8
  %2 = getelementptr inbounds { [0 x i8]*, i64 }, { [0 x i8]*, i64 }* %self.dbg.spill, i32 0, i32 1
  store i64 %self.1, i64* %2, align 8
  call void @llvm.dbg.declare(metadata { [0 x i8]*, i64 }* %self.dbg.spill, metadata !2418, metadata !DIExpression()), !dbg !2419
  call void @llvm.dbg.declare(metadata %"alloc::alloc::Global"* %alloc.dbg.spill, metadata !2420, metadata !DIExpression()), !dbg !2425
  call void @llvm.dbg.declare(metadata %"alloc::alloc::Global"* %alloc.dbg.spill1, metadata !2431, metadata !DIExpression()), !dbg !2435
  %3 = getelementptr inbounds { [0 x i8]*, i64 }, { [0 x i8]*, i64 }* %self.dbg.spill2, i32 0, i32 0, !dbg !2430
  store [0 x i8]* %self.0, [0 x i8]** %3, align 8, !dbg !2430
  %4 = getelementptr inbounds { [0 x i8]*, i64 }, { [0 x i8]*, i64 }* %self.dbg.spill2, i32 0, i32 1, !dbg !2430
  store i64 %self.1, i64* %4, align 8, !dbg !2430
  call void @llvm.dbg.declare(metadata { [0 x i8]*, i64 }* %self.dbg.spill2, metadata !2429, metadata !DIExpression()), !dbg !2437
  %5 = getelementptr inbounds { [0 x i8]*, i64 }, { [0 x i8]*, i64 }* %self.dbg.spill3, i32 0, i32 0, !dbg !2437
  store [0 x i8]* %self.0, [0 x i8]** %5, align 8, !dbg !2437
  %6 = getelementptr inbounds { [0 x i8]*, i64 }, { [0 x i8]*, i64 }* %self.dbg.spill3, i32 0, i32 1, !dbg !2437
  store i64 %self.1, i64* %6, align 8, !dbg !2437
  call void @llvm.dbg.declare(metadata { [0 x i8]*, i64 }* %self.dbg.spill3, metadata !2424, metadata !DIExpression()), !dbg !2425
  %7 = getelementptr inbounds { [0 x i8]*, i64 }, { [0 x i8]*, i64 }* %s.dbg.spill, i32 0, i32 0, !dbg !2425
  store [0 x i8]* %self.0, [0 x i8]** %7, align 8, !dbg !2425
  %8 = getelementptr inbounds { [0 x i8]*, i64 }, { [0 x i8]*, i64 }* %s.dbg.spill, i32 0, i32 1, !dbg !2425
  store i64 %self.1, i64* %8, align 8, !dbg !2425
  call void @llvm.dbg.declare(metadata { [0 x i8]*, i64 }* %s.dbg.spill, metadata !2434, metadata !DIExpression()), !dbg !2435
; call <T as alloc::slice::hack::ConvertVec>::to_vec
  call void @"_ZN52_$LT$T$u20$as$u20$alloc..slice..hack..ConvertVec$GT$6to_vec17hb7bb30850b3c25e0E"(%"alloc::vec::Vec<u8>"* sret(%"alloc::vec::Vec<u8>") %0, [0 x i8]* align 1 %self.0, i64 %self.1), !dbg !2435
  br label %bb1, !dbg !2435

bb1:                                              ; preds = %start
  ret void, !dbg !2438
}

; alloc::string::String::as_str
; Function Attrs: inlinehint nonlazybind uwtable
define internal { [0 x i8]*, i64 } @_ZN5alloc6string6String6as_str17h74b8ff1aa7ae436aE(%"alloc::string::String"* align 8 %self) unnamed_addr #0 !dbg !2439 {
start:
  %self.dbg.spill = alloca %"alloc::string::String"*, align 8
  store %"alloc::string::String"* %self, %"alloc::string::String"** %self.dbg.spill, align 8
  call void @llvm.dbg.declare(metadata %"alloc::string::String"** %self.dbg.spill, metadata !2443, metadata !DIExpression()), !dbg !2444
; call <alloc::string::String as core::ops::deref::Deref>::deref
  %0 = call { [0 x i8]*, i64 } @"_ZN65_$LT$alloc..string..String$u20$as$u20$core..ops..deref..Deref$GT$5deref17h747584ef08f8105aE"(%"alloc::string::String"* align 8 %self), !dbg !2445
  %1 = extractvalue { [0 x i8]*, i64 } %0, 0, !dbg !2445
  %2 = extractvalue { [0 x i8]*, i64 } %0, 1, !dbg !2445
  br label %bb1, !dbg !2445

bb1:                                              ; preds = %start
  %3 = insertvalue { [0 x i8]*, i64 } undef, [0 x i8]* %1, 0, !dbg !2446
  %4 = insertvalue { [0 x i8]*, i64 } %3, i64 %2, 1, !dbg !2446
  ret { [0 x i8]*, i64 } %4, !dbg !2446
}

; alloc::raw_vec::RawVec<T,A>::allocate_in
; Function Attrs: nonlazybind uwtable
define { i8*, i64 } @"_ZN5alloc7raw_vec19RawVec$LT$T$C$A$GT$11allocate_in17hb7853e13fe7466c9E"(i64 %capacity, i1 zeroext %0) unnamed_addr #1 personality i32 (i32, i32, i64, %"unwind::libunwind::_Unwind_Exception"*, %"unwind::libunwind::_Unwind_Context"*)* @rust_eh_personality !dbg !2447 {
start:
  %ptr.dbg.spill6 = alloca i8*, align 8
  %ptr.dbg.spill5 = alloca i8*, align 8
  %ptr.dbg.spill4 = alloca i8*, align 8
  %self.dbg.spill3 = alloca { i8*, i64 }, align 8
  %self.dbg.spill = alloca { i8*, i64 }, align 8
  %ptr.dbg.spill2 = alloca { i8*, i64 }, align 8
  %ptr.dbg.spill = alloca { i8*, i64 }, align 8
  %layout.dbg.spill1 = alloca { i64, i64 }, align 8
  %layout.dbg.spill = alloca { i64, i64 }, align 8
  %1 = alloca { i8*, i32 }, align 8
  %capacity.dbg.spill = alloca i64, align 8
  %_46 = alloca i8*, align 8
  %_37 = alloca i8, align 1
  %self = alloca i8*, align 8
  %_31 = alloca i8*, align 8
  %result = alloca { i8*, i64 }, align 8
  %_15 = alloca { i64, i64 }, align 8
  %_10 = alloca { i64, i64 }, align 8
  %_4 = alloca i8, align 1
  %2 = alloca { i8*, i64 }, align 8
  %alloc = alloca %"alloc::alloc::Global", align 1
  %init = alloca i8, align 1
  %3 = zext i1 %0 to i8
  store i8 %3, i8* %init, align 1
  store i64 %capacity, i64* %capacity.dbg.spill, align 8
  call void @llvm.dbg.declare(metadata i64* %capacity.dbg.spill, metadata !2451, metadata !DIExpression()), !dbg !2464
  call void @llvm.dbg.declare(metadata i8* %init, metadata !2452, metadata !DIExpression()), !dbg !2465
  call void @llvm.dbg.declare(metadata %"alloc::alloc::Global"* %alloc, metadata !2453, metadata !DIExpression()), !dbg !2466
  call void @llvm.dbg.declare(metadata { i8*, i64 }* %result, metadata !2458, metadata !DIExpression()), !dbg !2467
  call void @llvm.dbg.declare(metadata i8** %self, metadata !2468, metadata !DIExpression()), !dbg !2472
  store i8 1, i8* %_37, align 1, !dbg !2474
  br i1 false, label %bb1, label %bb2, !dbg !2474

bb1:                                              ; preds = %start
  store i8 1, i8* %_4, align 1, !dbg !2474
  br label %bb3, !dbg !2474

bb2:                                              ; preds = %start
  %_6 = icmp eq i64 %capacity, 0, !dbg !2475
  %4 = zext i1 %_6 to i8, !dbg !2474
  store i8 %4, i8* %_4, align 1, !dbg !2474
  br label %bb3, !dbg !2474

bb3:                                              ; preds = %bb1, %bb2
  %5 = load i8, i8* %_4, align 1, !dbg !2474, !range !685, !noundef !26
  %6 = trunc i8 %5 to i1, !dbg !2474
  br i1 %6, label %bb4, label %bb6, !dbg !2474

bb6:                                              ; preds = %bb3
; invoke core::alloc::layout::Layout::array
  %7 = invoke { i64, i64 } @_ZN4core5alloc6layout6Layout5array17hd3d68a432436475dE(i64 %capacity)
          to label %bb7 unwind label %cleanup, !dbg !2476

bb4:                                              ; preds = %bb3
  store i8 0, i8* %_37, align 1, !dbg !2477
; invoke alloc::raw_vec::RawVec<T,A>::new_in
  %8 = invoke { i8*, i64 } @"_ZN5alloc7raw_vec19RawVec$LT$T$C$A$GT$6new_in17h62b6c4e7cf57a6ceE"()
          to label %bb5 unwind label %cleanup, !dbg !2478

bb26:                                             ; preds = %cleanup
  %9 = load i8, i8* %_37, align 1, !dbg !2479, !range !685, !noundef !26
  %10 = trunc i8 %9 to i1, !dbg !2479
  br i1 %10, label %bb25, label %bb24, !dbg !2479

cleanup:                                          ; preds = %bb20, %bb16, %bb14, %bb11, %bb8, %bb6, %bb4
  %11 = landingpad { i8*, i32 }
          cleanup
  %12 = extractvalue { i8*, i32 } %11, 0
  %13 = extractvalue { i8*, i32 } %11, 1
  %14 = getelementptr inbounds { i8*, i32 }, { i8*, i32 }* %1, i32 0, i32 0
  store i8* %12, i8** %14, align 8
  %15 = getelementptr inbounds { i8*, i32 }, { i8*, i32 }* %1, i32 0, i32 1
  store i32 %13, i32* %15, align 8
  br label %bb26

bb5:                                              ; preds = %bb4
  store { i8*, i64 } %8, { i8*, i64 }* %2, align 8, !dbg !2478
  br label %bb23, !dbg !2480

bb23:                                             ; preds = %bb22, %bb5
  %16 = getelementptr inbounds { i8*, i64 }, { i8*, i64 }* %2, i32 0, i32 0, !dbg !2481
  %17 = load i8*, i8** %16, align 8, !dbg !2481, !nonnull !26, !noundef !26
  %18 = getelementptr inbounds { i8*, i64 }, { i8*, i64 }* %2, i32 0, i32 1, !dbg !2481
  %19 = load i64, i64* %18, align 8, !dbg !2481
  %20 = insertvalue { i8*, i64 } undef, i8* %17, 0, !dbg !2481
  %21 = insertvalue { i8*, i64 } %20, i64 %19, 1, !dbg !2481
  ret { i8*, i64 } %21, !dbg !2481

bb7:                                              ; preds = %bb6
  store { i64, i64 } %7, { i64, i64 }* %_10, align 8, !dbg !2476
  %22 = getelementptr inbounds { i64, i64 }, { i64, i64 }* %_10, i32 0, i32 1, !dbg !2476
  %23 = load i64, i64* %22, align 8, !dbg !2476, !range !1235, !noundef !26
  %24 = icmp eq i64 %23, 0, !dbg !2476
  %_12 = select i1 %24, i64 1, i64 0, !dbg !2476
  switch i64 %_12, label %bb9 [
    i64 0, label %bb10
    i64 1, label %bb8
  ], !dbg !2482

bb9:                                              ; preds = %bb7
  unreachable, !dbg !2476

bb10:                                             ; preds = %bb7
  %25 = getelementptr inbounds { i64, i64 }, { i64, i64 }* %_10, i32 0, i32 0, !dbg !2483
  %layout.0 = load i64, i64* %25, align 8, !dbg !2483
  %26 = getelementptr inbounds { i64, i64 }, { i64, i64 }* %_10, i32 0, i32 1, !dbg !2483
  %layout.1 = load i64, i64* %26, align 8, !dbg !2483, !range !1211, !noundef !26
  %27 = getelementptr inbounds { i64, i64 }, { i64, i64 }* %layout.dbg.spill, i32 0, i32 0, !dbg !2483
  store i64 %layout.0, i64* %27, align 8, !dbg !2483
  %28 = getelementptr inbounds { i64, i64 }, { i64, i64 }* %layout.dbg.spill, i32 0, i32 1, !dbg !2483
  store i64 %layout.1, i64* %28, align 8, !dbg !2483
  call void @llvm.dbg.declare(metadata { i64, i64 }* %layout.dbg.spill, metadata !2456, metadata !DIExpression()), !dbg !2484
  %29 = getelementptr inbounds { i64, i64 }, { i64, i64 }* %layout.dbg.spill1, i32 0, i32 0, !dbg !2485
  store i64 %layout.0, i64* %29, align 8, !dbg !2485
  %30 = getelementptr inbounds { i64, i64 }, { i64, i64 }* %layout.dbg.spill1, i32 0, i32 1, !dbg !2485
  store i64 %layout.1, i64* %30, align 8, !dbg !2485
  call void @llvm.dbg.declare(metadata { i64, i64 }* %layout.dbg.spill1, metadata !2454, metadata !DIExpression()), !dbg !2486
  %31 = getelementptr inbounds { i64, i64 }, { i64, i64 }* %_15, i32 0, i32 1, !dbg !2487
  store i64 -9223372036854775807, i64* %31, align 8, !dbg !2487
  %32 = getelementptr inbounds { i64, i64 }, { i64, i64 }* %_15, i32 0, i32 1, !dbg !2524
  %33 = load i64, i64* %32, align 8, !dbg !2524, !range !2525, !noundef !26
  %34 = sub i64 %33, -9223372036854775807, !dbg !2524
  %35 = icmp eq i64 %34, 0, !dbg !2524
  %_18 = select i1 %35, i64 0, i64 1, !dbg !2524
  switch i64 %_18, label %bb12 [
    i64 0, label %bb13
    i64 1, label %bb11
  ], !dbg !2526

bb8:                                              ; preds = %bb7
; invoke alloc::raw_vec::capacity_overflow
  invoke void @_ZN5alloc7raw_vec17capacity_overflow17hc80d63a780181a5dE() #12
          to label %unreachable unwind label %cleanup, !dbg !2527

unreachable:                                      ; preds = %bb20, %bb11, %bb8
  unreachable

bb12:                                             ; preds = %bb10
  unreachable, !dbg !2524

bb13:                                             ; preds = %bb10
  %36 = load i8, i8* %init, align 1, !dbg !2528, !range !685, !noundef !26
  %37 = trunc i8 %36 to i1, !dbg !2528
  %_21 = zext i1 %37 to i64, !dbg !2528
  switch i64 %_21, label %bb15 [
    i64 0, label %bb16
    i64 1, label %bb14
  ], !dbg !2529

bb11:                                             ; preds = %bb10
; invoke alloc::raw_vec::capacity_overflow
  invoke void @_ZN5alloc7raw_vec17capacity_overflow17hc80d63a780181a5dE() #12
          to label %unreachable unwind label %cleanup, !dbg !2530

bb15:                                             ; preds = %bb13
  unreachable, !dbg !2528

bb16:                                             ; preds = %bb13
; invoke <alloc::alloc::Global as core::alloc::Allocator>::allocate
  %38 = invoke { i8*, i64 } @"_ZN63_$LT$alloc..alloc..Global$u20$as$u20$core..alloc..Allocator$GT$8allocate17h4eaa9050a9471fcfE"(%"alloc::alloc::Global"* align 1 %alloc, i64 %layout.0, i64 %layout.1)
          to label %bb17 unwind label %cleanup, !dbg !2531

bb14:                                             ; preds = %bb13
; invoke <alloc::alloc::Global as core::alloc::Allocator>::allocate_zeroed
  %39 = invoke { i8*, i64 } @"_ZN63_$LT$alloc..alloc..Global$u20$as$u20$core..alloc..Allocator$GT$15allocate_zeroed17hf8e946c7d2929672E"(%"alloc::alloc::Global"* align 1 %alloc, i64 %layout.0, i64 %layout.1)
          to label %bb18 unwind label %cleanup, !dbg !2532

bb18:                                             ; preds = %bb14
  store { i8*, i64 } %39, { i8*, i64 }* %result, align 8, !dbg !2532
  br label %bb19, !dbg !2533

bb19:                                             ; preds = %bb17, %bb18
  %40 = bitcast { i8*, i64 }* %result to {}**, !dbg !2534
  %41 = load {}*, {}** %40, align 8, !dbg !2534
  %42 = icmp eq {}* %41, null, !dbg !2534
  %_27 = select i1 %42, i64 1, i64 0, !dbg !2534
  switch i64 %_27, label %bb21 [
    i64 0, label %bb22
    i64 1, label %bb20
  ], !dbg !2535

bb17:                                             ; preds = %bb16
  store { i8*, i64 } %38, { i8*, i64 }* %result, align 8, !dbg !2531
  br label %bb19, !dbg !2536

bb21:                                             ; preds = %bb19
  unreachable, !dbg !2534

bb22:                                             ; preds = %bb19
  %43 = getelementptr inbounds { i8*, i64 }, { i8*, i64 }* %result, i32 0, i32 0, !dbg !2537
  %ptr.0 = load i8*, i8** %43, align 8, !dbg !2537, !nonnull !26, !noundef !26
  %44 = getelementptr inbounds { i8*, i64 }, { i8*, i64 }* %result, i32 0, i32 1, !dbg !2537
  %ptr.1 = load i64, i64* %44, align 8, !dbg !2537
  %45 = getelementptr inbounds { i8*, i64 }, { i8*, i64 }* %ptr.dbg.spill, i32 0, i32 0, !dbg !2537
  store i8* %ptr.0, i8** %45, align 8, !dbg !2537
  %46 = getelementptr inbounds { i8*, i64 }, { i8*, i64 }* %ptr.dbg.spill, i32 0, i32 1, !dbg !2537
  store i64 %ptr.1, i64* %46, align 8, !dbg !2537
  call void @llvm.dbg.declare(metadata { i8*, i64 }* %ptr.dbg.spill, metadata !2462, metadata !DIExpression()), !dbg !2538
  %47 = getelementptr inbounds { i8*, i64 }, { i8*, i64 }* %ptr.dbg.spill2, i32 0, i32 0, !dbg !2539
  store i8* %ptr.0, i8** %47, align 8, !dbg !2539
  %48 = getelementptr inbounds { i8*, i64 }, { i8*, i64 }* %ptr.dbg.spill2, i32 0, i32 1, !dbg !2539
  store i64 %ptr.1, i64* %48, align 8, !dbg !2539
  call void @llvm.dbg.declare(metadata { i8*, i64 }* %ptr.dbg.spill2, metadata !2460, metadata !DIExpression()), !dbg !2540
  %49 = getelementptr inbounds { i8*, i64 }, { i8*, i64 }* %self.dbg.spill, i32 0, i32 0, !dbg !2473
  store i8* %ptr.0, i8** %49, align 8, !dbg !2473
  %50 = getelementptr inbounds { i8*, i64 }, { i8*, i64 }* %self.dbg.spill, i32 0, i32 1, !dbg !2473
  store i64 %ptr.1, i64* %50, align 8, !dbg !2473
  call void @llvm.dbg.declare(metadata { i8*, i64 }* %self.dbg.spill, metadata !2541, metadata !DIExpression()), !dbg !2545
  %51 = getelementptr inbounds { i8*, i64 }, { i8*, i64 }* %self.dbg.spill3, i32 0, i32 0, !dbg !2545
  store i8* %ptr.0, i8** %51, align 8, !dbg !2545
  %52 = getelementptr inbounds { i8*, i64 }, { i8*, i64 }* %self.dbg.spill3, i32 0, i32 1, !dbg !2545
  store i64 %ptr.1, i64* %52, align 8, !dbg !2545
  call void @llvm.dbg.declare(metadata { i8*, i64 }* %self.dbg.spill3, metadata !2546, metadata !DIExpression()), !dbg !2550
  %_41.0 = bitcast i8* %ptr.0 to [0 x i8]*, !dbg !2550
  %ptr = bitcast [0 x i8]* %_41.0 to i8*, !dbg !2545
  store i8* %ptr, i8** %ptr.dbg.spill4, align 8, !dbg !2545
  call void @llvm.dbg.declare(metadata i8** %ptr.dbg.spill4, metadata !2552, metadata !DIExpression()), !dbg !2556
  store i8* %ptr, i8** %self, align 8, !dbg !2556
  %_45 = load i8*, i8** %self, align 8, !dbg !2472
  store i8* %_45, i8** %ptr.dbg.spill5, align 8, !dbg !2472
  call void @llvm.dbg.declare(metadata i8** %ptr.dbg.spill5, metadata !2558, metadata !DIExpression()), !dbg !2564
  store i8* %_45, i8** %ptr.dbg.spill6, align 8, !dbg !2564
  call void @llvm.dbg.declare(metadata i8** %ptr.dbg.spill6, metadata !2566, metadata !DIExpression()), !dbg !2570
  store i8* %_45, i8** %_46, align 8, !dbg !2570
  %53 = load i8*, i8** %_46, align 8, !dbg !2564, !nonnull !26, !noundef !26
  store i8* %53, i8** %_31, align 8, !dbg !2564
  %54 = bitcast { i8*, i64 }* %2 to i8**, !dbg !2572
  %55 = load i8*, i8** %_31, align 8, !dbg !2572, !nonnull !26, !noundef !26
  store i8* %55, i8** %54, align 8, !dbg !2572
  %56 = getelementptr inbounds { i8*, i64 }, { i8*, i64 }* %2, i32 0, i32 1, !dbg !2572
  store i64 %capacity, i64* %56, align 8, !dbg !2572
  %57 = bitcast { i8*, i64 }* %2 to %"alloc::alloc::Global"*, !dbg !2572
  br label %bb23, !dbg !2480

bb20:                                             ; preds = %bb19
; invoke alloc::alloc::handle_alloc_error
  invoke void @_ZN5alloc5alloc18handle_alloc_error17h0eb7a9e63f5042c6E(i64 %layout.0, i64 %layout.1) #12
          to label %unreachable unwind label %cleanup, !dbg !2573

bb24:                                             ; preds = %bb25, %bb26
  %58 = bitcast { i8*, i32 }* %1 to i8**, !dbg !2574
  %59 = load i8*, i8** %58, align 8, !dbg !2574
  %60 = getelementptr inbounds { i8*, i32 }, { i8*, i32 }* %1, i32 0, i32 1, !dbg !2574
  %61 = load i32, i32* %60, align 8, !dbg !2574
  %62 = insertvalue { i8*, i32 } undef, i8* %59, 0, !dbg !2574
  %63 = insertvalue { i8*, i32 } %62, i32 %61, 1, !dbg !2574
  resume { i8*, i32 } %63, !dbg !2574

bb25:                                             ; preds = %bb26
  br label %bb24, !dbg !2479
}

; alloc::raw_vec::RawVec<T,A>::current_memory
; Function Attrs: nonlazybind uwtable
define void @"_ZN5alloc7raw_vec19RawVec$LT$T$C$A$GT$14current_memory17hb676db2ab53775bbE"(%"core::option::Option<(core::ptr::non_null::NonNull<u8>, core::alloc::layout::Layout)>"* sret(%"core::option::Option<(core::ptr::non_null::NonNull<u8>, core::alloc::layout::Layout)>") %0, { i8*, i64 }* align 8 %self) unnamed_addr #1 !dbg !2575 {
start:
  %ptr.dbg.spill = alloca i8*, align 8
  %self.dbg.spill5 = alloca i8*, align 8
  %self.dbg.spill4 = alloca i8*, align 8
  %self.dbg.spill3 = alloca i8*, align 8
  %layout.dbg.spill = alloca { i64, i64 }, align 8
  %t.dbg.spill = alloca { i64, i64 }, align 8
  %self.dbg.spill = alloca { i8*, i64 }*, align 8
  %pointer = alloca i8*, align 8
  %_11 = alloca i8*, align 8
  %_9 = alloca { i8*, { i64, i64 } }, align 8
  %self1 = alloca { i64, i64 }, align 8
  %_2 = alloca i8, align 1
  store { i8*, i64 }* %self, { i8*, i64 }** %self.dbg.spill, align 8
  call void @llvm.dbg.declare(metadata { i8*, i64 }** %self.dbg.spill, metadata !2596, metadata !DIExpression()), !dbg !2599
  call void @llvm.dbg.declare(metadata { i64, i64 }* %self1, metadata !2600, metadata !DIExpression()), !dbg !2609
  call void @llvm.dbg.declare(metadata i8** %pointer, metadata !2611, metadata !DIExpression()), !dbg !2615
  br i1 false, label %bb1, label %bb2, !dbg !2624

bb1:                                              ; preds = %start
  store i8 1, i8* %_2, align 1, !dbg !2624
  br label %bb3, !dbg !2624

bb2:                                              ; preds = %start
  %1 = getelementptr inbounds { i8*, i64 }, { i8*, i64 }* %self, i32 0, i32 1, !dbg !2625
  %_5 = load i64, i64* %1, align 8, !dbg !2625
  %_4 = icmp eq i64 %_5, 0, !dbg !2625
  %2 = zext i1 %_4 to i8, !dbg !2624
  store i8 %2, i8* %_2, align 1, !dbg !2624
  br label %bb3, !dbg !2624

bb3:                                              ; preds = %bb1, %bb2
  %3 = load i8, i8* %_2, align 1, !dbg !2624, !range !685, !noundef !26
  %4 = trunc i8 %3 to i1, !dbg !2624
  br i1 %4, label %bb4, label %bb5, !dbg !2624

bb5:                                              ; preds = %bb3
  %5 = getelementptr inbounds { i8*, i64 }, { i8*, i64 }* %self, i32 0, i32 1, !dbg !2626
  %_8 = load i64, i64* %5, align 8, !dbg !2626
; call core::alloc::layout::Layout::array
  %6 = call { i64, i64 } @_ZN4core5alloc6layout6Layout5array17hd3d68a432436475dE(i64 %_8), !dbg !2610
  store { i64, i64 } %6, { i64, i64 }* %self1, align 8, !dbg !2610
  br label %bb6, !dbg !2610

bb4:                                              ; preds = %bb3
  %7 = getelementptr inbounds %"core::option::Option<(core::ptr::non_null::NonNull<u8>, core::alloc::layout::Layout)>", %"core::option::Option<(core::ptr::non_null::NonNull<u8>, core::alloc::layout::Layout)>"* %0, i32 0, i32 1, !dbg !2627
  store i64 0, i64* %7, align 8, !dbg !2627
  br label %bb8, !dbg !2628

bb8:                                              ; preds = %bb7, %bb4
  ret void, !dbg !2629

bb6:                                              ; preds = %bb5
  %8 = getelementptr inbounds { i64, i64 }, { i64, i64 }* %self1, i32 0, i32 1, !dbg !2609
  %9 = load i64, i64* %8, align 8, !dbg !2609, !range !1235, !noundef !26
  %10 = icmp eq i64 %9, 0, !dbg !2609
  %_15 = select i1 %10, i64 1, i64 0, !dbg !2609
  switch i64 %_15, label %bb10 [
    i64 0, label %bb11
    i64 1, label %bb9
  ], !dbg !2609

bb10:                                             ; preds = %bb6
  unreachable, !dbg !2609

bb11:                                             ; preds = %bb6
  %11 = getelementptr inbounds { i64, i64 }, { i64, i64 }* %self1, i32 0, i32 0, !dbg !2609
  %t.0 = load i64, i64* %11, align 8, !dbg !2609
  %12 = getelementptr inbounds { i64, i64 }, { i64, i64 }* %self1, i32 0, i32 1, !dbg !2609
  %t.1 = load i64, i64* %12, align 8, !dbg !2609, !range !1211, !noundef !26
  %13 = getelementptr inbounds { i64, i64 }, { i64, i64 }* %t.dbg.spill, i32 0, i32 0, !dbg !2609
  store i64 %t.0, i64* %13, align 8, !dbg !2609
  %14 = getelementptr inbounds { i64, i64 }, { i64, i64 }* %t.dbg.spill, i32 0, i32 1, !dbg !2609
  store i64 %t.1, i64* %14, align 8, !dbg !2609
  call void @llvm.dbg.declare(metadata { i64, i64 }* %t.dbg.spill, metadata !2606, metadata !DIExpression()), !dbg !2630
  %15 = getelementptr inbounds { i64, i64 }, { i64, i64 }* %layout.dbg.spill, i32 0, i32 0, !dbg !2630
  store i64 %t.0, i64* %15, align 8, !dbg !2630
  %16 = getelementptr inbounds { i64, i64 }, { i64, i64 }* %layout.dbg.spill, i32 0, i32 1, !dbg !2630
  store i64 %t.1, i64* %16, align 8, !dbg !2630
  call void @llvm.dbg.declare(metadata { i64, i64 }* %layout.dbg.spill, metadata !2597, metadata !DIExpression()), !dbg !2631
  %17 = bitcast { i8*, i64 }* %self to i8**, !dbg !2623
  %self2 = load i8*, i8** %17, align 8, !dbg !2623, !nonnull !26, !noundef !26
  store i8* %self2, i8** %self.dbg.spill3, align 8, !dbg !2623
  call void @llvm.dbg.declare(metadata i8** %self.dbg.spill3, metadata !2621, metadata !DIExpression()), !dbg !2632
  store i8* %self2, i8** %self.dbg.spill4, align 8, !dbg !2632
  call void @llvm.dbg.declare(metadata i8** %self.dbg.spill4, metadata !2633, metadata !DIExpression()), !dbg !2639
  store i8* %self2, i8** %self.dbg.spill5, align 8, !dbg !2639
  call void @llvm.dbg.declare(metadata i8** %self.dbg.spill5, metadata !2641, metadata !DIExpression()), !dbg !2645
  store i8* %self2, i8** %ptr.dbg.spill, align 8, !dbg !2639
  call void @llvm.dbg.declare(metadata i8** %ptr.dbg.spill, metadata !2647, metadata !DIExpression()), !dbg !2651
  store i8* %self2, i8** %pointer, align 8, !dbg !2651
  %_26 = load i8*, i8** %pointer, align 8, !dbg !2615, !nonnull !26, !noundef !26
  store i8* %_26, i8** %_11, align 8, !dbg !2615
  %18 = load i8*, i8** %_11, align 8, !dbg !2623, !nonnull !26, !noundef !26
; call <T as core::convert::Into<U>>::into
  %_10 = call i8* @"_ZN50_$LT$T$u20$as$u20$core..convert..Into$LT$U$GT$$GT$4into17h54abd76d613f16f4E"(i8* %18), !dbg !2623
  br label %bb7, !dbg !2623

bb9:                                              ; preds = %bb6
  unreachable, !dbg !2653

bb7:                                              ; preds = %bb11
  %19 = bitcast { i8*, { i64, i64 } }* %_9 to i8**, !dbg !2661
  store i8* %_10, i8** %19, align 8, !dbg !2661
  %20 = getelementptr inbounds { i8*, { i64, i64 } }, { i8*, { i64, i64 } }* %_9, i32 0, i32 1, !dbg !2661
  %21 = getelementptr inbounds { i64, i64 }, { i64, i64 }* %20, i32 0, i32 0, !dbg !2661
  store i64 %t.0, i64* %21, align 8, !dbg !2661
  %22 = getelementptr inbounds { i64, i64 }, { i64, i64 }* %20, i32 0, i32 1, !dbg !2661
  store i64 %t.1, i64* %22, align 8, !dbg !2661
  %23 = bitcast %"core::option::Option<(core::ptr::non_null::NonNull<u8>, core::alloc::layout::Layout)>"* %0 to %"core::option::Option<(core::ptr::non_null::NonNull<u8>, core::alloc::layout::Layout)>::Some"*, !dbg !2662
  %24 = bitcast %"core::option::Option<(core::ptr::non_null::NonNull<u8>, core::alloc::layout::Layout)>::Some"* %23 to { i8*, { i64, i64 } }*, !dbg !2662
  %25 = bitcast { i8*, { i64, i64 } }* %24 to i8*, !dbg !2662
  %26 = bitcast { i8*, { i64, i64 } }* %_9 to i8*, !dbg !2662
  call void @llvm.memcpy.p0i8.p0i8.i64(i8* align 8 %25, i8* align 8 %26, i64 24, i1 false), !dbg !2662
  br label %bb8, !dbg !2628
}

; alloc::raw_vec::RawVec<T,A>::new_in
; Function Attrs: nonlazybind uwtable
define { i8*, i64 } @"_ZN5alloc7raw_vec19RawVec$LT$T$C$A$GT$6new_in17h62b6c4e7cf57a6ceE"() unnamed_addr #1 personality i32 (i32, i32, i64, %"unwind::libunwind::_Unwind_Exception"*, %"unwind::libunwind::_Unwind_Context"*)* @rust_eh_personality !dbg !2663 {
start:
  %ptr.dbg.spill1 = alloca i8*, align 8
  %0 = alloca { i8*, i32 }, align 8
  %ptr.dbg.spill = alloca i8*, align 8
  %1 = alloca i8*, align 8
  %addr.dbg.spill = alloca i64, align 8
  %alloc.dbg.spill = alloca %"alloc::alloc::Global", align 1
  %pointer = alloca i8*, align 8
  %_2 = alloca i8*, align 8
  %2 = alloca { i8*, i64 }, align 8
  call void @llvm.dbg.declare(metadata %"alloc::alloc::Global"* %alloc.dbg.spill, metadata !2667, metadata !DIExpression()), !dbg !2668
  call void @llvm.dbg.declare(metadata i8** %pointer, metadata !2669, metadata !DIExpression()), !dbg !2673
  store i64 1, i64* %addr.dbg.spill, align 8, !dbg !2679
  call void @llvm.dbg.declare(metadata i64* %addr.dbg.spill, metadata !2691, metadata !DIExpression()), !dbg !2695
  %3 = bitcast i8** %1 to i64*, !dbg !2695
  store i64 1, i64* %3, align 8, !dbg !2695
  %ptr = load i8*, i8** %1, align 8, !dbg !2695
  store i8* %ptr, i8** %ptr.dbg.spill, align 8, !dbg !2695
  call void @llvm.dbg.declare(metadata i8** %ptr.dbg.spill, metadata !2687, metadata !DIExpression()), !dbg !2697
  br label %bb3, !dbg !2695

bb3:                                              ; preds = %start
  store i8* %ptr, i8** %ptr.dbg.spill1, align 8, !dbg !2697
  call void @llvm.dbg.declare(metadata i8** %ptr.dbg.spill1, metadata !2698, metadata !DIExpression()), !dbg !2702
  store i8* %ptr, i8** %pointer, align 8, !dbg !2702
  %_12 = load i8*, i8** %pointer, align 8, !dbg !2673, !nonnull !26, !noundef !26
  store i8* %_12, i8** %_2, align 8, !dbg !2673
  %4 = bitcast { i8*, i64 }* %2 to i8**, !dbg !2704
  %5 = load i8*, i8** %_2, align 8, !dbg !2704, !nonnull !26, !noundef !26
  store i8* %5, i8** %4, align 8, !dbg !2704
  %6 = getelementptr inbounds { i8*, i64 }, { i8*, i64 }* %2, i32 0, i32 1, !dbg !2704
  store i64 0, i64* %6, align 8, !dbg !2704
  %7 = bitcast { i8*, i64 }* %2 to %"alloc::alloc::Global"*, !dbg !2704
  %8 = getelementptr inbounds { i8*, i64 }, { i8*, i64 }* %2, i32 0, i32 0, !dbg !2705
  %9 = load i8*, i8** %8, align 8, !dbg !2705, !nonnull !26, !noundef !26
  %10 = getelementptr inbounds { i8*, i64 }, { i8*, i64 }* %2, i32 0, i32 1, !dbg !2705
  %11 = load i64, i64* %10, align 8, !dbg !2705
  %12 = insertvalue { i8*, i64 } undef, i8* %9, 0, !dbg !2705
  %13 = insertvalue { i8*, i64 } %12, i64 %11, 1, !dbg !2705
  ret { i8*, i64 } %13, !dbg !2705

bb1:                                              ; No predecessors!
  br label %bb2, !dbg !2706

bb2:                                              ; preds = %bb1
  %14 = bitcast { i8*, i32 }* %0 to i8**, !dbg !2707
  %15 = load i8*, i8** %14, align 8, !dbg !2707
  %16 = getelementptr inbounds { i8*, i32 }, { i8*, i32 }* %0, i32 0, i32 1, !dbg !2707
  %17 = load i32, i32* %16, align 8, !dbg !2707
  %18 = insertvalue { i8*, i32 } undef, i8* %15, 0, !dbg !2707
  %19 = insertvalue { i8*, i32 } %18, i32 %17, 1, !dbg !2707
  resume { i8*, i32 } %19, !dbg !2707
}

; <alloc::string::String as core::fmt::Display>::fmt
; Function Attrs: inlinehint nonlazybind uwtable
define internal zeroext i1 @"_ZN60_$LT$alloc..string..String$u20$as$u20$core..fmt..Display$GT$3fmt17h85117fc00f0a3c97E"(%"alloc::string::String"* align 8 %self, %"core::fmt::Formatter"* align 8 %f) unnamed_addr #0 !dbg !2708 {
start:
  %f.dbg.spill = alloca %"core::fmt::Formatter"*, align 8
  %self.dbg.spill = alloca %"alloc::string::String"*, align 8
  store %"alloc::string::String"* %self, %"alloc::string::String"** %self.dbg.spill, align 8
  call void @llvm.dbg.declare(metadata %"alloc::string::String"** %self.dbg.spill, metadata !2711, metadata !DIExpression()), !dbg !2713
  store %"core::fmt::Formatter"* %f, %"core::fmt::Formatter"** %f.dbg.spill, align 8
  call void @llvm.dbg.declare(metadata %"core::fmt::Formatter"** %f.dbg.spill, metadata !2712, metadata !DIExpression()), !dbg !2714
; call <alloc::string::String as core::ops::deref::Deref>::deref
  %0 = call { [0 x i8]*, i64 } @"_ZN65_$LT$alloc..string..String$u20$as$u20$core..ops..deref..Deref$GT$5deref17h747584ef08f8105aE"(%"alloc::string::String"* align 8 %self), !dbg !2715
  %_5.0 = extractvalue { [0 x i8]*, i64 } %0, 0, !dbg !2715
  %_5.1 = extractvalue { [0 x i8]*, i64 } %0, 1, !dbg !2715
  br label %bb1, !dbg !2715

bb1:                                              ; preds = %start
; call <str as core::fmt::Display>::fmt
  %1 = call zeroext i1 @"_ZN42_$LT$str$u20$as$u20$core..fmt..Display$GT$3fmt17hde81f4d22eef4d42E"([0 x i8]* align 1 %_5.0, i64 %_5.1, %"core::fmt::Formatter"* align 8 %f), !dbg !2716
  br label %bb2, !dbg !2716

bb2:                                              ; preds = %bb1
  ret i1 %1, !dbg !2717
}

; <I as core::iter::traits::collect::IntoIterator>::into_iter
; Function Attrs: inlinehint nonlazybind uwtable
define { i32, i32 } @"_ZN63_$LT$I$u20$as$u20$core..iter..traits..collect..IntoIterator$GT$9into_iter17h37df8f59f75fdd3cE"(i32 %self.0, i32 %self.1) unnamed_addr #0 !dbg !2718 {
start:
  %self.dbg.spill = alloca { i32, i32 }, align 4
  %0 = getelementptr inbounds { i32, i32 }, { i32, i32 }* %self.dbg.spill, i32 0, i32 0
  store i32 %self.0, i32* %0, align 4
  %1 = getelementptr inbounds { i32, i32 }, { i32, i32 }* %self.dbg.spill, i32 0, i32 1
  store i32 %self.1, i32* %1, align 4
  call void @llvm.dbg.declare(metadata { i32, i32 }* %self.dbg.spill, metadata !2726, metadata !DIExpression()), !dbg !2729
  %2 = insertvalue { i32, i32 } undef, i32 %self.0, 0, !dbg !2730
  %3 = insertvalue { i32, i32 } %2, i32 %self.1, 1, !dbg !2730
  ret { i32, i32 } %3, !dbg !2730
}

; <I as core::iter::traits::collect::IntoIterator>::into_iter
; Function Attrs: inlinehint nonlazybind uwtable
define { i64, i64 } @"_ZN63_$LT$I$u20$as$u20$core..iter..traits..collect..IntoIterator$GT$9into_iter17h514bad8e1237f4f8E"(i64 %self.0, i64 %self.1) unnamed_addr #0 !dbg !2731 {
start:
  %self.dbg.spill = alloca { i64, i64 }, align 8
  %0 = getelementptr inbounds { i64, i64 }, { i64, i64 }* %self.dbg.spill, i32 0, i32 0
  store i64 %self.0, i64* %0, align 8
  %1 = getelementptr inbounds { i64, i64 }, { i64, i64 }* %self.dbg.spill, i32 0, i32 1
  store i64 %self.1, i64* %1, align 8
  call void @llvm.dbg.declare(metadata { i64, i64 }* %self.dbg.spill, metadata !2735, metadata !DIExpression()), !dbg !2738
  %2 = insertvalue { i64, i64 } undef, i64 %self.0, 0, !dbg !2739
  %3 = insertvalue { i64, i64 } %2, i64 %self.1, 1, !dbg !2739
  ret { i64, i64 } %3, !dbg !2739
}

; <alloc::alloc::Global as core::alloc::Allocator>::deallocate
; Function Attrs: inlinehint nonlazybind uwtable
define internal void @"_ZN63_$LT$alloc..alloc..Global$u20$as$u20$core..alloc..Allocator$GT$10deallocate17h45bd1516edcc9d3bE"(%"alloc::alloc::Global"* align 1 %self, i8* %ptr, i64 %0, i64 %1) unnamed_addr #0 !dbg !2740 {
start:
  %n.dbg.spill = alloca i64, align 8
  %self.dbg.spill8 = alloca { i64, i64 }*, align 8
  %self.dbg.spill7 = alloca { i64, i64 }*, align 8
  %ptr.dbg.spill6 = alloca i8*, align 8
  %self.dbg.spill5 = alloca i8*, align 8
  %self.dbg.spill4 = alloca { i64, i64 }*, align 8
  %ptr.dbg.spill = alloca i8*, align 8
  %self.dbg.spill = alloca %"alloc::alloc::Global"*, align 8
  %self3 = alloca i64, align 8
  %self2 = alloca i64, align 8
  %layout1 = alloca { i64, i64 }, align 8
  %layout = alloca { i64, i64 }, align 8
  %2 = getelementptr inbounds { i64, i64 }, { i64, i64 }* %layout, i32 0, i32 0
  store i64 %0, i64* %2, align 8
  %3 = getelementptr inbounds { i64, i64 }, { i64, i64 }* %layout, i32 0, i32 1
  store i64 %1, i64* %3, align 8
  store %"alloc::alloc::Global"* %self, %"alloc::alloc::Global"** %self.dbg.spill, align 8
  call void @llvm.dbg.declare(metadata %"alloc::alloc::Global"** %self.dbg.spill, metadata !2745, metadata !DIExpression()), !dbg !2748
  store i8* %ptr, i8** %ptr.dbg.spill, align 8
  call void @llvm.dbg.declare(metadata i8** %ptr.dbg.spill, metadata !2746, metadata !DIExpression()), !dbg !2749
  call void @llvm.dbg.declare(metadata { i64, i64 }* %layout, metadata !2747, metadata !DIExpression()), !dbg !2750
  call void @llvm.dbg.declare(metadata { i64, i64 }* %layout1, metadata !2751, metadata !DIExpression()), !dbg !2757
  call void @llvm.dbg.declare(metadata i64* %self2, metadata !2759, metadata !DIExpression()), !dbg !2763
  call void @llvm.dbg.declare(metadata i64* %self3, metadata !2770, metadata !DIExpression()), !dbg !2774
  store { i64, i64 }* %layout, { i64, i64 }** %self.dbg.spill4, align 8, !dbg !2775
  call void @llvm.dbg.declare(metadata { i64, i64 }** %self.dbg.spill4, metadata !2776, metadata !DIExpression()), !dbg !2780
  %4 = bitcast { i64, i64 }* %layout to i64*, !dbg !2780
  %_4 = load i64, i64* %4, align 8, !dbg !2780
  %5 = icmp eq i64 %_4, 0, !dbg !2775
  br i1 %5, label %bb2, label %bb1, !dbg !2775

bb2:                                              ; preds = %start
  br label %bb3, !dbg !2781

bb1:                                              ; preds = %start
  store i8* %ptr, i8** %self.dbg.spill5, align 8, !dbg !2782
  call void @llvm.dbg.declare(metadata i8** %self.dbg.spill5, metadata !2783, metadata !DIExpression()), !dbg !2787
  store i8* %ptr, i8** %ptr.dbg.spill6, align 8, !dbg !2787
  call void @llvm.dbg.declare(metadata i8** %ptr.dbg.spill6, metadata !2756, metadata !DIExpression()), !dbg !2757
  %6 = getelementptr inbounds { i64, i64 }, { i64, i64 }* %layout, i32 0, i32 0, !dbg !2788
  %7 = load i64, i64* %6, align 8, !dbg !2788
  %8 = getelementptr inbounds { i64, i64 }, { i64, i64 }* %layout, i32 0, i32 1, !dbg !2788
  %9 = load i64, i64* %8, align 8, !dbg !2788, !range !1211, !noundef !26
  %10 = getelementptr inbounds { i64, i64 }, { i64, i64 }* %layout1, i32 0, i32 0, !dbg !2788
  store i64 %7, i64* %10, align 8, !dbg !2788
  %11 = getelementptr inbounds { i64, i64 }, { i64, i64 }* %layout1, i32 0, i32 1, !dbg !2788
  store i64 %9, i64* %11, align 8, !dbg !2788
  store { i64, i64 }* %layout1, { i64, i64 }** %self.dbg.spill7, align 8, !dbg !2757
  call void @llvm.dbg.declare(metadata { i64, i64 }** %self.dbg.spill7, metadata !2789, metadata !DIExpression()), !dbg !2793
  %12 = bitcast { i64, i64 }* %layout1 to i64*, !dbg !2793
  %_11 = load i64, i64* %12, align 8, !dbg !2793
  store { i64, i64 }* %layout1, { i64, i64 }** %self.dbg.spill8, align 8, !dbg !2757
  call void @llvm.dbg.declare(metadata { i64, i64 }** %self.dbg.spill8, metadata !2767, metadata !DIExpression()), !dbg !2795
  %13 = getelementptr inbounds { i64, i64 }, { i64, i64 }* %layout1, i32 0, i32 1, !dbg !2795
  %14 = load i64, i64* %13, align 8, !dbg !2795, !range !1211, !noundef !26
  store i64 %14, i64* %self3, align 8, !dbg !2795
  %_18 = load i64, i64* %self3, align 8, !dbg !2774, !range !1211, !noundef !26
  store i64 %_18, i64* %n.dbg.spill, align 8, !dbg !2774
  call void @llvm.dbg.declare(metadata i64* %n.dbg.spill, metadata !2796, metadata !DIExpression()), !dbg !2803
  store i64 %_18, i64* %self2, align 8, !dbg !2803
  %_13 = load i64, i64* %self2, align 8, !dbg !2763
  call void @__rust_dealloc(i8* %ptr, i64 %_11, i64 %_13) #15, !dbg !2757
  br label %bb4, !dbg !2757

bb4:                                              ; preds = %bb1
  br label %bb3, !dbg !2781

bb3:                                              ; preds = %bb2, %bb4
  ret void, !dbg !2805
}

; <alloc::alloc::Global as core::alloc::Allocator>::allocate_zeroed
; Function Attrs: inlinehint nonlazybind uwtable
define internal { i8*, i64 } @"_ZN63_$LT$alloc..alloc..Global$u20$as$u20$core..alloc..Allocator$GT$15allocate_zeroed17hf8e946c7d2929672E"(%"alloc::alloc::Global"* align 1 %self, i64 %layout.0, i64 %layout.1) unnamed_addr #0 !dbg !2806 {
start:
  %layout.dbg.spill = alloca { i64, i64 }, align 8
  %self.dbg.spill = alloca %"alloc::alloc::Global"*, align 8
  store %"alloc::alloc::Global"* %self, %"alloc::alloc::Global"** %self.dbg.spill, align 8
  call void @llvm.dbg.declare(metadata %"alloc::alloc::Global"** %self.dbg.spill, metadata !2810, metadata !DIExpression()), !dbg !2812
  %0 = getelementptr inbounds { i64, i64 }, { i64, i64 }* %layout.dbg.spill, i32 0, i32 0
  store i64 %layout.0, i64* %0, align 8
  %1 = getelementptr inbounds { i64, i64 }, { i64, i64 }* %layout.dbg.spill, i32 0, i32 1
  store i64 %layout.1, i64* %1, align 8
  call void @llvm.dbg.declare(metadata { i64, i64 }* %layout.dbg.spill, metadata !2811, metadata !DIExpression()), !dbg !2813
; call alloc::alloc::Global::alloc_impl
  %2 = call { i8*, i64 } @_ZN5alloc5alloc6Global10alloc_impl17h80dd30419e3b1a23E(%"alloc::alloc::Global"* align 1 %self, i64 %layout.0, i64 %layout.1, i1 zeroext true), !dbg !2814
  %3 = extractvalue { i8*, i64 } %2, 0, !dbg !2814
  %4 = extractvalue { i8*, i64 } %2, 1, !dbg !2814
  br label %bb1, !dbg !2814

bb1:                                              ; preds = %start
  %5 = insertvalue { i8*, i64 } undef, i8* %3, 0, !dbg !2815
  %6 = insertvalue { i8*, i64 } %5, i64 %4, 1, !dbg !2815
  ret { i8*, i64 } %6, !dbg !2815
}

; <alloc::alloc::Global as core::alloc::Allocator>::allocate
; Function Attrs: inlinehint nonlazybind uwtable
define internal { i8*, i64 } @"_ZN63_$LT$alloc..alloc..Global$u20$as$u20$core..alloc..Allocator$GT$8allocate17h4eaa9050a9471fcfE"(%"alloc::alloc::Global"* align 1 %self, i64 %layout.0, i64 %layout.1) unnamed_addr #0 !dbg !2816 {
start:
  %layout.dbg.spill = alloca { i64, i64 }, align 8
  %self.dbg.spill = alloca %"alloc::alloc::Global"*, align 8
  store %"alloc::alloc::Global"* %self, %"alloc::alloc::Global"** %self.dbg.spill, align 8
  call void @llvm.dbg.declare(metadata %"alloc::alloc::Global"** %self.dbg.spill, metadata !2818, metadata !DIExpression()), !dbg !2820
  %0 = getelementptr inbounds { i64, i64 }, { i64, i64 }* %layout.dbg.spill, i32 0, i32 0
  store i64 %layout.0, i64* %0, align 8
  %1 = getelementptr inbounds { i64, i64 }, { i64, i64 }* %layout.dbg.spill, i32 0, i32 1
  store i64 %layout.1, i64* %1, align 8
  call void @llvm.dbg.declare(metadata { i64, i64 }* %layout.dbg.spill, metadata !2819, metadata !DIExpression()), !dbg !2821
; call alloc::alloc::Global::alloc_impl
  %2 = call { i8*, i64 } @_ZN5alloc5alloc6Global10alloc_impl17h80dd30419e3b1a23E(%"alloc::alloc::Global"* align 1 %self, i64 %layout.0, i64 %layout.1, i1 zeroext false), !dbg !2822
  %3 = extractvalue { i8*, i64 } %2, 0, !dbg !2822
  %4 = extractvalue { i8*, i64 } %2, 1, !dbg !2822
  br label %bb1, !dbg !2822

bb1:                                              ; preds = %start
  %5 = insertvalue { i8*, i64 } undef, i8* %3, 0, !dbg !2823
  %6 = insertvalue { i8*, i64 } %5, i64 %4, 1, !dbg !2823
  ret { i8*, i64 } %6, !dbg !2823
}

; <alloc::string::String as core::ops::deref::Deref>::deref
; Function Attrs: inlinehint nonlazybind uwtable
define internal { [0 x i8]*, i64 } @"_ZN65_$LT$alloc..string..String$u20$as$u20$core..ops..deref..Deref$GT$5deref17h747584ef08f8105aE"(%"alloc::string::String"* align 8 %self) unnamed_addr #0 !dbg !2824 {
start:
  %0 = alloca { [0 x i8]*, i64 }, align 8
  %v.dbg.spill = alloca { [0 x i8]*, i64 }, align 8
  %metadata.dbg.spill = alloca i64, align 8
  %data_address.dbg.spill = alloca {}*, align 8
  %self.dbg.spill4 = alloca i8*, align 8
  %len.dbg.spill3 = alloca i64, align 8
  %data.dbg.spill2 = alloca i8*, align 8
  %len.dbg.spill = alloca i64, align 8
  %data.dbg.spill = alloca i8*, align 8
  %self.dbg.spill1 = alloca %"alloc::vec::Vec<u8>"*, align 8
  %self.dbg.spill = alloca %"alloc::string::String"*, align 8
  %_18 = alloca { i8*, i64 }, align 8
  %_17 = alloca %"core::ptr::metadata::PtrRepr<[u8]>", align 8
  store %"alloc::string::String"* %self, %"alloc::string::String"** %self.dbg.spill, align 8
  call void @llvm.dbg.declare(metadata %"alloc::string::String"** %self.dbg.spill, metadata !2827, metadata !DIExpression()), !dbg !2828
  %_5 = bitcast %"alloc::string::String"* %self to %"alloc::vec::Vec<u8>"*, !dbg !2829
  store %"alloc::vec::Vec<u8>"* %_5, %"alloc::vec::Vec<u8>"** %self.dbg.spill1, align 8, !dbg !2829
  call void @llvm.dbg.declare(metadata %"alloc::vec::Vec<u8>"** %self.dbg.spill1, metadata !2830, metadata !DIExpression()), !dbg !2837
; call alloc::vec::Vec<T,A>::as_ptr
  %data = call i8* @"_ZN5alloc3vec16Vec$LT$T$C$A$GT$6as_ptr17hf5c71e8a33b2e895E"(%"alloc::vec::Vec<u8>"* align 8 %_5), !dbg !2837
  store i8* %data, i8** %data.dbg.spill, align 8, !dbg !2837
  call void @llvm.dbg.declare(metadata i8** %data.dbg.spill, metadata !2838, metadata !DIExpression()), !dbg !2855
  br label %bb1, !dbg !2837

bb1:                                              ; preds = %start
  %1 = getelementptr inbounds %"alloc::vec::Vec<u8>", %"alloc::vec::Vec<u8>"* %_5, i32 0, i32 1, !dbg !2837
  %len = load i64, i64* %1, align 8, !dbg !2837
  store i64 %len, i64* %len.dbg.spill, align 8, !dbg !2837
  call void @llvm.dbg.declare(metadata i64* %len.dbg.spill, metadata !2846, metadata !DIExpression()), !dbg !2855
  store i8* %data, i8** %data.dbg.spill2, align 8, !dbg !2855
  call void @llvm.dbg.declare(metadata i8** %data.dbg.spill2, metadata !2857, metadata !DIExpression()), !dbg !2864
  store i64 %len, i64* %len.dbg.spill3, align 8, !dbg !2855
  call void @llvm.dbg.declare(metadata i64* %len.dbg.spill3, metadata !2863, metadata !DIExpression()), !dbg !2864
  store i8* %data, i8** %self.dbg.spill4, align 8, !dbg !2864
  call void @llvm.dbg.declare(metadata i8** %self.dbg.spill4, metadata !2866, metadata !DIExpression()), !dbg !2872
  %data_address = bitcast i8* %data to {}*, !dbg !2872
  store {}* %data_address, {}** %data_address.dbg.spill, align 8, !dbg !2872
  call void @llvm.dbg.declare(metadata {}** %data_address.dbg.spill, metadata !2874, metadata !DIExpression()), !dbg !2881
  store i64 %len, i64* %metadata.dbg.spill, align 8, !dbg !2864
  call void @llvm.dbg.declare(metadata i64* %metadata.dbg.spill, metadata !2880, metadata !DIExpression()), !dbg !2881
  %2 = bitcast { i8*, i64 }* %_18 to {}**, !dbg !2881
  store {}* %data_address, {}** %2, align 8, !dbg !2881
  %3 = getelementptr inbounds { i8*, i64 }, { i8*, i64 }* %_18, i32 0, i32 1, !dbg !2881
  store i64 %len, i64* %3, align 8, !dbg !2881
  %4 = bitcast %"core::ptr::metadata::PtrRepr<[u8]>"* %_17 to { i8*, i64 }*, !dbg !2881
  %5 = getelementptr inbounds { i8*, i64 }, { i8*, i64 }* %_18, i32 0, i32 0, !dbg !2881
  %6 = load i8*, i8** %5, align 8, !dbg !2881
  %7 = getelementptr inbounds { i8*, i64 }, { i8*, i64 }* %_18, i32 0, i32 1, !dbg !2881
  %8 = load i64, i64* %7, align 8, !dbg !2881
  %9 = getelementptr inbounds { i8*, i64 }, { i8*, i64 }* %4, i32 0, i32 0, !dbg !2881
  store i8* %6, i8** %9, align 8, !dbg !2881
  %10 = getelementptr inbounds { i8*, i64 }, { i8*, i64 }* %4, i32 0, i32 1, !dbg !2881
  store i64 %8, i64* %10, align 8, !dbg !2881
  %11 = bitcast %"core::ptr::metadata::PtrRepr<[u8]>"* %_17 to { [0 x i8]*, i64 }*, !dbg !2881
  %12 = getelementptr inbounds { [0 x i8]*, i64 }, { [0 x i8]*, i64 }* %11, i32 0, i32 0, !dbg !2881
  %_10.0 = load [0 x i8]*, [0 x i8]** %12, align 8, !dbg !2881
  %13 = getelementptr inbounds { [0 x i8]*, i64 }, { [0 x i8]*, i64 }* %11, i32 0, i32 1, !dbg !2881
  %_10.1 = load i64, i64* %13, align 8, !dbg !2881
  %14 = getelementptr inbounds { [0 x i8]*, i64 }, { [0 x i8]*, i64 }* %v.dbg.spill, i32 0, i32 0, !dbg !2829
  store [0 x i8]* %_10.0, [0 x i8]** %14, align 8, !dbg !2829
  %15 = getelementptr inbounds { [0 x i8]*, i64 }, { [0 x i8]*, i64 }* %v.dbg.spill, i32 0, i32 1, !dbg !2829
  store i64 %_10.1, i64* %15, align 8, !dbg !2829
  call void @llvm.dbg.declare(metadata { [0 x i8]*, i64 }* %v.dbg.spill, metadata !2883, metadata !DIExpression()), !dbg !2891
  %16 = getelementptr inbounds { [0 x i8]*, i64 }, { [0 x i8]*, i64 }* %0, i32 0, i32 0, !dbg !2891
  store [0 x i8]* %_10.0, [0 x i8]** %16, align 8, !dbg !2891
  %17 = getelementptr inbounds { [0 x i8]*, i64 }, { [0 x i8]*, i64 }* %0, i32 0, i32 1, !dbg !2891
  store i64 %_10.1, i64* %17, align 8, !dbg !2891
  %18 = getelementptr inbounds { [0 x i8]*, i64 }, { [0 x i8]*, i64 }* %0, i32 0, i32 0, !dbg !2891
  %19 = load [0 x i8]*, [0 x i8]** %18, align 8, !dbg !2891, !nonnull !26, !align !353, !noundef !26
  %20 = getelementptr inbounds { [0 x i8]*, i64 }, { [0 x i8]*, i64 }* %0, i32 0, i32 1, !dbg !2891
  %21 = load i64, i64* %20, align 8, !dbg !2891
  br label %bb2, !dbg !2891

bb2:                                              ; preds = %bb1
  %22 = insertvalue { [0 x i8]*, i64 } undef, [0 x i8]* %19, 0, !dbg !2893
  %23 = insertvalue { [0 x i8]*, i64 } %22, i64 %21, 1, !dbg !2893
  ret { [0 x i8]*, i64 } %23, !dbg !2893
}

; <alloc::ffi::c_str::CString as core::ops::drop::Drop>::drop
; Function Attrs: inlinehint nonlazybind uwtable
define internal void @"_ZN68_$LT$alloc..ffi..c_str..CString$u20$as$u20$core..ops..drop..Drop$GT$4drop17hfe011c84af25418aE"({ i8*, i64 }* align 8 %self) unnamed_addr #0 !dbg !2894 {
start:
  %0 = alloca i8*, align 8
  %self.dbg.spill5 = alloca i8*, align 8
  %self.dbg.spill4 = alloca i8*, align 8
  %self.dbg.spill2 = alloca { [0 x i8]*, i64 }, align 8
  %slice.dbg.spill = alloca { [0 x i8]*, i64 }, align 8
  %self.dbg.spill1 = alloca { [0 x i8]*, i64 }, align 8
  %self.dbg.spill = alloca { i8*, i64 }*, align 8
  store { i8*, i64 }* %self, { i8*, i64 }** %self.dbg.spill, align 8
  call void @llvm.dbg.declare(metadata { i8*, i64 }** %self.dbg.spill, metadata !2900, metadata !DIExpression()), !dbg !2901
  %1 = bitcast { i8*, i64 }* %self to { [0 x i8]*, i64 }*, !dbg !2902
  %2 = getelementptr inbounds { [0 x i8]*, i64 }, { [0 x i8]*, i64 }* %1, i32 0, i32 0, !dbg !2902
  %_4.0 = load [0 x i8]*, [0 x i8]** %2, align 8, !dbg !2902, !nonnull !26, !align !353, !noundef !26
  %3 = getelementptr inbounds { [0 x i8]*, i64 }, { [0 x i8]*, i64 }* %1, i32 0, i32 1, !dbg !2902
  %_4.1 = load i64, i64* %3, align 8, !dbg !2902
  %4 = bitcast [0 x i8]* %_4.0 to i8*, !dbg !2902
  %_5.0 = bitcast i8* %4 to [0 x i8]*, !dbg !2902
  %5 = getelementptr inbounds { [0 x i8]*, i64 }, { [0 x i8]*, i64 }* %self.dbg.spill1, i32 0, i32 0, !dbg !2902
  store [0 x i8]* %_5.0, [0 x i8]** %5, align 8, !dbg !2902
  %6 = getelementptr inbounds { [0 x i8]*, i64 }, { [0 x i8]*, i64 }* %self.dbg.spill1, i32 0, i32 1, !dbg !2902
  store i64 %_4.1, i64* %6, align 8, !dbg !2902
  call void @llvm.dbg.declare(metadata { [0 x i8]*, i64 }* %self.dbg.spill1, metadata !2903, metadata !DIExpression()), !dbg !2913
  %7 = getelementptr inbounds { [0 x i8]*, i64 }, { [0 x i8]*, i64 }* %slice.dbg.spill, i32 0, i32 0, !dbg !2913
  store [0 x i8]* %_5.0, [0 x i8]** %7, align 8, !dbg !2913
  %8 = getelementptr inbounds { [0 x i8]*, i64 }, { [0 x i8]*, i64 }* %slice.dbg.spill, i32 0, i32 1, !dbg !2913
  store i64 %_4.1, i64* %8, align 8, !dbg !2913
  call void @llvm.dbg.declare(metadata { [0 x i8]*, i64 }* %slice.dbg.spill, metadata !2914, metadata !DIExpression()), !dbg !2931
  %9 = getelementptr inbounds { [0 x i8]*, i64 }, { [0 x i8]*, i64 }* %self.dbg.spill2, i32 0, i32 0, !dbg !2931
  store [0 x i8]* %_5.0, [0 x i8]** %9, align 8, !dbg !2931
  %10 = getelementptr inbounds { [0 x i8]*, i64 }, { [0 x i8]*, i64 }* %self.dbg.spill2, i32 0, i32 1, !dbg !2931
  store i64 %_4.1, i64* %10, align 8, !dbg !2931
  call void @llvm.dbg.declare(metadata { [0 x i8]*, i64 }* %self.dbg.spill2, metadata !2933, metadata !DIExpression()), !dbg !2940
  %self3 = bitcast [0 x i8]* %_5.0 to i8*, !dbg !2940
  store i8* %self3, i8** %self.dbg.spill4, align 8, !dbg !2940
  call void @llvm.dbg.declare(metadata i8** %self.dbg.spill4, metadata !2942, metadata !DIExpression()), !dbg !2949
  store i8* %self3, i8** %self.dbg.spill5, align 8, !dbg !2949
  call void @llvm.dbg.declare(metadata i8** %self.dbg.spill5, metadata !2950, metadata !DIExpression()), !dbg !2958
  %11 = getelementptr inbounds i8, i8* %self3, i64 0, !dbg !2958
  store i8* %11, i8** %0, align 8, !dbg !2958
  %_20 = load i8*, i8** %0, align 8, !dbg !2958
  br label %bb1, !dbg !2958

bb1:                                              ; preds = %start
  store i8 0, i8* %_20, align 1, !dbg !2960
  ret void, !dbg !2961
}

; <T as core::array::equality::SpecArrayEq<U,_>>::spec_eq
; Function Attrs: nonlazybind uwtable
define zeroext i1 @"_ZN69_$LT$T$u20$as$u20$core..array..equality..SpecArrayEq$LT$U$C$_$GT$$GT$7spec_eq17h66243477bd61f162E"([16 x i8]* align 1 %a, [16 x i8]* align 1 %b) unnamed_addr #1 !dbg !2962 {
start:
  %0 = alloca i8, align 1
  %b.dbg.spill2 = alloca [16 x i8]*, align 8
  %self.dbg.spill1 = alloca i8*, align 8
  %self.dbg.spill = alloca { [0 x i8]*, i64 }, align 8
  %b.dbg.spill = alloca [16 x i8]*, align 8
  %a.dbg.spill = alloca [16 x i8]*, align 8
  store [16 x i8]* %a, [16 x i8]** %a.dbg.spill, align 8
  call void @llvm.dbg.declare(metadata [16 x i8]** %a.dbg.spill, metadata !2965, metadata !DIExpression()), !dbg !2969
  store [16 x i8]* %b, [16 x i8]** %b.dbg.spill, align 8
  call void @llvm.dbg.declare(metadata [16 x i8]** %b.dbg.spill, metadata !2966, metadata !DIExpression()), !dbg !2970
  %self.0 = bitcast [16 x i8]* %b to [0 x i8]*, !dbg !2971
  %1 = getelementptr inbounds { [0 x i8]*, i64 }, { [0 x i8]*, i64 }* %self.dbg.spill, i32 0, i32 0, !dbg !2971
  store [0 x i8]* %self.0, [0 x i8]** %1, align 8, !dbg !2971
  %2 = getelementptr inbounds { [0 x i8]*, i64 }, { [0 x i8]*, i64 }* %self.dbg.spill, i32 0, i32 1, !dbg !2971
  store i64 16, i64* %2, align 8, !dbg !2971
  call void @llvm.dbg.declare(metadata { [0 x i8]*, i64 }* %self.dbg.spill, metadata !2972, metadata !DIExpression()), !dbg !2976
  %self = bitcast [0 x i8]* %self.0 to i8*, !dbg !2976
  store i8* %self, i8** %self.dbg.spill1, align 8, !dbg !2976
  call void @llvm.dbg.declare(metadata i8** %self.dbg.spill1, metadata !2977, metadata !DIExpression()), !dbg !2986
  %_4 = bitcast i8* %self to [16 x i8]*, !dbg !2986
  store [16 x i8]* %_4, [16 x i8]** %b.dbg.spill2, align 8, !dbg !2987
  call void @llvm.dbg.declare(metadata [16 x i8]** %b.dbg.spill2, metadata !2967, metadata !DIExpression()), !dbg !2988
  %3 = bitcast [16 x i8]* %a to i128*, !dbg !2989
  %4 = load i128, i128* %3, align 1, !dbg !2989
  %5 = bitcast [16 x i8]* %_4 to i128*, !dbg !2989
  %6 = load i128, i128* %5, align 1, !dbg !2989
  %7 = icmp eq i128 %4, %6, !dbg !2989
  %8 = zext i1 %7 to i8, !dbg !2989
  store i8 %8, i8* %0, align 1, !dbg !2989
  %9 = load i8, i8* %0, align 1, !dbg !2989, !range !685, !noundef !26
  %10 = trunc i8 %9 to i1, !dbg !2989
  br label %bb1, !dbg !2989

bb1:                                              ; preds = %start
  ret i1 %10, !dbg !2990
}

; <alloc::ffi::c_str::CString as core::ops::deref::Deref>::deref
; Function Attrs: inlinehint nonlazybind uwtable
define internal { %"core::ffi::c_str::CStr"*, i64 } @"_ZN70_$LT$alloc..ffi..c_str..CString$u20$as$u20$core..ops..deref..Deref$GT$5deref17ha1630efc3d7688f4E"({ i8*, i64 }* align 8 %self) unnamed_addr #0 !dbg !2991 {
start:
  %bytes.dbg.spill = alloca { [0 x i8]*, i64 }, align 8
  %self.dbg.spill1 = alloca { i8*, i64 }*, align 8
  %self.dbg.spill = alloca { i8*, i64 }*, align 8
  %_8 = alloca { i8*, i64 }, align 8
  store { i8*, i64 }* %self, { i8*, i64 }** %self.dbg.spill, align 8
  call void @llvm.dbg.declare(metadata { i8*, i64 }** %self.dbg.spill, metadata !2997, metadata !DIExpression()), !dbg !2998
  store { i8*, i64 }* %self, { i8*, i64 }** %self.dbg.spill1, align 8, !dbg !2999
  call void @llvm.dbg.declare(metadata { i8*, i64 }** %self.dbg.spill1, metadata !3000, metadata !DIExpression()), !dbg !3005
