; ModuleID = 'shlex.7a89fbe6-cgu.0'
source_filename = "shlex.7a89fbe6-cgu.0"
target datalayout = "e-m:e-p270:32:32-p271:32:32-p272:64:64-i64:64-f80:128-n8:16:32:64-S128"
target triple = "x86_64-unknown-linux-gnu"

%"core::ptr::metadata::PtrRepr<[u8]>" = type { [2 x i64] }
%"[closure@<core::ops::range::Range<usize> as core::slice::index::SliceIndex<[u8]>>::get_unchecked::{closure#0}]" = type { i64*, i64*, { [0 x i8]*, i64 }* }
%"alloc::vec::Vec<alloc::string::String>" = type { { i64*, i64 }, i64 }
%Shlex = type { %"bytes::Shlex" }
%"bytes::Shlex" = type { { i8*, i8* }, i64, i8, [7 x i8] }
%"alloc::string::String" = type { %"alloc::vec::Vec<u8>" }
%"alloc::vec::Vec<u8>" = type { { i8*, i64 }, i64 }
%"alloc::alloc::Global" = type {}
%"core::option::Option<alloc::string::String>" = type { {}*, [2 x i64] }
%"core::option::Option<alloc::string::String>::Some" = type { %"alloc::string::String" }
%"alloc::vec::Vec<alloc::vec::Vec<u8>>" = type { { i64*, i64 }, i64 }
%"core::option::Option<alloc::vec::Vec<u8>>" = type { {}*, [2 x i64] }
%"core::option::Option<alloc::vec::Vec<u8>>::Some" = type { %"alloc::vec::Vec<u8>" }
%"core::result::Result<alloc::borrow::Cow<str>, QuoteError>" = type { i64, [3 x i64] }
%"core::panic::location::Location" = type { { [0 x i8]*, i64 }, i32, i32 }
%"QuoteError::Nul" = type {}
%"core::result::Result<core::convert::Infallible, QuoteError>::Err" = type { %"QuoteError::Nul" }
%"core::result::Result<alloc::borrow::Cow<str>, QuoteError>::Err" = type { %"QuoteError::Nul" }
%"core::fmt::Formatter" = type { { i64, i64 }, { i64, i64 }, { {}*, [3 x i64]* }, i32, i32, i8, [7 x i8] }
%"core::ptr::metadata::PtrComponents<u8>" = type { {}*, {} }
%"core::ptr::metadata::PtrRepr<u8>" = type { [1 x i64] }
%"core::alloc::layout::LayoutError" = type {}
%"core::result::Result<core::convert::Infallible, core::alloc::layout::LayoutError>::Err" = type { %"core::alloc::layout::LayoutError" }
%"core::ops::range::RangeFull" = type {}
%"[closure@/home/calvin/.cargo/registry/src/github.com-1ecc6299db9ec823/shlex-1.3.0/src/lib.rs:69:27: 69:38]" = type {}
%"alloc::borrow::Cow<[u8]>" = type { i64, [3 x i64] }
%"core::result::Result<alloc::borrow::Cow<[u8]>, QuoteError>" = type { i64, [3 x i64] }
%"core::result::Result<alloc::borrow::Cow<[u8]>, QuoteError>::Ok" = type { %"alloc::borrow::Cow<[u8]>" }
%"alloc::borrow::Cow<str>" = type { i64, [3 x i64] }
%"core::result::Result<alloc::borrow::Cow<str>, QuoteError>::Ok" = type { %"alloc::borrow::Cow<str>" }
%"core::result::Result<core::ptr::non_null::NonNull<[u8]>, alloc::collections::TryReserveError>" = type { i64, [2 x i64] }
%"core::alloc::AllocError" = type {}
%"core::result::Result<core::ptr::non_null::NonNull<[u8]>, alloc::collections::TryReserveError>::Ok" = type { [1 x i64], { i8*, i64 } }
%"core::result::Result<core::ptr::non_null::NonNull<[u8]>, alloc::collections::TryReserveError>::Err" = type { [1 x i64], { i64, i64 } }
%"[closure@alloc::raw_vec::handle_reserve::{closure#0}]" = type {}
%"core::result::Result<(), alloc::collections::TryReserveErrorKind>::Ok" = type { {} }
%"core::result::Result<core::alloc::layout::Layout, alloc::collections::TryReserveErrorKind>" = type { i64, [2 x i64] }
%"[closure@alloc::raw_vec::finish_grow<alloc::alloc::Global>::{closure#0}]" = type {}
%"core::result::Result<core::alloc::layout::Layout, alloc::collections::TryReserveErrorKind>::Ok" = type { [1 x i64], { i64, i64 } }
%"core::result::Result<core::alloc::layout::Layout, alloc::collections::TryReserveErrorKind>::Err" = type { [1 x i64], { i64, i64 } }
%"[closure@core::intrinsics::copy_nonoverlapping<u8>::{closure#0}]" = type { i8**, i8**, i64* }
%"alloc::borrow::Cow<[u8]>::Borrowed" = type { [1 x i64], { [0 x i8]*, i64 } }
%"alloc::borrow::Cow<[u8]>::Owned" = type { [1 x i64], %"alloc::vec::Vec<u8>" }
%"core::result::Result<core::convert::Infallible, core::alloc::AllocError>::Err" = type { %"core::alloc::AllocError" }
%"alloc::borrow::Cow<str>::Owned" = type { [1 x i64], %"alloc::string::String" }
%"alloc::borrow::Cow<str>::Borrowed" = type { [1 x i64], { [0 x i8]*, i64 } }
%"core::option::Option<(core::ptr::non_null::NonNull<u8>, core::alloc::layout::Layout)>" = type { [2 x i64], i64 }
%"core::ops::control_flow::ControlFlow<core::result::Result<core::convert::Infallible, alloc::collections::TryReserveErrorKind>, core::alloc::layout::Layout>" = type { i64, [2 x i64] }
%"core::ops::control_flow::ControlFlow<core::result::Result<core::convert::Infallible, alloc::collections::TryReserveErrorKind>, core::alloc::layout::Layout>::Continue" = type { [1 x i64], { i64, i64 } }
%"core::ops::control_flow::ControlFlow<core::result::Result<core::convert::Infallible, alloc::collections::TryReserveErrorKind>, core::alloc::layout::Layout>::Break" = type { [1 x i64], { i64, i64 } }
%"core::option::Option<(core::ptr::non_null::NonNull<u8>, core::alloc::layout::Layout)>::Some" = type { { i8*, { i64, i64 } } }
%"core::ops::control_flow::ControlFlow<core::result::Result<core::convert::Infallible, alloc::collections::TryReserveError>, core::ptr::non_null::NonNull<[u8]>>" = type { i64, [2 x i64] }
%"core::result::Result<usize, alloc::collections::TryReserveErrorKind>" = type { i64, [2 x i64] }
%"core::ops::control_flow::ControlFlow<core::result::Result<core::convert::Infallible, alloc::collections::TryReserveErrorKind>, usize>" = type { i64, [2 x i64] }
%"core::result::Result<usize, alloc::collections::TryReserveErrorKind>::Err" = type { [1 x i64], { i64, i64 } }
%"core::result::Result<usize, alloc::collections::TryReserveErrorKind>::Ok" = type { [1 x i64], i64 }
%"core::ops::control_flow::ControlFlow<core::result::Result<core::convert::Infallible, alloc::collections::TryReserveErrorKind>, usize>::Continue" = type { [1 x i64], i64 }
%"core::ops::control_flow::ControlFlow<core::result::Result<core::convert::Infallible, alloc::collections::TryReserveErrorKind>, usize>::Break" = type { [1 x i64], { i64, i64 } }
%"core::ops::control_flow::ControlFlow<core::result::Result<core::convert::Infallible, alloc::collections::TryReserveError>, core::ptr::non_null::NonNull<[u8]>>::Continue" = type { [1 x i64], { i8*, i64 } }
%"core::ops::control_flow::ControlFlow<core::result::Result<core::convert::Infallible, alloc::collections::TryReserveError>, core::ptr::non_null::NonNull<[u8]>>::Break" = type { [1 x i64], { i64, i64 } }
%"core::ptr::metadata::PtrRepr<[alloc::string::String]>" = type { [2 x i64] }
%"core::ptr::metadata::PtrRepr<[alloc::vec::Vec<u8>]>" = type { [2 x i64] }
%"core::ops::control_flow::ControlFlow<core::result::Result<core::convert::Infallible, QuoteError>, alloc::borrow::Cow<[u8]>>" = type { i64, [3 x i64] }
%"core::ops::control_flow::ControlFlow<core::result::Result<core::convert::Infallible, QuoteError>, alloc::borrow::Cow<[u8]>>::Continue" = type { %"alloc::borrow::Cow<[u8]>" }
%"core::ops::control_flow::ControlFlow<core::result::Result<core::convert::Infallible, QuoteError>, alloc::borrow::Cow<[u8]>>::Break" = type { %"core::result::Result<core::convert::Infallible, QuoteError>::Err" }
%"[closure@/home/calvin/.cargo/registry/src/github.com-1ecc6299db9ec823/shlex-1.3.0/src/bytes.rs:211:51: 211:55]" = type {}
%"core::option::Option<alloc::vec::Vec<alloc::vec::Vec<u8>>>" = type { {}*, [2 x i64] }
%"core::option::Option<alloc::vec::Vec<alloc::vec::Vec<u8>>>::Some" = type { %"alloc::vec::Vec<alloc::vec::Vec<u8>>" }
%"core::option::Option<alloc::vec::Vec<alloc::string::String>>" = type { {}*, [2 x i64] }
%"core::option::Option<alloc::vec::Vec<alloc::string::String>>::Some" = type { %"alloc::vec::Vec<alloc::string::String>" }
%"unwind::libunwind::_Unwind_Exception" = type { i64, void (i32, %"unwind::libunwind::_Unwind_Exception"*)*, [6 x i64] }
%"unwind::libunwind::_Unwind_Context" = type { [0 x i8] }

@0 = private unnamed_addr constant <{ [16 x i8] }> <{ [16 x i8] c"\08\00\00\00\00\00\00\00\00\00\00\00\00\00\00\00" }>, align 8
@alloc338 = private unnamed_addr constant <{ [35 x i8] }> <{ [35 x i8] c"assertion failed: mid <= self.len()" }>, align 1
@alloc343 = private unnamed_addr constant <{ [43 x i8] }> <{ [43 x i8] c"called `Result::unwrap()` on an `Err` value" }>, align 1
@vtable.0 = private unnamed_addr constant <{ i8*, [16 x i8], i8* }> <{ i8* bitcast (void (%"QuoteError::Nul"*)* @"_ZN4core3ptr38drop_in_place$LT$shlex..QuoteError$GT$17h82f7a6c6f5d18258E" to i8*), [16 x i8] c"\00\00\00\00\00\00\00\00\01\00\00\00\00\00\00\00", i8* bitcast (i1 (%"QuoteError::Nul"*, %"core::fmt::Formatter"*)* @"_ZN54_$LT$shlex..QuoteError$u20$as$u20$core..fmt..Debug$GT$3fmt17h8843ef8720553fd3E" to i8*) }>, align 8, !dbg !0
@1 = private unnamed_addr constant <{ [16 x i8] }> <{ [16 x i8] c"\01\00\00\00\00\00\00\00\00\00\00\00\00\00\00\00" }>, align 8
@alloc111 = private unnamed_addr constant <{ [2 x i8] }> <{ [2 x i8] c"\01\0A" }>, align 1
@alloc371 = private unnamed_addr constant <{ [85 x i8] }> <{ [85 x i8] c"/home/calvin/.cargo/registry/src/github.com-1ecc6299db9ec823/shlex-1.3.0/src/bytes.rs" }>, align 1
@alloc345 = private unnamed_addr constant <{ i8*, [16 x i8] }> <{ i8* getelementptr inbounds (<{ [85 x i8] }>, <{ [85 x i8] }>* @alloc371, i32 0, i32 0, i32 0), [16 x i8] c"U\00\00\00\00\00\00\00\80\00\00\00!\00\00\00" }>, align 8
@str.1 = internal constant [28 x i8] c"attempt to add with overflow"
@alloc1 = private unnamed_addr constant <{ [2 x i8] }> <{ [2 x i8] c"''" }>, align 1
@alloc347 = private unnamed_addr constant <{ i8*, [16 x i8] }> <{ i8* getelementptr inbounds (<{ [85 x i8] }>, <{ [85 x i8] }>* @alloc371, i32 0, i32 0, i32 0), [16 x i8] c"U\00\00\00\00\00\00\00\D1\00\00\00\17\00\00\00" }>, align 8
@alloc153 = private unnamed_addr constant <{ [1 x i8] }> zeroinitializer, align 1
@alloc349 = private unnamed_addr constant <{ i8*, [16 x i8] }> <{ i8* getelementptr inbounds (<{ [85 x i8] }>, <{ [85 x i8] }>* @alloc371, i32 0, i32 0, i32 0), [16 x i8] c"U\00\00\00\00\00\00\00\E0\00\00\00.\00\00\00" }>, align 8
@alloc350 = private unnamed_addr constant <{ [45 x i8] }> <{ [45 x i8] c"assertion failed: rest.len() < in_bytes.len()" }>, align 1
@alloc352 = private unnamed_addr constant <{ i8*, [16 x i8] }> <{ i8* getelementptr inbounds (<{ [85 x i8] }>, <{ [85 x i8] }>* @alloc371, i32 0, i32 0, i32 0), [16 x i8] c"U\00\00\00\00\00\00\00\E1\00\00\00\0D\00\00\00" }>, align 8
@alloc354 = private unnamed_addr constant <{ i8*, [16 x i8] }> <{ i8* getelementptr inbounds (<{ [85 x i8] }>, <{ [85 x i8] }>* @alloc371, i32 0, i32 0, i32 0), [16 x i8] c"U\00\00\00\00\00\00\00=\01\00\00\06\00\00\00" }>, align 8
@str.2 = internal constant [36 x i8] c"attempt to shift right with overflow"
@alloc356 = private unnamed_addr constant <{ i8*, [16 x i8] }> <{ i8* getelementptr inbounds (<{ [85 x i8] }>, <{ [85 x i8] }>* @alloc371, i32 0, i32 0, i32 0), [16 x i8] c"U\00\00\00\00\00\00\00j\01\00\00\08\00\00\00" }>, align 8
@alloc358 = private unnamed_addr constant <{ i8*, [16 x i8] }> <{ i8* getelementptr inbounds (<{ [85 x i8] }>, <{ [85 x i8] }>* @alloc371, i32 0, i32 0, i32 0), [16 x i8] c"U\00\00\00\00\00\00\00r\01\00\00\11\00\00\00" }>, align 8
@alloc360 = private unnamed_addr constant <{ i8*, [16 x i8] }> <{ i8* getelementptr inbounds (<{ [85 x i8] }>, <{ [85 x i8] }>* @alloc371, i32 0, i32 0, i32 0), [16 x i8] c"U\00\00\00\00\00\00\00\8F\01\00\00\09\00\00\00" }>, align 8
@alloc361 = private unnamed_addr constant <{ [23 x i8] }> <{ [23 x i8] c"assertion failed: i > 0" }>, align 1
@alloc363 = private unnamed_addr constant <{ i8*, [16 x i8] }> <{ i8* getelementptr inbounds (<{ [85 x i8] }>, <{ [85 x i8] }>* @alloc371, i32 0, i32 0, i32 0), [16 x i8] c"U\00\00\00\00\00\00\00\9C\01\00\00\05\00\00\00" }>, align 8
@alloc364 = private unnamed_addr constant <{ [40 x i8] }> <{ [40 x i8] c"internal error: entered unreachable code" }>, align 1
@alloc366 = private unnamed_addr constant <{ i8*, [16 x i8] }> <{ i8* getelementptr inbounds (<{ [85 x i8] }>, <{ [85 x i8] }>* @alloc371, i32 0, i32 0, i32 0), [16 x i8] c"U\00\00\00\00\00\00\00\9A\01\00\00\09\00\00\00" }>, align 8
@alloc368 = private unnamed_addr constant <{ i8*, [16 x i8] }> <{ i8* getelementptr inbounds (<{ [85 x i8] }>, <{ [85 x i8] }>* @alloc371, i32 0, i32 0, i32 0), [16 x i8] c"U\00\00\00\00\00\00\00\AC\01\00\00\19\00\00\00" }>, align 8
@alloc370 = private unnamed_addr constant <{ i8*, [16 x i8] }> <{ i8* getelementptr inbounds (<{ [85 x i8] }>, <{ [85 x i8] }>* @alloc371, i32 0, i32 0, i32 0), [16 x i8] c"U\00\00\00\00\00\00\00\A6\01\00\00\19\00\00\00" }>, align 8
@alloc372 = private unnamed_addr constant <{ i8*, [16 x i8] }> <{ i8* getelementptr inbounds (<{ [85 x i8] }>, <{ [85 x i8] }>* @alloc371, i32 0, i32 0, i32 0), [16 x i8] c"U\00\00\00\00\00\00\00\E5\01\00\003\00\00\00" }>, align 8
@alloc373 = private unnamed_addr constant <{ [45 x i8] }> <{ [45 x i8] c"cannot shell-quote string containing nul byte" }>, align 1
@alloc376 = private unnamed_addr constant <{ [83 x i8] }> <{ [83 x i8] c"/home/calvin/.cargo/registry/src/github.com-1ecc6299db9ec823/shlex-1.3.0/src/lib.rs" }>, align 1
@alloc375 = private unnamed_addr constant <{ i8*, [16 x i8] }> <{ i8* getelementptr inbounds (<{ [83 x i8] }>, <{ [83 x i8] }>* @alloc376, i32 0, i32 0, i32 0), [16 x i8] c"S\00\00\00\00\00\00\00\A4\00\00\00\12\00\00\00" }>, align 8
@alloc377 = private unnamed_addr constant <{ i8*, [16 x i8] }> <{ i8* getelementptr inbounds (<{ [83 x i8] }>, <{ [83 x i8] }>* @alloc376, i32 0, i32 0, i32 0), [16 x i8] c"S\00\00\00\00\00\00\00\E5\00\00\001\00\00\00" }>, align 8
@alloc384 = private unnamed_addr constant <{ [6 x i8] }> <{ [6 x i8] c"Quoter" }>, align 1
@alloc379 = private unnamed_addr constant <{ [9 x i8] }> <{ [9 x i8] c"allow_nul" }>, align 1
@vtable.3 = private unnamed_addr constant <{ i8*, [16 x i8], i8* }> <{ i8* bitcast (void (i8**)* @"_ZN4core3ptr29drop_in_place$LT$$RF$bool$GT$17heab9a6d544e941efE" to i8*), [16 x i8] c"\08\00\00\00\00\00\00\00\08\00\00\00\00\00\00\00", i8* bitcast (i1 (i8**, %"core::fmt::Formatter"*)* @"_ZN42_$LT$$RF$T$u20$as$u20$core..fmt..Debug$GT$3fmt17h7c8c0b1db793cd4eE" to i8*) }>, align 8, !dbg !20
@alloc383 = private unnamed_addr constant <{ [3 x i8] }> <{ [3 x i8] c"Nul" }>, align 1
@alloc385 = private unnamed_addr constant <{ [5 x i8] }> <{ [5 x i8] c"inner" }>, align 1
@vtable.4 = private unnamed_addr constant <{ i8*, [16 x i8], i8* }> <{ i8* bitcast (void (i8**)* @"_ZN4core3ptr45drop_in_place$LT$$RF$shlex..bytes..Quoter$GT$17hc6fba3347a275927E" to i8*), [16 x i8] c"\08\00\00\00\00\00\00\00\08\00\00\00\00\00\00\00", i8* bitcast (i1 (i8**, %"core::fmt::Formatter"*)* @"_ZN42_$LT$$RF$T$u20$as$u20$core..fmt..Debug$GT$3fmt17h7adee208db613555E" to i8*) }>, align 8, !dbg !30

; <core::ops::range::Range<usize> as core::slice::index::SliceIndex<[T]>>::get_unchecked
; Function Attrs: inlinehint nonlazybind uwtable
define { [0 x i8]*, i64 } @"_ZN106_$LT$core..ops..range..Range$LT$usize$GT$$u20$as$u20$core..slice..index..SliceIndex$LT$$u5b$T$u5d$$GT$$GT$13get_unchecked17h5a19eb2355e32f18E"(i64 %self.0, i64 %self.1, [0 x i8]* %slice.0, i64 %slice.1) unnamed_addr #0 !dbg !155 {
start:
  %metadata.dbg.spill = alloca i64, align 8
  %data_address.dbg.spill = alloca {}*, align 8
  %self.dbg.spill5 = alloca i8*, align 8
  %len.dbg.spill = alloca i64, align 8
  %data.dbg.spill = alloca i8*, align 8
  %0 = alloca i8*, align 8
  %count.dbg.spill4 = alloca i64, align 8
  %self.dbg.spill3 = alloca i8*, align 8
  %count.dbg.spill = alloca i64, align 8
  %self.dbg.spill2 = alloca i8*, align 8
  %self.dbg.spill1 = alloca { [0 x i8]*, i64 }, align 8
  %slice.dbg.spill = alloca { [0 x i8]*, i64 }, align 8
  %self.dbg.spill = alloca { i64, i64 }, align 8
  %_22 = alloca { i8*, i64 }, align 8
  %_21 = alloca %"core::ptr::metadata::PtrRepr<[u8]>", align 8
  %runtime = alloca %"[closure@<core::ops::range::Range<usize> as core::slice::index::SliceIndex<[u8]>>::get_unchecked::{closure#0}]", align 8
  %1 = getelementptr inbounds { i64, i64 }, { i64, i64 }* %self.dbg.spill, i32 0, i32 0
  store i64 %self.0, i64* %1, align 8
  %2 = getelementptr inbounds { i64, i64 }, { i64, i64 }* %self.dbg.spill, i32 0, i32 1
  store i64 %self.1, i64* %2, align 8
  call void @llvm.dbg.declare(metadata { i64, i64 }* %self.dbg.spill, metadata !176, metadata !DIExpression()), !dbg !192
  %3 = getelementptr inbounds { [0 x i8]*, i64 }, { [0 x i8]*, i64 }* %slice.dbg.spill, i32 0, i32 0
  store [0 x i8]* %slice.0, [0 x i8]** %3, align 8
  %4 = getelementptr inbounds { [0 x i8]*, i64 }, { [0 x i8]*, i64 }* %slice.dbg.spill, i32 0, i32 1
  store i64 %slice.1, i64* %4, align 8
  call void @llvm.dbg.declare(metadata { [0 x i8]*, i64 }* %slice.dbg.spill, metadata !177, metadata !DIExpression()), !dbg !193
  call void @llvm.dbg.declare(metadata %"[closure@<core::ops::range::Range<usize> as core::slice::index::SliceIndex<[u8]>>::get_unchecked::{closure#0}]"* %runtime, metadata !178, metadata !DIExpression()), !dbg !194
  %5 = getelementptr inbounds { [0 x i8]*, i64 }, { [0 x i8]*, i64 }* %self.dbg.spill1, i32 0, i32 0, !dbg !195
  store [0 x i8]* %slice.0, [0 x i8]** %5, align 8, !dbg !195
  %6 = getelementptr inbounds { [0 x i8]*, i64 }, { [0 x i8]*, i64 }* %self.dbg.spill1, i32 0, i32 1, !dbg !195
  store i64 %slice.1, i64* %6, align 8, !dbg !195
  call void @llvm.dbg.declare(metadata { [0 x i8]*, i64 }* %self.dbg.spill1, metadata !196, metadata !DIExpression()), !dbg !207
  %self = bitcast [0 x i8]* %slice.0 to i8*, !dbg !207
  store i8* %self, i8** %self.dbg.spill2, align 8, !dbg !207
  call void @llvm.dbg.declare(metadata i8** %self.dbg.spill2, metadata !208, metadata !DIExpression()), !dbg !216
  store i64 %self.0, i64* %count.dbg.spill, align 8, !dbg !217
  call void @llvm.dbg.declare(metadata i64* %count.dbg.spill, metadata !215, metadata !DIExpression()), !dbg !216
  store i8* %self, i8** %self.dbg.spill3, align 8, !dbg !216
  call void @llvm.dbg.declare(metadata i8** %self.dbg.spill3, metadata !218, metadata !DIExpression()), !dbg !226
  store i64 %self.0, i64* %count.dbg.spill4, align 8, !dbg !216
  call void @llvm.dbg.declare(metadata i64* %count.dbg.spill4, metadata !225, metadata !DIExpression()), !dbg !226
  %7 = getelementptr inbounds i8, i8* %self, i64 %self.0, !dbg !226
  store i8* %7, i8** %0, align 8, !dbg !226
  %data = load i8*, i8** %0, align 8, !dbg !226
  store i8* %data, i8** %data.dbg.spill, align 8, !dbg !226
  call void @llvm.dbg.declare(metadata i8** %data.dbg.spill, metadata !228, metadata !DIExpression()), !dbg !236
  br label %bb1, !dbg !226

bb1:                                              ; preds = %start
  %len = sub i64 %self.1, %self.0, !dbg !238
  store i64 %len, i64* %len.dbg.spill, align 8, !dbg !238
  call void @llvm.dbg.declare(metadata i64* %len.dbg.spill, metadata !235, metadata !DIExpression()), !dbg !236
  store i8* %data, i8** %self.dbg.spill5, align 8, !dbg !236
  call void @llvm.dbg.declare(metadata i8** %self.dbg.spill5, metadata !239, metadata !DIExpression()), !dbg !247
  %data_address = bitcast i8* %data to {}*, !dbg !247
  store {}* %data_address, {}** %data_address.dbg.spill, align 8, !dbg !247
  call void @llvm.dbg.declare(metadata {}** %data_address.dbg.spill, metadata !249, metadata !DIExpression()), !dbg !258
  store i64 %len, i64* %metadata.dbg.spill, align 8, !dbg !236
  call void @llvm.dbg.declare(metadata i64* %metadata.dbg.spill, metadata !257, metadata !DIExpression()), !dbg !258
  %8 = bitcast { i8*, i64 }* %_22 to {}**, !dbg !258
  store {}* %data_address, {}** %8, align 8, !dbg !258
  %9 = getelementptr inbounds { i8*, i64 }, { i8*, i64 }* %_22, i32 0, i32 1, !dbg !258
  store i64 %len, i64* %9, align 8, !dbg !258
  %10 = bitcast %"core::ptr::metadata::PtrRepr<[u8]>"* %_21 to { i8*, i64 }*, !dbg !258
  %11 = getelementptr inbounds { i8*, i64 }, { i8*, i64 }* %_22, i32 0, i32 0, !dbg !258
  %12 = load i8*, i8** %11, align 8, !dbg !258
  %13 = getelementptr inbounds { i8*, i64 }, { i8*, i64 }* %_22, i32 0, i32 1, !dbg !258
  %14 = load i64, i64* %13, align 8, !dbg !258
  %15 = getelementptr inbounds { i8*, i64 }, { i8*, i64 }* %10, i32 0, i32 0, !dbg !258
  store i8* %12, i8** %15, align 8, !dbg !258
  %16 = getelementptr inbounds { i8*, i64 }, { i8*, i64 }* %10, i32 0, i32 1, !dbg !258
  store i64 %14, i64* %16, align 8, !dbg !258
  %17 = bitcast %"core::ptr::metadata::PtrRepr<[u8]>"* %_21 to { [0 x i8]*, i64 }*, !dbg !258
  %18 = getelementptr inbounds { [0 x i8]*, i64 }, { [0 x i8]*, i64 }* %17, i32 0, i32 0, !dbg !258
  %19 = load [0 x i8]*, [0 x i8]** %18, align 8, !dbg !258
  %20 = getelementptr inbounds { [0 x i8]*, i64 }, { [0 x i8]*, i64 }* %17, i32 0, i32 1, !dbg !258
  %21 = load i64, i64* %20, align 8, !dbg !258
  %22 = insertvalue { [0 x i8]*, i64 } undef, [0 x i8]* %19, 0, !dbg !260
  %23 = insertvalue { [0 x i8]*, i64 } %22, i64 %21, 1, !dbg !260
  ret { [0 x i8]*, i64 } %23, !dbg !260
}

; <alloc::vec::Vec<T> as alloc::vec::spec_from_iter_nested::SpecFromIterNested<T,I>>::from_iter
; Function Attrs: nonlazybind uwtable
define void @"_ZN111_$LT$alloc..vec..Vec$LT$T$GT$$u20$as$u20$alloc..vec..spec_from_iter_nested..SpecFromIterNested$LT$T$C$I$GT$$GT$9from_iter17h05d8e94589beadbcE"(%"alloc::vec::Vec<alloc::string::String>"* sret(%"alloc::vec::Vec<alloc::string::String>") %0, %Shlex* align 8 %1) unnamed_addr #1 personality i32 (i32, i32, i64, %"unwind::libunwind::_Unwind_Exception"*, %"unwind::libunwind::_Unwind_Context"*)* @rust_eh_personality !dbg !261 {
start:
  %self.dbg.spill7 = alloca %"alloc::vec::Vec<alloc::string::String>"*, align 8
  %dst.dbg.spill = alloca %"alloc::string::String"*, align 8
  %capacity.dbg.spill5 = alloca i64, align 8
  %capacity.dbg.spill4 = alloca i64, align 8
  %capacity.dbg.spill = alloca i64, align 8
  %initial_capacity.dbg.spill = alloca i64, align 8
  %v1.dbg.spill = alloca i64, align 8
  %v2.dbg.spill = alloca i64, align 8
  %2 = alloca i64, align 8
  %self.dbg.spill = alloca i64, align 8
  %lower.dbg.spill = alloca i64, align 8
  %3 = alloca { i8*, i32 }, align 8
  %alloc.dbg.spill2 = alloca %"alloc::alloc::Global", align 1
  %alloc.dbg.spill = alloca %"alloc::alloc::Global", align 1
  %_38 = alloca i8, align 1
  %_24 = alloca i8, align 1
  %src = alloca %"alloc::string::String", align 8
  %vector1 = alloca %"alloc::vec::Vec<alloc::string::String>", align 8
  %_8 = alloca { i64, { i64, i64 } }, align 8
  %element = alloca %"alloc::string::String", align 8
  %_3 = alloca %"core::option::Option<alloc::string::String>", align 8
  %vector = alloca %"alloc::vec::Vec<alloc::string::String>", align 8
  %iterator = alloca %Shlex*, align 8
  store %Shlex* %1, %Shlex** %iterator, align 8
  call void @llvm.dbg.declare(metadata %Shlex** %iterator, metadata !337, metadata !DIExpression()), !dbg !350
  call void @llvm.dbg.declare(metadata %"alloc::vec::Vec<alloc::string::String>"* %vector, metadata !338, metadata !DIExpression()), !dbg !351
  call void @llvm.dbg.declare(metadata %"alloc::string::String"* %element, metadata !340, metadata !DIExpression()), !dbg !352
  call void @llvm.dbg.declare(metadata %"alloc::vec::Vec<alloc::string::String>"* %vector1, metadata !346, metadata !DIExpression()), !dbg !353
  call void @llvm.dbg.declare(metadata %"alloc::string::String"* %src, metadata !354, metadata !DIExpression()), !dbg !362
  call void @llvm.dbg.declare(metadata %"alloc::alloc::Global"* %alloc.dbg.spill, metadata !364, metadata !DIExpression()), !dbg !372
  call void @llvm.dbg.declare(metadata %"alloc::alloc::Global"* %alloc.dbg.spill2, metadata !381, metadata !DIExpression()), !dbg !389
  store i8 1, i8* %_24, align 1, !dbg !391
; invoke <&mut I as core::iter::traits::iterator::Iterator>::next
  invoke void @"_ZN72_$LT$$RF$mut$u20$I$u20$as$u20$core..iter..traits..iterator..Iterator$GT$4next17h9b785dd58a3365a0E"(%"core::option::Option<alloc::string::String>"* sret(%"core::option::Option<alloc::string::String>") %_3, %Shlex** align 8 %iterator)
          to label %bb1 unwind label %cleanup, !dbg !392

bb14:                                             ; preds = %bb8, %bb11, %bb12, %cleanup
  %4 = load i8, i8* %_24, align 1, !dbg !393, !range !394, !noundef !19
  %5 = trunc i8 %4 to i1, !dbg !393
  br i1 %5, label %bb13, label %bb10, !dbg !393

cleanup:                                          ; preds = %start
  %6 = landingpad { i8*, i32 }
          cleanup
  %7 = extractvalue { i8*, i32 } %6, 0
  %8 = extractvalue { i8*, i32 } %6, 1
  %9 = getelementptr inbounds { i8*, i32 }, { i8*, i32 }* %3, i32 0, i32 0
  store i8* %7, i8** %9, align 8
  %10 = getelementptr inbounds { i8*, i32 }, { i8*, i32 }* %3, i32 0, i32 1
  store i32 %8, i32* %10, align 8
  br label %bb14

bb1:                                              ; preds = %start
  %11 = bitcast %"core::option::Option<alloc::string::String>"* %_3 to {}**, !dbg !392
  %12 = load {}*, {}** %11, align 8, !dbg !392
  %13 = icmp eq {}* %12, null, !dbg !392
  %_5 = select i1 %13, i64 0, i64 1, !dbg !392
  switch i64 %_5, label %bb3 [
    i64 0, label %bb15
    i64 1, label %bb2
  ], !dbg !395

bb3:                                              ; preds = %bb1
  unreachable, !dbg !392

bb15:                                             ; preds = %bb1
  %_25.0 = load i64*, i64** getelementptr inbounds ({ i64*, i64 }, { i64*, i64 }* bitcast (<{ [16 x i8] }>* @0 to { i64*, i64 }*), i32 0, i32 0), align 8, !dbg !396, !nonnull !19, !noundef !19
  %_25.1 = load i64, i64* getelementptr inbounds ({ i64*, i64 }, { i64*, i64 }* bitcast (<{ [16 x i8] }>* @0 to { i64*, i64 }*), i32 0, i32 1), align 8, !dbg !396
  %14 = bitcast %"alloc::vec::Vec<alloc::string::String>"* %0 to { i64*, i64 }*, !dbg !396
  %15 = getelementptr inbounds { i64*, i64 }, { i64*, i64 }* %14, i32 0, i32 0, !dbg !396
  store i64* %_25.0, i64** %15, align 8, !dbg !396
  %16 = getelementptr inbounds { i64*, i64 }, { i64*, i64 }* %14, i32 0, i32 1, !dbg !396
  store i64 %_25.1, i64* %16, align 8, !dbg !396
  %17 = getelementptr inbounds %"alloc::vec::Vec<alloc::string::String>", %"alloc::vec::Vec<alloc::string::String>"* %0, i32 0, i32 1, !dbg !396
  store i64 0, i64* %17, align 8, !dbg !396
  br label %bb7, !dbg !393

bb2:                                              ; preds = %bb1
  %18 = bitcast %"core::option::Option<alloc::string::String>"* %_3 to %"core::option::Option<alloc::string::String>::Some"*, !dbg !402
  %19 = bitcast %"core::option::Option<alloc::string::String>::Some"* %18 to %"alloc::string::String"*, !dbg !402
  %20 = bitcast %"alloc::string::String"* %element to i8*, !dbg !402
  %21 = bitcast %"alloc::string::String"* %19 to i8*, !dbg !402
  call void @llvm.memcpy.p0i8.p0i8.i64(i8* align 8 %20, i8* align 8 %21, i64 24, i1 false), !dbg !402
; invoke <&mut I as core::iter::traits::iterator::Iterator>::size_hint
  invoke void @"_ZN72_$LT$$RF$mut$u20$I$u20$as$u20$core..iter..traits..iterator..Iterator$GT$9size_hint17h29385024be338a39E"({ i64, { i64, i64 } }* sret({ i64, { i64, i64 } }) %_8, %Shlex** align 8 %iterator)
          to label %bb4 unwind label %cleanup3, !dbg !403

bb12:                                             ; preds = %bb9, %cleanup3
  br i1 true, label %bb11, label %bb14, !dbg !404

cleanup3:                                         ; preds = %bb17, %bb16, %bb2
  %22 = landingpad { i8*, i32 }
          cleanup
  %23 = extractvalue { i8*, i32 } %22, 0
  %24 = extractvalue { i8*, i32 } %22, 1
  %25 = getelementptr inbounds { i8*, i32 }, { i8*, i32 }* %3, i32 0, i32 0
  store i8* %23, i8** %25, align 8
  %26 = getelementptr inbounds { i8*, i32 }, { i8*, i32 }* %3, i32 0, i32 1
  store i32 %24, i32* %26, align 8
  br label %bb12

bb4:                                              ; preds = %bb2
  %27 = bitcast { i64, { i64, i64 } }* %_8 to i64*, !dbg !405
  %lower = load i64, i64* %27, align 8, !dbg !405
  store i64 %lower, i64* %lower.dbg.spill, align 8, !dbg !405
  call void @llvm.dbg.declare(metadata i64* %lower.dbg.spill, metadata !342, metadata !DIExpression()), !dbg !406
  store i64 %lower, i64* %self.dbg.spill, align 8, !dbg !407
  call void @llvm.dbg.declare(metadata i64* %self.dbg.spill, metadata !408, metadata !DIExpression()), !dbg !418
  %28 = call i64 @llvm.uadd.sat.i64(i64 %lower, i64 1), !dbg !418
  store i64 %28, i64* %2, align 8, !dbg !418
  %v2 = load i64, i64* %2, align 8, !dbg !418
  store i64 %v2, i64* %v2.dbg.spill, align 8, !dbg !418
  call void @llvm.dbg.declare(metadata i64* %v2.dbg.spill, metadata !419, metadata !DIExpression()), !dbg !427
  br label %bb16, !dbg !418

bb16:                                             ; preds = %bb4
  store i64 4, i64* %v1.dbg.spill, align 8, !dbg !428
  call void @llvm.dbg.declare(metadata i64* %v1.dbg.spill, metadata !424, metadata !DIExpression()), !dbg !427
; invoke core::cmp::Ord::max
  %initial_capacity = invoke i64 @_ZN4core3cmp3Ord3max17haa98f192bff214e2E(i64 4, i64 %v2)
          to label %bb17 unwind label %cleanup3, !dbg !427

bb17:                                             ; preds = %bb16
  store i64 %initial_capacity, i64* %initial_capacity.dbg.spill, align 8, !dbg !427
  call void @llvm.dbg.declare(metadata i64* %initial_capacity.dbg.spill, metadata !344, metadata !DIExpression()), !dbg !429
  store i64 %initial_capacity, i64* %capacity.dbg.spill, align 8, !dbg !430
  call void @llvm.dbg.declare(metadata i64* %capacity.dbg.spill, metadata !378, metadata !DIExpression()), !dbg !431
  store i64 %initial_capacity, i64* %capacity.dbg.spill4, align 8, !dbg !431
  call void @llvm.dbg.declare(metadata i64* %capacity.dbg.spill4, metadata !371, metadata !DIExpression()), !dbg !372
  store i64 %initial_capacity, i64* %capacity.dbg.spill5, align 8, !dbg !372
  call void @llvm.dbg.declare(metadata i64* %capacity.dbg.spill5, metadata !388, metadata !DIExpression()), !dbg !389
  store i8 0, i8* %_38, align 1, !dbg !389
  %29 = load i8, i8* %_38, align 1, !dbg !389, !range !394, !noundef !19
  %30 = trunc i8 %29 to i1, !dbg !389
; invoke alloc::raw_vec::RawVec<T,A>::allocate_in
  %31 = invoke { i64*, i64 } @"_ZN5alloc7raw_vec19RawVec$LT$T$C$A$GT$11allocate_in17hefc8b9238314a383E"(i64 %initial_capacity, i1 zeroext %30)
          to label %bb18 unwind label %cleanup3, !dbg !389

bb18:                                             ; preds = %bb17
  %_34.0 = extractvalue { i64*, i64 } %31, 0, !dbg !389
  %_34.1 = extractvalue { i64*, i64 } %31, 1, !dbg !389
  %32 = bitcast %"alloc::vec::Vec<alloc::string::String>"* %vector1 to { i64*, i64 }*, !dbg !372
  %33 = getelementptr inbounds { i64*, i64 }, { i64*, i64 }* %32, i32 0, i32 0, !dbg !372
  store i64* %_34.0, i64** %33, align 8, !dbg !372
  %34 = getelementptr inbounds { i64*, i64 }, { i64*, i64 }* %32, i32 0, i32 1, !dbg !372
  store i64 %_34.1, i64* %34, align 8, !dbg !372
  %35 = getelementptr inbounds %"alloc::vec::Vec<alloc::string::String>", %"alloc::vec::Vec<alloc::string::String>"* %vector1, i32 0, i32 1, !dbg !372
  store i64 0, i64* %35, align 8, !dbg !372
; invoke alloc::vec::Vec<T,A>::as_mut_ptr
  %dst = invoke %"alloc::string::String"* @"_ZN5alloc3vec16Vec$LT$T$C$A$GT$10as_mut_ptr17h44fbfd7f7c84c396E"(%"alloc::vec::Vec<alloc::string::String>"* align 8 %vector1)
          to label %bb5 unwind label %cleanup6, !dbg !432

bb9:                                              ; preds = %cleanup6
; invoke core::ptr::drop_in_place<alloc::vec::Vec<alloc::string::String>>
  invoke void @"_ZN4core3ptr65drop_in_place$LT$alloc..vec..Vec$LT$alloc..string..String$GT$$GT$17h9e3b3be1cd4c1522E"(%"alloc::vec::Vec<alloc::string::String>"* %vector1) #14
          to label %bb12 unwind label %abort, !dbg !433

cleanup6:                                         ; preds = %bb18
  %36 = landingpad { i8*, i32 }
          cleanup
  %37 = extractvalue { i8*, i32 } %36, 0
  %38 = extractvalue { i8*, i32 } %36, 1
  %39 = getelementptr inbounds { i8*, i32 }, { i8*, i32 }* %3, i32 0, i32 0
  store i8* %37, i8** %39, align 8
  %40 = getelementptr inbounds { i8*, i32 }, { i8*, i32 }* %3, i32 0, i32 1
  store i32 %38, i32* %40, align 8
  br label %bb9

bb5:                                              ; preds = %bb18
  store %"alloc::string::String"* %dst, %"alloc::string::String"** %dst.dbg.spill, align 8, !dbg !432
  call void @llvm.dbg.declare(metadata %"alloc::string::String"** %dst.dbg.spill, metadata !361, metadata !DIExpression()), !dbg !362
  %41 = bitcast %"alloc::string::String"* %src to i8*, !dbg !434
  %42 = bitcast %"alloc::string::String"* %element to i8*, !dbg !434
  call void @llvm.memcpy.p0i8.p0i8.i64(i8* align 8 %41, i8* align 8 %42, i64 24, i1 false), !dbg !434
  %43 = bitcast %"alloc::string::String"* %dst to i8*, !dbg !362
  %44 = bitcast %"alloc::string::String"* %src to i8*, !dbg !362
  call void @llvm.memcpy.p0i8.p0i8.i64(i8* align 8 %43, i8* align 8 %44, i64 24, i1 false), !dbg !362
  store %"alloc::vec::Vec<alloc::string::String>"* %vector1, %"alloc::vec::Vec<alloc::string::String>"** %self.dbg.spill7, align 8, !dbg !435
  call void @llvm.dbg.declare(metadata %"alloc::vec::Vec<alloc::string::String>"** %self.dbg.spill7, metadata !436, metadata !DIExpression()), !dbg !444
  %45 = getelementptr inbounds %"alloc::vec::Vec<alloc::string::String>", %"alloc::vec::Vec<alloc::string::String>"* %vector1, i32 0, i32 1, !dbg !444
  store i64 1, i64* %45, align 8, !dbg !444
  %46 = bitcast %"alloc::vec::Vec<alloc::string::String>"* %vector to i8*, !dbg !445
  %47 = bitcast %"alloc::vec::Vec<alloc::string::String>"* %vector1 to i8*, !dbg !445
  call void @llvm.memcpy.p0i8.p0i8.i64(i8* align 8 %46, i8* align 8 %47, i64 24, i1 false), !dbg !445
  store i8 0, i8* %_24, align 1, !dbg !446
  %_22 = load %Shlex*, %Shlex** %iterator, align 8, !dbg !446, !nonnull !19, !align !447, !noundef !19
; invoke <alloc::vec::Vec<T,A> as alloc::vec::spec_extend::SpecExtend<T,I>>::spec_extend
  invoke void @"_ZN97_$LT$alloc..vec..Vec$LT$T$C$A$GT$$u20$as$u20$alloc..vec..spec_extend..SpecExtend$LT$T$C$I$GT$$GT$11spec_extend17hc39477a9218591a1E"(%"alloc::vec::Vec<alloc::string::String>"* align 8 %vector, %Shlex* align 8 %_22)
          to label %bb6 unwind label %cleanup8, !dbg !448

abort:                                            ; preds = %bb8, %bb11, %bb9
  %48 = landingpad { i8*, i32 }
          cleanup, !dbg !449
; call core::panicking::panic_no_unwind
  call void @_ZN4core9panicking15panic_no_unwind17h62f8113f44cbfcbfE() #15, !dbg !449
  unreachable, !dbg !449

bb11:                                             ; preds = %bb12
; invoke core::ptr::drop_in_place<alloc::string::String>
  invoke void @"_ZN4core3ptr42drop_in_place$LT$alloc..string..String$GT$17h0ccb537bb1763a95E"(%"alloc::string::String"* %element) #14
          to label %bb14 unwind label %abort, !dbg !404

bb8:                                              ; preds = %cleanup8
; invoke core::ptr::drop_in_place<alloc::vec::Vec<alloc::string::String>>
  invoke void @"_ZN4core3ptr65drop_in_place$LT$alloc..vec..Vec$LT$alloc..string..String$GT$$GT$17h9e3b3be1cd4c1522E"(%"alloc::vec::Vec<alloc::string::String>"* %vector) #14
          to label %bb14 unwind label %abort, !dbg !393

cleanup8:                                         ; preds = %bb5
  %49 = landingpad { i8*, i32 }
          cleanup
  %50 = extractvalue { i8*, i32 } %49, 0
  %51 = extractvalue { i8*, i32 } %49, 1
  %52 = getelementptr inbounds { i8*, i32 }, { i8*, i32 }* %3, i32 0, i32 0
  store i8* %50, i8** %52, align 8
  %53 = getelementptr inbounds { i8*, i32 }, { i8*, i32 }* %3, i32 0, i32 1
  store i32 %51, i32* %53, align 8
  br label %bb8

bb6:                                              ; preds = %bb5
  %54 = bitcast %"alloc::vec::Vec<alloc::string::String>"* %0 to i8*, !dbg !450
  %55 = bitcast %"alloc::vec::Vec<alloc::string::String>"* %vector to i8*, !dbg !450
  call void @llvm.memcpy.p0i8.p0i8.i64(i8* align 8 %54, i8* align 8 %55, i64 24, i1 false), !dbg !450
  br label %bb7, !dbg !393

bb10:                                             ; preds = %bb13, %bb14
  %56 = bitcast { i8*, i32 }* %3 to i8**, !dbg !449
  %57 = load i8*, i8** %56, align 8, !dbg !449
  %58 = getelementptr inbounds { i8*, i32 }, { i8*, i32 }* %3, i32 0, i32 1, !dbg !449
  %59 = load i32, i32* %58, align 8, !dbg !449
  %60 = insertvalue { i8*, i32 } undef, i8* %57, 0, !dbg !449
  %61 = insertvalue { i8*, i32 } %60, i32 %59, 1, !dbg !449
  resume { i8*, i32 } %61, !dbg !449

bb13:                                             ; preds = %bb14
  br label %bb10, !dbg !393

bb7:                                              ; preds = %bb15, %bb6
  ret void, !dbg !451
}

; <alloc::vec::Vec<T> as alloc::vec::spec_from_iter_nested::SpecFromIterNested<T,I>>::from_iter
; Function Attrs: nonlazybind uwtable
define void @"_ZN111_$LT$alloc..vec..Vec$LT$T$GT$$u20$as$u20$alloc..vec..spec_from_iter_nested..SpecFromIterNested$LT$T$C$I$GT$$GT$9from_iter17hf80895153a7e894bE"(%"alloc::vec::Vec<alloc::vec::Vec<u8>>"* sret(%"alloc::vec::Vec<alloc::vec::Vec<u8>>") %0, %"bytes::Shlex"* align 8 %1) unnamed_addr #1 personality i32 (i32, i32, i64, %"unwind::libunwind::_Unwind_Exception"*, %"unwind::libunwind::_Unwind_Context"*)* @rust_eh_personality !dbg !452 {
start:
  %self.dbg.spill7 = alloca %"alloc::vec::Vec<alloc::vec::Vec<u8>>"*, align 8
  %dst.dbg.spill = alloca %"alloc::vec::Vec<u8>"*, align 8
  %capacity.dbg.spill5 = alloca i64, align 8
  %capacity.dbg.spill4 = alloca i64, align 8
  %capacity.dbg.spill = alloca i64, align 8
  %initial_capacity.dbg.spill = alloca i64, align 8
  %v1.dbg.spill = alloca i64, align 8
  %v2.dbg.spill = alloca i64, align 8
  %2 = alloca i64, align 8
  %self.dbg.spill = alloca i64, align 8
  %lower.dbg.spill = alloca i64, align 8
  %3 = alloca { i8*, i32 }, align 8
  %alloc.dbg.spill2 = alloca %"alloc::alloc::Global", align 1
  %alloc.dbg.spill = alloca %"alloc::alloc::Global", align 1
  %_38 = alloca i8, align 1
  %_24 = alloca i8, align 1
  %src = alloca %"alloc::vec::Vec<u8>", align 8
  %vector1 = alloca %"alloc::vec::Vec<alloc::vec::Vec<u8>>", align 8
  %_8 = alloca { i64, { i64, i64 } }, align 8
  %element = alloca %"alloc::vec::Vec<u8>", align 8
  %_3 = alloca %"core::option::Option<alloc::vec::Vec<u8>>", align 8
  %vector = alloca %"alloc::vec::Vec<alloc::vec::Vec<u8>>", align 8
  %iterator = alloca %"bytes::Shlex"*, align 8
  store %"bytes::Shlex"* %1, %"bytes::Shlex"** %iterator, align 8
  call void @llvm.dbg.declare(metadata %"bytes::Shlex"** %iterator, metadata !478, metadata !DIExpression()), !dbg !491
  call void @llvm.dbg.declare(metadata %"alloc::vec::Vec<alloc::vec::Vec<u8>>"* %vector, metadata !479, metadata !DIExpression()), !dbg !492
  call void @llvm.dbg.declare(metadata %"alloc::vec::Vec<u8>"* %element, metadata !481, metadata !DIExpression()), !dbg !493
  call void @llvm.dbg.declare(metadata %"alloc::vec::Vec<alloc::vec::Vec<u8>>"* %vector1, metadata !487, metadata !DIExpression()), !dbg !494
  call void @llvm.dbg.declare(metadata %"alloc::vec::Vec<u8>"* %src, metadata !495, metadata !DIExpression()), !dbg !503
  call void @llvm.dbg.declare(metadata %"alloc::alloc::Global"* %alloc.dbg.spill, metadata !505, metadata !DIExpression()), !dbg !512
  call void @llvm.dbg.declare(metadata %"alloc::alloc::Global"* %alloc.dbg.spill2, metadata !521, metadata !DIExpression()), !dbg !528
  store i8 1, i8* %_24, align 1, !dbg !530
; invoke <&mut I as core::iter::traits::iterator::Iterator>::next
  invoke void @"_ZN72_$LT$$RF$mut$u20$I$u20$as$u20$core..iter..traits..iterator..Iterator$GT$4next17h795a6a2b04c995d4E"(%"core::option::Option<alloc::vec::Vec<u8>>"* sret(%"core::option::Option<alloc::vec::Vec<u8>>") %_3, %"bytes::Shlex"** align 8 %iterator)
          to label %bb1 unwind label %cleanup, !dbg !531

bb14:                                             ; preds = %bb8, %bb11, %bb12, %cleanup
  %4 = load i8, i8* %_24, align 1, !dbg !532, !range !394, !noundef !19
  %5 = trunc i8 %4 to i1, !dbg !532
  br i1 %5, label %bb13, label %bb10, !dbg !532

cleanup:                                          ; preds = %start
  %6 = landingpad { i8*, i32 }
          cleanup
  %7 = extractvalue { i8*, i32 } %6, 0
  %8 = extractvalue { i8*, i32 } %6, 1
  %9 = getelementptr inbounds { i8*, i32 }, { i8*, i32 }* %3, i32 0, i32 0
  store i8* %7, i8** %9, align 8
  %10 = getelementptr inbounds { i8*, i32 }, { i8*, i32 }* %3, i32 0, i32 1
  store i32 %8, i32* %10, align 8
  br label %bb14

bb1:                                              ; preds = %start
  %11 = bitcast %"core::option::Option<alloc::vec::Vec<u8>>"* %_3 to {}**, !dbg !531
  %12 = load {}*, {}** %11, align 8, !dbg !531
  %13 = icmp eq {}* %12, null, !dbg !531
  %_5 = select i1 %13, i64 0, i64 1, !dbg !531
  switch i64 %_5, label %bb3 [
    i64 0, label %bb15
    i64 1, label %bb2
  ], !dbg !533

bb3:                                              ; preds = %bb1
  unreachable, !dbg !531

bb15:                                             ; preds = %bb1
  %_25.0 = load i64*, i64** getelementptr inbounds ({ i64*, i64 }, { i64*, i64 }* bitcast (<{ [16 x i8] }>* @0 to { i64*, i64 }*), i32 0, i32 0), align 8, !dbg !534, !nonnull !19, !noundef !19
  %_25.1 = load i64, i64* getelementptr inbounds ({ i64*, i64 }, { i64*, i64 }* bitcast (<{ [16 x i8] }>* @0 to { i64*, i64 }*), i32 0, i32 1), align 8, !dbg !534
  %14 = bitcast %"alloc::vec::Vec<alloc::vec::Vec<u8>>"* %0 to { i64*, i64 }*, !dbg !534
  %15 = getelementptr inbounds { i64*, i64 }, { i64*, i64 }* %14, i32 0, i32 0, !dbg !534
  store i64* %_25.0, i64** %15, align 8, !dbg !534
  %16 = getelementptr inbounds { i64*, i64 }, { i64*, i64 }* %14, i32 0, i32 1, !dbg !534
  store i64 %_25.1, i64* %16, align 8, !dbg !534
  %17 = getelementptr inbounds %"alloc::vec::Vec<alloc::vec::Vec<u8>>", %"alloc::vec::Vec<alloc::vec::Vec<u8>>"* %0, i32 0, i32 1, !dbg !534
  store i64 0, i64* %17, align 8, !dbg !534
  br label %bb7, !dbg !532

bb2:                                              ; preds = %bb1
  %18 = bitcast %"core::option::Option<alloc::vec::Vec<u8>>"* %_3 to %"core::option::Option<alloc::vec::Vec<u8>>::Some"*, !dbg !540
  %19 = bitcast %"core::option::Option<alloc::vec::Vec<u8>>::Some"* %18 to %"alloc::vec::Vec<u8>"*, !dbg !540
  %20 = bitcast %"alloc::vec::Vec<u8>"* %element to i8*, !dbg !540
  %21 = bitcast %"alloc::vec::Vec<u8>"* %19 to i8*, !dbg !540
  call void @llvm.memcpy.p0i8.p0i8.i64(i8* align 8 %20, i8* align 8 %21, i64 24, i1 false), !dbg !540
; invoke <&mut I as core::iter::traits::iterator::Iterator>::size_hint
  invoke void @"_ZN72_$LT$$RF$mut$u20$I$u20$as$u20$core..iter..traits..iterator..Iterator$GT$9size_hint17ha9dd4646d3c6cae6E"({ i64, { i64, i64 } }* sret({ i64, { i64, i64 } }) %_8, %"bytes::Shlex"** align 8 %iterator)
          to label %bb4 unwind label %cleanup3, !dbg !541

bb12:                                             ; preds = %bb9, %cleanup3
  br i1 true, label %bb11, label %bb14, !dbg !542

cleanup3:                                         ; preds = %bb17, %bb16, %bb2
  %22 = landingpad { i8*, i32 }
          cleanup
  %23 = extractvalue { i8*, i32 } %22, 0
  %24 = extractvalue { i8*, i32 } %22, 1
  %25 = getelementptr inbounds { i8*, i32 }, { i8*, i32 }* %3, i32 0, i32 0
  store i8* %23, i8** %25, align 8
  %26 = getelementptr inbounds { i8*, i32 }, { i8*, i32 }* %3, i32 0, i32 1
  store i32 %24, i32* %26, align 8
  br label %bb12

bb4:                                              ; preds = %bb2
  %27 = bitcast { i64, { i64, i64 } }* %_8 to i64*, !dbg !543
  %lower = load i64, i64* %27, align 8, !dbg !543
  store i64 %lower, i64* %lower.dbg.spill, align 8, !dbg !543
  call void @llvm.dbg.declare(metadata i64* %lower.dbg.spill, metadata !483, metadata !DIExpression()), !dbg !544
  store i64 %lower, i64* %self.dbg.spill, align 8, !dbg !545
  call void @llvm.dbg.declare(metadata i64* %self.dbg.spill, metadata !546, metadata !DIExpression()), !dbg !551
  %28 = call i64 @llvm.uadd.sat.i64(i64 %lower, i64 1), !dbg !551
  store i64 %28, i64* %2, align 8, !dbg !551
  %v2 = load i64, i64* %2, align 8, !dbg !551
  store i64 %v2, i64* %v2.dbg.spill, align 8, !dbg !551
  call void @llvm.dbg.declare(metadata i64* %v2.dbg.spill, metadata !552, metadata !DIExpression()), !dbg !557
  br label %bb16, !dbg !551

bb16:                                             ; preds = %bb4
  store i64 4, i64* %v1.dbg.spill, align 8, !dbg !558
  call void @llvm.dbg.declare(metadata i64* %v1.dbg.spill, metadata !556, metadata !DIExpression()), !dbg !557
; invoke core::cmp::Ord::max
  %initial_capacity = invoke i64 @_ZN4core3cmp3Ord3max17haa98f192bff214e2E(i64 4, i64 %v2)
          to label %bb17 unwind label %cleanup3, !dbg !557

bb17:                                             ; preds = %bb16
  store i64 %initial_capacity, i64* %initial_capacity.dbg.spill, align 8, !dbg !557
  call void @llvm.dbg.declare(metadata i64* %initial_capacity.dbg.spill, metadata !485, metadata !DIExpression()), !dbg !559
  store i64 %initial_capacity, i64* %capacity.dbg.spill, align 8, !dbg !560
  call void @llvm.dbg.declare(metadata i64* %capacity.dbg.spill, metadata !518, metadata !DIExpression()), !dbg !561
  store i64 %initial_capacity, i64* %capacity.dbg.spill4, align 8, !dbg !561
  call void @llvm.dbg.declare(metadata i64* %capacity.dbg.spill4, metadata !511, metadata !DIExpression()), !dbg !512
  store i64 %initial_capacity, i64* %capacity.dbg.spill5, align 8, !dbg !512
  call void @llvm.dbg.declare(metadata i64* %capacity.dbg.spill5, metadata !527, metadata !DIExpression()), !dbg !528
  store i8 0, i8* %_38, align 1, !dbg !528
  %29 = load i8, i8* %_38, align 1, !dbg !528, !range !394, !noundef !19
  %30 = trunc i8 %29 to i1, !dbg !528
; invoke alloc::raw_vec::RawVec<T,A>::allocate_in
  %31 = invoke { i64*, i64 } @"_ZN5alloc7raw_vec19RawVec$LT$T$C$A$GT$11allocate_in17hff10a4c41025bd83E"(i64 %initial_capacity, i1 zeroext %30)
          to label %bb18 unwind label %cleanup3, !dbg !528

bb18:                                             ; preds = %bb17
  %_34.0 = extractvalue { i64*, i64 } %31, 0, !dbg !528
  %_34.1 = extractvalue { i64*, i64 } %31, 1, !dbg !528
  %32 = bitcast %"alloc::vec::Vec<alloc::vec::Vec<u8>>"* %vector1 to { i64*, i64 }*, !dbg !512
  %33 = getelementptr inbounds { i64*, i64 }, { i64*, i64 }* %32, i32 0, i32 0, !dbg !512
  store i64* %_34.0, i64** %33, align 8, !dbg !512
  %34 = getelementptr inbounds { i64*, i64 }, { i64*, i64 }* %32, i32 0, i32 1, !dbg !512
  store i64 %_34.1, i64* %34, align 8, !dbg !512
  %35 = getelementptr inbounds %"alloc::vec::Vec<alloc::vec::Vec<u8>>", %"alloc::vec::Vec<alloc::vec::Vec<u8>>"* %vector1, i32 0, i32 1, !dbg !512
  store i64 0, i64* %35, align 8, !dbg !512
; invoke alloc::vec::Vec<T,A>::as_mut_ptr
  %dst = invoke %"alloc::vec::Vec<u8>"* @"_ZN5alloc3vec16Vec$LT$T$C$A$GT$10as_mut_ptr17h1d53eb0dd4b79cbfE"(%"alloc::vec::Vec<alloc::vec::Vec<u8>>"* align 8 %vector1)
          to label %bb5 unwind label %cleanup6, !dbg !562

bb9:                                              ; preds = %cleanup6
; invoke core::ptr::drop_in_place<alloc::vec::Vec<alloc::vec::Vec<u8>>>
  invoke void @"_ZN4core3ptr69drop_in_place$LT$alloc..vec..Vec$LT$alloc..vec..Vec$LT$u8$GT$$GT$$GT$17h6d0efc2a132f28d7E"(%"alloc::vec::Vec<alloc::vec::Vec<u8>>"* %vector1) #14
          to label %bb12 unwind label %abort, !dbg !563

cleanup6:                                         ; preds = %bb18
  %36 = landingpad { i8*, i32 }
          cleanup
  %37 = extractvalue { i8*, i32 } %36, 0
  %38 = extractvalue { i8*, i32 } %36, 1
  %39 = getelementptr inbounds { i8*, i32 }, { i8*, i32 }* %3, i32 0, i32 0
  store i8* %37, i8** %39, align 8
  %40 = getelementptr inbounds { i8*, i32 }, { i8*, i32 }* %3, i32 0, i32 1
  store i32 %38, i32* %40, align 8
  br label %bb9

bb5:                                              ; preds = %bb18
  store %"alloc::vec::Vec<u8>"* %dst, %"alloc::vec::Vec<u8>"** %dst.dbg.spill, align 8, !dbg !562
  call void @llvm.dbg.declare(metadata %"alloc::vec::Vec<u8>"** %dst.dbg.spill, metadata !502, metadata !DIExpression()), !dbg !503
  %41 = bitcast %"alloc::vec::Vec<u8>"* %src to i8*, !dbg !564
  %42 = bitcast %"alloc::vec::Vec<u8>"* %element to i8*, !dbg !564
  call void @llvm.memcpy.p0i8.p0i8.i64(i8* align 8 %41, i8* align 8 %42, i64 24, i1 false), !dbg !564
  %43 = bitcast %"alloc::vec::Vec<u8>"* %dst to i8*, !dbg !503
  %44 = bitcast %"alloc::vec::Vec<u8>"* %src to i8*, !dbg !503
  call void @llvm.memcpy.p0i8.p0i8.i64(i8* align 8 %43, i8* align 8 %44, i64 24, i1 false), !dbg !503
  store %"alloc::vec::Vec<alloc::vec::Vec<u8>>"* %vector1, %"alloc::vec::Vec<alloc::vec::Vec<u8>>"** %self.dbg.spill7, align 8, !dbg !565
  call void @llvm.dbg.declare(metadata %"alloc::vec::Vec<alloc::vec::Vec<u8>>"** %self.dbg.spill7, metadata !566, metadata !DIExpression()), !dbg !574
  %45 = getelementptr inbounds %"alloc::vec::Vec<alloc::vec::Vec<u8>>", %"alloc::vec::Vec<alloc::vec::Vec<u8>>"* %vector1, i32 0, i32 1, !dbg !574
  store i64 1, i64* %45, align 8, !dbg !574
  %46 = bitcast %"alloc::vec::Vec<alloc::vec::Vec<u8>>"* %vector to i8*, !dbg !575
  %47 = bitcast %"alloc::vec::Vec<alloc::vec::Vec<u8>>"* %vector1 to i8*, !dbg !575
  call void @llvm.memcpy.p0i8.p0i8.i64(i8* align 8 %46, i8* align 8 %47, i64 24, i1 false), !dbg !575
  store i8 0, i8* %_24, align 1, !dbg !576
  %_22 = load %"bytes::Shlex"*, %"bytes::Shlex"** %iterator, align 8, !dbg !576, !nonnull !19, !align !447, !noundef !19
; invoke <alloc::vec::Vec<T,A> as alloc::vec::spec_extend::SpecExtend<T,I>>::spec_extend
  invoke void @"_ZN97_$LT$alloc..vec..Vec$LT$T$C$A$GT$$u20$as$u20$alloc..vec..spec_extend..SpecExtend$LT$T$C$I$GT$$GT$11spec_extend17h1f6bfb8f2681e93fE"(%"alloc::vec::Vec<alloc::vec::Vec<u8>>"* align 8 %vector, %"bytes::Shlex"* align 8 %_22)
          to label %bb6 unwind label %cleanup8, !dbg !577

abort:                                            ; preds = %bb8, %bb11, %bb9
  %48 = landingpad { i8*, i32 }
          cleanup, !dbg !578
; call core::panicking::panic_no_unwind
  call void @_ZN4core9panicking15panic_no_unwind17h62f8113f44cbfcbfE() #15, !dbg !578
  unreachable, !dbg !578

bb11:                                             ; preds = %bb12
; invoke core::ptr::drop_in_place<alloc::vec::Vec<u8>>
  invoke void @"_ZN4core3ptr46drop_in_place$LT$alloc..vec..Vec$LT$u8$GT$$GT$17h9be70052c8106a2bE"(%"alloc::vec::Vec<u8>"* %element) #14
          to label %bb14 unwind label %abort, !dbg !542

bb8:                                              ; preds = %cleanup8
; invoke core::ptr::drop_in_place<alloc::vec::Vec<alloc::vec::Vec<u8>>>
  invoke void @"_ZN4core3ptr69drop_in_place$LT$alloc..vec..Vec$LT$alloc..vec..Vec$LT$u8$GT$$GT$$GT$17h6d0efc2a132f28d7E"(%"alloc::vec::Vec<alloc::vec::Vec<u8>>"* %vector) #14
          to label %bb14 unwind label %abort, !dbg !532

cleanup8:                                         ; preds = %bb5
  %49 = landingpad { i8*, i32 }
          cleanup
  %50 = extractvalue { i8*, i32 } %49, 0
  %51 = extractvalue { i8*, i32 } %49, 1
  %52 = getelementptr inbounds { i8*, i32 }, { i8*, i32 }* %3, i32 0, i32 0
  store i8* %50, i8** %52, align 8
  %53 = getelementptr inbounds { i8*, i32 }, { i8*, i32 }* %3, i32 0, i32 1
  store i32 %51, i32* %53, align 8
  br label %bb8

bb6:                                              ; preds = %bb5
  %54 = bitcast %"alloc::vec::Vec<alloc::vec::Vec<u8>>"* %0 to i8*, !dbg !579
  %55 = bitcast %"alloc::vec::Vec<alloc::vec::Vec<u8>>"* %vector to i8*, !dbg !579
  call void @llvm.memcpy.p0i8.p0i8.i64(i8* align 8 %54, i8* align 8 %55, i64 24, i1 false), !dbg !579
  br label %bb7, !dbg !532

bb10:                                             ; preds = %bb13, %bb14
  %56 = bitcast { i8*, i32 }* %3 to i8**, !dbg !578
  %57 = load i8*, i8** %56, align 8, !dbg !578
  %58 = getelementptr inbounds { i8*, i32 }, { i8*, i32 }* %3, i32 0, i32 1, !dbg !578
  %59 = load i32, i32* %58, align 8, !dbg !578
  %60 = insertvalue { i8*, i32 } undef, i8* %57, 0, !dbg !578
  %61 = insertvalue { i8*, i32 } %60, i32 %59, 1, !dbg !578
  resume { i8*, i32 } %61, !dbg !578

bb13:                                             ; preds = %bb14
  br label %bb10, !dbg !532

bb7:                                              ; preds = %bb15, %bb6
  ret void, !dbg !580
}

; <core::ptr::non_null::NonNull<T> as core::convert::From<core::ptr::unique::Unique<T>>>::from
; Function Attrs: inlinehint nonlazybind uwtable
define i8* @"_ZN119_$LT$core..ptr..non_null..NonNull$LT$T$GT$$u20$as$u20$core..convert..From$LT$core..ptr..unique..Unique$LT$T$GT$$GT$$GT$4from17h2d3767c9df7a2bc5E"(i8* %unique) unnamed_addr #0 !dbg !581 {
start:
  %ptr.dbg.spill = alloca i8*, align 8
  %self.dbg.spill1 = alloca i8*, align 8
  %self.dbg.spill = alloca i8*, align 8
  %unique.dbg.spill = alloca i8*, align 8
  %0 = alloca i8*, align 8
  store i8* %unique, i8** %unique.dbg.spill, align 8
  call void @llvm.dbg.declare(metadata i8** %unique.dbg.spill, metadata !587, metadata !DIExpression()), !dbg !588
  store i8* %unique, i8** %self.dbg.spill, align 8, !dbg !589
  call void @llvm.dbg.declare(metadata i8** %self.dbg.spill, metadata !590, metadata !DIExpression()), !dbg !598
  store i8* %unique, i8** %self.dbg.spill1, align 8, !dbg !598
  call void @llvm.dbg.declare(metadata i8** %self.dbg.spill1, metadata !599, metadata !DIExpression()), !dbg !604
  store i8* %unique, i8** %ptr.dbg.spill, align 8, !dbg !604
  call void @llvm.dbg.declare(metadata i8** %ptr.dbg.spill, metadata !606, metadata !DIExpression()), !dbg !611
  store i8* %unique, i8** %0, align 8, !dbg !611
  %1 = load i8*, i8** %0, align 8, !dbg !613, !nonnull !19, !noundef !19
  ret i8* %1, !dbg !613
}

; <alloc::collections::TryReserveError as core::convert::From<alloc::collections::TryReserveErrorKind>>::from
; Function Attrs: inlinehint nonlazybind uwtable
define internal { i64, i64 } @"_ZN122_$LT$alloc..collections..TryReserveError$u20$as$u20$core..convert..From$LT$alloc..collections..TryReserveErrorKind$GT$$GT$4from17hd9b1e84b4e136ef5E"(i64 %kind.0, i64 %kind.1) unnamed_addr #0 !dbg !614 {
start:
  %kind.dbg.spill = alloca { i64, i64 }, align 8
  %0 = alloca { i64, i64 }, align 8
  %1 = getelementptr inbounds { i64, i64 }, { i64, i64 }* %kind.dbg.spill, i32 0, i32 0
  store i64 %kind.0, i64* %1, align 8
  %2 = getelementptr inbounds { i64, i64 }, { i64, i64 }* %kind.dbg.spill, i32 0, i32 1
  store i64 %kind.1, i64* %2, align 8
  call void @llvm.dbg.declare(metadata { i64, i64 }* %kind.dbg.spill, metadata !645, metadata !DIExpression()), !dbg !646
  %3 = getelementptr inbounds { i64, i64 }, { i64, i64 }* %0, i32 0, i32 0, !dbg !647
  store i64 %kind.0, i64* %3, align 8, !dbg !647
  %4 = getelementptr inbounds { i64, i64 }, { i64, i64 }* %0, i32 0, i32 1, !dbg !647
  store i64 %kind.1, i64* %4, align 8, !dbg !647
  %5 = getelementptr inbounds { i64, i64 }, { i64, i64 }* %0, i32 0, i32 0, !dbg !648
  %6 = load i64, i64* %5, align 8, !dbg !648
  %7 = getelementptr inbounds { i64, i64 }, { i64, i64 }* %0, i32 0, i32 1, !dbg !648
  %8 = load i64, i64* %7, align 8, !dbg !648, !range !649, !noundef !19
  %9 = insertvalue { i64, i64 } undef, i64 %6, 0, !dbg !648
  %10 = insertvalue { i64, i64 } %9, i64 %8, 1, !dbg !648
  ret { i64, i64 } %10, !dbg !648
}

; <alloc::vec::Vec<T,A> as alloc::vec::spec_extend::SpecExtend<&T,core::slice::iter::Iter<T>>>::spec_extend
; Function Attrs: nonlazybind uwtable
define void @"_ZN132_$LT$alloc..vec..Vec$LT$T$C$A$GT$$u20$as$u20$alloc..vec..spec_extend..SpecExtend$LT$$RF$T$C$core..slice..iter..Iter$LT$T$GT$$GT$$GT$11spec_extend17h267153515388f5d3E"(%"alloc::vec::Vec<u8>"* align 8 %self, i8* %0, i8* %1) unnamed_addr #1 !dbg !650 {
start:
  %slice.dbg.spill = alloca { [0 x i8]*, i64 }, align 8
  %self.dbg.spill = alloca %"alloc::vec::Vec<u8>"*, align 8
  %iterator = alloca { i8*, i8* }, align 8
  %2 = getelementptr inbounds { i8*, i8* }, { i8*, i8* }* %iterator, i32 0, i32 0
  store i8* %0, i8** %2, align 8
  %3 = getelementptr inbounds { i8*, i8* }, { i8*, i8* }* %iterator, i32 0, i32 1
  store i8* %1, i8** %3, align 8
  store %"alloc::vec::Vec<u8>"* %self, %"alloc::vec::Vec<u8>"** %self.dbg.spill, align 8
  call void @llvm.dbg.declare(metadata %"alloc::vec::Vec<u8>"** %self.dbg.spill, metadata !658, metadata !DIExpression()), !dbg !666
  call void @llvm.dbg.declare(metadata { i8*, i8* }* %iterator, metadata !659, metadata !DIExpression()), !dbg !667
; call core::slice::iter::Iter<T>::as_slice
  %4 = call { [0 x i8]*, i64 } @"_ZN4core5slice4iter13Iter$LT$T$GT$8as_slice17hc742c99cd5f50b44E"({ i8*, i8* }* align 8 %iterator), !dbg !668
  %slice.0 = extractvalue { [0 x i8]*, i64 } %4, 0, !dbg !668
  %slice.1 = extractvalue { [0 x i8]*, i64 } %4, 1, !dbg !668
  %5 = getelementptr inbounds { [0 x i8]*, i64 }, { [0 x i8]*, i64 }* %slice.dbg.spill, i32 0, i32 0, !dbg !668
  store [0 x i8]* %slice.0, [0 x i8]** %5, align 8, !dbg !668
  %6 = getelementptr inbounds { [0 x i8]*, i64 }, { [0 x i8]*, i64 }* %slice.dbg.spill, i32 0, i32 1, !dbg !668
  store i64 %slice.1, i64* %6, align 8, !dbg !668
  call void @llvm.dbg.declare(metadata { [0 x i8]*, i64 }* %slice.dbg.spill, metadata !660, metadata !DIExpression()), !dbg !669
  br label %bb1, !dbg !668

bb1:                                              ; preds = %start
; call alloc::vec::Vec<T,A>::append_elements
  call void @"_ZN5alloc3vec16Vec$LT$T$C$A$GT$15append_elements17hb2969b658d1a96daE"(%"alloc::vec::Vec<u8>"* align 8 %self, [0 x i8]* %slice.0, i64 %slice.1), !dbg !670
  br label %bb2, !dbg !670

bb2:                                              ; preds = %bb1
  ret void, !dbg !671
}

; <core::result::Result<T,F> as core::ops::try_trait::FromResidual<core::result::Result<core::convert::Infallible,E>>>::from_residual
; Function Attrs: inlinehint nonlazybind uwtable
define void @"_ZN153_$LT$core..result..Result$LT$T$C$F$GT$$u20$as$u20$core..ops..try_trait..FromResidual$LT$core..result..Result$LT$core..convert..Infallible$C$E$GT$$GT$$GT$13from_residual17hc75bc6a3a9354f0cE"(%"core::result::Result<alloc::borrow::Cow<str>, QuoteError>"* sret(%"core::result::Result<alloc::borrow::Cow<str>, QuoteError>") %0, %"core::panic::location::Location"* align 8 %1) unnamed_addr #0 !dbg !672 {
start:
  %e.dbg.spill = alloca %"QuoteError::Nul", align 1
  %residual.dbg.spill = alloca %"core::result::Result<core::convert::Infallible, QuoteError>::Err", align 1
  call void @llvm.dbg.declare(metadata %"core::result::Result<core::convert::Infallible, QuoteError>::Err"* %residual.dbg.spill, metadata !742, metadata !DIExpression()), !dbg !747
  call void @llvm.dbg.declare(metadata %"QuoteError::Nul"* %e.dbg.spill, metadata !743, metadata !DIExpression()), !dbg !748
; call <T as core::convert::From<T>>::from
  call void @"_ZN50_$LT$T$u20$as$u20$core..convert..From$LT$T$GT$$GT$4from17ha57a116830ea7e61E"(), !dbg !749
  br label %bb1, !dbg !749

bb1:                                              ; preds = %start
  %2 = bitcast %"core::result::Result<alloc::borrow::Cow<str>, QuoteError>"* %0 to %"core::result::Result<alloc::borrow::Cow<str>, QuoteError>::Err"*, !dbg !750
  %3 = bitcast %"core::result::Result<alloc::borrow::Cow<str>, QuoteError>::Err"* %2 to %"QuoteError::Nul"*, !dbg !750
  %4 = bitcast %"core::result::Result<alloc::borrow::Cow<str>, QuoteError>"* %0 to i64*, !dbg !750
  store i64 2, i64* %4, align 8, !dbg !750
  ret void, !dbg !751
}

; <bool as core::fmt::Debug>::fmt
; Function Attrs: inlinehint nonlazybind uwtable
define internal zeroext i1 @"_ZN41_$LT$bool$u20$as$u20$core..fmt..Debug$GT$3fmt17h1956df0bbfc1bb9dE"(i8* align 1 %self, %"core::fmt::Formatter"* align 8 %f) unnamed_addr #0 !dbg !752 {
start:
  %f.dbg.spill = alloca %"core::fmt::Formatter"*, align 8
  %self.dbg.spill = alloca i8*, align 8
  store i8* %self, i8** %self.dbg.spill, align 8
  call void @llvm.dbg.declare(metadata i8** %self.dbg.spill, metadata !807, metadata !DIExpression()), !dbg !809
  store %"core::fmt::Formatter"* %f, %"core::fmt::Formatter"** %f.dbg.spill, align 8
  call void @llvm.dbg.declare(metadata %"core::fmt::Formatter"** %f.dbg.spill, metadata !808, metadata !DIExpression()), !dbg !810
; call <bool as core::fmt::Display>::fmt
  %0 = call zeroext i1 @"_ZN43_$LT$bool$u20$as$u20$core..fmt..Display$GT$3fmt17h2dce19af35182c57E"(i8* align 1 %self, %"core::fmt::Formatter"* align 8 %f), !dbg !811
  br label %bb1, !dbg !811

bb1:                                              ; preds = %start
  ret i1 %0, !dbg !812
}

; <&T as core::fmt::Debug>::fmt
; Function Attrs: nonlazybind uwtable
define zeroext i1 @"_ZN42_$LT$$RF$T$u20$as$u20$core..fmt..Debug$GT$3fmt17h7adee208db613555E"(i8** align 8 %self, %"core::fmt::Formatter"* align 8 %f) unnamed_addr #1 !dbg !813 {
start:
  %f.dbg.spill = alloca %"core::fmt::Formatter"*, align 8
  %self.dbg.spill = alloca i8**, align 8
  store i8** %self, i8*** %self.dbg.spill, align 8
  call void @llvm.dbg.declare(metadata i8*** %self.dbg.spill, metadata !819, metadata !DIExpression()), !dbg !823
  store %"core::fmt::Formatter"* %f, %"core::fmt::Formatter"** %f.dbg.spill, align 8
  call void @llvm.dbg.declare(metadata %"core::fmt::Formatter"** %f.dbg.spill, metadata !820, metadata !DIExpression()), !dbg !824
  %_6 = load i8*, i8** %self, align 8, !dbg !825, !nonnull !19, !align !826, !noundef !19
; call <shlex::bytes::Quoter as core::fmt::Debug>::fmt
  %0 = call zeroext i1 @"_ZN57_$LT$shlex..bytes..Quoter$u20$as$u20$core..fmt..Debug$GT$3fmt17h6f5ef6df0f0025f4E"(i8* align 1 %_6, %"core::fmt::Formatter"* align 8 %f), !dbg !827
  br label %bb1, !dbg !827

bb1:                                              ; preds = %start
  ret i1 %0, !dbg !828
}

; <&T as core::fmt::Debug>::fmt
; Function Attrs: nonlazybind uwtable
define zeroext i1 @"_ZN42_$LT$$RF$T$u20$as$u20$core..fmt..Debug$GT$3fmt17h7c8c0b1db793cd4eE"(i8** align 8 %self, %"core::fmt::Formatter"* align 8 %f) unnamed_addr #1 !dbg !829 {
start:
  %f.dbg.spill = alloca %"core::fmt::Formatter"*, align 8
  %self.dbg.spill = alloca i8**, align 8
  store i8** %self, i8*** %self.dbg.spill, align 8
  call void @llvm.dbg.declare(metadata i8*** %self.dbg.spill, metadata !834, metadata !DIExpression()), !dbg !838
  store %"core::fmt::Formatter"* %f, %"core::fmt::Formatter"** %f.dbg.spill, align 8
  call void @llvm.dbg.declare(metadata %"core::fmt::Formatter"** %f.dbg.spill, metadata !835, metadata !DIExpression()), !dbg !839
  %_6 = load i8*, i8** %self, align 8, !dbg !840, !nonnull !19, !align !826, !noundef !19
; call <bool as core::fmt::Debug>::fmt
  %0 = call zeroext i1 @"_ZN41_$LT$bool$u20$as$u20$core..fmt..Debug$GT$3fmt17h1956df0bbfc1bb9dE"(i8* align 1 %_6, %"core::fmt::Formatter"* align 8 %f), !dbg !841
  br label %bb1, !dbg !841

bb1:                                              ; preds = %start
  ret i1 %0, !dbg !842
}

; <bool as core::default::Default>::default
; Function Attrs: inlinehint nonlazybind uwtable
define internal zeroext i1 @"_ZN47_$LT$bool$u20$as$u20$core..default..Default$GT$7default17h8e6c38a7341174e1E"() unnamed_addr #0 !dbg !843 {
start:
  ret i1 false, !dbg !849
}

; core::cmp::Ord::max
; Function Attrs: inlinehint nonlazybind uwtable
define i64 @_ZN4core3cmp3Ord3max17haa98f192bff214e2E(i64 %0, i64 %1) unnamed_addr #0 personality i32 (i32, i32, i64, %"unwind::libunwind::_Unwind_Exception"*, %"unwind::libunwind::_Unwind_Context"*)* @rust_eh_personality !dbg !850 {
start:
  %2 = alloca { i8*, i32 }, align 8
  %_9 = alloca i8, align 1
  %_8 = alloca i8, align 1
  %_3 = alloca i8, align 1
  %3 = alloca i64, align 8
  %other = alloca i64, align 8
  %self = alloca i64, align 8
  store i64 %0, i64* %self, align 8
  store i64 %1, i64* %other, align 8
  call void @llvm.dbg.declare(metadata i64* %self, metadata !853, metadata !DIExpression()), !dbg !857
  call void @llvm.dbg.declare(metadata i64* %other, metadata !854, metadata !DIExpression()), !dbg !858
  store i8 1, i8* %_9, align 1, !dbg !859
  store i8 1, i8* %_8, align 1, !dbg !859
; invoke core::cmp::impls::<impl core::cmp::Ord for usize>::cmp
  %4 = invoke i8 @"_ZN4core3cmp5impls50_$LT$impl$u20$core..cmp..Ord$u20$for$u20$usize$GT$3cmp17hf38661dffacb58dfE"(i64* align 8 %self, i64* align 8 %other)
          to label %bb1 unwind label %cleanup, !dbg !859, !range !860

bb8:                                              ; preds = %cleanup
  br label %bb13, !dbg !861

cleanup:                                          ; preds = %start
  %5 = landingpad { i8*, i32 }
          cleanup
  %6 = extractvalue { i8*, i32 } %5, 0
  %7 = extractvalue { i8*, i32 } %5, 1
  %8 = getelementptr inbounds { i8*, i32 }, { i8*, i32 }* %2, i32 0, i32 0
  store i8* %6, i8** %8, align 8
  %9 = getelementptr inbounds { i8*, i32 }, { i8*, i32 }* %2, i32 0, i32 1
  store i32 %7, i32* %9, align 8
  br label %bb8

bb1:                                              ; preds = %start
  store i8 %4, i8* %_3, align 1, !dbg !859
  %_7 = load i8, i8* %_3, align 1, !dbg !859, !range !860, !noundef !19
  switch i8 %_7, label %bb3 [
    i8 -1, label %bb4
    i8 0, label %bb4
    i8 1, label %bb2
  ], !dbg !862

bb13:                                             ; preds = %bb8
  %10 = load i8, i8* %_9, align 1, !dbg !861, !range !394, !noundef !19
  %11 = trunc i8 %10 to i1, !dbg !861
  br i1 %11, label %bb12, label %bb9, !dbg !861

bb3:                                              ; preds = %bb1
  unreachable, !dbg !859

bb4:                                              ; preds = %bb1, %bb1
  store i8 0, i8* %_8, align 1, !dbg !863
  %12 = load i64, i64* %other, align 8, !dbg !863
  store i64 %12, i64* %3, align 8, !dbg !863
  br label %bb5, !dbg !863

bb2:                                              ; preds = %bb1
  store i8 0, i8* %_9, align 1, !dbg !864
  %13 = load i64, i64* %self, align 8, !dbg !864
  store i64 %13, i64* %3, align 8, !dbg !864
  br label %bb5, !dbg !864

bb5:                                              ; preds = %bb4, %bb2
  %14 = load i8, i8* %_8, align 1, !dbg !861, !range !394, !noundef !19
  %15 = trunc i8 %14 to i1, !dbg !861
  br i1 %15, label %bb10, label %bb6, !dbg !861

bb6:                                              ; preds = %bb10, %bb5
  %16 = load i8, i8* %_9, align 1, !dbg !861, !range !394, !noundef !19
  %17 = trunc i8 %16 to i1, !dbg !861
  br i1 %17, label %bb11, label %bb7, !dbg !861

bb10:                                             ; preds = %bb5
  br label %bb6, !dbg !861

bb9:                                              ; preds = %bb12, %bb13
  %18 = bitcast { i8*, i32 }* %2 to i8**, !dbg !865
  %19 = load i8*, i8** %18, align 8, !dbg !865
  %20 = getelementptr inbounds { i8*, i32 }, { i8*, i32 }* %2, i32 0, i32 1, !dbg !865
  %21 = load i32, i32* %20, align 8, !dbg !865
  %22 = insertvalue { i8*, i32 } undef, i8* %19, 0, !dbg !865
  %23 = insertvalue { i8*, i32 } %22, i32 %21, 1, !dbg !865
  resume { i8*, i32 } %23, !dbg !865

bb12:                                             ; preds = %bb13
  br label %bb9, !dbg !861

bb7:                                              ; preds = %bb11, %bb6
  %24 = load i64, i64* %3, align 8, !dbg !866
  ret i64 %24, !dbg !866

bb11:                                             ; preds = %bb6
  br label %bb7, !dbg !861
}

; core::cmp::impls::<impl core::cmp::Ord for usize>::cmp
; Function Attrs: inlinehint nonlazybind uwtable
define internal i8 @"_ZN4core3cmp5impls50_$LT$impl$u20$core..cmp..Ord$u20$for$u20$usize$GT$3cmp17hf38661dffacb58dfE"(i64* align 8 %self, i64* align 8 %other) unnamed_addr #0 !dbg !867 {
start:
  %other.dbg.spill = alloca i64*, align 8
  %self.dbg.spill = alloca i64*, align 8
  %0 = alloca i8, align 1
  store i64* %self, i64** %self.dbg.spill, align 8
  call void @llvm.dbg.declare(metadata i64** %self.dbg.spill, metadata !873, metadata !DIExpression()), !dbg !875
  store i64* %other, i64** %other.dbg.spill, align 8
  call void @llvm.dbg.declare(metadata i64** %other.dbg.spill, metadata !874, metadata !DIExpression()), !dbg !876
  %_4 = load i64, i64* %self, align 8, !dbg !877
  %_5 = load i64, i64* %other, align 8, !dbg !878
  %_3 = icmp ult i64 %_4, %_5, !dbg !877
  br i1 %_3, label %bb1, label %bb2, !dbg !877

bb2:                                              ; preds = %start
  %_7 = load i64, i64* %self, align 8, !dbg !879
  %_8 = load i64, i64* %other, align 8, !dbg !880
  %_6 = icmp eq i64 %_7, %_8, !dbg !879
  br i1 %_6, label %bb3, label %bb4, !dbg !879

bb1:                                              ; preds = %start
  store i8 -1, i8* %0, align 1, !dbg !881
  br label %bb6, !dbg !882

bb6:                                              ; preds = %bb5, %bb1
  %1 = load i8, i8* %0, align 1, !dbg !883, !range !860, !noundef !19
  ret i8 %1, !dbg !883

bb4:                                              ; preds = %bb2
  store i8 1, i8* %0, align 1, !dbg !884
  br label %bb5, !dbg !885

bb3:                                              ; preds = %bb2
  store i8 0, i8* %0, align 1, !dbg !886
  br label %bb5, !dbg !885

bb5:                                              ; preds = %bb4, %bb3
  br label %bb6, !dbg !882
}

; core::cmp::impls::<impl core::cmp::PartialEq for u8>::eq
; Function Attrs: inlinehint nonlazybind uwtable
define internal zeroext i1 @"_ZN4core3cmp5impls53_$LT$impl$u20$core..cmp..PartialEq$u20$for$u20$u8$GT$2eq17h95de183702012a16E"(i8* align 1 %self, i8* align 1 %other) unnamed_addr #0 !dbg !887 {
start:
  %other.dbg.spill = alloca i8*, align 8
  %self.dbg.spill = alloca i8*, align 8
  store i8* %self, i8** %self.dbg.spill, align 8
  call void @llvm.dbg.declare(metadata i8** %self.dbg.spill, metadata !892, metadata !DIExpression()), !dbg !894
  store i8* %other, i8** %other.dbg.spill, align 8
  call void @llvm.dbg.declare(metadata i8** %other.dbg.spill, metadata !893, metadata !DIExpression()), !dbg !895
  %_3 = load i8, i8* %self, align 1, !dbg !896
  %_4 = load i8, i8* %other, align 1, !dbg !897
  %0 = icmp eq i8 %_3, %_4, !dbg !896
  ret i1 %0, !dbg !898
}

; core::num::<impl usize>::checked_add
; Function Attrs: inlinehint nonlazybind uwtable
define internal { i64, i64 } @"_ZN4core3num23_$LT$impl$u20$usize$GT$11checked_add17haccc7065f0a07782E"(i64 %self, i64 %rhs) unnamed_addr #0 !dbg !899 {
start:
  %0 = alloca i8, align 1
  %b.dbg.spill4 = alloca i8, align 1
  %a.dbg.spill3 = alloca i64, align 8
  %b.dbg.spill = alloca i8, align 1
  %a.dbg.spill = alloca i64, align 8
  %1 = alloca { i64, i8 }, align 8
  %rhs.dbg.spill2 = alloca i64, align 8
  %self.dbg.spill1 = alloca i64, align 8
  %rhs.dbg.spill = alloca i64, align 8
  %self.dbg.spill = alloca i64, align 8
  %_5 = alloca { i64, i8 }, align 8
  %2 = alloca { i64, i64 }, align 8
  store i64 %self, i64* %self.dbg.spill, align 8
  call void @llvm.dbg.declare(metadata i64* %self.dbg.spill, metadata !903, metadata !DIExpression()), !dbg !908
  store i64 %rhs, i64* %rhs.dbg.spill, align 8
  call void @llvm.dbg.declare(metadata i64* %rhs.dbg.spill, metadata !904, metadata !DIExpression()), !dbg !909
  store i64 %self, i64* %self.dbg.spill1, align 8, !dbg !910
  call void @llvm.dbg.declare(metadata i64* %self.dbg.spill1, metadata !911, metadata !DIExpression()), !dbg !924
  store i64 %rhs, i64* %rhs.dbg.spill2, align 8, !dbg !925
  call void @llvm.dbg.declare(metadata i64* %rhs.dbg.spill2, metadata !920, metadata !DIExpression()), !dbg !924
  %3 = call { i64, i1 } @llvm.uadd.with.overflow.i64(i64 %self, i64 %rhs), !dbg !924
  %4 = extractvalue { i64, i1 } %3, 0, !dbg !924
  %5 = extractvalue { i64, i1 } %3, 1, !dbg !924
  %6 = zext i1 %5 to i8, !dbg !924
  %7 = bitcast { i64, i8 }* %1 to i64*, !dbg !924
  store i64 %4, i64* %7, align 8, !dbg !924
  %8 = getelementptr inbounds { i64, i8 }, { i64, i8 }* %1, i32 0, i32 1, !dbg !924
  store i8 %6, i8* %8, align 8, !dbg !924
  %9 = getelementptr inbounds { i64, i8 }, { i64, i8 }* %1, i32 0, i32 0, !dbg !924
  %_13.0 = load i64, i64* %9, align 8, !dbg !924
  %10 = getelementptr inbounds { i64, i8 }, { i64, i8 }* %1, i32 0, i32 1, !dbg !924
  %11 = load i8, i8* %10, align 8, !dbg !924, !range !394, !noundef !19
  %_13.1 = trunc i8 %11 to i1, !dbg !924
  br label %bb5, !dbg !924

bb5:                                              ; preds = %start
  store i64 %_13.0, i64* %a.dbg.spill, align 8, !dbg !924
  call void @llvm.dbg.declare(metadata i64* %a.dbg.spill, metadata !921, metadata !DIExpression()), !dbg !926
  %12 = zext i1 %_13.1 to i8, !dbg !924
  store i8 %12, i8* %b.dbg.spill, align 1, !dbg !924
  call void @llvm.dbg.declare(metadata i8* %b.dbg.spill, metadata !923, metadata !DIExpression()), !dbg !926
  %13 = bitcast { i64, i8 }* %_5 to i64*, !dbg !926
  store i64 %_13.0, i64* %13, align 8, !dbg !926
  %14 = getelementptr inbounds { i64, i8 }, { i64, i8 }* %_5, i32 0, i32 1, !dbg !926
  %15 = zext i1 %_13.1 to i8, !dbg !926
  store i8 %15, i8* %14, align 8, !dbg !926
  %16 = bitcast { i64, i8 }* %_5 to i64*, !dbg !927
  %a = load i64, i64* %16, align 8, !dbg !927
  store i64 %a, i64* %a.dbg.spill3, align 8, !dbg !927
  call void @llvm.dbg.declare(metadata i64* %a.dbg.spill3, metadata !905, metadata !DIExpression()), !dbg !928
  %17 = getelementptr inbounds { i64, i8 }, { i64, i8 }* %_5, i32 0, i32 1, !dbg !929
  %18 = load i8, i8* %17, align 8, !dbg !929, !range !394, !noundef !19
  %b = trunc i8 %18 to i1, !dbg !929
  %19 = zext i1 %b to i8, !dbg !929
  store i8 %19, i8* %b.dbg.spill4, align 1, !dbg !929
  call void @llvm.dbg.declare(metadata i8* %b.dbg.spill4, metadata !907, metadata !DIExpression()), !dbg !930
  %20 = call i1 @llvm.expect.i1(i1 %b, i1 false), !dbg !931
  %21 = zext i1 %20 to i8, !dbg !931
  store i8 %21, i8* %0, align 1, !dbg !931
  %22 = load i8, i8* %0, align 1, !dbg !931, !range !394, !noundef !19
  %_8 = trunc i8 %22 to i1, !dbg !931
  br label %bb1, !dbg !931

bb1:                                              ; preds = %bb5
  br i1 %_8, label %bb2, label %bb3, !dbg !931

bb3:                                              ; preds = %bb1
  %23 = getelementptr inbounds { i64, i64 }, { i64, i64 }* %2, i32 0, i32 1, !dbg !932
  store i64 %a, i64* %23, align 8, !dbg !932
  %24 = bitcast { i64, i64 }* %2 to i64*, !dbg !932
  store i64 1, i64* %24, align 8, !dbg !932
  br label %bb4, !dbg !933

bb2:                                              ; preds = %bb1
  %25 = bitcast { i64, i64 }* %2 to i64*, !dbg !934
  store i64 0, i64* %25, align 8, !dbg !934
  br label %bb4, !dbg !933

bb4:                                              ; preds = %bb3, %bb2
  %26 = getelementptr inbounds { i64, i64 }, { i64, i64 }* %2, i32 0, i32 0, !dbg !935
  %27 = load i64, i64* %26, align 8, !dbg !935, !range !936, !noundef !19
  %28 = getelementptr inbounds { i64, i64 }, { i64, i64 }* %2, i32 0, i32 1, !dbg !935
  %29 = load i64, i64* %28, align 8, !dbg !935
  %30 = insertvalue { i64, i64 } undef, i64 %27, 0, !dbg !935
  %31 = insertvalue { i64, i64 } %30, i64 %29, 1, !dbg !935
  ret { i64, i64 } %31, !dbg !935
}

; core::num::<impl usize>::checked_mul
; Function Attrs: inlinehint nonlazybind uwtable
define internal { i64, i64 } @"_ZN4core3num23_$LT$impl$u20$usize$GT$11checked_mul17h3cb4555aa44341dcE"(i64 %self, i64 %rhs) unnamed_addr #0 !dbg !937 {
start:
  %0 = alloca i8, align 1
  %b.dbg.spill4 = alloca i8, align 1
  %a.dbg.spill3 = alloca i64, align 8
  %b.dbg.spill = alloca i8, align 1
  %a.dbg.spill = alloca i64, align 8
  %1 = alloca { i64, i8 }, align 8
  %rhs.dbg.spill2 = alloca i64, align 8
  %self.dbg.spill1 = alloca i64, align 8
  %rhs.dbg.spill = alloca i64, align 8
  %self.dbg.spill = alloca i64, align 8
  %_5 = alloca { i64, i8 }, align 8
  %2 = alloca { i64, i64 }, align 8
  store i64 %self, i64* %self.dbg.spill, align 8
  call void @llvm.dbg.declare(metadata i64* %self.dbg.spill, metadata !939, metadata !DIExpression()), !dbg !944
  store i64 %rhs, i64* %rhs.dbg.spill, align 8
  call void @llvm.dbg.declare(metadata i64* %rhs.dbg.spill, metadata !940, metadata !DIExpression()), !dbg !945
  store i64 %self, i64* %self.dbg.spill1, align 8, !dbg !946
  call void @llvm.dbg.declare(metadata i64* %self.dbg.spill1, metadata !947, metadata !DIExpression()), !dbg !954
  store i64 %rhs, i64* %rhs.dbg.spill2, align 8, !dbg !955
  call void @llvm.dbg.declare(metadata i64* %rhs.dbg.spill2, metadata !950, metadata !DIExpression()), !dbg !954
  %3 = call { i64, i1 } @llvm.umul.with.overflow.i64(i64 %self, i64 %rhs), !dbg !954
  %4 = extractvalue { i64, i1 } %3, 0, !dbg !954
  %5 = extractvalue { i64, i1 } %3, 1, !dbg !954
  %6 = zext i1 %5 to i8, !dbg !954
  %7 = bitcast { i64, i8 }* %1 to i64*, !dbg !954
  store i64 %4, i64* %7, align 8, !dbg !954
  %8 = getelementptr inbounds { i64, i8 }, { i64, i8 }* %1, i32 0, i32 1, !dbg !954
  store i8 %6, i8* %8, align 8, !dbg !954
  %9 = getelementptr inbounds { i64, i8 }, { i64, i8 }* %1, i32 0, i32 0, !dbg !954
  %_13.0 = load i64, i64* %9, align 8, !dbg !954
  %10 = getelementptr inbounds { i64, i8 }, { i64, i8 }* %1, i32 0, i32 1, !dbg !954
  %11 = load i8, i8* %10, align 8, !dbg !954, !range !394, !noundef !19
  %_13.1 = trunc i8 %11 to i1, !dbg !954
  br label %bb5, !dbg !954

bb5:                                              ; preds = %start
  store i64 %_13.0, i64* %a.dbg.spill, align 8, !dbg !954
  call void @llvm.dbg.declare(metadata i64* %a.dbg.spill, metadata !951, metadata !DIExpression()), !dbg !956
  %12 = zext i1 %_13.1 to i8, !dbg !954
  store i8 %12, i8* %b.dbg.spill, align 1, !dbg !954
  call void @llvm.dbg.declare(metadata i8* %b.dbg.spill, metadata !953, metadata !DIExpression()), !dbg !956
  %13 = bitcast { i64, i8 }* %_5 to i64*, !dbg !956
  store i64 %_13.0, i64* %13, align 8, !dbg !956
  %14 = getelementptr inbounds { i64, i8 }, { i64, i8 }* %_5, i32 0, i32 1, !dbg !956
  %15 = zext i1 %_13.1 to i8, !dbg !956
  store i8 %15, i8* %14, align 8, !dbg !956
  %16 = bitcast { i64, i8 }* %_5 to i64*, !dbg !957
  %a = load i64, i64* %16, align 8, !dbg !957
  store i64 %a, i64* %a.dbg.spill3, align 8, !dbg !957
  call void @llvm.dbg.declare(metadata i64* %a.dbg.spill3, metadata !941, metadata !DIExpression()), !dbg !958
  %17 = getelementptr inbounds { i64, i8 }, { i64, i8 }* %_5, i32 0, i32 1, !dbg !959
  %18 = load i8, i8* %17, align 8, !dbg !959, !range !394, !noundef !19
  %b = trunc i8 %18 to i1, !dbg !959
  %19 = zext i1 %b to i8, !dbg !959
  store i8 %19, i8* %b.dbg.spill4, align 1, !dbg !959
  call void @llvm.dbg.declare(metadata i8* %b.dbg.spill4, metadata !943, metadata !DIExpression()), !dbg !960
  %20 = call i1 @llvm.expect.i1(i1 %b, i1 false), !dbg !961
  %21 = zext i1 %20 to i8, !dbg !961
  store i8 %21, i8* %0, align 1, !dbg !961
  %22 = load i8, i8* %0, align 1, !dbg !961, !range !394, !noundef !19
  %_8 = trunc i8 %22 to i1, !dbg !961
  br label %bb1, !dbg !961

bb1:                                              ; preds = %bb5
  br i1 %_8, label %bb2, label %bb3, !dbg !961

bb3:                                              ; preds = %bb1
  %23 = getelementptr inbounds { i64, i64 }, { i64, i64 }* %2, i32 0, i32 1, !dbg !962
  store i64 %a, i64* %23, align 8, !dbg !962
  %24 = bitcast { i64, i64 }* %2 to i64*, !dbg !962
  store i64 1, i64* %24, align 8, !dbg !962
  br label %bb4, !dbg !963

bb2:                                              ; preds = %bb1
  %25 = bitcast { i64, i64 }* %2 to i64*, !dbg !964
  store i64 0, i64* %25, align 8, !dbg !964
  br label %bb4, !dbg !963

bb4:                                              ; preds = %bb3, %bb2
  %26 = getelementptr inbounds { i64, i64 }, { i64, i64 }* %2, i32 0, i32 0, !dbg !965
  %27 = load i64, i64* %26, align 8, !dbg !965, !range !936, !noundef !19
  %28 = getelementptr inbounds { i64, i64 }, { i64, i64 }* %2, i32 0, i32 1, !dbg !965
  %29 = load i64, i64* %28, align 8, !dbg !965
  %30 = insertvalue { i64, i64 } undef, i64 %27, 0, !dbg !965
  %31 = insertvalue { i64, i64 } %30, i64 %29, 1, !dbg !965
  ret { i64, i64 } %31, !dbg !965
}

; core::ptr::drop_in_place<&bool>
; Function Attrs: inlinehint nonlazybind uwtable
define internal void @"_ZN4core3ptr29drop_in_place$LT$$RF$bool$GT$17heab9a6d544e941efE"(i8** %_1) unnamed_addr #0 !dbg !966 {
start:
  %_1.dbg.spill = alloca i8**, align 8
  store i8** %_1, i8*** %_1.dbg.spill, align 8
  call void @llvm.dbg.declare(metadata i8*** %_1.dbg.spill, metadata !971, metadata !DIExpression()), !dbg !974
  ret void, !dbg !974
}

; core::ptr::drop_in_place<shlex::QuoteError>
; Function Attrs: inlinehint nonlazybind uwtable
define internal void @"_ZN4core3ptr38drop_in_place$LT$shlex..QuoteError$GT$17h82f7a6c6f5d18258E"(%"QuoteError::Nul"* %_1) unnamed_addr #0 !dbg !975 {
start:
  %_1.dbg.spill = alloca %"QuoteError::Nul"*, align 8
  store %"QuoteError::Nul"* %_1, %"QuoteError::Nul"** %_1.dbg.spill, align 8
  call void @llvm.dbg.declare(metadata %"QuoteError::Nul"** %_1.dbg.spill, metadata !980, metadata !DIExpression()), !dbg !983
  ret void, !dbg !983
}

; core::ptr::drop_in_place<alloc::string::String>
; Function Attrs: nonlazybind uwtable
define void @"_ZN4core3ptr42drop_in_place$LT$alloc..string..String$GT$17h0ccb537bb1763a95E"(%"alloc::string::String"* %_1) unnamed_addr #1 !dbg !984 {
start:
  %_1.dbg.spill = alloca %"alloc::string::String"*, align 8
  store %"alloc::string::String"* %_1, %"alloc::string::String"** %_1.dbg.spill, align 8
  call void @llvm.dbg.declare(metadata %"alloc::string::String"** %_1.dbg.spill, metadata !988, metadata !DIExpression()), !dbg !989
  %0 = bitcast %"alloc::string::String"* %_1 to %"alloc::vec::Vec<u8>"*, !dbg !989
; call core::ptr::drop_in_place<alloc::vec::Vec<u8>>
  call void @"_ZN4core3ptr46drop_in_place$LT$alloc..vec..Vec$LT$u8$GT$$GT$17h9be70052c8106a2bE"(%"alloc::vec::Vec<u8>"* %0), !dbg !989
  br label %bb1, !dbg !989

bb1:                                              ; preds = %start
  ret void, !dbg !989
}

; core::ptr::drop_in_place<&shlex::bytes::Quoter>
; Function Attrs: inlinehint nonlazybind uwtable
define internal void @"_ZN4core3ptr45drop_in_place$LT$$RF$shlex..bytes..Quoter$GT$17hc6fba3347a275927E"(i8** %_1) unnamed_addr #0 !dbg !990 {
start:
  %_1.dbg.spill = alloca i8**, align 8
  store i8** %_1, i8*** %_1.dbg.spill, align 8
  call void @llvm.dbg.declare(metadata i8*** %_1.dbg.spill, metadata !995, metadata !DIExpression()), !dbg !998
  ret void, !dbg !998
}

; core::ptr::drop_in_place<alloc::vec::Vec<u8>>
; Function Attrs: nonlazybind uwtable
define void @"_ZN4core3ptr46drop_in_place$LT$alloc..vec..Vec$LT$u8$GT$$GT$17h9be70052c8106a2bE"(%"alloc::vec::Vec<u8>"* %_1) unnamed_addr #1 personality i32 (i32, i32, i64, %"unwind::libunwind::_Unwind_Exception"*, %"unwind::libunwind::_Unwind_Context"*)* @rust_eh_personality !dbg !999 {
start:
  %0 = alloca { i8*, i32 }, align 8
  %_1.dbg.spill = alloca %"alloc::vec::Vec<u8>"*, align 8
  store %"alloc::vec::Vec<u8>"* %_1, %"alloc::vec::Vec<u8>"** %_1.dbg.spill, align 8
  call void @llvm.dbg.declare(metadata %"alloc::vec::Vec<u8>"** %_1.dbg.spill, metadata !1003, metadata !DIExpression()), !dbg !1004
; invoke <alloc::vec::Vec<T,A> as core::ops::drop::Drop>::drop
  invoke void @"_ZN70_$LT$alloc..vec..Vec$LT$T$C$A$GT$$u20$as$u20$core..ops..drop..Drop$GT$4drop17hc7f5fc59ecf6d01fE"(%"alloc::vec::Vec<u8>"* align 8 %_1)
          to label %bb4 unwind label %cleanup, !dbg !1004

bb3:                                              ; preds = %cleanup
  %1 = bitcast %"alloc::vec::Vec<u8>"* %_1 to { i8*, i64 }*, !dbg !1004
; invoke core::ptr::drop_in_place<alloc::raw_vec::RawVec<u8>>
  invoke void @"_ZN4core3ptr53drop_in_place$LT$alloc..raw_vec..RawVec$LT$u8$GT$$GT$17h6bca65cdf95edcf1E"({ i8*, i64 }* %1) #14
          to label %bb1 unwind label %abort, !dbg !1004

cleanup:                                          ; preds = %start
  %2 = landingpad { i8*, i32 }
          cleanup
  %3 = extractvalue { i8*, i32 } %2, 0
  %4 = extractvalue { i8*, i32 } %2, 1
  %5 = getelementptr inbounds { i8*, i32 }, { i8*, i32 }* %0, i32 0, i32 0
  store i8* %3, i8** %5, align 8
  %6 = getelementptr inbounds { i8*, i32 }, { i8*, i32 }* %0, i32 0, i32 1
  store i32 %4, i32* %6, align 8
  br label %bb3

bb4:                                              ; preds = %start
  %7 = bitcast %"alloc::vec::Vec<u8>"* %_1 to { i8*, i64 }*, !dbg !1004
; call core::ptr::drop_in_place<alloc::raw_vec::RawVec<u8>>
  call void @"_ZN4core3ptr53drop_in_place$LT$alloc..raw_vec..RawVec$LT$u8$GT$$GT$17h6bca65cdf95edcf1E"({ i8*, i64 }* %7), !dbg !1004
  br label %bb2, !dbg !1004

abort:                                            ; preds = %bb3
  %8 = landingpad { i8*, i32 }
          cleanup, !dbg !1004
; call core::panicking::panic_no_unwind
  call void @_ZN4core9panicking15panic_no_unwind17h62f8113f44cbfcbfE() #15, !dbg !1004
  unreachable, !dbg !1004

bb1:                                              ; preds = %bb3
  %9 = bitcast { i8*, i32 }* %0 to i8**, !dbg !1004
  %10 = load i8*, i8** %9, align 8, !dbg !1004
  %11 = getelementptr inbounds { i8*, i32 }, { i8*, i32 }* %0, i32 0, i32 1, !dbg !1004
  %12 = load i32, i32* %11, align 8, !dbg !1004
  %13 = insertvalue { i8*, i32 } undef, i8* %10, 0, !dbg !1004
  %14 = insertvalue { i8*, i32 } %13, i32 %12, 1, !dbg !1004
  resume { i8*, i32 } %14, !dbg !1004

bb2:                                              ; preds = %bb4
  ret void, !dbg !1004
}

; core::ptr::drop_in_place<[alloc::string::String]>
; Function Attrs: nonlazybind uwtable
define void @"_ZN4core3ptr52drop_in_place$LT$$u5b$alloc..string..String$u5d$$GT$17hfc116486bc61bf0bE"([0 x %"alloc::string::String"]* %_1.0, i64 %_1.1) unnamed_addr #1 personality i32 (i32, i32, i64, %"unwind::libunwind::_Unwind_Exception"*, %"unwind::libunwind::_Unwind_Context"*)* @rust_eh_personality !dbg !1005 {
start:
  %0 = alloca { i8*, i32 }, align 8
  %_1.dbg.spill = alloca { [0 x %"alloc::string::String"]*, i64 }, align 8
  %_9 = alloca %"alloc::string::String"*, align 8
  %_4 = alloca i64, align 8
  %1 = getelementptr inbounds { [0 x %"alloc::string::String"]*, i64 }, { [0 x %"alloc::string::String"]*, i64 }* %_1.dbg.spill, i32 0, i32 0
  store [0 x %"alloc::string::String"]* %_1.0, [0 x %"alloc::string::String"]** %1, align 8
  %2 = getelementptr inbounds { [0 x %"alloc::string::String"]*, i64 }, { [0 x %"alloc::string::String"]*, i64 }* %_1.dbg.spill, i32 0, i32 1
  store i64 %_1.1, i64* %2, align 8
  call void @llvm.dbg.declare(metadata { [0 x %"alloc::string::String"]*, i64 }* %_1.dbg.spill, metadata !1014, metadata !DIExpression()), !dbg !1015
  br i1 false, label %bb7, label %bb12, !dbg !1015

bb7:                                              ; preds = %start
  store i64 0, i64* %_4, align 8, !dbg !1015
  br label %bb6, !dbg !1015

bb12:                                             ; preds = %start
  %3 = bitcast [0 x %"alloc::string::String"]* %_1.0 to %"alloc::string::String"*, !dbg !1015
  store %"alloc::string::String"* %3, %"alloc::string::String"** %_9, align 8, !dbg !1015
  %4 = load %"alloc::string::String"*, %"alloc::string::String"** %_9, align 8, !dbg !1015
  %_10 = getelementptr inbounds %"alloc::string::String", %"alloc::string::String"* %4, i64 %_1.1, !dbg !1015
  br label %bb11, !dbg !1015

bb11:                                             ; preds = %bb10, %bb12
  %5 = load %"alloc::string::String"*, %"alloc::string::String"** %_9, align 8, !dbg !1015
  %_14 = icmp eq %"alloc::string::String"* %5, %_10, !dbg !1015
  br i1 %_14, label %bb1, label %bb10, !dbg !1015

bb10:                                             ; preds = %bb11
  %_13 = load %"alloc::string::String"*, %"alloc::string::String"** %_9, align 8, !dbg !1015
  %6 = load %"alloc::string::String"*, %"alloc::string::String"** %_9, align 8, !dbg !1015
  %7 = getelementptr inbounds %"alloc::string::String", %"alloc::string::String"* %6, i64 1, !dbg !1015
  store %"alloc::string::String"* %7, %"alloc::string::String"** %_9, align 8, !dbg !1015
; invoke core::ptr::drop_in_place<alloc::string::String>
  invoke void @"_ZN4core3ptr42drop_in_place$LT$alloc..string..String$GT$17h0ccb537bb1763a95E"(%"alloc::string::String"* %_13)
          to label %bb11 unwind label %cleanup, !dbg !1015

bb1:                                              ; preds = %bb6, %bb11
  ret void, !dbg !1015

bb9:                                              ; preds = %bb8, %cleanup
  %8 = load %"alloc::string::String"*, %"alloc::string::String"** %_9, align 8, !dbg !1015
  %_12 = icmp eq %"alloc::string::String"* %8, %_10, !dbg !1015
  br i1 %_12, label %bb2, label %bb8, !dbg !1015

cleanup:                                          ; preds = %bb10
  %9 = landingpad { i8*, i32 }
          cleanup
  %10 = extractvalue { i8*, i32 } %9, 0
  %11 = extractvalue { i8*, i32 } %9, 1
  %12 = getelementptr inbounds { i8*, i32 }, { i8*, i32 }* %0, i32 0, i32 0
  store i8* %10, i8** %12, align 8
  %13 = getelementptr inbounds { i8*, i32 }, { i8*, i32 }* %0, i32 0, i32 1
  store i32 %11, i32* %13, align 8
  br label %bb9

bb8:                                              ; preds = %bb9
  %_11 = load %"alloc::string::String"*, %"alloc::string::String"** %_9, align 8, !dbg !1015
  %14 = load %"alloc::string::String"*, %"alloc::string::String"** %_9, align 8, !dbg !1015
  %15 = getelementptr inbounds %"alloc::string::String", %"alloc::string::String"* %14, i64 1, !dbg !1015
  store %"alloc::string::String"* %15, %"alloc::string::String"** %_9, align 8, !dbg !1015
; invoke core::ptr::drop_in_place<alloc::string::String>
  invoke void @"_ZN4core3ptr42drop_in_place$LT$alloc..string..String$GT$17h0ccb537bb1763a95E"(%"alloc::string::String"* %_11) #14
          to label %bb9 unwind label %abort, !dbg !1015

bb2:                                              ; preds = %bb4, %bb9
  %16 = bitcast { i8*, i32 }* %0 to i8**, !dbg !1015
  %17 = load i8*, i8** %16, align 8, !dbg !1015
  %18 = getelementptr inbounds { i8*, i32 }, { i8*, i32 }* %0, i32 0, i32 1, !dbg !1015
  %19 = load i32, i32* %18, align 8, !dbg !1015
  %20 = insertvalue { i8*, i32 } undef, i8* %17, 0, !dbg !1015
  %21 = insertvalue { i8*, i32 } %20, i32 %19, 1, !dbg !1015
  resume { i8*, i32 } %21, !dbg !1015

abort:                                            ; preds = %bb3, %bb8
  %22 = landingpad { i8*, i32 }
          cleanup, !dbg !1015
; call core::panicking::panic_no_unwind
  call void @_ZN4core9panicking15panic_no_unwind17h62f8113f44cbfcbfE() #15, !dbg !1015
  unreachable, !dbg !1015

bb6:                                              ; preds = %bb5, %bb7
  %23 = load i64, i64* %_4, align 8, !dbg !1015
  %_8 = icmp eq i64 %23, %_1.1, !dbg !1015
  br i1 %_8, label %bb1, label %bb5, !dbg !1015

bb5:                                              ; preds = %bb6
  %24 = load i64, i64* %_4, align 8, !dbg !1015
  %_7 = getelementptr inbounds [0 x %"alloc::string::String"], [0 x %"alloc::string::String"]* %_1.0, i64 0, i64 %24, !dbg !1015
  %25 = load i64, i64* %_4, align 8, !dbg !1015
  %26 = add i64 %25, 1, !dbg !1015
  store i64 %26, i64* %_4, align 8, !dbg !1015
; invoke core::ptr::drop_in_place<alloc::string::String>
  invoke void @"_ZN4core3ptr42drop_in_place$LT$alloc..string..String$GT$17h0ccb537bb1763a95E"(%"alloc::string::String"* %_7)
          to label %bb6 unwind label %cleanup1, !dbg !1015

bb4:                                              ; preds = %bb3, %cleanup1
  %27 = load i64, i64* %_4, align 8, !dbg !1015
  %_6 = icmp eq i64 %27, %_1.1, !dbg !1015
  br i1 %_6, label %bb2, label %bb3, !dbg !1015

cleanup1:                                         ; preds = %bb5
  %28 = landingpad { i8*, i32 }
          cleanup
  %29 = extractvalue { i8*, i32 } %28, 0
  %30 = extractvalue { i8*, i32 } %28, 1
  %31 = getelementptr inbounds { i8*, i32 }, { i8*, i32 }* %0, i32 0, i32 0
  store i8* %29, i8** %31, align 8
  %32 = getelementptr inbounds { i8*, i32 }, { i8*, i32 }* %0, i32 0, i32 1
  store i32 %30, i32* %32, align 8
  br label %bb4

bb3:                                              ; preds = %bb4
  %33 = load i64, i64* %_4, align 8, !dbg !1015
  %_5 = getelementptr inbounds [0 x %"alloc::string::String"], [0 x %"alloc::string::String"]* %_1.0, i64 0, i64 %33, !dbg !1015
  %34 = load i64, i64* %_4, align 8, !dbg !1015
  %35 = add i64 %34, 1, !dbg !1015
  store i64 %35, i64* %_4, align 8, !dbg !1015
; invoke core::ptr::drop_in_place<alloc::string::String>
  invoke void @"_ZN4core3ptr42drop_in_place$LT$alloc..string..String$GT$17h0ccb537bb1763a95E"(%"alloc::string::String"* %_5) #14
          to label %bb4 unwind label %abort, !dbg !1015
}

; core::ptr::drop_in_place<alloc::raw_vec::RawVec<u8>>
; Function Attrs: nonlazybind uwtable
define void @"_ZN4core3ptr53drop_in_place$LT$alloc..raw_vec..RawVec$LT$u8$GT$$GT$17h6bca65cdf95edcf1E"({ i8*, i64 }* %_1) unnamed_addr #1 !dbg !1016 {
start:
  %_1.dbg.spill = alloca { i8*, i64 }*, align 8
  store { i8*, i64 }* %_1, { i8*, i64 }** %_1.dbg.spill, align 8
  call void @llvm.dbg.declare(metadata { i8*, i64 }** %_1.dbg.spill, metadata !1021, metadata !DIExpression()), !dbg !1024
; call <alloc::raw_vec::RawVec<T,A> as core::ops::drop::Drop>::drop
  call void @"_ZN77_$LT$alloc..raw_vec..RawVec$LT$T$C$A$GT$$u20$as$u20$core..ops..drop..Drop$GT$4drop17h6b624f5a037c2fdaE"({ i8*, i64 }* align 8 %_1), !dbg !1024
  br label %bb1, !dbg !1024

bb1:                                              ; preds = %start
  ret void, !dbg !1024
}

; core::ptr::drop_in_place<[alloc::vec::Vec<u8>]>
; Function Attrs: nonlazybind uwtable
define void @"_ZN4core3ptr56drop_in_place$LT$$u5b$alloc..vec..Vec$LT$u8$GT$$u5d$$GT$17h32913744221ce31fE"([0 x %"alloc::vec::Vec<u8>"]* %_1.0, i64 %_1.1) unnamed_addr #1 personality i32 (i32, i32, i64, %"unwind::libunwind::_Unwind_Exception"*, %"unwind::libunwind::_Unwind_Context"*)* @rust_eh_personality !dbg !1025 {
start:
  %0 = alloca { i8*, i32 }, align 8
  %_1.dbg.spill = alloca { [0 x %"alloc::vec::Vec<u8>"]*, i64 }, align 8
  %_9 = alloca %"alloc::vec::Vec<u8>"*, align 8
  %_4 = alloca i64, align 8
  %1 = getelementptr inbounds { [0 x %"alloc::vec::Vec<u8>"]*, i64 }, { [0 x %"alloc::vec::Vec<u8>"]*, i64 }* %_1.dbg.spill, i32 0, i32 0
  store [0 x %"alloc::vec::Vec<u8>"]* %_1.0, [0 x %"alloc::vec::Vec<u8>"]** %1, align 8
  %2 = getelementptr inbounds { [0 x %"alloc::vec::Vec<u8>"]*, i64 }, { [0 x %"alloc::vec::Vec<u8>"]*, i64 }* %_1.dbg.spill, i32 0, i32 1
  store i64 %_1.1, i64* %2, align 8
  call void @llvm.dbg.declare(metadata { [0 x %"alloc::vec::Vec<u8>"]*, i64 }* %_1.dbg.spill, metadata !1034, metadata !DIExpression()), !dbg !1035
  br i1 false, label %bb7, label %bb12, !dbg !1035

bb7:                                              ; preds = %start
  store i64 0, i64* %_4, align 8, !dbg !1035
  br label %bb6, !dbg !1035

bb12:                                             ; preds = %start
  %3 = bitcast [0 x %"alloc::vec::Vec<u8>"]* %_1.0 to %"alloc::vec::Vec<u8>"*, !dbg !1035
  store %"alloc::vec::Vec<u8>"* %3, %"alloc::vec::Vec<u8>"** %_9, align 8, !dbg !1035
  %4 = load %"alloc::vec::Vec<u8>"*, %"alloc::vec::Vec<u8>"** %_9, align 8, !dbg !1035
  %_10 = getelementptr inbounds %"alloc::vec::Vec<u8>", %"alloc::vec::Vec<u8>"* %4, i64 %_1.1, !dbg !1035
  br label %bb11, !dbg !1035

bb11:                                             ; preds = %bb10, %bb12
  %5 = load %"alloc::vec::Vec<u8>"*, %"alloc::vec::Vec<u8>"** %_9, align 8, !dbg !1035
  %_14 = icmp eq %"alloc::vec::Vec<u8>"* %5, %_10, !dbg !1035
  br i1 %_14, label %bb1, label %bb10, !dbg !1035

bb10:                                             ; preds = %bb11
  %_13 = load %"alloc::vec::Vec<u8>"*, %"alloc::vec::Vec<u8>"** %_9, align 8, !dbg !1035
  %6 = load %"alloc::vec::Vec<u8>"*, %"alloc::vec::Vec<u8>"** %_9, align 8, !dbg !1035
  %7 = getelementptr inbounds %"alloc::vec::Vec<u8>", %"alloc::vec::Vec<u8>"* %6, i64 1, !dbg !1035
  store %"alloc::vec::Vec<u8>"* %7, %"alloc::vec::Vec<u8>"** %_9, align 8, !dbg !1035
; invoke core::ptr::drop_in_place<alloc::vec::Vec<u8>>
  invoke void @"_ZN4core3ptr46drop_in_place$LT$alloc..vec..Vec$LT$u8$GT$$GT$17h9be70052c8106a2bE"(%"alloc::vec::Vec<u8>"* %_13)
          to label %bb11 unwind label %cleanup, !dbg !1035

bb1:                                              ; preds = %bb6, %bb11
  ret void, !dbg !1035

bb9:                                              ; preds = %bb8, %cleanup
  %8 = load %"alloc::vec::Vec<u8>"*, %"alloc::vec::Vec<u8>"** %_9, align 8, !dbg !1035
  %_12 = icmp eq %"alloc::vec::Vec<u8>"* %8, %_10, !dbg !1035
  br i1 %_12, label %bb2, label %bb8, !dbg !1035

cleanup:                                          ; preds = %bb10
  %9 = landingpad { i8*, i32 }
          cleanup
  %10 = extractvalue { i8*, i32 } %9, 0
  %11 = extractvalue { i8*, i32 } %9, 1
  %12 = getelementptr inbounds { i8*, i32 }, { i8*, i32 }* %0, i32 0, i32 0
  store i8* %10, i8** %12, align 8
  %13 = getelementptr inbounds { i8*, i32 }, { i8*, i32 }* %0, i32 0, i32 1
  store i32 %11, i32* %13, align 8
  br label %bb9

bb8:                                              ; preds = %bb9
  %_11 = load %"alloc::vec::Vec<u8>"*, %"alloc::vec::Vec<u8>"** %_9, align 8, !dbg !1035
  %14 = load %"alloc::vec::Vec<u8>"*, %"alloc::vec::Vec<u8>"** %_9, align 8, !dbg !1035
  %15 = getelementptr inbounds %"alloc::vec::Vec<u8>", %"alloc::vec::Vec<u8>"* %14, i64 1, !dbg !1035
  store %"alloc::vec::Vec<u8>"* %15, %"alloc::vec::Vec<u8>"** %_9, align 8, !dbg !1035
; invoke core::ptr::drop_in_place<alloc::vec::Vec<u8>>
  invoke void @"_ZN4core3ptr46drop_in_place$LT$alloc..vec..Vec$LT$u8$GT$$GT$17h9be70052c8106a2bE"(%"alloc::vec::Vec<u8>"* %_11) #14
          to label %bb9 unwind label %abort, !dbg !1035

bb2:                                              ; preds = %bb4, %bb9
  %16 = bitcast { i8*, i32 }* %0 to i8**, !dbg !1035
  %17 = load i8*, i8** %16, align 8, !dbg !1035
  %18 = getelementptr inbounds { i8*, i32 }, { i8*, i32 }* %0, i32 0, i32 1, !dbg !1035
  %19 = load i32, i32* %18, align 8, !dbg !1035
  %20 = insertvalue { i8*, i32 } undef, i8* %17, 0, !dbg !1035
  %21 = insertvalue { i8*, i32 } %20, i32 %19, 1, !dbg !1035
  resume { i8*, i32 } %21, !dbg !1035

abort:                                            ; preds = %bb3, %bb8
  %22 = landingpad { i8*, i32 }
          cleanup, !dbg !1035
; call core::panicking::panic_no_unwind
  call void @_ZN4core9panicking15panic_no_unwind17h62f8113f44cbfcbfE() #15, !dbg !1035
  unreachable, !dbg !1035

bb6:                                              ; preds = %bb5, %bb7
  %23 = load i64, i64* %_4, align 8, !dbg !1035
  %_8 = icmp eq i64 %23, %_1.1, !dbg !1035
  br i1 %_8, label %bb1, label %bb5, !dbg !1035

bb5:                                              ; preds = %bb6
  %24 = load i64, i64* %_4, align 8, !dbg !1035
  %_7 = getelementptr inbounds [0 x %"alloc::vec::Vec<u8>"], [0 x %"alloc::vec::Vec<u8>"]* %_1.0, i64 0, i64 %24, !dbg !1035
  %25 = load i64, i64* %_4, align 8, !dbg !1035
  %26 = add i64 %25, 1, !dbg !1035
  store i64 %26, i64* %_4, align 8, !dbg !1035
; invoke core::ptr::drop_in_place<alloc::vec::Vec<u8>>
  invoke void @"_ZN4core3ptr46drop_in_place$LT$alloc..vec..Vec$LT$u8$GT$$GT$17h9be70052c8106a2bE"(%"alloc::vec::Vec<u8>"* %_7)
          to label %bb6 unwind label %cleanup1, !dbg !1035

bb4:                                              ; preds = %bb3, %cleanup1
  %27 = load i64, i64* %_4, align 8, !dbg !1035
  %_6 = icmp eq i64 %27, %_1.1, !dbg !1035
  br i1 %_6, label %bb2, label %bb3, !dbg !1035

cleanup1:                                         ; preds = %bb5
  %28 = landingpad { i8*, i32 }
          cleanup
  %29 = extractvalue { i8*, i32 } %28, 0
  %30 = extractvalue { i8*, i32 } %28, 1
  %31 = getelementptr inbounds { i8*, i32 }, { i8*, i32 }* %0, i32 0, i32 0
  store i8* %29, i8** %31, align 8
  %32 = getelementptr inbounds { i8*, i32 }, { i8*, i32 }* %0, i32 0, i32 1
  store i32 %30, i32* %32, align 8
  br label %bb4

bb3:                                              ; preds = %bb4
  %33 = load i64, i64* %_4, align 8, !dbg !1035
  %_5 = getelementptr inbounds [0 x %"alloc::vec::Vec<u8>"], [0 x %"alloc::vec::Vec<u8>"]* %_1.0, i64 0, i64 %33, !dbg !1035
  %34 = load i64, i64* %_4, align 8, !dbg !1035
  %35 = add i64 %34, 1, !dbg !1035
  store i64 %35, i64* %_4, align 8, !dbg !1035
; invoke core::ptr::drop_in_place<alloc::vec::Vec<u8>>
  invoke void @"_ZN4core3ptr46drop_in_place$LT$alloc..vec..Vec$LT$u8$GT$$GT$17h9be70052c8106a2bE"(%"alloc::vec::Vec<u8>"* %_5) #14
          to label %bb4 unwind label %abort, !dbg !1035
}

; core::ptr::drop_in_place<alloc::vec::Vec<alloc::string::String>>
; Function Attrs: nonlazybind uwtable
define void @"_ZN4core3ptr65drop_in_place$LT$alloc..vec..Vec$LT$alloc..string..String$GT$$GT$17h9e3b3be1cd4c1522E"(%"alloc::vec::Vec<alloc::string::String>"* %_1) unnamed_addr #1 personality i32 (i32, i32, i64, %"unwind::libunwind::_Unwind_Exception"*, %"unwind::libunwind::_Unwind_Context"*)* @rust_eh_personality !dbg !1036 {
start:
  %0 = alloca { i8*, i32 }, align 8
  %_1.dbg.spill = alloca %"alloc::vec::Vec<alloc::string::String>"*, align 8
  store %"alloc::vec::Vec<alloc::string::String>"* %_1, %"alloc::vec::Vec<alloc::string::String>"** %_1.dbg.spill, align 8
  call void @llvm.dbg.declare(metadata %"alloc::vec::Vec<alloc::string::String>"** %_1.dbg.spill, metadata !1041, metadata !DIExpression()), !dbg !1044
; invoke <alloc::vec::Vec<T,A> as core::ops::drop::Drop>::drop
  invoke void @"_ZN70_$LT$alloc..vec..Vec$LT$T$C$A$GT$$u20$as$u20$core..ops..drop..Drop$GT$4drop17h7a7d7ae2f5ea9ac8E"(%"alloc::vec::Vec<alloc::string::String>"* align 8 %_1)
          to label %bb4 unwind label %cleanup, !dbg !1044

bb3:                                              ; preds = %cleanup
  %1 = bitcast %"alloc::vec::Vec<alloc::string::String>"* %_1 to { i64*, i64 }*, !dbg !1044
; invoke core::ptr::drop_in_place<alloc::raw_vec::RawVec<alloc::string::String>>
  invoke void @"_ZN4core3ptr72drop_in_place$LT$alloc..raw_vec..RawVec$LT$alloc..string..String$GT$$GT$17h10ffe8f32d11d714E"({ i64*, i64 }* %1) #14
          to label %bb1 unwind label %abort, !dbg !1044

cleanup:                                          ; preds = %start
  %2 = landingpad { i8*, i32 }
          cleanup
  %3 = extractvalue { i8*, i32 } %2, 0
  %4 = extractvalue { i8*, i32 } %2, 1
  %5 = getelementptr inbounds { i8*, i32 }, { i8*, i32 }* %0, i32 0, i32 0
  store i8* %3, i8** %5, align 8
  %6 = getelementptr inbounds { i8*, i32 }, { i8*, i32 }* %0, i32 0, i32 1
  store i32 %4, i32* %6, align 8
  br label %bb3

bb4:                                              ; preds = %start
  %7 = bitcast %"alloc::vec::Vec<alloc::string::String>"* %_1 to { i64*, i64 }*, !dbg !1044
; call core::ptr::drop_in_place<alloc::raw_vec::RawVec<alloc::string::String>>
  call void @"_ZN4core3ptr72drop_in_place$LT$alloc..raw_vec..RawVec$LT$alloc..string..String$GT$$GT$17h10ffe8f32d11d714E"({ i64*, i64 }* %7), !dbg !1044
  br label %bb2, !dbg !1044

abort:                                            ; preds = %bb3
  %8 = landingpad { i8*, i32 }
          cleanup, !dbg !1044
; call core::panicking::panic_no_unwind
  call void @_ZN4core9panicking15panic_no_unwind17h62f8113f44cbfcbfE() #15, !dbg !1044
  unreachable, !dbg !1044

bb1:                                              ; preds = %bb3
  %9 = bitcast { i8*, i32 }* %0 to i8**, !dbg !1044
  %10 = load i8*, i8** %9, align 8, !dbg !1044
  %11 = getelementptr inbounds { i8*, i32 }, { i8*, i32 }* %0, i32 0, i32 1, !dbg !1044
  %12 = load i32, i32* %11, align 8, !dbg !1044
  %13 = insertvalue { i8*, i32 } undef, i8* %10, 0, !dbg !1044
  %14 = insertvalue { i8*, i32 } %13, i32 %12, 1, !dbg !1044
  resume { i8*, i32 } %14, !dbg !1044

bb2:                                              ; preds = %bb4
  ret void, !dbg !1044
}

; core::ptr::drop_in_place<alloc::vec::Vec<alloc::vec::Vec<u8>>>
; Function Attrs: nonlazybind uwtable
define void @"_ZN4core3ptr69drop_in_place$LT$alloc..vec..Vec$LT$alloc..vec..Vec$LT$u8$GT$$GT$$GT$17h6d0efc2a132f28d7E"(%"alloc::vec::Vec<alloc::vec::Vec<u8>>"* %_1) unnamed_addr #1 personality i32 (i32, i32, i64, %"unwind::libunwind::_Unwind_Exception"*, %"unwind::libunwind::_Unwind_Context"*)* @rust_eh_personality !dbg !1045 {
start:
  %0 = alloca { i8*, i32 }, align 8
  %_1.dbg.spill = alloca %"alloc::vec::Vec<alloc::vec::Vec<u8>>"*, align 8
  store %"alloc::vec::Vec<alloc::vec::Vec<u8>>"* %_1, %"alloc::vec::Vec<alloc::vec::Vec<u8>>"** %_1.dbg.spill, align 8
  call void @llvm.dbg.declare(metadata %"alloc::vec::Vec<alloc::vec::Vec<u8>>"** %_1.dbg.spill, metadata !1050, metadata !DIExpression()), !dbg !1053
; invoke <alloc::vec::Vec<T,A> as core::ops::drop::Drop>::drop
  invoke void @"_ZN70_$LT$alloc..vec..Vec$LT$T$C$A$GT$$u20$as$u20$core..ops..drop..Drop$GT$4drop17hc7415b397fcc6441E"(%"alloc::vec::Vec<alloc::vec::Vec<u8>>"* align 8 %_1)
          to label %bb4 unwind label %cleanup, !dbg !1053

bb3:                                              ; preds = %cleanup
  %1 = bitcast %"alloc::vec::Vec<alloc::vec::Vec<u8>>"* %_1 to { i64*, i64 }*, !dbg !1053
; invoke core::ptr::drop_in_place<alloc::raw_vec::RawVec<alloc::vec::Vec<u8>>>
  invoke void @"_ZN4core3ptr76drop_in_place$LT$alloc..raw_vec..RawVec$LT$alloc..vec..Vec$LT$u8$GT$$GT$$GT$17hc128c0e4cb8733f3E"({ i64*, i64 }* %1) #14
          to label %bb1 unwind label %abort, !dbg !1053

cleanup:                                          ; preds = %start
  %2 = landingpad { i8*, i32 }
          cleanup
  %3 = extractvalue { i8*, i32 } %2, 0
  %4 = extractvalue { i8*, i32 } %2, 1
  %5 = getelementptr inbounds { i8*, i32 }, { i8*, i32 }* %0, i32 0, i32 0
  store i8* %3, i8** %5, align 8
  %6 = getelementptr inbounds { i8*, i32 }, { i8*, i32 }* %0, i32 0, i32 1
  store i32 %4, i32* %6, align 8
  br label %bb3

bb4:                                              ; preds = %start
  %7 = bitcast %"alloc::vec::Vec<alloc::vec::Vec<u8>>"* %_1 to { i64*, i64 }*, !dbg !1053
; call core::ptr::drop_in_place<alloc::raw_vec::RawVec<alloc::vec::Vec<u8>>>
  call void @"_ZN4core3ptr76drop_in_place$LT$alloc..raw_vec..RawVec$LT$alloc..vec..Vec$LT$u8$GT$$GT$$GT$17hc128c0e4cb8733f3E"({ i64*, i64 }* %7), !dbg !1053
  br label %bb2, !dbg !1053

abort:                                            ; preds = %bb3
  %8 = landingpad { i8*, i32 }
          cleanup, !dbg !1053
; call core::panicking::panic_no_unwind
  call void @_ZN4core9panicking15panic_no_unwind17h62f8113f44cbfcbfE() #15, !dbg !1053
  unreachable, !dbg !1053

bb1:                                              ; preds = %bb3
  %9 = bitcast { i8*, i32 }* %0 to i8**, !dbg !1053
  %10 = load i8*, i8** %9, align 8, !dbg !1053
  %11 = getelementptr inbounds { i8*, i32 }, { i8*, i32 }* %0, i32 0, i32 1, !dbg !1053
  %12 = load i32, i32* %11, align 8, !dbg !1053
  %13 = insertvalue { i8*, i32 } undef, i8* %10, 0, !dbg !1053
  %14 = insertvalue { i8*, i32 } %13, i32 %12, 1, !dbg !1053
  resume { i8*, i32 } %14, !dbg !1053

bb2:                                              ; preds = %bb4
  ret void, !dbg !1053
}

; core::ptr::drop_in_place<core::option::Option<alloc::string::String>>
; Function Attrs: nonlazybind uwtable
define void @"_ZN4core3ptr70drop_in_place$LT$core..option..Option$LT$alloc..string..String$GT$$GT$17h82977a0c0dd68079E"(%"core::option::Option<alloc::string::String>"* %_1) unnamed_addr #1 !dbg !1054 {
start:
  %_1.dbg.spill = alloca %"core::option::Option<alloc::string::String>"*, align 8
  store %"core::option::Option<alloc::string::String>"* %_1, %"core::option::Option<alloc::string::String>"** %_1.dbg.spill, align 8
  call void @llvm.dbg.declare(metadata %"core::option::Option<alloc::string::String>"** %_1.dbg.spill, metadata !1070, metadata !DIExpression()), !dbg !1073
  %0 = bitcast %"core::option::Option<alloc::string::String>"* %_1 to {}**, !dbg !1073
  %1 = load {}*, {}** %0, align 8, !dbg !1073
  %2 = icmp eq {}* %1, null, !dbg !1073
  %_2 = select i1 %2, i64 0, i64 1, !dbg !1073
  %3 = icmp eq i64 %_2, 0, !dbg !1073
  br i1 %3, label %bb1, label %bb2, !dbg !1073

bb1:                                              ; preds = %bb2, %start
  ret void, !dbg !1073

bb2:                                              ; preds = %start
  %4 = bitcast %"core::option::Option<alloc::string::String>"* %_1 to %"core::option::Option<alloc::string::String>::Some"*, !dbg !1073
  %5 = bitcast %"core::option::Option<alloc::string::String>::Some"* %4 to %"alloc::string::String"*, !dbg !1073
; call core::ptr::drop_in_place<alloc::string::String>
  call void @"_ZN4core3ptr42drop_in_place$LT$alloc..string..String$GT$17h0ccb537bb1763a95E"(%"alloc::string::String"* %5), !dbg !1073
  br label %bb1, !dbg !1073
}

; core::ptr::drop_in_place<alloc::raw_vec::RawVec<alloc::string::String>>
; Function Attrs: nonlazybind uwtable
define void @"_ZN4core3ptr72drop_in_place$LT$alloc..raw_vec..RawVec$LT$alloc..string..String$GT$$GT$17h10ffe8f32d11d714E"({ i64*, i64 }* %_1) unnamed_addr #1 !dbg !1074 {
start:
  %_1.dbg.spill = alloca { i64*, i64 }*, align 8
  store { i64*, i64 }* %_1, { i64*, i64 }** %_1.dbg.spill, align 8
  call void @llvm.dbg.declare(metadata { i64*, i64 }** %_1.dbg.spill, metadata !1079, metadata !DIExpression()), !dbg !1082
; call <alloc::raw_vec::RawVec<T,A> as core::ops::drop::Drop>::drop
  call void @"_ZN77_$LT$alloc..raw_vec..RawVec$LT$T$C$A$GT$$u20$as$u20$core..ops..drop..Drop$GT$4drop17h358a7a200ca8ad64E"({ i64*, i64 }* align 8 %_1), !dbg !1082
  br label %bb1, !dbg !1082

bb1:                                              ; preds = %start
  ret void, !dbg !1082
}

; core::ptr::drop_in_place<core::option::Option<alloc::vec::Vec<u8>>>
; Function Attrs: nonlazybind uwtable
define void @"_ZN4core3ptr74drop_in_place$LT$core..option..Option$LT$alloc..vec..Vec$LT$u8$GT$$GT$$GT$17h6f4a85b44fafafe7E"(%"core::option::Option<alloc::vec::Vec<u8>>"* %_1) unnamed_addr #1 !dbg !1083 {
start:
  %_1.dbg.spill = alloca %"core::option::Option<alloc::vec::Vec<u8>>"*, align 8
  store %"core::option::Option<alloc::vec::Vec<u8>>"* %_1, %"core::option::Option<alloc::vec::Vec<u8>>"** %_1.dbg.spill, align 8
  call void @llvm.dbg.declare(metadata %"core::option::Option<alloc::vec::Vec<u8>>"** %_1.dbg.spill, metadata !1099, metadata !DIExpression()), !dbg !1102
  %0 = bitcast %"core::option::Option<alloc::vec::Vec<u8>>"* %_1 to {}**, !dbg !1102
  %1 = load {}*, {}** %0, align 8, !dbg !1102
  %2 = icmp eq {}* %1, null, !dbg !1102
  %_2 = select i1 %2, i64 0, i64 1, !dbg !1102
  %3 = icmp eq i64 %_2, 0, !dbg !1102
  br i1 %3, label %bb1, label %bb2, !dbg !1102

bb1:                                              ; preds = %bb2, %start
  ret void, !dbg !1102

bb2:                                              ; preds = %start
  %4 = bitcast %"core::option::Option<alloc::vec::Vec<u8>>"* %_1 to %"core::option::Option<alloc::vec::Vec<u8>>::Some"*, !dbg !1102
  %5 = bitcast %"core::option::Option<alloc::vec::Vec<u8>>::Some"* %4 to %"alloc::vec::Vec<u8>"*, !dbg !1102
; call core::ptr::drop_in_place<alloc::vec::Vec<u8>>
  call void @"_ZN4core3ptr46drop_in_place$LT$alloc..vec..Vec$LT$u8$GT$$GT$17h9be70052c8106a2bE"(%"alloc::vec::Vec<u8>"* %5), !dbg !1102
  br label %bb1, !dbg !1102
}

; core::ptr::drop_in_place<alloc::raw_vec::RawVec<alloc::vec::Vec<u8>>>
; Function Attrs: nonlazybind uwtable
define void @"_ZN4core3ptr76drop_in_place$LT$alloc..raw_vec..RawVec$LT$alloc..vec..Vec$LT$u8$GT$$GT$$GT$17hc128c0e4cb8733f3E"({ i64*, i64 }* %_1) unnamed_addr #1 !dbg !1103 {
start:
  %_1.dbg.spill = alloca { i64*, i64 }*, align 8
  store { i64*, i64 }* %_1, { i64*, i64 }** %_1.dbg.spill, align 8
  call void @llvm.dbg.declare(metadata { i64*, i64 }** %_1.dbg.spill, metadata !1108, metadata !DIExpression()), !dbg !1111
; call <alloc::raw_vec::RawVec<T,A> as core::ops::drop::Drop>::drop
  call void @"_ZN77_$LT$alloc..raw_vec..RawVec$LT$T$C$A$GT$$u20$as$u20$core..ops..drop..Drop$GT$4drop17h9c8e6b8471c842a4E"({ i64*, i64 }* align 8 %_1), !dbg !1111
  br label %bb1, !dbg !1111

bb1:                                              ; preds = %start
  ret void, !dbg !1111
}

; core::ptr::non_null::NonNull<T>::new
; Function Attrs: inlinehint nonlazybind uwtable
define i8* @"_ZN4core3ptr8non_null16NonNull$LT$T$GT$3new17hc5605095dafcae08E"(i8* %ptr) unnamed_addr #0 !dbg !1112 {
start:
  %ptr.dbg.spill2 = alloca i8*, align 8
  %0 = alloca i8, align 1
  %other.dbg.spill = alloca i8*, align 8
  %data_address.dbg.spill = alloca {}*, align 8
  %1 = alloca {}*, align 8
  %self.dbg.spill1 = alloca i8*, align 8
  %self.dbg.spill = alloca i8*, align 8
  %metadata.dbg.spill = alloca {}, align 1
  %ptr.dbg.spill = alloca i8*, align 8
  %_15 = alloca %"core::ptr::metadata::PtrComponents<u8>", align 8
  %_14 = alloca %"core::ptr::metadata::PtrRepr<u8>", align 8
  %_5 = alloca i8*, align 8
  %2 = alloca i8*, align 8
  store i8* %ptr, i8** %ptr.dbg.spill, align 8
  call void @llvm.dbg.declare(metadata i8** %ptr.dbg.spill, metadata !1129, metadata !DIExpression()), !dbg !1130
  call void @llvm.dbg.declare(metadata {}* %metadata.dbg.spill, metadata !1131, metadata !DIExpression()), !dbg !1139
  store i8* %ptr, i8** %self.dbg.spill, align 8, !dbg !1154
  call void @llvm.dbg.declare(metadata i8** %self.dbg.spill, metadata !1152, metadata !DIExpression()), !dbg !1155
  store i8* %ptr, i8** %self.dbg.spill1, align 8, !dbg !1155
  call void @llvm.dbg.declare(metadata i8** %self.dbg.spill1, metadata !1156, metadata !DIExpression()), !dbg !1163
  %3 = bitcast {}** %1 to i64*, !dbg !1165
  store i64 0, i64* %3, align 8, !dbg !1165
  %data_address = load {}*, {}** %1, align 8, !dbg !1165
  store {}* %data_address, {}** %data_address.dbg.spill, align 8, !dbg !1165
  call void @llvm.dbg.declare(metadata {}** %data_address.dbg.spill, metadata !1138, metadata !DIExpression()), !dbg !1139
  br label %bb4, !dbg !1165

bb4:                                              ; preds = %start
  %4 = bitcast %"core::ptr::metadata::PtrComponents<u8>"* %_15 to {}**, !dbg !1139
  store {}* %data_address, {}** %4, align 8, !dbg !1139
  %5 = bitcast %"core::ptr::metadata::PtrRepr<u8>"* %_14 to %"core::ptr::metadata::PtrComponents<u8>"*, !dbg !1139
  %6 = bitcast %"core::ptr::metadata::PtrComponents<u8>"* %5 to i8*, !dbg !1139
  %7 = bitcast %"core::ptr::metadata::PtrComponents<u8>"* %_15 to i8*, !dbg !1139
  call void @llvm.memcpy.p0i8.p0i8.i64(i8* align 8 %6, i8* align 8 %7, i64 8, i1 false), !dbg !1139
  %8 = bitcast %"core::ptr::metadata::PtrRepr<u8>"* %_14 to i8**, !dbg !1139
  %other = load i8*, i8** %8, align 8, !dbg !1139
  store i8* %other, i8** %other.dbg.spill, align 8, !dbg !1139
  call void @llvm.dbg.declare(metadata i8** %other.dbg.spill, metadata !1162, metadata !DIExpression()), !dbg !1163
  %9 = icmp eq i8* %ptr, %other, !dbg !1163
  %10 = zext i1 %9 to i8, !dbg !1163
  store i8 %10, i8* %0, align 1, !dbg !1163
  %11 = load i8, i8* %0, align 1, !dbg !1163, !range !394, !noundef !19
  %_3 = trunc i8 %11 to i1, !dbg !1163
  br label %bb5, !dbg !1163

bb5:                                              ; preds = %bb4
  %_2 = xor i1 %_3, true, !dbg !1174
  br i1 %_2, label %bb1, label %bb2, !dbg !1174

bb2:                                              ; preds = %bb5
  %12 = bitcast i8** %2 to {}**, !dbg !1175
  store {}* null, {}** %12, align 8, !dbg !1175
  br label %bb3, !dbg !1176

bb1:                                              ; preds = %bb5
  store i8* %ptr, i8** %ptr.dbg.spill2, align 8, !dbg !1177
  call void @llvm.dbg.declare(metadata i8** %ptr.dbg.spill2, metadata !1178, metadata !DIExpression()), !dbg !1181
  store i8* %ptr, i8** %_5, align 8, !dbg !1181
  %13 = load i8*, i8** %_5, align 8, !dbg !1183, !nonnull !19, !noundef !19
  store i8* %13, i8** %2, align 8, !dbg !1183
  br label %bb3, !dbg !1176

bb3:                                              ; preds = %bb2, %bb1
  %14 = load i8*, i8** %2, align 8, !dbg !1184
  ret i8* %14, !dbg !1184
}

; core::str::converts::from_utf8_unchecked
; Function Attrs: inlinehint nonlazybind uwtable
define internal { [0 x i8]*, i64 } @_ZN4core3str8converts19from_utf8_unchecked17h9f5110cfd4f03ad3E([0 x i8]* align 1 %v.0, i64 %v.1) unnamed_addr #0 !dbg !1185 {
start:
  %0 = alloca { [0 x i8]*, i64 }, align 8
  %v.dbg.spill = alloca { [0 x i8]*, i64 }, align 8
  %1 = getelementptr inbounds { [0 x i8]*, i64 }, { [0 x i8]*, i64 }* %v.dbg.spill, i32 0, i32 0
  store [0 x i8]* %v.0, [0 x i8]** %1, align 8
  %2 = getelementptr inbounds { [0 x i8]*, i64 }, { [0 x i8]*, i64 }* %v.dbg.spill, i32 0, i32 1
  store i64 %v.1, i64* %2, align 8
  call void @llvm.dbg.declare(metadata { [0 x i8]*, i64 }* %v.dbg.spill, metadata !1192, metadata !DIExpression()), !dbg !1193
  %3 = getelementptr inbounds { [0 x i8]*, i64 }, { [0 x i8]*, i64 }* %0, i32 0, i32 0, !dbg !1194
  store [0 x i8]* %v.0, [0 x i8]** %3, align 8, !dbg !1194
  %4 = getelementptr inbounds { [0 x i8]*, i64 }, { [0 x i8]*, i64 }* %0, i32 0, i32 1, !dbg !1194
  store i64 %v.1, i64* %4, align 8, !dbg !1194
  %5 = getelementptr inbounds { [0 x i8]*, i64 }, { [0 x i8]*, i64 }* %0, i32 0, i32 0, !dbg !1194
  %6 = load [0 x i8]*, [0 x i8]** %5, align 8, !dbg !1194, !nonnull !19, !align !826, !noundef !19
  %7 = getelementptr inbounds { [0 x i8]*, i64 }, { [0 x i8]*, i64 }* %0, i32 0, i32 1, !dbg !1194
  %8 = load i64, i64* %7, align 8, !dbg !1194
  br label %bb1, !dbg !1194

bb1:                                              ; preds = %start
  %9 = insertvalue { [0 x i8]*, i64 } undef, [0 x i8]* %6, 0, !dbg !1195
  %10 = insertvalue { [0 x i8]*, i64 } %9, i64 %8, 1, !dbg !1195
  ret { [0 x i8]*, i64 } %10, !dbg !1195
}

; core::iter::traits::iterator::Iterator::by_ref
; Function Attrs: nonlazybind uwtable
define align 8 %"bytes::Shlex"* @_ZN4core4iter6traits8iterator8Iterator6by_ref17h4ba759d08463b75dE(%"bytes::Shlex"* align 8 %self) unnamed_addr #1 !dbg !1196 {
start:
  %self.dbg.spill = alloca %"bytes::Shlex"*, align 8
  store %"bytes::Shlex"* %self, %"bytes::Shlex"** %self.dbg.spill, align 8
  call void @llvm.dbg.declare(metadata %"bytes::Shlex"** %self.dbg.spill, metadata !1205, metadata !DIExpression()), !dbg !1208
  ret %"bytes::Shlex"* %self, !dbg !1209
}

; core::iter::traits::iterator::Iterator::by_ref
; Function Attrs: nonlazybind uwtable
define align 8 %Shlex* @_ZN4core4iter6traits8iterator8Iterator6by_ref17ha02f8a5de378d359E(%Shlex* align 8 %self) unnamed_addr #1 !dbg !1210 {
start:
  %self.dbg.spill = alloca %Shlex*, align 8
  store %Shlex* %self, %Shlex** %self.dbg.spill, align 8
  call void @llvm.dbg.declare(metadata %Shlex** %self.dbg.spill, metadata !1214, metadata !DIExpression()), !dbg !1217
  ret %Shlex* %self, !dbg !1218
}

; core::iter::traits::iterator::Iterator::collect
; Function Attrs: inlinehint nonlazybind uwtable
define void @_ZN4core4iter6traits8iterator8Iterator7collect17h2ef59b44caa76a53E(%"alloc::vec::Vec<alloc::vec::Vec<u8>>"* sret(%"alloc::vec::Vec<alloc::vec::Vec<u8>>") %0, %"bytes::Shlex"* align 8 %self) unnamed_addr #0 !dbg !1219 {
start:
  %self.dbg.spill = alloca %"bytes::Shlex"*, align 8
  store %"bytes::Shlex"* %self, %"bytes::Shlex"** %self.dbg.spill, align 8
  call void @llvm.dbg.declare(metadata %"bytes::Shlex"** %self.dbg.spill, metadata !1221, metadata !DIExpression()), !dbg !1225
; call <alloc::vec::Vec<T> as core::iter::traits::collect::FromIterator<T>>::from_iter
  call void @"_ZN95_$LT$alloc..vec..Vec$LT$T$GT$$u20$as$u20$core..iter..traits..collect..FromIterator$LT$T$GT$$GT$9from_iter17h0f3f6e13d4f9205aE"(%"alloc::vec::Vec<alloc::vec::Vec<u8>>"* sret(%"alloc::vec::Vec<alloc::vec::Vec<u8>>") %0, %"bytes::Shlex"* align 8 %self), !dbg !1226
  br label %bb1, !dbg !1226

bb1:                                              ; preds = %start
  ret void, !dbg !1227
}

; core::iter::traits::iterator::Iterator::collect
; Function Attrs: inlinehint nonlazybind uwtable
define void @_ZN4core4iter6traits8iterator8Iterator7collect17ha461a06ed692ab48E(%"alloc::vec::Vec<alloc::string::String>"* sret(%"alloc::vec::Vec<alloc::string::String>") %0, %Shlex* align 8 %self) unnamed_addr #0 !dbg !1228 {
start:
  %self.dbg.spill = alloca %Shlex*, align 8
  store %Shlex* %self, %Shlex** %self.dbg.spill, align 8
  call void @llvm.dbg.declare(metadata %Shlex** %self.dbg.spill, metadata !1230, metadata !DIExpression()), !dbg !1234
; call <alloc::vec::Vec<T> as core::iter::traits::collect::FromIterator<T>>::from_iter
  call void @"_ZN95_$LT$alloc..vec..Vec$LT$T$GT$$u20$as$u20$core..iter..traits..collect..FromIterator$LT$T$GT$$GT$9from_iter17hbc35f6bdd17ee206E"(%"alloc::vec::Vec<alloc::string::String>"* sret(%"alloc::vec::Vec<alloc::string::String>") %0, %Shlex* align 8 %self), !dbg !1235
  br label %bb1, !dbg !1235

bb1:                                              ; preds = %start
  ret void, !dbg !1236
}

; core::iter::traits::iterator::Iterator::size_hint
; Function Attrs: inlinehint nonlazybind uwtable
define void @_ZN4core4iter6traits8iterator8Iterator9size_hint17h950b9391cc9a8154E({ i64, { i64, i64 } }* sret({ i64, { i64, i64 } }) %0, %Shlex* align 8 %self) unnamed_addr #0 !dbg !1237 {
start:
  %self.dbg.spill = alloca %Shlex*, align 8
  %_2 = alloca { i64, i64 }, align 8
  store %Shlex* %self, %Shlex** %self.dbg.spill, align 8
  call void @llvm.dbg.declare(metadata %Shlex** %self.dbg.spill, metadata !1246, metadata !DIExpression()), !dbg !1247
  %1 = bitcast { i64, i64 }* %_2 to i64*, !dbg !1248
  store i64 0, i64* %1, align 8, !dbg !1248
  %2 = bitcast { i64, { i64, i64 } }* %0 to i64*, !dbg !1249
  store i64 0, i64* %2, align 8, !dbg !1249
  %3 = getelementptr inbounds { i64, { i64, i64 } }, { i64, { i64, i64 } }* %0, i32 0, i32 1, !dbg !1249
  %4 = getelementptr inbounds { i64, i64 }, { i64, i64 }* %_2, i32 0, i32 0, !dbg !1249
  %5 = load i64, i64* %4, align 8, !dbg !1249, !range !936, !noundef !19
  %6 = getelementptr inbounds { i64, i64 }, { i64, i64 }* %_2, i32 0, i32 1, !dbg !1249
  %7 = load i64, i64* %6, align 8, !dbg !1249
  %8 = getelementptr inbounds { i64, i64 }, { i64, i64 }* %3, i32 0, i32 0, !dbg !1249
  store i64 %5, i64* %8, align 8, !dbg !1249
  %9 = getelementptr inbounds { i64, i64 }, { i64, i64 }* %3, i32 0, i32 1, !dbg !1249
  store i64 %7, i64* %9, align 8, !dbg !1249
  ret void, !dbg !1250
}

; core::iter::traits::iterator::Iterator::size_hint
; Function Attrs: inlinehint nonlazybind uwtable
define void @_ZN4core4iter6traits8iterator8Iterator9size_hint17hf31b4a86f58bf893E({ i64, { i64, i64 } }* sret({ i64, { i64, i64 } }) %0, %"bytes::Shlex"* align 8 %self) unnamed_addr #0 !dbg !1251 {
start:
  %self.dbg.spill = alloca %"bytes::Shlex"*, align 8
  %_2 = alloca { i64, i64 }, align 8
  store %"bytes::Shlex"* %self, %"bytes::Shlex"** %self.dbg.spill, align 8
  call void @llvm.dbg.declare(metadata %"bytes::Shlex"** %self.dbg.spill, metadata !1256, metadata !DIExpression()), !dbg !1257
  %1 = bitcast { i64, i64 }* %_2 to i64*, !dbg !1258
  store i64 0, i64* %1, align 8, !dbg !1258
  %2 = bitcast { i64, { i64, i64 } }* %0 to i64*, !dbg !1259
  store i64 0, i64* %2, align 8, !dbg !1259
  %3 = getelementptr inbounds { i64, { i64, i64 } }, { i64, { i64, i64 } }* %0, i32 0, i32 1, !dbg !1259
  %4 = getelementptr inbounds { i64, i64 }, { i64, i64 }* %_2, i32 0, i32 0, !dbg !1259
  %5 = load i64, i64* %4, align 8, !dbg !1259, !range !936, !noundef !19
  %6 = getelementptr inbounds { i64, i64 }, { i64, i64 }* %_2, i32 0, i32 1, !dbg !1259
  %7 = load i64, i64* %6, align 8, !dbg !1259
  %8 = getelementptr inbounds { i64, i64 }, { i64, i64 }* %3, i32 0, i32 0, !dbg !1259
  store i64 %5, i64* %8, align 8, !dbg !1259
  %9 = getelementptr inbounds { i64, i64 }, { i64, i64 }* %3, i32 0, i32 1, !dbg !1259
  store i64 %7, i64* %9, align 8, !dbg !1259
  ret void, !dbg !1260
}

; core::alloc::layout::Layout::from_size_valid_align
; Function Attrs: inlinehint nonlazybind uwtable
define internal { i64, i64 } @_ZN4core5alloc6layout6Layout21from_size_valid_align17h9cc74eb999b1e403E(i64 %size, i64 %align) unnamed_addr #0 !dbg !1261 {
start:
  %n.dbg.spill = alloca i64, align 8
  %align.dbg.spill = alloca i64, align 8
  %size.dbg.spill = alloca i64, align 8
  %_11 = alloca { i64, i64 }, align 8
  %self1 = alloca i64, align 8
  %self = alloca i64, align 8
  %0 = alloca { i64, i64 }, align 8
  store i64 %size, i64* %size.dbg.spill, align 8
  call void @llvm.dbg.declare(metadata i64* %size.dbg.spill, metadata !1283, metadata !DIExpression()), !dbg !1285
  store i64 %align, i64* %align.dbg.spill, align 8
  call void @llvm.dbg.declare(metadata i64* %align.dbg.spill, metadata !1284, metadata !DIExpression()), !dbg !1286
  call void @llvm.dbg.declare(metadata i64* %self, metadata !1287, metadata !DIExpression()), !dbg !1298
  call void @llvm.dbg.declare(metadata i64* %self1, metadata !1300, metadata !DIExpression()), !dbg !1307
  store i64 %align, i64* %self1, align 8, !dbg !1299
  %_15 = load i64, i64* %self1, align 8, !dbg !1307, !range !1308, !noundef !19
  store i64 %_15, i64* %n.dbg.spill, align 8, !dbg !1307
  call void @llvm.dbg.declare(metadata i64* %n.dbg.spill, metadata !1309, metadata !DIExpression()), !dbg !1323
  store i64 %_15, i64* %self, align 8, !dbg !1323
  %_8 = load i64, i64* %self, align 8, !dbg !1298
  %_7 = sub i64 %_8, 1, !dbg !1325
  %_5 = sub i64 9223372036854775807, %_7, !dbg !1326
  %_3 = icmp ugt i64 %size, %_5, !dbg !1327
  br i1 %_3, label %bb1, label %bb2, !dbg !1327

bb2:                                              ; preds = %start
  %1 = bitcast { i64, i64 }* %_11 to i64*, !dbg !1328
  store i64 %size, i64* %1, align 8, !dbg !1328
  %2 = getelementptr inbounds { i64, i64 }, { i64, i64 }* %_11, i32 0, i32 1, !dbg !1328
  store i64 %align, i64* %2, align 8, !dbg !1328
  %3 = getelementptr inbounds { i64, i64 }, { i64, i64 }* %_11, i32 0, i32 0, !dbg !1329
  %4 = load i64, i64* %3, align 8, !dbg !1329
  %5 = getelementptr inbounds { i64, i64 }, { i64, i64 }* %_11, i32 0, i32 1, !dbg !1329
  %6 = load i64, i64* %5, align 8, !dbg !1329, !range !1308, !noundef !19
  %7 = getelementptr inbounds { i64, i64 }, { i64, i64 }* %0, i32 0, i32 0, !dbg !1329
  store i64 %4, i64* %7, align 8, !dbg !1329
  %8 = getelementptr inbounds { i64, i64 }, { i64, i64 }* %0, i32 0, i32 1, !dbg !1329
  store i64 %6, i64* %8, align 8, !dbg !1329
  br label %bb3, !dbg !1330

bb1:                                              ; preds = %start
  %9 = getelementptr inbounds { i64, i64 }, { i64, i64 }* %0, i32 0, i32 1, !dbg !1331
  store i64 0, i64* %9, align 8, !dbg !1331
  br label %bb3, !dbg !1330

bb3:                                              ; preds = %bb2, %bb1
  %10 = getelementptr inbounds { i64, i64 }, { i64, i64 }* %0, i32 0, i32 0, !dbg !1330
  %11 = load i64, i64* %10, align 8, !dbg !1330
  %12 = getelementptr inbounds { i64, i64 }, { i64, i64 }* %0, i32 0, i32 1, !dbg !1330
  %13 = load i64, i64* %12, align 8, !dbg !1330, !range !649, !noundef !19
  %14 = insertvalue { i64, i64 } undef, i64 %11, 0, !dbg !1330
  %15 = insertvalue { i64, i64 } %14, i64 %13, 1, !dbg !1330
  ret { i64, i64 } %15, !dbg !1330
}

; core::alloc::layout::Layout::array
; Function Attrs: inlinehint nonlazybind uwtable
define { i64, i64 } @_ZN4core5alloc6layout6Layout5array17h1323d54702b1344aE(i64 %n) unnamed_addr #0 !dbg !1332 {
start:
  %0 = alloca i64, align 8
  %align.dbg.spill = alloca i64, align 8
  %array_size.dbg.spill = alloca i64, align 8
  %val.dbg.spill = alloca i64, align 8
  %v.dbg.spill5 = alloca i64, align 8
  %v.dbg.spill = alloca i64, align 8
  %e.dbg.spill3 = alloca %"core::alloc::layout::LayoutError", align 1
  %e.dbg.spill = alloca %"core::alloc::layout::LayoutError", align 1
  %residual.dbg.spill2 = alloca %"core::result::Result<core::convert::Infallible, core::alloc::layout::LayoutError>::Err", align 1
  %residual.dbg.spill = alloca %"core::result::Result<core::convert::Infallible, core::alloc::layout::LayoutError>::Err", align 1
  %err.dbg.spill = alloca %"core::alloc::layout::LayoutError", align 1
  %n.dbg.spill = alloca i64, align 8
  %self1 = alloca { i64, i64 }, align 8
  %self = alloca { i64, i64 }, align 8
  %_3 = alloca { i64, i64 }, align 8
  %1 = alloca { i64, i64 }, align 8
  store i64 %n, i64* %n.dbg.spill, align 8
  call void @llvm.dbg.declare(metadata i64* %n.dbg.spill, metadata !1336, metadata !DIExpression()), !dbg !1356
  call void @llvm.dbg.declare(metadata { i64, i64 }* %self, metadata !1357, metadata !DIExpression()), !dbg !1401
  call void @llvm.dbg.declare(metadata { i64, i64 }* %self1, metadata !1403, metadata !DIExpression()), !dbg !1414
  call void @llvm.dbg.declare(metadata %"core::alloc::layout::LayoutError"* %err.dbg.spill, metadata !1410, metadata !DIExpression()), !dbg !1414
  call void @llvm.dbg.declare(metadata %"core::result::Result<core::convert::Infallible, core::alloc::layout::LayoutError>::Err"* %residual.dbg.spill, metadata !1339, metadata !DIExpression()), !dbg !1415
  call void @llvm.dbg.declare(metadata %"core::result::Result<core::convert::Infallible, core::alloc::layout::LayoutError>::Err"* %residual.dbg.spill2, metadata !1416, metadata !DIExpression()), !dbg !1427
  call void @llvm.dbg.declare(metadata %"core::alloc::layout::LayoutError"* %e.dbg.spill, metadata !1398, metadata !DIExpression()), !dbg !1429
  call void @llvm.dbg.declare(metadata %"core::alloc::layout::LayoutError"* %e.dbg.spill3, metadata !1422, metadata !DIExpression()), !dbg !1430
; call core::num::<impl usize>::checked_mul
  %2 = call { i64, i64 } @"_ZN4core3num23_$LT$impl$u20$usize$GT$11checked_mul17h3cb4555aa44341dcE"(i64 1, i64 %n), !dbg !1402
  store { i64, i64 } %2, { i64, i64 }* %self1, align 8, !dbg !1402
  br label %bb1, !dbg !1402

bb1:                                              ; preds = %start
  %3 = bitcast { i64, i64 }* %self1 to i64*, !dbg !1414
  %_15 = load i64, i64* %3, align 8, !dbg !1414, !range !936, !noundef !19
  switch i64 %_15, label %bb9 [
    i64 0, label %bb8
    i64 1, label %bb10
  ], !dbg !1414

bb9:                                              ; preds = %bb1
  unreachable, !dbg !1414

bb8:                                              ; preds = %bb1
  %4 = bitcast { i64, i64 }* %self to i64*, !dbg !1414
  store i64 1, i64* %4, align 8, !dbg !1414
  br label %bb11, !dbg !1414

bb10:                                             ; preds = %bb1
  %5 = getelementptr inbounds { i64, i64 }, { i64, i64 }* %self1, i32 0, i32 1, !dbg !1414
  %v = load i64, i64* %5, align 8, !dbg !1414
  store i64 %v, i64* %v.dbg.spill, align 8, !dbg !1414
  call void @llvm.dbg.declare(metadata i64* %v.dbg.spill, metadata !1411, metadata !DIExpression()), !dbg !1431
  %6 = getelementptr inbounds { i64, i64 }, { i64, i64 }* %self, i32 0, i32 1, !dbg !1431
  store i64 %v, i64* %6, align 8, !dbg !1431
  %7 = bitcast { i64, i64 }* %self to i64*, !dbg !1431
  store i64 0, i64* %7, align 8, !dbg !1431
  br label %bb11, !dbg !1414

bb11:                                             ; preds = %bb8, %bb10
  %8 = bitcast { i64, i64 }* %self to i64*, !dbg !1401
  %_18 = load i64, i64* %8, align 8, !dbg !1401, !range !936, !noundef !19
  switch i64 %_18, label %bb13 [
    i64 0, label %bb14
    i64 1, label %bb12
  ], !dbg !1401

bb13:                                             ; preds = %bb11
  unreachable, !dbg !1401

bb14:                                             ; preds = %bb11
  %9 = getelementptr inbounds { i64, i64 }, { i64, i64 }* %self, i32 0, i32 1, !dbg !1401
  %v4 = load i64, i64* %9, align 8, !dbg !1401
  store i64 %v4, i64* %v.dbg.spill5, align 8, !dbg !1401
  call void @llvm.dbg.declare(metadata i64* %v.dbg.spill5, metadata !1395, metadata !DIExpression()), !dbg !1432
  %10 = getelementptr inbounds { i64, i64 }, { i64, i64 }* %_3, i32 0, i32 1, !dbg !1432
  store i64 %v4, i64* %10, align 8, !dbg !1432
  %11 = bitcast { i64, i64 }* %_3 to i64*, !dbg !1432
  store i64 0, i64* %11, align 8, !dbg !1432
  br label %bb2, !dbg !1401

bb12:                                             ; preds = %bb11
  %12 = bitcast { i64, i64 }* %_3 to i64*, !dbg !1429
  store i64 1, i64* %12, align 8, !dbg !1429
  br label %bb2, !dbg !1401

bb2:                                              ; preds = %bb14, %bb12
  %13 = bitcast { i64, i64 }* %_3 to i64*, !dbg !1402
  %_9 = load i64, i64* %13, align 8, !dbg !1402, !range !936, !noundef !19
  switch i64 %_9, label %bb4 [
    i64 0, label %bb3
    i64 1, label %bb5
  ], !dbg !1402

bb4:                                              ; preds = %bb2
  unreachable, !dbg !1402

bb3:                                              ; preds = %bb2
  %14 = getelementptr inbounds { i64, i64 }, { i64, i64 }* %_3, i32 0, i32 1, !dbg !1402
  %val = load i64, i64* %14, align 8, !dbg !1402
  store i64 %val, i64* %val.dbg.spill, align 8, !dbg !1402
  call void @llvm.dbg.declare(metadata i64* %val.dbg.spill, metadata !1354, metadata !DIExpression()), !dbg !1433
  store i64 %val, i64* %array_size.dbg.spill, align 8, !dbg !1433
  call void @llvm.dbg.declare(metadata i64* %array_size.dbg.spill, metadata !1337, metadata !DIExpression()), !dbg !1434
  store i64 1, i64* %align.dbg.spill, align 8, !dbg !1435
  call void @llvm.dbg.declare(metadata i64* %align.dbg.spill, metadata !1446, metadata !DIExpression()), !dbg !1460
  store i64 1, i64* %0, align 8, !dbg !1460
  %_14 = load i64, i64* %0, align 8, !dbg !1460, !range !1308, !noundef !19
  br label %bb15, !dbg !1460

bb5:                                              ; preds = %bb2
; call <T as core::convert::From<T>>::from
  call void @"_ZN50_$LT$T$u20$as$u20$core..convert..From$LT$T$GT$$GT$4from17h53d72257060e3473E"(), !dbg !1430
  br label %bb16, !dbg !1430

bb16:                                             ; preds = %bb5
  %15 = getelementptr inbounds { i64, i64 }, { i64, i64 }* %1, i32 0, i32 1, !dbg !1430
  store i64 0, i64* %15, align 8, !dbg !1430
  br label %bb7, !dbg !1462

bb7:                                              ; preds = %bb6, %bb16
  %16 = getelementptr inbounds { i64, i64 }, { i64, i64 }* %1, i32 0, i32 0, !dbg !1462
  %17 = load i64, i64* %16, align 8, !dbg !1462
  %18 = getelementptr inbounds { i64, i64 }, { i64, i64 }* %1, i32 0, i32 1, !dbg !1462
  %19 = load i64, i64* %18, align 8, !dbg !1462, !range !649, !noundef !19
  %20 = insertvalue { i64, i64 } undef, i64 %17, 0, !dbg !1462
  %21 = insertvalue { i64, i64 } %20, i64 %19, 1, !dbg !1462
  ret { i64, i64 } %21, !dbg !1462

bb15:                                             ; preds = %bb3
; call core::alloc::layout::Layout::from_size_valid_align
  %22 = call { i64, i64 } @_ZN4core5alloc6layout6Layout21from_size_valid_align17h9cc74eb999b1e403E(i64 %val, i64 %_14), !dbg !1463
  store { i64, i64 } %22, { i64, i64 }* %1, align 8, !dbg !1463
  br label %bb6, !dbg !1463

bb6:                                              ; preds = %bb15
  br label %bb7, !dbg !1462
}

; core::alloc::layout::Layout::array
; Function Attrs: inlinehint nonlazybind uwtable
define { i64, i64 } @_ZN4core5alloc6layout6Layout5array17h277941258703e322E(i64 %n) unnamed_addr #0 !dbg !1464 {
start:
  %0 = alloca i64, align 8
  %align.dbg.spill = alloca i64, align 8
  %array_size.dbg.spill = alloca i64, align 8
  %val.dbg.spill = alloca i64, align 8
  %v.dbg.spill5 = alloca i64, align 8
  %v.dbg.spill = alloca i64, align 8
  %e.dbg.spill3 = alloca %"core::alloc::layout::LayoutError", align 1
  %e.dbg.spill = alloca %"core::alloc::layout::LayoutError", align 1
  %residual.dbg.spill2 = alloca %"core::result::Result<core::convert::Infallible, core::alloc::layout::LayoutError>::Err", align 1
  %residual.dbg.spill = alloca %"core::result::Result<core::convert::Infallible, core::alloc::layout::LayoutError>::Err", align 1
  %err.dbg.spill = alloca %"core::alloc::layout::LayoutError", align 1
  %n.dbg.spill = alloca i64, align 8
  %self1 = alloca { i64, i64 }, align 8
  %self = alloca { i64, i64 }, align 8
  %_3 = alloca { i64, i64 }, align 8
  %1 = alloca { i64, i64 }, align 8
  store i64 %n, i64* %n.dbg.spill, align 8
  call void @llvm.dbg.declare(metadata i64* %n.dbg.spill, metadata !1466, metadata !DIExpression()), !dbg !1473
  call void @llvm.dbg.declare(metadata { i64, i64 }* %self, metadata !1474, metadata !DIExpression()), !dbg !1484
  call void @llvm.dbg.declare(metadata { i64, i64 }* %self1, metadata !1486, metadata !DIExpression()), !dbg !1494
  call void @llvm.dbg.declare(metadata %"core::alloc::layout::LayoutError"* %err.dbg.spill, metadata !1490, metadata !DIExpression()), !dbg !1494
  call void @llvm.dbg.declare(metadata %"core::result::Result<core::convert::Infallible, core::alloc::layout::LayoutError>::Err"* %residual.dbg.spill, metadata !1469, metadata !DIExpression()), !dbg !1495
  call void @llvm.dbg.declare(metadata %"core::result::Result<core::convert::Infallible, core::alloc::layout::LayoutError>::Err"* %residual.dbg.spill2, metadata !1496, metadata !DIExpression()), !dbg !1503
  call void @llvm.dbg.declare(metadata %"core::alloc::layout::LayoutError"* %e.dbg.spill, metadata !1481, metadata !DIExpression()), !dbg !1505
  call void @llvm.dbg.declare(metadata %"core::alloc::layout::LayoutError"* %e.dbg.spill3, metadata !1500, metadata !DIExpression()), !dbg !1506
; call core::num::<impl usize>::checked_mul
  %2 = call { i64, i64 } @"_ZN4core3num23_$LT$impl$u20$usize$GT$11checked_mul17h3cb4555aa44341dcE"(i64 24, i64 %n), !dbg !1485
  store { i64, i64 } %2, { i64, i64 }* %self1, align 8, !dbg !1485
  br label %bb1, !dbg !1485

bb1:                                              ; preds = %start
  %3 = bitcast { i64, i64 }* %self1 to i64*, !dbg !1494
  %_15 = load i64, i64* %3, align 8, !dbg !1494, !range !936, !noundef !19
  switch i64 %_15, label %bb9 [
    i64 0, label %bb8
    i64 1, label %bb10
  ], !dbg !1494

bb9:                                              ; preds = %bb1
  unreachable, !dbg !1494

bb8:                                              ; preds = %bb1
  %4 = bitcast { i64, i64 }* %self to i64*, !dbg !1494
  store i64 1, i64* %4, align 8, !dbg !1494
  br label %bb11, !dbg !1494

bb10:                                             ; preds = %bb1
  %5 = getelementptr inbounds { i64, i64 }, { i64, i64 }* %self1, i32 0, i32 1, !dbg !1494
  %v = load i64, i64* %5, align 8, !dbg !1494
  store i64 %v, i64* %v.dbg.spill, align 8, !dbg !1494
  call void @llvm.dbg.declare(metadata i64* %v.dbg.spill, metadata !1491, metadata !DIExpression()), !dbg !1507
  %6 = getelementptr inbounds { i64, i64 }, { i64, i64 }* %self, i32 0, i32 1, !dbg !1507
  store i64 %v, i64* %6, align 8, !dbg !1507
  %7 = bitcast { i64, i64 }* %self to i64*, !dbg !1507
  store i64 0, i64* %7, align 8, !dbg !1507
  br label %bb11, !dbg !1494

bb11:                                             ; preds = %bb8, %bb10
  %8 = bitcast { i64, i64 }* %self to i64*, !dbg !1484
  %_18 = load i64, i64* %8, align 8, !dbg !1484, !range !936, !noundef !19
  switch i64 %_18, label %bb13 [
    i64 0, label %bb14
    i64 1, label %bb12
  ], !dbg !1484

bb13:                                             ; preds = %bb11
  unreachable, !dbg !1484

bb14:                                             ; preds = %bb11
  %9 = getelementptr inbounds { i64, i64 }, { i64, i64 }* %self, i32 0, i32 1, !dbg !1484
  %v4 = load i64, i64* %9, align 8, !dbg !1484
  store i64 %v4, i64* %v.dbg.spill5, align 8, !dbg !1484
  call void @llvm.dbg.declare(metadata i64* %v.dbg.spill5, metadata !1478, metadata !DIExpression()), !dbg !1508
  %10 = getelementptr inbounds { i64, i64 }, { i64, i64 }* %_3, i32 0, i32 1, !dbg !1508
  store i64 %v4, i64* %10, align 8, !dbg !1508
  %11 = bitcast { i64, i64 }* %_3 to i64*, !dbg !1508
  store i64 0, i64* %11, align 8, !dbg !1508
  br label %bb2, !dbg !1484

bb12:                                             ; preds = %bb11
  %12 = bitcast { i64, i64 }* %_3 to i64*, !dbg !1505
  store i64 1, i64* %12, align 8, !dbg !1505
  br label %bb2, !dbg !1484

bb2:                                              ; preds = %bb14, %bb12
  %13 = bitcast { i64, i64 }* %_3 to i64*, !dbg !1485
  %_9 = load i64, i64* %13, align 8, !dbg !1485, !range !936, !noundef !19
  switch i64 %_9, label %bb4 [
    i64 0, label %bb3
    i64 1, label %bb5
  ], !dbg !1485

bb4:                                              ; preds = %bb2
  unreachable, !dbg !1485

bb3:                                              ; preds = %bb2
  %14 = getelementptr inbounds { i64, i64 }, { i64, i64 }* %_3, i32 0, i32 1, !dbg !1485
  %val = load i64, i64* %14, align 8, !dbg !1485
  store i64 %val, i64* %val.dbg.spill, align 8, !dbg !1485
  call void @llvm.dbg.declare(metadata i64* %val.dbg.spill, metadata !1471, metadata !DIExpression()), !dbg !1509
  store i64 %val, i64* %array_size.dbg.spill, align 8, !dbg !1509
  call void @llvm.dbg.declare(metadata i64* %array_size.dbg.spill, metadata !1467, metadata !DIExpression()), !dbg !1510
  store i64 8, i64* %align.dbg.spill, align 8, !dbg !1511
  call void @llvm.dbg.declare(metadata i64* %align.dbg.spill, metadata !1517, metadata !DIExpression()), !dbg !1524
  store i64 8, i64* %0, align 8, !dbg !1524
  %_14 = load i64, i64* %0, align 8, !dbg !1524, !range !1308, !noundef !19
  br label %bb15, !dbg !1524

bb5:                                              ; preds = %bb2
; call <T as core::convert::From<T>>::from
  call void @"_ZN50_$LT$T$u20$as$u20$core..convert..From$LT$T$GT$$GT$4from17h53d72257060e3473E"(), !dbg !1506
  br label %bb16, !dbg !1506

bb16:                                             ; preds = %bb5
  %15 = getelementptr inbounds { i64, i64 }, { i64, i64 }* %1, i32 0, i32 1, !dbg !1506
  store i64 0, i64* %15, align 8, !dbg !1506
  br label %bb7, !dbg !1526

bb7:                                              ; preds = %bb6, %bb16
  %16 = getelementptr inbounds { i64, i64 }, { i64, i64 }* %1, i32 0, i32 0, !dbg !1526
  %17 = load i64, i64* %16, align 8, !dbg !1526
  %18 = getelementptr inbounds { i64, i64 }, { i64, i64 }* %1, i32 0, i32 1, !dbg !1526
  %19 = load i64, i64* %18, align 8, !dbg !1526, !range !649, !noundef !19
  %20 = insertvalue { i64, i64 } undef, i64 %17, 0, !dbg !1526
  %21 = insertvalue { i64, i64 } %20, i64 %19, 1, !dbg !1526
  ret { i64, i64 } %21, !dbg !1526

bb15:                                             ; preds = %bb3
; call core::alloc::layout::Layout::from_size_valid_align
  %22 = call { i64, i64 } @_ZN4core5alloc6layout6Layout21from_size_valid_align17h9cc74eb999b1e403E(i64 %val, i64 %_14), !dbg !1527
  store { i64, i64 } %22, { i64, i64 }* %1, align 8, !dbg !1527
  br label %bb6, !dbg !1527

bb6:                                              ; preds = %bb15
  br label %bb7, !dbg !1526
}

; core::alloc::layout::Layout::array
; Function Attrs: inlinehint nonlazybind uwtable
define { i64, i64 } @_ZN4core5alloc6layout6Layout5array17h2e3ae26bf90eeeb2E(i64 %n) unnamed_addr #0 !dbg !1528 {
start:
  %0 = alloca i64, align 8
  %align.dbg.spill = alloca i64, align 8
  %array_size.dbg.spill = alloca i64, align 8
  %val.dbg.spill = alloca i64, align 8
  %v.dbg.spill5 = alloca i64, align 8
  %v.dbg.spill = alloca i64, align 8
  %e.dbg.spill3 = alloca %"core::alloc::layout::LayoutError", align 1
  %e.dbg.spill = alloca %"core::alloc::layout::LayoutError", align 1
  %residual.dbg.spill2 = alloca %"core::result::Result<core::convert::Infallible, core::alloc::layout::LayoutError>::Err", align 1
  %residual.dbg.spill = alloca %"core::result::Result<core::convert::Infallible, core::alloc::layout::LayoutError>::Err", align 1
  %err.dbg.spill = alloca %"core::alloc::layout::LayoutError", align 1
  %n.dbg.spill = alloca i64, align 8
  %self1 = alloca { i64, i64 }, align 8
  %self = alloca { i64, i64 }, align 8
  %_3 = alloca { i64, i64 }, align 8
  %1 = alloca { i64, i64 }, align 8
  store i64 %n, i64* %n.dbg.spill, align 8
  call void @llvm.dbg.declare(metadata i64* %n.dbg.spill, metadata !1530, metadata !DIExpression()), !dbg !1537
  call void @llvm.dbg.declare(metadata { i64, i64 }* %self, metadata !1538, metadata !DIExpression()), !dbg !1548
  call void @llvm.dbg.declare(metadata { i64, i64 }* %self1, metadata !1550, metadata !DIExpression()), !dbg !1558
  call void @llvm.dbg.declare(metadata %"core::alloc::layout::LayoutError"* %err.dbg.spill, metadata !1554, metadata !DIExpression()), !dbg !1558
  call void @llvm.dbg.declare(metadata %"core::result::Result<core::convert::Infallible, core::alloc::layout::LayoutError>::Err"* %residual.dbg.spill, metadata !1533, metadata !DIExpression()), !dbg !1559
  call void @llvm.dbg.declare(metadata %"core::result::Result<core::convert::Infallible, core::alloc::layout::LayoutError>::Err"* %residual.dbg.spill2, metadata !1560, metadata !DIExpression()), !dbg !1567
  call void @llvm.dbg.declare(metadata %"core::alloc::layout::LayoutError"* %e.dbg.spill, metadata !1545, metadata !DIExpression()), !dbg !1569
  call void @llvm.dbg.declare(metadata %"core::alloc::layout::LayoutError"* %e.dbg.spill3, metadata !1564, metadata !DIExpression()), !dbg !1570
; call core::num::<impl usize>::checked_mul
  %2 = call { i64, i64 } @"_ZN4core3num23_$LT$impl$u20$usize$GT$11checked_mul17h3cb4555aa44341dcE"(i64 24, i64 %n), !dbg !1549
  store { i64, i64 } %2, { i64, i64 }* %self1, align 8, !dbg !1549
  br label %bb1, !dbg !1549

bb1:                                              ; preds = %start
  %3 = bitcast { i64, i64 }* %self1 to i64*, !dbg !1558
  %_15 = load i64, i64* %3, align 8, !dbg !1558, !range !936, !noundef !19
  switch i64 %_15, label %bb9 [
    i64 0, label %bb8
    i64 1, label %bb10
  ], !dbg !1558

bb9:                                              ; preds = %bb1
  unreachable, !dbg !1558

bb8:                                              ; preds = %bb1
  %4 = bitcast { i64, i64 }* %self to i64*, !dbg !1558
  store i64 1, i64* %4, align 8, !dbg !1558
  br label %bb11, !dbg !1558

bb10:                                             ; preds = %bb1
  %5 = getelementptr inbounds { i64, i64 }, { i64, i64 }* %self1, i32 0, i32 1, !dbg !1558
  %v = load i64, i64* %5, align 8, !dbg !1558
  store i64 %v, i64* %v.dbg.spill, align 8, !dbg !1558
  call void @llvm.dbg.declare(metadata i64* %v.dbg.spill, metadata !1555, metadata !DIExpression()), !dbg !1571
  %6 = getelementptr inbounds { i64, i64 }, { i64, i64 }* %self, i32 0, i32 1, !dbg !1571
  store i64 %v, i64* %6, align 8, !dbg !1571
  %7 = bitcast { i64, i64 }* %self to i64*, !dbg !1571
  store i64 0, i64* %7, align 8, !dbg !1571
  br label %bb11, !dbg !1558

bb11:                                             ; preds = %bb8, %bb10
  %8 = bitcast { i64, i64 }* %self to i64*, !dbg !1548
  %_18 = load i64, i64* %8, align 8, !dbg !1548, !range !936, !noundef !19
  switch i64 %_18, label %bb13 [
    i64 0, label %bb14
    i64 1, label %bb12
  ], !dbg !1548

bb13:                                             ; preds = %bb11
  unreachable, !dbg !1548

bb14:                                             ; preds = %bb11
  %9 = getelementptr inbounds { i64, i64 }, { i64, i64 }* %self, i32 0, i32 1, !dbg !1548
  %v4 = load i64, i64* %9, align 8, !dbg !1548
  store i64 %v4, i64* %v.dbg.spill5, align 8, !dbg !1548
  call void @llvm.dbg.declare(metadata i64* %v.dbg.spill5, metadata !1542, metadata !DIExpression()), !dbg !1572
  %10 = getelementptr inbounds { i64, i64 }, { i64, i64 }* %_3, i32 0, i32 1, !dbg !1572
  store i64 %v4, i64* %10, align 8, !dbg !1572
  %11 = bitcast { i64, i64 }* %_3 to i64*, !dbg !1572
  store i64 0, i64* %11, align 8, !dbg !1572
  br label %bb2, !dbg !1548

bb12:                                             ; preds = %bb11
  %12 = bitcast { i64, i64 }* %_3 to i64*, !dbg !1569
  store i64 1, i64* %12, align 8, !dbg !1569
  br label %bb2, !dbg !1548

bb2:                                              ; preds = %bb14, %bb12
  %13 = bitcast { i64, i64 }* %_3 to i64*, !dbg !1549
  %_9 = load i64, i64* %13, align 8, !dbg !1549, !range !936, !noundef !19
  switch i64 %_9, label %bb4 [
    i64 0, label %bb3
    i64 1, label %bb5
  ], !dbg !1549

bb4:                                              ; preds = %bb2
  unreachable, !dbg !1549

bb3:                                              ; preds = %bb2
  %14 = getelementptr inbounds { i64, i64 }, { i64, i64 }* %_3, i32 0, i32 1, !dbg !1549
  %val = load i64, i64* %14, align 8, !dbg !1549
  store i64 %val, i64* %val.dbg.spill, align 8, !dbg !1549
  call void @llvm.dbg.declare(metadata i64* %val.dbg.spill, metadata !1535, metadata !DIExpression()), !dbg !1573
  store i64 %val, i64* %array_size.dbg.spill, align 8, !dbg !1573
  call void @llvm.dbg.declare(metadata i64* %array_size.dbg.spill, metadata !1531, metadata !DIExpression()), !dbg !1574
  store i64 8, i64* %align.dbg.spill, align 8, !dbg !1575
  call void @llvm.dbg.declare(metadata i64* %align.dbg.spill, metadata !1581, metadata !DIExpression()), !dbg !1588
  store i64 8, i64* %0, align 8, !dbg !1588
  %_14 = load i64, i64* %0, align 8, !dbg !1588, !range !1308, !noundef !19
  br label %bb15, !dbg !1588

bb5:                                              ; preds = %bb2
; call <T as core::convert::From<T>>::from
  call void @"_ZN50_$LT$T$u20$as$u20$core..convert..From$LT$T$GT$$GT$4from17h53d72257060e3473E"(), !dbg !1570
  br label %bb16, !dbg !1570

bb16:                                             ; preds = %bb5
  %15 = getelementptr inbounds { i64, i64 }, { i64, i64 }* %1, i32 0, i32 1, !dbg !1570
  store i64 0, i64* %15, align 8, !dbg !1570
  br label %bb7, !dbg !1590

bb7:                                              ; preds = %bb6, %bb16
  %16 = getelementptr inbounds { i64, i64 }, { i64, i64 }* %1, i32 0, i32 0, !dbg !1590
  %17 = load i64, i64* %16, align 8, !dbg !1590
  %18 = getelementptr inbounds { i64, i64 }, { i64, i64 }* %1, i32 0, i32 1, !dbg !1590
  %19 = load i64, i64* %18, align 8, !dbg !1590, !range !649, !noundef !19
  %20 = insertvalue { i64, i64 } undef, i64 %17, 0, !dbg !1590
  %21 = insertvalue { i64, i64 } %20, i64 %19, 1, !dbg !1590
  ret { i64, i64 } %21, !dbg !1590

bb15:                                             ; preds = %bb3
; call core::alloc::layout::Layout::from_size_valid_align
  %22 = call { i64, i64 } @_ZN4core5alloc6layout6Layout21from_size_valid_align17h9cc74eb999b1e403E(i64 %val, i64 %_14), !dbg !1591
  store { i64, i64 } %22, { i64, i64 }* %1, align 8, !dbg !1591
  br label %bb6, !dbg !1591

bb6:                                              ; preds = %bb15
  br label %bb7, !dbg !1590
}

; core::array::<impl core::ops::index::Index<I> for [T; N]>::index
; Function Attrs: inlinehint nonlazybind uwtable
define { [0 x i8]*, i64 } @"_ZN4core5array85_$LT$impl$u20$core..ops..index..Index$LT$I$GT$$u20$for$u20$$u5b$T$u3b$$u20$N$u5d$$GT$5index17h5274fd43326ea4feE"([2 x i8]* align 1 %self, %"core::panic::location::Location"* align 8 %0) unnamed_addr #0 !dbg !1592 {
start:
  %index.dbg.spill = alloca %"core::ops::range::RangeFull", align 1
  %self.dbg.spill = alloca [2 x i8]*, align 8
  store [2 x i8]* %self, [2 x i8]** %self.dbg.spill, align 8
  call void @llvm.dbg.declare(metadata [2 x i8]** %self.dbg.spill, metadata !1604, metadata !DIExpression()), !dbg !1608
  call void @llvm.dbg.declare(metadata %"core::ops::range::RangeFull"* %index.dbg.spill, metadata !1605, metadata !DIExpression()), !dbg !1609
  %_4.0 = bitcast [2 x i8]* %self to [0 x i8]*, !dbg !1610
; call core::slice::index::<impl core::ops::index::Index<I> for [T]>::index
  %1 = call { [0 x i8]*, i64 } @"_ZN4core5slice5index74_$LT$impl$u20$core..ops..index..Index$LT$I$GT$$u20$for$u20$$u5b$T$u5d$$GT$5index17h5d7184cc4ed0a15fE"([0 x i8]* align 1 %_4.0, i64 2, %"core::panic::location::Location"* align 8 %0), !dbg !1611
  %2 = extractvalue { [0 x i8]*, i64 } %1, 0, !dbg !1611
  %3 = extractvalue { [0 x i8]*, i64 } %1, 1, !dbg !1611
  br label %bb1, !dbg !1611

bb1:                                              ; preds = %start
  %4 = insertvalue { [0 x i8]*, i64 } undef, [0 x i8]* %2, 0, !dbg !1612
  %5 = insertvalue { [0 x i8]*, i64 } %4, i64 %3, 1, !dbg !1612
  ret { [0 x i8]*, i64 } %5, !dbg !1612
}

; core::slice::<impl [T]>::split_at_unchecked
; Function Attrs: inlinehint nonlazybind uwtable
define void @"_ZN4core5slice29_$LT$impl$u20$$u5b$T$u5d$$GT$18split_at_unchecked17h5a8b7e7a010699f3E"({ { [0 x i8]*, i64 }, { [0 x i8]*, i64 } }* sret({ { [0 x i8]*, i64 }, { [0 x i8]*, i64 } }) %0, [0 x i8]* align 1 %self.0, i64 %self.1, i64 %mid) unnamed_addr #0 !dbg !1613 {
start:
  %ptr.dbg.spill = alloca { [0 x i8]*, i64 }, align 8
  %self.dbg.spill8 = alloca { [0 x i8]*, i64 }, align 8
  %slice.dbg.spill7 = alloca { [0 x i8]*, i64 }, align 8
  %self.dbg.spill6 = alloca i64, align 8
  %self.dbg.spill4 = alloca { [0 x i8]*, i64 }, align 8
  %slice.dbg.spill = alloca { [0 x i8]*, i64 }, align 8
  %self.dbg.spill3 = alloca i64, align 8
  %self.dbg.spill2 = alloca { [0 x i8]*, i64 }, align 8
  %mid.dbg.spill = alloca i64, align 8
  %self.dbg.spill = alloca { [0 x i8]*, i64 }, align 8
  %_28 = alloca %"core::ptr::metadata::PtrRepr<[u8]>", align 8
  %_22 = alloca { i64, i64 }, align 8
  %_16 = alloca { i64, i64 }, align 8
  %index1 = alloca i64, align 8
  %index = alloca i64, align 8
  %1 = getelementptr inbounds { [0 x i8]*, i64 }, { [0 x i8]*, i64 }* %self.dbg.spill, i32 0, i32 0
  store [0 x i8]* %self.0, [0 x i8]** %1, align 8
  %2 = getelementptr inbounds { [0 x i8]*, i64 }, { [0 x i8]*, i64 }* %self.dbg.spill, i32 0, i32 1
  store i64 %self.1, i64* %2, align 8
  call void @llvm.dbg.declare(metadata { [0 x i8]*, i64 }* %self.dbg.spill, metadata !1623, metadata !DIExpression()), !dbg !1625
  store i64 %mid, i64* %mid.dbg.spill, align 8
  call void @llvm.dbg.declare(metadata i64* %mid.dbg.spill, metadata !1624, metadata !DIExpression()), !dbg !1626
  call void @llvm.dbg.declare(metadata i64* %index, metadata !1627, metadata !DIExpression()), !dbg !1638
  call void @llvm.dbg.declare(metadata i64* %index1, metadata !1640, metadata !DIExpression()), !dbg !1651
  %3 = getelementptr inbounds { [0 x i8]*, i64 }, { [0 x i8]*, i64 }* %self.dbg.spill2, i32 0, i32 0, !dbg !1639
  store [0 x i8]* %self.0, [0 x i8]** %3, align 8, !dbg !1639
  %4 = getelementptr inbounds { [0 x i8]*, i64 }, { [0 x i8]*, i64 }* %self.dbg.spill2, i32 0, i32 1, !dbg !1639
  store i64 %self.1, i64* %4, align 8, !dbg !1639
  call void @llvm.dbg.declare(metadata { [0 x i8]*, i64 }* %self.dbg.spill2, metadata !1635, metadata !DIExpression()), !dbg !1638
  store i64 %mid, i64* %index, align 8, !dbg !1653
  %self = load i64, i64* %index, align 8, !dbg !1638
  store i64 %self, i64* %self.dbg.spill3, align 8, !dbg !1638
  call void @llvm.dbg.declare(metadata i64* %self.dbg.spill3, metadata !1654, metadata !DIExpression()), !dbg !1662
  %5 = getelementptr inbounds { [0 x i8]*, i64 }, { [0 x i8]*, i64 }* %slice.dbg.spill, i32 0, i32 0, !dbg !1638
  store [0 x i8]* %self.0, [0 x i8]** %5, align 8, !dbg !1638
  %6 = getelementptr inbounds { [0 x i8]*, i64 }, { [0 x i8]*, i64 }* %slice.dbg.spill, i32 0, i32 1, !dbg !1638
  store i64 %self.1, i64* %6, align 8, !dbg !1638
  call void @llvm.dbg.declare(metadata { [0 x i8]*, i64 }* %slice.dbg.spill, metadata !1661, metadata !DIExpression()), !dbg !1662
  %7 = bitcast { i64, i64 }* %_16 to i64*, !dbg !1662
  store i64 0, i64* %7, align 8, !dbg !1662
  %8 = getelementptr inbounds { i64, i64 }, { i64, i64 }* %_16, i32 0, i32 1, !dbg !1662
  store i64 %self, i64* %8, align 8, !dbg !1662
  %9 = getelementptr inbounds { i64, i64 }, { i64, i64 }* %_16, i32 0, i32 0, !dbg !1662
  %10 = load i64, i64* %9, align 8, !dbg !1662
  %11 = getelementptr inbounds { i64, i64 }, { i64, i64 }* %_16, i32 0, i32 1, !dbg !1662
  %12 = load i64, i64* %11, align 8, !dbg !1662
; call <core::ops::range::Range<usize> as core::slice::index::SliceIndex<[T]>>::get_unchecked
  %13 = call { [0 x i8]*, i64 } @"_ZN106_$LT$core..ops..range..Range$LT$usize$GT$$u20$as$u20$core..slice..index..SliceIndex$LT$$u5b$T$u5d$$GT$$GT$13get_unchecked17h5a19eb2355e32f18E"(i64 %10, i64 %12, [0 x i8]* %self.0, i64 %self.1), !dbg !1662
  %_13.0 = extractvalue { [0 x i8]*, i64 } %13, 0, !dbg !1662
  %_13.1 = extractvalue { [0 x i8]*, i64 } %13, 1, !dbg !1662
  br label %bb1, !dbg !1662

bb1:                                              ; preds = %start
  %14 = getelementptr inbounds { [0 x i8]*, i64 }, { [0 x i8]*, i64 }* %self.dbg.spill4, i32 0, i32 0, !dbg !1652
  store [0 x i8]* %self.0, [0 x i8]** %14, align 8, !dbg !1652
  %15 = getelementptr inbounds { [0 x i8]*, i64 }, { [0 x i8]*, i64 }* %self.dbg.spill4, i32 0, i32 1, !dbg !1652
  store i64 %self.1, i64* %15, align 8, !dbg !1652
  call void @llvm.dbg.declare(metadata { [0 x i8]*, i64 }* %self.dbg.spill4, metadata !1648, metadata !DIExpression()), !dbg !1651
  store i64 %mid, i64* %index1, align 8, !dbg !1664
  %self5 = load i64, i64* %index1, align 8, !dbg !1651
  store i64 %self5, i64* %self.dbg.spill6, align 8, !dbg !1651
  call void @llvm.dbg.declare(metadata i64* %self.dbg.spill6, metadata !1665, metadata !DIExpression()), !dbg !1673
  %16 = getelementptr inbounds { [0 x i8]*, i64 }, { [0 x i8]*, i64 }* %slice.dbg.spill7, i32 0, i32 0, !dbg !1651
  store [0 x i8]* %self.0, [0 x i8]** %16, align 8, !dbg !1651
  %17 = getelementptr inbounds { [0 x i8]*, i64 }, { [0 x i8]*, i64 }* %slice.dbg.spill7, i32 0, i32 1, !dbg !1651
  store i64 %self.1, i64* %17, align 8, !dbg !1651
  call void @llvm.dbg.declare(metadata { [0 x i8]*, i64 }* %slice.dbg.spill7, metadata !1672, metadata !DIExpression()), !dbg !1673
  %18 = getelementptr inbounds { [0 x i8]*, i64 }, { [0 x i8]*, i64 }* %self.dbg.spill8, i32 0, i32 0, !dbg !1673
  store [0 x i8]* %self.0, [0 x i8]** %18, align 8, !dbg !1673
  %19 = getelementptr inbounds { [0 x i8]*, i64 }, { [0 x i8]*, i64 }* %self.dbg.spill8, i32 0, i32 1, !dbg !1673
  store i64 %self.1, i64* %19, align 8, !dbg !1673
  call void @llvm.dbg.declare(metadata { [0 x i8]*, i64 }* %self.dbg.spill8, metadata !1675, metadata !DIExpression()), !dbg !1681
  %20 = getelementptr inbounds { [0 x i8]*, i64 }, { [0 x i8]*, i64 }* %ptr.dbg.spill, i32 0, i32 0, !dbg !1681
  store [0 x i8]* %self.0, [0 x i8]** %20, align 8, !dbg !1681
  %21 = getelementptr inbounds { [0 x i8]*, i64 }, { [0 x i8]*, i64 }* %ptr.dbg.spill, i32 0, i32 1, !dbg !1681
  store i64 %self.1, i64* %21, align 8, !dbg !1681
  call void @llvm.dbg.declare(metadata { [0 x i8]*, i64 }* %ptr.dbg.spill, metadata !1683, metadata !DIExpression()), !dbg !1687
  %22 = bitcast %"core::ptr::metadata::PtrRepr<[u8]>"* %_28 to { [0 x i8]*, i64 }*, !dbg !1687
  %23 = getelementptr inbounds { [0 x i8]*, i64 }, { [0 x i8]*, i64 }* %22, i32 0, i32 0, !dbg !1687
  store [0 x i8]* %self.0, [0 x i8]** %23, align 8, !dbg !1687
  %24 = getelementptr inbounds { [0 x i8]*, i64 }, { [0 x i8]*, i64 }* %22, i32 0, i32 1, !dbg !1687
  store i64 %self.1, i64* %24, align 8, !dbg !1687
  %25 = bitcast %"core::ptr::metadata::PtrRepr<[u8]>"* %_28 to { i8*, i64 }*, !dbg !1687
  %26 = getelementptr inbounds { i8*, i64 }, { i8*, i64 }* %25, i32 0, i32 1, !dbg !1687
  %_24 = load i64, i64* %26, align 8, !dbg !1687
  %27 = bitcast { i64, i64 }* %_22 to i64*, !dbg !1673
  store i64 %self5, i64* %27, align 8, !dbg !1673
  %28 = getelementptr inbounds { i64, i64 }, { i64, i64 }* %_22, i32 0, i32 1, !dbg !1673
  store i64 %_24, i64* %28, align 8, !dbg !1673
  %29 = getelementptr inbounds { i64, i64 }, { i64, i64 }* %_22, i32 0, i32 0, !dbg !1673
  %30 = load i64, i64* %29, align 8, !dbg !1673
  %31 = getelementptr inbounds { i64, i64 }, { i64, i64 }* %_22, i32 0, i32 1, !dbg !1673
  %32 = load i64, i64* %31, align 8, !dbg !1673
; call <core::ops::range::Range<usize> as core::slice::index::SliceIndex<[T]>>::get_unchecked
  %33 = call { [0 x i8]*, i64 } @"_ZN106_$LT$core..ops..range..Range$LT$usize$GT$$u20$as$u20$core..slice..index..SliceIndex$LT$$u5b$T$u5d$$GT$$GT$13get_unchecked17h5a19eb2355e32f18E"(i64 %30, i64 %32, [0 x i8]* %self.0, i64 %self.1), !dbg !1673
  %_19.0 = extractvalue { [0 x i8]*, i64 } %33, 0, !dbg !1673
  %_19.1 = extractvalue { [0 x i8]*, i64 } %33, 1, !dbg !1673
  br label %bb2, !dbg !1673

bb2:                                              ; preds = %bb1
  %34 = bitcast { { [0 x i8]*, i64 }, { [0 x i8]*, i64 } }* %0 to { [0 x i8]*, i64 }*, !dbg !1689
  %35 = getelementptr inbounds { [0 x i8]*, i64 }, { [0 x i8]*, i64 }* %34, i32 0, i32 0, !dbg !1689
  store [0 x i8]* %_13.0, [0 x i8]** %35, align 8, !dbg !1689
  %36 = getelementptr inbounds { [0 x i8]*, i64 }, { [0 x i8]*, i64 }* %34, i32 0, i32 1, !dbg !1689
  store i64 %_13.1, i64* %36, align 8, !dbg !1689
  %37 = getelementptr inbounds { { [0 x i8]*, i64 }, { [0 x i8]*, i64 } }, { { [0 x i8]*, i64 }, { [0 x i8]*, i64 } }* %0, i32 0, i32 1, !dbg !1689
  %38 = getelementptr inbounds { [0 x i8]*, i64 }, { [0 x i8]*, i64 }* %37, i32 0, i32 0, !dbg !1689
  store [0 x i8]* %_19.0, [0 x i8]** %38, align 8, !dbg !1689
  %39 = getelementptr inbounds { [0 x i8]*, i64 }, { [0 x i8]*, i64 }* %37, i32 0, i32 1, !dbg !1689
  store i64 %_19.1, i64* %39, align 8, !dbg !1689
  ret void, !dbg !1690
}

; core::slice::<impl [T]>::len
; Function Attrs: inlinehint nonlazybind uwtable
define i64 @"_ZN4core5slice29_$LT$impl$u20$$u5b$T$u5d$$GT$3len17h9d58ef0a71d56975E"([0 x i8]* align 1 %self.0, i64 %self.1) unnamed_addr #0 !dbg !1691 {
start:
  %self.dbg.spill = alloca { [0 x i8]*, i64 }, align 8
  %_2 = alloca %"core::ptr::metadata::PtrRepr<[u8]>", align 8
  %0 = getelementptr inbounds { [0 x i8]*, i64 }, { [0 x i8]*, i64 }* %self.dbg.spill, i32 0, i32 0
  store [0 x i8]* %self.0, [0 x i8]** %0, align 8
  %1 = getelementptr inbounds { [0 x i8]*, i64 }, { [0 x i8]*, i64 }* %self.dbg.spill, i32 0, i32 1
  store i64 %self.1, i64* %1, align 8
  call void @llvm.dbg.declare(metadata { [0 x i8]*, i64 }* %self.dbg.spill, metadata !1695, metadata !DIExpression()), !dbg !1696
  %2 = bitcast %"core::ptr::metadata::PtrRepr<[u8]>"* %_2 to { [0 x i8]*, i64 }*, !dbg !1697
  %3 = getelementptr inbounds { [0 x i8]*, i64 }, { [0 x i8]*, i64 }* %2, i32 0, i32 0, !dbg !1697
  store [0 x i8]* %self.0, [0 x i8]** %3, align 8, !dbg !1697
  %4 = getelementptr inbounds { [0 x i8]*, i64 }, { [0 x i8]*, i64 }* %2, i32 0, i32 1, !dbg !1697
  store i64 %self.1, i64* %4, align 8, !dbg !1697
  %5 = bitcast %"core::ptr::metadata::PtrRepr<[u8]>"* %_2 to { i8*, i64 }*, !dbg !1697
  %6 = getelementptr inbounds { i8*, i64 }, { i8*, i64 }* %5, i32 0, i32 1, !dbg !1697
  %7 = load i64, i64* %6, align 8, !dbg !1697
  ret i64 %7, !dbg !1698
}

; core::slice::<impl [T]>::iter
; Function Attrs: inlinehint nonlazybind uwtable
define { i8*, i8* } @"_ZN4core5slice29_$LT$impl$u20$$u5b$T$u5d$$GT$4iter17h4aacd776e8fe9725E"([0 x i8]* align 1 %self.0, i64 %self.1) unnamed_addr #0 !dbg !1699 {
start:
  %self.dbg.spill = alloca { [0 x i8]*, i64 }, align 8
  %0 = getelementptr inbounds { [0 x i8]*, i64 }, { [0 x i8]*, i64 }* %self.dbg.spill, i32 0, i32 0
  store [0 x i8]* %self.0, [0 x i8]** %0, align 8
  %1 = getelementptr inbounds { [0 x i8]*, i64 }, { [0 x i8]*, i64 }* %self.dbg.spill, i32 0, i32 1
  store i64 %self.1, i64* %1, align 8
  call void @llvm.dbg.declare(metadata { [0 x i8]*, i64 }* %self.dbg.spill, metadata !1703, metadata !DIExpression()), !dbg !1704
; call core::slice::iter::Iter<T>::new
  %2 = call { i8*, i8* } @"_ZN4core5slice4iter13Iter$LT$T$GT$3new17haeedc00e2d6d278cE"([0 x i8]* align 1 %self.0, i64 %self.1), !dbg !1705
  %3 = extractvalue { i8*, i8* } %2, 0, !dbg !1705
  %4 = extractvalue { i8*, i8* } %2, 1, !dbg !1705
  br label %bb1, !dbg !1705

bb1:                                              ; preds = %start
  %5 = insertvalue { i8*, i8* } undef, i8* %3, 0, !dbg !1706
  %6 = insertvalue { i8*, i8* } %5, i8* %4, 1, !dbg !1706
  ret { i8*, i8* } %6, !dbg !1706
}

; core::slice::<impl [T]>::is_empty
; Function Attrs: inlinehint nonlazybind uwtable
define zeroext i1 @"_ZN4core5slice29_$LT$impl$u20$$u5b$T$u5d$$GT$8is_empty17hdfd8f1d2de4b48ecE"([0 x i8]* align 1 %self.0, i64 %self.1) unnamed_addr #0 !dbg !1707 {
start:
  %self.dbg.spill = alloca { [0 x i8]*, i64 }, align 8
  %0 = getelementptr inbounds { [0 x i8]*, i64 }, { [0 x i8]*, i64 }* %self.dbg.spill, i32 0, i32 0
  store [0 x i8]* %self.0, [0 x i8]** %0, align 8
  %1 = getelementptr inbounds { [0 x i8]*, i64 }, { [0 x i8]*, i64 }* %self.dbg.spill, i32 0, i32 1
  store i64 %self.1, i64* %1, align 8
  call void @llvm.dbg.declare(metadata { [0 x i8]*, i64 }* %self.dbg.spill, metadata !1711, metadata !DIExpression()), !dbg !1712
  %2 = icmp eq i64 %self.1, 0, !dbg !1713
  ret i1 %2, !dbg !1714
}

; core::slice::<impl [T]>::split_at
; Function Attrs: inlinehint nonlazybind uwtable
define void @"_ZN4core5slice29_$LT$impl$u20$$u5b$T$u5d$$GT$8split_at17h6a8dc46ce288b406E"({ { [0 x i8]*, i64 }, { [0 x i8]*, i64 } }* sret({ { [0 x i8]*, i64 }, { [0 x i8]*, i64 } }) %0, [0 x i8]* align 1 %self.0, i64 %self.1, i64 %mid, %"core::panic::location::Location"* align 8 %1) unnamed_addr #0 !dbg !1715 {
start:
  %mid.dbg.spill = alloca i64, align 8
  %self.dbg.spill = alloca { [0 x i8]*, i64 }, align 8
  %2 = getelementptr inbounds { [0 x i8]*, i64 }, { [0 x i8]*, i64 }* %self.dbg.spill, i32 0, i32 0
  store [0 x i8]* %self.0, [0 x i8]** %2, align 8
  %3 = getelementptr inbounds { [0 x i8]*, i64 }, { [0 x i8]*, i64 }* %self.dbg.spill, i32 0, i32 1
  store i64 %self.1, i64* %3, align 8
  call void @llvm.dbg.declare(metadata { [0 x i8]*, i64 }* %self.dbg.spill, metadata !1719, metadata !DIExpression()), !dbg !1721
  store i64 %mid, i64* %mid.dbg.spill, align 8
  call void @llvm.dbg.declare(metadata i64* %mid.dbg.spill, metadata !1720, metadata !DIExpression()), !dbg !1722
  %_4 = icmp ule i64 %mid, %self.1, !dbg !1723
  %_3 = xor i1 %_4, true, !dbg !1724
  br i1 %_3, label %bb1, label %bb2, !dbg !1724

bb2:                                              ; preds = %start
; call core::slice::<impl [T]>::split_at_unchecked
  call void @"_ZN4core5slice29_$LT$impl$u20$$u5b$T$u5d$$GT$18split_at_unchecked17h5a8b7e7a010699f3E"({ { [0 x i8]*, i64 }, { [0 x i8]*, i64 } }* sret({ { [0 x i8]*, i64 }, { [0 x i8]*, i64 } }) %0, [0 x i8]* align 1 %self.0, i64 %self.1, i64 %mid), !dbg !1725
  br label %bb3, !dbg !1725

bb1:                                              ; preds = %start
; call core::panicking::panic
  call void @_ZN4core9panicking5panic17hf5844c0338bd061cE([0 x i8]* align 1 bitcast (<{ [35 x i8] }>* @alloc338 to [0 x i8]*), i64 35, %"core::panic::location::Location"* align 8 %1) #16, !dbg !1724
  unreachable, !dbg !1724

bb3:                                              ; preds = %bb2
  ret void, !dbg !1726
}

; core::slice::iter::Iter<T>::new
; Function Attrs: inlinehint nonlazybind uwtable
define { i8*, i8* } @"_ZN4core5slice4iter13Iter$LT$T$GT$3new17haeedc00e2d6d278cE"([0 x i8]* align 1 %slice.0, i64 %slice.1) unnamed_addr #0 !dbg !1727 {
start:
  %ptr.dbg.spill10 = alloca i8*, align 8
  %0 = alloca i8*, align 8
  %count.dbg.spill9 = alloca i64, align 8
  %self.dbg.spill8 = alloca i8*, align 8
  %count.dbg.spill7 = alloca i64, align 8
  %self.dbg.spill6 = alloca i8*, align 8
  %count.dbg.spill5 = alloca i64, align 8
  %self.dbg.spill4 = alloca i8*, align 8
  %count.dbg.spill = alloca i64, align 8
  %self.dbg.spill3 = alloca i8*, align 8
  %1 = alloca i8, align 1
  %other.dbg.spill = alloca i8*, align 8
  %data_address.dbg.spill = alloca {}*, align 8
  %2 = alloca {}*, align 8
  %self.dbg.spill2 = alloca i8*, align 8
  %self.dbg.spill1 = alloca i8*, align 8
  %ptr.dbg.spill = alloca i8*, align 8
  %self.dbg.spill = alloca { [0 x i8]*, i64 }, align 8
  %metadata.dbg.spill = alloca {}, align 1
  %slice.dbg.spill = alloca { [0 x i8]*, i64 }, align 8
  %_31 = alloca %"core::ptr::metadata::PtrComponents<u8>", align 8
  %_30 = alloca %"core::ptr::metadata::PtrRepr<u8>", align 8
  %_18 = alloca i8*, align 8
  %end = alloca i8*, align 8
  %3 = alloca { i8*, i8* }, align 8
  %4 = getelementptr inbounds { [0 x i8]*, i64 }, { [0 x i8]*, i64 }* %slice.dbg.spill, i32 0, i32 0
  store [0 x i8]* %slice.0, [0 x i8]** %4, align 8
  %5 = getelementptr inbounds { [0 x i8]*, i64 }, { [0 x i8]*, i64 }* %slice.dbg.spill, i32 0, i32 1
  store i64 %slice.1, i64* %5, align 8
  call void @llvm.dbg.declare(metadata { [0 x i8]*, i64 }* %slice.dbg.spill, metadata !1730, metadata !DIExpression()), !dbg !1735
  call void @llvm.dbg.declare(metadata i8** %end, metadata !1733, metadata !DIExpression()), !dbg !1736
  call void @llvm.dbg.declare(metadata {}* %metadata.dbg.spill, metadata !1737, metadata !DIExpression()), !dbg !1744
  %6 = getelementptr inbounds { [0 x i8]*, i64 }, { [0 x i8]*, i64 }* %self.dbg.spill, i32 0, i32 0, !dbg !1757
  store [0 x i8]* %slice.0, [0 x i8]** %6, align 8, !dbg !1757
  %7 = getelementptr inbounds { [0 x i8]*, i64 }, { [0 x i8]*, i64 }* %self.dbg.spill, i32 0, i32 1, !dbg !1757
  store i64 %slice.1, i64* %7, align 8, !dbg !1757
  call void @llvm.dbg.declare(metadata { [0 x i8]*, i64 }* %self.dbg.spill, metadata !1758, metadata !DIExpression()), !dbg !1764
  %ptr = bitcast [0 x i8]* %slice.0 to i8*, !dbg !1764
  store i8* %ptr, i8** %ptr.dbg.spill, align 8, !dbg !1764
  call void @llvm.dbg.declare(metadata i8** %ptr.dbg.spill, metadata !1731, metadata !DIExpression()), !dbg !1765
  store i8* %ptr, i8** %self.dbg.spill1, align 8, !dbg !1756
  call void @llvm.dbg.declare(metadata i8** %self.dbg.spill1, metadata !1754, metadata !DIExpression()), !dbg !1766
  store i8* %ptr, i8** %self.dbg.spill2, align 8, !dbg !1766
  call void @llvm.dbg.declare(metadata i8** %self.dbg.spill2, metadata !1767, metadata !DIExpression()), !dbg !1774
  %8 = bitcast {}** %2 to i64*, !dbg !1776
  store i64 0, i64* %8, align 8, !dbg !1776
  %data_address = load {}*, {}** %2, align 8, !dbg !1776
  store {}* %data_address, {}** %data_address.dbg.spill, align 8, !dbg !1776
  call void @llvm.dbg.declare(metadata {}** %data_address.dbg.spill, metadata !1743, metadata !DIExpression()), !dbg !1744
  br label %bb5, !dbg !1776

bb5:                                              ; preds = %start
  %9 = bitcast %"core::ptr::metadata::PtrComponents<u8>"* %_31 to {}**, !dbg !1744
  store {}* %data_address, {}** %9, align 8, !dbg !1744
  %10 = bitcast %"core::ptr::metadata::PtrRepr<u8>"* %_30 to %"core::ptr::metadata::PtrComponents<u8>"*, !dbg !1744
  %11 = bitcast %"core::ptr::metadata::PtrComponents<u8>"* %10 to i8*, !dbg !1744
  %12 = bitcast %"core::ptr::metadata::PtrComponents<u8>"* %_31 to i8*, !dbg !1744
  call void @llvm.memcpy.p0i8.p0i8.i64(i8* align 8 %11, i8* align 8 %12, i64 8, i1 false), !dbg !1744
  %13 = bitcast %"core::ptr::metadata::PtrRepr<u8>"* %_30 to i8**, !dbg !1744
  %other = load i8*, i8** %13, align 8, !dbg !1744
  store i8* %other, i8** %other.dbg.spill, align 8, !dbg !1744
  call void @llvm.dbg.declare(metadata i8** %other.dbg.spill, metadata !1773, metadata !DIExpression()), !dbg !1774
  %14 = icmp eq i8* %ptr, %other, !dbg !1774
  %15 = zext i1 %14 to i8, !dbg !1774
  store i8 %15, i8* %1, align 1, !dbg !1774
  %16 = load i8, i8* %1, align 1, !dbg !1774, !range !394, !noundef !19
  %_6 = trunc i8 %16 to i1, !dbg !1774
  br label %bb6, !dbg !1774

bb6:                                              ; preds = %bb5
  %_5 = xor i1 %_6, true, !dbg !1784
  call void @llvm.assume(i1 %_5), !dbg !1785
  br label %bb1, !dbg !1785

bb1:                                              ; preds = %bb6
  br i1 false, label %bb2, label %bb3, !dbg !1786

bb2:                                              ; preds = %bb1
  store i8* %ptr, i8** %self.dbg.spill6, align 8, !dbg !1787
  call void @llvm.dbg.declare(metadata i8** %self.dbg.spill6, metadata !1788, metadata !DIExpression()), !dbg !1793
  store i64 %slice.1, i64* %count.dbg.spill7, align 8, !dbg !1794
  call void @llvm.dbg.declare(metadata i64* %count.dbg.spill7, metadata !1792, metadata !DIExpression()), !dbg !1793
  store i8* %ptr, i8** %self.dbg.spill8, align 8, !dbg !1793
  call void @llvm.dbg.declare(metadata i8** %self.dbg.spill8, metadata !1795, metadata !DIExpression()), !dbg !1800
  store i64 %slice.1, i64* %count.dbg.spill9, align 8, !dbg !1793
  call void @llvm.dbg.declare(metadata i64* %count.dbg.spill9, metadata !1799, metadata !DIExpression()), !dbg !1800
  %17 = getelementptr i8, i8* %ptr, i64 %slice.1, !dbg !1800
  store i8* %17, i8** %0, align 8, !dbg !1800
  %_10 = load i8*, i8** %0, align 8, !dbg !1800
  br label %bb7, !dbg !1800

bb3:                                              ; preds = %bb1
  store i8* %ptr, i8** %self.dbg.spill3, align 8, !dbg !1802
  call void @llvm.dbg.declare(metadata i8** %self.dbg.spill3, metadata !1803, metadata !DIExpression()), !dbg !1808
  store i64 %slice.1, i64* %count.dbg.spill, align 8, !dbg !1809
  call void @llvm.dbg.declare(metadata i64* %count.dbg.spill, metadata !1807, metadata !DIExpression()), !dbg !1808
  store i8* %ptr, i8** %self.dbg.spill4, align 8, !dbg !1808
  call void @llvm.dbg.declare(metadata i8** %self.dbg.spill4, metadata !1810, metadata !DIExpression()), !dbg !1815
  store i64 %slice.1, i64* %count.dbg.spill5, align 8, !dbg !1808
  call void @llvm.dbg.declare(metadata i64* %count.dbg.spill5, metadata !1814, metadata !DIExpression()), !dbg !1815
  %18 = getelementptr inbounds i8, i8* %ptr, i64 %slice.1, !dbg !1815
  store i8* %18, i8** %end, align 8, !dbg !1815
  br label %bb8, !dbg !1815

bb8:                                              ; preds = %bb3
  br label %bb4, !dbg !1817

bb4:                                              ; preds = %bb7, %bb8
  store i8* %ptr, i8** %ptr.dbg.spill10, align 8, !dbg !1818
  call void @llvm.dbg.declare(metadata i8** %ptr.dbg.spill10, metadata !1819, metadata !DIExpression()), !dbg !1823
  store i8* %ptr, i8** %_18, align 8, !dbg !1823
  %_21 = load i8*, i8** %end, align 8, !dbg !1825
  %19 = bitcast { i8*, i8* }* %3 to i8**, !dbg !1826
  %20 = load i8*, i8** %_18, align 8, !dbg !1826, !nonnull !19, !noundef !19
  store i8* %20, i8** %19, align 8, !dbg !1826
  %21 = getelementptr inbounds { i8*, i8* }, { i8*, i8* }* %3, i32 0, i32 1, !dbg !1826
  store i8* %_21, i8** %21, align 8, !dbg !1826
  %22 = getelementptr inbounds { i8*, i8* }, { i8*, i8* }* %3, i32 0, i32 0, !dbg !1827
  %23 = load i8*, i8** %22, align 8, !dbg !1827, !nonnull !19, !noundef !19
  %24 = getelementptr inbounds { i8*, i8* }, { i8*, i8* }* %3, i32 0, i32 1, !dbg !1827
  %25 = load i8*, i8** %24, align 8, !dbg !1827
  %26 = insertvalue { i8*, i8* } undef, i8* %23, 0, !dbg !1827
  %27 = insertvalue { i8*, i8* } %26, i8* %25, 1, !dbg !1827
  ret { i8*, i8* } %27, !dbg !1827

bb7:                                              ; preds = %bb2
  store i8* %_10, i8** %end, align 8, !dbg !1787
  br label %bb4, !dbg !1817
}

; core::slice::iter::Iter<T>::as_slice
; Function Attrs: nonlazybind uwtable
define { [0 x i8]*, i64 } @"_ZN4core5slice4iter13Iter$LT$T$GT$8as_slice17hc742c99cd5f50b44E"({ i8*, i8* }* align 8 %self) unnamed_addr #1 !dbg !1828 {
start:
  %metadata.dbg.spill = alloca i64, align 8
  %data_address.dbg.spill = alloca {}*, align 8
  %self.dbg.spill17 = alloca i8*, align 8
  %len.dbg.spill = alloca i64, align 8
  %data.dbg.spill15 = alloca i8*, align 8
  %rhs.dbg.spill = alloca i64, align 8
  %0 = alloca i64, align 8
  %self.dbg.spill14 = alloca i8*, align 8
  %self.dbg.spill13 = alloca i8*, align 8
  %self.dbg.spill12 = alloca i64, align 8
  %1 = alloca i64, align 8
  %self.dbg.spill10 = alloca i8*, align 8
  %diff.dbg.spill = alloca i64, align 8
  %2 = alloca i64, align 8
  %3 = alloca i64, align 8
  %self.dbg.spill8 = alloca i8*, align 8
  %self.dbg.spill7 = alloca i8*, align 8
  %4 = alloca i64, align 8
  %self.dbg.spill6 = alloca i8*, align 8
  %size.dbg.spill = alloca i64, align 8
  %start.dbg.spill = alloca i8*, align 8
  %data.dbg.spill = alloca i8*, align 8
  %self.dbg.spill3 = alloca i8*, align 8
  %self.dbg.spill1 = alloca { i8*, i8* }*, align 8
  %self.dbg.spill = alloca { i8*, i8* }*, align 8
  %_42 = alloca { i8*, i64 }, align 8
  %_41 = alloca %"core::ptr::metadata::PtrRepr<[u8]>", align 8
  %len = alloca i64, align 8
  store { i8*, i8* }* %self, { i8*, i8* }** %self.dbg.spill, align 8
  call void @llvm.dbg.declare(metadata { i8*, i8* }** %self.dbg.spill, metadata !1833, metadata !DIExpression()), !dbg !1834
  call void @llvm.dbg.declare(metadata i64* %len, metadata !1835, metadata !DIExpression()), !dbg !1853
  store { i8*, i8* }* %self, { i8*, i8* }** %self.dbg.spill1, align 8, !dbg !1869
  call void @llvm.dbg.declare(metadata { i8*, i8* }** %self.dbg.spill1, metadata !1858, metadata !DIExpression()), !dbg !1870
  %5 = bitcast { i8*, i8* }* %self to i8**, !dbg !1870
  %self2 = load i8*, i8** %5, align 8, !dbg !1870, !nonnull !19, !noundef !19
  store i8* %self2, i8** %self.dbg.spill3, align 8, !dbg !1870
  call void @llvm.dbg.declare(metadata i8** %self.dbg.spill3, metadata !1871, metadata !DIExpression()), !dbg !1875
  store i8* %self2, i8** %data.dbg.spill, align 8, !dbg !1870
  call void @llvm.dbg.declare(metadata i8** %data.dbg.spill, metadata !1843, metadata !DIExpression()), !dbg !1853
  %6 = bitcast { i8*, i8* }* %self to i8**, !dbg !1870
  %start4 = load i8*, i8** %6, align 8, !dbg !1870, !nonnull !19, !noundef !19
  store i8* %start4, i8** %start.dbg.spill, align 8, !dbg !1870
  call void @llvm.dbg.declare(metadata i8** %start.dbg.spill, metadata !1860, metadata !DIExpression()), !dbg !1877
  store i64 1, i64* %size.dbg.spill, align 8, !dbg !1878
  call void @llvm.dbg.declare(metadata i64* %size.dbg.spill, metadata !1863, metadata !DIExpression()), !dbg !1886
  br i1 false, label %bb1, label %bb2, !dbg !1886

bb1:                                              ; preds = %start
  %7 = getelementptr inbounds { i8*, i8* }, { i8*, i8* }* %self, i32 0, i32 1, !dbg !1886
  %self9 = load i8*, i8** %7, align 8, !dbg !1886
  store i8* %self9, i8** %self.dbg.spill10, align 8, !dbg !1886
  call void @llvm.dbg.declare(metadata i8** %self.dbg.spill10, metadata !1887, metadata !DIExpression()), !dbg !1891
  %8 = bitcast i64* %1 to i8**, !dbg !1891
  store i8* %self9, i8** %8, align 8, !dbg !1891
  %self11 = load i64, i64* %1, align 8, !dbg !1891
  store i64 %self11, i64* %self.dbg.spill12, align 8, !dbg !1891
  call void @llvm.dbg.declare(metadata i64* %self.dbg.spill12, metadata !1893, metadata !DIExpression()), !dbg !1898
  br label %bb6, !dbg !1891

bb2:                                              ; preds = %start
  %9 = getelementptr inbounds { i8*, i8* }, { i8*, i8* }* %self, i32 0, i32 1, !dbg !1886
  %self5 = load i8*, i8** %9, align 8, !dbg !1886
  store i8* %self5, i8** %self.dbg.spill6, align 8, !dbg !1886
  call void @llvm.dbg.declare(metadata i8** %self.dbg.spill6, metadata !1899, metadata !DIExpression()), !dbg !1903
  %10 = bitcast i64* %4 to i8**, !dbg !1903
  store i8* %self5, i8** %10, align 8, !dbg !1903
  %_17 = load i64, i64* %4, align 8, !dbg !1903
  br label %bb8, !dbg !1903

bb8:                                              ; preds = %bb2
  store i8* %start4, i8** %self.dbg.spill7, align 8, !dbg !1886
  call void @llvm.dbg.declare(metadata i8** %self.dbg.spill7, metadata !1905, metadata !DIExpression()), !dbg !1909
  store i8* %start4, i8** %self.dbg.spill8, align 8, !dbg !1909
  call void @llvm.dbg.declare(metadata i8** %self.dbg.spill8, metadata !1911, metadata !DIExpression()), !dbg !1917
  %11 = bitcast i64* %3 to i8**, !dbg !1917
  store i8* %start4, i8** %11, align 8, !dbg !1917
  %_19 = load i64, i64* %3, align 8, !dbg !1917
  br label %bb9, !dbg !1917

bb9:                                              ; preds = %bb8
  %12 = sub nuw i64 %_17, %_19, !dbg !1886
  store i64 %12, i64* %2, align 8, !dbg !1886
  %diff = load i64, i64* %2, align 8, !dbg !1886
  store i64 %diff, i64* %diff.dbg.spill, align 8, !dbg !1886
  call void @llvm.dbg.declare(metadata i64* %diff.dbg.spill, metadata !1866, metadata !DIExpression()), !dbg !1918
  br label %bb3, !dbg !1886

bb3:                                              ; preds = %bb9
  %13 = udiv exact i64 %diff, 1, !dbg !1918
  store i64 %13, i64* %len, align 8, !dbg !1918
  br label %bb4, !dbg !1918

bb4:                                              ; preds = %bb3
  br label %bb5, !dbg !1886

bb5:                                              ; preds = %bb7, %bb4
  store i8* %self2, i8** %data.dbg.spill15, align 8, !dbg !1853
  call void @llvm.dbg.declare(metadata i8** %data.dbg.spill15, metadata !1919, metadata !DIExpression()), !dbg !1924
  %len16 = load i64, i64* %len, align 8, !dbg !1853
  store i64 %len16, i64* %len.dbg.spill, align 8, !dbg !1853
  call void @llvm.dbg.declare(metadata i64* %len.dbg.spill, metadata !1923, metadata !DIExpression()), !dbg !1924
  store i8* %self2, i8** %self.dbg.spill17, align 8, !dbg !1924
  call void @llvm.dbg.declare(metadata i8** %self.dbg.spill17, metadata !1926, metadata !DIExpression()), !dbg !1930
  %data_address = bitcast i8* %self2 to {}*, !dbg !1930
  store {}* %data_address, {}** %data_address.dbg.spill, align 8, !dbg !1930
  call void @llvm.dbg.declare(metadata {}** %data_address.dbg.spill, metadata !1932, metadata !DIExpression()), !dbg !1937
  store i64 %len16, i64* %metadata.dbg.spill, align 8, !dbg !1924
  call void @llvm.dbg.declare(metadata i64* %metadata.dbg.spill, metadata !1936, metadata !DIExpression()), !dbg !1937
  %14 = bitcast { i8*, i64 }* %_42 to {}**, !dbg !1937
  store {}* %data_address, {}** %14, align 8, !dbg !1937
  %15 = getelementptr inbounds { i8*, i64 }, { i8*, i64 }* %_42, i32 0, i32 1, !dbg !1937
  store i64 %len16, i64* %15, align 8, !dbg !1937
  %16 = bitcast %"core::ptr::metadata::PtrRepr<[u8]>"* %_41 to { i8*, i64 }*, !dbg !1937
  %17 = getelementptr inbounds { i8*, i64 }, { i8*, i64 }* %_42, i32 0, i32 0, !dbg !1937
  %18 = load i8*, i8** %17, align 8, !dbg !1937
  %19 = getelementptr inbounds { i8*, i64 }, { i8*, i64 }* %_42, i32 0, i32 1, !dbg !1937
  %20 = load i64, i64* %19, align 8, !dbg !1937
  %21 = getelementptr inbounds { i8*, i64 }, { i8*, i64 }* %16, i32 0, i32 0, !dbg !1937
  store i8* %18, i8** %21, align 8, !dbg !1937
  %22 = getelementptr inbounds { i8*, i64 }, { i8*, i64 }* %16, i32 0, i32 1, !dbg !1937
  store i64 %20, i64* %22, align 8, !dbg !1937
  %23 = bitcast %"core::ptr::metadata::PtrRepr<[u8]>"* %_41 to { [0 x i8]*, i64 }*, !dbg !1937
  %24 = getelementptr inbounds { [0 x i8]*, i64 }, { [0 x i8]*, i64 }* %23, i32 0, i32 0, !dbg !1937
  %_34.0 = load [0 x i8]*, [0 x i8]** %24, align 8, !dbg !1937
  %25 = getelementptr inbounds { [0 x i8]*, i64 }, { [0 x i8]*, i64 }* %23, i32 0, i32 1, !dbg !1937
  %_34.1 = load i64, i64* %25, align 8, !dbg !1937
  %26 = insertvalue { [0 x i8]*, i64 } undef, [0 x i8]* %_34.0, 0, !dbg !1939
  %27 = insertvalue { [0 x i8]*, i64 } %26, i64 %_34.1, 1, !dbg !1939
  ret { [0 x i8]*, i64 } %27, !dbg !1939

bb6:                                              ; preds = %bb1
  store i8* %start4, i8** %self.dbg.spill13, align 8, !dbg !1886
  call void @llvm.dbg.declare(metadata i8** %self.dbg.spill13, metadata !1940, metadata !DIExpression()), !dbg !1944
  store i8* %start4, i8** %self.dbg.spill14, align 8, !dbg !1944
  call void @llvm.dbg.declare(metadata i8** %self.dbg.spill14, metadata !1946, metadata !DIExpression()), !dbg !1950
  %28 = bitcast i64* %0 to i8**, !dbg !1950
  store i8* %start4, i8** %28, align 8, !dbg !1950
  %rhs = load i64, i64* %0, align 8, !dbg !1950
  store i64 %rhs, i64* %rhs.dbg.spill, align 8, !dbg !1950
  call void @llvm.dbg.declare(metadata i64* %rhs.dbg.spill, metadata !1897, metadata !DIExpression()), !dbg !1898
  br label %bb7, !dbg !1950

bb7:                                              ; preds = %bb6
  %29 = sub i64 %self11, %rhs, !dbg !1898
  store i64 %29, i64* %len, align 8, !dbg !1898
  br label %bb5, !dbg !1886
}

; core::slice::iter::<impl core::iter::traits::collect::IntoIterator for &[T]>::into_iter
; Function Attrs: nonlazybind uwtable
define { i8*, i8* } @"_ZN4core5slice4iter87_$LT$impl$u20$core..iter..traits..collect..IntoIterator$u20$for$u20$$RF$$u5b$T$u5d$$GT$9into_iter17h673ba194fd678fa9E"([0 x i8]* align 1 %self.0, i64 %self.1) unnamed_addr #1 !dbg !1951 {
start:
  %self.dbg.spill1 = alloca { [0 x i8]*, i64 }, align 8
  %self.dbg.spill = alloca { [0 x i8]*, i64 }, align 8
  %0 = getelementptr inbounds { [0 x i8]*, i64 }, { [0 x i8]*, i64 }* %self.dbg.spill, i32 0, i32 0
  store [0 x i8]* %self.0, [0 x i8]** %0, align 8
  %1 = getelementptr inbounds { [0 x i8]*, i64 }, { [0 x i8]*, i64 }* %self.dbg.spill, i32 0, i32 1
  store i64 %self.1, i64* %1, align 8
  call void @llvm.dbg.declare(metadata { [0 x i8]*, i64 }* %self.dbg.spill, metadata !1954, metadata !DIExpression()), !dbg !1955
  %2 = getelementptr inbounds { [0 x i8]*, i64 }, { [0 x i8]*, i64 }* %self.dbg.spill1, i32 0, i32 0, !dbg !1956
  store [0 x i8]* %self.0, [0 x i8]** %2, align 8, !dbg !1956
  %3 = getelementptr inbounds { [0 x i8]*, i64 }, { [0 x i8]*, i64 }* %self.dbg.spill1, i32 0, i32 1, !dbg !1956
  store i64 %self.1, i64* %3, align 8, !dbg !1956
  call void @llvm.dbg.declare(metadata { [0 x i8]*, i64 }* %self.dbg.spill1, metadata !1957, metadata !DIExpression()), !dbg !1961
; call core::slice::iter::Iter<T>::new
  %4 = call { i8*, i8* } @"_ZN4core5slice4iter13Iter$LT$T$GT$3new17haeedc00e2d6d278cE"([0 x i8]* align 1 %self.0, i64 %self.1), !dbg !1961
  %5 = extractvalue { i8*, i8* } %4, 0, !dbg !1961
  %6 = extractvalue { i8*, i8* } %4, 1, !dbg !1961
  br label %bb1, !dbg !1961

bb1:                                              ; preds = %start
  %7 = insertvalue { i8*, i8* } undef, i8* %5, 0, !dbg !1962
  %8 = insertvalue { i8*, i8* } %7, i8* %6, 1, !dbg !1962
  ret { i8*, i8* } %8, !dbg !1962
}

; core::slice::index::<impl core::ops::index::Index<I> for [T]>::index
; Function Attrs: inlinehint nonlazybind uwtable
define { [0 x i8]*, i64 } @"_ZN4core5slice5index74_$LT$impl$u20$core..ops..index..Index$LT$I$GT$$u20$for$u20$$u5b$T$u5d$$GT$5index17h5d7184cc4ed0a15fE"([0 x i8]* align 1 %self.0, i64 %self.1, %"core::panic::location::Location"* align 8 %0) unnamed_addr #0 !dbg !1963 {
start:
  %index.dbg.spill = alloca %"core::ops::range::RangeFull", align 1
  %self.dbg.spill = alloca { [0 x i8]*, i64 }, align 8
  %1 = getelementptr inbounds { [0 x i8]*, i64 }, { [0 x i8]*, i64 }* %self.dbg.spill, i32 0, i32 0
  store [0 x i8]* %self.0, [0 x i8]** %1, align 8
  %2 = getelementptr inbounds { [0 x i8]*, i64 }, { [0 x i8]*, i64 }* %self.dbg.spill, i32 0, i32 1
  store i64 %self.1, i64* %2, align 8
  call void @llvm.dbg.declare(metadata { [0 x i8]*, i64 }* %self.dbg.spill, metadata !1968, metadata !DIExpression()), !dbg !1970
  call void @llvm.dbg.declare(metadata %"core::ops::range::RangeFull"* %index.dbg.spill, metadata !1969, metadata !DIExpression()), !dbg !1971
; call <core::ops::range::RangeFull as core::slice::index::SliceIndex<[T]>>::index
  %3 = call { [0 x i8]*, i64 } @"_ZN97_$LT$core..ops..range..RangeFull$u20$as$u20$core..slice..index..SliceIndex$LT$$u5b$T$u5d$$GT$$GT$5index17hb10d86222b139743E"([0 x i8]* align 1 %self.0, i64 %self.1, %"core::panic::location::Location"* align 8 %0), !dbg !1972
  %4 = extractvalue { [0 x i8]*, i64 } %3, 0, !dbg !1972
  %5 = extractvalue { [0 x i8]*, i64 } %3, 1, !dbg !1972
  br label %bb1, !dbg !1972

bb1:                                              ; preds = %start
  %6 = insertvalue { [0 x i8]*, i64 } undef, [0 x i8]* %4, 0, !dbg !1973
  %7 = insertvalue { [0 x i8]*, i64 } %6, i64 %5, 1, !dbg !1973
  ret { [0 x i8]*, i64 } %7, !dbg !1973
}

; core::option::Option<T>::map
; Function Attrs: inlinehint nonlazybind uwtable
define void @"_ZN4core6option15Option$LT$T$GT$3map17h53bfbfe835d9c253E"(%"core::option::Option<alloc::string::String>"* sret(%"core::option::Option<alloc::string::String>") %0, %"core::option::Option<alloc::vec::Vec<u8>>"* %self) unnamed_addr #0 !dbg !1974 {
start:
  %f.dbg.spill = alloca %"[closure@/home/calvin/.cargo/registry/src/github.com-1ecc6299db9ec823/shlex-1.3.0/src/lib.rs:69:27: 69:38]", align 1
  %_9 = alloca i8, align 1
  %_8 = alloca %"alloc::vec::Vec<u8>", align 8
  %_7 = alloca { %"alloc::vec::Vec<u8>" }, align 8
  %_5 = alloca %"alloc::string::String", align 8
  %x = alloca %"alloc::vec::Vec<u8>", align 8
  call void @llvm.dbg.declare(metadata %"core::option::Option<alloc::vec::Vec<u8>>"* %self, metadata !1981, metadata !DIExpression()), !dbg !1988
  call void @llvm.dbg.declare(metadata %"[closure@/home/calvin/.cargo/registry/src/github.com-1ecc6299db9ec823/shlex-1.3.0/src/lib.rs:69:27: 69:38]"* %f.dbg.spill, metadata !1982, metadata !DIExpression()), !dbg !1989
  call void @llvm.dbg.declare(metadata %"alloc::vec::Vec<u8>"* %x, metadata !1983, metadata !DIExpression()), !dbg !1990
  store i8 1, i8* %_9, align 1, !dbg !1991
  %1 = bitcast %"core::option::Option<alloc::vec::Vec<u8>>"* %self to {}**, !dbg !1991
  %2 = load {}*, {}** %1, align 8, !dbg !1991
  %3 = icmp eq {}* %2, null, !dbg !1991
  %_3 = select i1 %3, i64 0, i64 1, !dbg !1991
  switch i64 %_3, label %bb2 [
    i64 0, label %bb1
    i64 1, label %bb3
  ], !dbg !1992

bb2:                                              ; preds = %start
  unreachable, !dbg !1991

bb1:                                              ; preds = %start
  %4 = bitcast %"core::option::Option<alloc::string::String>"* %0 to {}**, !dbg !1993
  store {}* null, {}** %4, align 8, !dbg !1993
  br label %bb7, !dbg !1993

bb3:                                              ; preds = %start
  %5 = bitcast %"core::option::Option<alloc::vec::Vec<u8>>"* %self to %"core::option::Option<alloc::vec::Vec<u8>>::Some"*, !dbg !1994
  %6 = bitcast %"core::option::Option<alloc::vec::Vec<u8>>::Some"* %5 to %"alloc::vec::Vec<u8>"*, !dbg !1994
  %7 = bitcast %"alloc::vec::Vec<u8>"* %x to i8*, !dbg !1994
  %8 = bitcast %"alloc::vec::Vec<u8>"* %6 to i8*, !dbg !1994
  call void @llvm.memcpy.p0i8.p0i8.i64(i8* align 8 %7, i8* align 8 %8, i64 24, i1 false), !dbg !1994
  store i8 0, i8* %_9, align 1, !dbg !1995
  %9 = bitcast %"alloc::vec::Vec<u8>"* %_8 to i8*, !dbg !1996
  %10 = bitcast %"alloc::vec::Vec<u8>"* %x to i8*, !dbg !1996
  call void @llvm.memcpy.p0i8.p0i8.i64(i8* align 8 %9, i8* align 8 %10, i64 24, i1 false), !dbg !1996
  %11 = bitcast { %"alloc::vec::Vec<u8>" }* %_7 to %"alloc::vec::Vec<u8>"*, !dbg !1995
  %12 = bitcast %"alloc::vec::Vec<u8>"* %11 to i8*, !dbg !1995
  %13 = bitcast %"alloc::vec::Vec<u8>"* %_8 to i8*, !dbg !1995
  call void @llvm.memcpy.p0i8.p0i8.i64(i8* align 8 %12, i8* align 8 %13, i64 24, i1 false), !dbg !1995
  %14 = bitcast { %"alloc::vec::Vec<u8>" }* %_7 to %"alloc::vec::Vec<u8>"*, !dbg !1995
; call <shlex::Shlex as core::iter::traits::iterator::Iterator>::next::{{closure}}
  call void @"_ZN71_$LT$shlex..Shlex$u20$as$u20$core..iter..traits..iterator..Iterator$GT$4next28_$u7b$$u7b$closure$u7d$$u7d$17hf4992ab11c7d8383E"(%"alloc::string::String"* sret(%"alloc::string::String") %_5, %"alloc::vec::Vec<u8>"* %14), !dbg !1995
  br label %bb4, !dbg !1995

bb4:                                              ; preds = %bb3
  %15 = bitcast %"core::option::Option<alloc::string::String>"* %0 to %"core::option::Option<alloc::string::String>::Some"*, !dbg !1997
  %16 = bitcast %"core::option::Option<alloc::string::String>::Some"* %15 to %"alloc::string::String"*, !dbg !1997
  %17 = bitcast %"alloc::string::String"* %16 to i8*, !dbg !1997
  %18 = bitcast %"alloc::string::String"* %_5 to i8*, !dbg !1997
  call void @llvm.memcpy.p0i8.p0i8.i64(i8* align 8 %17, i8* align 8 %18, i64 24, i1 false), !dbg !1997
  br label %bb7, !dbg !1998

bb7:                                              ; preds = %bb1, %bb4
  %19 = load i8, i8* %_9, align 1, !dbg !1999, !range !394, !noundef !19
  %20 = trunc i8 %19 to i1, !dbg !1999
  br i1 %20, label %bb6, label %bb5, !dbg !1999

bb5:                                              ; preds = %bb6, %bb7
  ret void, !dbg !2000

bb6:                                              ; preds = %bb7
  br label %bb5, !dbg !1999
}

; core::option::Option<&T>::copied
; Function Attrs: nonlazybind uwtable
define { i8, i8 } @"_ZN4core6option19Option$LT$$RF$T$GT$6copied17ha9fbd977121fc3d6E"(i8* align 1 %0) unnamed_addr #1 !dbg !2001 {
start:
  %v.dbg.spill = alloca i8, align 1
  %1 = alloca { i8, i8 }, align 1
  %self = alloca i8*, align 8
  store i8* %0, i8** %self, align 8
  call void @llvm.dbg.declare(metadata i8** %self, metadata !2027, metadata !DIExpression()), !dbg !2030
  %2 = bitcast i8** %self to {}**, !dbg !2031
  %3 = load {}*, {}** %2, align 8, !dbg !2031
  %4 = icmp eq {}* %3, null, !dbg !2031
  %_2 = select i1 %4, i64 0, i64 1, !dbg !2031
  switch i64 %_2, label %bb2 [
    i64 0, label %bb1
    i64 1, label %bb3
  ], !dbg !2032

bb2:                                              ; preds = %start
  unreachable, !dbg !2031

bb1:                                              ; preds = %start
  %5 = bitcast { i8, i8 }* %1 to i8*, !dbg !2033
  store i8 0, i8* %5, align 1, !dbg !2033
  br label %bb4, !dbg !2033

bb3:                                              ; preds = %start
  %_5 = load i8*, i8** %self, align 8, !dbg !2034, !nonnull !19, !align !826, !noundef !19
  %v = load i8, i8* %_5, align 1, !dbg !2034
  store i8 %v, i8* %v.dbg.spill, align 1, !dbg !2034
  call void @llvm.dbg.declare(metadata i8* %v.dbg.spill, metadata !2028, metadata !DIExpression()), !dbg !2035
  %6 = getelementptr inbounds { i8, i8 }, { i8, i8 }* %1, i32 0, i32 1, !dbg !2036
  store i8 %v, i8* %6, align 1, !dbg !2036
  %7 = bitcast { i8, i8 }* %1 to i8*, !dbg !2036
  store i8 1, i8* %7, align 1, !dbg !2036
  br label %bb4, !dbg !2037

bb4:                                              ; preds = %bb1, %bb3
  %8 = getelementptr inbounds { i8, i8 }, { i8, i8 }* %1, i32 0, i32 0, !dbg !2038
  %9 = load i8, i8* %8, align 1, !dbg !2038, !range !394, !noundef !19
  %10 = trunc i8 %9 to i1, !dbg !2038
  %11 = getelementptr inbounds { i8, i8 }, { i8, i8 }* %1, i32 0, i32 1, !dbg !2038
  %12 = load i8, i8* %11, align 1, !dbg !2038
  %13 = zext i1 %10 to i8, !dbg !2038
  %14 = insertvalue { i8, i8 } undef, i8 %13, 0, !dbg !2038
  %15 = insertvalue { i8, i8 } %14, i8 %12, 1, !dbg !2038
  ret { i8, i8 } %15, !dbg !2038
}

; core::result::Result<T,E>::unwrap
; Function Attrs: inlinehint nonlazybind uwtable
define void @"_ZN4core6result19Result$LT$T$C$E$GT$6unwrap17h24a86ad913b8503bE"(%"alloc::borrow::Cow<[u8]>"* sret(%"alloc::borrow::Cow<[u8]>") %t, %"core::result::Result<alloc::borrow::Cow<[u8]>, QuoteError>"* %self, %"core::panic::location::Location"* align 8 %0) unnamed_addr #0 personality i32 (i32, i32, i64, %"unwind::libunwind::_Unwind_Exception"*, %"unwind::libunwind::_Unwind_Context"*)* @rust_eh_personality !dbg !2039 {
start:
  %1 = alloca { i8*, i32 }, align 8
  %e = alloca %"QuoteError::Nul", align 1
  call void @llvm.dbg.declare(metadata %"alloc::borrow::Cow<[u8]>"* %t, metadata !2072, metadata !DIExpression()), !dbg !2076
  call void @llvm.dbg.declare(metadata %"core::result::Result<alloc::borrow::Cow<[u8]>, QuoteError>"* %self, metadata !2071, metadata !DIExpression()), !dbg !2077
  call void @llvm.dbg.declare(metadata %"QuoteError::Nul"* %e, metadata !2074, metadata !DIExpression()), !dbg !2078
  %2 = bitcast %"core::result::Result<alloc::borrow::Cow<[u8]>, QuoteError>"* %self to i64*, !dbg !2079
  %3 = load i64, i64* %2, align 8, !dbg !2079, !range !2080, !noundef !19
  %4 = sub i64 %3, 2, !dbg !2079
  %5 = icmp eq i64 %4, 0, !dbg !2079
  %_2 = select i1 %5, i64 1, i64 0, !dbg !2079
  switch i64 %_2, label %bb2 [
    i64 0, label %bb3
    i64 1, label %bb1
  ], !dbg !2081

bb2:                                              ; preds = %start
  unreachable, !dbg !2079

bb3:                                              ; preds = %start
  %6 = bitcast %"core::result::Result<alloc::borrow::Cow<[u8]>, QuoteError>"* %self to %"core::result::Result<alloc::borrow::Cow<[u8]>, QuoteError>::Ok"*, !dbg !2082
  %7 = bitcast %"core::result::Result<alloc::borrow::Cow<[u8]>, QuoteError>::Ok"* %6 to %"alloc::borrow::Cow<[u8]>"*, !dbg !2082
  %8 = bitcast %"alloc::borrow::Cow<[u8]>"* %t to i8*, !dbg !2082
  %9 = bitcast %"alloc::borrow::Cow<[u8]>"* %7 to i8*, !dbg !2082
  call void @llvm.memcpy.p0i8.p0i8.i64(i8* align 8 %8, i8* align 8 %9, i64 32, i1 false), !dbg !2082
  ret void, !dbg !2083

bb1:                                              ; preds = %start
  %_7.0 = bitcast %"QuoteError::Nul"* %e to {}*, !dbg !2084
; invoke core::result::unwrap_failed
  invoke void @_ZN4core6result13unwrap_failed17hff48f82f03d418aeE([0 x i8]* align 1 bitcast (<{ [43 x i8] }>* @alloc343 to [0 x i8]*), i64 43, {}* align 1 %_7.0, [3 x i64]* align 8 bitcast (<{ i8*, [16 x i8], i8* }>* @vtable.0 to [3 x i64]*), %"core::panic::location::Location"* align 8 %0) #16
          to label %unreachable unwind label %cleanup, !dbg !2085

bb4:                                              ; preds = %cleanup
  br label %bb5, !dbg !2086

cleanup:                                          ; preds = %bb1
  %10 = landingpad { i8*, i32 }
          cleanup
  %11 = extractvalue { i8*, i32 } %10, 0
  %12 = extractvalue { i8*, i32 } %10, 1
  %13 = getelementptr inbounds { i8*, i32 }, { i8*, i32 }* %1, i32 0, i32 0
  store i8* %11, i8** %13, align 8
  %14 = getelementptr inbounds { i8*, i32 }, { i8*, i32 }* %1, i32 0, i32 1
  store i32 %12, i32* %14, align 8
  br label %bb4

unreachable:                                      ; preds = %bb1
  unreachable

bb5:                                              ; preds = %bb4
  %15 = bitcast { i8*, i32 }* %1 to i8**, !dbg !2087
  %16 = load i8*, i8** %15, align 8, !dbg !2087
  %17 = getelementptr inbounds { i8*, i32 }, { i8*, i32 }* %1, i32 0, i32 1, !dbg !2087
  %18 = load i32, i32* %17, align 8, !dbg !2087
  %19 = insertvalue { i8*, i32 } undef, i8* %16, 0, !dbg !2087
  %20 = insertvalue { i8*, i32 } %19, i32 %18, 1, !dbg !2087
  resume { i8*, i32 } %20, !dbg !2087
}

; core::result::Result<T,E>::unwrap
; Function Attrs: inlinehint nonlazybind uwtable
define void @"_ZN4core6result19Result$LT$T$C$E$GT$6unwrap17h52fdcc2fb596ca3cE"(%"alloc::borrow::Cow<str>"* sret(%"alloc::borrow::Cow<str>") %t, %"core::result::Result<alloc::borrow::Cow<str>, QuoteError>"* %self, %"core::panic::location::Location"* align 8 %0) unnamed_addr #0 personality i32 (i32, i32, i64, %"unwind::libunwind::_Unwind_Exception"*, %"unwind::libunwind::_Unwind_Context"*)* @rust_eh_personality !dbg !2088 {
start:
  %1 = alloca { i8*, i32 }, align 8
  %e = alloca %"QuoteError::Nul", align 1
  call void @llvm.dbg.declare(metadata %"alloc::borrow::Cow<str>"* %t, metadata !2093, metadata !DIExpression()), !dbg !2097
  call void @llvm.dbg.declare(metadata %"core::result::Result<alloc::borrow::Cow<str>, QuoteError>"* %self, metadata !2092, metadata !DIExpression()), !dbg !2098
  call void @llvm.dbg.declare(metadata %"QuoteError::Nul"* %e, metadata !2095, metadata !DIExpression()), !dbg !2099
  %2 = bitcast %"core::result::Result<alloc::borrow::Cow<str>, QuoteError>"* %self to i64*, !dbg !2100
  %3 = load i64, i64* %2, align 8, !dbg !2100, !range !2080, !noundef !19
  %4 = sub i64 %3, 2, !dbg !2100
  %5 = icmp eq i64 %4, 0, !dbg !2100
  %_2 = select i1 %5, i64 1, i64 0, !dbg !2100
  switch i64 %_2, label %bb2 [
    i64 0, label %bb3
    i64 1, label %bb1
  ], !dbg !2101

bb2:                                              ; preds = %start
  unreachable, !dbg !2100

bb3:                                              ; preds = %start
  %6 = bitcast %"core::result::Result<alloc::borrow::Cow<str>, QuoteError>"* %self to %"core::result::Result<alloc::borrow::Cow<str>, QuoteError>::Ok"*, !dbg !2102
  %7 = bitcast %"core::result::Result<alloc::borrow::Cow<str>, QuoteError>::Ok"* %6 to %"alloc::borrow::Cow<str>"*, !dbg !2102
  %8 = bitcast %"alloc::borrow::Cow<str>"* %t to i8*, !dbg !2102
  %9 = bitcast %"alloc::borrow::Cow<str>"* %7 to i8*, !dbg !2102
  call void @llvm.memcpy.p0i8.p0i8.i64(i8* align 8 %8, i8* align 8 %9, i64 32, i1 false), !dbg !2102
  ret void, !dbg !2103

bb1:                                              ; preds = %start
  %_7.0 = bitcast %"QuoteError::Nul"* %e to {}*, !dbg !2104
; invoke core::result::unwrap_failed
  invoke void @_ZN4core6result13unwrap_failed17hff48f82f03d418aeE([0 x i8]* align 1 bitcast (<{ [43 x i8] }>* @alloc343 to [0 x i8]*), i64 43, {}* align 1 %_7.0, [3 x i64]* align 8 bitcast (<{ i8*, [16 x i8], i8* }>* @vtable.0 to [3 x i64]*), %"core::panic::location::Location"* align 8 %0) #16
          to label %unreachable unwind label %cleanup, !dbg !2105

bb4:                                              ; preds = %cleanup
  br label %bb5, !dbg !2106

cleanup:                                          ; preds = %bb1
  %10 = landingpad { i8*, i32 }
          cleanup
  %11 = extractvalue { i8*, i32 } %10, 0
  %12 = extractvalue { i8*, i32 } %10, 1
  %13 = getelementptr inbounds { i8*, i32 }, { i8*, i32 }* %1, i32 0, i32 0
  store i8* %11, i8** %13, align 8
  %14 = getelementptr inbounds { i8*, i32 }, { i8*, i32 }* %1, i32 0, i32 1
  store i32 %12, i32* %14, align 8
  br label %bb4

unreachable:                                      ; preds = %bb1
  unreachable

bb5:                                              ; preds = %bb4
  %15 = bitcast { i8*, i32 }* %1 to i8**, !dbg !2107
  %16 = load i8*, i8** %15, align 8, !dbg !2107
  %17 = getelementptr inbounds { i8*, i32 }, { i8*, i32 }* %1, i32 0, i32 1, !dbg !2107
  %18 = load i32, i32* %17, align 8, !dbg !2107
  %19 = insertvalue { i8*, i32 } undef, i8* %16, 0, !dbg !2107
  %20 = insertvalue { i8*, i32 } %19, i32 %18, 1, !dbg !2107
  resume { i8*, i32 } %20, !dbg !2107
}

; core::result::Result<T,E>::map_err
; Function Attrs: inlinehint nonlazybind uwtable
define void @"_ZN4core6result19Result$LT$T$C$E$GT$7map_err17h3901e85ad527814eE"(%"core::result::Result<core::ptr::non_null::NonNull<[u8]>, alloc::collections::TryReserveError>"* sret(%"core::result::Result<core::ptr::non_null::NonNull<[u8]>, alloc::collections::TryReserveError>") %0, i8* %1, i64 %2, i64* align 8 %op) unnamed_addr #0 !dbg !2108 {
start:
  %t.dbg.spill = alloca { i8*, i64 }, align 8
  %e.dbg.spill = alloca %"core::alloc::AllocError", align 1
  %op.dbg.spill = alloca i64*, align 8
  %_11 = alloca i8, align 1
  %_9 = alloca { %"core::alloc::AllocError" }, align 1
  %self = alloca { i8*, i64 }, align 8
  %3 = getelementptr inbounds { i8*, i64 }, { i8*, i64 }* %self, i32 0, i32 0
  store i8* %1, i8** %3, align 8
  %4 = getelementptr inbounds { i8*, i64 }, { i8*, i64 }* %self, i32 0, i32 1
  store i64 %2, i64* %4, align 8
  call void @llvm.dbg.declare(metadata { i8*, i64 }* %self, metadata !2152, metadata !DIExpression()), !dbg !2161
  store i64* %op, i64** %op.dbg.spill, align 8
  call void @llvm.dbg.declare(metadata i64** %op.dbg.spill, metadata !2153, metadata !DIExpression()), !dbg !2162
  call void @llvm.dbg.declare(metadata %"core::alloc::AllocError"* %e.dbg.spill, metadata !2156, metadata !DIExpression()), !dbg !2163
  store i8 1, i8* %_11, align 1, !dbg !2164
  %5 = bitcast { i8*, i64 }* %self to {}**, !dbg !2164
  %6 = load {}*, {}** %5, align 8, !dbg !2164
  %7 = icmp eq {}* %6, null, !dbg !2164
  %_3 = select i1 %7, i64 1, i64 0, !dbg !2164
  switch i64 %_3, label %bb2 [
    i64 0, label %bb3
    i64 1, label %bb1
  ], !dbg !2165

bb2:                                              ; preds = %start
  unreachable, !dbg !2164

bb3:                                              ; preds = %start
  %8 = getelementptr inbounds { i8*, i64 }, { i8*, i64 }* %self, i32 0, i32 0, !dbg !2166
  %t.0 = load i8*, i8** %8, align 8, !dbg !2166, !nonnull !19, !noundef !19
  %9 = getelementptr inbounds { i8*, i64 }, { i8*, i64 }* %self, i32 0, i32 1, !dbg !2166
  %t.1 = load i64, i64* %9, align 8, !dbg !2166
  %10 = getelementptr inbounds { i8*, i64 }, { i8*, i64 }* %t.dbg.spill, i32 0, i32 0, !dbg !2166
  store i8* %t.0, i8** %10, align 8, !dbg !2166
  %11 = getelementptr inbounds { i8*, i64 }, { i8*, i64 }* %t.dbg.spill, i32 0, i32 1, !dbg !2166
  store i64 %t.1, i64* %11, align 8, !dbg !2166
  call void @llvm.dbg.declare(metadata { i8*, i64 }* %t.dbg.spill, metadata !2154, metadata !DIExpression()), !dbg !2167
  %12 = bitcast %"core::result::Result<core::ptr::non_null::NonNull<[u8]>, alloc::collections::TryReserveError>"* %0 to %"core::result::Result<core::ptr::non_null::NonNull<[u8]>, alloc::collections::TryReserveError>::Ok"*, !dbg !2168
  %13 = getelementptr inbounds %"core::result::Result<core::ptr::non_null::NonNull<[u8]>, alloc::collections::TryReserveError>::Ok", %"core::result::Result<core::ptr::non_null::NonNull<[u8]>, alloc::collections::TryReserveError>::Ok"* %12, i32 0, i32 1, !dbg !2168
  %14 = getelementptr inbounds { i8*, i64 }, { i8*, i64 }* %13, i32 0, i32 0, !dbg !2168
  store i8* %t.0, i8** %14, align 8, !dbg !2168
  %15 = getelementptr inbounds { i8*, i64 }, { i8*, i64 }* %13, i32 0, i32 1, !dbg !2168
  store i64 %t.1, i64* %15, align 8, !dbg !2168
  %16 = bitcast %"core::result::Result<core::ptr::non_null::NonNull<[u8]>, alloc::collections::TryReserveError>"* %0 to i64*, !dbg !2168
  store i64 0, i64* %16, align 8, !dbg !2168
  br label %bb7, !dbg !2169

bb1:                                              ; preds = %start
  store i8 0, i8* %_11, align 1, !dbg !2170
  %17 = bitcast { %"core::alloc::AllocError" }* %_9 to %"core::alloc::AllocError"*, !dbg !2170
; call alloc::raw_vec::finish_grow::{{closure}}
  %18 = call { i64, i64 } @"_ZN5alloc7raw_vec11finish_grow28_$u7b$$u7b$closure$u7d$$u7d$17he0a883c58d680d64E"(i64* align 8 %op), !dbg !2170
  %_7.0 = extractvalue { i64, i64 } %18, 0, !dbg !2170
  %_7.1 = extractvalue { i64, i64 } %18, 1, !dbg !2170
  br label %bb4, !dbg !2170

bb4:                                              ; preds = %bb1
  %19 = bitcast %"core::result::Result<core::ptr::non_null::NonNull<[u8]>, alloc::collections::TryReserveError>"* %0 to %"core::result::Result<core::ptr::non_null::NonNull<[u8]>, alloc::collections::TryReserveError>::Err"*, !dbg !2171
  %20 = getelementptr inbounds %"core::result::Result<core::ptr::non_null::NonNull<[u8]>, alloc::collections::TryReserveError>::Err", %"core::result::Result<core::ptr::non_null::NonNull<[u8]>, alloc::collections::TryReserveError>::Err"* %19, i32 0, i32 1, !dbg !2171
  %21 = getelementptr inbounds { i64, i64 }, { i64, i64 }* %20, i32 0, i32 0, !dbg !2171
  store i64 %_7.0, i64* %21, align 8, !dbg !2171
  %22 = getelementptr inbounds { i64, i64 }, { i64, i64 }* %20, i32 0, i32 1, !dbg !2171
  store i64 %_7.1, i64* %22, align 8, !dbg !2171
  %23 = bitcast %"core::result::Result<core::ptr::non_null::NonNull<[u8]>, alloc::collections::TryReserveError>"* %0 to i64*, !dbg !2171
  store i64 1, i64* %23, align 8, !dbg !2171
  br label %bb7, !dbg !2172

bb7:                                              ; preds = %bb3, %bb4
  %24 = load i8, i8* %_11, align 1, !dbg !2173, !range !394, !noundef !19
  %25 = trunc i8 %24 to i1, !dbg !2173
  br i1 %25, label %bb6, label %bb5, !dbg !2173

bb5:                                              ; preds = %bb6, %bb7
  ret void, !dbg !2174

bb6:                                              ; preds = %bb7
  br label %bb5, !dbg !2173
}

; core::result::Result<T,E>::map_err
; Function Attrs: inlinehint nonlazybind uwtable
define { i64, i64 } @"_ZN4core6result19Result$LT$T$C$E$GT$7map_err17ha550cd7b6afb3594E"(i64 %0, i64 %1) unnamed_addr #0 !dbg !2175 {
start:
  %e.dbg.spill = alloca { i64, i64 }, align 8
  %t.dbg.spill = alloca {}, align 1
  %op.dbg.spill = alloca %"[closure@alloc::raw_vec::handle_reserve::{closure#0}]", align 1
  %_11 = alloca i8, align 1
  %_9 = alloca { i64, i64 }, align 8
  %2 = alloca { i64, i64 }, align 8
  %self = alloca { i64, i64 }, align 8
  %3 = getelementptr inbounds { i64, i64 }, { i64, i64 }* %self, i32 0, i32 0
  store i64 %0, i64* %3, align 8
  %4 = getelementptr inbounds { i64, i64 }, { i64, i64 }* %self, i32 0, i32 1
  store i64 %1, i64* %4, align 8
  call void @llvm.dbg.declare(metadata { i64, i64 }* %self, metadata !2210, metadata !DIExpression()), !dbg !2219
  call void @llvm.dbg.declare(metadata %"[closure@alloc::raw_vec::handle_reserve::{closure#0}]"* %op.dbg.spill, metadata !2211, metadata !DIExpression()), !dbg !2220
  call void @llvm.dbg.declare(metadata {}* %t.dbg.spill, metadata !2212, metadata !DIExpression()), !dbg !2221
  store i8 1, i8* %_11, align 1, !dbg !2222
  %5 = getelementptr inbounds { i64, i64 }, { i64, i64 }* %self, i32 0, i32 1, !dbg !2222
  %6 = load i64, i64* %5, align 8, !dbg !2222, !range !2223, !noundef !19
  %7 = sub i64 %6, -9223372036854775807, !dbg !2222
  %8 = icmp eq i64 %7, 0, !dbg !2222
  %_3 = select i1 %8, i64 0, i64 1, !dbg !2222
  switch i64 %_3, label %bb2 [
    i64 0, label %bb3
    i64 1, label %bb1
  ], !dbg !2224

bb2:                                              ; preds = %start
  unreachable, !dbg !2222

bb3:                                              ; preds = %start
  %9 = bitcast { i64, i64 }* %2 to %"core::result::Result<(), alloc::collections::TryReserveErrorKind>::Ok"*, !dbg !2225
  %10 = bitcast %"core::result::Result<(), alloc::collections::TryReserveErrorKind>::Ok"* %9 to {}*, !dbg !2225
  %11 = getelementptr inbounds { i64, i64 }, { i64, i64 }* %2, i32 0, i32 1, !dbg !2225
  store i64 -9223372036854775807, i64* %11, align 8, !dbg !2225
  br label %bb7, !dbg !2226

bb1:                                              ; preds = %start
  %12 = getelementptr inbounds { i64, i64 }, { i64, i64 }* %self, i32 0, i32 0, !dbg !2227
  %e.0 = load i64, i64* %12, align 8, !dbg !2227
  %13 = getelementptr inbounds { i64, i64 }, { i64, i64 }* %self, i32 0, i32 1, !dbg !2227
  %e.1 = load i64, i64* %13, align 8, !dbg !2227, !range !649, !noundef !19
  %14 = getelementptr inbounds { i64, i64 }, { i64, i64 }* %e.dbg.spill, i32 0, i32 0, !dbg !2227
  store i64 %e.0, i64* %14, align 8, !dbg !2227
  %15 = getelementptr inbounds { i64, i64 }, { i64, i64 }* %e.dbg.spill, i32 0, i32 1, !dbg !2227
  store i64 %e.1, i64* %15, align 8, !dbg !2227
  call void @llvm.dbg.declare(metadata { i64, i64 }* %e.dbg.spill, metadata !2214, metadata !DIExpression()), !dbg !2228
  store i8 0, i8* %_11, align 1, !dbg !2229
  %16 = getelementptr inbounds { i64, i64 }, { i64, i64 }* %_9, i32 0, i32 0, !dbg !2229
  store i64 %e.0, i64* %16, align 8, !dbg !2229
  %17 = getelementptr inbounds { i64, i64 }, { i64, i64 }* %_9, i32 0, i32 1, !dbg !2229
  store i64 %e.1, i64* %17, align 8, !dbg !2229
  %18 = getelementptr inbounds { i64, i64 }, { i64, i64 }* %_9, i32 0, i32 0, !dbg !2229
  %19 = load i64, i64* %18, align 8, !dbg !2229
  %20 = getelementptr inbounds { i64, i64 }, { i64, i64 }* %_9, i32 0, i32 1, !dbg !2229
  %21 = load i64, i64* %20, align 8, !dbg !2229, !range !649, !noundef !19
; call alloc::raw_vec::handle_reserve::{{closure}}
  %22 = call { i64, i64 } @"_ZN5alloc7raw_vec14handle_reserve28_$u7b$$u7b$closure$u7d$$u7d$17haae58e62989b1474E"(i64 %19, i64 %21), !dbg !2229
  %_7.0 = extractvalue { i64, i64 } %22, 0, !dbg !2229
  %_7.1 = extractvalue { i64, i64 } %22, 1, !dbg !2229
  br label %bb4, !dbg !2229

bb4:                                              ; preds = %bb1
  %23 = getelementptr inbounds { i64, i64 }, { i64, i64 }* %2, i32 0, i32 0, !dbg !2230
  store i64 %_7.0, i64* %23, align 8, !dbg !2230
  %24 = getelementptr inbounds { i64, i64 }, { i64, i64 }* %2, i32 0, i32 1, !dbg !2230
  store i64 %_7.1, i64* %24, align 8, !dbg !2230
  br label %bb7, !dbg !2231

bb7:                                              ; preds = %bb3, %bb4
  %25 = load i8, i8* %_11, align 1, !dbg !2232, !range !394, !noundef !19
  %26 = trunc i8 %25 to i1, !dbg !2232
  br i1 %26, label %bb6, label %bb5, !dbg !2232

bb5:                                              ; preds = %bb6, %bb7
  %27 = getelementptr inbounds { i64, i64 }, { i64, i64 }* %2, i32 0, i32 0, !dbg !2233
  %28 = load i64, i64* %27, align 8, !dbg !2233
  %29 = getelementptr inbounds { i64, i64 }, { i64, i64 }* %2, i32 0, i32 1, !dbg !2233
  %30 = load i64, i64* %29, align 8, !dbg !2233, !range !2223, !noundef !19
  %31 = insertvalue { i64, i64 } undef, i64 %28, 0, !dbg !2233
  %32 = insertvalue { i64, i64 } %31, i64 %30, 1, !dbg !2233
  ret { i64, i64 } %32, !dbg !2233

bb6:                                              ; preds = %bb7
  br label %bb5, !dbg !2232
}

; core::result::Result<T,E>::map_err
; Function Attrs: inlinehint nonlazybind uwtable
define void @"_ZN4core6result19Result$LT$T$C$E$GT$7map_err17hdcb1b1e7211b2039E"(%"core::result::Result<core::alloc::layout::Layout, alloc::collections::TryReserveErrorKind>"* sret(%"core::result::Result<core::alloc::layout::Layout, alloc::collections::TryReserveErrorKind>") %0, i64 %1, i64 %2) unnamed_addr #0 !dbg !2234 {
start:
  %t.dbg.spill = alloca { i64, i64 }, align 8
  %e.dbg.spill = alloca %"core::alloc::layout::LayoutError", align 1
  %op.dbg.spill = alloca %"[closure@alloc::raw_vec::finish_grow<alloc::alloc::Global>::{closure#0}]", align 1
  %_11 = alloca i8, align 1
  %_9 = alloca { %"core::alloc::layout::LayoutError" }, align 1
  %self = alloca { i64, i64 }, align 8
  %3 = getelementptr inbounds { i64, i64 }, { i64, i64 }* %self, i32 0, i32 0
  store i64 %1, i64* %3, align 8
  %4 = getelementptr inbounds { i64, i64 }, { i64, i64 }* %self, i32 0, i32 1
  store i64 %2, i64* %4, align 8
  call void @llvm.dbg.declare(metadata { i64, i64 }* %self, metadata !2253, metadata !DIExpression()), !dbg !2261
  call void @llvm.dbg.declare(metadata %"[closure@alloc::raw_vec::finish_grow<alloc::alloc::Global>::{closure#0}]"* %op.dbg.spill, metadata !2254, metadata !DIExpression()), !dbg !2262
  call void @llvm.dbg.declare(metadata %"core::alloc::layout::LayoutError"* %e.dbg.spill, metadata !2257, metadata !DIExpression()), !dbg !2263
  store i8 1, i8* %_11, align 1, !dbg !2264
  %5 = getelementptr inbounds { i64, i64 }, { i64, i64 }* %self, i32 0, i32 1, !dbg !2264
  %6 = load i64, i64* %5, align 8, !dbg !2264, !range !649, !noundef !19
  %7 = icmp eq i64 %6, 0, !dbg !2264
  %_3 = select i1 %7, i64 1, i64 0, !dbg !2264
  switch i64 %_3, label %bb2 [
    i64 0, label %bb3
    i64 1, label %bb1
  ], !dbg !2265

bb2:                                              ; preds = %start
  unreachable, !dbg !2264

bb3:                                              ; preds = %start
  %8 = getelementptr inbounds { i64, i64 }, { i64, i64 }* %self, i32 0, i32 0, !dbg !2266
  %t.0 = load i64, i64* %8, align 8, !dbg !2266
  %9 = getelementptr inbounds { i64, i64 }, { i64, i64 }* %self, i32 0, i32 1, !dbg !2266
  %t.1 = load i64, i64* %9, align 8, !dbg !2266, !range !1308, !noundef !19
  %10 = getelementptr inbounds { i64, i64 }, { i64, i64 }* %t.dbg.spill, i32 0, i32 0, !dbg !2266
  store i64 %t.0, i64* %10, align 8, !dbg !2266
  %11 = getelementptr inbounds { i64, i64 }, { i64, i64 }* %t.dbg.spill, i32 0, i32 1, !dbg !2266
  store i64 %t.1, i64* %11, align 8, !dbg !2266
  call void @llvm.dbg.declare(metadata { i64, i64 }* %t.dbg.spill, metadata !2255, metadata !DIExpression()), !dbg !2267
  %12 = bitcast %"core::result::Result<core::alloc::layout::Layout, alloc::collections::TryReserveErrorKind>"* %0 to %"core::result::Result<core::alloc::layout::Layout, alloc::collections::TryReserveErrorKind>::Ok"*, !dbg !2268
  %13 = getelementptr inbounds %"core::result::Result<core::alloc::layout::Layout, alloc::collections::TryReserveErrorKind>::Ok", %"core::result::Result<core::alloc::layout::Layout, alloc::collections::TryReserveErrorKind>::Ok"* %12, i32 0, i32 1, !dbg !2268
  %14 = getelementptr inbounds { i64, i64 }, { i64, i64 }* %13, i32 0, i32 0, !dbg !2268
  store i64 %t.0, i64* %14, align 8, !dbg !2268
  %15 = getelementptr inbounds { i64, i64 }, { i64, i64 }* %13, i32 0, i32 1, !dbg !2268
  store i64 %t.1, i64* %15, align 8, !dbg !2268
  %16 = bitcast %"core::result::Result<core::alloc::layout::Layout, alloc::collections::TryReserveErrorKind>"* %0 to i64*, !dbg !2268
  store i64 0, i64* %16, align 8, !dbg !2268
  br label %bb7, !dbg !2269

bb1:                                              ; preds = %start
  store i8 0, i8* %_11, align 1, !dbg !2270
  %17 = bitcast { %"core::alloc::layout::LayoutError" }* %_9 to %"core::alloc::layout::LayoutError"*, !dbg !2270
; call alloc::raw_vec::finish_grow::{{closure}}
  %18 = call { i64, i64 } @"_ZN5alloc7raw_vec11finish_grow28_$u7b$$u7b$closure$u7d$$u7d$17h97a170dbd3a498e1E"(), !dbg !2270
  %_7.0 = extractvalue { i64, i64 } %18, 0, !dbg !2270
  %_7.1 = extractvalue { i64, i64 } %18, 1, !dbg !2270
  br label %bb4, !dbg !2270

bb4:                                              ; preds = %bb1
  %19 = bitcast %"core::result::Result<core::alloc::layout::Layout, alloc::collections::TryReserveErrorKind>"* %0 to %"core::result::Result<core::alloc::layout::Layout, alloc::collections::TryReserveErrorKind>::Err"*, !dbg !2271
  %20 = getelementptr inbounds %"core::result::Result<core::alloc::layout::Layout, alloc::collections::TryReserveErrorKind>::Err", %"core::result::Result<core::alloc::layout::Layout, alloc::collections::TryReserveErrorKind>::Err"* %19, i32 0, i32 1, !dbg !2271
  %21 = getelementptr inbounds { i64, i64 }, { i64, i64 }* %20, i32 0, i32 0, !dbg !2271
  store i64 %_7.0, i64* %21, align 8, !dbg !2271
  %22 = getelementptr inbounds { i64, i64 }, { i64, i64 }* %20, i32 0, i32 1, !dbg !2271
  store i64 %_7.1, i64* %22, align 8, !dbg !2271
  %23 = bitcast %"core::result::Result<core::alloc::layout::Layout, alloc::collections::TryReserveErrorKind>"* %0 to i64*, !dbg !2271
  store i64 1, i64* %23, align 8, !dbg !2271
  br label %bb7, !dbg !2272

bb7:                                              ; preds = %bb3, %bb4
  %24 = load i8, i8* %_11, align 1, !dbg !2273, !range !394, !noundef !19
  %25 = trunc i8 %24 to i1, !dbg !2273
  br i1 %25, label %bb6, label %bb5, !dbg !2273

bb5:                                              ; preds = %bb6, %bb7
  ret void, !dbg !2274

bb6:                                              ; preds = %bb7
  br label %bb5, !dbg !2273
}

; <T as core::convert::From<T>>::from
; Function Attrs: nonlazybind uwtable
define void @"_ZN50_$LT$T$u20$as$u20$core..convert..From$LT$T$GT$$GT$4from17h2fbee86a55f307ceE"() unnamed_addr #1 !dbg !2275 {
start:
  %t.dbg.spill = alloca %"core::alloc::AllocError", align 1
  call void @llvm.dbg.declare(metadata %"core::alloc::AllocError"* %t.dbg.spill, metadata !2281, metadata !DIExpression()), !dbg !2284
  ret void, !dbg !2285
}

; <T as core::convert::From<T>>::from
; Function Attrs: nonlazybind uwtable
define void @"_ZN50_$LT$T$u20$as$u20$core..convert..From$LT$T$GT$$GT$4from17h53d72257060e3473E"() unnamed_addr #1 !dbg !2286 {
start:
  %t.dbg.spill = alloca %"core::alloc::layout::LayoutError", align 1
  call void @llvm.dbg.declare(metadata %"core::alloc::layout::LayoutError"* %t.dbg.spill, metadata !2290, metadata !DIExpression()), !dbg !2293
  ret void, !dbg !2294
}

; <T as core::convert::From<T>>::from
; Function Attrs: nonlazybind uwtable
define { i64, i64 } @"_ZN50_$LT$T$u20$as$u20$core..convert..From$LT$T$GT$$GT$4from17ha098773fc34e53f9E"(i64 %t.0, i64 %t.1) unnamed_addr #1 !dbg !2295 {
start:
  %t.dbg.spill = alloca { i64, i64 }, align 8
  %0 = getelementptr inbounds { i64, i64 }, { i64, i64 }* %t.dbg.spill, i32 0, i32 0
  store i64 %t.0, i64* %0, align 8
  %1 = getelementptr inbounds { i64, i64 }, { i64, i64 }* %t.dbg.spill, i32 0, i32 1
  store i64 %t.1, i64* %1, align 8
  call void @llvm.dbg.declare(metadata { i64, i64 }* %t.dbg.spill, metadata !2299, metadata !DIExpression()), !dbg !2302
  %2 = insertvalue { i64, i64 } undef, i64 %t.0, 0, !dbg !2303
  %3 = insertvalue { i64, i64 } %2, i64 %t.1, 1, !dbg !2303
  ret { i64, i64 } %3, !dbg !2303
}

; <T as core::convert::From<T>>::from
; Function Attrs: nonlazybind uwtable
define void @"_ZN50_$LT$T$u20$as$u20$core..convert..From$LT$T$GT$$GT$4from17ha57a116830ea7e61E"() unnamed_addr #1 !dbg !2304 {
start:
  %t.dbg.spill = alloca %"QuoteError::Nul", align 1
  call void @llvm.dbg.declare(metadata %"QuoteError::Nul"* %t.dbg.spill, metadata !2308, metadata !DIExpression()), !dbg !2309
  ret void, !dbg !2310
}

; <T as core::convert::Into<U>>::into
; Function Attrs: nonlazybind uwtable
define i8* @"_ZN50_$LT$T$u20$as$u20$core..convert..Into$LT$U$GT$$GT$4into17h2b90392b95753282E"(i8* %self) unnamed_addr #1 !dbg !2311 {
start:
  %self.dbg.spill = alloca i8*, align 8
  store i8* %self, i8** %self.dbg.spill, align 8
  call void @llvm.dbg.declare(metadata i8** %self.dbg.spill, metadata !2314, metadata !DIExpression()), !dbg !2318
; call <core::ptr::non_null::NonNull<T> as core::convert::From<core::ptr::unique::Unique<T>>>::from
  %0 = call i8* @"_ZN119_$LT$core..ptr..non_null..NonNull$LT$T$GT$$u20$as$u20$core..convert..From$LT$core..ptr..unique..Unique$LT$T$GT$$GT$$GT$4from17h2d3767c9df7a2bc5E"(i8* %self), !dbg !2319
  br label %bb1, !dbg !2319

bb1:                                              ; preds = %start
  ret i8* %0, !dbg !2320
}

; <T as core::convert::Into<U>>::into
; Function Attrs: nonlazybind uwtable
define void @"_ZN50_$LT$T$u20$as$u20$core..convert..Into$LT$U$GT$$GT$4into17h70efd7bf57560094E"(%"alloc::borrow::Cow<str>"* sret(%"alloc::borrow::Cow<str>") %0, [0 x i8]* align 1 %self.0, i64 %self.1) unnamed_addr #1 !dbg !2321 {
start:
  %self.dbg.spill = alloca { [0 x i8]*, i64 }, align 8
  %1 = getelementptr inbounds { [0 x i8]*, i64 }, { [0 x i8]*, i64 }* %self.dbg.spill, i32 0, i32 0
  store [0 x i8]* %self.0, [0 x i8]** %1, align 8
  %2 = getelementptr inbounds { [0 x i8]*, i64 }, { [0 x i8]*, i64 }* %self.dbg.spill, i32 0, i32 1
  store i64 %self.1, i64* %2, align 8
  call void @llvm.dbg.declare(metadata { [0 x i8]*, i64 }* %self.dbg.spill, metadata !2325, metadata !DIExpression()), !dbg !2329
; call alloc::string::<impl core::convert::From<&str> for alloc::borrow::Cow<str>>::from
  call void @"_ZN5alloc6string94_$LT$impl$u20$core..convert..From$LT$$RF$str$GT$$u20$for$u20$alloc..borrow..Cow$LT$str$GT$$GT$4from17h95b3d82f164bc25bE"(%"alloc::borrow::Cow<str>"* sret(%"alloc::borrow::Cow<str>") %0, [0 x i8]* align 1 %self.0, i64 %self.1), !dbg !2330
  br label %bb1, !dbg !2330

bb1:                                              ; preds = %start
  ret void, !dbg !2331
}

; <T as core::convert::Into<U>>::into
; Function Attrs: nonlazybind uwtable
define void @"_ZN50_$LT$T$u20$as$u20$core..convert..Into$LT$U$GT$$GT$4into17h7abf799581f2b754E"(%"alloc::borrow::Cow<[u8]>"* sret(%"alloc::borrow::Cow<[u8]>") %0, %"alloc::vec::Vec<u8>"* %self) unnamed_addr #1 !dbg !2332 {
start:
  %_2 = alloca %"alloc::vec::Vec<u8>", align 8
  call void @llvm.dbg.declare(metadata %"alloc::vec::Vec<u8>"* %self, metadata !2336, metadata !DIExpression()), !dbg !2339
  %1 = bitcast %"alloc::vec::Vec<u8>"* %_2 to i8*, !dbg !2340
  %2 = bitcast %"alloc::vec::Vec<u8>"* %self to i8*, !dbg !2340
  call void @llvm.memcpy.p0i8.p0i8.i64(i8* align 8 %1, i8* align 8 %2, i64 24, i1 false), !dbg !2340
; call alloc::vec::cow::<impl core::convert::From<alloc::vec::Vec<T>> for alloc::borrow::Cow<[T]>>::from
  call void @"_ZN5alloc3vec3cow119_$LT$impl$u20$core..convert..From$LT$alloc..vec..Vec$LT$T$GT$$GT$$u20$for$u20$alloc..borrow..Cow$LT$$u5b$T$u5d$$GT$$GT$4from17he4b14b6007cc4beaE"(%"alloc::borrow::Cow<[u8]>"* sret(%"alloc::borrow::Cow<[u8]>") %0, %"alloc::vec::Vec<u8>"* %_2), !dbg !2341
  br label %bb1, !dbg !2341

bb1:                                              ; preds = %start
  ret void, !dbg !2342
}

; <T as core::convert::Into<U>>::into
; Function Attrs: nonlazybind uwtable
define void @"_ZN50_$LT$T$u20$as$u20$core..convert..Into$LT$U$GT$$GT$4into17h9f5b2bfd9c5e1a67E"(%"alloc::borrow::Cow<[u8]>"* sret(%"alloc::borrow::Cow<[u8]>") %0, [0 x i8]* align 1 %self.0, i64 %self.1) unnamed_addr #1 !dbg !2343 {
start:
  %self.dbg.spill = alloca { [0 x i8]*, i64 }, align 8
  %1 = getelementptr inbounds { [0 x i8]*, i64 }, { [0 x i8]*, i64 }* %self.dbg.spill, i32 0, i32 0
  store [0 x i8]* %self.0, [0 x i8]** %1, align 8
  %2 = getelementptr inbounds { [0 x i8]*, i64 }, { [0 x i8]*, i64 }* %self.dbg.spill, i32 0, i32 1
  store i64 %self.1, i64* %2, align 8
  call void @llvm.dbg.declare(metadata { [0 x i8]*, i64 }* %self.dbg.spill, metadata !2347, metadata !DIExpression()), !dbg !2350
; call alloc::vec::cow::<impl core::convert::From<&[T]> for alloc::borrow::Cow<[T]>>::from
  call void @"_ZN5alloc3vec3cow110_$LT$impl$u20$core..convert..From$LT$$RF$$u5b$T$u5d$$GT$$u20$for$u20$alloc..borrow..Cow$LT$$u5b$T$u5d$$GT$$GT$4from17hb5c0b0b17f6bdda3E"(%"alloc::borrow::Cow<[u8]>"* sret(%"alloc::borrow::Cow<[u8]>") %0, [0 x i8]* align 1 %self.0, i64 %self.1), !dbg !2351
  br label %bb1, !dbg !2351

bb1:                                              ; preds = %start
  ret void, !dbg !2352
}

; <T as core::convert::Into<U>>::into
; Function Attrs: nonlazybind uwtable
define { i64, i64 } @"_ZN50_$LT$T$u20$as$u20$core..convert..Into$LT$U$GT$$GT$4into17hbe9ccf7077ea30d7E"(i64 %self.0, i64 %self.1) unnamed_addr #1 !dbg !2353 {
start:
  %self.dbg.spill = alloca { i64, i64 }, align 8
  %0 = getelementptr inbounds { i64, i64 }, { i64, i64 }* %self.dbg.spill, i32 0, i32 0
  store i64 %self.0, i64* %0, align 8
  %1 = getelementptr inbounds { i64, i64 }, { i64, i64 }* %self.dbg.spill, i32 0, i32 1
  store i64 %self.1, i64* %1, align 8
  call void @llvm.dbg.declare(metadata { i64, i64 }* %self.dbg.spill, metadata !2355, metadata !DIExpression()), !dbg !2359
; call <alloc::collections::TryReserveError as core::convert::From<alloc::collections::TryReserveErrorKind>>::from
  %2 = call { i64, i64 } @"_ZN122_$LT$alloc..collections..TryReserveError$u20$as$u20$core..convert..From$LT$alloc..collections..TryReserveErrorKind$GT$$GT$4from17hd9b1e84b4e136ef5E"(i64 %self.0, i64 %self.1), !dbg !2360
  %3 = extractvalue { i64, i64 } %2, 0, !dbg !2360
  %4 = extractvalue { i64, i64 } %2, 1, !dbg !2360
  br label %bb1, !dbg !2360

bb1:                                              ; preds = %start
  %5 = insertvalue { i64, i64 } undef, i64 %3, 0, !dbg !2361
  %6 = insertvalue { i64, i64 } %5, i64 %4, 1, !dbg !2361
  ret { i64, i64 } %6, !dbg !2361
}

; <T as core::convert::Into<U>>::into
; Function Attrs: nonlazybind uwtable
define void @"_ZN50_$LT$T$u20$as$u20$core..convert..Into$LT$U$GT$$GT$4into17he05d00e77084f0ffE"(%"alloc::borrow::Cow<str>"* sret(%"alloc::borrow::Cow<str>") %0, %"alloc::string::String"* %self) unnamed_addr #1 !dbg !2362 {
start:
  %_2 = alloca %"alloc::string::String", align 8
  call void @llvm.dbg.declare(metadata %"alloc::string::String"* %self, metadata !2366, metadata !DIExpression()), !dbg !2368
  %1 = bitcast %"alloc::string::String"* %_2 to i8*, !dbg !2369
  %2 = bitcast %"alloc::string::String"* %self to i8*, !dbg !2369
  call void @llvm.memcpy.p0i8.p0i8.i64(i8* align 8 %1, i8* align 8 %2, i64 24, i1 false), !dbg !2369
; call alloc::string::<impl core::convert::From<alloc::string::String> for alloc::borrow::Cow<str>>::from
  call void @"_ZN5alloc6string108_$LT$impl$u20$core..convert..From$LT$alloc..string..String$GT$$u20$for$u20$alloc..borrow..Cow$LT$str$GT$$GT$4from17h14dc4de5d838698fE"(%"alloc::borrow::Cow<str>"* sret(%"alloc::borrow::Cow<str>") %0, %"alloc::string::String"* %_2), !dbg !2370
  br label %bb1, !dbg !2370

bb1:                                              ; preds = %start
  ret void, !dbg !2371
}

; alloc::vec::Vec<T>::new
; Function Attrs: inlinehint nonlazybind uwtable
define void @"_ZN5alloc3vec12Vec$LT$T$GT$3new17hec81cd16a2af355aE"(%"alloc::vec::Vec<u8>"* sret(%"alloc::vec::Vec<u8>") %0) unnamed_addr #0 !dbg !2372 {
start:
  %_1.0 = load i8*, i8** getelementptr inbounds ({ i8*, i64 }, { i8*, i64 }* bitcast (<{ [16 x i8] }>* @1 to { i8*, i64 }*), i32 0, i32 0), align 8, !dbg !2375, !nonnull !19, !noundef !19
  %_1.1 = load i64, i64* getelementptr inbounds ({ i8*, i64 }, { i8*, i64 }* bitcast (<{ [16 x i8] }>* @1 to { i8*, i64 }*), i32 0, i32 1), align 8, !dbg !2375
  %1 = bitcast %"alloc::vec::Vec<u8>"* %0 to { i8*, i64 }*, !dbg !2376
  %2 = getelementptr inbounds { i8*, i64 }, { i8*, i64 }* %1, i32 0, i32 0, !dbg !2376
  store i8* %_1.0, i8** %2, align 8, !dbg !2376
  %3 = getelementptr inbounds { i8*, i64 }, { i8*, i64 }* %1, i32 0, i32 1, !dbg !2376
  store i64 %_1.1, i64* %3, align 8, !dbg !2376
  %4 = getelementptr inbounds %"alloc::vec::Vec<u8>", %"alloc::vec::Vec<u8>"* %0, i32 0, i32 1, !dbg !2376
  store i64 0, i64* %4, align 8, !dbg !2376
  ret void, !dbg !2377
}

; alloc::vec::Vec<T,A>::as_mut_ptr
; Function Attrs: inlinehint nonlazybind uwtable
define %"alloc::vec::Vec<u8>"* @"_ZN5alloc3vec16Vec$LT$T$C$A$GT$10as_mut_ptr17h1d53eb0dd4b79cbfE"(%"alloc::vec::Vec<alloc::vec::Vec<u8>>"* align 8 %self) unnamed_addr #0 !dbg !2378 {
start:
  %0 = alloca i8, align 1
  %other.dbg.spill = alloca i8*, align 8
  %data_address.dbg.spill = alloca {}*, align 8
  %1 = alloca {}*, align 8
  %self.dbg.spill8 = alloca i8*, align 8
  %self.dbg.spill6 = alloca %"alloc::vec::Vec<u8>"*, align 8
  %ptr.dbg.spill = alloca %"alloc::vec::Vec<u8>"*, align 8
  %self.dbg.spill5 = alloca i64*, align 8
  %self.dbg.spill4 = alloca i64*, align 8
  %self.dbg.spill2 = alloca { i64*, i64 }*, align 8
  %metadata.dbg.spill = alloca {}, align 1
  %self.dbg.spill = alloca %"alloc::vec::Vec<alloc::vec::Vec<u8>>"*, align 8
  %_18 = alloca %"core::ptr::metadata::PtrComponents<u8>", align 8
  %_17 = alloca %"core::ptr::metadata::PtrRepr<u8>", align 8
  store %"alloc::vec::Vec<alloc::vec::Vec<u8>>"* %self, %"alloc::vec::Vec<alloc::vec::Vec<u8>>"** %self.dbg.spill, align 8
  call void @llvm.dbg.declare(metadata %"alloc::vec::Vec<alloc::vec::Vec<u8>>"** %self.dbg.spill, metadata !2382, metadata !DIExpression()), !dbg !2385
  call void @llvm.dbg.declare(metadata {}* %metadata.dbg.spill, metadata !2386, metadata !DIExpression()), !dbg !2391
  %self1 = bitcast %"alloc::vec::Vec<alloc::vec::Vec<u8>>"* %self to { i64*, i64 }*, !dbg !2402
  store { i64*, i64 }* %self1, { i64*, i64 }** %self.dbg.spill2, align 8, !dbg !2402
  call void @llvm.dbg.declare(metadata { i64*, i64 }** %self.dbg.spill2, metadata !2403, metadata !DIExpression()), !dbg !2410
  %2 = bitcast { i64*, i64 }* %self1 to i64**, !dbg !2410
  %self3 = load i64*, i64** %2, align 8, !dbg !2410, !nonnull !19, !noundef !19
  store i64* %self3, i64** %self.dbg.spill4, align 8, !dbg !2410
  call void @llvm.dbg.declare(metadata i64** %self.dbg.spill4, metadata !2411, metadata !DIExpression()), !dbg !2417
  store i64* %self3, i64** %self.dbg.spill5, align 8, !dbg !2417
  call void @llvm.dbg.declare(metadata i64** %self.dbg.spill5, metadata !2419, metadata !DIExpression()), !dbg !2425
  %_9 = bitcast i64* %self3 to %"alloc::vec::Vec<u8>"*, !dbg !2425
  store %"alloc::vec::Vec<u8>"* %_9, %"alloc::vec::Vec<u8>"** %ptr.dbg.spill, align 8, !dbg !2425
  call void @llvm.dbg.declare(metadata %"alloc::vec::Vec<u8>"** %ptr.dbg.spill, metadata !2383, metadata !DIExpression()), !dbg !2427
  store %"alloc::vec::Vec<u8>"* %_9, %"alloc::vec::Vec<u8>"** %self.dbg.spill6, align 8, !dbg !2401
  call void @llvm.dbg.declare(metadata %"alloc::vec::Vec<u8>"** %self.dbg.spill6, metadata !2399, metadata !DIExpression()), !dbg !2428
  %self7 = bitcast %"alloc::vec::Vec<u8>"* %_9 to i8*, !dbg !2428
  store i8* %self7, i8** %self.dbg.spill8, align 8, !dbg !2428
  call void @llvm.dbg.declare(metadata i8** %self.dbg.spill8, metadata !2429, metadata !DIExpression()), !dbg !2434
  %3 = bitcast {}** %1 to i64*, !dbg !2436
  store i64 0, i64* %3, align 8, !dbg !2436
  %data_address = load {}*, {}** %1, align 8, !dbg !2436
  store {}* %data_address, {}** %data_address.dbg.spill, align 8, !dbg !2436
  call void @llvm.dbg.declare(metadata {}** %data_address.dbg.spill, metadata !2390, metadata !DIExpression()), !dbg !2391
  br label %bb2, !dbg !2436

bb2:                                              ; preds = %start
  %4 = bitcast %"core::ptr::metadata::PtrComponents<u8>"* %_18 to {}**, !dbg !2391
  store {}* %data_address, {}** %4, align 8, !dbg !2391
  %5 = bitcast %"core::ptr::metadata::PtrRepr<u8>"* %_17 to %"core::ptr::metadata::PtrComponents<u8>"*, !dbg !2391
  %6 = bitcast %"core::ptr::metadata::PtrComponents<u8>"* %5 to i8*, !dbg !2391
  %7 = bitcast %"core::ptr::metadata::PtrComponents<u8>"* %_18 to i8*, !dbg !2391
  call void @llvm.memcpy.p0i8.p0i8.i64(i8* align 8 %6, i8* align 8 %7, i64 8, i1 false), !dbg !2391
  %8 = bitcast %"core::ptr::metadata::PtrRepr<u8>"* %_17 to i8**, !dbg !2391
  %other = load i8*, i8** %8, align 8, !dbg !2391
  store i8* %other, i8** %other.dbg.spill, align 8, !dbg !2391
  call void @llvm.dbg.declare(metadata i8** %other.dbg.spill, metadata !2433, metadata !DIExpression()), !dbg !2434
  %9 = icmp eq i8* %self7, %other, !dbg !2434
  %10 = zext i1 %9 to i8, !dbg !2434
  store i8 %10, i8* %0, align 1, !dbg !2434
  %11 = load i8, i8* %0, align 1, !dbg !2434, !range !394, !noundef !19
  %_5 = trunc i8 %11 to i1, !dbg !2434
  br label %bb3, !dbg !2434

bb3:                                              ; preds = %bb2
  %_4 = xor i1 %_5, true, !dbg !2442
  call void @llvm.assume(i1 %_4), !dbg !2443
  br label %bb1, !dbg !2443

bb1:                                              ; preds = %bb3
  ret %"alloc::vec::Vec<u8>"* %_9, !dbg !2444
}

; alloc::vec::Vec<T,A>::as_mut_ptr
; Function Attrs: inlinehint nonlazybind uwtable
define %"alloc::string::String"* @"_ZN5alloc3vec16Vec$LT$T$C$A$GT$10as_mut_ptr17h44fbfd7f7c84c396E"(%"alloc::vec::Vec<alloc::string::String>"* align 8 %self) unnamed_addr #0 !dbg !2445 {
start:
  %0 = alloca i8, align 1
  %other.dbg.spill = alloca i8*, align 8
  %data_address.dbg.spill = alloca {}*, align 8
  %1 = alloca {}*, align 8
  %self.dbg.spill8 = alloca i8*, align 8
  %self.dbg.spill6 = alloca %"alloc::string::String"*, align 8
  %ptr.dbg.spill = alloca %"alloc::string::String"*, align 8
  %self.dbg.spill5 = alloca i64*, align 8
  %self.dbg.spill4 = alloca i64*, align 8
  %self.dbg.spill2 = alloca { i64*, i64 }*, align 8
  %metadata.dbg.spill = alloca {}, align 1
  %self.dbg.spill = alloca %"alloc::vec::Vec<alloc::string::String>"*, align 8
  %_18 = alloca %"core::ptr::metadata::PtrComponents<u8>", align 8
  %_17 = alloca %"core::ptr::metadata::PtrRepr<u8>", align 8
  store %"alloc::vec::Vec<alloc::string::String>"* %self, %"alloc::vec::Vec<alloc::string::String>"** %self.dbg.spill, align 8
  call void @llvm.dbg.declare(metadata %"alloc::vec::Vec<alloc::string::String>"** %self.dbg.spill, metadata !2449, metadata !DIExpression()), !dbg !2452
  call void @llvm.dbg.declare(metadata {}* %metadata.dbg.spill, metadata !2453, metadata !DIExpression()), !dbg !2458
  %self1 = bitcast %"alloc::vec::Vec<alloc::string::String>"* %self to { i64*, i64 }*, !dbg !2469
  store { i64*, i64 }* %self1, { i64*, i64 }** %self.dbg.spill2, align 8, !dbg !2469
  call void @llvm.dbg.declare(metadata { i64*, i64 }** %self.dbg.spill2, metadata !2470, metadata !DIExpression()), !dbg !2477
  %2 = bitcast { i64*, i64 }* %self1 to i64**, !dbg !2477
  %self3 = load i64*, i64** %2, align 8, !dbg !2477, !nonnull !19, !noundef !19
  store i64* %self3, i64** %self.dbg.spill4, align 8, !dbg !2477
  call void @llvm.dbg.declare(metadata i64** %self.dbg.spill4, metadata !2478, metadata !DIExpression()), !dbg !2484
  store i64* %self3, i64** %self.dbg.spill5, align 8, !dbg !2484
  call void @llvm.dbg.declare(metadata i64** %self.dbg.spill5, metadata !2486, metadata !DIExpression()), !dbg !2492
  %_9 = bitcast i64* %self3 to %"alloc::string::String"*, !dbg !2492
  store %"alloc::string::String"* %_9, %"alloc::string::String"** %ptr.dbg.spill, align 8, !dbg !2492
  call void @llvm.dbg.declare(metadata %"alloc::string::String"** %ptr.dbg.spill, metadata !2450, metadata !DIExpression()), !dbg !2494
  store %"alloc::string::String"* %_9, %"alloc::string::String"** %self.dbg.spill6, align 8, !dbg !2468
  call void @llvm.dbg.declare(metadata %"alloc::string::String"** %self.dbg.spill6, metadata !2466, metadata !DIExpression()), !dbg !2495
  %self7 = bitcast %"alloc::string::String"* %_9 to i8*, !dbg !2495
  store i8* %self7, i8** %self.dbg.spill8, align 8, !dbg !2495
  call void @llvm.dbg.declare(metadata i8** %self.dbg.spill8, metadata !2496, metadata !DIExpression()), !dbg !2501
  %3 = bitcast {}** %1 to i64*, !dbg !2503
  store i64 0, i64* %3, align 8, !dbg !2503
  %data_address = load {}*, {}** %1, align 8, !dbg !2503
  store {}* %data_address, {}** %data_address.dbg.spill, align 8, !dbg !2503
  call void @llvm.dbg.declare(metadata {}** %data_address.dbg.spill, metadata !2457, metadata !DIExpression()), !dbg !2458
  br label %bb2, !dbg !2503

bb2:                                              ; preds = %start
  %4 = bitcast %"core::ptr::metadata::PtrComponents<u8>"* %_18 to {}**, !dbg !2458
  store {}* %data_address, {}** %4, align 8, !dbg !2458
  %5 = bitcast %"core::ptr::metadata::PtrRepr<u8>"* %_17 to %"core::ptr::metadata::PtrComponents<u8>"*, !dbg !2458
  %6 = bitcast %"core::ptr::metadata::PtrComponents<u8>"* %5 to i8*, !dbg !2458
  %7 = bitcast %"core::ptr::metadata::PtrComponents<u8>"* %_18 to i8*, !dbg !2458
  call void @llvm.memcpy.p0i8.p0i8.i64(i8* align 8 %6, i8* align 8 %7, i64 8, i1 false), !dbg !2458
  %8 = bitcast %"core::ptr::metadata::PtrRepr<u8>"* %_17 to i8**, !dbg !2458
  %other = load i8*, i8** %8, align 8, !dbg !2458
  store i8* %other, i8** %other.dbg.spill, align 8, !dbg !2458
  call void @llvm.dbg.declare(metadata i8** %other.dbg.spill, metadata !2500, metadata !DIExpression()), !dbg !2501
  %9 = icmp eq i8* %self7, %other, !dbg !2501
  %10 = zext i1 %9 to i8, !dbg !2501
  store i8 %10, i8* %0, align 1, !dbg !2501
  %11 = load i8, i8* %0, align 1, !dbg !2501, !range !394, !noundef !19
  %_5 = trunc i8 %11 to i1, !dbg !2501
  br label %bb3, !dbg !2501

bb3:                                              ; preds = %bb2
  %_4 = xor i1 %_5, true, !dbg !2509
  call void @llvm.assume(i1 %_4), !dbg !2510
  br label %bb1, !dbg !2510

bb1:                                              ; preds = %bb3
  ret %"alloc::string::String"* %_9, !dbg !2511
}

; alloc::vec::Vec<T,A>::as_mut_ptr
; Function Attrs: inlinehint nonlazybind uwtable
define i8* @"_ZN5alloc3vec16Vec$LT$T$C$A$GT$10as_mut_ptr17hcdf3ffb91c360be2E"(%"alloc::vec::Vec<u8>"* align 8 %self) unnamed_addr #0 !dbg !2512 {
start:
  %0 = alloca i8, align 1
  %other.dbg.spill = alloca i8*, align 8
  %data_address.dbg.spill = alloca {}*, align 8
  %1 = alloca {}*, align 8
  %self.dbg.spill7 = alloca i8*, align 8
  %self.dbg.spill6 = alloca i8*, align 8
  %ptr.dbg.spill = alloca i8*, align 8
  %self.dbg.spill5 = alloca i8*, align 8
  %self.dbg.spill4 = alloca i8*, align 8
  %self.dbg.spill2 = alloca { i8*, i64 }*, align 8
  %metadata.dbg.spill = alloca {}, align 1
  %self.dbg.spill = alloca %"alloc::vec::Vec<u8>"*, align 8
  %_18 = alloca %"core::ptr::metadata::PtrComponents<u8>", align 8
  %_17 = alloca %"core::ptr::metadata::PtrRepr<u8>", align 8
  store %"alloc::vec::Vec<u8>"* %self, %"alloc::vec::Vec<u8>"** %self.dbg.spill, align 8
  call void @llvm.dbg.declare(metadata %"alloc::vec::Vec<u8>"** %self.dbg.spill, metadata !2516, metadata !DIExpression()), !dbg !2519
  call void @llvm.dbg.declare(metadata {}* %metadata.dbg.spill, metadata !2520, metadata !DIExpression()), !dbg !2525
  %self1 = bitcast %"alloc::vec::Vec<u8>"* %self to { i8*, i64 }*, !dbg !2534
  store { i8*, i64 }* %self1, { i8*, i64 }** %self.dbg.spill2, align 8, !dbg !2534
  call void @llvm.dbg.declare(metadata { i8*, i64 }** %self.dbg.spill2, metadata !2535, metadata !DIExpression()), !dbg !2542
  %2 = bitcast { i8*, i64 }* %self1 to i8**, !dbg !2542
  %self3 = load i8*, i8** %2, align 8, !dbg !2542, !nonnull !19, !noundef !19
  store i8* %self3, i8** %self.dbg.spill4, align 8, !dbg !2542
  call void @llvm.dbg.declare(metadata i8** %self.dbg.spill4, metadata !2543, metadata !DIExpression()), !dbg !2547
  store i8* %self3, i8** %self.dbg.spill5, align 8, !dbg !2547
  call void @llvm.dbg.declare(metadata i8** %self.dbg.spill5, metadata !2549, metadata !DIExpression()), !dbg !2553
  store i8* %self3, i8** %ptr.dbg.spill, align 8, !dbg !2553
  call void @llvm.dbg.declare(metadata i8** %ptr.dbg.spill, metadata !2517, metadata !DIExpression()), !dbg !2555
  store i8* %self3, i8** %self.dbg.spill6, align 8, !dbg !2533
  call void @llvm.dbg.declare(metadata i8** %self.dbg.spill6, metadata !2531, metadata !DIExpression()), !dbg !2556
  store i8* %self3, i8** %self.dbg.spill7, align 8, !dbg !2556
  call void @llvm.dbg.declare(metadata i8** %self.dbg.spill7, metadata !2557, metadata !DIExpression()), !dbg !2562
  %3 = bitcast {}** %1 to i64*, !dbg !2564
  store i64 0, i64* %3, align 8, !dbg !2564
  %data_address = load {}*, {}** %1, align 8, !dbg !2564
  store {}* %data_address, {}** %data_address.dbg.spill, align 8, !dbg !2564
  call void @llvm.dbg.declare(metadata {}** %data_address.dbg.spill, metadata !2524, metadata !DIExpression()), !dbg !2525
  br label %bb2, !dbg !2564

bb2:                                              ; preds = %start
  %4 = bitcast %"core::ptr::metadata::PtrComponents<u8>"* %_18 to {}**, !dbg !2525
  store {}* %data_address, {}** %4, align 8, !dbg !2525
  %5 = bitcast %"core::ptr::metadata::PtrRepr<u8>"* %_17 to %"core::ptr::metadata::PtrComponents<u8>"*, !dbg !2525
  %6 = bitcast %"core::ptr::metadata::PtrComponents<u8>"* %5 to i8*, !dbg !2525
  %7 = bitcast %"core::ptr::metadata::PtrComponents<u8>"* %_18 to i8*, !dbg !2525
  call void @llvm.memcpy.p0i8.p0i8.i64(i8* align 8 %6, i8* align 8 %7, i64 8, i1 false), !dbg !2525
  %8 = bitcast %"core::ptr::metadata::PtrRepr<u8>"* %_17 to i8**, !dbg !2525
  %other = load i8*, i8** %8, align 8, !dbg !2525
  store i8* %other, i8** %other.dbg.spill, align 8, !dbg !2525
  call void @llvm.dbg.declare(metadata i8** %other.dbg.spill, metadata !2561, metadata !DIExpression()), !dbg !2562
  %9 = icmp eq i8* %self3, %other, !dbg !2562
  %10 = zext i1 %9 to i8, !dbg !2562
  store i8 %10, i8* %0, align 1, !dbg !2562
  %11 = load i8, i8* %0, align 1, !dbg !2562, !range !394, !noundef !19
  %_5 = trunc i8 %11 to i1, !dbg !2562
  br label %bb3, !dbg !2562

bb3:                                              ; preds = %bb2
  %_4 = xor i1 %_5, true, !dbg !2570
  call void @llvm.assume(i1 %_4), !dbg !2571
  br label %bb1, !dbg !2571

bb1:                                              ; preds = %bb3
  ret i8* %self3, !dbg !2572
}

; alloc::vec::Vec<T,A>::append_elements
; Function Attrs: inlinehint nonlazybind uwtable
define void @"_ZN5alloc3vec16Vec$LT$T$C$A$GT$15append_elements17hb2969b658d1a96daE"(%"alloc::vec::Vec<u8>"* align 8 %self, [0 x i8]* %other.0, i64 %other.1) unnamed_addr #0 !dbg !2573 {
start:
  %count.dbg.spill7 = alloca i64, align 8
  %dst.dbg.spill = alloca i8*, align 8
  %0 = alloca i8*, align 8
  %count.dbg.spill6 = alloca i64, align 8
  %self.dbg.spill5 = alloca i8*, align 8
  %count.dbg.spill4 = alloca i64, align 8
  %self.dbg.spill3 = alloca i8*, align 8
  %src.dbg.spill = alloca i8*, align 8
  %len.dbg.spill = alloca i64, align 8
  %self.dbg.spill1 = alloca %"alloc::vec::Vec<u8>"*, align 8
  %count.dbg.spill = alloca i64, align 8
  %other.dbg.spill = alloca { [0 x i8]*, i64 }, align 8
  %self.dbg.spill = alloca %"alloc::vec::Vec<u8>"*, align 8
  %runtime = alloca %"[closure@core::intrinsics::copy_nonoverlapping<u8>::{closure#0}]", align 8
  store %"alloc::vec::Vec<u8>"* %self, %"alloc::vec::Vec<u8>"** %self.dbg.spill, align 8
  call void @llvm.dbg.declare(metadata %"alloc::vec::Vec<u8>"** %self.dbg.spill, metadata !2577, metadata !DIExpression()), !dbg !2583
  %1 = getelementptr inbounds { [0 x i8]*, i64 }, { [0 x i8]*, i64 }* %other.dbg.spill, i32 0, i32 0
  store [0 x i8]* %other.0, [0 x i8]** %1, align 8
  %2 = getelementptr inbounds { [0 x i8]*, i64 }, { [0 x i8]*, i64 }* %other.dbg.spill, i32 0, i32 1
  store i64 %other.1, i64* %2, align 8
  call void @llvm.dbg.declare(metadata { [0 x i8]*, i64 }* %other.dbg.spill, metadata !2578, metadata !DIExpression()), !dbg !2584
  call void @llvm.dbg.declare(metadata %"[closure@core::intrinsics::copy_nonoverlapping<u8>::{closure#0}]"* %runtime, metadata !2585, metadata !DIExpression()), !dbg !2604
  store i64 %other.1, i64* %count.dbg.spill, align 8, !dbg !2606
  call void @llvm.dbg.declare(metadata i64* %count.dbg.spill, metadata !2579, metadata !DIExpression()), !dbg !2607
; call alloc::vec::Vec<T,A>::reserve
  call void @"_ZN5alloc3vec16Vec$LT$T$C$A$GT$7reserve17hbfb27bc36448b560E"(%"alloc::vec::Vec<u8>"* align 8 %self, i64 %other.1), !dbg !2608
  br label %bb1, !dbg !2608

bb1:                                              ; preds = %start
  store %"alloc::vec::Vec<u8>"* %self, %"alloc::vec::Vec<u8>"** %self.dbg.spill1, align 8, !dbg !2609
  call void @llvm.dbg.declare(metadata %"alloc::vec::Vec<u8>"** %self.dbg.spill1, metadata !2610, metadata !DIExpression()), !dbg !2616
  %3 = getelementptr inbounds %"alloc::vec::Vec<u8>", %"alloc::vec::Vec<u8>"* %self, i32 0, i32 1, !dbg !2616
  %len = load i64, i64* %3, align 8, !dbg !2616
  store i64 %len, i64* %len.dbg.spill, align 8, !dbg !2616
  call void @llvm.dbg.declare(metadata i64* %len.dbg.spill, metadata !2581, metadata !DIExpression()), !dbg !2617
  %src = bitcast [0 x i8]* %other.0 to i8*, !dbg !2618
  store i8* %src, i8** %src.dbg.spill, align 8, !dbg !2618
  call void @llvm.dbg.declare(metadata i8** %src.dbg.spill, metadata !2593, metadata !DIExpression()), !dbg !2619
; call alloc::vec::Vec<T,A>::as_mut_ptr
  %self2 = call i8* @"_ZN5alloc3vec16Vec$LT$T$C$A$GT$10as_mut_ptr17hcdf3ffb91c360be2E"(%"alloc::vec::Vec<u8>"* align 8 %self), !dbg !2620
  store i8* %self2, i8** %self.dbg.spill3, align 8, !dbg !2620
  call void @llvm.dbg.declare(metadata i8** %self.dbg.spill3, metadata !2621, metadata !DIExpression()), !dbg !2628
  br label %bb2, !dbg !2620

bb2:                                              ; preds = %bb1
  store i64 %len, i64* %count.dbg.spill4, align 8, !dbg !2629
  call void @llvm.dbg.declare(metadata i64* %count.dbg.spill4, metadata !2627, metadata !DIExpression()), !dbg !2628
  store i8* %self2, i8** %self.dbg.spill5, align 8, !dbg !2628
  call void @llvm.dbg.declare(metadata i8** %self.dbg.spill5, metadata !2630, metadata !DIExpression()), !dbg !2637
  store i64 %len, i64* %count.dbg.spill6, align 8, !dbg !2628
  call void @llvm.dbg.declare(metadata i64* %count.dbg.spill6, metadata !2636, metadata !DIExpression()), !dbg !2637
  %4 = getelementptr inbounds i8, i8* %self2, i64 %len, !dbg !2637
  store i8* %4, i8** %0, align 8, !dbg !2637
  %_21 = load i8*, i8** %0, align 8, !dbg !2637
  br label %bb3, !dbg !2637

bb3:                                              ; preds = %bb2
  store i8* %_21, i8** %dst.dbg.spill, align 8, !dbg !2637
  call void @llvm.dbg.declare(metadata i8** %dst.dbg.spill, metadata !2595, metadata !DIExpression()), !dbg !2619
  store i64 %other.1, i64* %count.dbg.spill7, align 8, !dbg !2639
  call void @llvm.dbg.declare(metadata i64* %count.dbg.spill7, metadata !2596, metadata !DIExpression()), !dbg !2619
  %5 = mul i64 %other.1, 1, !dbg !2619
  call void @llvm.memcpy.p0i8.p0i8.i64(i8* align 1 %_21, i8* align 1 %src, i64 %5, i1 false), !dbg !2619
  %6 = getelementptr inbounds %"alloc::vec::Vec<u8>", %"alloc::vec::Vec<u8>"* %self, i32 0, i32 1, !dbg !2640
  %7 = getelementptr inbounds %"alloc::vec::Vec<u8>", %"alloc::vec::Vec<u8>"* %self, i32 0, i32 1, !dbg !2640
  %8 = load i64, i64* %7, align 8, !dbg !2640
  %9 = add i64 %8, %other.1, !dbg !2640
  store i64 %9, i64* %6, align 8, !dbg !2640
  ret void, !dbg !2641
}

; alloc::vec::Vec<T,A>::extend_desugared
; Function Attrs: nonlazybind uwtable
define void @"_ZN5alloc3vec16Vec$LT$T$C$A$GT$16extend_desugared17he1ab28677aee018aE"(%"alloc::vec::Vec<alloc::vec::Vec<u8>>"* align 8 %self, %"bytes::Shlex"* align 8 %0) unnamed_addr #1 personality i32 (i32, i32, i64, %"unwind::libunwind::_Unwind_Exception"*, %"unwind::libunwind::_Unwind_Context"*)* @rust_eh_personality !dbg !2642 {
start:
  %new_len.dbg.spill = alloca i64, align 8
  %self.dbg.spill11 = alloca %"alloc::vec::Vec<alloc::vec::Vec<u8>>"*, align 8
  %dst.dbg.spill = alloca %"alloc::vec::Vec<u8>"*, align 8
  %1 = alloca %"alloc::vec::Vec<u8>"*, align 8
  %count.dbg.spill10 = alloca i64, align 8
  %self.dbg.spill9 = alloca %"alloc::vec::Vec<u8>"*, align 8
  %count.dbg.spill = alloca i64, align 8
  %self.dbg.spill8 = alloca %"alloc::vec::Vec<u8>"*, align 8
  %2 = alloca i64, align 8
  %self.dbg.spill6 = alloca i64, align 8
  %lower.dbg.spill = alloca i64, align 8
  %self.dbg.spill4 = alloca { i64*, i64 }*, align 8
  %self.dbg.spill2 = alloca %"alloc::vec::Vec<alloc::vec::Vec<u8>>"*, align 8
  %len.dbg.spill = alloca i64, align 8
  %self.dbg.spill1 = alloca %"alloc::vec::Vec<alloc::vec::Vec<u8>>"*, align 8
  %3 = alloca { i8*, i32 }, align 8
  %self.dbg.spill = alloca %"alloc::vec::Vec<alloc::vec::Vec<u8>>"*, align 8
  %src = alloca %"alloc::vec::Vec<u8>", align 8
  %_14 = alloca { i64, { i64, i64 } }, align 8
  %_11 = alloca i64, align 8
  %element = alloca %"alloc::vec::Vec<u8>", align 8
  %_3 = alloca %"core::option::Option<alloc::vec::Vec<u8>>", align 8
  %iterator = alloca %"bytes::Shlex"*, align 8
  store %"bytes::Shlex"* %0, %"bytes::Shlex"** %iterator, align 8
  store %"alloc::vec::Vec<alloc::vec::Vec<u8>>"* %self, %"alloc::vec::Vec<alloc::vec::Vec<u8>>"** %self.dbg.spill, align 8
  call void @llvm.dbg.declare(metadata %"alloc::vec::Vec<alloc::vec::Vec<u8>>"** %self.dbg.spill, metadata !2646, metadata !DIExpression()), !dbg !2655
  call void @llvm.dbg.declare(metadata %"bytes::Shlex"** %iterator, metadata !2647, metadata !DIExpression()), !dbg !2656
  call void @llvm.dbg.declare(metadata %"alloc::vec::Vec<u8>"* %element, metadata !2648, metadata !DIExpression()), !dbg !2657
  call void @llvm.dbg.declare(metadata %"alloc::vec::Vec<u8>"* %src, metadata !2658, metadata !DIExpression()), !dbg !2663
  br label %bb1, !dbg !2665

bb1:                                              ; preds = %bb20, %start
; invoke <&mut I as core::iter::traits::iterator::Iterator>::next
  invoke void @"_ZN72_$LT$$RF$mut$u20$I$u20$as$u20$core..iter..traits..iterator..Iterator$GT$4next17h795a6a2b04c995d4E"(%"core::option::Option<alloc::vec::Vec<u8>>"* sret(%"core::option::Option<alloc::vec::Vec<u8>>") %_3, %"bytes::Shlex"** align 8 %iterator)
          to label %bb2 unwind label %cleanup, !dbg !2666

bb12:                                             ; preds = %bb14, %bb15, %cleanup
  br label %bb13, !dbg !2667

cleanup:                                          ; preds = %bb9, %bb1
  %4 = landingpad { i8*, i32 }
          cleanup
  %5 = extractvalue { i8*, i32 } %4, 0
  %6 = extractvalue { i8*, i32 } %4, 1
  %7 = getelementptr inbounds { i8*, i32 }, { i8*, i32 }* %3, i32 0, i32 0
  store i8* %5, i8** %7, align 8
  %8 = getelementptr inbounds { i8*, i32 }, { i8*, i32 }* %3, i32 0, i32 1
  store i32 %6, i32* %8, align 8
  br label %bb12

bb2:                                              ; preds = %bb1
  %9 = bitcast %"core::option::Option<alloc::vec::Vec<u8>>"* %_3 to {}**, !dbg !2668
  %10 = load {}*, {}** %9, align 8, !dbg !2668
  %11 = icmp eq {}* %10, null, !dbg !2668
  %_5 = select i1 %11, i64 0, i64 1, !dbg !2668
  %12 = icmp eq i64 %_5, 1, !dbg !2668
  br i1 %12, label %bb3, label %bb9, !dbg !2668

bb3:                                              ; preds = %bb2
