; ModuleID = '2076py8myczs9uv7'
source_filename = "2076py8myczs9uv7"
target datalayout = "e-m:e-p270:32:32-p271:32:32-p272:64:64-i64:64-f80:128-n8:16:32:64-S128"
target triple = "x86_64-unknown-linux-gnu"

%"core::fmt::Formatter" = type { { i64, i64 }, { i64, i64 }, { {}*, [3 x i64]* }, i32, i32, i8, [7 x i8] }
%"core::fmt::builders::DebugList" = type { %"core::fmt::builders::DebugInner" }
%"core::fmt::builders::DebugInner" = type { %"core::fmt::Formatter"*, i8, i8, [6 x i8] }
%"core::ffi::c_str::CStr" = type { [0 x i8] }
%"core::fmt::Opaque" = type {}
%"core::fmt::Arguments" = type { { [0 x { [0 x i8]*, i64 }]*, i64 }, { i64*, i64 }, { [0 x { i8*, i64* }]*, i64 } }
%"core::panic::location::Location" = type { { [0 x i8]*, i64 }, i32, i32 }
%"[closure@src/test_idiomatic_control_flow.rs:5:1: 12:2]" = type {}
%"[closure@src/test_stmt_expr.rs:6:1: 13:2]" = type {}
%"[closure@src/test_translation_only.rs:9:1: 9:25]" = type {}
%"[closure@src/test_duffs.rs:5:1: 14:2]" = type {}
%"alloc::string::String" = type { %"alloc::vec::Vec<u8>" }
%"alloc::vec::Vec<u8>" = type { { i8*, i64 }, i64 }
%"[closure@src/test_irreducible.rs:10:1: 16:2]" = type {}
%"[closure@src/test_idiomatic_control_flow.rs:15:1: 23:2]" = type {}
%"[closure@src/test_early_returns.rs:4:1: 11:2]" = type {}
%"[closure@src/test_dfa_multiple_three.rs:7:1: 19:2]" = type {}
%"alloc::ffi::c_str::NulError" = type { i64, %"alloc::vec::Vec<u8>" }
%"core::ptr::metadata::PtrComponents<u8>" = type { {}*, {} }
%"core::ptr::metadata::PtrRepr<u8>" = type { [1 x i64] }
%"core::alloc::layout::LayoutError" = type {}
%"core::result::Result<core::convert::Infallible, core::alloc::layout::LayoutError>::Err" = type { %"core::alloc::layout::LayoutError" }
%"core::ops::range::RangeFull" = type {}
%"core::result::Result<alloc::ffi::c_str::CString, alloc::ffi::c_str::NulError>" = type { i64, [4 x i64] }
%"core::result::Result<alloc::ffi::c_str::CString, alloc::ffi::c_str::NulError>::Ok" = type { [1 x i64], { i8*, i64 } }
%"core::result::Result<alloc::ffi::c_str::CString, alloc::ffi::c_str::NulError>::Err" = type { [1 x i64], %"alloc::ffi::c_str::NulError" }
%"core::option::Option<core::fmt::Arguments>" = type { {}*, [5 x i64] }
%"core::option::Option<core::fmt::Arguments>::Some" = type { %"core::fmt::Arguments" }
%"core::alloc::AllocError" = type {}
%"alloc::alloc::Global" = type {}
%"core::ptr::metadata::PtrRepr<[u8]>" = type { [2 x i64] }
%"[closure@core::intrinsics::copy_nonoverlapping<u8>::{closure#0}]" = type { i8**, i8**, i64* }
%"core::result::Result<core::convert::Infallible, core::alloc::AllocError>::Err" = type { %"core::alloc::AllocError" }
%"core::option::Option<(core::ptr::non_null::NonNull<u8>, core::alloc::layout::Layout)>" = type { [2 x i64], i64 }
%"core::option::Option<(core::ptr::non_null::NonNull<u8>, core::alloc::layout::Layout)>::Some" = type { { i8*, { i64, i64 } } }
%"test::types::TestDescAndFn" = type { %"test::types::TestDesc", %"test::types::TestFn" }
%"test::types::TestDesc" = type { %"test::types::TestName", { i8*, i64 }, %"test::options::ShouldPanic", i8, i8, i8, i8, [4 x i8] }
%"test::types::TestName" = type { i8, [39 x i8] }
%"test::options::ShouldPanic" = type { i64, [2 x i64] }
%"test::types::TestFn" = type { i64, [2 x i64] }
%"unwind::libunwind::_Unwind_Exception" = type { i64, void (i32, %"unwind::libunwind::_Unwind_Exception"*)*, [6 x i64] }
%"unwind::libunwind::_Unwind_Context" = type { [0 x i8] }

@vtable.0 = private unnamed_addr constant <{ i8*, [16 x i8], i8*, i8*, i8* }> <{ i8* bitcast (void (i64**)* @"_ZN4core3ptr85drop_in_place$LT$std..rt..lang_start$LT$$LP$$RP$$GT$..$u7b$$u7b$closure$u7d$$u7d$$GT$17h66a0341b7420693cE" to i8*), [16 x i8] c"\08\00\00\00\00\00\00\00\08\00\00\00\00\00\00\00", i8* bitcast (i32 (i64**)* @"_ZN4core3ops8function6FnOnce40call_once$u7b$$u7b$vtable.shim$u7d$$u7d$17h62b1764724310aa1E" to i8*), i8* bitcast (i32 (i64**)* @"_ZN3std2rt10lang_start28_$u7b$$u7b$closure$u7d$$u7d$17haa57050192edbacaE" to i8*), i8* bitcast (i32 (i64**)* @"_ZN3std2rt10lang_start28_$u7b$$u7b$closure$u7d$$u7d$17haa57050192edbacaE" to i8*) }>, align 8, !dbg !0
@vtable.1 = private unnamed_addr constant <{ i8*, [16 x i8], i8* }> <{ i8* bitcast (void (i32**)* @"_ZN4core3ptr28drop_in_place$LT$$RF$i32$GT$17hc9fede581f1ac710E" to i8*), [16 x i8] c"\08\00\00\00\00\00\00\00\08\00\00\00\00\00\00\00", i8* bitcast (i1 (i32**, %"core::fmt::Formatter"*)* @"_ZN42_$LT$$RF$T$u20$as$u20$core..fmt..Debug$GT$3fmt17h98cdf893fb0a1ac0E" to i8*) }>, align 8, !dbg !24
@alloc97 = private unnamed_addr constant <{}> zeroinitializer, align 8
@alloc157 = private unnamed_addr constant <{ [12 x i8] }> <{ [12 x i8] c"invalid args" }>, align 1
@alloc158 = private unnamed_addr constant <{ i8*, [8 x i8] }> <{ i8* getelementptr inbounds (<{ [12 x i8] }>, <{ [12 x i8] }>* @alloc157, i32 0, i32 0, i32 0), [8 x i8] c"\0C\00\00\00\00\00\00\00" }>, align 8
@alloc526 = private unnamed_addr constant <{ [75 x i8] }> <{ [75 x i8] c"/rustc/d394408fb38c4de61f765a3ed5189d2731a1da91/library/core/src/fmt/mod.rs" }>, align 1
@alloc527 = private unnamed_addr constant <{ i8*, [16 x i8] }> <{ i8* getelementptr inbounds (<{ [75 x i8] }>, <{ [75 x i8] }>* @alloc526, i32 0, i32 0, i32 0), [16 x i8] c"K\00\00\00\00\00\00\00\88\01\00\00\0D\00\00\00" }>, align 8
@alloc528 = private unnamed_addr constant <{ [43 x i8] }> <{ [43 x i8] c"called `Result::unwrap()` on an `Err` value" }>, align 1
@vtable.2 = private unnamed_addr constant <{ i8*, [16 x i8], i8* }> <{ i8* bitcast (void (%"alloc::ffi::c_str::NulError"*)* @"_ZN4core3ptr48drop_in_place$LT$alloc..ffi..c_str..NulError$GT$17h2550d1f7b9ebeafbE" to i8*), [16 x i8] c" \00\00\00\00\00\00\00\08\00\00\00\00\00\00\00", i8* bitcast (i1 (%"alloc::ffi::c_str::NulError"*, %"core::fmt::Formatter"*)* @"_ZN64_$LT$alloc..ffi..c_str..NulError$u20$as$u20$core..fmt..Debug$GT$3fmt17ha6ddf2cfa3845ef5E" to i8*) }>, align 8, !dbg !34
@vtable.3 = private unnamed_addr constant <{ i8*, [16 x i8], i8* }> <{ i8* bitcast (void ([20 x i32]**)* @"_ZN4core3ptr50drop_in_place$LT$$RF$$u5b$i32$u3b$$u20$20$u5d$$GT$17h44ea58f06ce4b036E" to i8*), [16 x i8] c"\08\00\00\00\00\00\00\00\08\00\00\00\00\00\00\00", i8* bitcast (i1 ([20 x i32]**, %"core::fmt::Formatter"*)* @"_ZN42_$LT$$RF$T$u20$as$u20$core..fmt..Debug$GT$3fmt17h90b6e323157f0ed7E" to i8*) }>, align 8, !dbg !81
@alloc402 = private unnamed_addr constant <{ [4 x i8] }> zeroinitializer, align 4
@alloc172 = private unnamed_addr constant <{ [67 x i8] }> <{ [67 x i8] c"the test returned a termination value with a non-zero status code (" }>, align 1
@alloc174 = private unnamed_addr constant <{ [27 x i8] }> <{ [27 x i8] c") which indicates a failure" }>, align 1
@alloc173 = private unnamed_addr constant <{ i8*, [8 x i8], i8*, [8 x i8] }> <{ i8* getelementptr inbounds (<{ [67 x i8] }>, <{ [67 x i8] }>* @alloc172, i32 0, i32 0, i32 0), [8 x i8] c"C\00\00\00\00\00\00\00", i8* getelementptr inbounds (<{ [27 x i8] }>, <{ [27 x i8] }>* @alloc174, i32 0, i32 0, i32 0), [8 x i8] c"\1B\00\00\00\00\00\00\00" }>, align 8
@alloc535 = private unnamed_addr constant <{ [71 x i8] }> <{ [71 x i8] c"/rustc/d394408fb38c4de61f765a3ed5189d2731a1da91/library/test/src/lib.rs" }>, align 1
@alloc536 = private unnamed_addr constant <{ i8*, [16 x i8] }> <{ i8* getelementptr inbounds (<{ [71 x i8] }>, <{ [71 x i8] }>* @alloc535, i32 0, i32 0, i32 0), [16 x i8] c"G\00\00\00\00\00\00\00\B8\00\00\00\05\00\00\00" }>, align 8
@alloc537 = private unnamed_addr constant <{ [78 x i8] }> <{ [78 x i8] c"/rustc/d394408fb38c4de61f765a3ed5189d2731a1da91/library/core/src/slice/iter.rs" }>, align 1
@alloc538 = private unnamed_addr constant <{ i8*, [16 x i8] }> <{ i8* getelementptr inbounds (<{ [78 x i8] }>, <{ [78 x i8] }>* @alloc537, i32 0, i32 0, i32 0), [16 x i8] c"N\00\00\00\00\00\00\00\87\00\00\00\01\00\00\00" }>, align 8
@str.4 = internal constant [28 x i8] c"attempt to add with overflow"
@alloc539 = private unnamed_addr constant <{ [20 x i8] }> <{ [20 x i8] c"src/early_returns.rs" }>, align 1
@alloc540 = private unnamed_addr constant <{ i8*, [16 x i8] }> <{ i8* getelementptr inbounds (<{ [20 x i8] }>, <{ [20 x i8] }>* @alloc539, i32 0, i32 0, i32 0), [16 x i8] c"\14\00\00\00\00\00\00\00\10\00\00\00\09\00\00\00" }>, align 8
@alloc547 = private unnamed_addr constant <{ [23 x i8] }> <{ [23 x i8] c"src/idiomatic_switch.rs" }>, align 1
@alloc542 = private unnamed_addr constant <{ i8*, [16 x i8] }> <{ i8* getelementptr inbounds (<{ [23 x i8] }>, <{ [23 x i8] }>* @alloc547, i32 0, i32 0, i32 0), [16 x i8] c"\17\00\00\00\00\00\00\00\0E\00\00\00\0B\00\00\00" }>, align 8
@alloc544 = private unnamed_addr constant <{ i8*, [16 x i8] }> <{ i8* getelementptr inbounds (<{ [23 x i8] }>, <{ [23 x i8] }>* @alloc547, i32 0, i32 0, i32 0), [16 x i8] c"\17\00\00\00\00\00\00\00\16\00\00\00\0D\00\00\00" }>, align 8
@alloc546 = private unnamed_addr constant <{ i8*, [16 x i8] }> <{ i8* getelementptr inbounds (<{ [23 x i8] }>, <{ [23 x i8] }>* @alloc547, i32 0, i32 0, i32 0), [16 x i8] c"\17\00\00\00\00\00\00\00\13\00\00\00\0D\00\00\00" }>, align 8
@alloc548 = private unnamed_addr constant <{ i8*, [16 x i8] }> <{ i8* getelementptr inbounds (<{ [23 x i8] }>, <{ [23 x i8] }>* @alloc547, i32 0, i32 0, i32 0), [16 x i8] c"\17\00\00\00\00\00\00\00\10\00\00\00\0D\00\00\00" }>, align 8
@alloc551 = private unnamed_addr constant <{ [29 x i8] }> <{ [29 x i8] c"src/idiomatic_nested_loops.rs" }>, align 1
@alloc550 = private unnamed_addr constant <{ i8*, [16 x i8] }> <{ i8* getelementptr inbounds (<{ [29 x i8] }>, <{ [29 x i8] }>* @alloc551, i32 0, i32 0, i32 0), [16 x i8] c"\1D\00\00\00\00\00\00\00\12\00\00\00\15\00\00\00" }>, align 8
@alloc552 = private unnamed_addr constant <{ i8*, [16 x i8] }> <{ i8* getelementptr inbounds (<{ [29 x i8] }>, <{ [29 x i8] }>* @alloc551, i32 0, i32 0, i32 0), [16 x i8] c"\1D\00\00\00\00\00\00\00\18\00\00\00\05\00\00\00" }>, align 8
@alloc557 = private unnamed_addr constant <{ [12 x i8] }> <{ [12 x i8] c"src/duffs.rs" }>, align 1
@alloc554 = private unnamed_addr constant <{ i8*, [16 x i8] }> <{ i8* getelementptr inbounds (<{ [12 x i8] }>, <{ [12 x i8] }>* @alloc557, i32 0, i32 0, i32 0), [16 x i8] c"\0C\00\00\00\00\00\00\00\10\00\00\00\22\00\00\00" }>, align 8
@str.5 = internal constant [31 x i8] c"attempt to divide with overflow"
@alloc556 = private unnamed_addr constant <{ i8*, [16 x i8] }> <{ i8* getelementptr inbounds (<{ [12 x i8] }>, <{ [12 x i8] }>* @alloc557, i32 0, i32 0, i32 0), [16 x i8] c"\0C\00\00\00\00\00\00\00\12\00\00\00\0B\00\00\00" }>, align 8
@str.6 = internal constant [48 x i8] c"attempt to calculate the remainder with overflow"
@alloc558 = private unnamed_addr constant <{ i8*, [16 x i8] }> <{ i8* getelementptr inbounds (<{ [12 x i8] }>, <{ [12 x i8] }>* @alloc557, i32 0, i32 0, i32 0), [16 x i8] c"\0C\00\00\00\00\00\00\00r\00\00\00\11\00\00\00" }>, align 8
@str.7 = internal constant [33 x i8] c"attempt to subtract with overflow"
@alloc569 = private unnamed_addr constant <{ [16 x i8] }> <{ [16 x i8] c"src/stmt_expr.rs" }>, align 1
@alloc560 = private unnamed_addr constant <{ i8*, [16 x i8] }> <{ i8* getelementptr inbounds (<{ [16 x i8] }>, <{ [16 x i8] }>* @alloc569, i32 0, i32 0, i32 0), [16 x i8] c"\10\00\00\00\00\00\00\00\15\00\00\00\11\00\00\00" }>, align 8
@alloc562 = private unnamed_addr constant <{ i8*, [16 x i8] }> <{ i8* getelementptr inbounds (<{ [16 x i8] }>, <{ [16 x i8] }>* @alloc569, i32 0, i32 0, i32 0), [16 x i8] c"\10\00\00\00\00\00\00\00\16\00\00\00\11\00\00\00" }>, align 8
@alloc564 = private unnamed_addr constant <{ i8*, [16 x i8] }> <{ i8* getelementptr inbounds (<{ [16 x i8] }>, <{ [16 x i8] }>* @alloc569, i32 0, i32 0, i32 0), [16 x i8] c"\10\00\00\00\00\00\00\00\10\00\00\00\11\00\00\00" }>, align 8
@alloc566 = private unnamed_addr constant <{ i8*, [16 x i8] }> <{ i8* getelementptr inbounds (<{ [16 x i8] }>, <{ [16 x i8] }>* @alloc569, i32 0, i32 0, i32 0), [16 x i8] c"\10\00\00\00\00\00\00\00\19\00\00\00\09\00\00\00" }>, align 8
@alloc568 = private unnamed_addr constant <{ i8*, [16 x i8] }> <{ i8* getelementptr inbounds (<{ [16 x i8] }>, <{ [16 x i8] }>* @alloc569, i32 0, i32 0, i32 0), [16 x i8] c"\10\00\00\00\00\00\00\00\1A\00\00\00\09\00\00\00" }>, align 8
@alloc570 = private unnamed_addr constant <{ i8*, [16 x i8] }> <{ i8* getelementptr inbounds (<{ [16 x i8] }>, <{ [16 x i8] }>* @alloc569, i32 0, i32 0, i32 0), [16 x i8] c"\10\00\00\00\00\00\00\00\1C\00\00\00\0C\00\00\00" }>, align 8
@alloc575 = private unnamed_addr constant <{ [18 x i8] }> <{ [18 x i8] c"src/irreducible.rs" }>, align 1
@alloc572 = private unnamed_addr constant <{ i8*, [16 x i8] }> <{ i8* getelementptr inbounds (<{ [18 x i8] }>, <{ [18 x i8] }>* @alloc575, i32 0, i32 0, i32 0), [16 x i8] c"\12\00\00\00\00\00\00\00\0F\00\00\00\0D\00\00\00" }>, align 8
@alloc574 = private unnamed_addr constant <{ i8*, [16 x i8] }> <{ i8* getelementptr inbounds (<{ [18 x i8] }>, <{ [18 x i8] }>* @alloc575, i32 0, i32 0, i32 0), [16 x i8] c"\12\00\00\00\00\00\00\00!\00\00\00\15\00\00\00" }>, align 8
@alloc576 = private unnamed_addr constant <{ i8*, [16 x i8] }> <{ i8* getelementptr inbounds (<{ [18 x i8] }>, <{ [18 x i8] }>* @alloc575, i32 0, i32 0, i32 0), [16 x i8] c"\12\00\00\00\00\00\00\00&\00\00\00\09\00\00\00" }>, align 8
@alloc98 = private unnamed_addr constant <{ i8*, [8 x i8] }> <{ i8* bitcast (<{}>* @alloc97 to i8*), [8 x i8] zeroinitializer }>, align 8
@alloc90 = private unnamed_addr constant <{ [4 x i8] }> <{ [4 x i8] c"\ABW\CF\00" }>, align 4
@alloc592 = private unnamed_addr constant <{ [30 x i8] }> <{ [30 x i8] c"src/test_dfa_multiple_three.rs" }>, align 1
@alloc578 = private unnamed_addr constant <{ i8*, [16 x i8] }> <{ i8* getelementptr inbounds (<{ [30 x i8] }>, <{ [30 x i8] }>* @alloc592, i32 0, i32 0, i32 0), [16 x i8] c"\1E\00\00\00\00\00\00\00\08\00\00\00=\00\00\00" }>, align 8
@alloc95 = private unnamed_addr constant <{ [4 x i8] }> <{ [4 x i8] c"'\E8\B2\0B" }>, align 4
@alloc580 = private unnamed_addr constant <{ i8*, [16 x i8] }> <{ i8* getelementptr inbounds (<{ [30 x i8] }>, <{ [30 x i8] }>* @alloc592, i32 0, i32 0, i32 0), [16 x i8] c"\1E\00\00\00\00\00\00\00\09\00\00\00>\00\00\00" }>, align 8
@alloc100 = private unnamed_addr constant <{ [4 x i8] }> <{ [4 x i8] c"\BF\B0\89\11" }>, align 4
@alloc582 = private unnamed_addr constant <{ i8*, [16 x i8] }> <{ i8* getelementptr inbounds (<{ [30 x i8] }>, <{ [30 x i8] }>* @alloc592, i32 0, i32 0, i32 0), [16 x i8] c"\1E\00\00\00\00\00\00\00\0A\00\00\00>\00\00\00" }>, align 8
@alloc583 = private unnamed_addr constant <{ [18 x i8] }> <{ [18 x i8] c"010100150101010001" }>, align 1
@alloc585 = private unnamed_addr constant <{ i8*, [16 x i8] }> <{ i8* getelementptr inbounds (<{ [30 x i8] }>, <{ [30 x i8] }>* @alloc592, i32 0, i32 0, i32 0), [16 x i8] c"\1E\00\00\00\00\00\00\00\0B\00\00\001\00\00\00" }>, align 8
@alloc396 = private unnamed_addr constant <{ [4 x i8] }> <{ [4 x i8] c"\01\00\00\00" }>, align 4
@alloc587 = private unnamed_addr constant <{ i8*, [16 x i8] }> <{ i8* getelementptr inbounds (<{ [30 x i8] }>, <{ [30 x i8] }>* @alloc592, i32 0, i32 0, i32 0), [16 x i8] c"\1E\00\00\00\00\00\00\00\0E\00\00\00\09\00\00\00" }>, align 8
@alloc589 = private unnamed_addr constant <{ i8*, [16 x i8] }> <{ i8* getelementptr inbounds (<{ [30 x i8] }>, <{ [30 x i8] }>* @alloc592, i32 0, i32 0, i32 0), [16 x i8] c"\1E\00\00\00\00\00\00\00\0F\00\00\00\09\00\00\00" }>, align 8
@alloc591 = private unnamed_addr constant <{ i8*, [16 x i8] }> <{ i8* getelementptr inbounds (<{ [30 x i8] }>, <{ [30 x i8] }>* @alloc592, i32 0, i32 0, i32 0), [16 x i8] c"\1E\00\00\00\00\00\00\00\10\00\00\00\09\00\00\00" }>, align 8
@alloc384 = private unnamed_addr constant <{ [4 x i8] }> <{ [4 x i8] c"\02\00\00\00" }>, align 4
@alloc593 = private unnamed_addr constant <{ i8*, [16 x i8] }> <{ i8* getelementptr inbounds (<{ [30 x i8] }>, <{ [30 x i8] }>* @alloc592, i32 0, i32 0, i32 0), [16 x i8] c"\1E\00\00\00\00\00\00\00\11\00\00\00\09\00\00\00" }>, align 8
@alloc594 = private unnamed_addr constant <{ [17 x i8] }> <{ [17 x i8] c"src/test_duffs.rs" }>, align 1
@alloc595 = private unnamed_addr constant <{ i8*, [16 x i8] }> <{ i8* getelementptr inbounds (<{ [17 x i8] }>, <{ [17 x i8] }>* @alloc594, i32 0, i32 0, i32 0), [16 x i8] c"\11\00\00\00\00\00\00\00\0D\00\00\00\05\00\00\00" }>, align 8
@alloc612 = private unnamed_addr constant <{ [34 x i8] }> <{ [34 x i8] c"src/test_idiomatic_control_flow.rs" }>, align 1
@alloc597 = private unnamed_addr constant <{ i8*, [16 x i8] }> <{ i8* getelementptr inbounds (<{ [34 x i8] }>, <{ [34 x i8] }>* @alloc612, i32 0, i32 0, i32 0), [16 x i8] c"\22\00\00\00\00\00\00\00\07\00\00\00\09\00\00\00" }>, align 8
@alloc599 = private unnamed_addr constant <{ i8*, [16 x i8] }> <{ i8* getelementptr inbounds (<{ [34 x i8] }>, <{ [34 x i8] }>* @alloc612, i32 0, i32 0, i32 0), [16 x i8] c"\22\00\00\00\00\00\00\00\08\00\00\00\09\00\00\00" }>, align 8
@alloc226 = private unnamed_addr constant <{ [4 x i8] }> <{ [4 x i8] c"\03\00\00\00" }>, align 4
@alloc601 = private unnamed_addr constant <{ i8*, [16 x i8] }> <{ i8* getelementptr inbounds (<{ [34 x i8] }>, <{ [34 x i8] }>* @alloc612, i32 0, i32 0, i32 0), [16 x i8] c"\22\00\00\00\00\00\00\00\09\00\00\00\09\00\00\00" }>, align 8
@alloc266 = private unnamed_addr constant <{ [4 x i8] }> <{ [4 x i8] c"\05\00\00\00" }>, align 4
@alloc603 = private unnamed_addr constant <{ i8*, [16 x i8] }> <{ i8* getelementptr inbounds (<{ [34 x i8] }>, <{ [34 x i8] }>* @alloc612, i32 0, i32 0, i32 0), [16 x i8] c"\22\00\00\00\00\00\00\00\0A\00\00\00\09\00\00\00" }>, align 8
@alloc260 = private unnamed_addr constant <{ [4 x i8] }> <{ [4 x i8] c"\04\00\00\00" }>, align 4
@alloc605 = private unnamed_addr constant <{ i8*, [16 x i8] }> <{ i8* getelementptr inbounds (<{ [34 x i8] }>, <{ [34 x i8] }>* @alloc612, i32 0, i32 0, i32 0), [16 x i8] c"\22\00\00\00\00\00\00\00\11\00\00\00\09\00\00\00" }>, align 8
@alloc607 = private unnamed_addr constant <{ i8*, [16 x i8] }> <{ i8* getelementptr inbounds (<{ [34 x i8] }>, <{ [34 x i8] }>* @alloc612, i32 0, i32 0, i32 0), [16 x i8] c"\22\00\00\00\00\00\00\00\12\00\00\00\09\00\00\00" }>, align 8
@alloc278 = private unnamed_addr constant <{ [4 x i8] }> <{ [4 x i8] c"\09\00\00\00" }>, align 4
@alloc609 = private unnamed_addr constant <{ i8*, [16 x i8] }> <{ i8* getelementptr inbounds (<{ [34 x i8] }>, <{ [34 x i8] }>* @alloc612, i32 0, i32 0, i32 0), [16 x i8] c"\22\00\00\00\00\00\00\00\13\00\00\00\09\00\00\00" }>, align 8
@alloc611 = private unnamed_addr constant <{ i8*, [16 x i8] }> <{ i8* getelementptr inbounds (<{ [34 x i8] }>, <{ [34 x i8] }>* @alloc612, i32 0, i32 0, i32 0), [16 x i8] c"\22\00\00\00\00\00\00\00\14\00\00\00\09\00\00\00" }>, align 8
@alloc284 = private unnamed_addr constant <{ [4 x i8] }> <{ [4 x i8] c"\0A\00\00\00" }>, align 4
@alloc613 = private unnamed_addr constant <{ i8*, [16 x i8] }> <{ i8* getelementptr inbounds (<{ [34 x i8] }>, <{ [34 x i8] }>* @alloc612, i32 0, i32 0, i32 0), [16 x i8] c"\22\00\00\00\00\00\00\00\15\00\00\00\09\00\00\00" }>, align 8
@alloc614 = private unnamed_addr constant <{ [23 x i8] }> <{ [23 x i8] c"src/test_irreducible.rs" }>, align 1
@alloc615 = private unnamed_addr constant <{ i8*, [16 x i8] }> <{ i8* getelementptr inbounds (<{ [23 x i8] }>, <{ [23 x i8] }>* @alloc614, i32 0, i32 0, i32 0), [16 x i8] c"\17\00\00\00\00\00\00\00\0D\00\00\00\0D\00\00\00" }>, align 8
@alloc336 = private unnamed_addr constant <{ [4 x i8] }> <{ [4 x i8] c"\0E\00\00\00" }>, align 4
@alloc622 = private unnamed_addr constant <{ [21 x i8] }> <{ [21 x i8] c"src/test_stmt_expr.rs" }>, align 1
@alloc617 = private unnamed_addr constant <{ i8*, [16 x i8] }> <{ i8* getelementptr inbounds (<{ [21 x i8] }>, <{ [21 x i8] }>* @alloc622, i32 0, i32 0, i32 0), [16 x i8] c"\15\00\00\00\00\00\00\00\08\00\00\00\09\00\00\00" }>, align 8
@alloc342 = private unnamed_addr constant <{ [4 x i8] }> <{ [4 x i8] c"\0D\00\00\00" }>, align 4
@alloc619 = private unnamed_addr constant <{ i8*, [16 x i8] }> <{ i8* getelementptr inbounds (<{ [21 x i8] }>, <{ [21 x i8] }>* @alloc622, i32 0, i32 0, i32 0), [16 x i8] c"\15\00\00\00\00\00\00\00\09\00\00\00\09\00\00\00" }>, align 8
@alloc348 = private unnamed_addr constant <{ [4 x i8] }> <{ [4 x i8] c"\D6\FF\FF\FF" }>, align 4
@alloc621 = private unnamed_addr constant <{ i8*, [16 x i8] }> <{ i8* getelementptr inbounds (<{ [21 x i8] }>, <{ [21 x i8] }>* @alloc622, i32 0, i32 0, i32 0), [16 x i8] c"\15\00\00\00\00\00\00\00\0A\00\00\00\09\00\00\00" }>, align 8
@alloc354 = private unnamed_addr constant <{ [4 x i8] }> <{ [4 x i8] c"\1D\00\00\00" }>, align 4
@alloc623 = private unnamed_addr constant <{ i8*, [16 x i8] }> <{ i8* getelementptr inbounds (<{ [21 x i8] }>, <{ [21 x i8] }>* @alloc622, i32 0, i32 0, i32 0), [16 x i8] c"\15\00\00\00\00\00\00\00\0B\00\00\00\09\00\00\00" }>, align 8
@alloc630 = private unnamed_addr constant <{ [25 x i8] }> <{ [25 x i8] c"src/test_early_returns.rs" }>, align 1
@alloc625 = private unnamed_addr constant <{ i8*, [16 x i8] }> <{ i8* getelementptr inbounds (<{ [25 x i8] }>, <{ [25 x i8] }>* @alloc630, i32 0, i32 0, i32 0), [16 x i8] c"\19\00\00\00\00\00\00\00\06\00\00\00\09\00\00\00" }>, align 8
@alloc627 = private unnamed_addr constant <{ i8*, [16 x i8] }> <{ i8* getelementptr inbounds (<{ [25 x i8] }>, <{ [25 x i8] }>* @alloc630, i32 0, i32 0, i32 0), [16 x i8] c"\19\00\00\00\00\00\00\00\07\00\00\00\09\00\00\00" }>, align 8
@alloc629 = private unnamed_addr constant <{ i8*, [16 x i8] }> <{ i8* getelementptr inbounds (<{ [25 x i8] }>, <{ [25 x i8] }>* @alloc630, i32 0, i32 0, i32 0), [16 x i8] c"\19\00\00\00\00\00\00\00\08\00\00\00\09\00\00\00" }>, align 8
@alloc631 = private unnamed_addr constant <{ i8*, [16 x i8] }> <{ i8* getelementptr inbounds (<{ [25 x i8] }>, <{ [25 x i8] }>* @alloc630, i32 0, i32 0, i32 0), [16 x i8] c"\19\00\00\00\00\00\00\00\09\00\00\00\09\00\00\00" }>, align 8
@alloc3 = private unnamed_addr constant <{ [62 x i8] }> <{ [62 x i8] c"test_dfa_multiple_three::test_dfa_multiple_test_multiple_three" }>, align 1
@alloc426 = private unnamed_addr constant <{ [1 x i8], [7 x i8], i8*, [8 x i8], [16 x i8], [8 x i8], [8 x i8], [8 x i8], [16 x i8], [4 x i8], [4 x i8], [8 x i8], i8*, [8 x i8] }> <{ [1 x i8] zeroinitializer, [7 x i8] undef, i8* getelementptr inbounds (<{ [62 x i8] }>, <{ [62 x i8] }>* @alloc3, i32 0, i32 0, i32 0), [8 x i8] c">\00\00\00\00\00\00\00", [16 x i8] undef, [8 x i8] zeroinitializer, [8 x i8] undef, [8 x i8] zeroinitializer, [16 x i8] undef, [4 x i8] zeroinitializer, [4 x i8] undef, [8 x i8] zeroinitializer, i8* bitcast (void ()* @_ZN4core3ops8function6FnOnce9call_once17hdea7de8f2ddc79caE to i8*), [8 x i8] undef }>, align 8
@alloc13 = private unnamed_addr constant <{ [42 x i8] }> <{ [42 x i8] c"test_duffs::test_duffs_test_multiple_three" }>, align 1
@alloc427 = private unnamed_addr constant <{ [1 x i8], [7 x i8], i8*, [8 x i8], [16 x i8], [8 x i8], [8 x i8], [8 x i8], [16 x i8], [4 x i8], [4 x i8], [8 x i8], i8*, [8 x i8] }> <{ [1 x i8] zeroinitializer, [7 x i8] undef, i8* getelementptr inbounds (<{ [42 x i8] }>, <{ [42 x i8] }>* @alloc13, i32 0, i32 0, i32 0), [8 x i8] c"*\00\00\00\00\00\00\00", [16 x i8] undef, [8 x i8] zeroinitializer, [8 x i8] undef, [8 x i8] zeroinitializer, [16 x i8] undef, [4 x i8] zeroinitializer, [4 x i8] undef, [8 x i8] zeroinitializer, i8* bitcast (void ()* @_ZN4core3ops8function6FnOnce9call_once17h5cbed645fcfe9ec3E to i8*), [8 x i8] undef }>, align 8
@alloc23 = private unnamed_addr constant <{ [50 x i8] }> <{ [50 x i8] c"test_idiomatic_control_flow::test_idiomatic_switch" }>, align 1
@alloc428 = private unnamed_addr constant <{ [1 x i8], [7 x i8], i8*, [8 x i8], [16 x i8], [8 x i8], [8 x i8], [8 x i8], [16 x i8], [4 x i8], [4 x i8], [8 x i8], i8*, [8 x i8] }> <{ [1 x i8] zeroinitializer, [7 x i8] undef, i8* getelementptr inbounds (<{ [50 x i8] }>, <{ [50 x i8] }>* @alloc23, i32 0, i32 0, i32 0), [8 x i8] c"2\00\00\00\00\00\00\00", [16 x i8] undef, [8 x i8] zeroinitializer, [8 x i8] undef, [8 x i8] zeroinitializer, [16 x i8] undef, [4 x i8] zeroinitializer, [4 x i8] undef, [8 x i8] zeroinitializer, i8* bitcast (void ()* @_ZN4core3ops8function6FnOnce9call_once17h39e8eb38d436df64E to i8*), [8 x i8] undef }>, align 8
@alloc33 = private unnamed_addr constant <{ [54 x i8] }> <{ [54 x i8] c"test_idiomatic_control_flow::test_break_multiple_loops" }>, align 1
@alloc429 = private unnamed_addr constant <{ [1 x i8], [7 x i8], i8*, [8 x i8], [16 x i8], [8 x i8], [8 x i8], [8 x i8], [16 x i8], [4 x i8], [4 x i8], [8 x i8], i8*, [8 x i8] }> <{ [1 x i8] zeroinitializer, [7 x i8] undef, i8* getelementptr inbounds (<{ [54 x i8] }>, <{ [54 x i8] }>* @alloc33, i32 0, i32 0, i32 0), [8 x i8] c"6\00\00\00\00\00\00\00", [16 x i8] undef, [8 x i8] zeroinitializer, [8 x i8] undef, [8 x i8] zeroinitializer, [16 x i8] undef, [4 x i8] zeroinitializer, [4 x i8] undef, [8 x i8] zeroinitializer, i8* bitcast (void ()* @_ZN4core3ops8function6FnOnce9call_once17h95d2ecf64982e828E to i8*), [8 x i8] undef }>, align 8
@alloc43 = private unnamed_addr constant <{ [34 x i8] }> <{ [34 x i8] c"test_irreducible::test_irreducible" }>, align 1
@alloc430 = private unnamed_addr constant <{ [1 x i8], [7 x i8], i8*, [8 x i8], [16 x i8], [8 x i8], [8 x i8], [8 x i8], [16 x i8], [4 x i8], [4 x i8], [8 x i8], i8*, [8 x i8] }> <{ [1 x i8] zeroinitializer, [7 x i8] undef, i8* getelementptr inbounds (<{ [34 x i8] }>, <{ [34 x i8] }>* @alloc43, i32 0, i32 0, i32 0), [8 x i8] c"\22\00\00\00\00\00\00\00", [16 x i8] undef, [8 x i8] zeroinitializer, [8 x i8] undef, [8 x i8] zeroinitializer, [16 x i8] undef, [4 x i8] zeroinitializer, [4 x i8] undef, [8 x i8] zeroinitializer, i8* bitcast (void ()* @_ZN4core3ops8function6FnOnce9call_once17h80068044d9e54337E to i8*), [8 x i8] undef }>, align 8
@alloc53 = private unnamed_addr constant <{ [39 x i8] }> <{ [39 x i8] c"test_stmt_expr::test_stmt_expr_relooper" }>, align 1
@alloc431 = private unnamed_addr constant <{ [1 x i8], [7 x i8], i8*, [8 x i8], [16 x i8], [8 x i8], [8 x i8], [8 x i8], [16 x i8], [4 x i8], [4 x i8], [8 x i8], i8*, [8 x i8] }> <{ [1 x i8] zeroinitializer, [7 x i8] undef, i8* getelementptr inbounds (<{ [39 x i8] }>, <{ [39 x i8] }>* @alloc53, i32 0, i32 0, i32 0), [8 x i8] c"'\00\00\00\00\00\00\00", [16 x i8] undef, [8 x i8] zeroinitializer, [8 x i8] undef, [8 x i8] zeroinitializer, [16 x i8] undef, [4 x i8] zeroinitializer, [4 x i8] undef, [8 x i8] zeroinitializer, i8* bitcast (void ()* @_ZN4core3ops8function6FnOnce9call_once17h41c763d42022b7fcE to i8*), [8 x i8] undef }>, align 8
@alloc63 = private unnamed_addr constant <{ [35 x i8] }> <{ [35 x i8] c"test_translation_only::test_nothing" }>, align 1
@alloc432 = private unnamed_addr constant <{ [1 x i8], [7 x i8], i8*, [8 x i8], [16 x i8], [8 x i8], [8 x i8], [8 x i8], [16 x i8], [4 x i8], [4 x i8], [8 x i8], i8*, [8 x i8] }> <{ [1 x i8] zeroinitializer, [7 x i8] undef, i8* getelementptr inbounds (<{ [35 x i8] }>, <{ [35 x i8] }>* @alloc63, i32 0, i32 0, i32 0), [8 x i8] c"#\00\00\00\00\00\00\00", [16 x i8] undef, [8 x i8] zeroinitializer, [8 x i8] undef, [8 x i8] zeroinitializer, [16 x i8] undef, [4 x i8] zeroinitializer, [4 x i8] undef, [8 x i8] zeroinitializer, i8* bitcast (void ()* @_ZN4core3ops8function6FnOnce9call_once17h582b916e36887c24E to i8*), [8 x i8] undef }>, align 8
@alloc73 = private unnamed_addr constant <{ [38 x i8] }> <{ [38 x i8] c"test_early_returns::test_early_returns" }>, align 1
@alloc433 = private unnamed_addr constant <{ [1 x i8], [7 x i8], i8*, [8 x i8], [16 x i8], [8 x i8], [8 x i8], [8 x i8], [16 x i8], [4 x i8], [4 x i8], [8 x i8], i8*, [8 x i8] }> <{ [1 x i8] zeroinitializer, [7 x i8] undef, i8* getelementptr inbounds (<{ [38 x i8] }>, <{ [38 x i8] }>* @alloc73, i32 0, i32 0, i32 0), [8 x i8] c"&\00\00\00\00\00\00\00", [16 x i8] undef, [8 x i8] zeroinitializer, [8 x i8] undef, [8 x i8] zeroinitializer, [16 x i8] undef, [4 x i8] zeroinitializer, [4 x i8] undef, [8 x i8] zeroinitializer, i8* bitcast (void ()* @_ZN4core3ops8function6FnOnce9call_once17ha735228e09055ff8E to i8*), [8 x i8] undef }>, align 8
@alloc434 = private unnamed_addr constant <{ i8*, i8*, i8*, i8*, i8*, i8*, i8*, i8* }> <{ i8* getelementptr inbounds (<{ [1 x i8], [7 x i8], i8*, [8 x i8], [16 x i8], [8 x i8], [8 x i8], [8 x i8], [16 x i8], [4 x i8], [4 x i8], [8 x i8], i8*, [8 x i8] }>, <{ [1 x i8], [7 x i8], i8*, [8 x i8], [16 x i8], [8 x i8], [8 x i8], [8 x i8], [16 x i8], [4 x i8], [4 x i8], [8 x i8], i8*, [8 x i8] }>* @alloc426, i32 0, i32 0, i32 0), i8* getelementptr inbounds (<{ [1 x i8], [7 x i8], i8*, [8 x i8], [16 x i8], [8 x i8], [8 x i8], [8 x i8], [16 x i8], [4 x i8], [4 x i8], [8 x i8], i8*, [8 x i8] }>, <{ [1 x i8], [7 x i8], i8*, [8 x i8], [16 x i8], [8 x i8], [8 x i8], [8 x i8], [16 x i8], [4 x i8], [4 x i8], [8 x i8], i8*, [8 x i8] }>* @alloc427, i32 0, i32 0, i32 0), i8* getelementptr inbounds (<{ [1 x i8], [7 x i8], i8*, [8 x i8], [16 x i8], [8 x i8], [8 x i8], [8 x i8], [16 x i8], [4 x i8], [4 x i8], [8 x i8], i8*, [8 x i8] }>, <{ [1 x i8], [7 x i8], i8*, [8 x i8], [16 x i8], [8 x i8], [8 x i8], [8 x i8], [16 x i8], [4 x i8], [4 x i8], [8 x i8], i8*, [8 x i8] }>* @alloc428, i32 0, i32 0, i32 0), i8* getelementptr inbounds (<{ [1 x i8], [7 x i8], i8*, [8 x i8], [16 x i8], [8 x i8], [8 x i8], [8 x i8], [16 x i8], [4 x i8], [4 x i8], [8 x i8], i8*, [8 x i8] }>, <{ [1 x i8], [7 x i8], i8*, [8 x i8], [16 x i8], [8 x i8], [8 x i8], [8 x i8], [16 x i8], [4 x i8], [4 x i8], [8 x i8], i8*, [8 x i8] }>* @alloc429, i32 0, i32 0, i32 0), i8* getelementptr inbounds (<{ [1 x i8], [7 x i8], i8*, [8 x i8], [16 x i8], [8 x i8], [8 x i8], [8 x i8], [16 x i8], [4 x i8], [4 x i8], [8 x i8], i8*, [8 x i8] }>, <{ [1 x i8], [7 x i8], i8*, [8 x i8], [16 x i8], [8 x i8], [8 x i8], [8 x i8], [16 x i8], [4 x i8], [4 x i8], [8 x i8], i8*, [8 x i8] }>* @alloc430, i32 0, i32 0, i32 0), i8* getelementptr inbounds (<{ [1 x i8], [7 x i8], i8*, [8 x i8], [16 x i8], [8 x i8], [8 x i8], [8 x i8], [16 x i8], [4 x i8], [4 x i8], [8 x i8], i8*, [8 x i8] }>, <{ [1 x i8], [7 x i8], i8*, [8 x i8], [16 x i8], [8 x i8], [8 x i8], [8 x i8], [16 x i8], [4 x i8], [4 x i8], [8 x i8], i8*, [8 x i8] }>* @alloc431, i32 0, i32 0, i32 0), i8* getelementptr inbounds (<{ [1 x i8], [7 x i8], i8*, [8 x i8], [16 x i8], [8 x i8], [8 x i8], [8 x i8], [16 x i8], [4 x i8], [4 x i8], [8 x i8], i8*, [8 x i8] }>, <{ [1 x i8], [7 x i8], i8*, [8 x i8], [16 x i8], [8 x i8], [8 x i8], [8 x i8], [16 x i8], [4 x i8], [4 x i8], [8 x i8], i8*, [8 x i8] }>* @alloc432, i32 0, i32 0, i32 0), i8* getelementptr inbounds (<{ [1 x i8], [7 x i8], i8*, [8 x i8], [16 x i8], [8 x i8], [8 x i8], [8 x i8], [16 x i8], [4 x i8], [4 x i8], [8 x i8], i8*, [8 x i8] }>, <{ [1 x i8], [7 x i8], i8*, [8 x i8], [16 x i8], [8 x i8], [8 x i8], [8 x i8], [16 x i8], [4 x i8], [4 x i8], [8 x i8], i8*, [8 x i8] }>* @alloc433, i32 0, i32 0, i32 0) }>, align 8
@__rustc_debug_gdb_scripts_section__ = linkonce_odr unnamed_addr constant [34 x i8] c"\01gdb_load_rust_pretty_printers.py\00", section ".debug_gdb_scripts", align 1

; <core::ptr::non_null::NonNull<T> as core::convert::From<core::ptr::unique::Unique<T>>>::from
; Function Attrs: inlinehint nonlazybind uwtable
define internal i8* @"_ZN119_$LT$core..ptr..non_null..NonNull$LT$T$GT$$u20$as$u20$core..convert..From$LT$core..ptr..unique..Unique$LT$T$GT$$GT$$GT$4from17h99a862f0663cfa5eE"(i8* %unique) unnamed_addr #0 !dbg !190 {
start:
  %ptr.dbg.spill = alloca i8*, align 8
  %self.dbg.spill1 = alloca i8*, align 8
  %self.dbg.spill = alloca i8*, align 8
  %unique.dbg.spill = alloca i8*, align 8
  %0 = alloca i8*, align 8
  store i8* %unique, i8** %unique.dbg.spill, align 8
  call void @llvm.dbg.declare(metadata i8** %unique.dbg.spill, metadata !196, metadata !DIExpression()), !dbg !197
  store i8* %unique, i8** %self.dbg.spill, align 8, !dbg !198
  call void @llvm.dbg.declare(metadata i8** %self.dbg.spill, metadata !199, metadata !DIExpression()), !dbg !207
  store i8* %unique, i8** %self.dbg.spill1, align 8, !dbg !207
  call void @llvm.dbg.declare(metadata i8** %self.dbg.spill1, metadata !208, metadata !DIExpression()), !dbg !213
  store i8* %unique, i8** %ptr.dbg.spill, align 8, !dbg !213
  call void @llvm.dbg.declare(metadata i8** %ptr.dbg.spill, metadata !215, metadata !DIExpression()), !dbg !220
  store i8* %unique, i8** %0, align 8, !dbg !220
  %1 = load i8*, i8** %0, align 8, !dbg !222, !nonnull !23, !noundef !23
  ret i8* %1, !dbg !222
}

; std::sys_common::backtrace::__rust_begin_short_backtrace
; Function Attrs: noinline nonlazybind uwtable
define internal void @_ZN3std10sys_common9backtrace28__rust_begin_short_backtrace17h05686681a814bc9cE(void ()* %f) unnamed_addr #1 personality i32 (i32, i32, i64, %"unwind::libunwind::_Unwind_Exception"*, %"unwind::libunwind::_Unwind_Context"*)* @rust_eh_personality !dbg !223 {
start:
  %0 = alloca { i8*, i32 }, align 8
  %dummy.dbg.spill = alloca {}, align 1
  %f.dbg.spill = alloca void ()*, align 8
  %result.dbg.spill = alloca {}, align 1
  call void @llvm.dbg.declare(metadata {}* %result.dbg.spill, metadata !231, metadata !DIExpression()), !dbg !236
  store void ()* %f, void ()** %f.dbg.spill, align 8
  call void @llvm.dbg.declare(metadata void ()** %f.dbg.spill, metadata !230, metadata !DIExpression()), !dbg !237
  call void @llvm.dbg.declare(metadata {}* %dummy.dbg.spill, metadata !238, metadata !DIExpression()), !dbg !247
; call core::ops::function::FnOnce::call_once
  call void @_ZN4core3ops8function6FnOnce9call_once17h2d8bce1c3d41a520E(void ()* %f), !dbg !249
  br label %bb1, !dbg !249

bb1:                                              ; preds = %start
  call void asm sideeffect "", "r,~{memory}"({}* undef), !dbg !247, !srcloc !250
  br label %bb4, !dbg !247

bb4:                                              ; preds = %bb1
  ret void, !dbg !251

bb2:                                              ; No predecessors!
  br label %bb3, !dbg !252

bb3:                                              ; preds = %bb2
  %1 = bitcast { i8*, i32 }* %0 to i8**, !dbg !253
  %2 = load i8*, i8** %1, align 8, !dbg !253
  %3 = getelementptr inbounds { i8*, i32 }, { i8*, i32 }* %0, i32 0, i32 1, !dbg !253
  %4 = load i32, i32* %3, align 8, !dbg !253
  %5 = insertvalue { i8*, i32 } undef, i8* %2, 0, !dbg !253
  %6 = insertvalue { i8*, i32 } %5, i32 %4, 1, !dbg !253
  resume { i8*, i32 } %6, !dbg !253
}

; std::rt::lang_start
; Function Attrs: nonlazybind uwtable
define hidden i64 @_ZN3std2rt10lang_start17h517cd2fd5b7a88cbE(void ()* %main, i64 %argc, i8** %argv) unnamed_addr #2 !dbg !254 {
start:
  %v.dbg.spill = alloca i64, align 8
  %argv.dbg.spill = alloca i8**, align 8
  %argc.dbg.spill = alloca i64, align 8
  %main.dbg.spill = alloca void ()*, align 8
  %_8 = alloca i64*, align 8
  %_4 = alloca i64, align 8
  store void ()* %main, void ()** %main.dbg.spill, align 8
  call void @llvm.dbg.declare(metadata void ()** %main.dbg.spill, metadata !261, metadata !DIExpression()), !dbg !266
  store i64 %argc, i64* %argc.dbg.spill, align 8
  call void @llvm.dbg.declare(metadata i64* %argc.dbg.spill, metadata !262, metadata !DIExpression()), !dbg !267
  store i8** %argv, i8*** %argv.dbg.spill, align 8
  call void @llvm.dbg.declare(metadata i8*** %argv.dbg.spill, metadata !263, metadata !DIExpression()), !dbg !268
  %0 = bitcast i64** %_8 to void ()**, !dbg !269
  store void ()* %main, void ()** %0, align 8, !dbg !269
  %_5.0 = bitcast i64** %_8 to {}*, !dbg !270
; call std::rt::lang_start_internal
  %1 = call i64 @_ZN3std2rt19lang_start_internal17h498f9556b87c8e5fE({}* align 1 %_5.0, [3 x i64]* align 8 bitcast (<{ i8*, [16 x i8], i8*, i8*, i8* }>* @vtable.0 to [3 x i64]*), i64 %argc, i8** %argv), !dbg !271
  store i64 %1, i64* %_4, align 8, !dbg !271
  br label %bb1, !dbg !271

bb1:                                              ; preds = %start
  %v = load i64, i64* %_4, align 8, !dbg !272
  store i64 %v, i64* %v.dbg.spill, align 8, !dbg !272
  call void @llvm.dbg.declare(metadata i64* %v.dbg.spill, metadata !264, metadata !DIExpression()), !dbg !273
  ret i64 %v, !dbg !274
}

; std::rt::lang_start::{{closure}}
; Function Attrs: inlinehint nonlazybind uwtable
define internal i32 @"_ZN3std2rt10lang_start28_$u7b$$u7b$closure$u7d$$u7d$17haa57050192edbacaE"(i64** align 8 %_1) unnamed_addr #0 !dbg !275 {
start:
  %self.dbg.spill = alloca i8*, align 8
  %_1.dbg.spill = alloca i64**, align 8
  %self = alloca i8, align 1
  store i64** %_1, i64*** %_1.dbg.spill, align 8
  %0 = load i64**, i64*** %_1.dbg.spill, align 8, !nonnull !23, !align !281, !noundef !23
  %1 = bitcast i64** %0 to void ()**
  call void @llvm.dbg.declare(metadata i64*** %_1.dbg.spill, metadata !280, metadata !DIExpression(DW_OP_deref)), !dbg !282
  call void @llvm.dbg.declare(metadata i8* %self, metadata !283, metadata !DIExpression()), !dbg !301
  %2 = bitcast i64** %_1 to void ()**, !dbg !303
  %_4 = load void ()*, void ()** %2, align 8, !dbg !303, !nonnull !23, !noundef !23
; call std::sys_common::backtrace::__rust_begin_short_backtrace
  call void @_ZN3std10sys_common9backtrace28__rust_begin_short_backtrace17h05686681a814bc9cE(void ()* %_4), !dbg !302
  br label %bb1, !dbg !302

bb1:                                              ; preds = %start
; call <() as std::process::Termination>::report
  %3 = call i8 @"_ZN54_$LT$$LP$$RP$$u20$as$u20$std..process..Termination$GT$6report17h2441a244d8ee3008E"(), !dbg !302
  store i8 %3, i8* %self, align 1, !dbg !302
  br label %bb2, !dbg !302

bb2:                                              ; preds = %bb1
  store i8* %self, i8** %self.dbg.spill, align 8, !dbg !301
  call void @llvm.dbg.declare(metadata i8** %self.dbg.spill, metadata !304, metadata !DIExpression()), !dbg !312
  %_6 = load i8, i8* %self, align 1, !dbg !312
  %4 = zext i8 %_6 to i32, !dbg !312
  ret i32 %4, !dbg !314
}

; <&T as core::fmt::Debug>::fmt
; Function Attrs: nonlazybind uwtable
define internal zeroext i1 @"_ZN42_$LT$$RF$T$u20$as$u20$core..fmt..Debug$GT$3fmt17h3fa795487c2c62feE"({ [0 x i32]*, i64 }* align 8 %self, %"core::fmt::Formatter"* align 8 %f) unnamed_addr #2 !dbg !315 {
start:
  %f.dbg.spill = alloca %"core::fmt::Formatter"*, align 8
  %self.dbg.spill = alloca { [0 x i32]*, i64 }*, align 8
  store { [0 x i32]*, i64 }* %self, { [0 x i32]*, i64 }** %self.dbg.spill, align 8
  call void @llvm.dbg.declare(metadata { [0 x i32]*, i64 }** %self.dbg.spill, metadata !379, metadata !DIExpression()), !dbg !383
  store %"core::fmt::Formatter"* %f, %"core::fmt::Formatter"** %f.dbg.spill, align 8
  call void @llvm.dbg.declare(metadata %"core::fmt::Formatter"** %f.dbg.spill, metadata !380, metadata !DIExpression()), !dbg !384
  %0 = getelementptr inbounds { [0 x i32]*, i64 }, { [0 x i32]*, i64 }* %self, i32 0, i32 0, !dbg !385
  %_6.0 = load [0 x i32]*, [0 x i32]** %0, align 8, !dbg !385, !nonnull !23, !align !386, !noundef !23
  %1 = getelementptr inbounds { [0 x i32]*, i64 }, { [0 x i32]*, i64 }* %self, i32 0, i32 1, !dbg !385
  %_6.1 = load i64, i64* %1, align 8, !dbg !385
; call <[T] as core::fmt::Debug>::fmt
  %2 = call zeroext i1 @"_ZN48_$LT$$u5b$T$u5d$$u20$as$u20$core..fmt..Debug$GT$3fmt17h4b34214140ad762dE"([0 x i32]* align 4 %_6.0, i64 %_6.1, %"core::fmt::Formatter"* align 8 %f), !dbg !387
  br label %bb1, !dbg !387

bb1:                                              ; preds = %start
  ret i1 %2, !dbg !388
}

; <&T as core::fmt::Debug>::fmt
; Function Attrs: nonlazybind uwtable
define internal zeroext i1 @"_ZN42_$LT$$RF$T$u20$as$u20$core..fmt..Debug$GT$3fmt17h90b6e323157f0ed7E"([20 x i32]** align 8 %self, %"core::fmt::Formatter"* align 8 %f) unnamed_addr #2 !dbg !389 {
start:
  %f.dbg.spill = alloca %"core::fmt::Formatter"*, align 8
  %self.dbg.spill = alloca [20 x i32]**, align 8
  store [20 x i32]** %self, [20 x i32]*** %self.dbg.spill, align 8
  call void @llvm.dbg.declare(metadata [20 x i32]*** %self.dbg.spill, metadata !394, metadata !DIExpression()), !dbg !398
  store %"core::fmt::Formatter"* %f, %"core::fmt::Formatter"** %f.dbg.spill, align 8
  call void @llvm.dbg.declare(metadata %"core::fmt::Formatter"** %f.dbg.spill, metadata !395, metadata !DIExpression()), !dbg !399
  %_6 = load [20 x i32]*, [20 x i32]** %self, align 8, !dbg !400, !nonnull !23, !align !386, !noundef !23
; call core::array::<impl core::fmt::Debug for [T; N]>::fmt
  %0 = call zeroext i1 @"_ZN4core5array69_$LT$impl$u20$core..fmt..Debug$u20$for$u20$$u5b$T$u3b$$u20$N$u5d$$GT$3fmt17hb215d44dc213dd5dE"([20 x i32]* align 4 %_6, %"core::fmt::Formatter"* align 8 %f), !dbg !401
  br label %bb1, !dbg !401

bb1:                                              ; preds = %start
  ret i1 %0, !dbg !402
}

; <&T as core::fmt::Debug>::fmt
; Function Attrs: nonlazybind uwtable
define internal zeroext i1 @"_ZN42_$LT$$RF$T$u20$as$u20$core..fmt..Debug$GT$3fmt17h98cdf893fb0a1ac0E"(i32** align 8 %self, %"core::fmt::Formatter"* align 8 %f) unnamed_addr #2 !dbg !403 {
start:
  %f.dbg.spill = alloca %"core::fmt::Formatter"*, align 8
  %self.dbg.spill = alloca i32**, align 8
  store i32** %self, i32*** %self.dbg.spill, align 8
  call void @llvm.dbg.declare(metadata i32*** %self.dbg.spill, metadata !408, metadata !DIExpression()), !dbg !410
  store %"core::fmt::Formatter"* %f, %"core::fmt::Formatter"** %f.dbg.spill, align 8
  call void @llvm.dbg.declare(metadata %"core::fmt::Formatter"** %f.dbg.spill, metadata !409, metadata !DIExpression()), !dbg !411
  %_6 = load i32*, i32** %self, align 8, !dbg !412, !nonnull !23, !align !386, !noundef !23
; call core::fmt::num::<impl core::fmt::Debug for i32>::fmt
  %0 = call zeroext i1 @"_ZN4core3fmt3num50_$LT$impl$u20$core..fmt..Debug$u20$for$u20$i32$GT$3fmt17h46417d135733516aE"(i32* align 4 %_6, %"core::fmt::Formatter"* align 8 %f), !dbg !413
  br label %bb1, !dbg !413

bb1:                                              ; preds = %start
  ret i1 %0, !dbg !414
}

; <i32 as core::iter::range::Step>::forward_unchecked
; Function Attrs: inlinehint nonlazybind uwtable
define internal i32 @"_ZN47_$LT$i32$u20$as$u20$core..iter..range..Step$GT$17forward_unchecked17hd75b91ee41922c11E"(i32 %start1, i64 %n) unnamed_addr #0 !dbg !415 {
start:
  %0 = alloca i32, align 4
  %rhs.dbg.spill = alloca i32, align 4
  %self.dbg.spill = alloca i32, align 4
  %n.dbg.spill = alloca i64, align 8
  %start.dbg.spill = alloca i32, align 4
  store i32 %start1, i32* %start.dbg.spill, align 4
  call void @llvm.dbg.declare(metadata i32* %start.dbg.spill, metadata !423, metadata !DIExpression()), !dbg !425
  store i64 %n, i64* %n.dbg.spill, align 8
  call void @llvm.dbg.declare(metadata i64* %n.dbg.spill, metadata !424, metadata !DIExpression()), !dbg !426
  store i32 %start1, i32* %self.dbg.spill, align 4, !dbg !427
  call void @llvm.dbg.declare(metadata i32* %self.dbg.spill, metadata !428, metadata !DIExpression()), !dbg !438
  %rhs = trunc i64 %n to i32, !dbg !439
  store i32 %rhs, i32* %rhs.dbg.spill, align 4, !dbg !439
  call void @llvm.dbg.declare(metadata i32* %rhs.dbg.spill, metadata !437, metadata !DIExpression()), !dbg !438
  %1 = add nsw i32 %start1, %rhs, !dbg !438
  store i32 %1, i32* %0, align 4, !dbg !438
  %2 = load i32, i32* %0, align 4, !dbg !438
  br label %bb1, !dbg !438

bb1:                                              ; preds = %start
  ret i32 %2, !dbg !440
}

; <[T] as core::fmt::Debug>::fmt
; Function Attrs: nonlazybind uwtable
define internal zeroext i1 @"_ZN48_$LT$$u5b$T$u5d$$u20$as$u20$core..fmt..Debug$GT$3fmt17h4b34214140ad762dE"([0 x i32]* align 4 %self.0, i64 %self.1, %"core::fmt::Formatter"* align 8 %f) unnamed_addr #2 !dbg !441 {
start:
  %self.dbg.spill1 = alloca { [0 x i32]*, i64 }, align 8
  %f.dbg.spill = alloca %"core::fmt::Formatter"*, align 8
  %self.dbg.spill = alloca { [0 x i32]*, i64 }, align 8
  %_6 = alloca %"core::fmt::builders::DebugList", align 8
  %0 = getelementptr inbounds { [0 x i32]*, i64 }, { [0 x i32]*, i64 }* %self.dbg.spill, i32 0, i32 0
  store [0 x i32]* %self.0, [0 x i32]** %0, align 8
  %1 = getelementptr inbounds { [0 x i32]*, i64 }, { [0 x i32]*, i64 }* %self.dbg.spill, i32 0, i32 1
  store i64 %self.1, i64* %1, align 8
  call void @llvm.dbg.declare(metadata { [0 x i32]*, i64 }* %self.dbg.spill, metadata !446, metadata !DIExpression()), !dbg !448
  store %"core::fmt::Formatter"* %f, %"core::fmt::Formatter"** %f.dbg.spill, align 8
  call void @llvm.dbg.declare(metadata %"core::fmt::Formatter"** %f.dbg.spill, metadata !447, metadata !DIExpression()), !dbg !449
; call core::fmt::Formatter::debug_list
  call void @_ZN4core3fmt9Formatter10debug_list17h2e70d1c34e8cb782E(%"core::fmt::builders::DebugList"* sret(%"core::fmt::builders::DebugList") %_6, %"core::fmt::Formatter"* align 8 %f), !dbg !450
  br label %bb1, !dbg !450

bb1:                                              ; preds = %start
  %2 = getelementptr inbounds { [0 x i32]*, i64 }, { [0 x i32]*, i64 }* %self.dbg.spill1, i32 0, i32 0, !dbg !451
  store [0 x i32]* %self.0, [0 x i32]** %2, align 8, !dbg !451
  %3 = getelementptr inbounds { [0 x i32]*, i64 }, { [0 x i32]*, i64 }* %self.dbg.spill1, i32 0, i32 1, !dbg !451
  store i64 %self.1, i64* %3, align 8, !dbg !451
  call void @llvm.dbg.declare(metadata { [0 x i32]*, i64 }* %self.dbg.spill1, metadata !452, metadata !DIExpression()), !dbg !474
; call core::slice::iter::Iter<T>::new
  %4 = call { i32*, i32* } @"_ZN4core5slice4iter13Iter$LT$T$GT$3new17hdd37325d9d7d5063E"([0 x i32]* align 4 %self.0, i64 %self.1), !dbg !474
  %_8.0 = extractvalue { i32*, i32* } %4, 0, !dbg !474
  %_8.1 = extractvalue { i32*, i32* } %4, 1, !dbg !474
  br label %bb4, !dbg !474

bb4:                                              ; preds = %bb1
; call core::fmt::builders::DebugList::entries
  %_4 = call align 8 %"core::fmt::builders::DebugList"* @_ZN4core3fmt8builders9DebugList7entries17h6674e0fb8810f64cE(%"core::fmt::builders::DebugList"* align 8 %_6, i32* %_8.0, i32* %_8.1), !dbg !450
  br label %bb2, !dbg !450

bb2:                                              ; preds = %bb4
; call core::fmt::builders::DebugList::finish
  %5 = call zeroext i1 @_ZN4core3fmt8builders9DebugList6finish17ha896c0aa3642bf32E(%"core::fmt::builders::DebugList"* align 8 %_4), !dbg !450
  br label %bb3, !dbg !450

bb3:                                              ; preds = %bb2
  ret i1 %5, !dbg !475
}

; core::intrinsics::const_eval_select
; Function Attrs: inlinehint nonlazybind uwtable
define internal { %"core::ffi::c_str::CStr"*, i64 } @_ZN4core10intrinsics17const_eval_select17h2a517e5f9ea04659E(i8* align 1 %arg.0, i64 %arg.1) unnamed_addr #0 personality i32 (i32, i32, i64, %"unwind::libunwind::_Unwind_Exception"*, %"unwind::libunwind::_Unwind_Context"*)* @rust_eh_personality !dbg !476 {
start:
  %0 = alloca { i8*, i32 }, align 8
  %called_at_rt.dbg.spill = alloca {}, align 1
  %_called_in_const.dbg.spill = alloca {}, align 1
  %arg.dbg.spill = alloca { i8*, i64 }, align 8
  %1 = getelementptr inbounds { i8*, i64 }, { i8*, i64 }* %arg.dbg.spill, i32 0, i32 0
  store i8* %arg.0, i8** %1, align 8
  %2 = getelementptr inbounds { i8*, i64 }, { i8*, i64 }* %arg.dbg.spill, i32 0, i32 1
  store i64 %arg.1, i64* %2, align 8
  call void @llvm.dbg.declare(metadata { i8*, i64 }* %arg.dbg.spill, metadata !504, metadata !DIExpression()), !dbg !512
  call void @llvm.dbg.declare(metadata {}* %_called_in_const.dbg.spill, metadata !505, metadata !DIExpression()), !dbg !513
  call void @llvm.dbg.declare(metadata {}* %called_at_rt.dbg.spill, metadata !506, metadata !DIExpression()), !dbg !514
  %3 = bitcast i8* %arg.0 to [0 x i8]*, !dbg !515
; invoke core::ops::function::FnOnce::call_once
  %4 = invoke { %"core::ffi::c_str::CStr"*, i64 } @_ZN4core3ops8function6FnOnce9call_once17h4476029a4f2913a1E([0 x i8]* align 1 %3, i64 %arg.1)
          to label %bb1 unwind label %cleanup, !dbg !515

bb3:                                              ; preds = %cleanup
  br label %bb4, !dbg !516

cleanup:                                          ; preds = %start
  %5 = landingpad { i8*, i32 }
          cleanup
  %6 = extractvalue { i8*, i32 } %5, 0
  %7 = extractvalue { i8*, i32 } %5, 1
  %8 = getelementptr inbounds { i8*, i32 }, { i8*, i32 }* %0, i32 0, i32 0
  store i8* %6, i8** %8, align 8
  %9 = getelementptr inbounds { i8*, i32 }, { i8*, i32 }* %0, i32 0, i32 1
  store i32 %7, i32* %9, align 8
  br label %bb3

bb1:                                              ; preds = %start
  %10 = extractvalue { %"core::ffi::c_str::CStr"*, i64 } %4, 0, !dbg !515
  %11 = extractvalue { %"core::ffi::c_str::CStr"*, i64 } %4, 1, !dbg !515
  br label %bb2, !dbg !516

bb4:                                              ; preds = %bb3
  %12 = bitcast { i8*, i32 }* %0 to i8**, !dbg !517
  %13 = load i8*, i8** %12, align 8, !dbg !517
  %14 = getelementptr inbounds { i8*, i32 }, { i8*, i32 }* %0, i32 0, i32 1, !dbg !517
  %15 = load i32, i32* %14, align 8, !dbg !517
  %16 = insertvalue { i8*, i32 } undef, i8* %13, 0, !dbg !517
  %17 = insertvalue { i8*, i32 } %16, i32 %15, 1, !dbg !517
  resume { i8*, i32 } %17, !dbg !517

bb2:                                              ; preds = %bb1
  %18 = insertvalue { %"core::ffi::c_str::CStr"*, i64 } undef, %"core::ffi::c_str::CStr"* %10, 0, !dbg !518
  %19 = insertvalue { %"core::ffi::c_str::CStr"*, i64 } %18, i64 %11, 1, !dbg !518
  ret { %"core::ffi::c_str::CStr"*, i64 } %19, !dbg !518
}

; core::cmp::impls::<impl core::cmp::PartialOrd for i32>::lt
; Function Attrs: inlinehint nonlazybind uwtable
define internal zeroext i1 @"_ZN4core3cmp5impls55_$LT$impl$u20$core..cmp..PartialOrd$u20$for$u20$i32$GT$2lt17h852f340fde9746ecE"(i32* align 4 %self, i32* align 4 %other) unnamed_addr #0 !dbg !519 {
start:
  %other.dbg.spill = alloca i32*, align 8
  %self.dbg.spill = alloca i32*, align 8
  store i32* %self, i32** %self.dbg.spill, align 8
  call void @llvm.dbg.declare(metadata i32** %self.dbg.spill, metadata !528, metadata !DIExpression()), !dbg !530
  store i32* %other, i32** %other.dbg.spill, align 8
  call void @llvm.dbg.declare(metadata i32** %other.dbg.spill, metadata !529, metadata !DIExpression()), !dbg !531
  %_3 = load i32, i32* %self, align 4, !dbg !532
  %_4 = load i32, i32* %other, align 4, !dbg !533
  %0 = icmp slt i32 %_3, %_4, !dbg !532
  ret i1 %0, !dbg !534
}

; core::ffi::c_str::CStr::as_ptr
; Function Attrs: inlinehint nonlazybind uwtable
define internal i8* @_ZN4core3ffi5c_str4CStr6as_ptr17ha22ab35a2209d021E(%"core::ffi::c_str::CStr"* align 1 %self.0, i64 %self.1) unnamed_addr #0 !dbg !535 {
start:
  %self.dbg.spill2 = alloca { [0 x i8]*, i64 }, align 8
  %self.dbg.spill = alloca { %"core::ffi::c_str::CStr"*, i64 }, align 8
  %0 = getelementptr inbounds { %"core::ffi::c_str::CStr"*, i64 }, { %"core::ffi::c_str::CStr"*, i64 }* %self.dbg.spill, i32 0, i32 0
  store %"core::ffi::c_str::CStr"* %self.0, %"core::ffi::c_str::CStr"** %0, align 8
  %1 = getelementptr inbounds { %"core::ffi::c_str::CStr"*, i64 }, { %"core::ffi::c_str::CStr"*, i64 }* %self.dbg.spill, i32 0, i32 1
  store i64 %self.1, i64* %1, align 8
  call void @llvm.dbg.declare(metadata { %"core::ffi::c_str::CStr"*, i64 }* %self.dbg.spill, metadata !541, metadata !DIExpression()), !dbg !542
  %self.01 = bitcast %"core::ffi::c_str::CStr"* %self.0 to [0 x i8]*, !dbg !543
  %2 = getelementptr inbounds { [0 x i8]*, i64 }, { [0 x i8]*, i64 }* %self.dbg.spill2, i32 0, i32 0, !dbg !543
  store [0 x i8]* %self.01, [0 x i8]** %2, align 8, !dbg !543
  %3 = getelementptr inbounds { [0 x i8]*, i64 }, { [0 x i8]*, i64 }* %self.dbg.spill2, i32 0, i32 1, !dbg !543
  store i64 %self.1, i64* %3, align 8, !dbg !543
  call void @llvm.dbg.declare(metadata { [0 x i8]*, i64 }* %self.dbg.spill2, metadata !544, metadata !DIExpression()), !dbg !557
  %4 = bitcast [0 x i8]* %self.01 to i8*, !dbg !557
  ret i8* %4, !dbg !558
}

; core::fmt::ArgumentV1::new_binary
; Function Attrs: inlinehint nonlazybind uwtable
define internal { i8*, i64* } @_ZN4core3fmt10ArgumentV110new_binary17h3700116a20409306E(i32* align 4 %x) unnamed_addr #0 !dbg !559 {
start:
  %0 = alloca %"core::fmt::Opaque"*, align 8
  %1 = alloca i1 (%"core::fmt::Opaque"*, %"core::fmt::Formatter"*)*, align 8
  %f.dbg.spill = alloca i1 (i32*, %"core::fmt::Formatter"*)*, align 8
  %x.dbg.spill1 = alloca i32*, align 8
  %x.dbg.spill = alloca i32*, align 8
  %2 = alloca { i8*, i64* }, align 8
  store i32* %x, i32** %x.dbg.spill, align 8
  call void @llvm.dbg.declare(metadata i32** %x.dbg.spill, metadata !573, metadata !DIExpression()), !dbg !574
  store i32* %x, i32** %x.dbg.spill1, align 8, !dbg !575
  call void @llvm.dbg.declare(metadata i32** %x.dbg.spill1, metadata !576, metadata !DIExpression()), !dbg !585
  store i1 (i32*, %"core::fmt::Formatter"*)* @"_ZN4core3fmt3num51_$LT$impl$u20$core..fmt..Binary$u20$for$u20$i32$GT$3fmt17h5b8f1a89c9cd1facE", i1 (i32*, %"core::fmt::Formatter"*)** %f.dbg.spill, align 8, !dbg !587
  call void @llvm.dbg.declare(metadata i1 (i32*, %"core::fmt::Formatter"*)** %f.dbg.spill, metadata !584, metadata !DIExpression()), !dbg !585
  store i1 (%"core::fmt::Opaque"*, %"core::fmt::Formatter"*)* bitcast (i1 (i32*, %"core::fmt::Formatter"*)* @"_ZN4core3fmt3num51_$LT$impl$u20$core..fmt..Binary$u20$for$u20$i32$GT$3fmt17h5b8f1a89c9cd1facE" to i1 (%"core::fmt::Opaque"*, %"core::fmt::Formatter"*)*), i1 (%"core::fmt::Opaque"*, %"core::fmt::Formatter"*)** %1, align 8, !dbg !585
  %_4 = load i1 (%"core::fmt::Opaque"*, %"core::fmt::Formatter"*)*, i1 (%"core::fmt::Opaque"*, %"core::fmt::Formatter"*)** %1, align 8, !dbg !585, !nonnull !23, !noundef !23
  br label %bb1, !dbg !585

bb1:                                              ; preds = %start
  %3 = bitcast i32* %x to %"core::fmt::Opaque"*, !dbg !585
  store %"core::fmt::Opaque"* %3, %"core::fmt::Opaque"** %0, align 8, !dbg !585
  %_6 = load %"core::fmt::Opaque"*, %"core::fmt::Opaque"** %0, align 8, !dbg !585, !nonnull !23, !align !588, !noundef !23
  br label %bb2, !dbg !585

bb2:                                              ; preds = %bb1
  %4 = bitcast { i8*, i64* }* %2 to %"core::fmt::Opaque"**, !dbg !585
  store %"core::fmt::Opaque"* %_6, %"core::fmt::Opaque"** %4, align 8, !dbg !585
  %5 = getelementptr inbounds { i8*, i64* }, { i8*, i64* }* %2, i32 0, i32 1, !dbg !585
  %6 = bitcast i64** %5 to i1 (%"core::fmt::Opaque"*, %"core::fmt::Formatter"*)**, !dbg !585
  store i1 (%"core::fmt::Opaque"*, %"core::fmt::Formatter"*)* %_4, i1 (%"core::fmt::Opaque"*, %"core::fmt::Formatter"*)** %6, align 8, !dbg !585
  %7 = getelementptr inbounds { i8*, i64* }, { i8*, i64* }* %2, i32 0, i32 0, !dbg !589
  %8 = load i8*, i8** %7, align 8, !dbg !589, !nonnull !23, !align !588, !noundef !23
  %9 = getelementptr inbounds { i8*, i64* }, { i8*, i64* }* %2, i32 0, i32 1, !dbg !589
  %10 = load i64*, i64** %9, align 8, !dbg !589, !nonnull !23, !noundef !23
  %11 = insertvalue { i8*, i64* } undef, i8* %8, 0, !dbg !589
  %12 = insertvalue { i8*, i64* } %11, i64* %10, 1, !dbg !589
  ret { i8*, i64* } %12, !dbg !589
}

; core::fmt::num::<impl core::fmt::Debug for i32>::fmt
; Function Attrs: inlinehint nonlazybind uwtable
define internal zeroext i1 @"_ZN4core3fmt3num50_$LT$impl$u20$core..fmt..Debug$u20$for$u20$i32$GT$3fmt17h46417d135733516aE"(i32* align 4 %self, %"core::fmt::Formatter"* align 8 %f) unnamed_addr #0 !dbg !590 {
start:
  %f.dbg.spill = alloca %"core::fmt::Formatter"*, align 8
  %self.dbg.spill = alloca i32*, align 8
  %0 = alloca i8, align 1
  store i32* %self, i32** %self.dbg.spill, align 8
  call void @llvm.dbg.declare(metadata i32** %self.dbg.spill, metadata !595, metadata !DIExpression()), !dbg !597
  store %"core::fmt::Formatter"* %f, %"core::fmt::Formatter"** %f.dbg.spill, align 8
  call void @llvm.dbg.declare(metadata %"core::fmt::Formatter"** %f.dbg.spill, metadata !596, metadata !DIExpression()), !dbg !598
; call core::fmt::Formatter::debug_lower_hex
  %_3 = call zeroext i1 @_ZN4core3fmt9Formatter15debug_lower_hex17h861f5ddbf758e4f9E(%"core::fmt::Formatter"* align 8 %f), !dbg !599
  br label %bb1, !dbg !599

bb1:                                              ; preds = %start
  br i1 %_3, label %bb2, label %bb4, !dbg !599

bb4:                                              ; preds = %bb1
; call core::fmt::Formatter::debug_upper_hex
  %_7 = call zeroext i1 @_ZN4core3fmt9Formatter15debug_upper_hex17h21ddf2be2e6a0fd5E(%"core::fmt::Formatter"* align 8 %f), !dbg !600
  br label %bb5, !dbg !600

bb2:                                              ; preds = %bb1
; call core::fmt::num::<impl core::fmt::LowerHex for i32>::fmt
  %1 = call zeroext i1 @"_ZN4core3fmt3num53_$LT$impl$u20$core..fmt..LowerHex$u20$for$u20$i32$GT$3fmt17h46ab6094afed2354E"(i32* align 4 %self, %"core::fmt::Formatter"* align 8 %f), !dbg !601
  %2 = zext i1 %1 to i8, !dbg !601
  store i8 %2, i8* %0, align 1, !dbg !601
  br label %bb3, !dbg !601

bb3:                                              ; preds = %bb2
  br label %bb11, !dbg !602

bb11:                                             ; preds = %bb10, %bb3
  %3 = load i8, i8* %0, align 1, !dbg !603, !range !604, !noundef !23
  %4 = trunc i8 %3 to i1, !dbg !603
  ret i1 %4, !dbg !603

bb5:                                              ; preds = %bb4
  br i1 %_7, label %bb6, label %bb8, !dbg !600

bb8:                                              ; preds = %bb5
; call core::fmt::num::imp::<impl core::fmt::Display for i32>::fmt
  %5 = call zeroext i1 @"_ZN4core3fmt3num3imp52_$LT$impl$u20$core..fmt..Display$u20$for$u20$i32$GT$3fmt17h52a4838d0eaa2babE"(i32* align 4 %self, %"core::fmt::Formatter"* align 8 %f), !dbg !605
  %6 = zext i1 %5 to i8, !dbg !605
  store i8 %6, i8* %0, align 1, !dbg !605
  br label %bb9, !dbg !605

bb6:                                              ; preds = %bb5
; call core::fmt::num::<impl core::fmt::UpperHex for i32>::fmt
  %7 = call zeroext i1 @"_ZN4core3fmt3num53_$LT$impl$u20$core..fmt..UpperHex$u20$for$u20$i32$GT$3fmt17h827553a54a7e037dE"(i32* align 4 %self, %"core::fmt::Formatter"* align 8 %f), !dbg !606
  %8 = zext i1 %7 to i8, !dbg !606
  store i8 %8, i8* %0, align 1, !dbg !606
  br label %bb7, !dbg !606

bb7:                                              ; preds = %bb6
  br label %bb10, !dbg !607

bb10:                                             ; preds = %bb9, %bb7
  br label %bb11, !dbg !602

bb9:                                              ; preds = %bb8
  br label %bb10, !dbg !607
}

; core::fmt::builders::DebugList::entries
; Function Attrs: nonlazybind uwtable
define internal align 8 %"core::fmt::builders::DebugList"* @_ZN4core3fmt8builders9DebugList7entries17h6674e0fb8810f64cE(%"core::fmt::builders::DebugList"* align 8 %self, i32* %entries.0, i32* %entries.1) unnamed_addr #2 personality i32 (i32, i32, i64, %"unwind::libunwind::_Unwind_Exception"*, %"unwind::libunwind::_Unwind_Context"*)* @rust_eh_personality !dbg !608 {
start:
  %0 = alloca { i8*, i32 }, align 8
  %entries.dbg.spill = alloca { i32*, i32* }, align 8
  %self.dbg.spill = alloca %"core::fmt::builders::DebugList"*, align 8
  %entry = alloca i32*, align 8
  %_7 = alloca i32*, align 8
  %iter = alloca { i32*, i32* }, align 8
  store %"core::fmt::builders::DebugList"* %self, %"core::fmt::builders::DebugList"** %self.dbg.spill, align 8
  call void @llvm.dbg.declare(metadata %"core::fmt::builders::DebugList"** %self.dbg.spill, metadata !623, metadata !DIExpression()), !dbg !632
  %1 = getelementptr inbounds { i32*, i32* }, { i32*, i32* }* %entries.dbg.spill, i32 0, i32 0
  store i32* %entries.0, i32** %1, align 8
  %2 = getelementptr inbounds { i32*, i32* }, { i32*, i32* }* %entries.dbg.spill, i32 0, i32 1
  store i32* %entries.1, i32** %2, align 8
  call void @llvm.dbg.declare(metadata { i32*, i32* }* %entries.dbg.spill, metadata !624, metadata !DIExpression()), !dbg !633
  call void @llvm.dbg.declare(metadata { i32*, i32* }* %iter, metadata !625, metadata !DIExpression()), !dbg !634
  call void @llvm.dbg.declare(metadata i32** %entry, metadata !627, metadata !DIExpression()), !dbg !635
; call <I as core::iter::traits::collect::IntoIterator>::into_iter
  %3 = call { i32*, i32* } @"_ZN63_$LT$I$u20$as$u20$core..iter..traits..collect..IntoIterator$GT$9into_iter17h89978edf0a607c44E"(i32* %entries.0, i32* %entries.1), !dbg !636
  %_4.0 = extractvalue { i32*, i32* } %3, 0, !dbg !636
  %_4.1 = extractvalue { i32*, i32* } %3, 1, !dbg !636
  br label %bb1, !dbg !636

bb1:                                              ; preds = %start
  %4 = getelementptr inbounds { i32*, i32* }, { i32*, i32* }* %iter, i32 0, i32 0, !dbg !636
  store i32* %_4.0, i32** %4, align 8, !dbg !636
  %5 = getelementptr inbounds { i32*, i32* }, { i32*, i32* }* %iter, i32 0, i32 1, !dbg !636
  store i32* %_4.1, i32** %5, align 8, !dbg !636
  br label %bb2, !dbg !637

bb2:                                              ; preds = %bb8, %bb1
; invoke <core::slice::iter::Iter<T> as core::iter::traits::iterator::Iterator>::next
  %6 = invoke align 4 i32* @"_ZN91_$LT$core..slice..iter..Iter$LT$T$GT$$u20$as$u20$core..iter..traits..iterator..Iterator$GT$4next17h5415745c03a195c8E"({ i32*, i32* }* align 8 %iter)
          to label %bb3 unwind label %cleanup, !dbg !634

bb11:                                             ; preds = %bb10, %cleanup
  br label %bb12, !dbg !638

cleanup:                                          ; preds = %bb2
  %7 = landingpad { i8*, i32 }
          cleanup
  %8 = extractvalue { i8*, i32 } %7, 0
  %9 = extractvalue { i8*, i32 } %7, 1
  %10 = getelementptr inbounds { i8*, i32 }, { i8*, i32 }* %0, i32 0, i32 0
  store i8* %8, i8** %10, align 8
  %11 = getelementptr inbounds { i8*, i32 }, { i8*, i32 }* %0, i32 0, i32 1
  store i32 %9, i32* %11, align 8
  br label %bb11

bb3:                                              ; preds = %bb2
  store i32* %6, i32** %_7, align 8, !dbg !634
  %12 = bitcast i32** %_7 to {}**, !dbg !634
  %13 = load {}*, {}** %12, align 8, !dbg !634
  %14 = icmp eq {}* %13, null, !dbg !634
  %_10 = select i1 %14, i64 0, i64 1, !dbg !634
  switch i64 %_10, label %bb5 [
    i64 0, label %bb6
    i64 1, label %bb4
  ], !dbg !634

bb5:                                              ; preds = %bb3
  unreachable, !dbg !634

bb6:                                              ; preds = %bb3
  br label %bb9, !dbg !638

bb4:                                              ; preds = %bb3
  %15 = load i32*, i32** %_7, align 8, !dbg !639, !nonnull !23, !align !386, !noundef !23
  store i32* %15, i32** %entry, align 8, !dbg !639
  %_14.0 = bitcast i32** %entry to {}*, !dbg !640
; invoke core::fmt::builders::DebugList::entry
  %_12 = invoke align 8 %"core::fmt::builders::DebugList"* @_ZN4core3fmt8builders9DebugList5entry17h5007920add23274dE(%"core::fmt::builders::DebugList"* align 8 %self, {}* align 1 %_14.0, [3 x i64]* align 8 bitcast (<{ i8*, [16 x i8], i8* }>* @vtable.1 to [3 x i64]*))
          to label %bb7 unwind label %cleanup1, !dbg !641

bb10:                                             ; preds = %cleanup1
  br label %bb11, !dbg !642

cleanup1:                                         ; preds = %bb4
  %16 = landingpad { i8*, i32 }
          cleanup
  %17 = extractvalue { i8*, i32 } %16, 0
  %18 = extractvalue { i8*, i32 } %16, 1
  %19 = getelementptr inbounds { i8*, i32 }, { i8*, i32 }* %0, i32 0, i32 0
  store i8* %17, i8** %19, align 8
  %20 = getelementptr inbounds { i8*, i32 }, { i8*, i32 }* %0, i32 0, i32 1
  store i32 %18, i32* %20, align 8
  br label %bb10

bb7:                                              ; preds = %bb4
  br label %bb8, !dbg !642

bb8:                                              ; preds = %bb7
  br label %bb2, !dbg !637

bb12:                                             ; preds = %bb11
  %21 = bitcast { i8*, i32 }* %0 to i8**, !dbg !643
  %22 = load i8*, i8** %21, align 8, !dbg !643
  %23 = getelementptr inbounds { i8*, i32 }, { i8*, i32 }* %0, i32 0, i32 1, !dbg !643
  %24 = load i32, i32* %23, align 8, !dbg !643
  %25 = insertvalue { i8*, i32 } undef, i8* %22, 0, !dbg !643
  %26 = insertvalue { i8*, i32 } %25, i32 %24, 1, !dbg !643
  resume { i8*, i32 } %26, !dbg !643

bb9:                                              ; preds = %bb6
  ret %"core::fmt::builders::DebugList"* %self, !dbg !644
}

; core::fmt::Arguments::as_str
; Function Attrs: inlinehint nonlazybind uwtable
define internal { i8*, i64 } @_ZN4core3fmt9Arguments6as_str17h4df0e41cfcab46adE(%"core::fmt::Arguments"* align 8 %self) unnamed_addr #0 !dbg !645 {
start:
  %s.dbg.spill = alloca { [0 x i8]*, i64 }*, align 8
  %self.dbg.spill = alloca %"core::fmt::Arguments"*, align 8
  %_2 = alloca { { [0 x { [0 x i8]*, i64 }]*, i64 }, { [0 x { i8*, i64* }]*, i64 } }, align 8
  %0 = alloca { i8*, i64 }, align 8
  store %"core::fmt::Arguments"* %self, %"core::fmt::Arguments"** %self.dbg.spill, align 8
  call void @llvm.dbg.declare(metadata %"core::fmt::Arguments"** %self.dbg.spill, metadata !726, metadata !DIExpression()), !dbg !730
  %1 = bitcast %"core::fmt::Arguments"* %self to { [0 x { [0 x i8]*, i64 }]*, i64 }*, !dbg !731
  %2 = getelementptr inbounds { [0 x { [0 x i8]*, i64 }]*, i64 }, { [0 x { [0 x i8]*, i64 }]*, i64 }* %1, i32 0, i32 0, !dbg !731
  %_3.0 = load [0 x { [0 x i8]*, i64 }]*, [0 x { [0 x i8]*, i64 }]** %2, align 8, !dbg !731, !nonnull !23, !align !281, !noundef !23
  %3 = getelementptr inbounds { [0 x { [0 x i8]*, i64 }]*, i64 }, { [0 x { [0 x i8]*, i64 }]*, i64 }* %1, i32 0, i32 1, !dbg !731
  %_3.1 = load i64, i64* %3, align 8, !dbg !731
  %4 = getelementptr inbounds %"core::fmt::Arguments", %"core::fmt::Arguments"* %self, i32 0, i32 2, !dbg !732
  %5 = getelementptr inbounds { [0 x { i8*, i64* }]*, i64 }, { [0 x { i8*, i64* }]*, i64 }* %4, i32 0, i32 0, !dbg !732
  %_4.0 = load [0 x { i8*, i64* }]*, [0 x { i8*, i64* }]** %5, align 8, !dbg !732, !nonnull !23, !align !281, !noundef !23
  %6 = getelementptr inbounds { [0 x { i8*, i64* }]*, i64 }, { [0 x { i8*, i64* }]*, i64 }* %4, i32 0, i32 1, !dbg !732
  %_4.1 = load i64, i64* %6, align 8, !dbg !732
  %7 = bitcast { { [0 x { [0 x i8]*, i64 }]*, i64 }, { [0 x { i8*, i64* }]*, i64 } }* %_2 to { [0 x { [0 x i8]*, i64 }]*, i64 }*, !dbg !733
  %8 = getelementptr inbounds { [0 x { [0 x i8]*, i64 }]*, i64 }, { [0 x { [0 x i8]*, i64 }]*, i64 }* %7, i32 0, i32 0, !dbg !733
  store [0 x { [0 x i8]*, i64 }]* %_3.0, [0 x { [0 x i8]*, i64 }]** %8, align 8, !dbg !733
  %9 = getelementptr inbounds { [0 x { [0 x i8]*, i64 }]*, i64 }, { [0 x { [0 x i8]*, i64 }]*, i64 }* %7, i32 0, i32 1, !dbg !733
  store i64 %_3.1, i64* %9, align 8, !dbg !733
  %10 = getelementptr inbounds { { [0 x { [0 x i8]*, i64 }]*, i64 }, { [0 x { i8*, i64* }]*, i64 } }, { { [0 x { [0 x i8]*, i64 }]*, i64 }, { [0 x { i8*, i64* }]*, i64 } }* %_2, i32 0, i32 1, !dbg !733
  %11 = getelementptr inbounds { [0 x { i8*, i64* }]*, i64 }, { [0 x { i8*, i64* }]*, i64 }* %10, i32 0, i32 0, !dbg !733
  store [0 x { i8*, i64* }]* %_4.0, [0 x { i8*, i64* }]** %11, align 8, !dbg !733
  %12 = getelementptr inbounds { [0 x { i8*, i64* }]*, i64 }, { [0 x { i8*, i64* }]*, i64 }* %10, i32 0, i32 1, !dbg !733
  store i64 %_4.1, i64* %12, align 8, !dbg !733
  %13 = bitcast { { [0 x { [0 x i8]*, i64 }]*, i64 }, { [0 x { i8*, i64* }]*, i64 } }* %_2 to { [0 x { [0 x i8]*, i64 }]*, i64 }*, !dbg !734
  %14 = getelementptr inbounds { [0 x { [0 x i8]*, i64 }]*, i64 }, { [0 x { [0 x i8]*, i64 }]*, i64 }* %13, i32 0, i32 0, !dbg !734
  %_21.0 = load [0 x { [0 x i8]*, i64 }]*, [0 x { [0 x i8]*, i64 }]** %14, align 8, !dbg !734, !nonnull !23, !align !281, !noundef !23
  %15 = getelementptr inbounds { [0 x { [0 x i8]*, i64 }]*, i64 }, { [0 x { [0 x i8]*, i64 }]*, i64 }* %13, i32 0, i32 1, !dbg !734
  %_21.1 = load i64, i64* %15, align 8, !dbg !734
  %_16 = icmp eq i64 %_21.1, 0, !dbg !734
  br i1 %_16, label %bb1, label %bb3, !dbg !734

bb3:                                              ; preds = %start
  %16 = bitcast { { [0 x { [0 x i8]*, i64 }]*, i64 }, { [0 x { i8*, i64* }]*, i64 } }* %_2 to { [0 x { [0 x i8]*, i64 }]*, i64 }*, !dbg !735
  %17 = getelementptr inbounds { [0 x { [0 x i8]*, i64 }]*, i64 }, { [0 x { [0 x i8]*, i64 }]*, i64 }* %16, i32 0, i32 0, !dbg !735
  %_23.0 = load [0 x { [0 x i8]*, i64 }]*, [0 x { [0 x i8]*, i64 }]** %17, align 8, !dbg !735, !nonnull !23, !align !281, !noundef !23
  %18 = getelementptr inbounds { [0 x { [0 x i8]*, i64 }]*, i64 }, { [0 x { [0 x i8]*, i64 }]*, i64 }* %16, i32 0, i32 1, !dbg !735
  %_23.1 = load i64, i64* %18, align 8, !dbg !735
  %_13 = icmp eq i64 %_23.1, 1, !dbg !735
  br i1 %_13, label %bb4, label %bb2, !dbg !735

bb1:                                              ; preds = %start
  %19 = getelementptr inbounds { { [0 x { [0 x i8]*, i64 }]*, i64 }, { [0 x { i8*, i64* }]*, i64 } }, { { [0 x { [0 x i8]*, i64 }]*, i64 }, { [0 x { i8*, i64* }]*, i64 } }* %_2, i32 0, i32 1, !dbg !736
  %20 = getelementptr inbounds { [0 x { i8*, i64* }]*, i64 }, { [0 x { i8*, i64* }]*, i64 }* %19, i32 0, i32 0, !dbg !736
  %_22.0 = load [0 x { i8*, i64* }]*, [0 x { i8*, i64* }]** %20, align 8, !dbg !736, !nonnull !23, !align !281, !noundef !23
  %21 = getelementptr inbounds { [0 x { i8*, i64* }]*, i64 }, { [0 x { i8*, i64* }]*, i64 }* %19, i32 0, i32 1, !dbg !736
  %_22.1 = load i64, i64* %21, align 8, !dbg !736
  %_7 = icmp eq i64 %_22.1, 0, !dbg !736
  br i1 %_7, label %bb5, label %bb2, !dbg !736

bb2:                                              ; preds = %bb4, %bb3, %bb1
  %22 = bitcast { i8*, i64 }* %0 to {}**, !dbg !737
  store {}* null, {}** %22, align 8, !dbg !737
  br label %bb7, !dbg !737

bb5:                                              ; preds = %bb1
  %23 = bitcast { i8*, i64 }* %0 to { [0 x i8]*, i64 }*, !dbg !738
  %24 = getelementptr inbounds { [0 x i8]*, i64 }, { [0 x i8]*, i64 }* %23, i32 0, i32 0, !dbg !738
  store [0 x i8]* bitcast (<{}>* @alloc97 to [0 x i8]*), [0 x i8]** %24, align 8, !dbg !738
  %25 = getelementptr inbounds { [0 x i8]*, i64 }, { [0 x i8]*, i64 }* %23, i32 0, i32 1, !dbg !738
  store i64 0, i64* %25, align 8, !dbg !738
  br label %bb7, !dbg !739

bb7:                                              ; preds = %bb2, %bb6, %bb5
  %26 = getelementptr inbounds { i8*, i64 }, { i8*, i64 }* %0, i32 0, i32 0, !dbg !740
  %27 = load i8*, i8** %26, align 8, !dbg !740, !align !588
  %28 = getelementptr inbounds { i8*, i64 }, { i8*, i64 }* %0, i32 0, i32 1, !dbg !740
  %29 = load i64, i64* %28, align 8, !dbg !740
  %30 = insertvalue { i8*, i64 } undef, i8* %27, 0, !dbg !740
  %31 = insertvalue { i8*, i64 } %30, i64 %29, 1, !dbg !740
  ret { i8*, i64 } %31, !dbg !740

bb4:                                              ; preds = %bb3
  %32 = getelementptr inbounds { { [0 x { [0 x i8]*, i64 }]*, i64 }, { [0 x { i8*, i64* }]*, i64 } }, { { [0 x { [0 x i8]*, i64 }]*, i64 }, { [0 x { i8*, i64* }]*, i64 } }* %_2, i32 0, i32 1, !dbg !741
  %33 = getelementptr inbounds { [0 x { i8*, i64* }]*, i64 }, { [0 x { i8*, i64* }]*, i64 }* %32, i32 0, i32 0, !dbg !741
  %_24.0 = load [0 x { i8*, i64* }]*, [0 x { i8*, i64* }]** %33, align 8, !dbg !741, !nonnull !23, !align !281, !noundef !23
  %34 = getelementptr inbounds { [0 x { i8*, i64* }]*, i64 }, { [0 x { i8*, i64* }]*, i64 }* %32, i32 0, i32 1, !dbg !741
  %_24.1 = load i64, i64* %34, align 8, !dbg !741
  %_10 = icmp eq i64 %_24.1, 0, !dbg !741
  br i1 %_10, label %bb6, label %bb2, !dbg !741

bb6:                                              ; preds = %bb4
  %35 = bitcast { { [0 x { [0 x i8]*, i64 }]*, i64 }, { [0 x { i8*, i64* }]*, i64 } }* %_2 to { [0 x { [0 x i8]*, i64 }]*, i64 }*, !dbg !742
  %36 = getelementptr inbounds { [0 x { [0 x i8]*, i64 }]*, i64 }, { [0 x { [0 x i8]*, i64 }]*, i64 }* %35, i32 0, i32 0, !dbg !742
  %_25.0 = load [0 x { [0 x i8]*, i64 }]*, [0 x { [0 x i8]*, i64 }]** %36, align 8, !dbg !742, !nonnull !23, !align !281, !noundef !23
  %37 = getelementptr inbounds { [0 x { [0 x i8]*, i64 }]*, i64 }, { [0 x { [0 x i8]*, i64 }]*, i64 }* %35, i32 0, i32 1, !dbg !742
  %_25.1 = load i64, i64* %37, align 8, !dbg !742
  %s = getelementptr inbounds [0 x { [0 x i8]*, i64 }], [0 x { [0 x i8]*, i64 }]* %_25.0, i64 0, i64 0, !dbg !742
  store { [0 x i8]*, i64 }* %s, { [0 x i8]*, i64 }** %s.dbg.spill, align 8, !dbg !742
  call void @llvm.dbg.declare(metadata { [0 x i8]*, i64 }** %s.dbg.spill, metadata !727, metadata !DIExpression()), !dbg !743
  %38 = getelementptr inbounds { [0 x i8]*, i64 }, { [0 x i8]*, i64 }* %s, i32 0, i32 0, !dbg !744
  %_26.0 = load [0 x i8]*, [0 x i8]** %38, align 8, !dbg !744, !nonnull !23, !align !588, !noundef !23
  %39 = getelementptr inbounds { [0 x i8]*, i64 }, { [0 x i8]*, i64 }* %s, i32 0, i32 1, !dbg !744
  %_26.1 = load i64, i64* %39, align 8, !dbg !744
  %40 = bitcast { i8*, i64 }* %0 to { [0 x i8]*, i64 }*, !dbg !745
  %41 = getelementptr inbounds { [0 x i8]*, i64 }, { [0 x i8]*, i64 }* %40, i32 0, i32 0, !dbg !745
  store [0 x i8]* %_26.0, [0 x i8]** %41, align 8, !dbg !745
  %42 = getelementptr inbounds { [0 x i8]*, i64 }, { [0 x i8]*, i64 }* %40, i32 0, i32 1, !dbg !745
  store i64 %_26.1, i64* %42, align 8, !dbg !745
  br label %bb7, !dbg !746
}

; core::fmt::Arguments::new_v1
; Function Attrs: inlinehint nonlazybind uwtable
define internal void @_ZN4core3fmt9Arguments6new_v117h776d0f2ab8f6795cE(%"core::fmt::Arguments"* sret(%"core::fmt::Arguments") %0, [0 x { [0 x i8]*, i64 }]* align 8 %pieces.0, i64 %pieces.1, [0 x { i8*, i64* }]* align 8 %args.0, i64 %args.1) unnamed_addr #0 !dbg !747 {
start:
  %args.dbg.spill = alloca { [0 x { i8*, i64* }]*, i64 }, align 8
  %pieces.dbg.spill = alloca { [0 x { [0 x i8]*, i64 }]*, i64 }, align 8
  %_24 = alloca { i64*, i64 }, align 8
  %_16 = alloca %"core::fmt::Arguments", align 8
  %_3 = alloca i8, align 1
  %1 = getelementptr inbounds { [0 x { [0 x i8]*, i64 }]*, i64 }, { [0 x { [0 x i8]*, i64 }]*, i64 }* %pieces.dbg.spill, i32 0, i32 0
  store [0 x { [0 x i8]*, i64 }]* %pieces.0, [0 x { [0 x i8]*, i64 }]** %1, align 8
  %2 = getelementptr inbounds { [0 x { [0 x i8]*, i64 }]*, i64 }, { [0 x { [0 x i8]*, i64 }]*, i64 }* %pieces.dbg.spill, i32 0, i32 1
  store i64 %pieces.1, i64* %2, align 8
  call void @llvm.dbg.declare(metadata { [0 x { [0 x i8]*, i64 }]*, i64 }* %pieces.dbg.spill, metadata !751, metadata !DIExpression()), !dbg !753
  %3 = getelementptr inbounds { [0 x { i8*, i64* }]*, i64 }, { [0 x { i8*, i64* }]*, i64 }* %args.dbg.spill, i32 0, i32 0
  store [0 x { i8*, i64* }]* %args.0, [0 x { i8*, i64* }]** %3, align 8
  %4 = getelementptr inbounds { [0 x { i8*, i64* }]*, i64 }, { [0 x { i8*, i64* }]*, i64 }* %args.dbg.spill, i32 0, i32 1
  store i64 %args.1, i64* %4, align 8
  call void @llvm.dbg.declare(metadata { [0 x { i8*, i64* }]*, i64 }* %args.dbg.spill, metadata !752, metadata !DIExpression()), !dbg !754
  %_4 = icmp ult i64 %pieces.1, %args.1, !dbg !755
  br i1 %_4, label %bb1, label %bb2, !dbg !755

bb2:                                              ; preds = %start
  %_12 = add i64 %args.1, 1, !dbg !756
  %_9 = icmp ugt i64 %pieces.1, %_12, !dbg !757
  %5 = zext i1 %_9 to i8, !dbg !755
  store i8 %5, i8* %_3, align 1, !dbg !755
  br label %bb3, !dbg !755

bb1:                                              ; preds = %start
  store i8 1, i8* %_3, align 1, !dbg !755
  br label %bb3, !dbg !755

bb3:                                              ; preds = %bb2, %bb1
  %6 = load i8, i8* %_3, align 1, !dbg !755, !range !604, !noundef !23
  %7 = trunc i8 %6 to i1, !dbg !755
  br i1 %7, label %bb4, label %bb6, !dbg !755

bb6:                                              ; preds = %bb3
  %8 = bitcast { i64*, i64 }* %_24 to {}**, !dbg !758
  store {}* null, {}** %8, align 8, !dbg !758
  %9 = bitcast %"core::fmt::Arguments"* %0 to { [0 x { [0 x i8]*, i64 }]*, i64 }*, !dbg !759
  %10 = getelementptr inbounds { [0 x { [0 x i8]*, i64 }]*, i64 }, { [0 x { [0 x i8]*, i64 }]*, i64 }* %9, i32 0, i32 0, !dbg !759
  store [0 x { [0 x i8]*, i64 }]* %pieces.0, [0 x { [0 x i8]*, i64 }]** %10, align 8, !dbg !759
  %11 = getelementptr inbounds { [0 x { [0 x i8]*, i64 }]*, i64 }, { [0 x { [0 x i8]*, i64 }]*, i64 }* %9, i32 0, i32 1, !dbg !759
  store i64 %pieces.1, i64* %11, align 8, !dbg !759
  %12 = getelementptr inbounds %"core::fmt::Arguments", %"core::fmt::Arguments"* %0, i32 0, i32 1, !dbg !759
  %13 = getelementptr inbounds { i64*, i64 }, { i64*, i64 }* %_24, i32 0, i32 0, !dbg !759
  %14 = load i64*, i64** %13, align 8, !dbg !759, !align !281
  %15 = getelementptr inbounds { i64*, i64 }, { i64*, i64 }* %_24, i32 0, i32 1, !dbg !759
  %16 = load i64, i64* %15, align 8, !dbg !759
  %17 = getelementptr inbounds { i64*, i64 }, { i64*, i64 }* %12, i32 0, i32 0, !dbg !759
  store i64* %14, i64** %17, align 8, !dbg !759
  %18 = getelementptr inbounds { i64*, i64 }, { i64*, i64 }* %12, i32 0, i32 1, !dbg !759
  store i64 %16, i64* %18, align 8, !dbg !759
  %19 = getelementptr inbounds %"core::fmt::Arguments", %"core::fmt::Arguments"* %0, i32 0, i32 2, !dbg !759
  %20 = getelementptr inbounds { [0 x { i8*, i64* }]*, i64 }, { [0 x { i8*, i64* }]*, i64 }* %19, i32 0, i32 0, !dbg !759
  store [0 x { i8*, i64* }]* %args.0, [0 x { i8*, i64* }]** %20, align 8, !dbg !759
  %21 = getelementptr inbounds { [0 x { i8*, i64* }]*, i64 }, { [0 x { i8*, i64* }]*, i64 }* %19, i32 0, i32 1, !dbg !759
  store i64 %args.1, i64* %21, align 8, !dbg !759
  ret void, !dbg !760

bb4:                                              ; preds = %bb3
; call core::fmt::Arguments::new_v1
  call void @_ZN4core3fmt9Arguments6new_v117h776d0f2ab8f6795cE(%"core::fmt::Arguments"* sret(%"core::fmt::Arguments") %_16, [0 x { [0 x i8]*, i64 }]* align 8 bitcast (<{ i8*, [8 x i8] }>* @alloc158 to [0 x { [0 x i8]*, i64 }]*), i64 1, [0 x { i8*, i64* }]* align 8 bitcast (<{}>* @alloc97 to [0 x { i8*, i64* }]*), i64 0), !dbg !761
  br label %bb5, !dbg !761

bb5:                                              ; preds = %bb4
; call core::panicking::panic_fmt
  call void @_ZN4core9panicking9panic_fmt17h62ccf03c8a8a51b5E(%"core::fmt::Arguments"* %_16, %"core::panic::location::Location"* align 8 bitcast (<{ i8*, [16 x i8] }>* @alloc527 to %"core::panic::location::Location"*)) #15, !dbg !761
  unreachable, !dbg !761
}

; core::mem::replace
; Function Attrs: inlinehint nonlazybind uwtable
define internal i32 @_ZN4core3mem7replace17hedc68df68cbf507aE(i32* align 4 %dest, i32 %src) unnamed_addr #0 personality i32 (i32, i32, i64, %"unwind::libunwind::_Unwind_Exception"*, %"unwind::libunwind::_Unwind_Context"*)* @rust_eh_personality !dbg !762 {
start:
  %dst.dbg.spill = alloca i32*, align 8
  %result.dbg.spill = alloca i32, align 4
  %slot.dbg.spill = alloca i32, align 4
  %0 = alloca { i8*, i32 }, align 8
  %self.dbg.spill3 = alloca i32, align 4
  %self.dbg.spill = alloca i32*, align 8
  %src.dbg.spill2 = alloca i32*, align 8
  %src.dbg.spill = alloca i32, align 4
  %dest.dbg.spill = alloca i32*, align 8
  %tmp = alloca i32, align 4
  %src1 = alloca i32, align 4
  store i32* %dest, i32** %dest.dbg.spill, align 8
  call void @llvm.dbg.declare(metadata i32** %dest.dbg.spill, metadata !768, metadata !DIExpression()), !dbg !772
  store i32 %src, i32* %src.dbg.spill, align 4
  call void @llvm.dbg.declare(metadata i32* %src.dbg.spill, metadata !769, metadata !DIExpression()), !dbg !773
  call void @llvm.dbg.declare(metadata i32* %src1, metadata !774, metadata !DIExpression()), !dbg !783
  call void @llvm.dbg.declare(metadata i32* %tmp, metadata !785, metadata !DIExpression()), !dbg !803
  store i32* %dest, i32** %src.dbg.spill2, align 8, !dbg !805
  call void @llvm.dbg.declare(metadata i32** %src.dbg.spill2, metadata !792, metadata !DIExpression()), !dbg !806
  %1 = bitcast i32* %tmp to {}*, !dbg !807
  store i32* %tmp, i32** %self.dbg.spill, align 8, !dbg !803
  call void @llvm.dbg.declare(metadata i32** %self.dbg.spill, metadata !814, metadata !DIExpression()), !dbg !821
  %2 = bitcast i32* %tmp to i8*, !dbg !803
  %3 = bitcast i32* %dest to i8*, !dbg !803
  call void @llvm.memcpy.p0i8.p0i8.i64(i8* align 4 %2, i8* align 4 %3, i64 4, i1 false), !dbg !803
  %self = load i32, i32* %tmp, align 4, !dbg !803
  store i32 %self, i32* %self.dbg.spill3, align 4, !dbg !803
  call void @llvm.dbg.declare(metadata i32* %self.dbg.spill3, metadata !823, metadata !DIExpression()), !dbg !837
  br label %bb4, !dbg !837

bb4:                                              ; preds = %start
  store i32 %self, i32* %slot.dbg.spill, align 4, !dbg !837
  call void @llvm.dbg.declare(metadata i32* %slot.dbg.spill, metadata !839, metadata !DIExpression()), !dbg !846
  store i32 %self, i32* %result.dbg.spill, align 4, !dbg !846
  call void @llvm.dbg.declare(metadata i32* %result.dbg.spill, metadata !770, metadata !DIExpression()), !dbg !848
  store i32* %dest, i32** %dst.dbg.spill, align 8, !dbg !849
  call void @llvm.dbg.declare(metadata i32** %dst.dbg.spill, metadata !782, metadata !DIExpression()), !dbg !783
  store i32 %src, i32* %src1, align 4, !dbg !850
  %4 = bitcast i32* %dest to i8*, !dbg !783
  %5 = bitcast i32* %src1 to i8*, !dbg !783
  call void @llvm.memcpy.p0i8.p0i8.i64(i8* align 4 %4, i8* align 4 %5, i64 4, i1 false), !dbg !783
  ret i32 %self, !dbg !851

bb3:                                              ; No predecessors!
  br i1 true, label %bb2, label %bb1, !dbg !852

bb1:                                              ; preds = %bb2, %bb3
  %6 = bitcast { i8*, i32 }* %0 to i8**, !dbg !853
  %7 = load i8*, i8** %6, align 8, !dbg !853
  %8 = getelementptr inbounds { i8*, i32 }, { i8*, i32 }* %0, i32 0, i32 1, !dbg !853
  %9 = load i32, i32* %8, align 8, !dbg !853
  %10 = insertvalue { i8*, i32 } undef, i8* %7, 0, !dbg !853
  %11 = insertvalue { i8*, i32 } %10, i32 %9, 1, !dbg !853
  resume { i8*, i32 } %11, !dbg !853

bb2:                                              ; preds = %bb3
  br label %bb1, !dbg !852
}

; core::num::<impl usize>::checked_mul
; Function Attrs: inlinehint nonlazybind uwtable
define internal { i64, i64 } @"_ZN4core3num23_$LT$impl$u20$usize$GT$11checked_mul17h0faa29ad58c210fbE"(i64 %self, i64 %rhs) unnamed_addr #0 !dbg !854 {
start:
  %0 = alloca i8, align 1
  %b.dbg.spill4 = alloca i8, align 1
  %a.dbg.spill3 = alloca i64, align 8
  %b.dbg.spill = alloca i8, align 1
  %a.dbg.spill = alloca i64, align 8
  %1 = alloca { i64, i8 }, align 8
  %rhs.dbg.spill2 = alloca i64, align 8
  %self.dbg.spill1 = alloca i64, align 8
  %rhs.dbg.spill = alloca i64, align 8
  %self.dbg.spill = alloca i64, align 8
  %_5 = alloca { i64, i8 }, align 8
  %2 = alloca { i64, i64 }, align 8
  store i64 %self, i64* %self.dbg.spill, align 8
  call void @llvm.dbg.declare(metadata i64* %self.dbg.spill, metadata !860, metadata !DIExpression()), !dbg !865
  store i64 %rhs, i64* %rhs.dbg.spill, align 8
  call void @llvm.dbg.declare(metadata i64* %rhs.dbg.spill, metadata !861, metadata !DIExpression()), !dbg !866
  store i64 %self, i64* %self.dbg.spill1, align 8, !dbg !867
  call void @llvm.dbg.declare(metadata i64* %self.dbg.spill1, metadata !868, metadata !DIExpression()), !dbg !881
  store i64 %rhs, i64* %rhs.dbg.spill2, align 8, !dbg !882
  call void @llvm.dbg.declare(metadata i64* %rhs.dbg.spill2, metadata !877, metadata !DIExpression()), !dbg !881
  %3 = call { i64, i1 } @llvm.umul.with.overflow.i64(i64 %self, i64 %rhs), !dbg !881
  %4 = extractvalue { i64, i1 } %3, 0, !dbg !881
  %5 = extractvalue { i64, i1 } %3, 1, !dbg !881
  %6 = zext i1 %5 to i8, !dbg !881
  %7 = bitcast { i64, i8 }* %1 to i64*, !dbg !881
  store i64 %4, i64* %7, align 8, !dbg !881
  %8 = getelementptr inbounds { i64, i8 }, { i64, i8 }* %1, i32 0, i32 1, !dbg !881
  store i8 %6, i8* %8, align 8, !dbg !881
  %9 = getelementptr inbounds { i64, i8 }, { i64, i8 }* %1, i32 0, i32 0, !dbg !881
  %_13.0 = load i64, i64* %9, align 8, !dbg !881
  %10 = getelementptr inbounds { i64, i8 }, { i64, i8 }* %1, i32 0, i32 1, !dbg !881
  %11 = load i8, i8* %10, align 8, !dbg !881, !range !604, !noundef !23
  %_13.1 = trunc i8 %11 to i1, !dbg !881
  br label %bb5, !dbg !881

bb5:                                              ; preds = %start
  store i64 %_13.0, i64* %a.dbg.spill, align 8, !dbg !881
  call void @llvm.dbg.declare(metadata i64* %a.dbg.spill, metadata !878, metadata !DIExpression()), !dbg !883
  %12 = zext i1 %_13.1 to i8, !dbg !881
  store i8 %12, i8* %b.dbg.spill, align 1, !dbg !881
  call void @llvm.dbg.declare(metadata i8* %b.dbg.spill, metadata !880, metadata !DIExpression()), !dbg !883
  %13 = bitcast { i64, i8 }* %_5 to i64*, !dbg !883
  store i64 %_13.0, i64* %13, align 8, !dbg !883
  %14 = getelementptr inbounds { i64, i8 }, { i64, i8 }* %_5, i32 0, i32 1, !dbg !883
  %15 = zext i1 %_13.1 to i8, !dbg !883
  store i8 %15, i8* %14, align 8, !dbg !883
  %16 = bitcast { i64, i8 }* %_5 to i64*, !dbg !884
  %a = load i64, i64* %16, align 8, !dbg !884
  store i64 %a, i64* %a.dbg.spill3, align 8, !dbg !884
  call void @llvm.dbg.declare(metadata i64* %a.dbg.spill3, metadata !862, metadata !DIExpression()), !dbg !885
  %17 = getelementptr inbounds { i64, i8 }, { i64, i8 }* %_5, i32 0, i32 1, !dbg !886
  %18 = load i8, i8* %17, align 8, !dbg !886, !range !604, !noundef !23
  %b = trunc i8 %18 to i1, !dbg !886
  %19 = zext i1 %b to i8, !dbg !886
  store i8 %19, i8* %b.dbg.spill4, align 1, !dbg !886
  call void @llvm.dbg.declare(metadata i8* %b.dbg.spill4, metadata !864, metadata !DIExpression()), !dbg !887
  %20 = call i1 @llvm.expect.i1(i1 %b, i1 false), !dbg !888
  %21 = zext i1 %20 to i8, !dbg !888
  store i8 %21, i8* %0, align 1, !dbg !888
  %22 = load i8, i8* %0, align 1, !dbg !888, !range !604, !noundef !23
  %_8 = trunc i8 %22 to i1, !dbg !888
  br label %bb1, !dbg !888

bb1:                                              ; preds = %bb5
  br i1 %_8, label %bb2, label %bb3, !dbg !888

bb3:                                              ; preds = %bb1
  %23 = getelementptr inbounds { i64, i64 }, { i64, i64 }* %2, i32 0, i32 1, !dbg !889
  store i64 %a, i64* %23, align 8, !dbg !889
  %24 = bitcast { i64, i64 }* %2 to i64*, !dbg !889
  store i64 1, i64* %24, align 8, !dbg !889
  br label %bb4, !dbg !890

bb2:                                              ; preds = %bb1
  %25 = bitcast { i64, i64 }* %2 to i64*, !dbg !891
  store i64 0, i64* %25, align 8, !dbg !891
  br label %bb4, !dbg !890

bb4:                                              ; preds = %bb3, %bb2
  %26 = getelementptr inbounds { i64, i64 }, { i64, i64 }* %2, i32 0, i32 0, !dbg !892
  %27 = load i64, i64* %26, align 8, !dbg !892, !range !893, !noundef !23
  %28 = getelementptr inbounds { i64, i64 }, { i64, i64 }* %2, i32 0, i32 1, !dbg !892
  %29 = load i64, i64* %28, align 8, !dbg !892
  %30 = insertvalue { i64, i64 } undef, i64 %27, 0, !dbg !892
  %31 = insertvalue { i64, i64 } %30, i64 %29, 1, !dbg !892
  ret { i64, i64 } %31, !dbg !892
}

; core::ops::function::FnOnce::call_once{{vtable.shim}}
; Function Attrs: inlinehint nonlazybind uwtable
define internal i32 @"_ZN4core3ops8function6FnOnce40call_once$u7b$$u7b$vtable.shim$u7d$$u7d$17h62b1764724310aa1E"(i64** %_1) unnamed_addr #0 !dbg !894 {
start:
  %_1.dbg.spill = alloca i64**, align 8
  %_2 = alloca {}, align 1
  store i64** %_1, i64*** %_1.dbg.spill, align 8
  call void @llvm.dbg.declare(metadata i64*** %_1.dbg.spill, metadata !903, metadata !DIExpression()), !dbg !908
  call void @llvm.dbg.declare(metadata {}* %_2, metadata !904, metadata !DIExpression()), !dbg !908
  %0 = load i64*, i64** %_1, align 8, !dbg !908, !nonnull !23, !noundef !23
; call core::ops::function::FnOnce::call_once
  %1 = call i32 @_ZN4core3ops8function6FnOnce9call_once17h0936d64a01bb1771E(i64* %0), !dbg !908
  br label %bb1, !dbg !908

bb1:                                              ; preds = %start
  ret i32 %1, !dbg !908
}

; core::ops::function::FnOnce::call_once
; Function Attrs: inlinehint nonlazybind uwtable
define internal i32 @_ZN4core3ops8function6FnOnce9call_once17h0936d64a01bb1771E(i64* %0) unnamed_addr #0 personality i32 (i32, i32, i64, %"unwind::libunwind::_Unwind_Exception"*, %"unwind::libunwind::_Unwind_Context"*)* @rust_eh_personality !dbg !909 {
start:
  %1 = alloca { i8*, i32 }, align 8
  %_2 = alloca {}, align 1
  %_1 = alloca i64*, align 8
  store i64* %0, i64** %_1, align 8
  call void @llvm.dbg.declare(metadata i64** %_1, metadata !913, metadata !DIExpression()), !dbg !915
  call void @llvm.dbg.declare(metadata {}* %_2, metadata !914, metadata !DIExpression()), !dbg !915
; invoke std::rt::lang_start::{{closure}}
  %2 = invoke i32 @"_ZN3std2rt10lang_start28_$u7b$$u7b$closure$u7d$$u7d$17haa57050192edbacaE"(i64** align 8 %_1)
          to label %bb1 unwind label %cleanup, !dbg !915

bb3:                                              ; preds = %cleanup
  br label %bb4, !dbg !915

cleanup:                                          ; preds = %start
  %3 = landingpad { i8*, i32 }
          cleanup
  %4 = extractvalue { i8*, i32 } %3, 0
  %5 = extractvalue { i8*, i32 } %3, 1
  %6 = getelementptr inbounds { i8*, i32 }, { i8*, i32 }* %1, i32 0, i32 0
  store i8* %4, i8** %6, align 8
  %7 = getelementptr inbounds { i8*, i32 }, { i8*, i32 }* %1, i32 0, i32 1
  store i32 %5, i32* %7, align 8
  br label %bb3

bb1:                                              ; preds = %start
  br label %bb2, !dbg !915

bb4:                                              ; preds = %bb3
  %8 = bitcast { i8*, i32 }* %1 to i8**, !dbg !915
  %9 = load i8*, i8** %8, align 8, !dbg !915
  %10 = getelementptr inbounds { i8*, i32 }, { i8*, i32 }* %1, i32 0, i32 1, !dbg !915
  %11 = load i32, i32* %10, align 8, !dbg !915
  %12 = insertvalue { i8*, i32 } undef, i8* %9, 0, !dbg !915
  %13 = insertvalue { i8*, i32 } %12, i32 %11, 1, !dbg !915
  resume { i8*, i32 } %13, !dbg !915

bb2:                                              ; preds = %bb1
  ret i32 %2, !dbg !915
}

; core::ops::function::FnOnce::call_once
; Function Attrs: inlinehint nonlazybind uwtable
define internal void @_ZN4core3ops8function6FnOnce9call_once17h2d8bce1c3d41a520E(void ()* %_1) unnamed_addr #0 !dbg !916 {
start:
  %_1.dbg.spill = alloca void ()*, align 8
  %_2 = alloca {}, align 1
  store void ()* %_1, void ()** %_1.dbg.spill, align 8
  call void @llvm.dbg.declare(metadata void ()** %_1.dbg.spill, metadata !918, metadata !DIExpression()), !dbg !922
  call void @llvm.dbg.declare(metadata {}* %_2, metadata !919, metadata !DIExpression()), !dbg !922
  call void %_1(), !dbg !922
  br label %bb1, !dbg !922

bb1:                                              ; preds = %start
  ret void, !dbg !922
}

; core::ops::function::FnOnce::call_once
; Function Attrs: inlinehint nonlazybind uwtable
define internal void @_ZN4core3ops8function6FnOnce9call_once17h39e8eb38d436df64E() unnamed_addr #0 personality i32 (i32, i32, i64, %"unwind::libunwind::_Unwind_Exception"*, %"unwind::libunwind::_Unwind_Context"*)* @rust_eh_personality !dbg !923 {
start:
  %0 = alloca { i8*, i32 }, align 8
  %_2 = alloca {}, align 1
  %_1 = alloca %"[closure@src/test_idiomatic_control_flow.rs:5:1: 12:2]", align 1
  call void @llvm.dbg.declare(metadata %"[closure@src/test_idiomatic_control_flow.rs:5:1: 12:2]"* %_1, metadata !931, metadata !DIExpression()), !dbg !935
  call void @llvm.dbg.declare(metadata {}* %_2, metadata !932, metadata !DIExpression()), !dbg !935
; invoke goto_tests::test_idiomatic_control_flow::test_idiomatic_switch::{{closure}}
  invoke void @"_ZN10goto_tests27test_idiomatic_control_flow21test_idiomatic_switch28_$u7b$$u7b$closure$u7d$$u7d$17h1cdec134e96ab62dE"(%"[closure@src/test_idiomatic_control_flow.rs:5:1: 12:2]"* align 1 %_1)
          to label %bb1 unwind label %cleanup, !dbg !935

bb3:                                              ; preds = %cleanup
  br label %bb4, !dbg !935

cleanup:                                          ; preds = %start
  %1 = landingpad { i8*, i32 }
          cleanup
  %2 = extractvalue { i8*, i32 } %1, 0
  %3 = extractvalue { i8*, i32 } %1, 1
  %4 = getelementptr inbounds { i8*, i32 }, { i8*, i32 }* %0, i32 0, i32 0
  store i8* %2, i8** %4, align 8
  %5 = getelementptr inbounds { i8*, i32 }, { i8*, i32 }* %0, i32 0, i32 1
  store i32 %3, i32* %5, align 8
  br label %bb3

bb1:                                              ; preds = %start
  br label %bb2, !dbg !935

bb4:                                              ; preds = %bb3
  %6 = bitcast { i8*, i32 }* %0 to i8**, !dbg !935
  %7 = load i8*, i8** %6, align 8, !dbg !935
  %8 = getelementptr inbounds { i8*, i32 }, { i8*, i32 }* %0, i32 0, i32 1, !dbg !935
  %9 = load i32, i32* %8, align 8, !dbg !935
  %10 = insertvalue { i8*, i32 } undef, i8* %7, 0, !dbg !935
  %11 = insertvalue { i8*, i32 } %10, i32 %9, 1, !dbg !935
  resume { i8*, i32 } %11, !dbg !935

bb2:                                              ; preds = %bb1
  ret void, !dbg !935
}

; core::ops::function::FnOnce::call_once
; Function Attrs: inlinehint nonlazybind uwtable
define internal void @_ZN4core3ops8function6FnOnce9call_once17h41c763d42022b7fcE() unnamed_addr #0 personality i32 (i32, i32, i64, %"unwind::libunwind::_Unwind_Exception"*, %"unwind::libunwind::_Unwind_Context"*)* @rust_eh_personality !dbg !936 {
start:
  %0 = alloca { i8*, i32 }, align 8
  %_2 = alloca {}, align 1
  %_1 = alloca %"[closure@src/test_stmt_expr.rs:6:1: 13:2]", align 1
  call void @llvm.dbg.declare(metadata %"[closure@src/test_stmt_expr.rs:6:1: 13:2]"* %_1, metadata !943, metadata !DIExpression()), !dbg !947
  call void @llvm.dbg.declare(metadata {}* %_2, metadata !944, metadata !DIExpression()), !dbg !947
; invoke goto_tests::test_stmt_expr::test_stmt_expr_relooper::{{closure}}
  invoke void @"_ZN10goto_tests14test_stmt_expr23test_stmt_expr_relooper28_$u7b$$u7b$closure$u7d$$u7d$17ha835e6bfc8cce026E"(%"[closure@src/test_stmt_expr.rs:6:1: 13:2]"* align 1 %_1)
          to label %bb1 unwind label %cleanup, !dbg !947

bb3:                                              ; preds = %cleanup
  br label %bb4, !dbg !947

cleanup:                                          ; preds = %start
  %1 = landingpad { i8*, i32 }
          cleanup
  %2 = extractvalue { i8*, i32 } %1, 0
  %3 = extractvalue { i8*, i32 } %1, 1
  %4 = getelementptr inbounds { i8*, i32 }, { i8*, i32 }* %0, i32 0, i32 0
  store i8* %2, i8** %4, align 8
  %5 = getelementptr inbounds { i8*, i32 }, { i8*, i32 }* %0, i32 0, i32 1
  store i32 %3, i32* %5, align 8
  br label %bb3

bb1:                                              ; preds = %start
  br label %bb2, !dbg !947

bb4:                                              ; preds = %bb3
  %6 = bitcast { i8*, i32 }* %0 to i8**, !dbg !947
  %7 = load i8*, i8** %6, align 8, !dbg !947
  %8 = getelementptr inbounds { i8*, i32 }, { i8*, i32 }* %0, i32 0, i32 1, !dbg !947
  %9 = load i32, i32* %8, align 8, !dbg !947
  %10 = insertvalue { i8*, i32 } undef, i8* %7, 0, !dbg !947
  %11 = insertvalue { i8*, i32 } %10, i32 %9, 1, !dbg !947
  resume { i8*, i32 } %11, !dbg !947

bb2:                                              ; preds = %bb1
  ret void, !dbg !947
}

; core::ops::function::FnOnce::call_once
; Function Attrs: inlinehint nonlazybind uwtable
define internal { %"core::ffi::c_str::CStr"*, i64 } @_ZN4core3ops8function6FnOnce9call_once17h4476029a4f2913a1E([0 x i8]* align 1 %0, i64 %1) unnamed_addr #0 !dbg !948 {
start:
  %_1.dbg.spill = alloca {}, align 1
  %_2 = alloca { i8*, i64 }, align 8
  %2 = bitcast { i8*, i64 }* %_2 to { [0 x i8]*, i64 }*
  %3 = getelementptr inbounds { [0 x i8]*, i64 }, { [0 x i8]*, i64 }* %2, i32 0, i32 0
  store [0 x i8]* %0, [0 x i8]** %3, align 8
  %4 = getelementptr inbounds { [0 x i8]*, i64 }, { [0 x i8]*, i64 }* %2, i32 0, i32 1
  store i64 %1, i64* %4, align 8
  call void @llvm.dbg.declare(metadata {}* %_1.dbg.spill, metadata !952, metadata !DIExpression()), !dbg !957
  call void @llvm.dbg.declare(metadata { i8*, i64 }* %_2, metadata !953, metadata !DIExpression()), !dbg !957
  %5 = bitcast { i8*, i64 }* %_2 to { [0 x i8]*, i64 }*, !dbg !957
  %6 = getelementptr inbounds { [0 x i8]*, i64 }, { [0 x i8]*, i64 }* %5, i32 0, i32 0, !dbg !957
  %7 = load [0 x i8]*, [0 x i8]** %6, align 8, !dbg !957, !nonnull !23, !align !588, !noundef !23
  %8 = getelementptr inbounds { [0 x i8]*, i64 }, { [0 x i8]*, i64 }* %5, i32 0, i32 1, !dbg !957
  %9 = load i64, i64* %8, align 8, !dbg !957
; call core::ffi::c_str::CStr::from_bytes_with_nul_unchecked::rt_impl
  %10 = call { %"core::ffi::c_str::CStr"*, i64 } @_ZN4core3ffi5c_str4CStr29from_bytes_with_nul_unchecked7rt_impl17h7896654501f3620cE([0 x i8]* align 1 %7, i64 %9), !dbg !957
  %11 = extractvalue { %"core::ffi::c_str::CStr"*, i64 } %10, 0, !dbg !957
  %12 = extractvalue { %"core::ffi::c_str::CStr"*, i64 } %10, 1, !dbg !957
  br label %bb1, !dbg !957

bb1:                                              ; preds = %start
  %13 = insertvalue { %"core::ffi::c_str::CStr"*, i64 } undef, %"core::ffi::c_str::CStr"* %11, 0, !dbg !957
  %14 = insertvalue { %"core::ffi::c_str::CStr"*, i64 } %13, i64 %12, 1, !dbg !957
  ret { %"core::ffi::c_str::CStr"*, i64 } %14, !dbg !957
}

; core::ops::function::FnOnce::call_once
; Function Attrs: inlinehint nonlazybind uwtable
define internal void @_ZN4core3ops8function6FnOnce9call_once17h582b916e36887c24E() unnamed_addr #0 personality i32 (i32, i32, i64, %"unwind::libunwind::_Unwind_Exception"*, %"unwind::libunwind::_Unwind_Context"*)* @rust_eh_personality !dbg !958 {
start:
  %0 = alloca { i8*, i32 }, align 8
  %_2 = alloca {}, align 1
  %_1 = alloca %"[closure@src/test_translation_only.rs:9:1: 9:25]", align 1
  call void @llvm.dbg.declare(metadata %"[closure@src/test_translation_only.rs:9:1: 9:25]"* %_1, metadata !965, metadata !DIExpression()), !dbg !969
  call void @llvm.dbg.declare(metadata {}* %_2, metadata !966, metadata !DIExpression()), !dbg !969
; invoke goto_tests::test_translation_only::test_nothing::{{closure}}
  invoke void @"_ZN10goto_tests21test_translation_only12test_nothing28_$u7b$$u7b$closure$u7d$$u7d$17h1f996b4b9d929bd2E"(%"[closure@src/test_translation_only.rs:9:1: 9:25]"* align 1 %_1)
          to label %bb1 unwind label %cleanup, !dbg !969

bb3:                                              ; preds = %cleanup
  br label %bb4, !dbg !969

cleanup:                                          ; preds = %start
  %1 = landingpad { i8*, i32 }
          cleanup
  %2 = extractvalue { i8*, i32 } %1, 0
  %3 = extractvalue { i8*, i32 } %1, 1
  %4 = getelementptr inbounds { i8*, i32 }, { i8*, i32 }* %0, i32 0, i32 0
  store i8* %2, i8** %4, align 8
  %5 = getelementptr inbounds { i8*, i32 }, { i8*, i32 }* %0, i32 0, i32 1
  store i32 %3, i32* %5, align 8
  br label %bb3

bb1:                                              ; preds = %start
  br label %bb2, !dbg !969

bb4:                                              ; preds = %bb3
  %6 = bitcast { i8*, i32 }* %0 to i8**, !dbg !969
  %7 = load i8*, i8** %6, align 8, !dbg !969
  %8 = getelementptr inbounds { i8*, i32 }, { i8*, i32 }* %0, i32 0, i32 1, !dbg !969
  %9 = load i32, i32* %8, align 8, !dbg !969
  %10 = insertvalue { i8*, i32 } undef, i8* %7, 0, !dbg !969
  %11 = insertvalue { i8*, i32 } %10, i32 %9, 1, !dbg !969
  resume { i8*, i32 } %11, !dbg !969

bb2:                                              ; preds = %bb1
  ret void, !dbg !969
}

; core::ops::function::FnOnce::call_once
; Function Attrs: inlinehint nonlazybind uwtable
define internal void @_ZN4core3ops8function6FnOnce9call_once17h5cbed645fcfe9ec3E() unnamed_addr #0 personality i32 (i32, i32, i64, %"unwind::libunwind::_Unwind_Exception"*, %"unwind::libunwind::_Unwind_Context"*)* @rust_eh_personality !dbg !970 {
start:
  %0 = alloca { i8*, i32 }, align 8
  %_2 = alloca {}, align 1
  %_1 = alloca %"[closure@src/test_duffs.rs:5:1: 14:2]", align 1
  call void @llvm.dbg.declare(metadata %"[closure@src/test_duffs.rs:5:1: 14:2]"* %_1, metadata !977, metadata !DIExpression()), !dbg !981
  call void @llvm.dbg.declare(metadata {}* %_2, metadata !978, metadata !DIExpression()), !dbg !981
; invoke goto_tests::test_duffs::test_duffs_test_multiple_three::{{closure}}
  invoke void @"_ZN10goto_tests10test_duffs30test_duffs_test_multiple_three28_$u7b$$u7b$closure$u7d$$u7d$17h2c57ef0db7a0cba0E"(%"[closure@src/test_duffs.rs:5:1: 14:2]"* align 1 %_1)
          to label %bb1 unwind label %cleanup, !dbg !981

bb3:                                              ; preds = %cleanup
  br label %bb4, !dbg !981

cleanup:                                          ; preds = %start
  %1 = landingpad { i8*, i32 }
          cleanup
  %2 = extractvalue { i8*, i32 } %1, 0
  %3 = extractvalue { i8*, i32 } %1, 1
  %4 = getelementptr inbounds { i8*, i32 }, { i8*, i32 }* %0, i32 0, i32 0
  store i8* %2, i8** %4, align 8
  %5 = getelementptr inbounds { i8*, i32 }, { i8*, i32 }* %0, i32 0, i32 1
  store i32 %3, i32* %5, align 8
  br label %bb3

bb1:                                              ; preds = %start
  br label %bb2, !dbg !981

bb4:                                              ; preds = %bb3
  %6 = bitcast { i8*, i32 }* %0 to i8**, !dbg !981
  %7 = load i8*, i8** %6, align 8, !dbg !981
  %8 = getelementptr inbounds { i8*, i32 }, { i8*, i32 }* %0, i32 0, i32 1, !dbg !981
  %9 = load i32, i32* %8, align 8, !dbg !981
  %10 = insertvalue { i8*, i32 } undef, i8* %7, 0, !dbg !981
  %11 = insertvalue { i8*, i32 } %10, i32 %9, 1, !dbg !981
  resume { i8*, i32 } %11, !dbg !981

bb2:                                              ; preds = %bb1
  ret void, !dbg !981
}

; core::ops::function::FnOnce::call_once
; Function Attrs: inlinehint nonlazybind uwtable
define internal void @_ZN4core3ops8function6FnOnce9call_once17h5f5b600851f6dd21E(%"alloc::string::String"* sret(%"alloc::string::String") %0, [0 x i8]* align 1 %1, i64 %2) unnamed_addr #0 !dbg !982 {
start:
  %_1.dbg.spill = alloca {}, align 1
  %_2 = alloca { i8*, i64 }, align 8
  %3 = bitcast { i8*, i64 }* %_2 to { [0 x i8]*, i64 }*
  %4 = getelementptr inbounds { [0 x i8]*, i64 }, { [0 x i8]*, i64 }* %3, i32 0, i32 0
  store [0 x i8]* %1, [0 x i8]** %4, align 8
  %5 = getelementptr inbounds { [0 x i8]*, i64 }, { [0 x i8]*, i64 }* %3, i32 0, i32 1
  store i64 %2, i64* %5, align 8
  call void @llvm.dbg.declare(metadata {}* %_1.dbg.spill, metadata !993, metadata !DIExpression()), !dbg !1001
  call void @llvm.dbg.declare(metadata { i8*, i64 }* %_2, metadata !994, metadata !DIExpression()), !dbg !1001
  %6 = bitcast { i8*, i64 }* %_2 to { [0 x i8]*, i64 }*, !dbg !1001
  %7 = getelementptr inbounds { [0 x i8]*, i64 }, { [0 x i8]*, i64 }* %6, i32 0, i32 0, !dbg !1001
  %8 = load [0 x i8]*, [0 x i8]** %7, align 8, !dbg !1001, !nonnull !23, !align !588, !noundef !23
  %9 = getelementptr inbounds { [0 x i8]*, i64 }, { [0 x i8]*, i64 }* %6, i32 0, i32 1, !dbg !1001
  %10 = load i64, i64* %9, align 8, !dbg !1001
; call alloc::str::<impl alloc::borrow::ToOwned for str>::to_owned
  call void @"_ZN5alloc3str56_$LT$impl$u20$alloc..borrow..ToOwned$u20$for$u20$str$GT$8to_owned17h7414db6a71e39891E"(%"alloc::string::String"* sret(%"alloc::string::String") %0, [0 x i8]* align 1 %8, i64 %10), !dbg !1001
  br label %bb1, !dbg !1001

bb1:                                              ; preds = %start
  ret void, !dbg !1001
}

; core::ops::function::FnOnce::call_once
; Function Attrs: inlinehint nonlazybind uwtable
define internal void @_ZN4core3ops8function6FnOnce9call_once17h80068044d9e54337E() unnamed_addr #0 personality i32 (i32, i32, i64, %"unwind::libunwind::_Unwind_Exception"*, %"unwind::libunwind::_Unwind_Context"*)* @rust_eh_personality !dbg !1002 {
start:
  %0 = alloca { i8*, i32 }, align 8
  %_2 = alloca {}, align 1
  %_1 = alloca %"[closure@src/test_irreducible.rs:10:1: 16:2]", align 1
  call void @llvm.dbg.declare(metadata %"[closure@src/test_irreducible.rs:10:1: 16:2]"* %_1, metadata !1009, metadata !DIExpression()), !dbg !1013
  call void @llvm.dbg.declare(metadata {}* %_2, metadata !1010, metadata !DIExpression()), !dbg !1013
; invoke goto_tests::test_irreducible::test_irreducible::{{closure}}
  invoke void @"_ZN10goto_tests16test_irreducible16test_irreducible28_$u7b$$u7b$closure$u7d$$u7d$17h37fb6b9579b3624fE"(%"[closure@src/test_irreducible.rs:10:1: 16:2]"* align 1 %_1)
          to label %bb1 unwind label %cleanup, !dbg !1013

bb3:                                              ; preds = %cleanup
  br label %bb4, !dbg !1013

cleanup:                                          ; preds = %start
  %1 = landingpad { i8*, i32 }
          cleanup
  %2 = extractvalue { i8*, i32 } %1, 0
  %3 = extractvalue { i8*, i32 } %1, 1
  %4 = getelementptr inbounds { i8*, i32 }, { i8*, i32 }* %0, i32 0, i32 0
  store i8* %2, i8** %4, align 8
  %5 = getelementptr inbounds { i8*, i32 }, { i8*, i32 }* %0, i32 0, i32 1
  store i32 %3, i32* %5, align 8
  br label %bb3

bb1:                                              ; preds = %start
  br label %bb2, !dbg !1013

bb4:                                              ; preds = %bb3
  %6 = bitcast { i8*, i32 }* %0 to i8**, !dbg !1013
  %7 = load i8*, i8** %6, align 8, !dbg !1013
  %8 = getelementptr inbounds { i8*, i32 }, { i8*, i32 }* %0, i32 0, i32 1, !dbg !1013
  %9 = load i32, i32* %8, align 8, !dbg !1013
  %10 = insertvalue { i8*, i32 } undef, i8* %7, 0, !dbg !1013
  %11 = insertvalue { i8*, i32 } %10, i32 %9, 1, !dbg !1013
  resume { i8*, i32 } %11, !dbg !1013

bb2:                                              ; preds = %bb1
  ret void, !dbg !1013
}

; core::ops::function::FnOnce::call_once
; Function Attrs: inlinehint nonlazybind uwtable
define internal void @_ZN4core3ops8function6FnOnce9call_once17h95d2ecf64982e828E() unnamed_addr #0 personality i32 (i32, i32, i64, %"unwind::libunwind::_Unwind_Exception"*, %"unwind::libunwind::_Unwind_Context"*)* @rust_eh_personality !dbg !1014 {
start:
  %0 = alloca { i8*, i32 }, align 8
  %_2 = alloca {}, align 1
  %_1 = alloca %"[closure@src/test_idiomatic_control_flow.rs:15:1: 23:2]", align 1
  call void @llvm.dbg.declare(metadata %"[closure@src/test_idiomatic_control_flow.rs:15:1: 23:2]"* %_1, metadata !1020, metadata !DIExpression()), !dbg !1024
  call void @llvm.dbg.declare(metadata {}* %_2, metadata !1021, metadata !DIExpression()), !dbg !1024
; invoke goto_tests::test_idiomatic_control_flow::test_break_multiple_loops::{{closure}}
  invoke void @"_ZN10goto_tests27test_idiomatic_control_flow25test_break_multiple_loops28_$u7b$$u7b$closure$u7d$$u7d$17ha81f67692f40bf4bE"(%"[closure@src/test_idiomatic_control_flow.rs:15:1: 23:2]"* align 1 %_1)
          to label %bb1 unwind label %cleanup, !dbg !1024

bb3:                                              ; preds = %cleanup
  br label %bb4, !dbg !1024

cleanup:                                          ; preds = %start
  %1 = landingpad { i8*, i32 }
          cleanup
  %2 = extractvalue { i8*, i32 } %1, 0
  %3 = extractvalue { i8*, i32 } %1, 1
  %4 = getelementptr inbounds { i8*, i32 }, { i8*, i32 }* %0, i32 0, i32 0
  store i8* %2, i8** %4, align 8
  %5 = getelementptr inbounds { i8*, i32 }, { i8*, i32 }* %0, i32 0, i32 1
  store i32 %3, i32* %5, align 8
  br label %bb3

bb1:                                              ; preds = %start
  br label %bb2, !dbg !1024

bb4:                                              ; preds = %bb3
  %6 = bitcast { i8*, i32 }* %0 to i8**, !dbg !1024
  %7 = load i8*, i8** %6, align 8, !dbg !1024
  %8 = getelementptr inbounds { i8*, i32 }, { i8*, i32 }* %0, i32 0, i32 1, !dbg !1024
  %9 = load i32, i32* %8, align 8, !dbg !1024
  %10 = insertvalue { i8*, i32 } undef, i8* %7, 0, !dbg !1024
  %11 = insertvalue { i8*, i32 } %10, i32 %9, 1, !dbg !1024
  resume { i8*, i32 } %11, !dbg !1024

bb2:                                              ; preds = %bb1
  ret void, !dbg !1024
}

; core::ops::function::FnOnce::call_once
; Function Attrs: inlinehint nonlazybind uwtable
define internal void @_ZN4core3ops8function6FnOnce9call_once17ha735228e09055ff8E() unnamed_addr #0 personality i32 (i32, i32, i64, %"unwind::libunwind::_Unwind_Exception"*, %"unwind::libunwind::_Unwind_Context"*)* @rust_eh_personality !dbg !1025 {
start:
  %0 = alloca { i8*, i32 }, align 8
  %_2 = alloca {}, align 1
  %_1 = alloca %"[closure@src/test_early_returns.rs:4:1: 11:2]", align 1
  call void @llvm.dbg.declare(metadata %"[closure@src/test_early_returns.rs:4:1: 11:2]"* %_1, metadata !1032, metadata !DIExpression()), !dbg !1036
  call void @llvm.dbg.declare(metadata {}* %_2, metadata !1033, metadata !DIExpression()), !dbg !1036
; invoke goto_tests::test_early_returns::test_early_returns::{{closure}}
  invoke void @"_ZN10goto_tests18test_early_returns18test_early_returns28_$u7b$$u7b$closure$u7d$$u7d$17h3951102341ae5534E"(%"[closure@src/test_early_returns.rs:4:1: 11:2]"* align 1 %_1)
          to label %bb1 unwind label %cleanup, !dbg !1036

bb3:                                              ; preds = %cleanup
  br label %bb4, !dbg !1036

cleanup:                                          ; preds = %start
  %1 = landingpad { i8*, i32 }
          cleanup
  %2 = extractvalue { i8*, i32 } %1, 0
  %3 = extractvalue { i8*, i32 } %1, 1
  %4 = getelementptr inbounds { i8*, i32 }, { i8*, i32 }* %0, i32 0, i32 0
  store i8* %2, i8** %4, align 8
  %5 = getelementptr inbounds { i8*, i32 }, { i8*, i32 }* %0, i32 0, i32 1
  store i32 %3, i32* %5, align 8
  br label %bb3

bb1:                                              ; preds = %start
  br label %bb2, !dbg !1036

bb4:                                              ; preds = %bb3
  %6 = bitcast { i8*, i32 }* %0 to i8**, !dbg !1036
  %7 = load i8*, i8** %6, align 8, !dbg !1036
  %8 = getelementptr inbounds { i8*, i32 }, { i8*, i32 }* %0, i32 0, i32 1, !dbg !1036
  %9 = load i32, i32* %8, align 8, !dbg !1036
  %10 = insertvalue { i8*, i32 } undef, i8* %7, 0, !dbg !1036
  %11 = insertvalue { i8*, i32 } %10, i32 %9, 1, !dbg !1036
  resume { i8*, i32 } %11, !dbg !1036

bb2:                                              ; preds = %bb1
  ret void, !dbg !1036
}

; core::ops::function::FnOnce::call_once
; Function Attrs: inlinehint nonlazybind uwtable
define internal void @_ZN4core3ops8function6FnOnce9call_once17hdea7de8f2ddc79caE() unnamed_addr #0 personality i32 (i32, i32, i64, %"unwind::libunwind::_Unwind_Exception"*, %"unwind::libunwind::_Unwind_Context"*)* @rust_eh_personality !dbg !1037 {
start:
  %0 = alloca { i8*, i32 }, align 8
  %_2 = alloca {}, align 1
  %_1 = alloca %"[closure@src/test_dfa_multiple_three.rs:7:1: 19:2]", align 1
  call void @llvm.dbg.declare(metadata %"[closure@src/test_dfa_multiple_three.rs:7:1: 19:2]"* %_1, metadata !1044, metadata !DIExpression()), !dbg !1048
  call void @llvm.dbg.declare(metadata {}* %_2, metadata !1045, metadata !DIExpression()), !dbg !1048
; invoke goto_tests::test_dfa_multiple_three::test_dfa_multiple_test_multiple_three::{{closure}}
  invoke void @"_ZN10goto_tests23test_dfa_multiple_three37test_dfa_multiple_test_multiple_three28_$u7b$$u7b$closure$u7d$$u7d$17hf32eb19854636b5bE"(%"[closure@src/test_dfa_multiple_three.rs:7:1: 19:2]"* align 1 %_1)
          to label %bb1 unwind label %cleanup, !dbg !1048

bb3:                                              ; preds = %cleanup
  br label %bb4, !dbg !1048

cleanup:                                          ; preds = %start
  %1 = landingpad { i8*, i32 }
          cleanup
  %2 = extractvalue { i8*, i32 } %1, 0
  %3 = extractvalue { i8*, i32 } %1, 1
  %4 = getelementptr inbounds { i8*, i32 }, { i8*, i32 }* %0, i32 0, i32 0
  store i8* %2, i8** %4, align 8
  %5 = getelementptr inbounds { i8*, i32 }, { i8*, i32 }* %0, i32 0, i32 1
  store i32 %3, i32* %5, align 8
  br label %bb3

bb1:                                              ; preds = %start
  br label %bb2, !dbg !1048

bb4:                                              ; preds = %bb3
  %6 = bitcast { i8*, i32 }* %0 to i8**, !dbg !1048
  %7 = load i8*, i8** %6, align 8, !dbg !1048
  %8 = getelementptr inbounds { i8*, i32 }, { i8*, i32 }* %0, i32 0, i32 1, !dbg !1048
  %9 = load i32, i32* %8, align 8, !dbg !1048
  %10 = insertvalue { i8*, i32 } undef, i8* %7, 0, !dbg !1048
  %11 = insertvalue { i8*, i32 } %10, i32 %9, 1, !dbg !1048
  resume { i8*, i32 } %11, !dbg !1048

bb2:                                              ; preds = %bb1
  ret void, !dbg !1048
}

; core::ptr::drop_in_place<&i32>
; Function Attrs: inlinehint nonlazybind uwtable
define internal void @"_ZN4core3ptr28drop_in_place$LT$$RF$i32$GT$17hc9fede581f1ac710E"(i32** %_1) unnamed_addr #0 !dbg !1049 {
start:
  %_1.dbg.spill = alloca i32**, align 8
  store i32** %_1, i32*** %_1.dbg.spill, align 8
  call void @llvm.dbg.declare(metadata i32*** %_1.dbg.spill, metadata !1054, metadata !DIExpression()), !dbg !1055
  ret void, !dbg !1055
}

; core::ptr::drop_in_place<alloc::vec::Vec<u8>>
; Function Attrs: nonlazybind uwtable
define internal void @"_ZN4core3ptr46drop_in_place$LT$alloc..vec..Vec$LT$u8$GT$$GT$17hde8e5ead57c1ab69E"(%"alloc::vec::Vec<u8>"* %_1) unnamed_addr #2 personality i32 (i32, i32, i64, %"unwind::libunwind::_Unwind_Exception"*, %"unwind::libunwind::_Unwind_Context"*)* @rust_eh_personality !dbg !1056 {
start:
  %0 = alloca { i8*, i32 }, align 8
  %_1.dbg.spill = alloca %"alloc::vec::Vec<u8>"*, align 8
  store %"alloc::vec::Vec<u8>"* %_1, %"alloc::vec::Vec<u8>"** %_1.dbg.spill, align 8
  call void @llvm.dbg.declare(metadata %"alloc::vec::Vec<u8>"** %_1.dbg.spill, metadata !1061, metadata !DIExpression()), !dbg !1064
; invoke <alloc::vec::Vec<T,A> as core::ops::drop::Drop>::drop
  invoke void @"_ZN70_$LT$alloc..vec..Vec$LT$T$C$A$GT$$u20$as$u20$core..ops..drop..Drop$GT$4drop17hd07aed868a8e7a82E"(%"alloc::vec::Vec<u8>"* align 8 %_1)
          to label %bb4 unwind label %cleanup, !dbg !1064

bb3:                                              ; preds = %cleanup
  %1 = bitcast %"alloc::vec::Vec<u8>"* %_1 to { i8*, i64 }*, !dbg !1064
; invoke core::ptr::drop_in_place<alloc::raw_vec::RawVec<u8>>
  invoke void @"_ZN4core3ptr53drop_in_place$LT$alloc..raw_vec..RawVec$LT$u8$GT$$GT$17h41ae7a3bb9c68b8cE"({ i8*, i64 }* %1) #16
          to label %bb1 unwind label %abort, !dbg !1064

cleanup:                                          ; preds = %start
  %2 = landingpad { i8*, i32 }
          cleanup
  %3 = extractvalue { i8*, i32 } %2, 0
  %4 = extractvalue { i8*, i32 } %2, 1
  %5 = getelementptr inbounds { i8*, i32 }, { i8*, i32 }* %0, i32 0, i32 0
  store i8* %3, i8** %5, align 8
  %6 = getelementptr inbounds { i8*, i32 }, { i8*, i32 }* %0, i32 0, i32 1
  store i32 %4, i32* %6, align 8
  br label %bb3

bb4:                                              ; preds = %start
  %7 = bitcast %"alloc::vec::Vec<u8>"* %_1 to { i8*, i64 }*, !dbg !1064
; call core::ptr::drop_in_place<alloc::raw_vec::RawVec<u8>>
  call void @"_ZN4core3ptr53drop_in_place$LT$alloc..raw_vec..RawVec$LT$u8$GT$$GT$17h41ae7a3bb9c68b8cE"({ i8*, i64 }* %7), !dbg !1064
  br label %bb2, !dbg !1064

abort:                                            ; preds = %bb3
  %8 = landingpad { i8*, i32 }
          cleanup, !dbg !1064
; call core::panicking::panic_no_unwind
  call void @_ZN4core9panicking15panic_no_unwind17h62f8113f44cbfcbfE() #17, !dbg !1064
  unreachable, !dbg !1064

bb1:                                              ; preds = %bb3
  %9 = bitcast { i8*, i32 }* %0 to i8**, !dbg !1064
  %10 = load i8*, i8** %9, align 8, !dbg !1064
  %11 = getelementptr inbounds { i8*, i32 }, { i8*, i32 }* %0, i32 0, i32 1, !dbg !1064
  %12 = load i32, i32* %11, align 8, !dbg !1064
  %13 = insertvalue { i8*, i32 } undef, i8* %10, 0, !dbg !1064
  %14 = insertvalue { i8*, i32 } %13, i32 %12, 1, !dbg !1064
  resume { i8*, i32 } %14, !dbg !1064

bb2:                                              ; preds = %bb4
  ret void, !dbg !1064
}

; core::ptr::drop_in_place<alloc::ffi::c_str::CString>
; Function Attrs: nonlazybind uwtable
define internal void @"_ZN4core3ptr47drop_in_place$LT$alloc..ffi..c_str..CString$GT$17h70326eb27dc13dc3E"({ i8*, i64 }* %_1) unnamed_addr #2 personality i32 (i32, i32, i64, %"unwind::libunwind::_Unwind_Exception"*, %"unwind::libunwind::_Unwind_Context"*)* @rust_eh_personality !dbg !1065 {
start:
  %0 = alloca { i8*, i32 }, align 8
  %_1.dbg.spill = alloca { i8*, i64 }*, align 8
  store { i8*, i64 }* %_1, { i8*, i64 }** %_1.dbg.spill, align 8
  call void @llvm.dbg.declare(metadata { i8*, i64 }** %_1.dbg.spill, metadata !1077, metadata !DIExpression()), !dbg !1080
; invoke <alloc::ffi::c_str::CString as core::ops::drop::Drop>::drop
  invoke void @"_ZN68_$LT$alloc..ffi..c_str..CString$u20$as$u20$core..ops..drop..Drop$GT$4drop17hd5b99842f678ccfcE"({ i8*, i64 }* align 8 %_1)
          to label %bb4 unwind label %cleanup, !dbg !1080

bb3:                                              ; preds = %cleanup
  %1 = bitcast { i8*, i64 }* %_1 to { [0 x i8]*, i64 }*, !dbg !1080
; invoke core::ptr::drop_in_place<alloc::boxed::Box<[u8]>>
  invoke void @"_ZN4core3ptr58drop_in_place$LT$alloc..boxed..Box$LT$$u5b$u8$u5d$$GT$$GT$17ha8b90c989cc9f4efE"({ [0 x i8]*, i64 }* %1) #16
          to label %bb1 unwind label %abort, !dbg !1080

cleanup:                                          ; preds = %start
  %2 = landingpad { i8*, i32 }
          cleanup
  %3 = extractvalue { i8*, i32 } %2, 0
  %4 = extractvalue { i8*, i32 } %2, 1
  %5 = getelementptr inbounds { i8*, i32 }, { i8*, i32 }* %0, i32 0, i32 0
  store i8* %3, i8** %5, align 8
  %6 = getelementptr inbounds { i8*, i32 }, { i8*, i32 }* %0, i32 0, i32 1
  store i32 %4, i32* %6, align 8
  br label %bb3

bb4:                                              ; preds = %start
  %7 = bitcast { i8*, i64 }* %_1 to { [0 x i8]*, i64 }*, !dbg !1080
; call core::ptr::drop_in_place<alloc::boxed::Box<[u8]>>
  call void @"_ZN4core3ptr58drop_in_place$LT$alloc..boxed..Box$LT$$u5b$u8$u5d$$GT$$GT$17ha8b90c989cc9f4efE"({ [0 x i8]*, i64 }* %7), !dbg !1080
  br label %bb2, !dbg !1080

abort:                                            ; preds = %bb3
  %8 = landingpad { i8*, i32 }
          cleanup, !dbg !1080
; call core::panicking::panic_no_unwind
  call void @_ZN4core9panicking15panic_no_unwind17h62f8113f44cbfcbfE() #17, !dbg !1080
  unreachable, !dbg !1080

bb1:                                              ; preds = %bb3
  %9 = bitcast { i8*, i32 }* %0 to i8**, !dbg !1080
  %10 = load i8*, i8** %9, align 8, !dbg !1080
  %11 = getelementptr inbounds { i8*, i32 }, { i8*, i32 }* %0, i32 0, i32 1, !dbg !1080
  %12 = load i32, i32* %11, align 8, !dbg !1080
  %13 = insertvalue { i8*, i32 } undef, i8* %10, 0, !dbg !1080
  %14 = insertvalue { i8*, i32 } %13, i32 %12, 1, !dbg !1080
  resume { i8*, i32 } %14, !dbg !1080

bb2:                                              ; preds = %bb4
  ret void, !dbg !1080
}

; core::ptr::drop_in_place<alloc::ffi::c_str::NulError>
; Function Attrs: nonlazybind uwtable
define internal void @"_ZN4core3ptr48drop_in_place$LT$alloc..ffi..c_str..NulError$GT$17h2550d1f7b9ebeafbE"(%"alloc::ffi::c_str::NulError"* %_1) unnamed_addr #2 !dbg !1081 {
start:
  %_1.dbg.spill = alloca %"alloc::ffi::c_str::NulError"*, align 8
  store %"alloc::ffi::c_str::NulError"* %_1, %"alloc::ffi::c_str::NulError"** %_1.dbg.spill, align 8
  call void @llvm.dbg.declare(metadata %"alloc::ffi::c_str::NulError"** %_1.dbg.spill, metadata !1086, metadata !DIExpression()), !dbg !1089
  %0 = getelementptr inbounds %"alloc::ffi::c_str::NulError", %"alloc::ffi::c_str::NulError"* %_1, i32 0, i32 1, !dbg !1089
; call core::ptr::drop_in_place<alloc::vec::Vec<u8>>
  call void @"_ZN4core3ptr46drop_in_place$LT$alloc..vec..Vec$LT$u8$GT$$GT$17hde8e5ead57c1ab69E"(%"alloc::vec::Vec<u8>"* %0), !dbg !1089
  br label %bb1, !dbg !1089

bb1:                                              ; preds = %start
  ret void, !dbg !1089
}

; core::ptr::drop_in_place<&[i32; 20]>
; Function Attrs: inlinehint nonlazybind uwtable
define internal void @"_ZN4core3ptr50drop_in_place$LT$$RF$$u5b$i32$u3b$$u20$20$u5d$$GT$17h44ea58f06ce4b036E"([20 x i32]** %_1) unnamed_addr #0 !dbg !1090 {
start:
  %_1.dbg.spill = alloca [20 x i32]**, align 8
  store [20 x i32]** %_1, [20 x i32]*** %_1.dbg.spill, align 8
  call void @llvm.dbg.declare(metadata [20 x i32]*** %_1.dbg.spill, metadata !1095, metadata !DIExpression()), !dbg !1098
  ret void, !dbg !1098
}

; core::ptr::drop_in_place<alloc::raw_vec::RawVec<u8>>
; Function Attrs: nonlazybind uwtable
define internal void @"_ZN4core3ptr53drop_in_place$LT$alloc..raw_vec..RawVec$LT$u8$GT$$GT$17h41ae7a3bb9c68b8cE"({ i8*, i64 }* %_1) unnamed_addr #2 !dbg !1099 {
start:
  %_1.dbg.spill = alloca { i8*, i64 }*, align 8
  store { i8*, i64 }* %_1, { i8*, i64 }** %_1.dbg.spill, align 8
  call void @llvm.dbg.declare(metadata { i8*, i64 }** %_1.dbg.spill, metadata !1104, metadata !DIExpression()), !dbg !1107
; call <alloc::raw_vec::RawVec<T,A> as core::ops::drop::Drop>::drop
  call void @"_ZN77_$LT$alloc..raw_vec..RawVec$LT$T$C$A$GT$$u20$as$u20$core..ops..drop..Drop$GT$4drop17he0baae9ac46d0b55E"({ i8*, i64 }* align 8 %_1), !dbg !1107
  br label %bb1, !dbg !1107

bb1:                                              ; preds = %start
  ret void, !dbg !1107
}

; core::ptr::drop_in_place<alloc::boxed::Box<[u8]>>
; Function Attrs: nonlazybind uwtable
define internal void @"_ZN4core3ptr58drop_in_place$LT$alloc..boxed..Box$LT$$u5b$u8$u5d$$GT$$GT$17ha8b90c989cc9f4efE"({ [0 x i8]*, i64 }* %_1) unnamed_addr #2 personality i32 (i32, i32, i64, %"unwind::libunwind::_Unwind_Exception"*, %"unwind::libunwind::_Unwind_Context"*)* @rust_eh_personality !dbg !1108 {
start:
  %0 = alloca { i8*, i32 }, align 8
  %_1.dbg.spill = alloca { [0 x i8]*, i64 }*, align 8
  store { [0 x i8]*, i64 }* %_1, { [0 x i8]*, i64 }** %_1.dbg.spill, align 8
  call void @llvm.dbg.declare(metadata { [0 x i8]*, i64 }** %_1.dbg.spill, metadata !1113, metadata !DIExpression()), !dbg !1116
  br label %bb3, !dbg !1116

bb3:                                              ; preds = %start
  %1 = bitcast { [0 x i8]*, i64 }* %_1 to { i8*, i64 }*, !dbg !1116
  %2 = getelementptr inbounds { i8*, i64 }, { i8*, i64 }* %1, i32 0, i32 0, !dbg !1116
  %3 = load i8*, i8** %2, align 8, !dbg !1116, !nonnull !23, !noundef !23
  %4 = getelementptr inbounds { i8*, i64 }, { i8*, i64 }* %1, i32 0, i32 1, !dbg !1116
  %5 = load i64, i64* %4, align 8, !dbg !1116
; call alloc::alloc::box_free
  call void @_ZN5alloc5alloc8box_free17h0f6750c7d164f7cfE(i8* %3, i64 %5), !dbg !1116
  br label %bb1, !dbg !1116

bb4:                                              ; No predecessors!
  %6 = bitcast { [0 x i8]*, i64 }* %_1 to { i8*, i64 }*, !dbg !1116
  %7 = getelementptr inbounds { i8*, i64 }, { i8*, i64 }* %6, i32 0, i32 0, !dbg !1116
  %8 = load i8*, i8** %7, align 8, !dbg !1116, !nonnull !23, !noundef !23
  %9 = getelementptr inbounds { i8*, i64 }, { i8*, i64 }* %6, i32 0, i32 1, !dbg !1116
  %10 = load i64, i64* %9, align 8, !dbg !1116
; invoke alloc::alloc::box_free
  invoke void @_ZN5alloc5alloc8box_free17h0f6750c7d164f7cfE(i8* %8, i64 %10) #16
          to label %bb2 unwind label %abort, !dbg !1116

abort:                                            ; preds = %bb4
  %11 = landingpad { i8*, i32 }
          cleanup, !dbg !1116
; call core::panicking::panic_no_unwind
  call void @_ZN4core9panicking15panic_no_unwind17h62f8113f44cbfcbfE() #17, !dbg !1116
  unreachable, !dbg !1116

bb2:                                              ; preds = %bb4
  %12 = bitcast { i8*, i32 }* %0 to i8**, !dbg !1116
  %13 = load i8*, i8** %12, align 8, !dbg !1116
  %14 = getelementptr inbounds { i8*, i32 }, { i8*, i32 }* %0, i32 0, i32 1, !dbg !1116
  %15 = load i32, i32* %14, align 8, !dbg !1116
  %16 = insertvalue { i8*, i32 } undef, i8* %13, 0, !dbg !1116
  %17 = insertvalue { i8*, i32 } %16, i32 %15, 1, !dbg !1116
  resume { i8*, i32 } %17, !dbg !1116

bb1:                                              ; preds = %bb3
  ret void, !dbg !1116
}

; core::ptr::drop_in_place<std::rt::lang_start<()>::{{closure}}>
; Function Attrs: inlinehint nonlazybind uwtable
define internal void @"_ZN4core3ptr85drop_in_place$LT$std..rt..lang_start$LT$$LP$$RP$$GT$..$u7b$$u7b$closure$u7d$$u7d$$GT$17h66a0341b7420693cE"(i64** %_1) unnamed_addr #0 !dbg !1117 {
start:
  %_1.dbg.spill = alloca i64**, align 8
  store i64** %_1, i64*** %_1.dbg.spill, align 8
  call void @llvm.dbg.declare(metadata i64*** %_1.dbg.spill, metadata !1121, metadata !DIExpression()), !dbg !1124
  ret void, !dbg !1124
}

; core::ptr::non_null::NonNull<T>::new
; Function Attrs: inlinehint nonlazybind uwtable
define internal i8* @"_ZN4core3ptr8non_null16NonNull$LT$T$GT$3new17h92faa668602a3eafE"(i8* %ptr) unnamed_addr #0 !dbg !1125 {
start:
  %ptr.dbg.spill2 = alloca i8*, align 8
  %0 = alloca i8, align 1
  %other.dbg.spill = alloca i8*, align 8
  %data_address.dbg.spill = alloca {}*, align 8
  %1 = alloca {}*, align 8
  %self.dbg.spill1 = alloca i8*, align 8
  %self.dbg.spill = alloca i8*, align 8
  %metadata.dbg.spill = alloca {}, align 1
  %ptr.dbg.spill = alloca i8*, align 8
  %_15 = alloca %"core::ptr::metadata::PtrComponents<u8>", align 8
  %_14 = alloca %"core::ptr::metadata::PtrRepr<u8>", align 8
  %_5 = alloca i8*, align 8
  %2 = alloca i8*, align 8
  store i8* %ptr, i8** %ptr.dbg.spill, align 8
  call void @llvm.dbg.declare(metadata i8** %ptr.dbg.spill, metadata !1142, metadata !DIExpression()), !dbg !1143
  call void @llvm.dbg.declare(metadata {}* %metadata.dbg.spill, metadata !1144, metadata !DIExpression()), !dbg !1154
  store i8* %ptr, i8** %self.dbg.spill, align 8, !dbg !1169
  call void @llvm.dbg.declare(metadata i8** %self.dbg.spill, metadata !1167, metadata !DIExpression()), !dbg !1170
  store i8* %ptr, i8** %self.dbg.spill1, align 8, !dbg !1170
  call void @llvm.dbg.declare(metadata i8** %self.dbg.spill1, metadata !1171, metadata !DIExpression()), !dbg !1178
  %3 = bitcast {}** %1 to i64*, !dbg !1180
  store i64 0, i64* %3, align 8, !dbg !1180
  %data_address = load {}*, {}** %1, align 8, !dbg !1180
  store {}* %data_address, {}** %data_address.dbg.spill, align 8, !dbg !1180
  call void @llvm.dbg.declare(metadata {}** %data_address.dbg.spill, metadata !1153, metadata !DIExpression()), !dbg !1154
  br label %bb4, !dbg !1180

bb4:                                              ; preds = %start
  %4 = bitcast %"core::ptr::metadata::PtrComponents<u8>"* %_15 to {}**, !dbg !1154
  store {}* %data_address, {}** %4, align 8, !dbg !1154
  %5 = bitcast %"core::ptr::metadata::PtrRepr<u8>"* %_14 to %"core::ptr::metadata::PtrComponents<u8>"*, !dbg !1154
  %6 = bitcast %"core::ptr::metadata::PtrComponents<u8>"* %5 to i8*, !dbg !1154
  %7 = bitcast %"core::ptr::metadata::PtrComponents<u8>"* %_15 to i8*, !dbg !1154
  call void @llvm.memcpy.p0i8.p0i8.i64(i8* align 8 %6, i8* align 8 %7, i64 8, i1 false), !dbg !1154
  %8 = bitcast %"core::ptr::metadata::PtrRepr<u8>"* %_14 to i8**, !dbg !1154
  %other = load i8*, i8** %8, align 8, !dbg !1154
  store i8* %other, i8** %other.dbg.spill, align 8, !dbg !1154
  call void @llvm.dbg.declare(metadata i8** %other.dbg.spill, metadata !1177, metadata !DIExpression()), !dbg !1178
  %9 = icmp eq i8* %ptr, %other, !dbg !1178
  %10 = zext i1 %9 to i8, !dbg !1178
  store i8 %10, i8* %0, align 1, !dbg !1178
  %11 = load i8, i8* %0, align 1, !dbg !1178, !range !604, !noundef !23
  %_3 = trunc i8 %11 to i1, !dbg !1178
  br label %bb5, !dbg !1178

bb5:                                              ; preds = %bb4
  %_2 = xor i1 %_3, true, !dbg !1188
  br i1 %_2, label %bb1, label %bb2, !dbg !1188

bb2:                                              ; preds = %bb5
  %12 = bitcast i8** %2 to {}**, !dbg !1189
  store {}* null, {}** %12, align 8, !dbg !1189
  br label %bb3, !dbg !1190

bb1:                                              ; preds = %bb5
  store i8* %ptr, i8** %ptr.dbg.spill2, align 8, !dbg !1191
  call void @llvm.dbg.declare(metadata i8** %ptr.dbg.spill2, metadata !1192, metadata !DIExpression()), !dbg !1195
  store i8* %ptr, i8** %_5, align 8, !dbg !1195
  %13 = load i8*, i8** %_5, align 8, !dbg !1197, !nonnull !23, !noundef !23
  store i8* %13, i8** %2, align 8, !dbg !1197
  br label %bb3, !dbg !1190

bb3:                                              ; preds = %bb2, %bb1
  %14 = load i8*, i8** %2, align 8, !dbg !1198
  ret i8* %14, !dbg !1198
}

; core::iter::range::<impl core::iter::traits::iterator::Iterator for core::ops::range::Range<A>>::next
; Function Attrs: inlinehint nonlazybind uwtable
define internal { i32, i32 } @"_ZN4core4iter5range101_$LT$impl$u20$core..iter..traits..iterator..Iterator$u20$for$u20$core..ops..range..Range$LT$A$GT$$GT$4next17h71e3f780a6d22a4eE"({ i32, i32 }* align 4 %self) unnamed_addr #0 !dbg !1199 {
start:
  %self.dbg.spill = alloca { i32, i32 }*, align 8
  store { i32, i32 }* %self, { i32, i32 }** %self.dbg.spill, align 8
  call void @llvm.dbg.declare(metadata { i32, i32 }** %self.dbg.spill, metadata !1223, metadata !DIExpression()), !dbg !1226
; call <core::ops::range::Range<T> as core::iter::range::RangeIteratorImpl>::spec_next
  %0 = call { i32, i32 } @"_ZN89_$LT$core..ops..range..Range$LT$T$GT$$u20$as$u20$core..iter..range..RangeIteratorImpl$GT$9spec_next17hc9e5b9aa64ec4029E"({ i32, i32 }* align 4 %self), !dbg !1227
  %1 = extractvalue { i32, i32 } %0, 0, !dbg !1227
  %2 = extractvalue { i32, i32 } %0, 1, !dbg !1227
  br label %bb1, !dbg !1227

bb1:                                              ; preds = %start
  %3 = insertvalue { i32, i32 } undef, i32 %1, 0, !dbg !1228
  %4 = insertvalue { i32, i32 } %3, i32 %2, 1, !dbg !1228
  ret { i32, i32 } %4, !dbg !1228
}

; core::alloc::layout::Layout::from_size_valid_align
; Function Attrs: inlinehint nonlazybind uwtable
define internal { i64, i64 } @_ZN4core5alloc6layout6Layout21from_size_valid_align17hdffa50dc15bf46fdE(i64 %size, i64 %align) unnamed_addr #0 !dbg !1229 {
start:
  %n.dbg.spill = alloca i64, align 8
  %align.dbg.spill = alloca i64, align 8
  %size.dbg.spill = alloca i64, align 8
  %_11 = alloca { i64, i64 }, align 8
  %self1 = alloca i64, align 8
  %self = alloca i64, align 8
  %0 = alloca { i64, i64 }, align 8
  store i64 %size, i64* %size.dbg.spill, align 8
  call void @llvm.dbg.declare(metadata i64* %size.dbg.spill, metadata !1260, metadata !DIExpression()), !dbg !1262
  store i64 %align, i64* %align.dbg.spill, align 8
  call void @llvm.dbg.declare(metadata i64* %align.dbg.spill, metadata !1261, metadata !DIExpression()), !dbg !1263
  call void @llvm.dbg.declare(metadata i64* %self, metadata !1264, metadata !DIExpression()), !dbg !1275
  call void @llvm.dbg.declare(metadata i64* %self1, metadata !1277, metadata !DIExpression()), !dbg !1284
  store i64 %align, i64* %self1, align 8, !dbg !1276
  %_15 = load i64, i64* %self1, align 8, !dbg !1284, !range !1285, !noundef !23
  store i64 %_15, i64* %n.dbg.spill, align 8, !dbg !1284
  call void @llvm.dbg.declare(metadata i64* %n.dbg.spill, metadata !1286, metadata !DIExpression()), !dbg !1301
  store i64 %_15, i64* %self, align 8, !dbg !1301
  %_8 = load i64, i64* %self, align 8, !dbg !1275
  %_7 = sub i64 %_8, 1, !dbg !1303
  %_5 = sub i64 9223372036854775807, %_7, !dbg !1304
  %_3 = icmp ugt i64 %size, %_5, !dbg !1305
  br i1 %_3, label %bb1, label %bb2, !dbg !1305

bb2:                                              ; preds = %start
  %1 = bitcast { i64, i64 }* %_11 to i64*, !dbg !1306
  store i64 %size, i64* %1, align 8, !dbg !1306
  %2 = getelementptr inbounds { i64, i64 }, { i64, i64 }* %_11, i32 0, i32 1, !dbg !1306
  store i64 %align, i64* %2, align 8, !dbg !1306
  %3 = getelementptr inbounds { i64, i64 }, { i64, i64 }* %_11, i32 0, i32 0, !dbg !1307
  %4 = load i64, i64* %3, align 8, !dbg !1307
  %5 = getelementptr inbounds { i64, i64 }, { i64, i64 }* %_11, i32 0, i32 1, !dbg !1307
  %6 = load i64, i64* %5, align 8, !dbg !1307, !range !1285, !noundef !23
  %7 = getelementptr inbounds { i64, i64 }, { i64, i64 }* %0, i32 0, i32 0, !dbg !1307
  store i64 %4, i64* %7, align 8, !dbg !1307
  %8 = getelementptr inbounds { i64, i64 }, { i64, i64 }* %0, i32 0, i32 1, !dbg !1307
  store i64 %6, i64* %8, align 8, !dbg !1307
  br label %bb3, !dbg !1308

bb1:                                              ; preds = %start
  %9 = getelementptr inbounds { i64, i64 }, { i64, i64 }* %0, i32 0, i32 1, !dbg !1309
  store i64 0, i64* %9, align 8, !dbg !1309
  br label %bb3, !dbg !1308

bb3:                                              ; preds = %bb2, %bb1
  %10 = getelementptr inbounds { i64, i64 }, { i64, i64 }* %0, i32 0, i32 0, !dbg !1308
  %11 = load i64, i64* %10, align 8, !dbg !1308
  %12 = getelementptr inbounds { i64, i64 }, { i64, i64 }* %0, i32 0, i32 1, !dbg !1308
  %13 = load i64, i64* %12, align 8, !dbg !1308, !range !1310, !noundef !23
  %14 = insertvalue { i64, i64 } undef, i64 %11, 0, !dbg !1308
  %15 = insertvalue { i64, i64 } %14, i64 %13, 1, !dbg !1308
  ret { i64, i64 } %15, !dbg !1308
}

; core::alloc::layout::Layout::array
; Function Attrs: inlinehint nonlazybind uwtable
define internal { i64, i64 } @_ZN4core5alloc6layout6Layout5array17h631bc1e983310225E(i64 %n) unnamed_addr #0 !dbg !1311 {
start:
  %0 = alloca i64, align 8
  %align.dbg.spill = alloca i64, align 8
  %array_size.dbg.spill = alloca i64, align 8
  %val.dbg.spill = alloca i64, align 8
  %v.dbg.spill5 = alloca i64, align 8
  %v.dbg.spill = alloca i64, align 8
  %e.dbg.spill3 = alloca %"core::alloc::layout::LayoutError", align 1
  %e.dbg.spill = alloca %"core::alloc::layout::LayoutError", align 1
  %residual.dbg.spill2 = alloca %"core::result::Result<core::convert::Infallible, core::alloc::layout::LayoutError>::Err", align 1
  %residual.dbg.spill = alloca %"core::result::Result<core::convert::Infallible, core::alloc::layout::LayoutError>::Err", align 1
  %err.dbg.spill = alloca %"core::alloc::layout::LayoutError", align 1
  %n.dbg.spill = alloca i64, align 8
  %self1 = alloca { i64, i64 }, align 8
  %self = alloca { i64, i64 }, align 8
  %_3 = alloca { i64, i64 }, align 8
  %1 = alloca { i64, i64 }, align 8
  store i64 %n, i64* %n.dbg.spill, align 8
  call void @llvm.dbg.declare(metadata i64* %n.dbg.spill, metadata !1315, metadata !DIExpression()), !dbg !1340
  call void @llvm.dbg.declare(metadata { i64, i64 }* %self, metadata !1341, metadata !DIExpression()), !dbg !1386
  call void @llvm.dbg.declare(metadata { i64, i64 }* %self1, metadata !1388, metadata !DIExpression()), !dbg !1399
  call void @llvm.dbg.declare(metadata %"core::alloc::layout::LayoutError"* %err.dbg.spill, metadata !1395, metadata !DIExpression()), !dbg !1399
  call void @llvm.dbg.declare(metadata %"core::result::Result<core::convert::Infallible, core::alloc::layout::LayoutError>::Err"* %residual.dbg.spill, metadata !1318, metadata !DIExpression()), !dbg !1400
  call void @llvm.dbg.declare(metadata %"core::result::Result<core::convert::Infallible, core::alloc::layout::LayoutError>::Err"* %residual.dbg.spill2, metadata !1401, metadata !DIExpression()), !dbg !1413
  call void @llvm.dbg.declare(metadata %"core::alloc::layout::LayoutError"* %e.dbg.spill, metadata !1383, metadata !DIExpression()), !dbg !1415
  call void @llvm.dbg.declare(metadata %"core::alloc::layout::LayoutError"* %e.dbg.spill3, metadata !1408, metadata !DIExpression()), !dbg !1416
; call core::num::<impl usize>::checked_mul
  %2 = call { i64, i64 } @"_ZN4core3num23_$LT$impl$u20$usize$GT$11checked_mul17h0faa29ad58c210fbE"(i64 1, i64 %n), !dbg !1387
  store { i64, i64 } %2, { i64, i64 }* %self1, align 8, !dbg !1387
  br label %bb1, !dbg !1387

bb1:                                              ; preds = %start
  %3 = bitcast { i64, i64 }* %self1 to i64*, !dbg !1399
  %_15 = load i64, i64* %3, align 8, !dbg !1399, !range !893, !noundef !23
  switch i64 %_15, label %bb9 [
    i64 0, label %bb8
    i64 1, label %bb10
  ], !dbg !1399

bb9:                                              ; preds = %bb1
  unreachable, !dbg !1399

bb8:                                              ; preds = %bb1
  %4 = bitcast { i64, i64 }* %self to i64*, !dbg !1399
  store i64 1, i64* %4, align 8, !dbg !1399
  br label %bb11, !dbg !1399

bb10:                                             ; preds = %bb1
  %5 = getelementptr inbounds { i64, i64 }, { i64, i64 }* %self1, i32 0, i32 1, !dbg !1399
  %v = load i64, i64* %5, align 8, !dbg !1399
  store i64 %v, i64* %v.dbg.spill, align 8, !dbg !1399
  call void @llvm.dbg.declare(metadata i64* %v.dbg.spill, metadata !1396, metadata !DIExpression()), !dbg !1417
  %6 = getelementptr inbounds { i64, i64 }, { i64, i64 }* %self, i32 0, i32 1, !dbg !1417
  store i64 %v, i64* %6, align 8, !dbg !1417
  %7 = bitcast { i64, i64 }* %self to i64*, !dbg !1417
  store i64 0, i64* %7, align 8, !dbg !1417
  br label %bb11, !dbg !1399

bb11:                                             ; preds = %bb8, %bb10
  %8 = bitcast { i64, i64 }* %self to i64*, !dbg !1386
  %_18 = load i64, i64* %8, align 8, !dbg !1386, !range !893, !noundef !23
  switch i64 %_18, label %bb13 [
    i64 0, label %bb14
    i64 1, label %bb12
  ], !dbg !1386

bb13:                                             ; preds = %bb11
  unreachable, !dbg !1386

bb14:                                             ; preds = %bb11
  %9 = getelementptr inbounds { i64, i64 }, { i64, i64 }* %self, i32 0, i32 1, !dbg !1386
  %v4 = load i64, i64* %9, align 8, !dbg !1386
  store i64 %v4, i64* %v.dbg.spill5, align 8, !dbg !1386
  call void @llvm.dbg.declare(metadata i64* %v.dbg.spill5, metadata !1380, metadata !DIExpression()), !dbg !1418
  %10 = getelementptr inbounds { i64, i64 }, { i64, i64 }* %_3, i32 0, i32 1, !dbg !1418
  store i64 %v4, i64* %10, align 8, !dbg !1418
  %11 = bitcast { i64, i64 }* %_3 to i64*, !dbg !1418
  store i64 0, i64* %11, align 8, !dbg !1418
  br label %bb2, !dbg !1386

bb12:                                             ; preds = %bb11
  %12 = bitcast { i64, i64 }* %_3 to i64*, !dbg !1415
  store i64 1, i64* %12, align 8, !dbg !1415
  br label %bb2, !dbg !1386

bb2:                                              ; preds = %bb14, %bb12
  %13 = bitcast { i64, i64 }* %_3 to i64*, !dbg !1387
  %_9 = load i64, i64* %13, align 8, !dbg !1387, !range !893, !noundef !23
  switch i64 %_9, label %bb4 [
    i64 0, label %bb3
    i64 1, label %bb5
  ], !dbg !1387

bb4:                                              ; preds = %bb2
  unreachable, !dbg !1387

bb3:                                              ; preds = %bb2
  %14 = getelementptr inbounds { i64, i64 }, { i64, i64 }* %_3, i32 0, i32 1, !dbg !1387
  %val = load i64, i64* %14, align 8, !dbg !1387
  store i64 %val, i64* %val.dbg.spill, align 8, !dbg !1387
  call void @llvm.dbg.declare(metadata i64* %val.dbg.spill, metadata !1338, metadata !DIExpression()), !dbg !1419
  store i64 %val, i64* %array_size.dbg.spill, align 8, !dbg !1419
  call void @llvm.dbg.declare(metadata i64* %array_size.dbg.spill, metadata !1316, metadata !DIExpression()), !dbg !1420
  store i64 1, i64* %align.dbg.spill, align 8, !dbg !1421
  call void @llvm.dbg.declare(metadata i64* %align.dbg.spill, metadata !1431, metadata !DIExpression()), !dbg !1445
  store i64 1, i64* %0, align 8, !dbg !1445
  %_14 = load i64, i64* %0, align 8, !dbg !1445, !range !1285, !noundef !23
  br label %bb15, !dbg !1445

bb5:                                              ; preds = %bb2
; call <T as core::convert::From<T>>::from
  call void @"_ZN50_$LT$T$u20$as$u20$core..convert..From$LT$T$GT$$GT$4from17h45a842095735b534E"(), !dbg !1416
  br label %bb16, !dbg !1416

bb16:                                             ; preds = %bb5
  %15 = getelementptr inbounds { i64, i64 }, { i64, i64 }* %1, i32 0, i32 1, !dbg !1416
  store i64 0, i64* %15, align 8, !dbg !1416
  br label %bb7, !dbg !1447

bb7:                                              ; preds = %bb6, %bb16
  %16 = getelementptr inbounds { i64, i64 }, { i64, i64 }* %1, i32 0, i32 0, !dbg !1447
  %17 = load i64, i64* %16, align 8, !dbg !1447
  %18 = getelementptr inbounds { i64, i64 }, { i64, i64 }* %1, i32 0, i32 1, !dbg !1447
  %19 = load i64, i64* %18, align 8, !dbg !1447, !range !1310, !noundef !23
  %20 = insertvalue { i64, i64 } undef, i64 %17, 0, !dbg !1447
  %21 = insertvalue { i64, i64 } %20, i64 %19, 1, !dbg !1447
  ret { i64, i64 } %21, !dbg !1447

bb15:                                             ; preds = %bb3
; call core::alloc::layout::Layout::from_size_valid_align
  %22 = call { i64, i64 } @_ZN4core5alloc6layout6Layout21from_size_valid_align17hdffa50dc15bf46fdE(i64 %val, i64 %_14), !dbg !1448
  store { i64, i64 } %22, { i64, i64 }* %1, align 8, !dbg !1448
  br label %bb6, !dbg !1448

bb6:                                              ; preds = %bb15
  br label %bb7, !dbg !1447
}

; core::array::<impl core::fmt::Debug for [T; N]>::fmt
; Function Attrs: nonlazybind uwtable
define internal zeroext i1 @"_ZN4core5array69_$LT$impl$u20$core..fmt..Debug$u20$for$u20$$u5b$T$u3b$$u20$N$u5d$$GT$3fmt17hb215d44dc213dd5dE"([20 x i32]* align 4 %self, %"core::fmt::Formatter"* align 8 %f) unnamed_addr #2 !dbg !1449 {
start:
  %slice.dbg.spill = alloca { [0 x i32]*, i64 }, align 8
  %self.dbg.spill4 = alloca { [0 x i32]*, i64 }, align 8
  %self.dbg.spill3 = alloca [20 x i32]*, align 8
  %self.dbg.spill2 = alloca %"core::ops::range::RangeFull", align 1
  %index.dbg.spill1 = alloca %"core::ops::range::RangeFull", align 1
  %index.dbg.spill = alloca %"core::ops::range::RangeFull", align 1
  %f.dbg.spill = alloca %"core::fmt::Formatter"*, align 8
  %self.dbg.spill = alloca [20 x i32]*, align 8
  %_5 = alloca { [0 x i32]*, i64 }, align 8
  store [20 x i32]* %self, [20 x i32]** %self.dbg.spill, align 8
  call void @llvm.dbg.declare(metadata [20 x i32]** %self.dbg.spill, metadata !1456, metadata !DIExpression()), !dbg !1458
  store %"core::fmt::Formatter"* %f, %"core::fmt::Formatter"** %f.dbg.spill, align 8
  call void @llvm.dbg.declare(metadata %"core::fmt::Formatter"** %f.dbg.spill, metadata !1457, metadata !DIExpression()), !dbg !1459
  call void @llvm.dbg.declare(metadata %"core::ops::range::RangeFull"* %index.dbg.spill, metadata !1460, metadata !DIExpression()), !dbg !1470
  call void @llvm.dbg.declare(metadata %"core::ops::range::RangeFull"* %index.dbg.spill1, metadata !1472, metadata !DIExpression()), !dbg !1482
  call void @llvm.dbg.declare(metadata %"core::ops::range::RangeFull"* %self.dbg.spill2, metadata !1484, metadata !DIExpression()), !dbg !1492
  store [20 x i32]* %self, [20 x i32]** %self.dbg.spill3, align 8, !dbg !1471
  call void @llvm.dbg.declare(metadata [20 x i32]** %self.dbg.spill3, metadata !1467, metadata !DIExpression()), !dbg !1470
  %_11.0 = bitcast [20 x i32]* %self to [0 x i32]*, !dbg !1470
  %0 = getelementptr inbounds { [0 x i32]*, i64 }, { [0 x i32]*, i64 }* %self.dbg.spill4, i32 0, i32 0, !dbg !1470
  store [0 x i32]* %_11.0, [0 x i32]** %0, align 8, !dbg !1470
  %1 = getelementptr inbounds { [0 x i32]*, i64 }, { [0 x i32]*, i64 }* %self.dbg.spill4, i32 0, i32 1, !dbg !1470
  store i64 20, i64* %1, align 8, !dbg !1470
  call void @llvm.dbg.declare(metadata { [0 x i32]*, i64 }* %self.dbg.spill4, metadata !1481, metadata !DIExpression()), !dbg !1482
  %2 = getelementptr inbounds { [0 x i32]*, i64 }, { [0 x i32]*, i64 }* %slice.dbg.spill, i32 0, i32 0, !dbg !1482
  store [0 x i32]* %_11.0, [0 x i32]** %2, align 8, !dbg !1482
  %3 = getelementptr inbounds { [0 x i32]*, i64 }, { [0 x i32]*, i64 }* %slice.dbg.spill, i32 0, i32 1, !dbg !1482
  store i64 20, i64* %3, align 8, !dbg !1482
  call void @llvm.dbg.declare(metadata { [0 x i32]*, i64 }* %slice.dbg.spill, metadata !1491, metadata !DIExpression()), !dbg !1492
  %4 = getelementptr inbounds { [0 x i32]*, i64 }, { [0 x i32]*, i64 }* %_5, i32 0, i32 0, !dbg !1494
  store [0 x i32]* %_11.0, [0 x i32]** %4, align 8, !dbg !1494
  %5 = getelementptr inbounds { [0 x i32]*, i64 }, { [0 x i32]*, i64 }* %_5, i32 0, i32 1, !dbg !1494
  store i64 20, i64* %5, align 8, !dbg !1494
; call <&T as core::fmt::Debug>::fmt
  %6 = call zeroext i1 @"_ZN42_$LT$$RF$T$u20$as$u20$core..fmt..Debug$GT$3fmt17h3fa795487c2c62feE"({ [0 x i32]*, i64 }* align 8 %_5, %"core::fmt::Formatter"* align 8 %f), !dbg !1495
  br label %bb1, !dbg !1495

bb1:                                              ; preds = %start
  ret i1 %6, !dbg !1496
}

; core::array::equality::<impl core::cmp::PartialEq<[B; N]> for [A; N]>::eq
; Function Attrs: inlinehint nonlazybind uwtable
define internal zeroext i1 @"_ZN4core5array8equality103_$LT$impl$u20$core..cmp..PartialEq$LT$$u5b$B$u3b$$u20$N$u5d$$GT$$u20$for$u20$$u5b$A$u3b$$u20$N$u5d$$GT$2eq17haced310546b9777eE"([20 x i32]* align 4 %self, [20 x i32]* align 4 %other) unnamed_addr #0 !dbg !1497 {
start:
  %other.dbg.spill = alloca [20 x i32]*, align 8
  %self.dbg.spill = alloca [20 x i32]*, align 8
  store [20 x i32]* %self, [20 x i32]** %self.dbg.spill, align 8
  call void @llvm.dbg.declare(metadata [20 x i32]** %self.dbg.spill, metadata !1504, metadata !DIExpression()), !dbg !1508
  store [20 x i32]* %other, [20 x i32]** %other.dbg.spill, align 8
  call void @llvm.dbg.declare(metadata [20 x i32]** %other.dbg.spill, metadata !1505, metadata !DIExpression()), !dbg !1509
; call <T as core::array::equality::SpecArrayEq<U,_>>::spec_eq
  %0 = call zeroext i1 @"_ZN69_$LT$T$u20$as$u20$core..array..equality..SpecArrayEq$LT$U$C$_$GT$$GT$7spec_eq17h2c7710f32b560d07E"([20 x i32]* align 4 %self, [20 x i32]* align 4 %other), !dbg !1510
  br label %bb1, !dbg !1510

bb1:                                              ; preds = %start
  ret i1 %0, !dbg !1511
}

; core::clone::impls::<impl core::clone::Clone for i32>::clone
; Function Attrs: inlinehint nonlazybind uwtable
define internal i32 @"_ZN4core5clone5impls52_$LT$impl$u20$core..clone..Clone$u20$for$u20$i32$GT$5clone17h782ffb63181ed93cE"(i32* align 4 %self) unnamed_addr #0 !dbg !1512 {
start:
  %self.dbg.spill = alloca i32*, align 8
  store i32* %self, i32** %self.dbg.spill, align 8
  call void @llvm.dbg.declare(metadata i32** %self.dbg.spill, metadata !1520, metadata !DIExpression()), !dbg !1521
  %0 = load i32, i32* %self, align 4, !dbg !1522
  ret i32 %0, !dbg !1523
}

; core::slice::<impl [T]>::as_mut_ptr
; Function Attrs: inlinehint nonlazybind uwtable
define internal i32* @"_ZN4core5slice29_$LT$impl$u20$$u5b$T$u5d$$GT$10as_mut_ptr17hf0b503559d855c10E"([0 x i32]* align 4 %self.0, i64 %self.1) unnamed_addr #0 !dbg !1524 {
start:
  %self.dbg.spill = alloca { [0 x i32]*, i64 }, align 8
  %0 = getelementptr inbounds { [0 x i32]*, i64 }, { [0 x i32]*, i64 }* %self.dbg.spill, i32 0, i32 0
  store [0 x i32]* %self.0, [0 x i32]** %0, align 8
  %1 = getelementptr inbounds { [0 x i32]*, i64 }, { [0 x i32]*, i64 }* %self.dbg.spill, i32 0, i32 1
  store i64 %self.1, i64* %1, align 8
  call void @llvm.dbg.declare(metadata { [0 x i32]*, i64 }* %self.dbg.spill, metadata !1532, metadata !DIExpression()), !dbg !1533
  %2 = bitcast [0 x i32]* %self.0 to i32*, !dbg !1534
  ret i32* %2, !dbg !1535
}

; core::slice::iter::Iter<T>::new
; Function Attrs: inlinehint nonlazybind uwtable
define internal { i8*, i8* } @"_ZN4core5slice4iter13Iter$LT$T$GT$3new17h4f4efa03b3d528acE"([0 x i8]* align 1 %slice.0, i64 %slice.1) unnamed_addr #0 !dbg !1536 {
start:
  %ptr.dbg.spill10 = alloca i8*, align 8
  %0 = alloca i8*, align 8
  %count.dbg.spill9 = alloca i64, align 8
  %self.dbg.spill8 = alloca i8*, align 8
  %count.dbg.spill7 = alloca i64, align 8
  %self.dbg.spill6 = alloca i8*, align 8
  %count.dbg.spill5 = alloca i64, align 8
  %self.dbg.spill4 = alloca i8*, align 8
  %count.dbg.spill = alloca i64, align 8
  %self.dbg.spill3 = alloca i8*, align 8
  %1 = alloca i8, align 1
  %other.dbg.spill = alloca i8*, align 8
  %data_address.dbg.spill = alloca {}*, align 8
  %2 = alloca {}*, align 8
  %self.dbg.spill2 = alloca i8*, align 8
  %self.dbg.spill1 = alloca i8*, align 8
  %ptr.dbg.spill = alloca i8*, align 8
  %self.dbg.spill = alloca { [0 x i8]*, i64 }, align 8
  %metadata.dbg.spill = alloca {}, align 1
  %slice.dbg.spill = alloca { [0 x i8]*, i64 }, align 8
  %_31 = alloca %"core::ptr::metadata::PtrComponents<u8>", align 8
  %_30 = alloca %"core::ptr::metadata::PtrRepr<u8>", align 8
  %_18 = alloca i8*, align 8
  %end = alloca i8*, align 8
  %3 = alloca { i8*, i8* }, align 8
  %4 = getelementptr inbounds { [0 x i8]*, i64 }, { [0 x i8]*, i64 }* %slice.dbg.spill, i32 0, i32 0
  store [0 x i8]* %slice.0, [0 x i8]** %4, align 8
  %5 = getelementptr inbounds { [0 x i8]*, i64 }, { [0 x i8]*, i64 }* %slice.dbg.spill, i32 0, i32 1
  store i64 %slice.1, i64* %5, align 8
  call void @llvm.dbg.declare(metadata { [0 x i8]*, i64 }* %slice.dbg.spill, metadata !1550, metadata !DIExpression()), !dbg !1555
  call void @llvm.dbg.declare(metadata i8** %end, metadata !1553, metadata !DIExpression()), !dbg !1556
  call void @llvm.dbg.declare(metadata {}* %metadata.dbg.spill, metadata !1557, metadata !DIExpression()), !dbg !1564
  %6 = getelementptr inbounds { [0 x i8]*, i64 }, { [0 x i8]*, i64 }* %self.dbg.spill, i32 0, i32 0, !dbg !1580
  store [0 x i8]* %slice.0, [0 x i8]** %6, align 8, !dbg !1580
  %7 = getelementptr inbounds { [0 x i8]*, i64 }, { [0 x i8]*, i64 }* %self.dbg.spill, i32 0, i32 1, !dbg !1580
  store i64 %slice.1, i64* %7, align 8, !dbg !1580
  call void @llvm.dbg.declare(metadata { [0 x i8]*, i64 }* %self.dbg.spill, metadata !1581, metadata !DIExpression()), !dbg !1587
  %ptr = bitcast [0 x i8]* %slice.0 to i8*, !dbg !1587
  store i8* %ptr, i8** %ptr.dbg.spill, align 8, !dbg !1587
  call void @llvm.dbg.declare(metadata i8** %ptr.dbg.spill, metadata !1551, metadata !DIExpression()), !dbg !1588
  store i8* %ptr, i8** %self.dbg.spill1, align 8, !dbg !1579
  call void @llvm.dbg.declare(metadata i8** %self.dbg.spill1, metadata !1577, metadata !DIExpression()), !dbg !1589
  store i8* %ptr, i8** %self.dbg.spill2, align 8, !dbg !1589
  call void @llvm.dbg.declare(metadata i8** %self.dbg.spill2, metadata !1590, metadata !DIExpression()), !dbg !1597
  %8 = bitcast {}** %2 to i64*, !dbg !1599
  store i64 0, i64* %8, align 8, !dbg !1599
  %data_address = load {}*, {}** %2, align 8, !dbg !1599
  store {}* %data_address, {}** %data_address.dbg.spill, align 8, !dbg !1599
  call void @llvm.dbg.declare(metadata {}** %data_address.dbg.spill, metadata !1563, metadata !DIExpression()), !dbg !1564
  br label %bb5, !dbg !1599

bb5:                                              ; preds = %start
  %9 = bitcast %"core::ptr::metadata::PtrComponents<u8>"* %_31 to {}**, !dbg !1564
  store {}* %data_address, {}** %9, align 8, !dbg !1564
  %10 = bitcast %"core::ptr::metadata::PtrRepr<u8>"* %_30 to %"core::ptr::metadata::PtrComponents<u8>"*, !dbg !1564
  %11 = bitcast %"core::ptr::metadata::PtrComponents<u8>"* %10 to i8*, !dbg !1564
  %12 = bitcast %"core::ptr::metadata::PtrComponents<u8>"* %_31 to i8*, !dbg !1564
  call void @llvm.memcpy.p0i8.p0i8.i64(i8* align 8 %11, i8* align 8 %12, i64 8, i1 false), !dbg !1564
  %13 = bitcast %"core::ptr::metadata::PtrRepr<u8>"* %_30 to i8**, !dbg !1564
  %other = load i8*, i8** %13, align 8, !dbg !1564
  store i8* %other, i8** %other.dbg.spill, align 8, !dbg !1564
  call void @llvm.dbg.declare(metadata i8** %other.dbg.spill, metadata !1596, metadata !DIExpression()), !dbg !1597
  %14 = icmp eq i8* %ptr, %other, !dbg !1597
  %15 = zext i1 %14 to i8, !dbg !1597
  store i8 %15, i8* %1, align 1, !dbg !1597
  %16 = load i8, i8* %1, align 1, !dbg !1597, !range !604, !noundef !23
  %_6 = trunc i8 %16 to i1, !dbg !1597
  br label %bb6, !dbg !1597

bb6:                                              ; preds = %bb5
  %_5 = xor i1 %_6, true, !dbg !1607
  call void @llvm.assume(i1 %_5), !dbg !1608
  br label %bb1, !dbg !1608

bb1:                                              ; preds = %bb6
  br i1 false, label %bb2, label %bb3, !dbg !1609

bb2:                                              ; preds = %bb1
  store i8* %ptr, i8** %self.dbg.spill6, align 8, !dbg !1610
  call void @llvm.dbg.declare(metadata i8** %self.dbg.spill6, metadata !1611, metadata !DIExpression()), !dbg !1618
  store i64 %slice.1, i64* %count.dbg.spill7, align 8, !dbg !1619
  call void @llvm.dbg.declare(metadata i64* %count.dbg.spill7, metadata !1617, metadata !DIExpression()), !dbg !1618
  store i8* %ptr, i8** %self.dbg.spill8, align 8, !dbg !1618
  call void @llvm.dbg.declare(metadata i8** %self.dbg.spill8, metadata !1620, metadata !DIExpression()), !dbg !1627
  store i64 %slice.1, i64* %count.dbg.spill9, align 8, !dbg !1618
  call void @llvm.dbg.declare(metadata i64* %count.dbg.spill9, metadata !1626, metadata !DIExpression()), !dbg !1627
  %17 = getelementptr i8, i8* %ptr, i64 %slice.1, !dbg !1627
  store i8* %17, i8** %0, align 8, !dbg !1627
  %_10 = load i8*, i8** %0, align 8, !dbg !1627
  br label %bb7, !dbg !1627

bb3:                                              ; preds = %bb1
  store i8* %ptr, i8** %self.dbg.spill3, align 8, !dbg !1629
  call void @llvm.dbg.declare(metadata i8** %self.dbg.spill3, metadata !1630, metadata !DIExpression()), !dbg !1635
  store i64 %slice.1, i64* %count.dbg.spill, align 8, !dbg !1636
  call void @llvm.dbg.declare(metadata i64* %count.dbg.spill, metadata !1634, metadata !DIExpression()), !dbg !1635
  store i8* %ptr, i8** %self.dbg.spill4, align 8, !dbg !1635
  call void @llvm.dbg.declare(metadata i8** %self.dbg.spill4, metadata !1637, metadata !DIExpression()), !dbg !1642
  store i64 %slice.1, i64* %count.dbg.spill5, align 8, !dbg !1635
  call void @llvm.dbg.declare(metadata i64* %count.dbg.spill5, metadata !1641, metadata !DIExpression()), !dbg !1642
  %18 = getelementptr inbounds i8, i8* %ptr, i64 %slice.1, !dbg !1642
  store i8* %18, i8** %end, align 8, !dbg !1642
  br label %bb8, !dbg !1642

bb8:                                              ; preds = %bb3
  br label %bb4, !dbg !1644

bb4:                                              ; preds = %bb7, %bb8
  store i8* %ptr, i8** %ptr.dbg.spill10, align 8, !dbg !1645
  call void @llvm.dbg.declare(metadata i8** %ptr.dbg.spill10, metadata !1646, metadata !DIExpression()), !dbg !1650
  store i8* %ptr, i8** %_18, align 8, !dbg !1650
  %_21 = load i8*, i8** %end, align 8, !dbg !1652
  %19 = bitcast { i8*, i8* }* %3 to i8**, !dbg !1653
  %20 = load i8*, i8** %_18, align 8, !dbg !1653, !nonnull !23, !noundef !23
  store i8* %20, i8** %19, align 8, !dbg !1653
  %21 = getelementptr inbounds { i8*, i8* }, { i8*, i8* }* %3, i32 0, i32 1, !dbg !1653
  store i8* %_21, i8** %21, align 8, !dbg !1653
  %22 = getelementptr inbounds { i8*, i8* }, { i8*, i8* }* %3, i32 0, i32 0, !dbg !1654
  %23 = load i8*, i8** %22, align 8, !dbg !1654, !nonnull !23, !noundef !23
  %24 = getelementptr inbounds { i8*, i8* }, { i8*, i8* }* %3, i32 0, i32 1, !dbg !1654
  %25 = load i8*, i8** %24, align 8, !dbg !1654
  %26 = insertvalue { i8*, i8* } undef, i8* %23, 0, !dbg !1654
  %27 = insertvalue { i8*, i8* } %26, i8* %25, 1, !dbg !1654
  ret { i8*, i8* } %27, !dbg !1654

bb7:                                              ; preds = %bb2
  store i8* %_10, i8** %end, align 8, !dbg !1610
  br label %bb4, !dbg !1644
}

; core::slice::iter::Iter<T>::new
; Function Attrs: inlinehint nonlazybind uwtable
define internal { i32*, i32* } @"_ZN4core5slice4iter13Iter$LT$T$GT$3new17hdd37325d9d7d5063E"([0 x i32]* align 4 %slice.0, i64 %slice.1) unnamed_addr #0 !dbg !1655 {
start:
  %ptr.dbg.spill11 = alloca i32*, align 8
  %0 = alloca i8*, align 8
  %count.dbg.spill10 = alloca i64, align 8
  %self.dbg.spill9 = alloca i8*, align 8
  %count.dbg.spill8 = alloca i64, align 8
  %self.dbg.spill7 = alloca i8*, align 8
  %count.dbg.spill5 = alloca i64, align 8
  %self.dbg.spill4 = alloca i32*, align 8
  %count.dbg.spill = alloca i64, align 8
  %self.dbg.spill3 = alloca i32*, align 8
  %1 = alloca i8, align 1
  %other.dbg.spill = alloca i8*, align 8
  %data_address.dbg.spill = alloca {}*, align 8
  %2 = alloca {}*, align 8
  %self.dbg.spill2 = alloca i8*, align 8
  %self.dbg.spill1 = alloca i32*, align 8
  %ptr.dbg.spill = alloca i32*, align 8
  %self.dbg.spill = alloca { [0 x i32]*, i64 }, align 8
  %metadata.dbg.spill = alloca {}, align 1
  %slice.dbg.spill = alloca { [0 x i32]*, i64 }, align 8
  %_31 = alloca %"core::ptr::metadata::PtrComponents<u8>", align 8
  %_30 = alloca %"core::ptr::metadata::PtrRepr<u8>", align 8
  %_18 = alloca i32*, align 8
  %end = alloca i32*, align 8
  %3 = alloca { i32*, i32* }, align 8
  %4 = getelementptr inbounds { [0 x i32]*, i64 }, { [0 x i32]*, i64 }* %slice.dbg.spill, i32 0, i32 0
  store [0 x i32]* %slice.0, [0 x i32]** %4, align 8
  %5 = getelementptr inbounds { [0 x i32]*, i64 }, { [0 x i32]*, i64 }* %slice.dbg.spill, i32 0, i32 1
  store i64 %slice.1, i64* %5, align 8
  call void @llvm.dbg.declare(metadata { [0 x i32]*, i64 }* %slice.dbg.spill, metadata !1657, metadata !DIExpression()), !dbg !1662
  call void @llvm.dbg.declare(metadata i32** %end, metadata !1660, metadata !DIExpression()), !dbg !1663
  call void @llvm.dbg.declare(metadata {}* %metadata.dbg.spill, metadata !1664, metadata !DIExpression()), !dbg !1669
  %6 = getelementptr inbounds { [0 x i32]*, i64 }, { [0 x i32]*, i64 }* %self.dbg.spill, i32 0, i32 0, !dbg !1680
  store [0 x i32]* %slice.0, [0 x i32]** %6, align 8, !dbg !1680
  %7 = getelementptr inbounds { [0 x i32]*, i64 }, { [0 x i32]*, i64 }* %self.dbg.spill, i32 0, i32 1, !dbg !1680
  store i64 %slice.1, i64* %7, align 8, !dbg !1680
  call void @llvm.dbg.declare(metadata { [0 x i32]*, i64 }* %self.dbg.spill, metadata !1681, metadata !DIExpression()), !dbg !1687
  %ptr = bitcast [0 x i32]* %slice.0 to i32*, !dbg !1687
  store i32* %ptr, i32** %ptr.dbg.spill, align 8, !dbg !1687
  call void @llvm.dbg.declare(metadata i32** %ptr.dbg.spill, metadata !1658, metadata !DIExpression()), !dbg !1688
  store i32* %ptr, i32** %self.dbg.spill1, align 8, !dbg !1679
  call void @llvm.dbg.declare(metadata i32** %self.dbg.spill1, metadata !1677, metadata !DIExpression()), !dbg !1689
  %self = bitcast i32* %ptr to i8*, !dbg !1689
  store i8* %self, i8** %self.dbg.spill2, align 8, !dbg !1689
  call void @llvm.dbg.declare(metadata i8** %self.dbg.spill2, metadata !1690, metadata !DIExpression()), !dbg !1695
  %8 = bitcast {}** %2 to i64*, !dbg !1697
  store i64 0, i64* %8, align 8, !dbg !1697
  %data_address = load {}*, {}** %2, align 8, !dbg !1697
  store {}* %data_address, {}** %data_address.dbg.spill, align 8, !dbg !1697
  call void @llvm.dbg.declare(metadata {}** %data_address.dbg.spill, metadata !1668, metadata !DIExpression()), !dbg !1669
  br label %bb5, !dbg !1697

bb5:                                              ; preds = %start
  %9 = bitcast %"core::ptr::metadata::PtrComponents<u8>"* %_31 to {}**, !dbg !1669
  store {}* %data_address, {}** %9, align 8, !dbg !1669
  %10 = bitcast %"core::ptr::metadata::PtrRepr<u8>"* %_30 to %"core::ptr::metadata::PtrComponents<u8>"*, !dbg !1669
  %11 = bitcast %"core::ptr::metadata::PtrComponents<u8>"* %10 to i8*, !dbg !1669
  %12 = bitcast %"core::ptr::metadata::PtrComponents<u8>"* %_31 to i8*, !dbg !1669
  call void @llvm.memcpy.p0i8.p0i8.i64(i8* align 8 %11, i8* align 8 %12, i64 8, i1 false), !dbg !1669
  %13 = bitcast %"core::ptr::metadata::PtrRepr<u8>"* %_30 to i8**, !dbg !1669
  %other = load i8*, i8** %13, align 8, !dbg !1669
  store i8* %other, i8** %other.dbg.spill, align 8, !dbg !1669
  call void @llvm.dbg.declare(metadata i8** %other.dbg.spill, metadata !1694, metadata !DIExpression()), !dbg !1695
  %14 = icmp eq i8* %self, %other, !dbg !1695
  %15 = zext i1 %14 to i8, !dbg !1695
  store i8 %15, i8* %1, align 1, !dbg !1695
  %16 = load i8, i8* %1, align 1, !dbg !1695, !range !604, !noundef !23
  %_6 = trunc i8 %16 to i1, !dbg !1695
  br label %bb6, !dbg !1695

bb6:                                              ; preds = %bb5
  %_5 = xor i1 %_6, true, !dbg !1703
  call void @llvm.assume(i1 %_5), !dbg !1704
  br label %bb1, !dbg !1704

bb1:                                              ; preds = %bb6
  br i1 false, label %bb2, label %bb3, !dbg !1705

bb2:                                              ; preds = %bb1
  %self6 = bitcast i32* %ptr to i8*, !dbg !1706
  store i8* %self6, i8** %self.dbg.spill7, align 8, !dbg !1706
  call void @llvm.dbg.declare(metadata i8** %self.dbg.spill7, metadata !1707, metadata !DIExpression()), !dbg !1712
  store i64 %slice.1, i64* %count.dbg.spill8, align 8, !dbg !1713
  call void @llvm.dbg.declare(metadata i64* %count.dbg.spill8, metadata !1711, metadata !DIExpression()), !dbg !1712
  store i8* %self6, i8** %self.dbg.spill9, align 8, !dbg !1712
  call void @llvm.dbg.declare(metadata i8** %self.dbg.spill9, metadata !1714, metadata !DIExpression()), !dbg !1719
  store i64 %slice.1, i64* %count.dbg.spill10, align 8, !dbg !1712
  call void @llvm.dbg.declare(metadata i64* %count.dbg.spill10, metadata !1718, metadata !DIExpression()), !dbg !1719
  %17 = getelementptr i8, i8* %self6, i64 %slice.1, !dbg !1719
  store i8* %17, i8** %0, align 8, !dbg !1719
  %_10 = load i8*, i8** %0, align 8, !dbg !1719
  br label %bb7, !dbg !1719

bb3:                                              ; preds = %bb1
  store i32* %ptr, i32** %self.dbg.spill3, align 8, !dbg !1721
  call void @llvm.dbg.declare(metadata i32** %self.dbg.spill3, metadata !1722, metadata !DIExpression()), !dbg !1729
  store i64 %slice.1, i64* %count.dbg.spill, align 8, !dbg !1730
  call void @llvm.dbg.declare(metadata i64* %count.dbg.spill, metadata !1728, metadata !DIExpression()), !dbg !1729
  store i32* %ptr, i32** %self.dbg.spill4, align 8, !dbg !1729
  call void @llvm.dbg.declare(metadata i32** %self.dbg.spill4, metadata !1731, metadata !DIExpression()), !dbg !1738
  store i64 %slice.1, i64* %count.dbg.spill5, align 8, !dbg !1729
  call void @llvm.dbg.declare(metadata i64* %count.dbg.spill5, metadata !1737, metadata !DIExpression()), !dbg !1738
  %18 = getelementptr inbounds i32, i32* %ptr, i64 %slice.1, !dbg !1738
  store i32* %18, i32** %end, align 8, !dbg !1738
  br label %bb8, !dbg !1738

bb8:                                              ; preds = %bb3
  br label %bb4, !dbg !1740

bb4:                                              ; preds = %bb7, %bb8
  store i32* %ptr, i32** %ptr.dbg.spill11, align 8, !dbg !1741
  call void @llvm.dbg.declare(metadata i32** %ptr.dbg.spill11, metadata !1742, metadata !DIExpression()), !dbg !1748
  store i32* %ptr, i32** %_18, align 8, !dbg !1748
  %_21 = load i32*, i32** %end, align 8, !dbg !1750
  %19 = bitcast { i32*, i32* }* %3 to i32**, !dbg !1751
  %20 = load i32*, i32** %_18, align 8, !dbg !1751, !nonnull !23, !noundef !23
  store i32* %20, i32** %19, align 8, !dbg !1751
  %21 = getelementptr inbounds { i32*, i32* }, { i32*, i32* }* %3, i32 0, i32 1, !dbg !1751
  store i32* %_21, i32** %21, align 8, !dbg !1751
  %22 = getelementptr inbounds { i32*, i32* }, { i32*, i32* }* %3, i32 0, i32 0, !dbg !1752
  %23 = load i32*, i32** %22, align 8, !dbg !1752, !nonnull !23, !noundef !23
  %24 = getelementptr inbounds { i32*, i32* }, { i32*, i32* }* %3, i32 0, i32 1, !dbg !1752
  %25 = load i32*, i32** %24, align 8, !dbg !1752
  %26 = insertvalue { i32*, i32* } undef, i32* %23, 0, !dbg !1752
  %27 = insertvalue { i32*, i32* } %26, i32* %25, 1, !dbg !1752
  ret { i32*, i32* } %27, !dbg !1752

bb7:                                              ; preds = %bb2
  %28 = bitcast i8* %_10 to i32*, !dbg !1706
  store i32* %28, i32** %end, align 8, !dbg !1706
  br label %bb4, !dbg !1740
}

; core::slice::memchr::memchr
; Function Attrs: inlinehint nonlazybind uwtable
define internal { i64, i64 } @_ZN4core5slice6memchr6memchr17h0359c85c7cd916d3E(i8 %0, [0 x i8]* align 1 %text.0, i64 %text.1) unnamed_addr #0 !dbg !1753 {
start:
  %self.dbg.spill = alloca { [0 x i8]*, i64 }, align 8
  %text.dbg.spill = alloca { [0 x i8]*, i64 }, align 8
  %_10 = alloca i8*, align 8
  %_8 = alloca { i8*, i8* }, align 8
  %1 = alloca { i64, i64 }, align 8
  %x = alloca i8, align 1
  store i8 %0, i8* %x, align 1
  call void @llvm.dbg.declare(metadata i8* %x, metadata !1759, metadata !DIExpression()), !dbg !1761
  %2 = getelementptr inbounds { [0 x i8]*, i64 }, { [0 x i8]*, i64 }* %text.dbg.spill, i32 0, i32 0
  store [0 x i8]* %text.0, [0 x i8]** %2, align 8
  %3 = getelementptr inbounds { [0 x i8]*, i64 }, { [0 x i8]*, i64 }* %text.dbg.spill, i32 0, i32 1
  store i64 %text.1, i64* %3, align 8
  call void @llvm.dbg.declare(metadata { [0 x i8]*, i64 }* %text.dbg.spill, metadata !1760, metadata !DIExpression()), !dbg !1762
  %_3 = icmp ult i64 %text.1, 16, !dbg !1763
  br i1 %_3, label %bb1, label %bb3, !dbg !1763

bb3:                                              ; preds = %start
  %_12 = load i8, i8* %x, align 1, !dbg !1764
; call core::slice::memchr::memchr_general_case
  %4 = call { i64, i64 } @_ZN4core5slice6memchr19memchr_general_case17h8d14ec4c11d8af08E(i8 %_12, [0 x i8]* align 1 %text.0, i64 %text.1), !dbg !1765
  store { i64, i64 } %4, { i64, i64 }* %1, align 8, !dbg !1765
  br label %bb4, !dbg !1765

bb1:                                              ; preds = %start
  %5 = getelementptr inbounds { [0 x i8]*, i64 }, { [0 x i8]*, i64 }* %self.dbg.spill, i32 0, i32 0, !dbg !1766
  store [0 x i8]* %text.0, [0 x i8]** %5, align 8, !dbg !1766
  %6 = getelementptr inbounds { [0 x i8]*, i64 }, { [0 x i8]*, i64 }* %self.dbg.spill, i32 0, i32 1, !dbg !1766
  store i64 %text.1, i64* %6, align 8, !dbg !1766
  call void @llvm.dbg.declare(metadata { [0 x i8]*, i64 }* %self.dbg.spill, metadata !1767, metadata !DIExpression()), !dbg !1771
; call core::slice::iter::Iter<T>::new
  %7 = call { i8*, i8* } @"_ZN4core5slice4iter13Iter$LT$T$GT$3new17h4f4efa03b3d528acE"([0 x i8]* align 1 %text.0, i64 %text.1), !dbg !1771
  store { i8*, i8* } %7, { i8*, i8* }* %_8, align 8, !dbg !1771
  br label %bb6, !dbg !1771

bb6:                                              ; preds = %bb1
  store i8* %x, i8** %_10, align 8, !dbg !1772
  %8 = load i8*, i8** %_10, align 8, !dbg !1766, !nonnull !23, !align !588, !noundef !23
; call <core::slice::iter::Iter<T> as core::iter::traits::iterator::Iterator>::position
  %9 = call { i64, i64 } @"_ZN91_$LT$core..slice..iter..Iter$LT$T$GT$$u20$as$u20$core..iter..traits..iterator..Iterator$GT$8position17h49c995ac7a7495f8E"({ i8*, i8* }* align 8 %_8, i8* align 1 %8), !dbg !1766
  store { i64, i64 } %9, { i64, i64 }* %1, align 8, !dbg !1766
  br label %bb2, !dbg !1766

bb2:                                              ; preds = %bb6
  br label %bb5, !dbg !1773

bb5:                                              ; preds = %bb4, %bb2
  %10 = getelementptr inbounds { i64, i64 }, { i64, i64 }* %1, i32 0, i32 0, !dbg !1773
  %11 = load i64, i64* %10, align 8, !dbg !1773, !range !893, !noundef !23
  %12 = getelementptr inbounds { i64, i64 }, { i64, i64 }* %1, i32 0, i32 1, !dbg !1773
  %13 = load i64, i64* %12, align 8, !dbg !1773
  %14 = insertvalue { i64, i64 } undef, i64 %11, 0, !dbg !1773
  %15 = insertvalue { i64, i64 } %14, i64 %13, 1, !dbg !1773
  ret { i64, i64 } %15, !dbg !1773

bb4:                                              ; preds = %bb3
  br label %bb5, !dbg !1773
}

; core::slice::memchr::memchr::{{closure}}
; Function Attrs: inlinehint nonlazybind uwtable
define internal zeroext i1 @"_ZN4core5slice6memchr6memchr28_$u7b$$u7b$closure$u7d$$u7d$17h2a6fb08a4dfad588E"(i8** align 8 %_1, i8* align 1 %elt) unnamed_addr #0 !dbg !1774 {
start:
  %elt.dbg.spill = alloca i8*, align 8
  %_1.dbg.spill = alloca i8**, align 8
  store i8** %_1, i8*** %_1.dbg.spill, align 8
  %0 = load i8**, i8*** %_1.dbg.spill, align 8, !nonnull !23, !align !281, !noundef !23
  %1 = load i8*, i8** %0, align 8, !nonnull !23, !align !588, !noundef !23
  call void @llvm.dbg.declare(metadata i8*** %_1.dbg.spill, metadata !1784, metadata !DIExpression(DW_OP_deref, DW_OP_deref)), !dbg !1785
  store i8* %elt, i8** %elt.dbg.spill, align 8
  call void @llvm.dbg.declare(metadata i8** %elt.dbg.spill, metadata !1783, metadata !DIExpression()), !dbg !1786
  %_3 = load i8, i8* %elt, align 1, !dbg !1787
  %_5 = load i8*, i8** %_1, align 8, !dbg !1788, !nonnull !23, !align !588, !noundef !23
  %_4 = load i8, i8* %_5, align 1, !dbg !1788
  %2 = icmp eq i8 %_3, %_4, !dbg !1787
  ret i1 %2, !dbg !1789
}

; core::option::Option<T>::map_or_else
; Function Attrs: inlinehint nonlazybind uwtable
define internal void @"_ZN4core6option15Option$LT$T$GT$11map_or_else17h69e1b80319b2d3f8E"(%"alloc::string::String"* sret(%"alloc::string::String") %0, i8* align 1 %1, i64 %2, i64* align 8 %default) unnamed_addr #0 personality i32 (i32, i32, i64, %"unwind::libunwind::_Unwind_Exception"*, %"unwind::libunwind::_Unwind_Context"*)* @rust_eh_personality !dbg !1790 {
start:
  %3 = alloca { i8*, i32 }, align 8
  %t.dbg.spill = alloca { [0 x i8]*, i64 }, align 8
  %f.dbg.spill = alloca {}, align 1
  %default.dbg.spill = alloca i64*, align 8
  %_12 = alloca i8, align 1
  %_11 = alloca i8, align 1
  %_7 = alloca { i8*, i64 }, align 8
  %self = alloca { i8*, i64 }, align 8
  %4 = getelementptr inbounds { i8*, i64 }, { i8*, i64 }* %self, i32 0, i32 0
  store i8* %1, i8** %4, align 8
  %5 = getelementptr inbounds { i8*, i64 }, { i8*, i64 }* %self, i32 0, i32 1
  store i64 %2, i64* %5, align 8
  call void @llvm.dbg.declare(metadata { i8*, i64 }* %self, metadata !1799, metadata !DIExpression()), !dbg !1808
  store i64* %default, i64** %default.dbg.spill, align 8
  call void @llvm.dbg.declare(metadata i64** %default.dbg.spill, metadata !1800, metadata !DIExpression()), !dbg !1809
  call void @llvm.dbg.declare(metadata {}* %f.dbg.spill, metadata !1801, metadata !DIExpression()), !dbg !1810
  store i8 1, i8* %_12, align 1, !dbg !1811
  store i8 1, i8* %_11, align 1, !dbg !1811
  %6 = bitcast { i8*, i64 }* %self to {}**, !dbg !1811
  %7 = load {}*, {}** %6, align 8, !dbg !1811
  %8 = icmp eq {}* %7, null, !dbg !1811
  %_4 = select i1 %8, i64 0, i64 1, !dbg !1811
  switch i64 %_4, label %bb2 [
    i64 0, label %bb1
    i64 1, label %bb3
  ], !dbg !1812

bb2:                                              ; preds = %start
  unreachable, !dbg !1811

bb1:                                              ; preds = %start
  store i8 0, i8* %_12, align 1, !dbg !1813
; invoke alloc::fmt::format::{{closure}}
  invoke void @"_ZN5alloc3fmt6format28_$u7b$$u7b$closure$u7d$$u7d$17h32b273a7d5e96d04E"(%"alloc::string::String"* sret(%"alloc::string::String") %0, i64* align 8 %default)
          to label %bb5 unwind label %cleanup, !dbg !1813

bb3:                                              ; preds = %start
  %9 = bitcast { i8*, i64 }* %self to { [0 x i8]*, i64 }*, !dbg !1814
  %10 = getelementptr inbounds { [0 x i8]*, i64 }, { [0 x i8]*, i64 }* %9, i32 0, i32 0, !dbg !1814
  %t.0 = load [0 x i8]*, [0 x i8]** %10, align 8, !dbg !1814, !nonnull !23, !align !588, !noundef !23
  %11 = getelementptr inbounds { [0 x i8]*, i64 }, { [0 x i8]*, i64 }* %9, i32 0, i32 1, !dbg !1814
  %t.1 = load i64, i64* %11, align 8, !dbg !1814
  %12 = getelementptr inbounds { [0 x i8]*, i64 }, { [0 x i8]*, i64 }* %t.dbg.spill, i32 0, i32 0, !dbg !1814
  store [0 x i8]* %t.0, [0 x i8]** %12, align 8, !dbg !1814
  %13 = getelementptr inbounds { [0 x i8]*, i64 }, { [0 x i8]*, i64 }* %t.dbg.spill, i32 0, i32 1, !dbg !1814
  store i64 %t.1, i64* %13, align 8, !dbg !1814
  call void @llvm.dbg.declare(metadata { [0 x i8]*, i64 }* %t.dbg.spill, metadata !1802, metadata !DIExpression()), !dbg !1815
  store i8 0, i8* %_11, align 1, !dbg !1816
  %14 = bitcast { i8*, i64 }* %_7 to { [0 x i8]*, i64 }*, !dbg !1816
  %15 = getelementptr inbounds { [0 x i8]*, i64 }, { [0 x i8]*, i64 }* %14, i32 0, i32 0, !dbg !1816
  store [0 x i8]* %t.0, [0 x i8]** %15, align 8, !dbg !1816
  %16 = getelementptr inbounds { [0 x i8]*, i64 }, { [0 x i8]*, i64 }* %14, i32 0, i32 1, !dbg !1816
  store i64 %t.1, i64* %16, align 8, !dbg !1816
  %17 = getelementptr inbounds { i8*, i64 }, { i8*, i64 }* %_7, i32 0, i32 0, !dbg !1816
  %18 = load i8*, i8** %17, align 8, !dbg !1816, !nonnull !23, !align !588, !noundef !23
  %19 = getelementptr inbounds { i8*, i64 }, { i8*, i64 }* %_7, i32 0, i32 1, !dbg !1816
  %20 = load i64, i64* %19, align 8, !dbg !1816
  %21 = bitcast i8* %18 to [0 x i8]*, !dbg !1816
; invoke core::ops::function::FnOnce::call_once
  invoke void @_ZN4core3ops8function6FnOnce9call_once17h5f5b600851f6dd21E(%"alloc::string::String"* sret(%"alloc::string::String") %0, [0 x i8]* align 1 %21, i64 %20)
          to label %bb4 unwind label %cleanup, !dbg !1816

bb14:                                             ; preds = %cleanup
  %22 = load i8, i8* %_11, align 1, !dbg !1817, !range !604, !noundef !23
  %23 = trunc i8 %22 to i1, !dbg !1817
  br i1 %23, label %bb13, label %bb8, !dbg !1817

cleanup:                                          ; preds = %bb1, %bb3
  %24 = landingpad { i8*, i32 }
          cleanup
  %25 = extractvalue { i8*, i32 } %24, 0
  %26 = extractvalue { i8*, i32 } %24, 1
  %27 = getelementptr inbounds { i8*, i32 }, { i8*, i32 }* %3, i32 0, i32 0
  store i8* %25, i8** %27, align 8
  %28 = getelementptr inbounds { i8*, i32 }, { i8*, i32 }* %3, i32 0, i32 1
  store i32 %26, i32* %28, align 8
  br label %bb14

bb4:                                              ; preds = %bb3
  br label %bb11, !dbg !1818

bb11:                                             ; preds = %bb5, %bb4
  %29 = load i8, i8* %_11, align 1, !dbg !1817, !range !604, !noundef !23
  %30 = trunc i8 %29 to i1, !dbg !1817
  br i1 %30, label %bb10, label %bb6, !dbg !1817

bb5:                                              ; preds = %bb1
  br label %bb11, !dbg !1819

bb8:                                              ; preds = %bb13, %bb14
  %31 = load i8, i8* %_12, align 1, !dbg !1817, !range !604, !noundef !23
  %32 = trunc i8 %31 to i1, !dbg !1817
  br i1 %32, label %bb15, label %bb9, !dbg !1817

bb13:                                             ; preds = %bb14
  br label %bb8, !dbg !1817

bb6:                                              ; preds = %bb10, %bb11
  %33 = load i8, i8* %_12, align 1, !dbg !1817, !range !604, !noundef !23
  %34 = trunc i8 %33 to i1, !dbg !1817
  br i1 %34, label %bb12, label %bb7, !dbg !1817

bb10:                                             ; preds = %bb11
  br label %bb6, !dbg !1817

bb9:                                              ; preds = %bb15, %bb8
  %35 = bitcast { i8*, i32 }* %3 to i8**, !dbg !1820
  %36 = load i8*, i8** %35, align 8, !dbg !1820
  %37 = getelementptr inbounds { i8*, i32 }, { i8*, i32 }* %3, i32 0, i32 1, !dbg !1820
  %38 = load i32, i32* %37, align 8, !dbg !1820
  %39 = insertvalue { i8*, i32 } undef, i8* %36, 0, !dbg !1820
  %40 = insertvalue { i8*, i32 } %39, i32 %38, 1, !dbg !1820
  resume { i8*, i32 } %40, !dbg !1820

bb15:                                             ; preds = %bb8
  br label %bb9, !dbg !1817

bb7:                                              ; preds = %bb12, %bb6
  ret void, !dbg !1821

bb12:                                             ; preds = %bb6
  br label %bb7, !dbg !1817
}

; core::result::Result<T,E>::unwrap
; Function Attrs: inlinehint nonlazybind uwtable
define internal { i8*, i64 } @"_ZN4core6result19Result$LT$T$C$E$GT$6unwrap17hf36762c0dce0795dE"(%"core::result::Result<alloc::ffi::c_str::CString, alloc::ffi::c_str::NulError>"* %self, %"core::panic::location::Location"* align 8 %0) unnamed_addr #0 personality i32 (i32, i32, i64, %"unwind::libunwind::_Unwind_Exception"*, %"unwind::libunwind::_Unwind_Context"*)* @rust_eh_personality !dbg !1822 {
start:
  %t.dbg.spill = alloca { i8*, i64 }, align 8
  %1 = alloca { i8*, i32 }, align 8
  %e = alloca %"alloc::ffi::c_str::NulError", align 8
  call void @llvm.dbg.declare(metadata %"core::result::Result<alloc::ffi::c_str::CString, alloc::ffi::c_str::NulError>"* %self, metadata !1841, metadata !DIExpression()), !dbg !1846
  call void @llvm.dbg.declare(metadata %"alloc::ffi::c_str::NulError"* %e, metadata !1844, metadata !DIExpression()), !dbg !1847
  %2 = bitcast %"core::result::Result<alloc::ffi::c_str::CString, alloc::ffi::c_str::NulError>"* %self to i64*, !dbg !1848
  %_2 = load i64, i64* %2, align 8, !dbg !1848, !range !893, !noundef !23
  switch i64 %_2, label %bb2 [
    i64 0, label %bb3
    i64 1, label %bb1
  ], !dbg !1849

bb2:                                              ; preds = %start
  unreachable, !dbg !1848

bb3:                                              ; preds = %start
  %3 = bitcast %"core::result::Result<alloc::ffi::c_str::CString, alloc::ffi::c_str::NulError>"* %self to %"core::result::Result<alloc::ffi::c_str::CString, alloc::ffi::c_str::NulError>::Ok"*, !dbg !1850
  %4 = getelementptr inbounds %"core::result::Result<alloc::ffi::c_str::CString, alloc::ffi::c_str::NulError>::Ok", %"core::result::Result<alloc::ffi::c_str::CString, alloc::ffi::c_str::NulError>::Ok"* %3, i32 0, i32 1, !dbg !1850
  %5 = getelementptr inbounds { i8*, i64 }, { i8*, i64 }* %4, i32 0, i32 0, !dbg !1850
  %t.0 = load i8*, i8** %5, align 8, !dbg !1850, !nonnull !23, !align !588, !noundef !23
  %6 = getelementptr inbounds { i8*, i64 }, { i8*, i64 }* %4, i32 0, i32 1, !dbg !1850
  %t.1 = load i64, i64* %6, align 8, !dbg !1850
  %7 = getelementptr inbounds { i8*, i64 }, { i8*, i64 }* %t.dbg.spill, i32 0, i32 0, !dbg !1850
  store i8* %t.0, i8** %7, align 8, !dbg !1850
  %8 = getelementptr inbounds { i8*, i64 }, { i8*, i64 }* %t.dbg.spill, i32 0, i32 1, !dbg !1850
  store i64 %t.1, i64* %8, align 8, !dbg !1850
  call void @llvm.dbg.declare(metadata { i8*, i64 }* %t.dbg.spill, metadata !1842, metadata !DIExpression()), !dbg !1851
  %9 = insertvalue { i8*, i64 } undef, i8* %t.0, 0, !dbg !1852
  %10 = insertvalue { i8*, i64 } %9, i64 %t.1, 1, !dbg !1852
  ret { i8*, i64 } %10, !dbg !1852

bb1:                                              ; preds = %start
  %11 = bitcast %"core::result::Result<alloc::ffi::c_str::CString, alloc::ffi::c_str::NulError>"* %self to %"core::result::Result<alloc::ffi::c_str::CString, alloc::ffi::c_str::NulError>::Err"*, !dbg !1853
  %12 = getelementptr inbounds %"core::result::Result<alloc::ffi::c_str::CString, alloc::ffi::c_str::NulError>::Err", %"core::result::Result<alloc::ffi::c_str::CString, alloc::ffi::c_str::NulError>::Err"* %11, i32 0, i32 1, !dbg !1853
  %13 = bitcast %"alloc::ffi::c_str::NulError"* %e to i8*, !dbg !1853
  %14 = bitcast %"alloc::ffi::c_str::NulError"* %12 to i8*, !dbg !1853
  call void @llvm.memcpy.p0i8.p0i8.i64(i8* align 8 %13, i8* align 8 %14, i64 32, i1 false), !dbg !1853
  %_7.0 = bitcast %"alloc::ffi::c_str::NulError"* %e to {}*, !dbg !1854
; invoke core::result::unwrap_failed
  invoke void @_ZN4core6result13unwrap_failed17hff48f82f03d418aeE([0 x i8]* align 1 bitcast (<{ [43 x i8] }>* @alloc528 to [0 x i8]*), i64 43, {}* align 1 %_7.0, [3 x i64]* align 8 bitcast (<{ i8*, [16 x i8], i8* }>* @vtable.2 to [3 x i64]*), %"core::panic::location::Location"* align 8 %0) #15
          to label %unreachable unwind label %cleanup, !dbg !1855

bb4:                                              ; preds = %cleanup
; invoke core::ptr::drop_in_place<alloc::ffi::c_str::NulError>
  invoke void @"_ZN4core3ptr48drop_in_place$LT$alloc..ffi..c_str..NulError$GT$17h2550d1f7b9ebeafbE"(%"alloc::ffi::c_str::NulError"* %e) #16
          to label %bb5 unwind label %abort, !dbg !1856

cleanup:                                          ; preds = %bb1
  %15 = landingpad { i8*, i32 }
          cleanup
  %16 = extractvalue { i8*, i32 } %15, 0
  %17 = extractvalue { i8*, i32 } %15, 1
  %18 = getelementptr inbounds { i8*, i32 }, { i8*, i32 }* %1, i32 0, i32 0
  store i8* %16, i8** %18, align 8
  %19 = getelementptr inbounds { i8*, i32 }, { i8*, i32 }* %1, i32 0, i32 1
  store i32 %17, i32* %19, align 8
  br label %bb4

unreachable:                                      ; preds = %bb1
  unreachable

abort:                                            ; preds = %bb4
  %20 = landingpad { i8*, i32 }
          cleanup, !dbg !1857
; call core::panicking::panic_no_unwind
  call void @_ZN4core9panicking15panic_no_unwind17h62f8113f44cbfcbfE() #17, !dbg !1857
  unreachable, !dbg !1857

bb5:                                              ; preds = %bb4
  %21 = bitcast { i8*, i32 }* %1 to i8**, !dbg !1857
  %22 = load i8*, i8** %21, align 8, !dbg !1857
  %23 = getelementptr inbounds { i8*, i32 }, { i8*, i32 }* %1, i32 0, i32 1, !dbg !1857
  %24 = load i32, i32* %23, align 8, !dbg !1857
  %25 = insertvalue { i8*, i32 } undef, i8* %22, 0, !dbg !1857
  %26 = insertvalue { i8*, i32 } %25, i32 %24, 1, !dbg !1857
  resume { i8*, i32 } %26, !dbg !1857
}

; core::panicking::assert_failed
; Function Attrs: cold noreturn nonlazybind uwtable
define internal void @_ZN4core9panicking13assert_failed17h31a66985fe424193E(i8 %kind, [20 x i32]* align 4 %0, [20 x i32]* align 4 %1, %"core::option::Option<core::fmt::Arguments>"* %args, %"core::panic::location::Location"* align 8 %2) unnamed_addr #3 !dbg !1858 {
start:
  %kind.dbg.spill = alloca i8, align 1
  %_13 = alloca %"core::option::Option<core::fmt::Arguments>", align 8
  %right = alloca [20 x i32]*, align 8
  %left = alloca [20 x i32]*, align 8
  store [20 x i32]* %0, [20 x i32]** %left, align 8
  store [20 x i32]* %1, [20 x i32]** %right, align 8
  store i8 %kind, i8* %kind.dbg.spill, align 1
  call void @llvm.dbg.declare(metadata i8* %kind.dbg.spill, metadata !1876, metadata !DIExpression()), !dbg !1882
  call void @llvm.dbg.declare(metadata [20 x i32]** %left, metadata !1877, metadata !DIExpression()), !dbg !1883
  call void @llvm.dbg.declare(metadata [20 x i32]** %right, metadata !1878, metadata !DIExpression()), !dbg !1884
  call void @llvm.dbg.declare(metadata %"core::option::Option<core::fmt::Arguments>"* %args, metadata !1879, metadata !DIExpression()), !dbg !1885
  %_7.0 = bitcast [20 x i32]** %left to {}*, !dbg !1886
  %_10.0 = bitcast [20 x i32]** %right to {}*, !dbg !1887
  %3 = bitcast %"core::option::Option<core::fmt::Arguments>"* %_13 to i8*, !dbg !1888
  %4 = bitcast %"core::option::Option<core::fmt::Arguments>"* %args to i8*, !dbg !1888
  call void @llvm.memcpy.p0i8.p0i8.i64(i8* align 8 %3, i8* align 8 %4, i64 48, i1 false), !dbg !1888
; call core::panicking::assert_failed_inner
  call void @_ZN4core9panicking19assert_failed_inner17h2784388051aff910E(i8 %kind, {}* align 1 %_7.0, [3 x i64]* align 8 bitcast (<{ i8*, [16 x i8], i8* }>* @vtable.3 to [3 x i64]*), {}* align 1 %_10.0, [3 x i64]* align 8 bitcast (<{ i8*, [16 x i8], i8* }>* @vtable.3 to [3 x i64]*), %"core::option::Option<core::fmt::Arguments>"* %_13, %"core::panic::location::Location"* align 8 %2) #15, !dbg !1889
  unreachable, !dbg !1889
}

; core::panicking::assert_failed
; Function Attrs: cold noreturn nonlazybind uwtable
define internal void @_ZN4core9panicking13assert_failed17hc55c0f0cb01f0d9bE(i8 %kind, i32* align 4 %0, i32* align 4 %1, %"core::option::Option<core::fmt::Arguments>"* %args, %"core::panic::location::Location"* align 8 %2) unnamed_addr #3 !dbg !1890 {
start:
  %kind.dbg.spill = alloca i8, align 1
  %_13 = alloca %"core::option::Option<core::fmt::Arguments>", align 8
  %right = alloca i32*, align 8
  %left = alloca i32*, align 8
  store i32* %0, i32** %left, align 8
  store i32* %1, i32** %right, align 8
  store i8 %kind, i8* %kind.dbg.spill, align 1
  call void @llvm.dbg.declare(metadata i8* %kind.dbg.spill, metadata !1894, metadata !DIExpression()), !dbg !1900
  call void @llvm.dbg.declare(metadata i32** %left, metadata !1895, metadata !DIExpression()), !dbg !1901
  call void @llvm.dbg.declare(metadata i32** %right, metadata !1896, metadata !DIExpression()), !dbg !1902
  call void @llvm.dbg.declare(metadata %"core::option::Option<core::fmt::Arguments>"* %args, metadata !1897, metadata !DIExpression()), !dbg !1903
  %_7.0 = bitcast i32** %left to {}*, !dbg !1904
  %_10.0 = bitcast i32** %right to {}*, !dbg !1905
  %3 = bitcast %"core::option::Option<core::fmt::Arguments>"* %_13 to i8*, !dbg !1906
  %4 = bitcast %"core::option::Option<core::fmt::Arguments>"* %args to i8*, !dbg !1906
  call void @llvm.memcpy.p0i8.p0i8.i64(i8* align 8 %3, i8* align 8 %4, i64 48, i1 false), !dbg !1906
; call core::panicking::assert_failed_inner
  call void @_ZN4core9panicking19assert_failed_inner17h2784388051aff910E(i8 %kind, {}* align 1 %_7.0, [3 x i64]* align 8 bitcast (<{ i8*, [16 x i8], i8* }>* @vtable.1 to [3 x i64]*), {}* align 1 %_10.0, [3 x i64]* align 8 bitcast (<{ i8*, [16 x i8], i8* }>* @vtable.1 to [3 x i64]*), %"core::option::Option<core::fmt::Arguments>"* %_13, %"core::panic::location::Location"* align 8 %2) #15, !dbg !1907
  unreachable, !dbg !1907
}

; test::assert_test_result
; Function Attrs: nonlazybind uwtable
define internal void @_ZN4test18assert_test_result17h5687abe4adab2f30E() unnamed_addr #2 !dbg !1908 {
start:
  %0 = alloca %"core::fmt::Opaque"*, align 8
  %1 = alloca i1 (%"core::fmt::Opaque"*, %"core::fmt::Formatter"*)*, align 8
  %f.dbg.spill = alloca i1 (i32*, %"core::fmt::Formatter"*)*, align 8
  %x.dbg.spill1 = alloca i32*, align 8
  %x.dbg.spill = alloca i32*, align 8
  %right_val.dbg.spill = alloca i32*, align 8
  %left_val.dbg.spill = alloca i32*, align 8
  %self.dbg.spill = alloca i8*, align 8
  %result.dbg.spill = alloca {}, align 1
  %_30 = alloca { i8*, i64* }, align 8
  %_29 = alloca [1 x { i8*, i64* }], align 8
  %_22 = alloca %"core::fmt::Arguments", align 8
  %_21 = alloca %"core::option::Option<core::fmt::Arguments>", align 8
  %_5 = alloca { i32*, i32* }, align 8
  %self = alloca i8, align 1
  %code = alloca i32, align 4
  call void @llvm.dbg.declare(metadata {}* %result.dbg.spill, metadata !1912, metadata !DIExpression()), !dbg !1923
  call void @llvm.dbg.declare(metadata i32* %code, metadata !1913, metadata !DIExpression()), !dbg !1924
  call void @llvm.dbg.declare(metadata i8* %self, metadata !1925, metadata !DIExpression()), !dbg !1929
; call <() as std::process::Termination>::report
  %2 = call i8 @"_ZN54_$LT$$LP$$RP$$u20$as$u20$std..process..Termination$GT$6report17h2441a244d8ee3008E"(), !dbg !1930
  store i8 %2, i8* %self, align 1, !dbg !1930
  br label %bb1, !dbg !1930

bb1:                                              ; preds = %start
  store i8* %self, i8** %self.dbg.spill, align 8, !dbg !1929
  call void @llvm.dbg.declare(metadata i8** %self.dbg.spill, metadata !1931, metadata !DIExpression()), !dbg !1935
  %_36 = load i8, i8* %self, align 1, !dbg !1935
  %3 = zext i8 %_36 to i32, !dbg !1935
  store i32 %3, i32* %code, align 4, !dbg !1935
  %4 = bitcast { i32*, i32* }* %_5 to i32**, !dbg !1937
  store i32* %code, i32** %4, align 8, !dbg !1937
  %5 = getelementptr inbounds { i32*, i32* }, { i32*, i32* }* %_5, i32 0, i32 1, !dbg !1937
  store i32* bitcast (<{ [4 x i8] }>* @alloc402 to i32*), i32** %5, align 8, !dbg !1937
  %6 = bitcast { i32*, i32* }* %_5 to i32**, !dbg !1937
  %left_val = load i32*, i32** %6, align 8, !dbg !1937, !nonnull !23, !align !386, !noundef !23
  store i32* %left_val, i32** %left_val.dbg.spill, align 8, !dbg !1937
  call void @llvm.dbg.declare(metadata i32** %left_val.dbg.spill, metadata !1915, metadata !DIExpression()), !dbg !1938
  %7 = getelementptr inbounds { i32*, i32* }, { i32*, i32* }* %_5, i32 0, i32 1, !dbg !1937
  %right_val = load i32*, i32** %7, align 8, !dbg !1937, !nonnull !23, !align !386, !noundef !23
  store i32* %right_val, i32** %right_val.dbg.spill, align 8, !dbg !1937
  call void @llvm.dbg.declare(metadata i32** %right_val.dbg.spill, metadata !1919, metadata !DIExpression()), !dbg !1938
  %_12 = load i32, i32* %left_val, align 4, !dbg !1938
  %_13 = load i32, i32* %right_val, align 4, !dbg !1938
  %_11 = icmp eq i32 %_12, %_13, !dbg !1938
  %_10 = xor i1 %_11, true, !dbg !1938
  br i1 %_10, label %bb2, label %bb4, !dbg !1938

bb4:                                              ; preds = %bb1
  ret void, !dbg !1939

bb2:                                              ; preds = %bb1
  store i32* %code, i32** %x.dbg.spill, align 8, !dbg !1940
  call void @llvm.dbg.declare(metadata i32** %x.dbg.spill, metadata !1941, metadata !DIExpression()), !dbg !1945
  store i32* %code, i32** %x.dbg.spill1, align 8, !dbg !1945
  call void @llvm.dbg.declare(metadata i32** %x.dbg.spill1, metadata !1947, metadata !DIExpression()), !dbg !1952
  store i1 (i32*, %"core::fmt::Formatter"*)* @"_ZN4core3fmt3num3imp52_$LT$impl$u20$core..fmt..Display$u20$for$u20$i32$GT$3fmt17h52a4838d0eaa2babE", i1 (i32*, %"core::fmt::Formatter"*)** %f.dbg.spill, align 8, !dbg !1945
  call void @llvm.dbg.declare(metadata i1 (i32*, %"core::fmt::Formatter"*)** %f.dbg.spill, metadata !1951, metadata !DIExpression()), !dbg !1952
  store i1 (%"core::fmt::Opaque"*, %"core::fmt::Formatter"*)* bitcast (i1 (i32*, %"core::fmt::Formatter"*)* @"_ZN4core3fmt3num3imp52_$LT$impl$u20$core..fmt..Display$u20$for$u20$i32$GT$3fmt17h52a4838d0eaa2babE" to i1 (%"core::fmt::Opaque"*, %"core::fmt::Formatter"*)*), i1 (%"core::fmt::Opaque"*, %"core::fmt::Formatter"*)** %1, align 8, !dbg !1952
  %_39 = load i1 (%"core::fmt::Opaque"*, %"core::fmt::Formatter"*)*, i1 (%"core::fmt::Opaque"*, %"core::fmt::Formatter"*)** %1, align 8, !dbg !1952, !nonnull !23, !noundef !23
  br label %bb5, !dbg !1952

bb5:                                              ; preds = %bb2
  %8 = bitcast i32* %code to %"core::fmt::Opaque"*, !dbg !1952
  store %"core::fmt::Opaque"* %8, %"core::fmt::Opaque"** %0, align 8, !dbg !1952
  %_41 = load %"core::fmt::Opaque"*, %"core::fmt::Opaque"** %0, align 8, !dbg !1952, !nonnull !23, !align !588, !noundef !23
  br label %bb6, !dbg !1952

bb6:                                              ; preds = %bb5
  %9 = bitcast { i8*, i64* }* %_30 to %"core::fmt::Opaque"**, !dbg !1952
  store %"core::fmt::Opaque"* %_41, %"core::fmt::Opaque"** %9, align 8, !dbg !1952
  %10 = getelementptr inbounds { i8*, i64* }, { i8*, i64* }* %_30, i32 0, i32 1, !dbg !1952
  %11 = bitcast i64** %10 to i1 (%"core::fmt::Opaque"*, %"core::fmt::Formatter"*)**, !dbg !1952
  store i1 (%"core::fmt::Opaque"*, %"core::fmt::Formatter"*)* %_39, i1 (%"core::fmt::Opaque"*, %"core::fmt::Formatter"*)** %11, align 8, !dbg !1952
  %12 = getelementptr inbounds { i8*, i64* }, { i8*, i64* }* %_30, i32 0, i32 0, !dbg !1940
  %13 = load i8*, i8** %12, align 8, !dbg !1940, !nonnull !23, !align !588, !noundef !23
  %14 = getelementptr inbounds { i8*, i64* }, { i8*, i64* }* %_30, i32 0, i32 1, !dbg !1940
  %15 = load i64*, i64** %14, align 8, !dbg !1940, !nonnull !23, !noundef !23
  %16 = getelementptr inbounds [1 x { i8*, i64* }], [1 x { i8*, i64* }]* %_29, i64 0, i64 0, !dbg !1940
  %17 = getelementptr inbounds { i8*, i64* }, { i8*, i64* }* %16, i32 0, i32 0, !dbg !1940
  store i8* %13, i8** %17, align 8, !dbg !1940
  %18 = getelementptr inbounds { i8*, i64* }, { i8*, i64* }* %16, i32 0, i32 1, !dbg !1940
  store i64* %15, i64** %18, align 8, !dbg !1940
  %_26.0 = bitcast [1 x { i8*, i64* }]* %_29 to [0 x { i8*, i64* }]*, !dbg !1940
; call core::fmt::Arguments::new_v1
  call void @_ZN4core3fmt9Arguments6new_v117h776d0f2ab8f6795cE(%"core::fmt::Arguments"* sret(%"core::fmt::Arguments") %_22, [0 x { [0 x i8]*, i64 }]* align 8 bitcast (<{ i8*, [8 x i8], i8*, [8 x i8] }>* @alloc173 to [0 x { [0 x i8]*, i64 }]*), i64 2, [0 x { i8*, i64* }]* align 8 %_26.0, i64 1), !dbg !1940
  br label %bb3, !dbg !1940

bb3:                                              ; preds = %bb6
  %19 = bitcast %"core::option::Option<core::fmt::Arguments>"* %_21 to %"core::option::Option<core::fmt::Arguments>::Some"*, !dbg !1940
  %20 = bitcast %"core::option::Option<core::fmt::Arguments>::Some"* %19 to %"core::fmt::Arguments"*, !dbg !1940
  %21 = bitcast %"core::fmt::Arguments"* %20 to i8*, !dbg !1940
  %22 = bitcast %"core::fmt::Arguments"* %_22 to i8*, !dbg !1940
  call void @llvm.memcpy.p0i8.p0i8.i64(i8* align 8 %21, i8* align 8 %22, i64 48, i1 false), !dbg !1940
; call core::panicking::assert_failed
  call void @_ZN4core9panicking13assert_failed17hc55c0f0cb01f0d9bE(i8 0, i32* align 4 %left_val, i32* align 4 %right_val, %"core::option::Option<core::fmt::Arguments>"* %_21, %"core::panic::location::Location"* align 8 bitcast (<{ i8*, [16 x i8] }>* @alloc536 to %"core::panic::location::Location"*)) #15, !dbg !1940
  unreachable, !dbg !1940
}

; <T as core::convert::From<T>>::from
; Function Attrs: nonlazybind uwtable
define internal void @"_ZN50_$LT$T$u20$as$u20$core..convert..From$LT$T$GT$$GT$4from17h45a842095735b534E"() unnamed_addr #2 !dbg !1954 {
start:
  %t.dbg.spill = alloca %"core::alloc::layout::LayoutError", align 1
  call void @llvm.dbg.declare(metadata %"core::alloc::layout::LayoutError"* %t.dbg.spill, metadata !1960, metadata !DIExpression()), !dbg !1963
  ret void, !dbg !1964
}

; <T as core::convert::From<T>>::from
; Function Attrs: nonlazybind uwtable
define internal void @"_ZN50_$LT$T$u20$as$u20$core..convert..From$LT$T$GT$$GT$4from17h5918e24af258d64bE"() unnamed_addr #2 !dbg !1965 {
start:
  %t.dbg.spill = alloca %"core::alloc::AllocError", align 1
  call void @llvm.dbg.declare(metadata %"core::alloc::AllocError"* %t.dbg.spill, metadata !1970, metadata !DIExpression()), !dbg !1973
  ret void, !dbg !1974
}

; <T as core::convert::Into<U>>::into
; Function Attrs: nonlazybind uwtable
define internal void @"_ZN50_$LT$T$u20$as$u20$core..convert..Into$LT$U$GT$$GT$4into17h7490de94816755faE"(%"alloc::vec::Vec<u8>"* sret(%"alloc::vec::Vec<u8>") %0, %"alloc::string::String"* %self) unnamed_addr #2 !dbg !1975 {
start:
  %_2 = alloca %"alloc::string::String", align 8
  call void @llvm.dbg.declare(metadata %"alloc::string::String"* %self, metadata !1980, metadata !DIExpression()), !dbg !1984
  %1 = bitcast %"alloc::string::String"* %_2 to i8*, !dbg !1985
  %2 = bitcast %"alloc::string::String"* %self to i8*, !dbg !1985
  call void @llvm.memcpy.p0i8.p0i8.i64(i8* align 8 %1, i8* align 8 %2, i64 24, i1 false), !dbg !1985
; call alloc::string::<impl core::convert::From<alloc::string::String> for alloc::vec::Vec<u8>>::from
  call void @"_ZN5alloc6string104_$LT$impl$u20$core..convert..From$LT$alloc..string..String$GT$$u20$for$u20$alloc..vec..Vec$LT$u8$GT$$GT$4from17hce79d9a1e153cc22E"(%"alloc::vec::Vec<u8>"* sret(%"alloc::vec::Vec<u8>") %0, %"alloc::string::String"* %_2), !dbg !1986
  br label %bb1, !dbg !1986

bb1:                                              ; preds = %start
  ret void, !dbg !1987
}

; <T as core::convert::Into<U>>::into
; Function Attrs: nonlazybind uwtable
define internal i8* @"_ZN50_$LT$T$u20$as$u20$core..convert..Into$LT$U$GT$$GT$4into17hf1ac91746d2d9e66E"(i8* %self) unnamed_addr #2 !dbg !1988 {
start:
  %self.dbg.spill = alloca i8*, align 8
  store i8* %self, i8** %self.dbg.spill, align 8
  call void @llvm.dbg.declare(metadata i8** %self.dbg.spill, metadata !1990, metadata !DIExpression()), !dbg !1994
; call <core::ptr::non_null::NonNull<T> as core::convert::From<core::ptr::unique::Unique<T>>>::from
  %0 = call i8* @"_ZN119_$LT$core..ptr..non_null..NonNull$LT$T$GT$$u20$as$u20$core..convert..From$LT$core..ptr..unique..Unique$LT$T$GT$$GT$$GT$4from17h99a862f0663cfa5eE"(i8* %self), !dbg !1995
  br label %bb1, !dbg !1995

bb1:                                              ; preds = %start
  ret i8* %0, !dbg !1996
}

; <T as alloc::slice::hack::ConvertVec>::to_vec
; Function Attrs: inlinehint nonlazybind uwtable
define internal void @"_ZN52_$LT$T$u20$as$u20$alloc..slice..hack..ConvertVec$GT$6to_vec17h9536dd3fc7f13a34E"(%"alloc::vec::Vec<u8>"* sret(%"alloc::vec::Vec<u8>") %v, [0 x i8]* align 1 %s.0, i64 %s.1) unnamed_addr #0 personality i32 (i32, i32, i64, %"unwind::libunwind::_Unwind_Exception"*, %"unwind::libunwind::_Unwind_Context"*)* @rust_eh_personality !dbg !1997 {
start:
  %new_len.dbg.spill = alloca i64, align 8
  %self.dbg.spill10 = alloca { [0 x i8]*, i64 }, align 8
  %self.dbg.spill9 = alloca %"alloc::vec::Vec<u8>"*, align 8
  %count.dbg.spill8 = alloca i64, align 8
  %dst.dbg.spill = alloca i8*, align 8
  %src.dbg.spill = alloca i8*, align 8
  %count.dbg.spill = alloca i64, align 8
  %self.dbg.spill7 = alloca { [0 x i8]*, i64 }, align 8
  %dest.dbg.spill = alloca i8*, align 8
  %self.dbg.spill5 = alloca i8*, align 8
  %self.dbg.spill4 = alloca { [0 x i8]*, i64 }, align 8
  %0 = alloca { i8*, i32 }, align 8
  %capacity.dbg.spill3 = alloca i64, align 8
  %capacity.dbg.spill = alloca i64, align 8
  %self.dbg.spill = alloca { [0 x i8]*, i64 }, align 8
  %alloc.dbg.spill2 = alloca %"alloc::alloc::Global", align 1
  %alloc.dbg.spill1 = alloca %"alloc::alloc::Global", align 1
  %alloc.dbg.spill = alloca %"alloc::alloc::Global", align 1
  %s.dbg.spill = alloca { [0 x i8]*, i64 }, align 8
  %_34 = alloca %"core::ptr::metadata::PtrRepr<[u8]>", align 8
  %runtime = alloca %"[closure@core::intrinsics::copy_nonoverlapping<u8>::{closure#0}]", align 8
  %_25 = alloca %"core::ptr::metadata::PtrRepr<[u8]>", align 8
  %_22 = alloca i8, align 1
  %_16 = alloca %"core::ptr::metadata::PtrRepr<[u8]>", align 8
  call void @llvm.dbg.declare(metadata %"alloc::vec::Vec<u8>"* %v, metadata !2007, metadata !DIExpression()), !dbg !2009
  %1 = getelementptr inbounds { [0 x i8]*, i64 }, { [0 x i8]*, i64 }* %s.dbg.spill, i32 0, i32 0
  store [0 x i8]* %s.0, [0 x i8]** %1, align 8
  %2 = getelementptr inbounds { [0 x i8]*, i64 }, { [0 x i8]*, i64 }* %s.dbg.spill, i32 0, i32 1
  store i64 %s.1, i64* %2, align 8
  call void @llvm.dbg.declare(metadata { [0 x i8]*, i64 }* %s.dbg.spill, metadata !2005, metadata !DIExpression()), !dbg !2010
  call void @llvm.dbg.declare(metadata %"alloc::alloc::Global"* %alloc.dbg.spill, metadata !2006, metadata !DIExpression()), !dbg !2011
  call void @llvm.dbg.declare(metadata %"alloc::alloc::Global"* %alloc.dbg.spill1, metadata !2012, metadata !DIExpression()), !dbg !2020
  call void @llvm.dbg.declare(metadata %"alloc::alloc::Global"* %alloc.dbg.spill2, metadata !2022, metadata !DIExpression()), !dbg !2030
  call void @llvm.dbg.declare(metadata %"[closure@core::intrinsics::copy_nonoverlapping<u8>::{closure#0}]"* %runtime, metadata !2032, metadata !DIExpression()), !dbg !2051
  %3 = getelementptr inbounds { [0 x i8]*, i64 }, { [0 x i8]*, i64 }* %self.dbg.spill, i32 0, i32 0, !dbg !2060
  store [0 x i8]* %s.0, [0 x i8]** %3, align 8, !dbg !2060
  %4 = getelementptr inbounds { [0 x i8]*, i64 }, { [0 x i8]*, i64 }* %self.dbg.spill, i32 0, i32 1, !dbg !2060
  store i64 %s.1, i64* %4, align 8, !dbg !2060
  call void @llvm.dbg.declare(metadata { [0 x i8]*, i64 }* %self.dbg.spill, metadata !2061, metadata !DIExpression()), !dbg !2067
  %5 = bitcast %"core::ptr::metadata::PtrRepr<[u8]>"* %_16 to { [0 x i8]*, i64 }*, !dbg !2067
  %6 = getelementptr inbounds { [0 x i8]*, i64 }, { [0 x i8]*, i64 }* %5, i32 0, i32 0, !dbg !2067
  store [0 x i8]* %s.0, [0 x i8]** %6, align 8, !dbg !2067
  %7 = getelementptr inbounds { [0 x i8]*, i64 }, { [0 x i8]*, i64 }* %5, i32 0, i32 1, !dbg !2067
  store i64 %s.1, i64* %7, align 8, !dbg !2067
  %8 = bitcast %"core::ptr::metadata::PtrRepr<[u8]>"* %_16 to { i8*, i64 }*, !dbg !2067
  %9 = getelementptr inbounds { i8*, i64 }, { i8*, i64 }* %8, i32 0, i32 1, !dbg !2067
  %capacity = load i64, i64* %9, align 8, !dbg !2067
  store i64 %capacity, i64* %capacity.dbg.spill, align 8, !dbg !2067
  call void @llvm.dbg.declare(metadata i64* %capacity.dbg.spill, metadata !2019, metadata !DIExpression()), !dbg !2020
  store i64 %capacity, i64* %capacity.dbg.spill3, align 8, !dbg !2020
  call void @llvm.dbg.declare(metadata i64* %capacity.dbg.spill3, metadata !2029, metadata !DIExpression()), !dbg !2030
  store i8 0, i8* %_22, align 1, !dbg !2030
  %10 = load i8, i8* %_22, align 1, !dbg !2030, !range !604, !noundef !23
  %11 = trunc i8 %10 to i1, !dbg !2030
; invoke alloc::raw_vec::RawVec<T,A>::allocate_in
  %12 = invoke { i8*, i64 } @"_ZN5alloc7raw_vec19RawVec$LT$T$C$A$GT$11allocate_in17haf4f693f4b89a399E"(i64 %capacity, i1 zeroext %11)
          to label %bb6 unwind label %cleanup, !dbg !2030

bb5:                                              ; preds = %bb2, %cleanup
  br i1 false, label %bb4, label %bb3, !dbg !2068

cleanup:                                          ; preds = %start
  %13 = landingpad { i8*, i32 }
          cleanup
  %14 = extractvalue { i8*, i32 } %13, 0
  %15 = extractvalue { i8*, i32 } %13, 1
  %16 = getelementptr inbounds { i8*, i32 }, { i8*, i32 }* %0, i32 0, i32 0
  store i8* %14, i8** %16, align 8
  %17 = getelementptr inbounds { i8*, i32 }, { i8*, i32 }* %0, i32 0, i32 1
  store i32 %15, i32* %17, align 8
  br label %bb5

bb6:                                              ; preds = %start
  %_18.0 = extractvalue { i8*, i64 } %12, 0, !dbg !2030
  %_18.1 = extractvalue { i8*, i64 } %12, 1, !dbg !2030
  %18 = bitcast %"alloc::vec::Vec<u8>"* %v to { i8*, i64 }*, !dbg !2020
  %19 = getelementptr inbounds { i8*, i64 }, { i8*, i64 }* %18, i32 0, i32 0, !dbg !2020
  store i8* %_18.0, i8** %19, align 8, !dbg !2020
  %20 = getelementptr inbounds { i8*, i64 }, { i8*, i64 }* %18, i32 0, i32 1, !dbg !2020
  store i64 %_18.1, i64* %20, align 8, !dbg !2020
  %21 = getelementptr inbounds %"alloc::vec::Vec<u8>", %"alloc::vec::Vec<u8>"* %v, i32 0, i32 1, !dbg !2020
  store i64 0, i64* %21, align 8, !dbg !2020
  %22 = getelementptr inbounds { [0 x i8]*, i64 }, { [0 x i8]*, i64 }* %self.dbg.spill4, i32 0, i32 0, !dbg !2059
  store [0 x i8]* %s.0, [0 x i8]** %22, align 8, !dbg !2059
  %23 = getelementptr inbounds { [0 x i8]*, i64 }, { [0 x i8]*, i64 }* %self.dbg.spill4, i32 0, i32 1, !dbg !2059
  store i64 %s.1, i64* %23, align 8, !dbg !2059
  call void @llvm.dbg.declare(metadata { [0 x i8]*, i64 }* %self.dbg.spill4, metadata !2069, metadata !DIExpression()), !dbg !2073
  %self = bitcast [0 x i8]* %s.0 to i8*, !dbg !2073
  store i8* %self, i8** %self.dbg.spill5, align 8, !dbg !2073
  call void @llvm.dbg.declare(metadata i8** %self.dbg.spill5, metadata !2055, metadata !DIExpression()), !dbg !2074
; invoke alloc::vec::Vec<T,A>::as_mut_ptr
  %dest = invoke i8* @"_ZN5alloc3vec16Vec$LT$T$C$A$GT$10as_mut_ptr17h2e4607115dbe49eeE"(%"alloc::vec::Vec<u8>"* align 8 %v)
          to label %bb1 unwind label %cleanup6, !dbg !2075

bb2:                                              ; preds = %cleanup6
; invoke core::ptr::drop_in_place<alloc::vec::Vec<u8>>
  invoke void @"_ZN4core3ptr46drop_in_place$LT$alloc..vec..Vec$LT$u8$GT$$GT$17hde8e5ead57c1ab69E"(%"alloc::vec::Vec<u8>"* %v) #16
          to label %bb5 unwind label %abort, !dbg !2068

cleanup6:                                         ; preds = %bb6
  %24 = landingpad { i8*, i32 }
          cleanup
  %25 = extractvalue { i8*, i32 } %24, 0
  %26 = extractvalue { i8*, i32 } %24, 1
  %27 = getelementptr inbounds { i8*, i32 }, { i8*, i32 }* %0, i32 0, i32 0
  store i8* %25, i8** %27, align 8
  %28 = getelementptr inbounds { i8*, i32 }, { i8*, i32 }* %0, i32 0, i32 1
  store i32 %26, i32* %28, align 8
  br label %bb2

bb1:                                              ; preds = %bb6
  store i8* %dest, i8** %dest.dbg.spill, align 8, !dbg !2075
  call void @llvm.dbg.declare(metadata i8** %dest.dbg.spill, metadata !2057, metadata !DIExpression()), !dbg !2074
  %29 = getelementptr inbounds { [0 x i8]*, i64 }, { [0 x i8]*, i64 }* %self.dbg.spill7, i32 0, i32 0, !dbg !2076
  store [0 x i8]* %s.0, [0 x i8]** %29, align 8, !dbg !2076
  %30 = getelementptr inbounds { [0 x i8]*, i64 }, { [0 x i8]*, i64 }* %self.dbg.spill7, i32 0, i32 1, !dbg !2076
  store i64 %s.1, i64* %30, align 8, !dbg !2076
  call void @llvm.dbg.declare(metadata { [0 x i8]*, i64 }* %self.dbg.spill7, metadata !2077, metadata !DIExpression()), !dbg !2081
  %31 = bitcast %"core::ptr::metadata::PtrRepr<[u8]>"* %_25 to { [0 x i8]*, i64 }*, !dbg !2081
  %32 = getelementptr inbounds { [0 x i8]*, i64 }, { [0 x i8]*, i64 }* %31, i32 0, i32 0, !dbg !2081
  store [0 x i8]* %s.0, [0 x i8]** %32, align 8, !dbg !2081
  %33 = getelementptr inbounds { [0 x i8]*, i64 }, { [0 x i8]*, i64 }* %31, i32 0, i32 1, !dbg !2081
  store i64 %s.1, i64* %33, align 8, !dbg !2081
  %34 = bitcast %"core::ptr::metadata::PtrRepr<[u8]>"* %_25 to { i8*, i64 }*, !dbg !2081
  %35 = getelementptr inbounds { i8*, i64 }, { i8*, i64 }* %34, i32 0, i32 1, !dbg !2081
  %count = load i64, i64* %35, align 8, !dbg !2081
  store i64 %count, i64* %count.dbg.spill, align 8, !dbg !2081
  call void @llvm.dbg.declare(metadata i64* %count.dbg.spill, metadata !2058, metadata !DIExpression()), !dbg !2074
  store i8* %self, i8** %src.dbg.spill, align 8, !dbg !2074
  call void @llvm.dbg.declare(metadata i8** %src.dbg.spill, metadata !2039, metadata !DIExpression()), !dbg !2082
  store i8* %dest, i8** %dst.dbg.spill, align 8, !dbg !2074
  call void @llvm.dbg.declare(metadata i8** %dst.dbg.spill, metadata !2041, metadata !DIExpression()), !dbg !2082
  store i64 %count, i64* %count.dbg.spill8, align 8, !dbg !2074
  call void @llvm.dbg.declare(metadata i64* %count.dbg.spill8, metadata !2042, metadata !DIExpression()), !dbg !2082
  %36 = mul i64 %count, 1, !dbg !2082
  call void @llvm.memcpy.p0i8.p0i8.i64(i8* align 1 %dest, i8* align 1 %self, i64 %36, i1 false), !dbg !2082
  store %"alloc::vec::Vec<u8>"* %v, %"alloc::vec::Vec<u8>"** %self.dbg.spill9, align 8, !dbg !2083
  call void @llvm.dbg.declare(metadata %"alloc::vec::Vec<u8>"** %self.dbg.spill9, metadata !2084, metadata !DIExpression()), !dbg !2092
  %37 = getelementptr inbounds { [0 x i8]*, i64 }, { [0 x i8]*, i64 }* %self.dbg.spill10, i32 0, i32 0, !dbg !2093
  store [0 x i8]* %s.0, [0 x i8]** %37, align 8, !dbg !2093
  %38 = getelementptr inbounds { [0 x i8]*, i64 }, { [0 x i8]*, i64 }* %self.dbg.spill10, i32 0, i32 1, !dbg !2093
  store i64 %s.1, i64* %38, align 8, !dbg !2093
  call void @llvm.dbg.declare(metadata { [0 x i8]*, i64 }* %self.dbg.spill10, metadata !2094, metadata !DIExpression()), !dbg !2098
  %39 = bitcast %"core::ptr::metadata::PtrRepr<[u8]>"* %_34 to { [0 x i8]*, i64 }*, !dbg !2098
  %40 = getelementptr inbounds { [0 x i8]*, i64 }, { [0 x i8]*, i64 }* %39, i32 0, i32 0, !dbg !2098
  store [0 x i8]* %s.0, [0 x i8]** %40, align 8, !dbg !2098
  %41 = getelementptr inbounds { [0 x i8]*, i64 }, { [0 x i8]*, i64 }* %39, i32 0, i32 1, !dbg !2098
  store i64 %s.1, i64* %41, align 8, !dbg !2098
  %42 = bitcast %"core::ptr::metadata::PtrRepr<[u8]>"* %_34 to { i8*, i64 }*, !dbg !2098
  %43 = getelementptr inbounds { i8*, i64 }, { i8*, i64 }* %42, i32 0, i32 1, !dbg !2098
  %new_len = load i64, i64* %43, align 8, !dbg !2098
  store i64 %new_len, i64* %new_len.dbg.spill, align 8, !dbg !2098
  call void @llvm.dbg.declare(metadata i64* %new_len.dbg.spill, metadata !2091, metadata !DIExpression()), !dbg !2092
  %44 = getelementptr inbounds %"alloc::vec::Vec<u8>", %"alloc::vec::Vec<u8>"* %v, i32 0, i32 1, !dbg !2092
  store i64 %new_len, i64* %44, align 8, !dbg !2092
  ret void, !dbg !2099

abort:                                            ; preds = %bb2
  %45 = landingpad { i8*, i32 }
          cleanup, !dbg !2100
; call core::panicking::panic_no_unwind
  call void @_ZN4core9panicking15panic_no_unwind17h62f8113f44cbfcbfE() #17, !dbg !2100
  unreachable, !dbg !2100

bb3:                                              ; preds = %bb4, %bb5
  %46 = bitcast { i8*, i32 }* %0 to i8**, !dbg !2100
  %47 = load i8*, i8** %46, align 8, !dbg !2100
  %48 = getelementptr inbounds { i8*, i32 }, { i8*, i32 }* %0, i32 0, i32 1, !dbg !2100
  %49 = load i32, i32* %48, align 8, !dbg !2100
  %50 = insertvalue { i8*, i32 } undef, i8* %47, 0, !dbg !2100
  %51 = insertvalue { i8*, i32 } %50, i32 %49, 1, !dbg !2100
  resume { i8*, i32 } %51, !dbg !2100

bb4:                                              ; preds = %bb5
  br label %bb3, !dbg !2068
}

; <() as std::process::Termination>::report
; Function Attrs: inlinehint nonlazybind uwtable
define internal i8 @"_ZN54_$LT$$LP$$RP$$u20$as$u20$std..process..Termination$GT$6report17h2441a244d8ee3008E"() unnamed_addr #0 !dbg !2101 {
start:
  %self.dbg.spill = alloca {}, align 1
  call void @llvm.dbg.declare(metadata {}* %self.dbg.spill, metadata !2106, metadata !DIExpression()), !dbg !2107
  ret i8 0, !dbg !2108
}

; alloc::ffi::c_str::CString::new
; Function Attrs: nonlazybind uwtable
define internal void @_ZN5alloc3ffi5c_str7CString3new17h6dcd7e5589bc7791E(%"core::result::Result<alloc::ffi::c_str::CString, alloc::ffi::c_str::NulError>"* sret(%"core::result::Result<alloc::ffi::c_str::CString, alloc::ffi::c_str::NulError>") %0, %"alloc::string::String"* %t) unnamed_addr #2 !dbg !2109 {
start:
  %_2 = alloca %"alloc::string::String", align 8
  call void @llvm.dbg.declare(metadata %"alloc::string::String"* %t, metadata !2114, metadata !DIExpression()), !dbg !2116
  %1 = bitcast %"alloc::string::String"* %_2 to i8*, !dbg !2117
  %2 = bitcast %"alloc::string::String"* %t to i8*, !dbg !2117
  call void @llvm.memcpy.p0i8.p0i8.i64(i8* align 8 %1, i8* align 8 %2, i64 24, i1 false), !dbg !2117
; call <T as alloc::ffi::c_str::CString::new::SpecNewImpl>::spec_new_impl
  call void @"_ZN66_$LT$T$u20$as$u20$alloc..ffi..c_str..CString..new..SpecNewImpl$GT$13spec_new_impl17h7109e8c7941c903fE"(%"core::result::Result<alloc::ffi::c_str::CString, alloc::ffi::c_str::NulError>"* sret(%"core::result::Result<alloc::ffi::c_str::CString, alloc::ffi::c_str::NulError>") %0, %"alloc::string::String"* %_2), !dbg !2117
  br label %bb1, !dbg !2117

bb1:                                              ; preds = %start
  ret void, !dbg !2118
}

; alloc::ffi::c_str::CString::new
; Function Attrs: nonlazybind uwtable
define internal void @_ZN5alloc3ffi5c_str7CString3new17h950ac3557c510635E(%"core::result::Result<alloc::ffi::c_str::CString, alloc::ffi::c_str::NulError>"* sret(%"core::result::Result<alloc::ffi::c_str::CString, alloc::ffi::c_str::NulError>") %0, [0 x i8]* align 1 %t.0, i64 %t.1) unnamed_addr #2 !dbg !2119 {
start:
  %t.dbg.spill = alloca { [0 x i8]*, i64 }, align 8
  %1 = getelementptr inbounds { [0 x i8]*, i64 }, { [0 x i8]*, i64 }* %t.dbg.spill, i32 0, i32 0
  store [0 x i8]* %t.0, [0 x i8]** %1, align 8
  %2 = getelementptr inbounds { [0 x i8]*, i64 }, { [0 x i8]*, i64 }* %t.dbg.spill, i32 0, i32 1
  store i64 %t.1, i64* %2, align 8
  call void @llvm.dbg.declare(metadata { [0 x i8]*, i64 }* %t.dbg.spill, metadata !2123, metadata !DIExpression()), !dbg !2124
; call <&str as alloc::ffi::c_str::CString::new::SpecNewImpl>::spec_new_impl
  call void @"_ZN72_$LT$$RF$str$u20$as$u20$alloc..ffi..c_str..CString..new..SpecNewImpl$GT$13spec_new_impl17h2b2077657056158aE"(%"core::result::Result<alloc::ffi::c_str::CString, alloc::ffi::c_str::NulError>"* sret(%"core::result::Result<alloc::ffi::c_str::CString, alloc::ffi::c_str::NulError>") %0, [0 x i8]* align 1 %t.0, i64 %t.1), !dbg !2125
  br label %bb1, !dbg !2125

bb1:                                              ; preds = %start
  ret void, !dbg !2126
}

; alloc::fmt::format
; Function Attrs: inlinehint nonlazybind uwtable
define internal void @_ZN5alloc3fmt6format17he97945e500dc7fb5E(%"alloc::string::String"* sret(%"alloc::string::String") %0, %"core::fmt::Arguments"* %args) unnamed_addr #0 !dbg !2127 {
start:
  %_4 = alloca i64*, align 8
  call void @llvm.dbg.declare(metadata %"core::fmt::Arguments"* %args, metadata !2132, metadata !DIExpression()), !dbg !2133
; call core::fmt::Arguments::as_str
  %1 = call { i8*, i64 } @_ZN4core3fmt9Arguments6as_str17h4df0e41cfcab46adE(%"core::fmt::Arguments"* align 8 %args), !dbg !2134
  %_2.0 = extractvalue { i8*, i64 } %1, 0, !dbg !2134
  %_2.1 = extractvalue { i8*, i64 } %1, 1, !dbg !2134
  br label %bb1, !dbg !2134

bb1:                                              ; preds = %start
  %2 = bitcast i64** %_4 to %"core::fmt::Arguments"**, !dbg !2135
  store %"core::fmt::Arguments"* %args, %"core::fmt::Arguments"** %2, align 8, !dbg !2135
  %3 = load i64*, i64** %_4, align 8, !dbg !2134, !nonnull !23, !align !281, !noundef !23
; call core::option::Option<T>::map_or_else
  call void @"_ZN4core6option15Option$LT$T$GT$11map_or_else17h69e1b80319b2d3f8E"(%"alloc::string::String"* sret(%"alloc::string::String") %0, i8* align 1 %_2.0, i64 %_2.1, i64* align 8 %3), !dbg !2134
  br label %bb2, !dbg !2134

bb2:                                              ; preds = %bb1
  ret void, !dbg !2136
}

; alloc::fmt::format::{{closure}}
; Function Attrs: inlinehint nonlazybind uwtable
define internal void @"_ZN5alloc3fmt6format28_$u7b$$u7b$closure$u7d$$u7d$17h32b273a7d5e96d04E"(%"alloc::string::String"* sret(%"alloc::string::String") %0, i64* align 8 %1) unnamed_addr #0 !dbg !2137 {
start:
  %_2 = alloca %"core::fmt::Arguments", align 8
  %_1 = alloca i64*, align 8
  store i64* %1, i64** %_1, align 8
  %2 = bitcast i64** %_1 to %"core::fmt::Arguments"**
  %3 = load %"core::fmt::Arguments"*, %"core::fmt::Arguments"** %2, align 8, !nonnull !23, !align !281, !noundef !23
  call void @llvm.dbg.declare(metadata i64** %_1, metadata !2141, metadata !DIExpression(DW_OP_deref)), !dbg !2142
  %4 = bitcast i64** %_1 to %"core::fmt::Arguments"**, !dbg !2143
  %_3 = load %"core::fmt::Arguments"*, %"core::fmt::Arguments"** %4, align 8, !dbg !2143, !nonnull !23, !align !281, !noundef !23
  %5 = bitcast %"core::fmt::Arguments"* %_2 to i8*, !dbg !2143
  %6 = bitcast %"core::fmt::Arguments"* %_3 to i8*, !dbg !2143
  call void @llvm.memcpy.p0i8.p0i8.i64(i8* align 8 %5, i8* align 8 %6, i64 48, i1 false), !dbg !2143
; call alloc::fmt::format::format_inner
  call void @_ZN5alloc3fmt6format12format_inner17h840d5de64fab0778E(%"alloc::string::String"* sret(%"alloc::string::String") %0, %"core::fmt::Arguments"* %_2), !dbg !2144
  br label %bb1, !dbg !2144

bb1:                                              ; preds = %start
  ret void, !dbg !2145
}

; alloc::str::<impl alloc::borrow::ToOwned for str>::to_owned
; Function Attrs: inlinehint nonlazybind uwtable
define internal void @"_ZN5alloc3str56_$LT$impl$u20$alloc..borrow..ToOwned$u20$for$u20$str$GT$8to_owned17h7414db6a71e39891E"(%"alloc::string::String"* sret(%"alloc::string::String") %0, [0 x i8]* align 1 %self.0, i64 %self.1) unnamed_addr #0 !dbg !2146 {
start:
  %1 = alloca { [0 x i8]*, i64 }, align 8
  %self.dbg.spill1 = alloca { [0 x i8]*, i64 }, align 8
  %self.dbg.spill = alloca { [0 x i8]*, i64 }, align 8
  %_7 = alloca %"alloc::vec::Vec<u8>", align 8
  %bytes = alloca %"alloc::vec::Vec<u8>", align 8
  %2 = getelementptr inbounds { [0 x i8]*, i64 }, { [0 x i8]*, i64 }* %self.dbg.spill, i32 0, i32 0
  store [0 x i8]* %self.0, [0 x i8]** %2, align 8
  %3 = getelementptr inbounds { [0 x i8]*, i64 }, { [0 x i8]*, i64 }* %self.dbg.spill, i32 0, i32 1
  store i64 %self.1, i64* %3, align 8
  call void @llvm.dbg.declare(metadata { [0 x i8]*, i64 }* %self.dbg.spill, metadata !2151, metadata !DIExpression()), !dbg !2152
  call void @llvm.dbg.declare(metadata %"alloc::vec::Vec<u8>"* %bytes, metadata !2153, metadata !DIExpression()), !dbg !2160
  %4 = getelementptr inbounds { [0 x i8]*, i64 }, { [0 x i8]*, i64 }* %self.dbg.spill1, i32 0, i32 0, !dbg !2162
  store [0 x i8]* %self.0, [0 x i8]** %4, align 8, !dbg !2162
  %5 = getelementptr inbounds { [0 x i8]*, i64 }, { [0 x i8]*, i64 }* %self.dbg.spill1, i32 0, i32 1, !dbg !2162
  store i64 %self.1, i64* %5, align 8, !dbg !2162
  call void @llvm.dbg.declare(metadata { [0 x i8]*, i64 }* %self.dbg.spill1, metadata !2163, metadata !DIExpression()), !dbg !2172
  %6 = getelementptr inbounds { [0 x i8]*, i64 }, { [0 x i8]*, i64 }* %1, i32 0, i32 0, !dbg !2172
  store [0 x i8]* %self.0, [0 x i8]** %6, align 8, !dbg !2172
  %7 = getelementptr inbounds { [0 x i8]*, i64 }, { [0 x i8]*, i64 }* %1, i32 0, i32 1, !dbg !2172
  store i64 %self.1, i64* %7, align 8, !dbg !2172
  %8 = getelementptr inbounds { [0 x i8]*, i64 }, { [0 x i8]*, i64 }* %1, i32 0, i32 0, !dbg !2172
  %_4.0 = load [0 x i8]*, [0 x i8]** %8, align 8, !dbg !2172, !nonnull !23, !align !588, !noundef !23
  %9 = getelementptr inbounds { [0 x i8]*, i64 }, { [0 x i8]*, i64 }* %1, i32 0, i32 1, !dbg !2172
  %_4.1 = load i64, i64* %9, align 8, !dbg !2172
  br label %bb2, !dbg !2172

bb2:                                              ; preds = %start
; call alloc::slice::<impl alloc::borrow::ToOwned for [T]>::to_owned
  call void @"_ZN5alloc5slice64_$LT$impl$u20$alloc..borrow..ToOwned$u20$for$u20$$u5b$T$u5d$$GT$8to_owned17h50716152d4a30549E"(%"alloc::vec::Vec<u8>"* sret(%"alloc::vec::Vec<u8>") %bytes, [0 x i8]* align 1 %_4.0, i64 %_4.1), !dbg !2162
  br label %bb1, !dbg !2162

bb1:                                              ; preds = %bb2
  %10 = bitcast %"alloc::vec::Vec<u8>"* %_7 to i8*, !dbg !2160
  %11 = bitcast %"alloc::vec::Vec<u8>"* %bytes to i8*, !dbg !2160
  call void @llvm.memcpy.p0i8.p0i8.i64(i8* align 8 %10, i8* align 8 %11, i64 24, i1 false), !dbg !2160
  %12 = bitcast %"alloc::string::String"* %0 to %"alloc::vec::Vec<u8>"*, !dbg !2160
  %13 = bitcast %"alloc::vec::Vec<u8>"* %12 to i8*, !dbg !2160
  %14 = bitcast %"alloc::vec::Vec<u8>"* %_7 to i8*, !dbg !2160
  call void @llvm.memcpy.p0i8.p0i8.i64(i8* align 8 %13, i8* align 8 %14, i64 24, i1 false), !dbg !2160
  ret void, !dbg !2173
}

; alloc::vec::Vec<T,A>::as_mut_ptr
; Function Attrs: inlinehint nonlazybind uwtable
define internal i8* @"_ZN5alloc3vec16Vec$LT$T$C$A$GT$10as_mut_ptr17h2e4607115dbe49eeE"(%"alloc::vec::Vec<u8>"* align 8 %self) unnamed_addr #0 !dbg !2174 {
start:
  %0 = alloca i8, align 1
  %other.dbg.spill = alloca i8*, align 8
  %data_address.dbg.spill = alloca {}*, align 8
  %1 = alloca {}*, align 8
  %self.dbg.spill7 = alloca i8*, align 8
  %self.dbg.spill6 = alloca i8*, align 8
  %ptr.dbg.spill = alloca i8*, align 8
  %self.dbg.spill5 = alloca i8*, align 8
  %self.dbg.spill4 = alloca i8*, align 8
  %self.dbg.spill2 = alloca { i8*, i64 }*, align 8
  %metadata.dbg.spill = alloca {}, align 1
  %self.dbg.spill = alloca %"alloc::vec::Vec<u8>"*, align 8
  %_18 = alloca %"core::ptr::metadata::PtrComponents<u8>", align 8
  %_17 = alloca %"core::ptr::metadata::PtrRepr<u8>", align 8
  store %"alloc::vec::Vec<u8>"* %self, %"alloc::vec::Vec<u8>"** %self.dbg.spill, align 8
  call void @llvm.dbg.declare(metadata %"alloc::vec::Vec<u8>"** %self.dbg.spill, metadata !2178, metadata !DIExpression()), !dbg !2181
  call void @llvm.dbg.declare(metadata {}* %metadata.dbg.spill, metadata !2182, metadata !DIExpression()), !dbg !2187
  %self1 = bitcast %"alloc::vec::Vec<u8>"* %self to { i8*, i64 }*, !dbg !2196
  store { i8*, i64 }* %self1, { i8*, i64 }** %self.dbg.spill2, align 8, !dbg !2196
  call void @llvm.dbg.declare(metadata { i8*, i64 }** %self.dbg.spill2, metadata !2197, metadata !DIExpression()), !dbg !2204
  %2 = bitcast { i8*, i64 }* %self1 to i8**, !dbg !2204
  %self3 = load i8*, i8** %2, align 8, !dbg !2204, !nonnull !23, !noundef !23
  store i8* %self3, i8** %self.dbg.spill4, align 8, !dbg !2204
  call void @llvm.dbg.declare(metadata i8** %self.dbg.spill4, metadata !2205, metadata !DIExpression()), !dbg !2209
  store i8* %self3, i8** %self.dbg.spill5, align 8, !dbg !2209
  call void @llvm.dbg.declare(metadata i8** %self.dbg.spill5, metadata !2211, metadata !DIExpression()), !dbg !2215
  store i8* %self3, i8** %ptr.dbg.spill, align 8, !dbg !2215
  call void @llvm.dbg.declare(metadata i8** %ptr.dbg.spill, metadata !2179, metadata !DIExpression()), !dbg !2217
  store i8* %self3, i8** %self.dbg.spill6, align 8, !dbg !2195
  call void @llvm.dbg.declare(metadata i8** %self.dbg.spill6, metadata !2193, metadata !DIExpression()), !dbg !2218
  store i8* %self3, i8** %self.dbg.spill7, align 8, !dbg !2218
  call void @llvm.dbg.declare(metadata i8** %self.dbg.spill7, metadata !2219, metadata !DIExpression()), !dbg !2224
  %3 = bitcast {}** %1 to i64*, !dbg !2226
  store i64 0, i64* %3, align 8, !dbg !2226
  %data_address = load {}*, {}** %1, align 8, !dbg !2226
  store {}* %data_address, {}** %data_address.dbg.spill, align 8, !dbg !2226
  call void @llvm.dbg.declare(metadata {}** %data_address.dbg.spill, metadata !2186, metadata !DIExpression()), !dbg !2187
  br label %bb2, !dbg !2226

bb2:                                              ; preds = %start
  %4 = bitcast %"core::ptr::metadata::PtrComponents<u8>"* %_18 to {}**, !dbg !2187
  store {}* %data_address, {}** %4, align 8, !dbg !2187
  %5 = bitcast %"core::ptr::metadata::PtrRepr<u8>"* %_17 to %"core::ptr::metadata::PtrComponents<u8>"*, !dbg !2187
  %6 = bitcast %"core::ptr::metadata::PtrComponents<u8>"* %5 to i8*, !dbg !2187
  %7 = bitcast %"core::ptr::metadata::PtrComponents<u8>"* %_18 to i8*, !dbg !2187
  call void @llvm.memcpy.p0i8.p0i8.i64(i8* align 8 %6, i8* align 8 %7, i64 8, i1 false), !dbg !2187
  %8 = bitcast %"core::ptr::metadata::PtrRepr<u8>"* %_17 to i8**, !dbg !2187
  %other = load i8*, i8** %8, align 8, !dbg !2187
  store i8* %other, i8** %other.dbg.spill, align 8, !dbg !2187
  call void @llvm.dbg.declare(metadata i8** %other.dbg.spill, metadata !2223, metadata !DIExpression()), !dbg !2224
  %9 = icmp eq i8* %self3, %other, !dbg !2224
  %10 = zext i1 %9 to i8, !dbg !2224
  store i8 %10, i8* %0, align 1, !dbg !2224
  %11 = load i8, i8* %0, align 1, !dbg !2224, !range !604, !noundef !23
  %_5 = trunc i8 %11 to i1, !dbg !2224
  br label %bb3, !dbg !2224

bb3:                                              ; preds = %bb2
  %_4 = xor i1 %_5, true, !dbg !2232
  call void @llvm.assume(i1 %_4), !dbg !2233
  br label %bb1, !dbg !2233

bb1:                                              ; preds = %bb3
  ret i8* %self3, !dbg !2234
}

; alloc::vec::Vec<T,A>::as_ptr
; Function Attrs: inlinehint nonlazybind uwtable
define internal i8* @"_ZN5alloc3vec16Vec$LT$T$C$A$GT$6as_ptr17h129d2381c37e819bE"(%"alloc::vec::Vec<u8>"* align 8 %self) unnamed_addr #0 !dbg !2235 {
start:
  %0 = alloca i8, align 1
  %other.dbg.spill = alloca i8*, align 8
  %data_address.dbg.spill = alloca {}*, align 8
  %1 = alloca {}*, align 8
  %self.dbg.spill7 = alloca i8*, align 8
  %self.dbg.spill6 = alloca i8*, align 8
  %ptr.dbg.spill = alloca i8*, align 8
  %self.dbg.spill5 = alloca i8*, align 8
  %self.dbg.spill4 = alloca i8*, align 8
  %self.dbg.spill2 = alloca { i8*, i64 }*, align 8
  %metadata.dbg.spill = alloca {}, align 1
  %self.dbg.spill = alloca %"alloc::vec::Vec<u8>"*, align 8
  %_20 = alloca %"core::ptr::metadata::PtrComponents<u8>", align 8
  %_19 = alloca %"core::ptr::metadata::PtrRepr<u8>", align 8
  store %"alloc::vec::Vec<u8>"* %self, %"alloc::vec::Vec<u8>"** %self.dbg.spill, align 8
  call void @llvm.dbg.declare(metadata %"alloc::vec::Vec<u8>"** %self.dbg.spill, metadata !2240, metadata !DIExpression()), !dbg !2243
  call void @llvm.dbg.declare(metadata {}* %metadata.dbg.spill, metadata !2244, metadata !DIExpression()), !dbg !2249
  %self1 = bitcast %"alloc::vec::Vec<u8>"* %self to { i8*, i64 }*, !dbg !2258
  store { i8*, i64 }* %self1, { i8*, i64 }** %self.dbg.spill2, align 8, !dbg !2258
  call void @llvm.dbg.declare(metadata { i8*, i64 }** %self.dbg.spill2, metadata !2259, metadata !DIExpression()), !dbg !2263
  %2 = bitcast { i8*, i64 }* %self1 to i8**, !dbg !2263
  %self3 = load i8*, i8** %2, align 8, !dbg !2263, !nonnull !23, !noundef !23
  store i8* %self3, i8** %self.dbg.spill4, align 8, !dbg !2263
  call void @llvm.dbg.declare(metadata i8** %self.dbg.spill4, metadata !2264, metadata !DIExpression()), !dbg !2268
  store i8* %self3, i8** %self.dbg.spill5, align 8, !dbg !2268
  call void @llvm.dbg.declare(metadata i8** %self.dbg.spill5, metadata !2270, metadata !DIExpression()), !dbg !2274
  store i8* %self3, i8** %ptr.dbg.spill, align 8, !dbg !2274
  call void @llvm.dbg.declare(metadata i8** %ptr.dbg.spill, metadata !2241, metadata !DIExpression()), !dbg !2276
  store i8* %self3, i8** %self.dbg.spill6, align 8, !dbg !2257
  call void @llvm.dbg.declare(metadata i8** %self.dbg.spill6, metadata !2255, metadata !DIExpression()), !dbg !2277
  store i8* %self3, i8** %self.dbg.spill7, align 8, !dbg !2277
  call void @llvm.dbg.declare(metadata i8** %self.dbg.spill7, metadata !2278, metadata !DIExpression()), !dbg !2283
  %3 = bitcast {}** %1 to i64*, !dbg !2285
  store i64 0, i64* %3, align 8, !dbg !2285
  %data_address = load {}*, {}** %1, align 8, !dbg !2285
  store {}* %data_address, {}** %data_address.dbg.spill, align 8, !dbg !2285
  call void @llvm.dbg.declare(metadata {}** %data_address.dbg.spill, metadata !2248, metadata !DIExpression()), !dbg !2249
  br label %bb2, !dbg !2285

bb2:                                              ; preds = %start
  %4 = bitcast %"core::ptr::metadata::PtrComponents<u8>"* %_20 to {}**, !dbg !2249
  store {}* %data_address, {}** %4, align 8, !dbg !2249
  %5 = bitcast %"core::ptr::metadata::PtrRepr<u8>"* %_19 to %"core::ptr::metadata::PtrComponents<u8>"*, !dbg !2249
  %6 = bitcast %"core::ptr::metadata::PtrComponents<u8>"* %5 to i8*, !dbg !2249
  %7 = bitcast %"core::ptr::metadata::PtrComponents<u8>"* %_20 to i8*, !dbg !2249
  call void @llvm.memcpy.p0i8.p0i8.i64(i8* align 8 %6, i8* align 8 %7, i64 8, i1 false), !dbg !2249
  %8 = bitcast %"core::ptr::metadata::PtrRepr<u8>"* %_19 to i8**, !dbg !2249
  %other = load i8*, i8** %8, align 8, !dbg !2249
  store i8* %other, i8** %other.dbg.spill, align 8, !dbg !2249
  call void @llvm.dbg.declare(metadata i8** %other.dbg.spill, metadata !2282, metadata !DIExpression()), !dbg !2283
  %9 = icmp eq i8* %self3, %other, !dbg !2283
  %10 = zext i1 %9 to i8, !dbg !2283
  store i8 %10, i8* %0, align 1, !dbg !2283
  %11 = load i8, i8* %0, align 1, !dbg !2283, !range !604, !noundef !23
  %_6 = trunc i8 %11 to i1, !dbg !2283
  br label %bb3, !dbg !2283

bb3:                                              ; preds = %bb2
  %_5 = xor i1 %_6, true, !dbg !2291
  call void @llvm.assume(i1 %_5), !dbg !2292
  br label %bb1, !dbg !2292

bb1:                                              ; preds = %bb3
  ret i8* %self3, !dbg !2293
}

; alloc::alloc::Global::alloc_impl
; Function Attrs: inlinehint nonlazybind uwtable
define internal { i8*, i64 } @_ZN5alloc5alloc6Global10alloc_impl17h028c9b157a6dc503E(%"alloc::alloc::Global"* align 1 %self, i64 %0, i64 %1, i1 zeroext %zeroed) unnamed_addr #0 !dbg !2294 {
start:
  %ptr.dbg.spill38 = alloca { [0 x i8]*, i64 }, align 8
  %data_address.dbg.spill35 = alloca {}*, align 8
  %self.dbg.spill33 = alloca i8*, align 8
  %data.dbg.spill32 = alloca i8*, align 8
  %self.dbg.spill31 = alloca i8*, align 8
  %ptr.dbg.spill29 = alloca i8*, align 8
  %2 = alloca i8*, align 8
  %addr.dbg.spill = alloca i64, align 8
  %n.dbg.spill28 = alloca i64, align 8
  %self.dbg.spill27 = alloca { i64, i64 }*, align 8
  %self.dbg.spill26 = alloca { i64, i64 }*, align 8
  %ptr.dbg.spill25 = alloca { [0 x i8]*, i64 }, align 8
  %metadata.dbg.spill = alloca i64, align 8
  %data_address.dbg.spill = alloca {}*, align 8
  %self.dbg.spill24 = alloca i8*, align 8
  %len.dbg.spill23 = alloca i64, align 8
  %data.dbg.spill22 = alloca i8*, align 8
  %self.dbg.spill21 = alloca i8*, align 8
  %len.dbg.spill = alloca i64, align 8
  %data.dbg.spill = alloca i8*, align 8
  %ptr.dbg.spill = alloca i8*, align 8
  %val.dbg.spill = alloca i8*, align 8
  %v.dbg.spill20 = alloca i8*, align 8
  %v.dbg.spill = alloca i8*, align 8
  %n.dbg.spill18 = alloca i64, align 8
  %self.dbg.spill17 = alloca { i64, i64 }*, align 8
  %self.dbg.spill16 = alloca { i64, i64 }*, align 8
  %n.dbg.spill = alloca i64, align 8
  %self.dbg.spill15 = alloca { i64, i64 }*, align 8
  %self.dbg.spill14 = alloca { i64, i64 }*, align 8
  %size.dbg.spill = alloca i64, align 8
  %self.dbg.spill13 = alloca { i64, i64 }*, align 8
  %e.dbg.spill12 = alloca %"core::alloc::AllocError", align 1
  %e.dbg.spill = alloca %"core::alloc::AllocError", align 1
  %residual.dbg.spill5 = alloca %"core::result::Result<core::convert::Infallible, core::alloc::AllocError>::Err", align 1
  %residual.dbg.spill = alloca %"core::result::Result<core::convert::Infallible, core::alloc::AllocError>::Err", align 1
  %err.dbg.spill = alloca %"core::alloc::AllocError", align 1
  %zeroed.dbg.spill = alloca i8, align 1
  %self.dbg.spill = alloca %"alloc::alloc::Global"*, align 8
  %_94 = alloca { i8*, i64 }, align 8
  %_93 = alloca %"core::ptr::metadata::PtrRepr<[u8]>", align 8
  %self11 = alloca i64, align 8
  %self10 = alloca i64, align 8
  %self9 = alloca i64, align 8
  %self8 = alloca i64, align 8
  %_51 = alloca { i8*, i64 }, align 8
  %_50 = alloca %"core::ptr::metadata::PtrRepr<[u8]>", align 8
  %self7 = alloca i64, align 8
  %self6 = alloca i64, align 8
  %_24 = alloca { i8*, i64 }, align 8
  %self4 = alloca i8*, align 8
  %self3 = alloca i8*, align 8
  %_15 = alloca i8*, align 8
  %layout2 = alloca { i64, i64 }, align 8
  %layout1 = alloca { i64, i64 }, align 8
  %raw_ptr = alloca i8*, align 8
  %data = alloca i8*, align 8
  %_6 = alloca { i8*, i64 }, align 8
  %3 = alloca { i8*, i64 }, align 8
  %layout = alloca { i64, i64 }, align 8
  %4 = getelementptr inbounds { i64, i64 }, { i64, i64 }* %layout, i32 0, i32 0
  store i64 %0, i64* %4, align 8
  %5 = getelementptr inbounds { i64, i64 }, { i64, i64 }* %layout, i32 0, i32 1
  store i64 %1, i64* %5, align 8
  store %"alloc::alloc::Global"* %self, %"alloc::alloc::Global"** %self.dbg.spill, align 8
  call void @llvm.dbg.declare(metadata %"alloc::alloc::Global"** %self.dbg.spill, metadata !2323, metadata !DIExpression()), !dbg !2349
  call void @llvm.dbg.declare(metadata { i64, i64 }* %layout, metadata !2324, metadata !DIExpression()), !dbg !2350
  %6 = zext i1 %zeroed to i8
  store i8 %6, i8* %zeroed.dbg.spill, align 1
  call void @llvm.dbg.declare(metadata i8* %zeroed.dbg.spill, metadata !2325, metadata !DIExpression()), !dbg !2351
  call void @llvm.dbg.declare(metadata i8** %data, metadata !2352, metadata !DIExpression()), !dbg !2359
  call void @llvm.dbg.declare(metadata i8** %raw_ptr, metadata !2328, metadata !DIExpression()), !dbg !2361
  call void @llvm.dbg.declare(metadata { i64, i64 }* %layout1, metadata !2362, metadata !DIExpression()), !dbg !2367
  call void @llvm.dbg.declare(metadata { i64, i64 }* %layout2, metadata !2369, metadata !DIExpression()), !dbg !2372
  call void @llvm.dbg.declare(metadata i8** %self3, metadata !2374, metadata !DIExpression()), !dbg !2416
  call void @llvm.dbg.declare(metadata i8** %self4, metadata !2418, metadata !DIExpression()), !dbg !2428
  call void @llvm.dbg.declare(metadata %"core::alloc::AllocError"* %err.dbg.spill, metadata !2424, metadata !DIExpression()), !dbg !2428
  call void @llvm.dbg.declare(metadata %"core::result::Result<core::convert::Infallible, core::alloc::AllocError>::Err"* %residual.dbg.spill, metadata !2332, metadata !DIExpression()), !dbg !2429
  call void @llvm.dbg.declare(metadata %"core::result::Result<core::convert::Infallible, core::alloc::AllocError>::Err"* %residual.dbg.spill5, metadata !2430, metadata !DIExpression()), !dbg !2441
  call void @llvm.dbg.declare(metadata i64* %self6, metadata !2443, metadata !DIExpression()), !dbg !2447
  call void @llvm.dbg.declare(metadata i64* %self7, metadata !2464, metadata !DIExpression()), !dbg !2468
  call void @llvm.dbg.declare(metadata i64* %self8, metadata !2469, metadata !DIExpression()), !dbg !2473
  call void @llvm.dbg.declare(metadata i64* %self9, metadata !2480, metadata !DIExpression()), !dbg !2484
  call void @llvm.dbg.declare(metadata i64* %self10, metadata !2485, metadata !DIExpression()), !dbg !2489
  call void @llvm.dbg.declare(metadata i64* %self11, metadata !2496, metadata !DIExpression()), !dbg !2500
  call void @llvm.dbg.declare(metadata %"core::alloc::AllocError"* %e.dbg.spill, metadata !2413, metadata !DIExpression()), !dbg !2501
  call void @llvm.dbg.declare(metadata %"core::alloc::AllocError"* %e.dbg.spill12, metadata !2436, metadata !DIExpression()), !dbg !2502
  store { i64, i64 }* %layout, { i64, i64 }** %self.dbg.spill13, align 8, !dbg !2503
  call void @llvm.dbg.declare(metadata { i64, i64 }** %self.dbg.spill13, metadata !2504, metadata !DIExpression()), !dbg !2508
  %7 = bitcast { i64, i64 }* %layout to i64*, !dbg !2508
  %_4 = load i64, i64* %7, align 8, !dbg !2508
  %8 = icmp eq i64 %_4, 0, !dbg !2509
  br i1 %8, label %bb2, label %bb1, !dbg !2509

bb2:                                              ; preds = %start
  store { i64, i64 }* %layout, { i64, i64 }** %self.dbg.spill26, align 8, !dbg !2463
  call void @llvm.dbg.declare(metadata { i64, i64 }** %self.dbg.spill26, metadata !2461, metadata !DIExpression()), !dbg !2510
  store { i64, i64 }* %layout, { i64, i64 }** %self.dbg.spill27, align 8, !dbg !2510
  call void @llvm.dbg.declare(metadata { i64, i64 }** %self.dbg.spill27, metadata !2454, metadata !DIExpression()), !dbg !2511
  %9 = getelementptr inbounds { i64, i64 }, { i64, i64 }* %layout, i32 0, i32 1, !dbg !2511
  %10 = load i64, i64* %9, align 8, !dbg !2511, !range !1285, !noundef !23
  store i64 %10, i64* %self7, align 8, !dbg !2511
  %_33 = load i64, i64* %self7, align 8, !dbg !2468, !range !1285, !noundef !23
  store i64 %_33, i64* %n.dbg.spill28, align 8, !dbg !2468
  call void @llvm.dbg.declare(metadata i64* %n.dbg.spill28, metadata !2512, metadata !DIExpression()), !dbg !2519
  store i64 %_33, i64* %self6, align 8, !dbg !2519
  %addr = load i64, i64* %self6, align 8, !dbg !2447
  store i64 %addr, i64* %addr.dbg.spill, align 8, !dbg !2447
  call void @llvm.dbg.declare(metadata i64* %addr.dbg.spill, metadata !2521, metadata !DIExpression()), !dbg !2527
  %11 = bitcast i8** %2 to i64*, !dbg !2527
  store i64 %addr, i64* %11, align 8, !dbg !2527
  %ptr = load i8*, i8** %2, align 8, !dbg !2527
  store i8* %ptr, i8** %ptr.dbg.spill29, align 8, !dbg !2527
  call void @llvm.dbg.declare(metadata i8** %ptr.dbg.spill29, metadata !2529, metadata !DIExpression()), !dbg !2533
  br label %bb13, !dbg !2527

bb1:                                              ; preds = %start
  store i64 %_4, i64* %size.dbg.spill, align 8, !dbg !2535
  call void @llvm.dbg.declare(metadata i64* %size.dbg.spill, metadata !2326, metadata !DIExpression()), !dbg !2536
  br i1 %zeroed, label %bb3, label %bb4, !dbg !2537

bb4:                                              ; preds = %bb1
  %12 = getelementptr inbounds { i64, i64 }, { i64, i64 }* %layout, i32 0, i32 0, !dbg !2538
  %13 = load i64, i64* %12, align 8, !dbg !2538
  %14 = getelementptr inbounds { i64, i64 }, { i64, i64 }* %layout, i32 0, i32 1, !dbg !2538
  %15 = load i64, i64* %14, align 8, !dbg !2538, !range !1285, !noundef !23
  %16 = getelementptr inbounds { i64, i64 }, { i64, i64 }* %layout2, i32 0, i32 0, !dbg !2538
  store i64 %13, i64* %16, align 8, !dbg !2538
  %17 = getelementptr inbounds { i64, i64 }, { i64, i64 }* %layout2, i32 0, i32 1, !dbg !2538
  store i64 %15, i64* %17, align 8, !dbg !2538
  store { i64, i64 }* %layout2, { i64, i64 }** %self.dbg.spill16, align 8, !dbg !2372
  call void @llvm.dbg.declare(metadata { i64, i64 }** %self.dbg.spill16, metadata !2539, metadata !DIExpression()), !dbg !2543
  %18 = bitcast { i64, i64 }* %layout2 to i64*, !dbg !2543
  %_67 = load i64, i64* %18, align 8, !dbg !2543
  store { i64, i64 }* %layout2, { i64, i64 }** %self.dbg.spill17, align 8, !dbg !2372
  call void @llvm.dbg.declare(metadata { i64, i64 }** %self.dbg.spill17, metadata !2493, metadata !DIExpression()), !dbg !2545
  %19 = getelementptr inbounds { i64, i64 }, { i64, i64 }* %layout2, i32 0, i32 1, !dbg !2545
  %20 = load i64, i64* %19, align 8, !dbg !2545, !range !1285, !noundef !23
  store i64 %20, i64* %self11, align 8, !dbg !2545
  %_74 = load i64, i64* %self11, align 8, !dbg !2500, !range !1285, !noundef !23
  store i64 %_74, i64* %n.dbg.spill18, align 8, !dbg !2500
  call void @llvm.dbg.declare(metadata i64* %n.dbg.spill18, metadata !2546, metadata !DIExpression()), !dbg !2553
  store i64 %_74, i64* %self10, align 8, !dbg !2553
  %_69 = load i64, i64* %self10, align 8, !dbg !2489
  %21 = call i8* @__rust_alloc(i64 %_67, i64 %_69) #18, !dbg !2372
  store i8* %21, i8** %raw_ptr, align 8, !dbg !2372
  br label %bb15, !dbg !2372

bb3:                                              ; preds = %bb1
  %22 = getelementptr inbounds { i64, i64 }, { i64, i64 }* %layout, i32 0, i32 0, !dbg !2555
  %23 = load i64, i64* %22, align 8, !dbg !2555
  %24 = getelementptr inbounds { i64, i64 }, { i64, i64 }* %layout, i32 0, i32 1, !dbg !2555
  %25 = load i64, i64* %24, align 8, !dbg !2555, !range !1285, !noundef !23
  %26 = getelementptr inbounds { i64, i64 }, { i64, i64 }* %layout1, i32 0, i32 0, !dbg !2555
  store i64 %23, i64* %26, align 8, !dbg !2555
  %27 = getelementptr inbounds { i64, i64 }, { i64, i64 }* %layout1, i32 0, i32 1, !dbg !2555
  store i64 %25, i64* %27, align 8, !dbg !2555
  store { i64, i64 }* %layout1, { i64, i64 }** %self.dbg.spill14, align 8, !dbg !2367
  call void @llvm.dbg.declare(metadata { i64, i64 }** %self.dbg.spill14, metadata !2556, metadata !DIExpression()), !dbg !2560
  %28 = bitcast { i64, i64 }* %layout1 to i64*, !dbg !2560
  %_57 = load i64, i64* %28, align 8, !dbg !2560
  store { i64, i64 }* %layout1, { i64, i64 }** %self.dbg.spill15, align 8, !dbg !2367
  call void @llvm.dbg.declare(metadata { i64, i64 }** %self.dbg.spill15, metadata !2477, metadata !DIExpression()), !dbg !2562
  %29 = getelementptr inbounds { i64, i64 }, { i64, i64 }* %layout1, i32 0, i32 1, !dbg !2562
  %30 = load i64, i64* %29, align 8, !dbg !2562, !range !1285, !noundef !23
  store i64 %30, i64* %self9, align 8, !dbg !2562
  %_64 = load i64, i64* %self9, align 8, !dbg !2484, !range !1285, !noundef !23
  store i64 %_64, i64* %n.dbg.spill, align 8, !dbg !2484
  call void @llvm.dbg.declare(metadata i64* %n.dbg.spill, metadata !2563, metadata !DIExpression()), !dbg !2570
  store i64 %_64, i64* %self8, align 8, !dbg !2570
  %_59 = load i64, i64* %self8, align 8, !dbg !2473
  %31 = call i8* @__rust_alloc_zeroed(i64 %_57, i64 %_59) #18, !dbg !2367
  store i8* %31, i8** %raw_ptr, align 8, !dbg !2367
  br label %bb14, !dbg !2367

bb14:                                             ; preds = %bb3
  br label %bb5, !dbg !2572

bb5:                                              ; preds = %bb15, %bb14
  %_18 = load i8*, i8** %raw_ptr, align 8, !dbg !2573
; call core::ptr::non_null::NonNull<T>::new
  %32 = call i8* @"_ZN4core3ptr8non_null16NonNull$LT$T$GT$3new17h92faa668602a3eafE"(i8* %_18), !dbg !2417
  store i8* %32, i8** %self4, align 8, !dbg !2417
  br label %bb6, !dbg !2417

bb15:                                             ; preds = %bb4
  br label %bb5, !dbg !2572

bb6:                                              ; preds = %bb5
  %33 = bitcast i8** %self4 to {}**, !dbg !2428
  %34 = load {}*, {}** %33, align 8, !dbg !2428
  %35 = icmp eq {}* %34, null, !dbg !2428
  %_77 = select i1 %35, i64 0, i64 1, !dbg !2428
  switch i64 %_77, label %bb17 [
    i64 0, label %bb16
    i64 1, label %bb18
  ], !dbg !2428

bb17:                                             ; preds = %bb6
  unreachable, !dbg !2428

bb16:                                             ; preds = %bb6
  %36 = bitcast i8** %self3 to {}**, !dbg !2428
  store {}* null, {}** %36, align 8, !dbg !2428
  br label %bb19, !dbg !2428

bb18:                                             ; preds = %bb6
  %v = load i8*, i8** %self4, align 8, !dbg !2428, !nonnull !23, !noundef !23
  store i8* %v, i8** %v.dbg.spill, align 8, !dbg !2428
  call void @llvm.dbg.declare(metadata i8** %v.dbg.spill, metadata !2425, metadata !DIExpression()), !dbg !2574
  store i8* %v, i8** %self3, align 8, !dbg !2574
  br label %bb19, !dbg !2428

bb19:                                             ; preds = %bb16, %bb18
  %37 = bitcast i8** %self3 to {}**, !dbg !2416
  %38 = load {}*, {}** %37, align 8, !dbg !2416
  %39 = icmp eq {}* %38, null, !dbg !2416
  %_80 = select i1 %39, i64 1, i64 0, !dbg !2416
  switch i64 %_80, label %bb21 [
    i64 0, label %bb22
    i64 1, label %bb20
  ], !dbg !2416

bb21:                                             ; preds = %bb19
  unreachable, !dbg !2416

bb22:                                             ; preds = %bb19
  %v19 = load i8*, i8** %self3, align 8, !dbg !2416, !nonnull !23, !noundef !23
  store i8* %v19, i8** %v.dbg.spill20, align 8, !dbg !2416
  call void @llvm.dbg.declare(metadata i8** %v.dbg.spill20, metadata !2410, metadata !DIExpression()), !dbg !2575
  store i8* %v19, i8** %_15, align 8, !dbg !2575
  br label %bb7, !dbg !2416

bb20:                                             ; preds = %bb19
  %40 = bitcast i8** %_15 to {}**, !dbg !2501
  store {}* null, {}** %40, align 8, !dbg !2501
  br label %bb7, !dbg !2416

bb7:                                              ; preds = %bb22, %bb20
  %41 = bitcast i8** %_15 to {}**, !dbg !2417
  %42 = load {}*, {}** %41, align 8, !dbg !2417
  %43 = icmp eq {}* %42, null, !dbg !2417
  %_20 = select i1 %43, i64 1, i64 0, !dbg !2417
  switch i64 %_20, label %bb9 [
    i64 0, label %bb8
    i64 1, label %bb10
  ], !dbg !2417

bb9:                                              ; preds = %bb7
  unreachable, !dbg !2417

bb8:                                              ; preds = %bb7
  %val = load i8*, i8** %_15, align 8, !dbg !2417, !nonnull !23, !noundef !23
  store i8* %val, i8** %val.dbg.spill, align 8, !dbg !2417
  call void @llvm.dbg.declare(metadata i8** %val.dbg.spill, metadata !2347, metadata !DIExpression()), !dbg !2576
  store i8* %val, i8** %ptr.dbg.spill, align 8, !dbg !2576
  call void @llvm.dbg.declare(metadata i8** %ptr.dbg.spill, metadata !2330, metadata !DIExpression()), !dbg !2577
  store i8* %val, i8** %data.dbg.spill, align 8, !dbg !2578
  call void @llvm.dbg.declare(metadata i8** %data.dbg.spill, metadata !2579, metadata !DIExpression()), !dbg !2584
  store i64 %_4, i64* %len.dbg.spill, align 8, !dbg !2586
  call void @llvm.dbg.declare(metadata i64* %len.dbg.spill, metadata !2583, metadata !DIExpression()), !dbg !2584
  store i8* %val, i8** %self.dbg.spill21, align 8, !dbg !2584
  call void @llvm.dbg.declare(metadata i8** %self.dbg.spill21, metadata !2587, metadata !DIExpression()), !dbg !2591
  store i8* %val, i8** %data.dbg.spill22, align 8, !dbg !2591
  call void @llvm.dbg.declare(metadata i8** %data.dbg.spill22, metadata !2593, metadata !DIExpression()), !dbg !2604
  store i64 %_4, i64* %len.dbg.spill23, align 8, !dbg !2584
  call void @llvm.dbg.declare(metadata i64* %len.dbg.spill23, metadata !2603, metadata !DIExpression()), !dbg !2604
  store i8* %val, i8** %self.dbg.spill24, align 8, !dbg !2604
  call void @llvm.dbg.declare(metadata i8** %self.dbg.spill24, metadata !2606, metadata !DIExpression()), !dbg !2614
  %data_address = bitcast i8* %val to {}*, !dbg !2614
  store {}* %data_address, {}** %data_address.dbg.spill, align 8, !dbg !2614
  call void @llvm.dbg.declare(metadata {}** %data_address.dbg.spill, metadata !2616, metadata !DIExpression()), !dbg !2623
  store i64 %_4, i64* %metadata.dbg.spill, align 8, !dbg !2604
  call void @llvm.dbg.declare(metadata i64* %metadata.dbg.spill, metadata !2622, metadata !DIExpression()), !dbg !2623
  %44 = bitcast { i8*, i64 }* %_94 to {}**, !dbg !2623
  store {}* %data_address, {}** %44, align 8, !dbg !2623
  %45 = getelementptr inbounds { i8*, i64 }, { i8*, i64 }* %_94, i32 0, i32 1, !dbg !2623
  store i64 %_4, i64* %45, align 8, !dbg !2623
  %46 = bitcast %"core::ptr::metadata::PtrRepr<[u8]>"* %_93 to { i8*, i64 }*, !dbg !2623
  %47 = getelementptr inbounds { i8*, i64 }, { i8*, i64 }* %_94, i32 0, i32 0, !dbg !2623
  %48 = load i8*, i8** %47, align 8, !dbg !2623
  %49 = getelementptr inbounds { i8*, i64 }, { i8*, i64 }* %_94, i32 0, i32 1, !dbg !2623
  %50 = load i64, i64* %49, align 8, !dbg !2623
  %51 = getelementptr inbounds { i8*, i64 }, { i8*, i64 }* %46, i32 0, i32 0, !dbg !2623
  store i8* %48, i8** %51, align 8, !dbg !2623
  %52 = getelementptr inbounds { i8*, i64 }, { i8*, i64 }* %46, i32 0, i32 1, !dbg !2623
  store i64 %50, i64* %52, align 8, !dbg !2623
  %53 = bitcast %"core::ptr::metadata::PtrRepr<[u8]>"* %_93 to { [0 x i8]*, i64 }*, !dbg !2623
  %54 = getelementptr inbounds { [0 x i8]*, i64 }, { [0 x i8]*, i64 }* %53, i32 0, i32 0, !dbg !2623
  %ptr.0 = load [0 x i8]*, [0 x i8]** %54, align 8, !dbg !2623
  %55 = getelementptr inbounds { [0 x i8]*, i64 }, { [0 x i8]*, i64 }* %53, i32 0, i32 1, !dbg !2623
  %ptr.1 = load i64, i64* %55, align 8, !dbg !2623
  %56 = getelementptr inbounds { [0 x i8]*, i64 }, { [0 x i8]*, i64 }* %ptr.dbg.spill25, i32 0, i32 0, !dbg !2623
  store [0 x i8]* %ptr.0, [0 x i8]** %56, align 8, !dbg !2623
  %57 = getelementptr inbounds { [0 x i8]*, i64 }, { [0 x i8]*, i64 }* %ptr.dbg.spill25, i32 0, i32 1, !dbg !2623
  store i64 %ptr.1, i64* %57, align 8, !dbg !2623
  call void @llvm.dbg.declare(metadata { [0 x i8]*, i64 }* %ptr.dbg.spill25, metadata !2625, metadata !DIExpression()), !dbg !2631
  %58 = bitcast { i8*, i64 }* %_24 to { [0 x i8]*, i64 }*, !dbg !2631
  %59 = getelementptr inbounds { [0 x i8]*, i64 }, { [0 x i8]*, i64 }* %58, i32 0, i32 0, !dbg !2631
  store [0 x i8]* %ptr.0, [0 x i8]** %59, align 8, !dbg !2631
  %60 = getelementptr inbounds { [0 x i8]*, i64 }, { [0 x i8]*, i64 }* %58, i32 0, i32 1, !dbg !2631
  store i64 %ptr.1, i64* %60, align 8, !dbg !2631
  %61 = getelementptr inbounds { i8*, i64 }, { i8*, i64 }* %_24, i32 0, i32 0, !dbg !2633
  %62 = load i8*, i8** %61, align 8, !dbg !2633, !nonnull !23, !noundef !23
  %63 = getelementptr inbounds { i8*, i64 }, { i8*, i64 }* %_24, i32 0, i32 1, !dbg !2633
  %64 = load i64, i64* %63, align 8, !dbg !2633
  %65 = getelementptr inbounds { i8*, i64 }, { i8*, i64 }* %3, i32 0, i32 0, !dbg !2633
  store i8* %62, i8** %65, align 8, !dbg !2633
  %66 = getelementptr inbounds { i8*, i64 }, { i8*, i64 }* %3, i32 0, i32 1, !dbg !2633
  store i64 %64, i64* %66, align 8, !dbg !2633
  br label %bb11, !dbg !2634

bb10:                                             ; preds = %bb7
; call <T as core::convert::From<T>>::from
  call void @"_ZN50_$LT$T$u20$as$u20$core..convert..From$LT$T$GT$$GT$4from17h5918e24af258d64bE"(), !dbg !2502
  br label %bb23, !dbg !2502

bb23:                                             ; preds = %bb10
  %67 = bitcast { i8*, i64 }* %3 to {}**, !dbg !2502
  store {}* null, {}** %67, align 8, !dbg !2502
  br label %bb12, !dbg !2635

bb12:                                             ; preds = %bb11, %bb23
  %68 = getelementptr inbounds { i8*, i64 }, { i8*, i64 }* %3, i32 0, i32 0, !dbg !2635
  %69 = load i8*, i8** %68, align 8, !dbg !2635
  %70 = getelementptr inbounds { i8*, i64 }, { i8*, i64 }* %3, i32 0, i32 1, !dbg !2635
  %71 = load i64, i64* %70, align 8, !dbg !2635
  %72 = insertvalue { i8*, i64 } undef, i8* %69, 0, !dbg !2635
  %73 = insertvalue { i8*, i64 } %72, i64 %71, 1, !dbg !2635
  ret { i8*, i64 } %73, !dbg !2635

bb11:                                             ; preds = %bb13, %bb8
  br label %bb12, !dbg !2635

bb13:                                             ; preds = %bb2
  store i8* %ptr, i8** %data, align 8, !dbg !2533
  %self30 = load i8*, i8** %data, align 8, !dbg !2359, !nonnull !23, !noundef !23
  store i8* %self30, i8** %self.dbg.spill31, align 8, !dbg !2359
  call void @llvm.dbg.declare(metadata i8** %self.dbg.spill31, metadata !2636, metadata !DIExpression()), !dbg !2640
  store i8* %self30, i8** %data.dbg.spill32, align 8, !dbg !2640
  call void @llvm.dbg.declare(metadata i8** %data.dbg.spill32, metadata !2642, metadata !DIExpression()), !dbg !2647
  store i8* %self30, i8** %self.dbg.spill33, align 8, !dbg !2647
  call void @llvm.dbg.declare(metadata i8** %self.dbg.spill33, metadata !2649, metadata !DIExpression()), !dbg !2653
  %data_address34 = bitcast i8* %self30 to {}*, !dbg !2653
  store {}* %data_address34, {}** %data_address.dbg.spill35, align 8, !dbg !2653
  call void @llvm.dbg.declare(metadata {}** %data_address.dbg.spill35, metadata !2655, metadata !DIExpression()), !dbg !2660
  %74 = bitcast { i8*, i64 }* %_51 to {}**, !dbg !2660
  store {}* %data_address34, {}** %74, align 8, !dbg !2660
  %75 = getelementptr inbounds { i8*, i64 }, { i8*, i64 }* %_51, i32 0, i32 1, !dbg !2660
  store i64 0, i64* %75, align 8, !dbg !2660
  %76 = bitcast %"core::ptr::metadata::PtrRepr<[u8]>"* %_50 to { i8*, i64 }*, !dbg !2660
  %77 = getelementptr inbounds { i8*, i64 }, { i8*, i64 }* %_51, i32 0, i32 0, !dbg !2660
  %78 = load i8*, i8** %77, align 8, !dbg !2660
  %79 = getelementptr inbounds { i8*, i64 }, { i8*, i64 }* %_51, i32 0, i32 1, !dbg !2660
  %80 = load i64, i64* %79, align 8, !dbg !2660
  %81 = getelementptr inbounds { i8*, i64 }, { i8*, i64 }* %76, i32 0, i32 0, !dbg !2660
  store i8* %78, i8** %81, align 8, !dbg !2660
  %82 = getelementptr inbounds { i8*, i64 }, { i8*, i64 }* %76, i32 0, i32 1, !dbg !2660
  store i64 %80, i64* %82, align 8, !dbg !2660
  %83 = bitcast %"core::ptr::metadata::PtrRepr<[u8]>"* %_50 to { [0 x i8]*, i64 }*, !dbg !2660
  %84 = getelementptr inbounds { [0 x i8]*, i64 }, { [0 x i8]*, i64 }* %83, i32 0, i32 0, !dbg !2660
  %ptr.036 = load [0 x i8]*, [0 x i8]** %84, align 8, !dbg !2660
  %85 = getelementptr inbounds { [0 x i8]*, i64 }, { [0 x i8]*, i64 }* %83, i32 0, i32 1, !dbg !2660
  %ptr.137 = load i64, i64* %85, align 8, !dbg !2660
  %86 = getelementptr inbounds { [0 x i8]*, i64 }, { [0 x i8]*, i64 }* %ptr.dbg.spill38, i32 0, i32 0, !dbg !2660
  store [0 x i8]* %ptr.036, [0 x i8]** %86, align 8, !dbg !2660
  %87 = getelementptr inbounds { [0 x i8]*, i64 }, { [0 x i8]*, i64 }* %ptr.dbg.spill38, i32 0, i32 1, !dbg !2660
  store i64 %ptr.137, i64* %87, align 8, !dbg !2660
  call void @llvm.dbg.declare(metadata { [0 x i8]*, i64 }* %ptr.dbg.spill38, metadata !2662, metadata !DIExpression()), !dbg !2666
  %88 = bitcast { i8*, i64 }* %_6 to { [0 x i8]*, i64 }*, !dbg !2666
  %89 = getelementptr inbounds { [0 x i8]*, i64 }, { [0 x i8]*, i64 }* %88, i32 0, i32 0, !dbg !2666
  store [0 x i8]* %ptr.036, [0 x i8]** %89, align 8, !dbg !2666
  %90 = getelementptr inbounds { [0 x i8]*, i64 }, { [0 x i8]*, i64 }* %88, i32 0, i32 1, !dbg !2666
  store i64 %ptr.137, i64* %90, align 8, !dbg !2666
  %91 = getelementptr inbounds { i8*, i64 }, { i8*, i64 }* %_6, i32 0, i32 0, !dbg !2668
  %92 = load i8*, i8** %91, align 8, !dbg !2668, !nonnull !23, !noundef !23
  %93 = getelementptr inbounds { i8*, i64 }, { i8*, i64 }* %_6, i32 0, i32 1, !dbg !2668
  %94 = load i64, i64* %93, align 8, !dbg !2668
  %95 = getelementptr inbounds { i8*, i64 }, { i8*, i64 }* %3, i32 0, i32 0, !dbg !2668
  store i8* %92, i8** %95, align 8, !dbg !2668
  %96 = getelementptr inbounds { i8*, i64 }, { i8*, i64 }* %3, i32 0, i32 1, !dbg !2668
  store i64 %94, i64* %96, align 8, !dbg !2668
  br label %bb11, !dbg !2669
}

; alloc::alloc::box_free
; Function Attrs: inlinehint nonlazybind uwtable
define internal void @_ZN5alloc5alloc8box_free17h0f6750c7d164f7cfE(i8* %0, i64 %1) unnamed_addr #0 personality i32 (i32, i32, i64, %"unwind::libunwind::_Unwind_Exception"*, %"unwind::libunwind::_Unwind_Context"*)* @rust_eh_personality !dbg !2670 {
start:
  %2 = alloca { i8*, i32 }, align 8
  %ptr.dbg.spill19 = alloca i8*, align 8
  %self.dbg.spill18 = alloca i8*, align 8
  %self.dbg.spill17 = alloca i8*, align 8
  %ptr.dbg.spill = alloca i8*, align 8
  %self.dbg.spill15 = alloca { i8*, i64 }, align 8
  %self.dbg.spill14 = alloca { i8*, i64 }, align 8
  %self.dbg.spill13 = alloca { i8*, i64 }, align 8
  %3 = alloca i64, align 8
  %align.dbg.spill10 = alloca i64, align 8
  %align.dbg.spill9 = alloca i64, align 8
  %size.dbg.spill8 = alloca i64, align 8
  %align.dbg.spill = alloca i64, align 8
  %4 = alloca i64, align 8
  %self.dbg.spill7 = alloca { i8*, i64 }, align 8
  %self.dbg.spill4 = alloca { i8*, i64 }*, align 8
  %self.dbg.spill3 = alloca { i8*, i64 }*, align 8
