; ModuleID = '58tdvzflsghmfn8r'
source_filename = "58tdvzflsghmfn8r"
target datalayout = "e-m:e-p270:32:32-p271:32:32-p272:64:64-i64:64-f80:128-n8:16:32:64-S128"
target triple = "x86_64-unknown-linux-gnu"

%"core::fmt::Formatter" = type { { i64, i64 }, { i64, i64 }, { {}*, [3 x i64]* }, i32, i32, i8, [7 x i8] }
%"core::fmt::builders::DebugList" = type { %"core::fmt::builders::DebugInner" }
%"core::fmt::builders::DebugInner" = type { %"core::fmt::Formatter"*, i8, i8, [6 x i8] }
%"core::ffi::VaListImpl" = type { i32, i32, i8*, i8*, %"core::marker::PhantomData<&mut &core::ffi::c_void>" }
%"core::marker::PhantomData<&mut &core::ffi::c_void>" = type {}
%"core::fmt::Arguments" = type { { [0 x { [0 x i8]*, i64 }]*, i64 }, { i64*, i64 }, { [0 x { i8*, i64* }]*, i64 } }
%"core::panic::location::Location" = type { { [0 x i8]*, i64 }, i32, i32 }
%"[closure@src/test_pointers.rs:58:1: 76:2]" = type {}
%"[closure@src/test_pointers.rs:25:1: 37:2]" = type {}
%"[closure@src/test_pointers.rs:40:1: 55:2]" = type {}
%"core::ops::range::RangeFull" = type {}
%"core::ptr::metadata::PtrComponents<u8>" = type { {}*, {} }
%"core::ptr::metadata::PtrRepr<u8>" = type { [1 x i64] }
%"core::option::Option<core::fmt::Arguments>" = type { {}*, [5 x i64] }
%"core::fmt::Opaque" = type {}
%"core::option::Option<core::fmt::Arguments>::Some" = type { %"core::fmt::Arguments" }
%"core::mem::maybe_uninit::MaybeUninit<core::ffi::VaListImpl>" = type { [3 x i64] }
%"core::mem::manually_drop::ManuallyDrop<core::ffi::VaListImpl>" = type { %"core::ffi::VaListImpl" }
%"function_pointers::pointer_st" = type { i64* }
%"ref_decay::Page" = type { i8* }
%"ref_decay::OneInt" = type { i32 }
%"ref_decay::ThreeFields" = type { i32*, i32*, i8* }
%"test::types::TestDescAndFn" = type { %"test::types::TestDesc", %"test::types::TestFn" }
%"test::types::TestDesc" = type { %"test::types::TestName", { i8*, i64 }, %"test::options::ShouldPanic", i8, i8, i8, i8, [4 x i8] }
%"test::types::TestName" = type { i8, [39 x i8] }
%"test::options::ShouldPanic" = type { i64, [2 x i64] }
%"test::types::TestFn" = type { i64, [2 x i64] }
%"unwind::libunwind::_Unwind_Exception" = type { i64, void (i32, %"unwind::libunwind::_Unwind_Exception"*)*, [6 x i64] }
%"unwind::libunwind::_Unwind_Context" = type { [0 x i8] }

@vtable.0 = private unnamed_addr constant <{ i8*, [16 x i8], i8*, i8*, i8* }> <{ i8* bitcast (void (i64**)* @"_ZN4core3ptr85drop_in_place$LT$std..rt..lang_start$LT$$LP$$RP$$GT$..$u7b$$u7b$closure$u7d$$u7d$$GT$17h80e796e8bbd6c599E" to i8*), [16 x i8] c"\08\00\00\00\00\00\00\00\08\00\00\00\00\00\00\00", i8* bitcast (i32 (i64**)* @"_ZN4core3ops8function6FnOnce40call_once$u7b$$u7b$vtable.shim$u7d$$u7d$17hd03f0463aac53634E" to i8*), i8* bitcast (i32 (i64**)* @"_ZN3std2rt10lang_start28_$u7b$$u7b$closure$u7d$$u7d$17h4825b7b8c1a6d261E" to i8*), i8* bitcast (i32 (i64**)* @"_ZN3std2rt10lang_start28_$u7b$$u7b$closure$u7d$$u7d$17h4825b7b8c1a6d261E" to i8*) }>, align 8, !dbg !0
@vtable.1 = private unnamed_addr constant <{ i8*, [16 x i8], i8* }> <{ i8* bitcast (void (i32**)* @"_ZN4core3ptr28drop_in_place$LT$$RF$i32$GT$17h1a045668aadb46adE" to i8*), [16 x i8] c"\08\00\00\00\00\00\00\00\08\00\00\00\00\00\00\00", i8* bitcast (i1 (i32**, %"core::fmt::Formatter"*)* @"_ZN42_$LT$$RF$T$u20$as$u20$core..fmt..Debug$GT$3fmt17h350233ea4a3e3af8E" to i8*) }>, align 8, !dbg !24
@alloc221 = private unnamed_addr constant <{ [12 x i8] }> <{ [12 x i8] c"invalid args" }>, align 1
@alloc222 = private unnamed_addr constant <{ i8*, [8 x i8] }> <{ i8* getelementptr inbounds (<{ [12 x i8] }>, <{ [12 x i8] }>* @alloc221, i32 0, i32 0, i32 0), [8 x i8] c"\0C\00\00\00\00\00\00\00" }>, align 8
@alloc266 = private unnamed_addr constant <{}> zeroinitializer, align 8
@alloc311 = private unnamed_addr constant <{ [75 x i8] }> <{ [75 x i8] c"/rustc/d394408fb38c4de61f765a3ed5189d2731a1da91/library/core/src/fmt/mod.rs" }>, align 1
@alloc312 = private unnamed_addr constant <{ i8*, [16 x i8] }> <{ i8* getelementptr inbounds (<{ [75 x i8] }>, <{ [75 x i8] }>* @alloc311, i32 0, i32 0, i32 0), [16 x i8] c"K\00\00\00\00\00\00\00\88\01\00\00\0D\00\00\00" }>, align 8
@alloc313 = private unnamed_addr constant <{ [73 x i8] }> <{ [73 x i8] c"assertion failed: 0 < pointee_size && pointee_size <= isize::MAX as usize" }>, align 1
@alloc314 = private unnamed_addr constant <{ [81 x i8] }> <{ [81 x i8] c"/rustc/d394408fb38c4de61f765a3ed5189d2731a1da91/library/core/src/ptr/const_ptr.rs" }>, align 1
@alloc315 = private unnamed_addr constant <{ i8*, [16 x i8] }> <{ i8* getelementptr inbounds (<{ [81 x i8] }>, <{ [81 x i8] }>* @alloc314, i32 0, i32 0, i32 0), [16 x i8] c"Q\00\00\00\00\00\00\00\8C\02\00\00\09\00\00\00" }>, align 8
@vtable.2 = private unnamed_addr constant <{ i8*, [16 x i8], i8* }> <{ i8* bitcast (void ({ [0 x i32]*, i64 }**)* @"_ZN4core3ptr42drop_in_place$LT$$RF$$RF$$u5b$i32$u5d$$GT$17h1ec70f77f85f04e0E" to i8*), [16 x i8] c"\08\00\00\00\00\00\00\00\08\00\00\00\00\00\00\00", i8* bitcast (i1 ({ [0 x i32]*, i64 }**, %"core::fmt::Formatter"*)* @"_ZN42_$LT$$RF$T$u20$as$u20$core..fmt..Debug$GT$3fmt17h2f6923c7d1ff7ef7E" to i8*) }>, align 8, !dbg !34
@vtable.3 = private unnamed_addr constant <{ i8*, [16 x i8], i8* }> <{ i8* bitcast (void ([5 x i32]**)* @"_ZN4core3ptr49drop_in_place$LT$$RF$$u5b$i32$u3b$$u20$5$u5d$$GT$17h620cb157784bf1f9E" to i8*), [16 x i8] c"\08\00\00\00\00\00\00\00\08\00\00\00\00\00\00\00", i8* bitcast (i1 ([5 x i32]**, %"core::fmt::Formatter"*)* @"_ZN42_$LT$$RF$T$u20$as$u20$core..fmt..Debug$GT$3fmt17h07ff429f70921d85E" to i8*) }>, align 8, !dbg !48
@vtable.4 = private unnamed_addr constant <{ i8*, [16 x i8], i8* }> <{ i8* bitcast (void ([31 x i32]**)* @"_ZN4core3ptr50drop_in_place$LT$$RF$$u5b$i32$u3b$$u20$31$u5d$$GT$17h51d4209fe257985eE" to i8*), [16 x i8] c"\08\00\00\00\00\00\00\00\08\00\00\00\00\00\00\00", i8* bitcast (i1 ([31 x i32]**, %"core::fmt::Formatter"*)* @"_ZN42_$LT$$RF$T$u20$as$u20$core..fmt..Debug$GT$3fmt17hd6f27fdc657deeeaE" to i8*) }>, align 8, !dbg !60
@alloc210 = private unnamed_addr constant <{ [4 x i8] }> zeroinitializer, align 4
@alloc212 = private unnamed_addr constant <{ [67 x i8] }> <{ [67 x i8] c"the test returned a termination value with a non-zero status code (" }>, align 1
@alloc214 = private unnamed_addr constant <{ [27 x i8] }> <{ [27 x i8] c") which indicates a failure" }>, align 1
@alloc213 = private unnamed_addr constant <{ i8*, [8 x i8], i8*, [8 x i8] }> <{ i8* getelementptr inbounds (<{ [67 x i8] }>, <{ [67 x i8] }>* @alloc212, i32 0, i32 0, i32 0), [8 x i8] c"C\00\00\00\00\00\00\00", i8* getelementptr inbounds (<{ [27 x i8] }>, <{ [27 x i8] }>* @alloc214, i32 0, i32 0, i32 0), [8 x i8] c"\1B\00\00\00\00\00\00\00" }>, align 8
@alloc325 = private unnamed_addr constant <{ [71 x i8] }> <{ [71 x i8] c"/rustc/d394408fb38c4de61f765a3ed5189d2731a1da91/library/test/src/lib.rs" }>, align 1
@alloc326 = private unnamed_addr constant <{ i8*, [16 x i8] }> <{ i8* getelementptr inbounds (<{ [71 x i8] }>, <{ [71 x i8] }>* @alloc325, i32 0, i32 0, i32 0), [16 x i8] c"G\00\00\00\00\00\00\00\B8\00\00\00\05\00\00\00" }>, align 8
@alloc413 = private unnamed_addr constant <{ [24 x i8] }> <{ [24 x i8] c"src/function_pointers.rs" }>, align 1
@alloc328 = private unnamed_addr constant <{ i8*, [16 x i8] }> <{ i8* getelementptr inbounds (<{ [24 x i8] }>, <{ [24 x i8] }>* @alloc413, i32 0, i32 0, i32 0), [16 x i8] c"\18\00\00\00\00\00\00\00+\00\00\00\0C\00\00\00" }>, align 8
@str.5 = internal constant [31 x i8] c"attempt to negate with overflow"
@alloc406 = private unnamed_addr constant <{ [25 x i8] }> <{ [25 x i8] c"non-null function pointer" }>, align 1
@alloc331 = private unnamed_addr constant <{ i8*, [16 x i8] }> <{ i8* getelementptr inbounds (<{ [24 x i8] }>, <{ [24 x i8] }>* @alloc413, i32 0, i32 0, i32 0), [16 x i8] c"\18\00\00\00\00\00\00\00>\00\00\00\0F\00\00\00" }>, align 8
@alloc334 = private unnamed_addr constant <{ i8*, [16 x i8] }> <{ i8* getelementptr inbounds (<{ [24 x i8] }>, <{ [24 x i8] }>* @alloc413, i32 0, i32 0, i32 0), [16 x i8] c"\18\00\00\00\00\00\00\00R\00\00\00\0E\00\00\00" }>, align 8
@alloc336 = private unnamed_addr constant <{ i8*, [16 x i8] }> <{ i8* getelementptr inbounds (<{ [24 x i8] }>, <{ [24 x i8] }>* @alloc413, i32 0, i32 0, i32 0), [16 x i8] c"\18\00\00\00\00\00\00\00T\00\00\00\05\00\00\00" }>, align 8
@str.6 = internal constant [28 x i8] c"attempt to add with overflow"
@alloc339 = private unnamed_addr constant <{ i8*, [16 x i8] }> <{ i8* getelementptr inbounds (<{ [24 x i8] }>, <{ [24 x i8] }>* @alloc413, i32 0, i32 0, i32 0), [16 x i8] c"\18\00\00\00\00\00\00\00a\00\00\00/\00\00\00" }>, align 8
@alloc342 = private unnamed_addr constant <{ i8*, [16 x i8] }> <{ i8* getelementptr inbounds (<{ [24 x i8] }>, <{ [24 x i8] }>* @alloc413, i32 0, i32 0, i32 0), [16 x i8] c"\18\00\00\00\00\00\00\00b\00\00\00\0E\00\00\00" }>, align 8
@alloc344 = private unnamed_addr constant <{ i8*, [16 x i8] }> <{ i8* getelementptr inbounds (<{ [24 x i8] }>, <{ [24 x i8] }>* @alloc413, i32 0, i32 0, i32 0), [16 x i8] c"\18\00\00\00\00\00\00\00d\00\00\00\05\00\00\00" }>, align 8
@alloc346 = private unnamed_addr constant <{ i8*, [16 x i8] }> <{ i8* getelementptr inbounds (<{ [24 x i8] }>, <{ [24 x i8] }>* @alloc413, i32 0, i32 0, i32 0), [16 x i8] c"\18\00\00\00\00\00\00\00n\00\00\00\0B\00\00\00" }>, align 8
@alloc348 = private unnamed_addr constant <{ i8*, [16 x i8] }> <{ i8* getelementptr inbounds (<{ [24 x i8] }>, <{ [24 x i8] }>* @alloc413, i32 0, i32 0, i32 0), [16 x i8] c"\18\00\00\00\00\00\00\00p\00\00\00\0D\00\00\00" }>, align 8
@alloc350 = private unnamed_addr constant <{ i8*, [16 x i8] }> <{ i8* getelementptr inbounds (<{ [24 x i8] }>, <{ [24 x i8] }>* @alloc413, i32 0, i32 0, i32 0), [16 x i8] c"\18\00\00\00\00\00\00\00q\00\00\00.\00\00\00" }>, align 8
@alloc352 = private unnamed_addr constant <{ i8*, [16 x i8] }> <{ i8* getelementptr inbounds (<{ [24 x i8] }>, <{ [24 x i8] }>* @alloc413, i32 0, i32 0, i32 0), [16 x i8] c"\18\00\00\00\00\00\00\00r\00\00\00\0D\00\00\00" }>, align 8
@alloc355 = private unnamed_addr constant <{ i8*, [16 x i8] }> <{ i8* getelementptr inbounds (<{ [24 x i8] }>, <{ [24 x i8] }>* @alloc413, i32 0, i32 0, i32 0), [16 x i8] c"\18\00\00\00\00\00\00\00s\00\00\00\12\00\00\00" }>, align 8
@alloc357 = private unnamed_addr constant <{ i8*, [16 x i8] }> <{ i8* getelementptr inbounds (<{ [24 x i8] }>, <{ [24 x i8] }>* @alloc413, i32 0, i32 0, i32 0), [16 x i8] c"\18\00\00\00\00\00\00\00u\00\00\00\13\00\00\00" }>, align 8
@alloc359 = private unnamed_addr constant <{ i8*, [16 x i8] }> <{ i8* getelementptr inbounds (<{ [24 x i8] }>, <{ [24 x i8] }>* @alloc413, i32 0, i32 0, i32 0), [16 x i8] c"\18\00\00\00\00\00\00\00y\00\00\00\09\00\00\00" }>, align 8
@alloc361 = private unnamed_addr constant <{ i8*, [16 x i8] }> <{ i8* getelementptr inbounds (<{ [24 x i8] }>, <{ [24 x i8] }>* @alloc413, i32 0, i32 0, i32 0), [16 x i8] c"\18\00\00\00\00\00\00\00}\00\00\00\09\00\00\00" }>, align 8
@alloc363 = private unnamed_addr constant <{ i8*, [16 x i8] }> <{ i8* getelementptr inbounds (<{ [24 x i8] }>, <{ [24 x i8] }>* @alloc413, i32 0, i32 0, i32 0), [16 x i8] c"\18\00\00\00\00\00\00\00\80\00\00\00\09\00\00\00" }>, align 8
@alloc365 = private unnamed_addr constant <{ i8*, [16 x i8] }> <{ i8* getelementptr inbounds (<{ [24 x i8] }>, <{ [24 x i8] }>* @alloc413, i32 0, i32 0, i32 0), [16 x i8] c"\18\00\00\00\00\00\00\00\83\00\00\00\09\00\00\00" }>, align 8
@alloc367 = private unnamed_addr constant <{ i8*, [16 x i8] }> <{ i8* getelementptr inbounds (<{ [24 x i8] }>, <{ [24 x i8] }>* @alloc413, i32 0, i32 0, i32 0), [16 x i8] c"\18\00\00\00\00\00\00\00\86\00\00\00\09\00\00\00" }>, align 8
@alloc369 = private unnamed_addr constant <{ i8*, [16 x i8] }> <{ i8* getelementptr inbounds (<{ [24 x i8] }>, <{ [24 x i8] }>* @alloc413, i32 0, i32 0, i32 0), [16 x i8] c"\18\00\00\00\00\00\00\00\91\00\00\00\09\00\00\00" }>, align 8
@alloc372 = private unnamed_addr constant <{ i8*, [16 x i8] }> <{ i8* getelementptr inbounds (<{ [24 x i8] }>, <{ [24 x i8] }>* @alloc413, i32 0, i32 0, i32 0), [16 x i8] c"\18\00\00\00\00\00\00\00\93\00\00\00\0A\00\00\00" }>, align 8
@alloc374 = private unnamed_addr constant <{ i8*, [16 x i8] }> <{ i8* getelementptr inbounds (<{ [24 x i8] }>, <{ [24 x i8] }>* @alloc413, i32 0, i32 0, i32 0), [16 x i8] c"\18\00\00\00\00\00\00\00\95\00\00\00\09\00\00\00" }>, align 8
@alloc377 = private unnamed_addr constant <{ i8*, [16 x i8] }> <{ i8* getelementptr inbounds (<{ [24 x i8] }>, <{ [24 x i8] }>* @alloc413, i32 0, i32 0, i32 0), [16 x i8] c"\18\00\00\00\00\00\00\00\96\00\00\000\00\00\00" }>, align 8
@alloc380 = private unnamed_addr constant <{ i8*, [16 x i8] }> <{ i8* getelementptr inbounds (<{ [24 x i8] }>, <{ [24 x i8] }>* @alloc413, i32 0, i32 0, i32 0), [16 x i8] c"\18\00\00\00\00\00\00\00\97\00\00\00\0A\00\00\00" }>, align 8
@alloc382 = private unnamed_addr constant <{ i8*, [16 x i8] }> <{ i8* getelementptr inbounds (<{ [24 x i8] }>, <{ [24 x i8] }>* @alloc413, i32 0, i32 0, i32 0), [16 x i8] c"\18\00\00\00\00\00\00\00\A1\00\00\00\09\00\00\00" }>, align 8
@alloc385 = private unnamed_addr constant <{ i8*, [16 x i8] }> <{ i8* getelementptr inbounds (<{ [24 x i8] }>, <{ [24 x i8] }>* @alloc413, i32 0, i32 0, i32 0), [16 x i8] c"\18\00\00\00\00\00\00\00\A3\00\00\00\0A\00\00\00" }>, align 8
@alloc387 = private unnamed_addr constant <{ i8*, [16 x i8] }> <{ i8* getelementptr inbounds (<{ [24 x i8] }>, <{ [24 x i8] }>* @alloc413, i32 0, i32 0, i32 0), [16 x i8] c"\18\00\00\00\00\00\00\00\A7\00\00\00\09\00\00\00" }>, align 8
@alloc390 = private unnamed_addr constant <{ i8*, [16 x i8] }> <{ i8* getelementptr inbounds (<{ [24 x i8] }>, <{ [24 x i8] }>* @alloc413, i32 0, i32 0, i32 0), [16 x i8] c"\18\00\00\00\00\00\00\00\A9\00\00\00\0A\00\00\00" }>, align 8
@alloc392 = private unnamed_addr constant <{ i8*, [16 x i8] }> <{ i8* getelementptr inbounds (<{ [24 x i8] }>, <{ [24 x i8] }>* @alloc413, i32 0, i32 0, i32 0), [16 x i8] c"\18\00\00\00\00\00\00\00\BE\00\00\00\09\00\00\00" }>, align 8
@alloc395 = private unnamed_addr constant <{ i8*, [16 x i8] }> <{ i8* getelementptr inbounds (<{ [24 x i8] }>, <{ [24 x i8] }>* @alloc413, i32 0, i32 0, i32 0), [16 x i8] c"\18\00\00\00\00\00\00\00\C2\00\00\00\0B\00\00\00" }>, align 8
@alloc397 = private unnamed_addr constant <{ i8*, [16 x i8] }> <{ i8* getelementptr inbounds (<{ [24 x i8] }>, <{ [24 x i8] }>* @alloc413, i32 0, i32 0, i32 0), [16 x i8] c"\18\00\00\00\00\00\00\00\C4\00\00\00\09\00\00\00" }>, align 8
@alloc400 = private unnamed_addr constant <{ i8*, [16 x i8] }> <{ i8* getelementptr inbounds (<{ [24 x i8] }>, <{ [24 x i8] }>* @alloc413, i32 0, i32 0, i32 0), [16 x i8] c"\18\00\00\00\00\00\00\00\C8\00\00\00\0B\00\00\00" }>, align 8
@alloc402 = private unnamed_addr constant <{ i8*, [16 x i8] }> <{ i8* getelementptr inbounds (<{ [24 x i8] }>, <{ [24 x i8] }>* @alloc413, i32 0, i32 0, i32 0), [16 x i8] c"\18\00\00\00\00\00\00\00\CA\00\00\00\09\00\00\00" }>, align 8
@alloc405 = private unnamed_addr constant <{ i8*, [16 x i8] }> <{ i8* getelementptr inbounds (<{ [24 x i8] }>, <{ [24 x i8] }>* @alloc413, i32 0, i32 0, i32 0), [16 x i8] c"\18\00\00\00\00\00\00\00\CF\00\00\00\18\00\00\00" }>, align 8
@alloc408 = private unnamed_addr constant <{ i8*, [16 x i8] }> <{ i8* getelementptr inbounds (<{ [24 x i8] }>, <{ [24 x i8] }>* @alloc413, i32 0, i32 0, i32 0), [16 x i8] c"\18\00\00\00\00\00\00\00\D0\00\00\00\0E\00\00\00" }>, align 8
@alloc410 = private unnamed_addr constant <{ i8*, [16 x i8] }> <{ i8* getelementptr inbounds (<{ [24 x i8] }>, <{ [24 x i8] }>* @alloc413, i32 0, i32 0, i32 0), [16 x i8] c"\18\00\00\00\00\00\00\00\D3\00\00\00\09\00\00\00" }>, align 8
@alloc109 = private unnamed_addr constant <{ i8* }> <{ i8* bitcast (i32 (i8)* @rust_intval to i8*) }>, align 8
@alloc412 = private unnamed_addr constant <{ i8*, [16 x i8] }> <{ i8* getelementptr inbounds (<{ [24 x i8] }>, <{ [24 x i8] }>* @alloc413, i32 0, i32 0, i32 0), [16 x i8] c"\18\00\00\00\00\00\00\00\D9\00\00\00\09\00\00\00" }>, align 8
@alloc414 = private unnamed_addr constant <{ i8*, [16 x i8] }> <{ i8* getelementptr inbounds (<{ [24 x i8] }>, <{ [24 x i8] }>* @alloc413, i32 0, i32 0, i32 0), [16 x i8] c"\18\00\00\00\00\00\00\00\DF\00\00\00\09\00\00\00" }>, align 8
@alloc10 = private unnamed_addr constant <{ [6 x i8] }> <{ [6 x i8] c"%u,%u\00" }>, align 1
@alloc11 = private unnamed_addr constant <{ [7 x i8] }> <{ [7 x i8] c"string\00" }>, align 1
@alloc433 = private unnamed_addr constant <{ [20 x i8] }> <{ [20 x i8] c"src/test_pointers.rs" }>, align 1
@alloc416 = private unnamed_addr constant <{ i8*, [16 x i8] }> <{ i8* getelementptr inbounds (<{ [20 x i8] }>, <{ [20 x i8] }>* @alloc433, i32 0, i32 0, i32 0), [16 x i8] c"\14\00\00\00\00\00\00\00#\00\00\00\05\00\00\00" }>, align 8
@alloc418 = private unnamed_addr constant <{ i8*, [16 x i8] }> <{ i8* getelementptr inbounds (<{ [20 x i8] }>, <{ [20 x i8] }>* @alloc433, i32 0, i32 0, i32 0), [16 x i8] c"\14\00\00\00\00\00\00\00$\00\00\00\05\00\00\00" }>, align 8
@alloc420 = private unnamed_addr constant <{ i8*, [16 x i8] }> <{ i8* getelementptr inbounds (<{ [20 x i8] }>, <{ [20 x i8] }>* @alloc433, i32 0, i32 0, i32 0), [16 x i8] c"\14\00\00\00\00\00\00\005\00\00\00\05\00\00\00" }>, align 8
@alloc422 = private unnamed_addr constant <{ i8*, [16 x i8] }> <{ i8* getelementptr inbounds (<{ [20 x i8] }>, <{ [20 x i8] }>* @alloc433, i32 0, i32 0, i32 0), [16 x i8] c"\14\00\00\00\00\00\00\006\00\00\00\05\00\00\00" }>, align 8
@alloc424 = private unnamed_addr constant <{ i8*, [16 x i8] }> <{ i8* getelementptr inbounds (<{ [20 x i8] }>, <{ [20 x i8] }>* @alloc433, i32 0, i32 0, i32 0), [16 x i8] c"\14\00\00\00\00\00\00\00J\00\00\00\11\00\00\00" }>, align 8
@alloc426 = private unnamed_addr constant <{ i8*, [16 x i8] }> <{ i8* getelementptr inbounds (<{ [20 x i8] }>, <{ [20 x i8] }>* @alloc433, i32 0, i32 0, i32 0), [16 x i8] c"\14\00\00\00\00\00\00\00J\00\00\00\1E\00\00\00" }>, align 8
@alloc254 = private unnamed_addr constant <{ [9 x i8] }> <{ [9 x i8] c"c version" }>, align 1
@alloc255 = private unnamed_addr constant <{ i8*, [8 x i8] }> <{ i8* getelementptr inbounds (<{ [9 x i8] }>, <{ [9 x i8] }>* @alloc254, i32 0, i32 0, i32 0), [8 x i8] c"\09\00\00\00\00\00\00\00" }>, align 8
@alloc428 = private unnamed_addr constant <{ i8*, [16 x i8] }> <{ i8* getelementptr inbounds (<{ [20 x i8] }>, <{ [20 x i8] }>* @alloc433, i32 0, i32 0, i32 0), [16 x i8] c"\14\00\00\00\00\00\00\00J\00\00\00\05\00\00\00" }>, align 8
@alloc430 = private unnamed_addr constant <{ i8*, [16 x i8] }> <{ i8* getelementptr inbounds (<{ [20 x i8] }>, <{ [20 x i8] }>* @alloc433, i32 0, i32 0, i32 0), [16 x i8] c"\14\00\00\00\00\00\00\00K\00\00\00\11\00\00\00" }>, align 8
@alloc432 = private unnamed_addr constant <{ i8*, [16 x i8] }> <{ i8* getelementptr inbounds (<{ [20 x i8] }>, <{ [20 x i8] }>* @alloc433, i32 0, i32 0, i32 0), [16 x i8] c"\14\00\00\00\00\00\00\00K\00\00\00#\00\00\00" }>, align 8
@alloc263 = private unnamed_addr constant <{ [12 x i8] }> <{ [12 x i8] c"rust version" }>, align 1
@alloc264 = private unnamed_addr constant <{ i8*, [8 x i8] }> <{ i8* getelementptr inbounds (<{ [12 x i8] }>, <{ [12 x i8] }>* @alloc263, i32 0, i32 0, i32 0), [8 x i8] c"\0C\00\00\00\00\00\00\00" }>, align 8
@alloc434 = private unnamed_addr constant <{ i8*, [16 x i8] }> <{ i8* getelementptr inbounds (<{ [20 x i8] }>, <{ [20 x i8] }>* @alloc433, i32 0, i32 0, i32 0), [16 x i8] c"\14\00\00\00\00\00\00\00K\00\00\00\05\00\00\00" }>, align 8
@alloc14 = private unnamed_addr constant <{ [24 x i8] }> <{ [24 x i8] c"test_pointers::test_init" }>, align 1
@alloc281 = private unnamed_addr constant <{ [1 x i8], [7 x i8], i8*, [8 x i8], [16 x i8], [8 x i8], [8 x i8], [8 x i8], [16 x i8], [4 x i8], [4 x i8], [8 x i8], i8*, [8 x i8] }> <{ [1 x i8] zeroinitializer, [7 x i8] undef, i8* getelementptr inbounds (<{ [24 x i8] }>, <{ [24 x i8] }>* @alloc14, i32 0, i32 0, i32 0), [8 x i8] c"\18\00\00\00\00\00\00\00", [16 x i8] undef, [8 x i8] zeroinitializer, [8 x i8] undef, [8 x i8] zeroinitializer, [16 x i8] undef, [4 x i8] zeroinitializer, [4 x i8] undef, [8 x i8] zeroinitializer, i8* bitcast (void ()* @_ZN4core3ops8function6FnOnce9call_once17h48497be019f634f5E to i8*), [8 x i8] undef }>, align 8
@alloc24 = private unnamed_addr constant <{ [25 x i8] }> <{ [25 x i8] c"test_pointers::test_arith" }>, align 1
@alloc282 = private unnamed_addr constant <{ [1 x i8], [7 x i8], i8*, [8 x i8], [16 x i8], [8 x i8], [8 x i8], [8 x i8], [16 x i8], [4 x i8], [4 x i8], [8 x i8], i8*, [8 x i8] }> <{ [1 x i8] zeroinitializer, [7 x i8] undef, i8* getelementptr inbounds (<{ [25 x i8] }>, <{ [25 x i8] }>* @alloc24, i32 0, i32 0, i32 0), [8 x i8] c"\19\00\00\00\00\00\00\00", [16 x i8] undef, [8 x i8] zeroinitializer, [8 x i8] undef, [8 x i8] zeroinitializer, [16 x i8] undef, [4 x i8] zeroinitializer, [4 x i8] undef, [8 x i8] zeroinitializer, i8* bitcast (void ()* @_ZN4core3ops8function6FnOnce9call_once17hf9825313a0411a58E to i8*), [8 x i8] undef }>, align 8
@alloc34 = private unnamed_addr constant <{ [27 x i8] }> <{ [27 x i8] c"test_pointers::test_fn_ptrs" }>, align 1
@alloc283 = private unnamed_addr constant <{ [1 x i8], [7 x i8], i8*, [8 x i8], [16 x i8], [8 x i8], [8 x i8], [8 x i8], [16 x i8], [4 x i8], [4 x i8], [8 x i8], i8*, [8 x i8] }> <{ [1 x i8] zeroinitializer, [7 x i8] undef, i8* getelementptr inbounds (<{ [27 x i8] }>, <{ [27 x i8] }>* @alloc34, i32 0, i32 0, i32 0), [8 x i8] c"\1B\00\00\00\00\00\00\00", [16 x i8] undef, [8 x i8] zeroinitializer, [8 x i8] undef, [8 x i8] zeroinitializer, [16 x i8] undef, [4 x i8] zeroinitializer, [4 x i8] undef, [8 x i8] zeroinitializer, i8* bitcast (void ()* @_ZN4core3ops8function6FnOnce9call_once17h104b15f451b1ba71E to i8*), [8 x i8] undef }>, align 8
@alloc284 = private unnamed_addr constant <{ i8*, i8*, i8* }> <{ i8* getelementptr inbounds (<{ [1 x i8], [7 x i8], i8*, [8 x i8], [16 x i8], [8 x i8], [8 x i8], [8 x i8], [16 x i8], [4 x i8], [4 x i8], [8 x i8], i8*, [8 x i8] }>, <{ [1 x i8], [7 x i8], i8*, [8 x i8], [16 x i8], [8 x i8], [8 x i8], [8 x i8], [16 x i8], [4 x i8], [4 x i8], [8 x i8], i8*, [8 x i8] }>* @alloc281, i32 0, i32 0, i32 0), i8* getelementptr inbounds (<{ [1 x i8], [7 x i8], i8*, [8 x i8], [16 x i8], [8 x i8], [8 x i8], [8 x i8], [16 x i8], [4 x i8], [4 x i8], [8 x i8], i8*, [8 x i8] }>, <{ [1 x i8], [7 x i8], i8*, [8 x i8], [16 x i8], [8 x i8], [8 x i8], [8 x i8], [16 x i8], [4 x i8], [4 x i8], [8 x i8], i8*, [8 x i8] }>* @alloc282, i32 0, i32 0, i32 0), i8* getelementptr inbounds (<{ [1 x i8], [7 x i8], i8*, [8 x i8], [16 x i8], [8 x i8], [8 x i8], [8 x i8], [16 x i8], [4 x i8], [4 x i8], [8 x i8], i8*, [8 x i8] }>, <{ [1 x i8], [7 x i8], i8*, [8 x i8], [16 x i8], [8 x i8], [8 x i8], [8 x i8], [16 x i8], [4 x i8], [4 x i8], [8 x i8], i8*, [8 x i8] }>* @alloc283, i32 0, i32 0, i32 0) }>, align 8
@__rustc_debug_gdb_scripts_section__ = linkonce_odr unnamed_addr constant [34 x i8] c"\01gdb_load_rust_pretty_printers.py\00", section ".debug_gdb_scripts", align 1

; std::sys_common::backtrace::__rust_begin_short_backtrace
; Function Attrs: noinline nonlazybind uwtable
define internal void @_ZN3std10sys_common9backtrace28__rust_begin_short_backtrace17hec4c0f2202a248f5E(void ()* %f) unnamed_addr #0 personality i32 (i32, i32, i64, %"unwind::libunwind::_Unwind_Exception"*, %"unwind::libunwind::_Unwind_Context"*)* @rust_eh_personality !dbg !103 {
start:
  %0 = alloca { i8*, i32 }, align 8
  %dummy.dbg.spill = alloca {}, align 1
  %f.dbg.spill = alloca void ()*, align 8
  %result.dbg.spill = alloca {}, align 1
  call void @llvm.dbg.declare(metadata {}* %result.dbg.spill, metadata !111, metadata !DIExpression()), !dbg !116
  store void ()* %f, void ()** %f.dbg.spill, align 8
  call void @llvm.dbg.declare(metadata void ()** %f.dbg.spill, metadata !110, metadata !DIExpression()), !dbg !117
  call void @llvm.dbg.declare(metadata {}* %dummy.dbg.spill, metadata !118, metadata !DIExpression()), !dbg !127
; call core::ops::function::FnOnce::call_once
  call void @_ZN4core3ops8function6FnOnce9call_once17hf11d9ae6345df402E(void ()* %f), !dbg !129
  br label %bb1, !dbg !129

bb1:                                              ; preds = %start
  call void asm sideeffect "", "r,~{memory}"({}* undef), !dbg !127, !srcloc !130
  br label %bb4, !dbg !127

bb4:                                              ; preds = %bb1
  ret void, !dbg !131

bb2:                                              ; No predecessors!
  br label %bb3, !dbg !132

bb3:                                              ; preds = %bb2
  %1 = bitcast { i8*, i32 }* %0 to i8**, !dbg !133
  %2 = load i8*, i8** %1, align 8, !dbg !133
  %3 = getelementptr inbounds { i8*, i32 }, { i8*, i32 }* %0, i32 0, i32 1, !dbg !133
  %4 = load i32, i32* %3, align 8, !dbg !133
  %5 = insertvalue { i8*, i32 } undef, i8* %2, 0, !dbg !133
  %6 = insertvalue { i8*, i32 } %5, i32 %4, 1, !dbg !133
  resume { i8*, i32 } %6, !dbg !133
}

; std::rt::lang_start
; Function Attrs: nonlazybind uwtable
define hidden i64 @_ZN3std2rt10lang_start17hf5ed1fa981022ec8E(void ()* %main, i64 %argc, i8** %argv) unnamed_addr #1 !dbg !134 {
start:
  %v.dbg.spill = alloca i64, align 8
  %argv.dbg.spill = alloca i8**, align 8
  %argc.dbg.spill = alloca i64, align 8
  %main.dbg.spill = alloca void ()*, align 8
  %_8 = alloca i64*, align 8
  %_4 = alloca i64, align 8
  store void ()* %main, void ()** %main.dbg.spill, align 8
  call void @llvm.dbg.declare(metadata void ()** %main.dbg.spill, metadata !142, metadata !DIExpression()), !dbg !147
  store i64 %argc, i64* %argc.dbg.spill, align 8
  call void @llvm.dbg.declare(metadata i64* %argc.dbg.spill, metadata !143, metadata !DIExpression()), !dbg !148
  store i8** %argv, i8*** %argv.dbg.spill, align 8
  call void @llvm.dbg.declare(metadata i8*** %argv.dbg.spill, metadata !144, metadata !DIExpression()), !dbg !149
  %0 = bitcast i64** %_8 to void ()**, !dbg !150
  store void ()* %main, void ()** %0, align 8, !dbg !150
  %_5.0 = bitcast i64** %_8 to {}*, !dbg !151
; call std::rt::lang_start_internal
  %1 = call i64 @_ZN3std2rt19lang_start_internal17h498f9556b87c8e5fE({}* align 1 %_5.0, [3 x i64]* align 8 bitcast (<{ i8*, [16 x i8], i8*, i8*, i8* }>* @vtable.0 to [3 x i64]*), i64 %argc, i8** %argv), !dbg !152
  store i64 %1, i64* %_4, align 8, !dbg !152
  br label %bb1, !dbg !152

bb1:                                              ; preds = %start
  %v = load i64, i64* %_4, align 8, !dbg !153
  store i64 %v, i64* %v.dbg.spill, align 8, !dbg !153
  call void @llvm.dbg.declare(metadata i64* %v.dbg.spill, metadata !145, metadata !DIExpression()), !dbg !154
  ret i64 %v, !dbg !155
}

; std::rt::lang_start::{{closure}}
; Function Attrs: inlinehint nonlazybind uwtable
define internal i32 @"_ZN3std2rt10lang_start28_$u7b$$u7b$closure$u7d$$u7d$17h4825b7b8c1a6d261E"(i64** align 8 %_1) unnamed_addr #2 !dbg !156 {
start:
  %self.dbg.spill = alloca i8*, align 8
  %_1.dbg.spill = alloca i64**, align 8
  %self = alloca i8, align 1
  store i64** %_1, i64*** %_1.dbg.spill, align 8
  %0 = load i64**, i64*** %_1.dbg.spill, align 8, !nonnull !23, !align !162, !noundef !23
  %1 = bitcast i64** %0 to void ()**
  call void @llvm.dbg.declare(metadata i64*** %_1.dbg.spill, metadata !161, metadata !DIExpression(DW_OP_deref)), !dbg !163
  call void @llvm.dbg.declare(metadata i8* %self, metadata !164, metadata !DIExpression()), !dbg !182
  %2 = bitcast i64** %_1 to void ()**, !dbg !184
  %_4 = load void ()*, void ()** %2, align 8, !dbg !184, !nonnull !23, !noundef !23
; call std::sys_common::backtrace::__rust_begin_short_backtrace
  call void @_ZN3std10sys_common9backtrace28__rust_begin_short_backtrace17hec4c0f2202a248f5E(void ()* %_4), !dbg !183
  br label %bb1, !dbg !183

bb1:                                              ; preds = %start
; call <() as std::process::Termination>::report
  %3 = call i8 @"_ZN54_$LT$$LP$$RP$$u20$as$u20$std..process..Termination$GT$6report17h08d155b0650ff1faE"(), !dbg !183
  store i8 %3, i8* %self, align 1, !dbg !183
  br label %bb2, !dbg !183

bb2:                                              ; preds = %bb1
  store i8* %self, i8** %self.dbg.spill, align 8, !dbg !182
  call void @llvm.dbg.declare(metadata i8** %self.dbg.spill, metadata !185, metadata !DIExpression()), !dbg !193
  %_6 = load i8, i8* %self, align 1, !dbg !193
  %4 = zext i8 %_6 to i32, !dbg !193
  ret i32 %4, !dbg !195
}

; <&T as core::fmt::Debug>::fmt
; Function Attrs: nonlazybind uwtable
define internal zeroext i1 @"_ZN42_$LT$$RF$T$u20$as$u20$core..fmt..Debug$GT$3fmt17h07ff429f70921d85E"([5 x i32]** align 8 %self, %"core::fmt::Formatter"* align 8 %f) unnamed_addr #1 !dbg !196 {
start:
  %f.dbg.spill = alloca %"core::fmt::Formatter"*, align 8
  %self.dbg.spill = alloca [5 x i32]**, align 8
  store [5 x i32]** %self, [5 x i32]*** %self.dbg.spill, align 8
  call void @llvm.dbg.declare(metadata [5 x i32]*** %self.dbg.spill, metadata !256, metadata !DIExpression()), !dbg !260
  store %"core::fmt::Formatter"* %f, %"core::fmt::Formatter"** %f.dbg.spill, align 8
  call void @llvm.dbg.declare(metadata %"core::fmt::Formatter"** %f.dbg.spill, metadata !257, metadata !DIExpression()), !dbg !261
  %_6 = load [5 x i32]*, [5 x i32]** %self, align 8, !dbg !262, !nonnull !23, !align !263, !noundef !23
; call core::array::<impl core::fmt::Debug for [T; N]>::fmt
  %0 = call zeroext i1 @"_ZN4core5array69_$LT$impl$u20$core..fmt..Debug$u20$for$u20$$u5b$T$u3b$$u20$N$u5d$$GT$3fmt17ha134e43eb46d0b6bE"([5 x i32]* align 4 %_6, %"core::fmt::Formatter"* align 8 %f), !dbg !264
  br label %bb1, !dbg !264

bb1:                                              ; preds = %start
  ret i1 %0, !dbg !265
}

; <&T as core::fmt::Debug>::fmt
; Function Attrs: nonlazybind uwtable
define internal zeroext i1 @"_ZN42_$LT$$RF$T$u20$as$u20$core..fmt..Debug$GT$3fmt17h2f6923c7d1ff7ef7E"({ [0 x i32]*, i64 }** align 8 %self, %"core::fmt::Formatter"* align 8 %f) unnamed_addr #1 !dbg !266 {
start:
  %f.dbg.spill = alloca %"core::fmt::Formatter"*, align 8
  %self.dbg.spill = alloca { [0 x i32]*, i64 }**, align 8
  store { [0 x i32]*, i64 }** %self, { [0 x i32]*, i64 }*** %self.dbg.spill, align 8
  call void @llvm.dbg.declare(metadata { [0 x i32]*, i64 }*** %self.dbg.spill, metadata !271, metadata !DIExpression()), !dbg !275
  store %"core::fmt::Formatter"* %f, %"core::fmt::Formatter"** %f.dbg.spill, align 8
  call void @llvm.dbg.declare(metadata %"core::fmt::Formatter"** %f.dbg.spill, metadata !272, metadata !DIExpression()), !dbg !276
  %_6 = load { [0 x i32]*, i64 }*, { [0 x i32]*, i64 }** %self, align 8, !dbg !277, !nonnull !23, !align !162, !noundef !23
; call <&T as core::fmt::Debug>::fmt
  %0 = call zeroext i1 @"_ZN42_$LT$$RF$T$u20$as$u20$core..fmt..Debug$GT$3fmt17hf5704ec34c7f559bE"({ [0 x i32]*, i64 }* align 8 %_6, %"core::fmt::Formatter"* align 8 %f), !dbg !278
  br label %bb1, !dbg !278

bb1:                                              ; preds = %start
  ret i1 %0, !dbg !279
}

; <&T as core::fmt::Debug>::fmt
; Function Attrs: nonlazybind uwtable
define internal zeroext i1 @"_ZN42_$LT$$RF$T$u20$as$u20$core..fmt..Debug$GT$3fmt17h350233ea4a3e3af8E"(i32** align 8 %self, %"core::fmt::Formatter"* align 8 %f) unnamed_addr #1 !dbg !280 {
start:
  %f.dbg.spill = alloca %"core::fmt::Formatter"*, align 8
  %self.dbg.spill = alloca i32**, align 8
  store i32** %self, i32*** %self.dbg.spill, align 8
  call void @llvm.dbg.declare(metadata i32*** %self.dbg.spill, metadata !285, metadata !DIExpression()), !dbg !289
  store %"core::fmt::Formatter"* %f, %"core::fmt::Formatter"** %f.dbg.spill, align 8
  call void @llvm.dbg.declare(metadata %"core::fmt::Formatter"** %f.dbg.spill, metadata !286, metadata !DIExpression()), !dbg !290
  %_6 = load i32*, i32** %self, align 8, !dbg !291, !nonnull !23, !align !263, !noundef !23
; call core::fmt::num::<impl core::fmt::Debug for i32>::fmt
  %0 = call zeroext i1 @"_ZN4core3fmt3num50_$LT$impl$u20$core..fmt..Debug$u20$for$u20$i32$GT$3fmt17h6587bf8201687637E"(i32* align 4 %_6, %"core::fmt::Formatter"* align 8 %f), !dbg !292
  br label %bb1, !dbg !292

bb1:                                              ; preds = %start
  ret i1 %0, !dbg !293
}

; <&T as core::fmt::Debug>::fmt
; Function Attrs: nonlazybind uwtable
define internal zeroext i1 @"_ZN42_$LT$$RF$T$u20$as$u20$core..fmt..Debug$GT$3fmt17hd6f27fdc657deeeaE"([31 x i32]** align 8 %self, %"core::fmt::Formatter"* align 8 %f) unnamed_addr #1 !dbg !294 {
start:
  %f.dbg.spill = alloca %"core::fmt::Formatter"*, align 8
  %self.dbg.spill = alloca [31 x i32]**, align 8
  store [31 x i32]** %self, [31 x i32]*** %self.dbg.spill, align 8
  call void @llvm.dbg.declare(metadata [31 x i32]*** %self.dbg.spill, metadata !299, metadata !DIExpression()), !dbg !303
  store %"core::fmt::Formatter"* %f, %"core::fmt::Formatter"** %f.dbg.spill, align 8
  call void @llvm.dbg.declare(metadata %"core::fmt::Formatter"** %f.dbg.spill, metadata !300, metadata !DIExpression()), !dbg !304
  %_6 = load [31 x i32]*, [31 x i32]** %self, align 8, !dbg !305, !nonnull !23, !align !263, !noundef !23
; call core::array::<impl core::fmt::Debug for [T; N]>::fmt
  %0 = call zeroext i1 @"_ZN4core5array69_$LT$impl$u20$core..fmt..Debug$u20$for$u20$$u5b$T$u3b$$u20$N$u5d$$GT$3fmt17h345b1367977e00a3E"([31 x i32]* align 4 %_6, %"core::fmt::Formatter"* align 8 %f), !dbg !306
  br label %bb1, !dbg !306

bb1:                                              ; preds = %start
  ret i1 %0, !dbg !307
}

; <&T as core::fmt::Debug>::fmt
; Function Attrs: nonlazybind uwtable
define internal zeroext i1 @"_ZN42_$LT$$RF$T$u20$as$u20$core..fmt..Debug$GT$3fmt17hf5704ec34c7f559bE"({ [0 x i32]*, i64 }* align 8 %self, %"core::fmt::Formatter"* align 8 %f) unnamed_addr #1 !dbg !308 {
start:
  %f.dbg.spill = alloca %"core::fmt::Formatter"*, align 8
  %self.dbg.spill = alloca { [0 x i32]*, i64 }*, align 8
  store { [0 x i32]*, i64 }* %self, { [0 x i32]*, i64 }** %self.dbg.spill, align 8
  call void @llvm.dbg.declare(metadata { [0 x i32]*, i64 }** %self.dbg.spill, metadata !312, metadata !DIExpression()), !dbg !314
  store %"core::fmt::Formatter"* %f, %"core::fmt::Formatter"** %f.dbg.spill, align 8
  call void @llvm.dbg.declare(metadata %"core::fmt::Formatter"** %f.dbg.spill, metadata !313, metadata !DIExpression()), !dbg !315
  %0 = getelementptr inbounds { [0 x i32]*, i64 }, { [0 x i32]*, i64 }* %self, i32 0, i32 0, !dbg !316
  %_6.0 = load [0 x i32]*, [0 x i32]** %0, align 8, !dbg !316, !nonnull !23, !align !263, !noundef !23
  %1 = getelementptr inbounds { [0 x i32]*, i64 }, { [0 x i32]*, i64 }* %self, i32 0, i32 1, !dbg !316
  %_6.1 = load i64, i64* %1, align 8, !dbg !316
; call <[T] as core::fmt::Debug>::fmt
  %2 = call zeroext i1 @"_ZN48_$LT$$u5b$T$u5d$$u20$as$u20$core..fmt..Debug$GT$3fmt17h66049e441ae961f5E"([0 x i32]* align 4 %_6.0, i64 %_6.1, %"core::fmt::Formatter"* align 8 %f), !dbg !317
  br label %bb1, !dbg !317

bb1:                                              ; preds = %start
  ret i1 %2, !dbg !318
}

; <[T] as core::fmt::Debug>::fmt
; Function Attrs: nonlazybind uwtable
define internal zeroext i1 @"_ZN48_$LT$$u5b$T$u5d$$u20$as$u20$core..fmt..Debug$GT$3fmt17h66049e441ae961f5E"([0 x i32]* align 4 %self.0, i64 %self.1, %"core::fmt::Formatter"* align 8 %f) unnamed_addr #1 !dbg !319 {
start:
  %self.dbg.spill1 = alloca { [0 x i32]*, i64 }, align 8
  %f.dbg.spill = alloca %"core::fmt::Formatter"*, align 8
  %self.dbg.spill = alloca { [0 x i32]*, i64 }, align 8
  %_6 = alloca %"core::fmt::builders::DebugList", align 8
  %0 = getelementptr inbounds { [0 x i32]*, i64 }, { [0 x i32]*, i64 }* %self.dbg.spill, i32 0, i32 0
  store [0 x i32]* %self.0, [0 x i32]** %0, align 8
  %1 = getelementptr inbounds { [0 x i32]*, i64 }, { [0 x i32]*, i64 }* %self.dbg.spill, i32 0, i32 1
  store i64 %self.1, i64* %1, align 8
  call void @llvm.dbg.declare(metadata { [0 x i32]*, i64 }* %self.dbg.spill, metadata !324, metadata !DIExpression()), !dbg !326
  store %"core::fmt::Formatter"* %f, %"core::fmt::Formatter"** %f.dbg.spill, align 8
  call void @llvm.dbg.declare(metadata %"core::fmt::Formatter"** %f.dbg.spill, metadata !325, metadata !DIExpression()), !dbg !327
; call core::fmt::Formatter::debug_list
  call void @_ZN4core3fmt9Formatter10debug_list17h2e70d1c34e8cb782E(%"core::fmt::builders::DebugList"* sret(%"core::fmt::builders::DebugList") %_6, %"core::fmt::Formatter"* align 8 %f), !dbg !328
  br label %bb1, !dbg !328

bb1:                                              ; preds = %start
  %2 = getelementptr inbounds { [0 x i32]*, i64 }, { [0 x i32]*, i64 }* %self.dbg.spill1, i32 0, i32 0, !dbg !329
  store [0 x i32]* %self.0, [0 x i32]** %2, align 8, !dbg !329
  %3 = getelementptr inbounds { [0 x i32]*, i64 }, { [0 x i32]*, i64 }* %self.dbg.spill1, i32 0, i32 1, !dbg !329
  store i64 %self.1, i64* %3, align 8, !dbg !329
  call void @llvm.dbg.declare(metadata { [0 x i32]*, i64 }* %self.dbg.spill1, metadata !330, metadata !DIExpression()), !dbg !355
; call core::slice::iter::Iter<T>::new
  %4 = call { i32*, i32* } @"_ZN4core5slice4iter13Iter$LT$T$GT$3new17h5a8ae98aafd94c26E"([0 x i32]* align 4 %self.0, i64 %self.1), !dbg !355
  %_8.0 = extractvalue { i32*, i32* } %4, 0, !dbg !355
  %_8.1 = extractvalue { i32*, i32* } %4, 1, !dbg !355
  br label %bb4, !dbg !355

bb4:                                              ; preds = %bb1
; call core::fmt::builders::DebugList::entries
  %_4 = call align 8 %"core::fmt::builders::DebugList"* @_ZN4core3fmt8builders9DebugList7entries17hfd2cf739576db175E(%"core::fmt::builders::DebugList"* align 8 %_6, i32* %_8.0, i32* %_8.1), !dbg !328
  br label %bb2, !dbg !328

bb2:                                              ; preds = %bb4
; call core::fmt::builders::DebugList::finish
  %5 = call zeroext i1 @_ZN4core3fmt8builders9DebugList6finish17ha896c0aa3642bf32E(%"core::fmt::builders::DebugList"* align 8 %_4), !dbg !328
  br label %bb3, !dbg !328

bb3:                                              ; preds = %bb2
  ret i1 %5, !dbg !356
}

; core::cmp::impls::<impl core::cmp::PartialEq<&B> for &A>::eq
; Function Attrs: inlinehint nonlazybind uwtable
define internal zeroext i1 @"_ZN4core3cmp5impls69_$LT$impl$u20$core..cmp..PartialEq$LT$$RF$B$GT$$u20$for$u20$$RF$A$GT$2eq17hb9df5ab02c72617dE"({ [0 x i32]*, i64 }* align 8 %self, { [0 x i32]*, i64 }* align 8 %other) unnamed_addr #2 !dbg !357 {
start:
  %other.dbg.spill = alloca { [0 x i32]*, i64 }*, align 8
  %self.dbg.spill = alloca { [0 x i32]*, i64 }*, align 8
  store { [0 x i32]*, i64 }* %self, { [0 x i32]*, i64 }** %self.dbg.spill, align 8
  call void @llvm.dbg.declare(metadata { [0 x i32]*, i64 }** %self.dbg.spill, metadata !366, metadata !DIExpression()), !dbg !371
  store { [0 x i32]*, i64 }* %other, { [0 x i32]*, i64 }** %other.dbg.spill, align 8
  call void @llvm.dbg.declare(metadata { [0 x i32]*, i64 }** %other.dbg.spill, metadata !367, metadata !DIExpression()), !dbg !372
  %0 = getelementptr inbounds { [0 x i32]*, i64 }, { [0 x i32]*, i64 }* %self, i32 0, i32 0, !dbg !373
  %_5.0 = load [0 x i32]*, [0 x i32]** %0, align 8, !dbg !373, !nonnull !23, !align !263, !noundef !23
  %1 = getelementptr inbounds { [0 x i32]*, i64 }, { [0 x i32]*, i64 }* %self, i32 0, i32 1, !dbg !373
  %_5.1 = load i64, i64* %1, align 8, !dbg !373
  %2 = getelementptr inbounds { [0 x i32]*, i64 }, { [0 x i32]*, i64 }* %other, i32 0, i32 0, !dbg !374
  %_6.0 = load [0 x i32]*, [0 x i32]** %2, align 8, !dbg !374, !nonnull !23, !align !263, !noundef !23
  %3 = getelementptr inbounds { [0 x i32]*, i64 }, { [0 x i32]*, i64 }* %other, i32 0, i32 1, !dbg !374
  %_6.1 = load i64, i64* %3, align 8, !dbg !374
; call core::slice::cmp::<impl core::cmp::PartialEq<[B]> for [A]>::eq
  %4 = call zeroext i1 @"_ZN4core5slice3cmp81_$LT$impl$u20$core..cmp..PartialEq$LT$$u5b$B$u5d$$GT$$u20$for$u20$$u5b$A$u5d$$GT$2eq17hdc221ba69ac18796E"([0 x i32]* align 4 %_5.0, i64 %_5.1, [0 x i32]* align 4 %_6.0, i64 %_6.1), !dbg !375
  br label %bb1, !dbg !375

bb1:                                              ; preds = %start
  ret i1 %4, !dbg !376
}

; core::ffi::VaListImpl::arg
; Function Attrs: inlinehint nonlazybind uwtable
define internal i32 (i8)** @_ZN4core3ffi10VaListImpl3arg17h415d4a67e3abf359E(%"core::ffi::VaListImpl"* align 8 %self) unnamed_addr #2 !dbg !377 {
start:
  %0 = alloca i32 (i8)**, align 8
  %self.dbg.spill = alloca %"core::ffi::VaListImpl"*, align 8
  store %"core::ffi::VaListImpl"* %self, %"core::ffi::VaListImpl"** %self.dbg.spill, align 8
  call void @llvm.dbg.declare(metadata %"core::ffi::VaListImpl"** %self.dbg.spill, metadata !401, metadata !DIExpression()), !dbg !404
  %1 = va_arg %"core::ffi::VaListImpl"* %self, i32 (i8)**, !dbg !405
  store i32 (i8)** %1, i32 (i8)*** %0, align 8, !dbg !405
  %2 = load i32 (i8)**, i32 (i8)*** %0, align 8, !dbg !405
  br label %bb1, !dbg !405

bb1:                                              ; preds = %start
  ret i32 (i8)** %2, !dbg !406
}

; core::fmt::num::<impl core::fmt::Debug for i32>::fmt
; Function Attrs: inlinehint nonlazybind uwtable
define internal zeroext i1 @"_ZN4core3fmt3num50_$LT$impl$u20$core..fmt..Debug$u20$for$u20$i32$GT$3fmt17h6587bf8201687637E"(i32* align 4 %self, %"core::fmt::Formatter"* align 8 %f) unnamed_addr #2 !dbg !407 {
start:
  %f.dbg.spill = alloca %"core::fmt::Formatter"*, align 8
  %self.dbg.spill = alloca i32*, align 8
  %0 = alloca i8, align 1
  store i32* %self, i32** %self.dbg.spill, align 8
  call void @llvm.dbg.declare(metadata i32** %self.dbg.spill, metadata !414, metadata !DIExpression()), !dbg !416
  store %"core::fmt::Formatter"* %f, %"core::fmt::Formatter"** %f.dbg.spill, align 8
  call void @llvm.dbg.declare(metadata %"core::fmt::Formatter"** %f.dbg.spill, metadata !415, metadata !DIExpression()), !dbg !417
; call core::fmt::Formatter::debug_lower_hex
  %_3 = call zeroext i1 @_ZN4core3fmt9Formatter15debug_lower_hex17h861f5ddbf758e4f9E(%"core::fmt::Formatter"* align 8 %f), !dbg !418
  br label %bb1, !dbg !418

bb1:                                              ; preds = %start
  br i1 %_3, label %bb2, label %bb4, !dbg !418

bb4:                                              ; preds = %bb1
; call core::fmt::Formatter::debug_upper_hex
  %_7 = call zeroext i1 @_ZN4core3fmt9Formatter15debug_upper_hex17h21ddf2be2e6a0fd5E(%"core::fmt::Formatter"* align 8 %f), !dbg !419
  br label %bb5, !dbg !419

bb2:                                              ; preds = %bb1
; call core::fmt::num::<impl core::fmt::LowerHex for i32>::fmt
  %1 = call zeroext i1 @"_ZN4core3fmt3num53_$LT$impl$u20$core..fmt..LowerHex$u20$for$u20$i32$GT$3fmt17h46ab6094afed2354E"(i32* align 4 %self, %"core::fmt::Formatter"* align 8 %f), !dbg !420
  %2 = zext i1 %1 to i8, !dbg !420
  store i8 %2, i8* %0, align 1, !dbg !420
  br label %bb3, !dbg !420

bb3:                                              ; preds = %bb2
  br label %bb11, !dbg !421

bb11:                                             ; preds = %bb10, %bb3
  %3 = load i8, i8* %0, align 1, !dbg !422, !range !423, !noundef !23
  %4 = trunc i8 %3 to i1, !dbg !422
  ret i1 %4, !dbg !422

bb5:                                              ; preds = %bb4
  br i1 %_7, label %bb6, label %bb8, !dbg !419

bb8:                                              ; preds = %bb5
; call core::fmt::num::imp::<impl core::fmt::Display for i32>::fmt
  %5 = call zeroext i1 @"_ZN4core3fmt3num3imp52_$LT$impl$u20$core..fmt..Display$u20$for$u20$i32$GT$3fmt17h52a4838d0eaa2babE"(i32* align 4 %self, %"core::fmt::Formatter"* align 8 %f), !dbg !424
  %6 = zext i1 %5 to i8, !dbg !424
  store i8 %6, i8* %0, align 1, !dbg !424
  br label %bb9, !dbg !424

bb6:                                              ; preds = %bb5
; call core::fmt::num::<impl core::fmt::UpperHex for i32>::fmt
  %7 = call zeroext i1 @"_ZN4core3fmt3num53_$LT$impl$u20$core..fmt..UpperHex$u20$for$u20$i32$GT$3fmt17h827553a54a7e037dE"(i32* align 4 %self, %"core::fmt::Formatter"* align 8 %f), !dbg !425
  %8 = zext i1 %7 to i8, !dbg !425
  store i8 %8, i8* %0, align 1, !dbg !425
  br label %bb7, !dbg !425

bb7:                                              ; preds = %bb6
  br label %bb10, !dbg !426

bb10:                                             ; preds = %bb9, %bb7
  br label %bb11, !dbg !421

bb9:                                              ; preds = %bb8
  br label %bb10, !dbg !426
}

; core::fmt::builders::DebugList::entries
; Function Attrs: nonlazybind uwtable
define internal align 8 %"core::fmt::builders::DebugList"* @_ZN4core3fmt8builders9DebugList7entries17hfd2cf739576db175E(%"core::fmt::builders::DebugList"* align 8 %self, i32* %entries.0, i32* %entries.1) unnamed_addr #1 personality i32 (i32, i32, i64, %"unwind::libunwind::_Unwind_Exception"*, %"unwind::libunwind::_Unwind_Context"*)* @rust_eh_personality !dbg !427 {
start:
  %0 = alloca { i8*, i32 }, align 8
  %entries.dbg.spill = alloca { i32*, i32* }, align 8
  %self.dbg.spill = alloca %"core::fmt::builders::DebugList"*, align 8
  %entry = alloca i32*, align 8
  %_7 = alloca i32*, align 8
  %iter = alloca { i32*, i32* }, align 8
  store %"core::fmt::builders::DebugList"* %self, %"core::fmt::builders::DebugList"** %self.dbg.spill, align 8
  call void @llvm.dbg.declare(metadata %"core::fmt::builders::DebugList"** %self.dbg.spill, metadata !442, metadata !DIExpression()), !dbg !451
  %1 = getelementptr inbounds { i32*, i32* }, { i32*, i32* }* %entries.dbg.spill, i32 0, i32 0
  store i32* %entries.0, i32** %1, align 8
  %2 = getelementptr inbounds { i32*, i32* }, { i32*, i32* }* %entries.dbg.spill, i32 0, i32 1
  store i32* %entries.1, i32** %2, align 8
  call void @llvm.dbg.declare(metadata { i32*, i32* }* %entries.dbg.spill, metadata !443, metadata !DIExpression()), !dbg !452
  call void @llvm.dbg.declare(metadata { i32*, i32* }* %iter, metadata !444, metadata !DIExpression()), !dbg !453
  call void @llvm.dbg.declare(metadata i32** %entry, metadata !446, metadata !DIExpression()), !dbg !454
; call <I as core::iter::traits::collect::IntoIterator>::into_iter
  %3 = call { i32*, i32* } @"_ZN63_$LT$I$u20$as$u20$core..iter..traits..collect..IntoIterator$GT$9into_iter17h16b08e9862c67d32E"(i32* %entries.0, i32* %entries.1), !dbg !455
  %_4.0 = extractvalue { i32*, i32* } %3, 0, !dbg !455
  %_4.1 = extractvalue { i32*, i32* } %3, 1, !dbg !455
  br label %bb1, !dbg !455

bb1:                                              ; preds = %start
  %4 = getelementptr inbounds { i32*, i32* }, { i32*, i32* }* %iter, i32 0, i32 0, !dbg !455
  store i32* %_4.0, i32** %4, align 8, !dbg !455
  %5 = getelementptr inbounds { i32*, i32* }, { i32*, i32* }* %iter, i32 0, i32 1, !dbg !455
  store i32* %_4.1, i32** %5, align 8, !dbg !455
  br label %bb2, !dbg !456

bb2:                                              ; preds = %bb8, %bb1
; invoke <core::slice::iter::Iter<T> as core::iter::traits::iterator::Iterator>::next
  %6 = invoke align 4 i32* @"_ZN91_$LT$core..slice..iter..Iter$LT$T$GT$$u20$as$u20$core..iter..traits..iterator..Iterator$GT$4next17hc4d5069051fad528E"({ i32*, i32* }* align 8 %iter)
          to label %bb3 unwind label %cleanup, !dbg !453

bb11:                                             ; preds = %bb10, %cleanup
  br label %bb12, !dbg !457

cleanup:                                          ; preds = %bb2
  %7 = landingpad { i8*, i32 }
          cleanup
  %8 = extractvalue { i8*, i32 } %7, 0
  %9 = extractvalue { i8*, i32 } %7, 1
  %10 = getelementptr inbounds { i8*, i32 }, { i8*, i32 }* %0, i32 0, i32 0
  store i8* %8, i8** %10, align 8
  %11 = getelementptr inbounds { i8*, i32 }, { i8*, i32 }* %0, i32 0, i32 1
  store i32 %9, i32* %11, align 8
  br label %bb11

bb3:                                              ; preds = %bb2
  store i32* %6, i32** %_7, align 8, !dbg !453
  %12 = bitcast i32** %_7 to {}**, !dbg !453
  %13 = load {}*, {}** %12, align 8, !dbg !453
  %14 = icmp eq {}* %13, null, !dbg !453
  %_10 = select i1 %14, i64 0, i64 1, !dbg !453
  switch i64 %_10, label %bb5 [
    i64 0, label %bb6
    i64 1, label %bb4
  ], !dbg !453

bb5:                                              ; preds = %bb3
  unreachable, !dbg !453

bb6:                                              ; preds = %bb3
  br label %bb9, !dbg !457

bb4:                                              ; preds = %bb3
  %15 = load i32*, i32** %_7, align 8, !dbg !458, !nonnull !23, !align !263, !noundef !23
  store i32* %15, i32** %entry, align 8, !dbg !458
  %_14.0 = bitcast i32** %entry to {}*, !dbg !459
; invoke core::fmt::builders::DebugList::entry
  %_12 = invoke align 8 %"core::fmt::builders::DebugList"* @_ZN4core3fmt8builders9DebugList5entry17h5007920add23274dE(%"core::fmt::builders::DebugList"* align 8 %self, {}* align 1 %_14.0, [3 x i64]* align 8 bitcast (<{ i8*, [16 x i8], i8* }>* @vtable.1 to [3 x i64]*))
          to label %bb7 unwind label %cleanup1, !dbg !460

bb10:                                             ; preds = %cleanup1
  br label %bb11, !dbg !461

cleanup1:                                         ; preds = %bb4
  %16 = landingpad { i8*, i32 }
          cleanup
  %17 = extractvalue { i8*, i32 } %16, 0
  %18 = extractvalue { i8*, i32 } %16, 1
  %19 = getelementptr inbounds { i8*, i32 }, { i8*, i32 }* %0, i32 0, i32 0
  store i8* %17, i8** %19, align 8
  %20 = getelementptr inbounds { i8*, i32 }, { i8*, i32 }* %0, i32 0, i32 1
  store i32 %18, i32* %20, align 8
  br label %bb10

bb7:                                              ; preds = %bb4
  br label %bb8, !dbg !461

bb8:                                              ; preds = %bb7
  br label %bb2, !dbg !456

bb12:                                             ; preds = %bb11
  %21 = bitcast { i8*, i32 }* %0 to i8**, !dbg !462
  %22 = load i8*, i8** %21, align 8, !dbg !462
  %23 = getelementptr inbounds { i8*, i32 }, { i8*, i32 }* %0, i32 0, i32 1, !dbg !462
  %24 = load i32, i32* %23, align 8, !dbg !462
  %25 = insertvalue { i8*, i32 } undef, i8* %22, 0, !dbg !462
  %26 = insertvalue { i8*, i32 } %25, i32 %24, 1, !dbg !462
  resume { i8*, i32 } %26, !dbg !462

bb9:                                              ; preds = %bb6
  ret %"core::fmt::builders::DebugList"* %self, !dbg !463
}

; core::fmt::Arguments::new_v1
; Function Attrs: inlinehint nonlazybind uwtable
define internal void @_ZN4core3fmt9Arguments6new_v117hbd9a0c00d1b2c782E(%"core::fmt::Arguments"* sret(%"core::fmt::Arguments") %0, [0 x { [0 x i8]*, i64 }]* align 8 %pieces.0, i64 %pieces.1, [0 x { i8*, i64* }]* align 8 %args.0, i64 %args.1) unnamed_addr #2 !dbg !464 {
start:
  %args.dbg.spill = alloca { [0 x { i8*, i64* }]*, i64 }, align 8
  %pieces.dbg.spill = alloca { [0 x { [0 x i8]*, i64 }]*, i64 }, align 8
  %_24 = alloca { i64*, i64 }, align 8
  %_16 = alloca %"core::fmt::Arguments", align 8
  %_3 = alloca i8, align 1
  %1 = getelementptr inbounds { [0 x { [0 x i8]*, i64 }]*, i64 }, { [0 x { [0 x i8]*, i64 }]*, i64 }* %pieces.dbg.spill, i32 0, i32 0
  store [0 x { [0 x i8]*, i64 }]* %pieces.0, [0 x { [0 x i8]*, i64 }]** %1, align 8
  %2 = getelementptr inbounds { [0 x { [0 x i8]*, i64 }]*, i64 }, { [0 x { [0 x i8]*, i64 }]*, i64 }* %pieces.dbg.spill, i32 0, i32 1
  store i64 %pieces.1, i64* %2, align 8
  call void @llvm.dbg.declare(metadata { [0 x { [0 x i8]*, i64 }]*, i64 }* %pieces.dbg.spill, metadata !542, metadata !DIExpression()), !dbg !544
  %3 = getelementptr inbounds { [0 x { i8*, i64* }]*, i64 }, { [0 x { i8*, i64* }]*, i64 }* %args.dbg.spill, i32 0, i32 0
  store [0 x { i8*, i64* }]* %args.0, [0 x { i8*, i64* }]** %3, align 8
  %4 = getelementptr inbounds { [0 x { i8*, i64* }]*, i64 }, { [0 x { i8*, i64* }]*, i64 }* %args.dbg.spill, i32 0, i32 1
  store i64 %args.1, i64* %4, align 8
  call void @llvm.dbg.declare(metadata { [0 x { i8*, i64* }]*, i64 }* %args.dbg.spill, metadata !543, metadata !DIExpression()), !dbg !545
  %_4 = icmp ult i64 %pieces.1, %args.1, !dbg !546
  br i1 %_4, label %bb1, label %bb2, !dbg !546

bb2:                                              ; preds = %start
  %_12 = add i64 %args.1, 1, !dbg !547
  %_9 = icmp ugt i64 %pieces.1, %_12, !dbg !548
  %5 = zext i1 %_9 to i8, !dbg !546
  store i8 %5, i8* %_3, align 1, !dbg !546
  br label %bb3, !dbg !546

bb1:                                              ; preds = %start
  store i8 1, i8* %_3, align 1, !dbg !546
  br label %bb3, !dbg !546

bb3:                                              ; preds = %bb2, %bb1
  %6 = load i8, i8* %_3, align 1, !dbg !546, !range !423, !noundef !23
  %7 = trunc i8 %6 to i1, !dbg !546
  br i1 %7, label %bb4, label %bb6, !dbg !546

bb6:                                              ; preds = %bb3
  %8 = bitcast { i64*, i64 }* %_24 to {}**, !dbg !549
  store {}* null, {}** %8, align 8, !dbg !549
  %9 = bitcast %"core::fmt::Arguments"* %0 to { [0 x { [0 x i8]*, i64 }]*, i64 }*, !dbg !550
  %10 = getelementptr inbounds { [0 x { [0 x i8]*, i64 }]*, i64 }, { [0 x { [0 x i8]*, i64 }]*, i64 }* %9, i32 0, i32 0, !dbg !550
  store [0 x { [0 x i8]*, i64 }]* %pieces.0, [0 x { [0 x i8]*, i64 }]** %10, align 8, !dbg !550
  %11 = getelementptr inbounds { [0 x { [0 x i8]*, i64 }]*, i64 }, { [0 x { [0 x i8]*, i64 }]*, i64 }* %9, i32 0, i32 1, !dbg !550
  store i64 %pieces.1, i64* %11, align 8, !dbg !550
  %12 = getelementptr inbounds %"core::fmt::Arguments", %"core::fmt::Arguments"* %0, i32 0, i32 1, !dbg !550
  %13 = getelementptr inbounds { i64*, i64 }, { i64*, i64 }* %_24, i32 0, i32 0, !dbg !550
  %14 = load i64*, i64** %13, align 8, !dbg !550, !align !162
  %15 = getelementptr inbounds { i64*, i64 }, { i64*, i64 }* %_24, i32 0, i32 1, !dbg !550
  %16 = load i64, i64* %15, align 8, !dbg !550
  %17 = getelementptr inbounds { i64*, i64 }, { i64*, i64 }* %12, i32 0, i32 0, !dbg !550
  store i64* %14, i64** %17, align 8, !dbg !550
  %18 = getelementptr inbounds { i64*, i64 }, { i64*, i64 }* %12, i32 0, i32 1, !dbg !550
  store i64 %16, i64* %18, align 8, !dbg !550
  %19 = getelementptr inbounds %"core::fmt::Arguments", %"core::fmt::Arguments"* %0, i32 0, i32 2, !dbg !550
  %20 = getelementptr inbounds { [0 x { i8*, i64* }]*, i64 }, { [0 x { i8*, i64* }]*, i64 }* %19, i32 0, i32 0, !dbg !550
  store [0 x { i8*, i64* }]* %args.0, [0 x { i8*, i64* }]** %20, align 8, !dbg !550
  %21 = getelementptr inbounds { [0 x { i8*, i64* }]*, i64 }, { [0 x { i8*, i64* }]*, i64 }* %19, i32 0, i32 1, !dbg !550
  store i64 %args.1, i64* %21, align 8, !dbg !550
  ret void, !dbg !551

bb4:                                              ; preds = %bb3
; call core::fmt::Arguments::new_v1
  call void @_ZN4core3fmt9Arguments6new_v117hbd9a0c00d1b2c782E(%"core::fmt::Arguments"* sret(%"core::fmt::Arguments") %_16, [0 x { [0 x i8]*, i64 }]* align 8 bitcast (<{ i8*, [8 x i8] }>* @alloc222 to [0 x { [0 x i8]*, i64 }]*), i64 1, [0 x { i8*, i64* }]* align 8 bitcast (<{}>* @alloc266 to [0 x { i8*, i64* }]*), i64 0), !dbg !552
  br label %bb5, !dbg !552

bb5:                                              ; preds = %bb4
; call core::panicking::panic_fmt
  call void @_ZN4core9panicking9panic_fmt17h62ccf03c8a8a51b5E(%"core::fmt::Arguments"* %_16, %"core::panic::location::Location"* align 8 bitcast (<{ i8*, [16 x i8] }>* @alloc312 to %"core::panic::location::Location"*)) #15, !dbg !552
  unreachable, !dbg !552
}

; core::ops::function::FnOnce::call_once{{vtable.shim}}
; Function Attrs: inlinehint nonlazybind uwtable
define internal i32 @"_ZN4core3ops8function6FnOnce40call_once$u7b$$u7b$vtable.shim$u7d$$u7d$17hd03f0463aac53634E"(i64** %_1) unnamed_addr #2 !dbg !553 {
start:
  %_1.dbg.spill = alloca i64**, align 8
  %_2 = alloca {}, align 1
  store i64** %_1, i64*** %_1.dbg.spill, align 8
  call void @llvm.dbg.declare(metadata i64*** %_1.dbg.spill, metadata !562, metadata !DIExpression()), !dbg !567
  call void @llvm.dbg.declare(metadata {}* %_2, metadata !563, metadata !DIExpression()), !dbg !567
  %0 = load i64*, i64** %_1, align 8, !dbg !567, !nonnull !23, !noundef !23
; call core::ops::function::FnOnce::call_once
  %1 = call i32 @_ZN4core3ops8function6FnOnce9call_once17hb2c4079728abfdfeE(i64* %0), !dbg !567
  br label %bb1, !dbg !567

bb1:                                              ; preds = %start
  ret i32 %1, !dbg !567
}

; core::ops::function::FnOnce::call_once
; Function Attrs: inlinehint nonlazybind uwtable
define internal void @_ZN4core3ops8function6FnOnce9call_once17h104b15f451b1ba71E() unnamed_addr #2 personality i32 (i32, i32, i64, %"unwind::libunwind::_Unwind_Exception"*, %"unwind::libunwind::_Unwind_Context"*)* @rust_eh_personality !dbg !568 {
start:
  %0 = alloca { i8*, i32 }, align 8
  %_2 = alloca {}, align 1
  %_1 = alloca %"[closure@src/test_pointers.rs:58:1: 76:2]", align 1
  call void @llvm.dbg.declare(metadata %"[closure@src/test_pointers.rs:58:1: 76:2]"* %_1, metadata !576, metadata !DIExpression()), !dbg !580
  call void @llvm.dbg.declare(metadata {}* %_2, metadata !577, metadata !DIExpression()), !dbg !580
; invoke pointer_tests::test_pointers::test_fn_ptrs::{{closure}}
  invoke void @"_ZN13pointer_tests13test_pointers12test_fn_ptrs28_$u7b$$u7b$closure$u7d$$u7d$17h86a199eb64a19e4dE"(%"[closure@src/test_pointers.rs:58:1: 76:2]"* align 1 %_1)
          to label %bb1 unwind label %cleanup, !dbg !580

bb3:                                              ; preds = %cleanup
  br label %bb4, !dbg !580

cleanup:                                          ; preds = %start
  %1 = landingpad { i8*, i32 }
          cleanup
  %2 = extractvalue { i8*, i32 } %1, 0
  %3 = extractvalue { i8*, i32 } %1, 1
  %4 = getelementptr inbounds { i8*, i32 }, { i8*, i32 }* %0, i32 0, i32 0
  store i8* %2, i8** %4, align 8
  %5 = getelementptr inbounds { i8*, i32 }, { i8*, i32 }* %0, i32 0, i32 1
  store i32 %3, i32* %5, align 8
  br label %bb3

bb1:                                              ; preds = %start
  br label %bb2, !dbg !580

bb4:                                              ; preds = %bb3
  %6 = bitcast { i8*, i32 }* %0 to i8**, !dbg !580
  %7 = load i8*, i8** %6, align 8, !dbg !580
  %8 = getelementptr inbounds { i8*, i32 }, { i8*, i32 }* %0, i32 0, i32 1, !dbg !580
  %9 = load i32, i32* %8, align 8, !dbg !580
  %10 = insertvalue { i8*, i32 } undef, i8* %7, 0, !dbg !580
  %11 = insertvalue { i8*, i32 } %10, i32 %9, 1, !dbg !580
  resume { i8*, i32 } %11, !dbg !580

bb2:                                              ; preds = %bb1
  ret void, !dbg !580
}

; core::ops::function::FnOnce::call_once
; Function Attrs: inlinehint nonlazybind uwtable
define internal void @_ZN4core3ops8function6FnOnce9call_once17h48497be019f634f5E() unnamed_addr #2 personality i32 (i32, i32, i64, %"unwind::libunwind::_Unwind_Exception"*, %"unwind::libunwind::_Unwind_Context"*)* @rust_eh_personality !dbg !581 {
start:
  %0 = alloca { i8*, i32 }, align 8
  %_2 = alloca {}, align 1
  %_1 = alloca %"[closure@src/test_pointers.rs:25:1: 37:2]", align 1
  call void @llvm.dbg.declare(metadata %"[closure@src/test_pointers.rs:25:1: 37:2]"* %_1, metadata !587, metadata !DIExpression()), !dbg !591
  call void @llvm.dbg.declare(metadata {}* %_2, metadata !588, metadata !DIExpression()), !dbg !591
; invoke pointer_tests::test_pointers::test_init::{{closure}}
  invoke void @"_ZN13pointer_tests13test_pointers9test_init28_$u7b$$u7b$closure$u7d$$u7d$17h52f9129c04c386e3E"(%"[closure@src/test_pointers.rs:25:1: 37:2]"* align 1 %_1)
          to label %bb1 unwind label %cleanup, !dbg !591

bb3:                                              ; preds = %cleanup
  br label %bb4, !dbg !591

cleanup:                                          ; preds = %start
  %1 = landingpad { i8*, i32 }
          cleanup
  %2 = extractvalue { i8*, i32 } %1, 0
  %3 = extractvalue { i8*, i32 } %1, 1
  %4 = getelementptr inbounds { i8*, i32 }, { i8*, i32 }* %0, i32 0, i32 0
  store i8* %2, i8** %4, align 8
  %5 = getelementptr inbounds { i8*, i32 }, { i8*, i32 }* %0, i32 0, i32 1
  store i32 %3, i32* %5, align 8
  br label %bb3

bb1:                                              ; preds = %start
  br label %bb2, !dbg !591

bb4:                                              ; preds = %bb3
  %6 = bitcast { i8*, i32 }* %0 to i8**, !dbg !591
  %7 = load i8*, i8** %6, align 8, !dbg !591
  %8 = getelementptr inbounds { i8*, i32 }, { i8*, i32 }* %0, i32 0, i32 1, !dbg !591
  %9 = load i32, i32* %8, align 8, !dbg !591
  %10 = insertvalue { i8*, i32 } undef, i8* %7, 0, !dbg !591
  %11 = insertvalue { i8*, i32 } %10, i32 %9, 1, !dbg !591
  resume { i8*, i32 } %11, !dbg !591

bb2:                                              ; preds = %bb1
  ret void, !dbg !591
}

; core::ops::function::FnOnce::call_once
; Function Attrs: inlinehint nonlazybind uwtable
define internal i32 @_ZN4core3ops8function6FnOnce9call_once17hb2c4079728abfdfeE(i64* %0) unnamed_addr #2 personality i32 (i32, i32, i64, %"unwind::libunwind::_Unwind_Exception"*, %"unwind::libunwind::_Unwind_Context"*)* @rust_eh_personality !dbg !592 {
start:
  %1 = alloca { i8*, i32 }, align 8
  %_2 = alloca {}, align 1
  %_1 = alloca i64*, align 8
  store i64* %0, i64** %_1, align 8
  call void @llvm.dbg.declare(metadata i64** %_1, metadata !596, metadata !DIExpression()), !dbg !598
  call void @llvm.dbg.declare(metadata {}* %_2, metadata !597, metadata !DIExpression()), !dbg !598
; invoke std::rt::lang_start::{{closure}}
  %2 = invoke i32 @"_ZN3std2rt10lang_start28_$u7b$$u7b$closure$u7d$$u7d$17h4825b7b8c1a6d261E"(i64** align 8 %_1)
          to label %bb1 unwind label %cleanup, !dbg !598

bb3:                                              ; preds = %cleanup
  br label %bb4, !dbg !598

cleanup:                                          ; preds = %start
  %3 = landingpad { i8*, i32 }
          cleanup
  %4 = extractvalue { i8*, i32 } %3, 0
  %5 = extractvalue { i8*, i32 } %3, 1
  %6 = getelementptr inbounds { i8*, i32 }, { i8*, i32 }* %1, i32 0, i32 0
  store i8* %4, i8** %6, align 8
  %7 = getelementptr inbounds { i8*, i32 }, { i8*, i32 }* %1, i32 0, i32 1
  store i32 %5, i32* %7, align 8
  br label %bb3

bb1:                                              ; preds = %start
  br label %bb2, !dbg !598

bb4:                                              ; preds = %bb3
  %8 = bitcast { i8*, i32 }* %1 to i8**, !dbg !598
  %9 = load i8*, i8** %8, align 8, !dbg !598
  %10 = getelementptr inbounds { i8*, i32 }, { i8*, i32 }* %1, i32 0, i32 1, !dbg !598
  %11 = load i32, i32* %10, align 8, !dbg !598
  %12 = insertvalue { i8*, i32 } undef, i8* %9, 0, !dbg !598
  %13 = insertvalue { i8*, i32 } %12, i32 %11, 1, !dbg !598
  resume { i8*, i32 } %13, !dbg !598

bb2:                                              ; preds = %bb1
  ret i32 %2, !dbg !598
}

; core::ops::function::FnOnce::call_once
; Function Attrs: inlinehint nonlazybind uwtable
define internal void @_ZN4core3ops8function6FnOnce9call_once17hf11d9ae6345df402E(void ()* %_1) unnamed_addr #2 !dbg !599 {
start:
  %_1.dbg.spill = alloca void ()*, align 8
  %_2 = alloca {}, align 1
  store void ()* %_1, void ()** %_1.dbg.spill, align 8
  call void @llvm.dbg.declare(metadata void ()** %_1.dbg.spill, metadata !601, metadata !DIExpression()), !dbg !605
  call void @llvm.dbg.declare(metadata {}* %_2, metadata !602, metadata !DIExpression()), !dbg !605
  call void %_1(), !dbg !605
  br label %bb1, !dbg !605

bb1:                                              ; preds = %start
  ret void, !dbg !605
}

; core::ops::function::FnOnce::call_once
; Function Attrs: inlinehint nonlazybind uwtable
define internal void @_ZN4core3ops8function6FnOnce9call_once17hf9825313a0411a58E() unnamed_addr #2 personality i32 (i32, i32, i64, %"unwind::libunwind::_Unwind_Exception"*, %"unwind::libunwind::_Unwind_Context"*)* @rust_eh_personality !dbg !606 {
start:
  %0 = alloca { i8*, i32 }, align 8
  %_2 = alloca {}, align 1
  %_1 = alloca %"[closure@src/test_pointers.rs:40:1: 55:2]", align 1
  call void @llvm.dbg.declare(metadata %"[closure@src/test_pointers.rs:40:1: 55:2]"* %_1, metadata !612, metadata !DIExpression()), !dbg !616
  call void @llvm.dbg.declare(metadata {}* %_2, metadata !613, metadata !DIExpression()), !dbg !616
; invoke pointer_tests::test_pointers::test_arith::{{closure}}
  invoke void @"_ZN13pointer_tests13test_pointers10test_arith28_$u7b$$u7b$closure$u7d$$u7d$17hae4dc66149e9bd51E"(%"[closure@src/test_pointers.rs:40:1: 55:2]"* align 1 %_1)
          to label %bb1 unwind label %cleanup, !dbg !616

bb3:                                              ; preds = %cleanup
  br label %bb4, !dbg !616

cleanup:                                          ; preds = %start
  %1 = landingpad { i8*, i32 }
          cleanup
  %2 = extractvalue { i8*, i32 } %1, 0
  %3 = extractvalue { i8*, i32 } %1, 1
  %4 = getelementptr inbounds { i8*, i32 }, { i8*, i32 }* %0, i32 0, i32 0
  store i8* %2, i8** %4, align 8
  %5 = getelementptr inbounds { i8*, i32 }, { i8*, i32 }* %0, i32 0, i32 1
  store i32 %3, i32* %5, align 8
  br label %bb3

bb1:                                              ; preds = %start
  br label %bb2, !dbg !616

bb4:                                              ; preds = %bb3
  %6 = bitcast { i8*, i32 }* %0 to i8**, !dbg !616
  %7 = load i8*, i8** %6, align 8, !dbg !616
  %8 = getelementptr inbounds { i8*, i32 }, { i8*, i32 }* %0, i32 0, i32 1, !dbg !616
  %9 = load i32, i32* %8, align 8, !dbg !616
  %10 = insertvalue { i8*, i32 } undef, i8* %7, 0, !dbg !616
  %11 = insertvalue { i8*, i32 } %10, i32 %9, 1, !dbg !616
  resume { i8*, i32 } %11, !dbg !616

bb2:                                              ; preds = %bb1
  ret void, !dbg !616
}

; core::ptr::<impl core::cmp::PartialEq for unsafe extern "C" fn(T) .> Ret>::eq
; Function Attrs: inlinehint nonlazybind uwtable
define internal zeroext i1 @"_ZN4core3ptr118_$LT$impl$u20$core..cmp..PartialEq$u20$for$u20$unsafe$u20$extern$u20$$u22$C$u22$$u20$fn$LP$T$RP$$u20$.$GT$$u20$Ret$GT$2eq17hb3bc34956817cd06E"(i32 (i8)** align 8 %self, i32 (i8)** align 8 %other) unnamed_addr #2 !dbg !617 {
start:
  %other.dbg.spill = alloca i32 (i8)**, align 8
  %self.dbg.spill = alloca i32 (i8)**, align 8
  store i32 (i8)** %self, i32 (i8)*** %self.dbg.spill, align 8
  call void @llvm.dbg.declare(metadata i32 (i8)*** %self.dbg.spill, metadata !624, metadata !DIExpression()), !dbg !629
  store i32 (i8)** %other, i32 (i8)*** %other.dbg.spill, align 8
  call void @llvm.dbg.declare(metadata i32 (i8)*** %other.dbg.spill, metadata !625, metadata !DIExpression()), !dbg !630
  %_4 = load i32 (i8)*, i32 (i8)** %self, align 8, !dbg !631, !nonnull !23, !noundef !23
  %_3 = ptrtoint i32 (i8)* %_4 to i64, !dbg !631
  %_6 = load i32 (i8)*, i32 (i8)** %other, align 8, !dbg !632, !nonnull !23, !noundef !23
  %_5 = ptrtoint i32 (i8)* %_6 to i64, !dbg !632
  %0 = icmp eq i64 %_3, %_5, !dbg !631
  ret i1 %0, !dbg !633
}

; core::ptr::drop_in_place<&i32>
; Function Attrs: inlinehint nonlazybind uwtable
define internal void @"_ZN4core3ptr28drop_in_place$LT$$RF$i32$GT$17h1a045668aadb46adE"(i32** %_1) unnamed_addr #2 !dbg !634 {
start:
  %_1.dbg.spill = alloca i32**, align 8
  store i32** %_1, i32*** %_1.dbg.spill, align 8
  call void @llvm.dbg.declare(metadata i32*** %_1.dbg.spill, metadata !639, metadata !DIExpression()), !dbg !640
  ret void, !dbg !640
}

; core::ptr::drop_in_place<&&[i32]>
; Function Attrs: inlinehint nonlazybind uwtable
define internal void @"_ZN4core3ptr42drop_in_place$LT$$RF$$RF$$u5b$i32$u5d$$GT$17h1ec70f77f85f04e0E"({ [0 x i32]*, i64 }** %_1) unnamed_addr #2 !dbg !641 {
start:
  %_1.dbg.spill = alloca { [0 x i32]*, i64 }**, align 8
  store { [0 x i32]*, i64 }** %_1, { [0 x i32]*, i64 }*** %_1.dbg.spill, align 8
  call void @llvm.dbg.declare(metadata { [0 x i32]*, i64 }*** %_1.dbg.spill, metadata !646, metadata !DIExpression()), !dbg !649
  ret void, !dbg !649
}

; core::ptr::drop_in_place<core::ffi::VaListImpl>
; Function Attrs: nonlazybind uwtable
define internal void @"_ZN4core3ptr42drop_in_place$LT$core..ffi..VaListImpl$GT$17h96c49c1d0bc83d4dE"(%"core::ffi::VaListImpl"* %_1) unnamed_addr #1 !dbg !650 {
start:
  %_1.dbg.spill = alloca %"core::ffi::VaListImpl"*, align 8
  store %"core::ffi::VaListImpl"* %_1, %"core::ffi::VaListImpl"** %_1.dbg.spill, align 8
  call void @llvm.dbg.declare(metadata %"core::ffi::VaListImpl"** %_1.dbg.spill, metadata !655, metadata !DIExpression()), !dbg !658
; call <core::ffi::VaListImpl as core::ops::drop::Drop>::drop
  call void @"_ZN63_$LT$core..ffi..VaListImpl$u20$as$u20$core..ops..drop..Drop$GT$4drop17hb93fc25a64ad027fE"(%"core::ffi::VaListImpl"* align 8 %_1), !dbg !658
  br label %bb1, !dbg !658

bb1:                                              ; preds = %start
  ret void, !dbg !658
}

; core::ptr::drop_in_place<&[i32; 5]>
; Function Attrs: inlinehint nonlazybind uwtable
define internal void @"_ZN4core3ptr49drop_in_place$LT$$RF$$u5b$i32$u3b$$u20$5$u5d$$GT$17h620cb157784bf1f9E"([5 x i32]** %_1) unnamed_addr #2 !dbg !659 {
start:
  %_1.dbg.spill = alloca [5 x i32]**, align 8
  store [5 x i32]** %_1, [5 x i32]*** %_1.dbg.spill, align 8
  call void @llvm.dbg.declare(metadata [5 x i32]*** %_1.dbg.spill, metadata !664, metadata !DIExpression()), !dbg !667
  ret void, !dbg !667
}

; core::ptr::drop_in_place<&[i32; 31]>
; Function Attrs: inlinehint nonlazybind uwtable
define internal void @"_ZN4core3ptr50drop_in_place$LT$$RF$$u5b$i32$u3b$$u20$31$u5d$$GT$17h51d4209fe257985eE"([31 x i32]** %_1) unnamed_addr #2 !dbg !668 {
start:
  %_1.dbg.spill = alloca [31 x i32]**, align 8
  store [31 x i32]** %_1, [31 x i32]*** %_1.dbg.spill, align 8
  call void @llvm.dbg.declare(metadata [31 x i32]*** %_1.dbg.spill, metadata !673, metadata !DIExpression()), !dbg !676
  ret void, !dbg !676
}

; core::ptr::drop_in_place<std::rt::lang_start<()>::{{closure}}>
; Function Attrs: inlinehint nonlazybind uwtable
define internal void @"_ZN4core3ptr85drop_in_place$LT$std..rt..lang_start$LT$$LP$$RP$$GT$..$u7b$$u7b$closure$u7d$$u7d$$GT$17h80e796e8bbd6c599E"(i64** %_1) unnamed_addr #2 !dbg !677 {
start:
  %_1.dbg.spill = alloca i64**, align 8
  store i64** %_1, i64*** %_1.dbg.spill, align 8
  call void @llvm.dbg.declare(metadata i64*** %_1.dbg.spill, metadata !681, metadata !DIExpression()), !dbg !684
  ret void, !dbg !684
}

; core::ptr::const_ptr::<impl *const T>::offset_from
; Function Attrs: inlinehint nonlazybind uwtable
define internal i64 @"_ZN4core3ptr9const_ptr33_$LT$impl$u20$$BP$const$u20$T$GT$11offset_from17h97d93ef5cc4158e2E"(i32* %self, i32* %origin) unnamed_addr #2 !dbg !685 {
start:
  %0 = alloca i64, align 8
  %pointee_size.dbg.spill = alloca i64, align 8
  %origin.dbg.spill = alloca i32*, align 8
  %self.dbg.spill = alloca i32*, align 8
  %_5 = alloca i8, align 1
  store i32* %self, i32** %self.dbg.spill, align 8
  call void @llvm.dbg.declare(metadata i32** %self.dbg.spill, metadata !692, metadata !DIExpression()), !dbg !696
  store i32* %origin, i32** %origin.dbg.spill, align 8
  call void @llvm.dbg.declare(metadata i32** %origin.dbg.spill, metadata !693, metadata !DIExpression()), !dbg !697
  store i64 4, i64* %pointee_size.dbg.spill, align 8, !dbg !698
  call void @llvm.dbg.declare(metadata i64* %pointee_size.dbg.spill, metadata !694, metadata !DIExpression()), !dbg !706
  br i1 true, label %bb2, label %bb1, !dbg !707

bb1:                                              ; preds = %start
  store i8 0, i8* %_5, align 1, !dbg !707
  br label %bb3, !dbg !707

bb2:                                              ; preds = %start
  store i8 1, i8* %_5, align 1, !dbg !707
  br label %bb3, !dbg !707

bb3:                                              ; preds = %bb1, %bb2
  %1 = load i8, i8* %_5, align 1, !dbg !708, !range !423, !noundef !23
  %2 = trunc i8 %1 to i1, !dbg !708
  %_4 = xor i1 %2, true, !dbg !708
  br i1 %_4, label %bb4, label %bb5, !dbg !708

bb5:                                              ; preds = %bb3
  %3 = ptrtoint i32* %self to i64, !dbg !709
  %4 = ptrtoint i32* %origin to i64, !dbg !709
  %5 = sub i64 %3, %4, !dbg !709
  %6 = sdiv exact i64 %5, 4, !dbg !709
  store i64 %6, i64* %0, align 8, !dbg !709
  %7 = load i64, i64* %0, align 8, !dbg !709
  br label %bb6, !dbg !709

bb4:                                              ; preds = %bb3
; call core::panicking::panic
  call void @_ZN4core9panicking5panic17hf5844c0338bd061cE([0 x i8]* align 1 bitcast (<{ [73 x i8] }>* @alloc313 to [0 x i8]*), i64 73, %"core::panic::location::Location"* align 8 bitcast (<{ i8*, [16 x i8] }>* @alloc315 to %"core::panic::location::Location"*)) #15, !dbg !708
  unreachable, !dbg !708

bb6:                                              ; preds = %bb5
  ret i64 %7, !dbg !710
}

; core::array::<impl core::fmt::Debug for [T; N]>::fmt
; Function Attrs: nonlazybind uwtable
define internal zeroext i1 @"_ZN4core5array69_$LT$impl$u20$core..fmt..Debug$u20$for$u20$$u5b$T$u3b$$u20$N$u5d$$GT$3fmt17h345b1367977e00a3E"([31 x i32]* align 4 %self, %"core::fmt::Formatter"* align 8 %f) unnamed_addr #1 !dbg !711 {
start:
  %slice.dbg.spill = alloca { [0 x i32]*, i64 }, align 8
  %self.dbg.spill4 = alloca { [0 x i32]*, i64 }, align 8
  %self.dbg.spill3 = alloca [31 x i32]*, align 8
  %self.dbg.spill2 = alloca %"core::ops::range::RangeFull", align 1
  %index.dbg.spill1 = alloca %"core::ops::range::RangeFull", align 1
  %index.dbg.spill = alloca %"core::ops::range::RangeFull", align 1
  %f.dbg.spill = alloca %"core::fmt::Formatter"*, align 8
  %self.dbg.spill = alloca [31 x i32]*, align 8
  %_5 = alloca { [0 x i32]*, i64 }, align 8
  store [31 x i32]* %self, [31 x i32]** %self.dbg.spill, align 8
  call void @llvm.dbg.declare(metadata [31 x i32]** %self.dbg.spill, metadata !718, metadata !DIExpression()), !dbg !720
  store %"core::fmt::Formatter"* %f, %"core::fmt::Formatter"** %f.dbg.spill, align 8
  call void @llvm.dbg.declare(metadata %"core::fmt::Formatter"** %f.dbg.spill, metadata !719, metadata !DIExpression()), !dbg !721
  call void @llvm.dbg.declare(metadata %"core::ops::range::RangeFull"* %index.dbg.spill, metadata !722, metadata !DIExpression()), !dbg !741
  call void @llvm.dbg.declare(metadata %"core::ops::range::RangeFull"* %index.dbg.spill1, metadata !743, metadata !DIExpression()), !dbg !753
  call void @llvm.dbg.declare(metadata %"core::ops::range::RangeFull"* %self.dbg.spill2, metadata !755, metadata !DIExpression()), !dbg !763
  store [31 x i32]* %self, [31 x i32]** %self.dbg.spill3, align 8, !dbg !742
  call void @llvm.dbg.declare(metadata [31 x i32]** %self.dbg.spill3, metadata !738, metadata !DIExpression()), !dbg !741
  %_11.0 = bitcast [31 x i32]* %self to [0 x i32]*, !dbg !741
  %0 = getelementptr inbounds { [0 x i32]*, i64 }, { [0 x i32]*, i64 }* %self.dbg.spill4, i32 0, i32 0, !dbg !741
  store [0 x i32]* %_11.0, [0 x i32]** %0, align 8, !dbg !741
  %1 = getelementptr inbounds { [0 x i32]*, i64 }, { [0 x i32]*, i64 }* %self.dbg.spill4, i32 0, i32 1, !dbg !741
  store i64 31, i64* %1, align 8, !dbg !741
  call void @llvm.dbg.declare(metadata { [0 x i32]*, i64 }* %self.dbg.spill4, metadata !752, metadata !DIExpression()), !dbg !753
  %2 = getelementptr inbounds { [0 x i32]*, i64 }, { [0 x i32]*, i64 }* %slice.dbg.spill, i32 0, i32 0, !dbg !753
  store [0 x i32]* %_11.0, [0 x i32]** %2, align 8, !dbg !753
  %3 = getelementptr inbounds { [0 x i32]*, i64 }, { [0 x i32]*, i64 }* %slice.dbg.spill, i32 0, i32 1, !dbg !753
  store i64 31, i64* %3, align 8, !dbg !753
  call void @llvm.dbg.declare(metadata { [0 x i32]*, i64 }* %slice.dbg.spill, metadata !762, metadata !DIExpression()), !dbg !763
  %4 = getelementptr inbounds { [0 x i32]*, i64 }, { [0 x i32]*, i64 }* %_5, i32 0, i32 0, !dbg !765
  store [0 x i32]* %_11.0, [0 x i32]** %4, align 8, !dbg !765
  %5 = getelementptr inbounds { [0 x i32]*, i64 }, { [0 x i32]*, i64 }* %_5, i32 0, i32 1, !dbg !765
  store i64 31, i64* %5, align 8, !dbg !765
; call <&T as core::fmt::Debug>::fmt
  %6 = call zeroext i1 @"_ZN42_$LT$$RF$T$u20$as$u20$core..fmt..Debug$GT$3fmt17hf5704ec34c7f559bE"({ [0 x i32]*, i64 }* align 8 %_5, %"core::fmt::Formatter"* align 8 %f), !dbg !766
  br label %bb1, !dbg !766

bb1:                                              ; preds = %start
  ret i1 %6, !dbg !767
}

; core::array::<impl core::fmt::Debug for [T; N]>::fmt
; Function Attrs: nonlazybind uwtable
define internal zeroext i1 @"_ZN4core5array69_$LT$impl$u20$core..fmt..Debug$u20$for$u20$$u5b$T$u3b$$u20$N$u5d$$GT$3fmt17ha134e43eb46d0b6bE"([5 x i32]* align 4 %self, %"core::fmt::Formatter"* align 8 %f) unnamed_addr #1 !dbg !768 {
start:
  %slice.dbg.spill = alloca { [0 x i32]*, i64 }, align 8
  %self.dbg.spill4 = alloca { [0 x i32]*, i64 }, align 8
  %self.dbg.spill3 = alloca [5 x i32]*, align 8
  %self.dbg.spill2 = alloca %"core::ops::range::RangeFull", align 1
  %index.dbg.spill1 = alloca %"core::ops::range::RangeFull", align 1
  %index.dbg.spill = alloca %"core::ops::range::RangeFull", align 1
  %f.dbg.spill = alloca %"core::fmt::Formatter"*, align 8
  %self.dbg.spill = alloca [5 x i32]*, align 8
  %_5 = alloca { [0 x i32]*, i64 }, align 8
  store [5 x i32]* %self, [5 x i32]** %self.dbg.spill, align 8
  call void @llvm.dbg.declare(metadata [5 x i32]** %self.dbg.spill, metadata !772, metadata !DIExpression()), !dbg !774
  store %"core::fmt::Formatter"* %f, %"core::fmt::Formatter"** %f.dbg.spill, align 8
  call void @llvm.dbg.declare(metadata %"core::fmt::Formatter"** %f.dbg.spill, metadata !773, metadata !DIExpression()), !dbg !775
  call void @llvm.dbg.declare(metadata %"core::ops::range::RangeFull"* %index.dbg.spill, metadata !776, metadata !DIExpression()), !dbg !782
  call void @llvm.dbg.declare(metadata %"core::ops::range::RangeFull"* %index.dbg.spill1, metadata !784, metadata !DIExpression()), !dbg !789
  call void @llvm.dbg.declare(metadata %"core::ops::range::RangeFull"* %self.dbg.spill2, metadata !791, metadata !DIExpression()), !dbg !796
  store [5 x i32]* %self, [5 x i32]** %self.dbg.spill3, align 8, !dbg !783
  call void @llvm.dbg.declare(metadata [5 x i32]** %self.dbg.spill3, metadata !781, metadata !DIExpression()), !dbg !782
  %_11.0 = bitcast [5 x i32]* %self to [0 x i32]*, !dbg !782
  %0 = getelementptr inbounds { [0 x i32]*, i64 }, { [0 x i32]*, i64 }* %self.dbg.spill4, i32 0, i32 0, !dbg !782
  store [0 x i32]* %_11.0, [0 x i32]** %0, align 8, !dbg !782
  %1 = getelementptr inbounds { [0 x i32]*, i64 }, { [0 x i32]*, i64 }* %self.dbg.spill4, i32 0, i32 1, !dbg !782
  store i64 5, i64* %1, align 8, !dbg !782
  call void @llvm.dbg.declare(metadata { [0 x i32]*, i64 }* %self.dbg.spill4, metadata !788, metadata !DIExpression()), !dbg !789
  %2 = getelementptr inbounds { [0 x i32]*, i64 }, { [0 x i32]*, i64 }* %slice.dbg.spill, i32 0, i32 0, !dbg !789
  store [0 x i32]* %_11.0, [0 x i32]** %2, align 8, !dbg !789
  %3 = getelementptr inbounds { [0 x i32]*, i64 }, { [0 x i32]*, i64 }* %slice.dbg.spill, i32 0, i32 1, !dbg !789
  store i64 5, i64* %3, align 8, !dbg !789
  call void @llvm.dbg.declare(metadata { [0 x i32]*, i64 }* %slice.dbg.spill, metadata !795, metadata !DIExpression()), !dbg !796
  %4 = getelementptr inbounds { [0 x i32]*, i64 }, { [0 x i32]*, i64 }* %_5, i32 0, i32 0, !dbg !798
  store [0 x i32]* %_11.0, [0 x i32]** %4, align 8, !dbg !798
  %5 = getelementptr inbounds { [0 x i32]*, i64 }, { [0 x i32]*, i64 }* %_5, i32 0, i32 1, !dbg !798
  store i64 5, i64* %5, align 8, !dbg !798
; call <&T as core::fmt::Debug>::fmt
  %6 = call zeroext i1 @"_ZN42_$LT$$RF$T$u20$as$u20$core..fmt..Debug$GT$3fmt17hf5704ec34c7f559bE"({ [0 x i32]*, i64 }* align 8 %_5, %"core::fmt::Formatter"* align 8 %f), !dbg !799
  br label %bb1, !dbg !799

bb1:                                              ; preds = %start
  ret i1 %6, !dbg !800
}

; core::array::<impl core::ops::index::Index<I> for [T; N]>::index
; Function Attrs: inlinehint nonlazybind uwtable
define internal { [0 x i32]*, i64 } @"_ZN4core5array85_$LT$impl$u20$core..ops..index..Index$LT$I$GT$$u20$for$u20$$u5b$T$u3b$$u20$N$u5d$$GT$5index17h8c1e83dcdd9cf9edE"([18 x i32]* align 4 %self, %"core::panic::location::Location"* align 8 %0) unnamed_addr #2 !dbg !801 {
start:
  %index.dbg.spill = alloca %"core::ops::range::RangeFull", align 1
  %self.dbg.spill = alloca [18 x i32]*, align 8
  store [18 x i32]* %self, [18 x i32]** %self.dbg.spill, align 8
  call void @llvm.dbg.declare(metadata [18 x i32]** %self.dbg.spill, metadata !809, metadata !DIExpression()), !dbg !811
  call void @llvm.dbg.declare(metadata %"core::ops::range::RangeFull"* %index.dbg.spill, metadata !810, metadata !DIExpression()), !dbg !812
  %_4.0 = bitcast [18 x i32]* %self to [0 x i32]*, !dbg !813
; call core::slice::index::<impl core::ops::index::Index<I> for [T]>::index
  %1 = call { [0 x i32]*, i64 } @"_ZN4core5slice5index74_$LT$impl$u20$core..ops..index..Index$LT$I$GT$$u20$for$u20$$u5b$T$u5d$$GT$5index17hbd4a9ac6cab12fd8E"([0 x i32]* align 4 %_4.0, i64 18, %"core::panic::location::Location"* align 8 %0), !dbg !814
  %2 = extractvalue { [0 x i32]*, i64 } %1, 0, !dbg !814
  %3 = extractvalue { [0 x i32]*, i64 } %1, 1, !dbg !814
  br label %bb1, !dbg !814

bb1:                                              ; preds = %start
  %4 = insertvalue { [0 x i32]*, i64 } undef, [0 x i32]* %2, 0, !dbg !815
  %5 = insertvalue { [0 x i32]*, i64 } %4, i64 %3, 1, !dbg !815
  ret { [0 x i32]*, i64 } %5, !dbg !815
}

; core::array::equality::<impl core::cmp::PartialEq<[B; N]> for [A; N]>::eq
; Function Attrs: inlinehint nonlazybind uwtable
define internal zeroext i1 @"_ZN4core5array8equality103_$LT$impl$u20$core..cmp..PartialEq$LT$$u5b$B$u3b$$u20$N$u5d$$GT$$u20$for$u20$$u5b$A$u3b$$u20$N$u5d$$GT$2eq17he9b9cd0af407f69eE"([31 x i32]* align 4 %self, [31 x i32]* align 4 %other) unnamed_addr #2 !dbg !816 {
start:
  %other.dbg.spill = alloca [31 x i32]*, align 8
  %self.dbg.spill = alloca [31 x i32]*, align 8
  store [31 x i32]* %self, [31 x i32]** %self.dbg.spill, align 8
  call void @llvm.dbg.declare(metadata [31 x i32]** %self.dbg.spill, metadata !823, metadata !DIExpression()), !dbg !825
  store [31 x i32]* %other, [31 x i32]** %other.dbg.spill, align 8
  call void @llvm.dbg.declare(metadata [31 x i32]** %other.dbg.spill, metadata !824, metadata !DIExpression()), !dbg !826
; call <T as core::array::equality::SpecArrayEq<U,_>>::spec_eq
  %0 = call zeroext i1 @"_ZN69_$LT$T$u20$as$u20$core..array..equality..SpecArrayEq$LT$U$C$_$GT$$GT$7spec_eq17hf457e760893bfc1cE"([31 x i32]* align 4 %self, [31 x i32]* align 4 %other), !dbg !827
  br label %bb1, !dbg !827

bb1:                                              ; preds = %start
  ret i1 %0, !dbg !828
}

; core::array::equality::<impl core::cmp::PartialEq<[B; N]> for [A; N]>::eq
; Function Attrs: inlinehint nonlazybind uwtable
define internal zeroext i1 @"_ZN4core5array8equality103_$LT$impl$u20$core..cmp..PartialEq$LT$$u5b$B$u3b$$u20$N$u5d$$GT$$u20$for$u20$$u5b$A$u3b$$u20$N$u5d$$GT$2eq17hfbac44b8d19bfb2eE"([5 x i32]* align 4 %self, [5 x i32]* align 4 %other) unnamed_addr #2 !dbg !829 {
start:
  %other.dbg.spill = alloca [5 x i32]*, align 8
  %self.dbg.spill = alloca [5 x i32]*, align 8
  store [5 x i32]* %self, [5 x i32]** %self.dbg.spill, align 8
  call void @llvm.dbg.declare(metadata [5 x i32]** %self.dbg.spill, metadata !833, metadata !DIExpression()), !dbg !835
  store [5 x i32]* %other, [5 x i32]** %other.dbg.spill, align 8
  call void @llvm.dbg.declare(metadata [5 x i32]** %other.dbg.spill, metadata !834, metadata !DIExpression()), !dbg !836
; call <T as core::array::equality::SpecArrayEq<U,_>>::spec_eq
  %0 = call zeroext i1 @"_ZN69_$LT$T$u20$as$u20$core..array..equality..SpecArrayEq$LT$U$C$_$GT$$GT$7spec_eq17hdbbdd54209322b72E"([5 x i32]* align 4 %self, [5 x i32]* align 4 %other), !dbg !837
  br label %bb1, !dbg !837

bb1:                                              ; preds = %start
  ret i1 %0, !dbg !838
}

; core::slice::<impl [T]>::as_mut_ptr
; Function Attrs: inlinehint nonlazybind uwtable
define internal i32* @"_ZN4core5slice29_$LT$impl$u20$$u5b$T$u5d$$GT$10as_mut_ptr17h9eb99fc6db42f33eE"([0 x i32]* align 4 %self.0, i64 %self.1) unnamed_addr #2 !dbg !839 {
start:
  %self.dbg.spill = alloca { [0 x i32]*, i64 }, align 8
  %0 = getelementptr inbounds { [0 x i32]*, i64 }, { [0 x i32]*, i64 }* %self.dbg.spill, i32 0, i32 0
  store [0 x i32]* %self.0, [0 x i32]** %0, align 8
  %1 = getelementptr inbounds { [0 x i32]*, i64 }, { [0 x i32]*, i64 }* %self.dbg.spill, i32 0, i32 1
  store i64 %self.1, i64* %1, align 8
  call void @llvm.dbg.declare(metadata { [0 x i32]*, i64 }* %self.dbg.spill, metadata !848, metadata !DIExpression()), !dbg !849
  %2 = bitcast [0 x i32]* %self.0 to i32*, !dbg !850
  ret i32* %2, !dbg !851
}

; core::slice::cmp::<impl core::cmp::PartialEq<[B]> for [A]>::eq
; Function Attrs: nonlazybind uwtable
define internal zeroext i1 @"_ZN4core5slice3cmp81_$LT$impl$u20$core..cmp..PartialEq$LT$$u5b$B$u5d$$GT$$u20$for$u20$$u5b$A$u5d$$GT$2eq17hdc221ba69ac18796E"([0 x i32]* align 4 %self.0, i64 %self.1, [0 x i32]* align 4 %other.0, i64 %other.1) unnamed_addr #1 !dbg !852 {
start:
  %other.dbg.spill = alloca { [0 x i32]*, i64 }, align 8
  %self.dbg.spill = alloca { [0 x i32]*, i64 }, align 8
  %0 = getelementptr inbounds { [0 x i32]*, i64 }, { [0 x i32]*, i64 }* %self.dbg.spill, i32 0, i32 0
  store [0 x i32]* %self.0, [0 x i32]** %0, align 8
  %1 = getelementptr inbounds { [0 x i32]*, i64 }, { [0 x i32]*, i64 }* %self.dbg.spill, i32 0, i32 1
  store i64 %self.1, i64* %1, align 8
  call void @llvm.dbg.declare(metadata { [0 x i32]*, i64 }* %self.dbg.spill, metadata !859, metadata !DIExpression()), !dbg !861
  %2 = getelementptr inbounds { [0 x i32]*, i64 }, { [0 x i32]*, i64 }* %other.dbg.spill, i32 0, i32 0
  store [0 x i32]* %other.0, [0 x i32]** %2, align 8
  %3 = getelementptr inbounds { [0 x i32]*, i64 }, { [0 x i32]*, i64 }* %other.dbg.spill, i32 0, i32 1
  store i64 %other.1, i64* %3, align 8
  call void @llvm.dbg.declare(metadata { [0 x i32]*, i64 }* %other.dbg.spill, metadata !860, metadata !DIExpression()), !dbg !862
; call <[A] as core::slice::cmp::SlicePartialEq<B>>::equal
  %4 = call zeroext i1 @"_ZN73_$LT$$u5b$A$u5d$$u20$as$u20$core..slice..cmp..SlicePartialEq$LT$B$GT$$GT$5equal17h57b4a7af260f1a62E"([0 x i32]* align 4 %self.0, i64 %self.1, [0 x i32]* align 4 %other.0, i64 %other.1), !dbg !863
  br label %bb1, !dbg !863

bb1:                                              ; preds = %start
  ret i1 %4, !dbg !864
}

; core::slice::iter::Iter<T>::new
; Function Attrs: inlinehint nonlazybind uwtable
define internal { i32*, i32* } @"_ZN4core5slice4iter13Iter$LT$T$GT$3new17h5a8ae98aafd94c26E"([0 x i32]* align 4 %slice.0, i64 %slice.1) unnamed_addr #2 !dbg !865 {
start:
  %ptr.dbg.spill11 = alloca i32*, align 8
  %0 = alloca i8*, align 8
  %count.dbg.spill10 = alloca i64, align 8
  %self.dbg.spill9 = alloca i8*, align 8
  %count.dbg.spill8 = alloca i64, align 8
  %self.dbg.spill7 = alloca i8*, align 8
  %count.dbg.spill5 = alloca i64, align 8
  %self.dbg.spill4 = alloca i32*, align 8
  %count.dbg.spill = alloca i64, align 8
  %self.dbg.spill3 = alloca i32*, align 8
  %1 = alloca i8, align 1
  %other.dbg.spill = alloca i8*, align 8
  %data_address.dbg.spill = alloca {}*, align 8
  %2 = alloca {}*, align 8
  %self.dbg.spill2 = alloca i8*, align 8
  %self.dbg.spill1 = alloca i32*, align 8
  %ptr.dbg.spill = alloca i32*, align 8
  %self.dbg.spill = alloca { [0 x i32]*, i64 }, align 8
  %metadata.dbg.spill = alloca {}, align 1
  %slice.dbg.spill = alloca { [0 x i32]*, i64 }, align 8
  %_31 = alloca %"core::ptr::metadata::PtrComponents<u8>", align 8
  %_30 = alloca %"core::ptr::metadata::PtrRepr<u8>", align 8
  %_18 = alloca i32*, align 8
  %end = alloca i32*, align 8
  %3 = alloca { i32*, i32* }, align 8
  %4 = getelementptr inbounds { [0 x i32]*, i64 }, { [0 x i32]*, i64 }* %slice.dbg.spill, i32 0, i32 0
  store [0 x i32]* %slice.0, [0 x i32]** %4, align 8
  %5 = getelementptr inbounds { [0 x i32]*, i64 }, { [0 x i32]*, i64 }* %slice.dbg.spill, i32 0, i32 1
  store i64 %slice.1, i64* %5, align 8
  call void @llvm.dbg.declare(metadata { [0 x i32]*, i64 }* %slice.dbg.spill, metadata !868, metadata !DIExpression()), !dbg !873
  call void @llvm.dbg.declare(metadata i32** %end, metadata !871, metadata !DIExpression()), !dbg !874
  call void @llvm.dbg.declare(metadata {}* %metadata.dbg.spill, metadata !875, metadata !DIExpression()), !dbg !886
  %6 = getelementptr inbounds { [0 x i32]*, i64 }, { [0 x i32]*, i64 }* %self.dbg.spill, i32 0, i32 0, !dbg !899
  store [0 x i32]* %slice.0, [0 x i32]** %6, align 8, !dbg !899
  %7 = getelementptr inbounds { [0 x i32]*, i64 }, { [0 x i32]*, i64 }* %self.dbg.spill, i32 0, i32 1, !dbg !899
  store i64 %slice.1, i64* %7, align 8, !dbg !899
  call void @llvm.dbg.declare(metadata { [0 x i32]*, i64 }* %self.dbg.spill, metadata !900, metadata !DIExpression()), !dbg !906
  %ptr = bitcast [0 x i32]* %slice.0 to i32*, !dbg !906
  store i32* %ptr, i32** %ptr.dbg.spill, align 8, !dbg !906
  call void @llvm.dbg.declare(metadata i32** %ptr.dbg.spill, metadata !869, metadata !DIExpression()), !dbg !907
  store i32* %ptr, i32** %self.dbg.spill1, align 8, !dbg !898
  call void @llvm.dbg.declare(metadata i32** %self.dbg.spill1, metadata !896, metadata !DIExpression()), !dbg !908
  %self = bitcast i32* %ptr to i8*, !dbg !908
  store i8* %self, i8** %self.dbg.spill2, align 8, !dbg !908
  call void @llvm.dbg.declare(metadata i8** %self.dbg.spill2, metadata !909, metadata !DIExpression()), !dbg !916
  %8 = bitcast {}** %2 to i64*, !dbg !918
  store i64 0, i64* %8, align 8, !dbg !918
  %data_address = load {}*, {}** %2, align 8, !dbg !918
  store {}* %data_address, {}** %data_address.dbg.spill, align 8, !dbg !918
  call void @llvm.dbg.declare(metadata {}** %data_address.dbg.spill, metadata !883, metadata !DIExpression()), !dbg !886
  br label %bb5, !dbg !918

bb5:                                              ; preds = %start
  %9 = bitcast %"core::ptr::metadata::PtrComponents<u8>"* %_31 to {}**, !dbg !886
  store {}* %data_address, {}** %9, align 8, !dbg !886
  %10 = bitcast %"core::ptr::metadata::PtrRepr<u8>"* %_30 to %"core::ptr::metadata::PtrComponents<u8>"*, !dbg !886
  %11 = bitcast %"core::ptr::metadata::PtrComponents<u8>"* %10 to i8*, !dbg !886
  %12 = bitcast %"core::ptr::metadata::PtrComponents<u8>"* %_31 to i8*, !dbg !886
  call void @llvm.memcpy.p0i8.p0i8.i64(i8* align 8 %11, i8* align 8 %12, i64 8, i1 false), !dbg !886
  %13 = bitcast %"core::ptr::metadata::PtrRepr<u8>"* %_30 to i8**, !dbg !886
  %other = load i8*, i8** %13, align 8, !dbg !886
  store i8* %other, i8** %other.dbg.spill, align 8, !dbg !886
  call void @llvm.dbg.declare(metadata i8** %other.dbg.spill, metadata !915, metadata !DIExpression()), !dbg !916
  %14 = icmp eq i8* %self, %other, !dbg !916
  %15 = zext i1 %14 to i8, !dbg !916
  store i8 %15, i8* %1, align 1, !dbg !916
  %16 = load i8, i8* %1, align 1, !dbg !916, !range !423, !noundef !23
  %_6 = trunc i8 %16 to i1, !dbg !916
  br label %bb6, !dbg !916

bb6:                                              ; preds = %bb5
  %_5 = xor i1 %_6, true, !dbg !926
  call void @llvm.assume(i1 %_5), !dbg !927
  br label %bb1, !dbg !927

bb1:                                              ; preds = %bb6
  br i1 false, label %bb2, label %bb3, !dbg !928

bb2:                                              ; preds = %bb1
  %self6 = bitcast i32* %ptr to i8*, !dbg !929
  store i8* %self6, i8** %self.dbg.spill7, align 8, !dbg !929
  call void @llvm.dbg.declare(metadata i8** %self.dbg.spill7, metadata !930, metadata !DIExpression()), !dbg !937
  store i64 %slice.1, i64* %count.dbg.spill8, align 8, !dbg !938
  call void @llvm.dbg.declare(metadata i64* %count.dbg.spill8, metadata !936, metadata !DIExpression()), !dbg !937
  store i8* %self6, i8** %self.dbg.spill9, align 8, !dbg !937
  call void @llvm.dbg.declare(metadata i8** %self.dbg.spill9, metadata !939, metadata !DIExpression()), !dbg !946
  store i64 %slice.1, i64* %count.dbg.spill10, align 8, !dbg !937
  call void @llvm.dbg.declare(metadata i64* %count.dbg.spill10, metadata !945, metadata !DIExpression()), !dbg !946
  %17 = getelementptr i8, i8* %self6, i64 %slice.1, !dbg !946
  store i8* %17, i8** %0, align 8, !dbg !946
  %_10 = load i8*, i8** %0, align 8, !dbg !946
  br label %bb7, !dbg !946

bb3:                                              ; preds = %bb1
  store i32* %ptr, i32** %self.dbg.spill3, align 8, !dbg !948
  call void @llvm.dbg.declare(metadata i32** %self.dbg.spill3, metadata !949, metadata !DIExpression()), !dbg !956
  store i64 %slice.1, i64* %count.dbg.spill, align 8, !dbg !957
  call void @llvm.dbg.declare(metadata i64* %count.dbg.spill, metadata !955, metadata !DIExpression()), !dbg !956
  store i32* %ptr, i32** %self.dbg.spill4, align 8, !dbg !956
  call void @llvm.dbg.declare(metadata i32** %self.dbg.spill4, metadata !958, metadata !DIExpression()), !dbg !965
  store i64 %slice.1, i64* %count.dbg.spill5, align 8, !dbg !956
  call void @llvm.dbg.declare(metadata i64* %count.dbg.spill5, metadata !964, metadata !DIExpression()), !dbg !965
  %18 = getelementptr inbounds i32, i32* %ptr, i64 %slice.1, !dbg !965
  store i32* %18, i32** %end, align 8, !dbg !965
  br label %bb8, !dbg !965

bb8:                                              ; preds = %bb3
  br label %bb4, !dbg !967

bb4:                                              ; preds = %bb7, %bb8
  store i32* %ptr, i32** %ptr.dbg.spill11, align 8, !dbg !968
  call void @llvm.dbg.declare(metadata i32** %ptr.dbg.spill11, metadata !969, metadata !DIExpression()), !dbg !976
  store i32* %ptr, i32** %_18, align 8, !dbg !976
  %_21 = load i32*, i32** %end, align 8, !dbg !978
  %19 = bitcast { i32*, i32* }* %3 to i32**, !dbg !979
  %20 = load i32*, i32** %_18, align 8, !dbg !979, !nonnull !23, !noundef !23
  store i32* %20, i32** %19, align 8, !dbg !979
  %21 = getelementptr inbounds { i32*, i32* }, { i32*, i32* }* %3, i32 0, i32 1, !dbg !979
  store i32* %_21, i32** %21, align 8, !dbg !979
  %22 = getelementptr inbounds { i32*, i32* }, { i32*, i32* }* %3, i32 0, i32 0, !dbg !980
  %23 = load i32*, i32** %22, align 8, !dbg !980, !nonnull !23, !noundef !23
  %24 = getelementptr inbounds { i32*, i32* }, { i32*, i32* }* %3, i32 0, i32 1, !dbg !980
  %25 = load i32*, i32** %24, align 8, !dbg !980
  %26 = insertvalue { i32*, i32* } undef, i32* %23, 0, !dbg !980
  %27 = insertvalue { i32*, i32* } %26, i32* %25, 1, !dbg !980
  ret { i32*, i32* } %27, !dbg !980

bb7:                                              ; preds = %bb2
  %28 = bitcast i8* %_10 to i32*, !dbg !929
  store i32* %28, i32** %end, align 8, !dbg !929
  br label %bb4, !dbg !967
}

; core::slice::index::<impl core::ops::index::Index<I> for [T]>::index
; Function Attrs: inlinehint nonlazybind uwtable
define internal { [0 x i32]*, i64 } @"_ZN4core5slice5index74_$LT$impl$u20$core..ops..index..Index$LT$I$GT$$u20$for$u20$$u5b$T$u5d$$GT$5index17hbd4a9ac6cab12fd8E"([0 x i32]* align 4 %self.0, i64 %self.1, %"core::panic::location::Location"* align 8 %0) unnamed_addr #2 !dbg !981 {
start:
  %index.dbg.spill = alloca %"core::ops::range::RangeFull", align 1
  %self.dbg.spill = alloca { [0 x i32]*, i64 }, align 8
  %1 = getelementptr inbounds { [0 x i32]*, i64 }, { [0 x i32]*, i64 }* %self.dbg.spill, i32 0, i32 0
  store [0 x i32]* %self.0, [0 x i32]** %1, align 8
  %2 = getelementptr inbounds { [0 x i32]*, i64 }, { [0 x i32]*, i64 }* %self.dbg.spill, i32 0, i32 1
  store i64 %self.1, i64* %2, align 8
  call void @llvm.dbg.declare(metadata { [0 x i32]*, i64 }* %self.dbg.spill, metadata !983, metadata !DIExpression()), !dbg !985
  call void @llvm.dbg.declare(metadata %"core::ops::range::RangeFull"* %index.dbg.spill, metadata !984, metadata !DIExpression()), !dbg !986
; call <core::ops::range::RangeFull as core::slice::index::SliceIndex<[T]>>::index
  %3 = call { [0 x i32]*, i64 } @"_ZN97_$LT$core..ops..range..RangeFull$u20$as$u20$core..slice..index..SliceIndex$LT$$u5b$T$u5d$$GT$$GT$5index17hcbae90a2a5b48349E"([0 x i32]* align 4 %self.0, i64 %self.1, %"core::panic::location::Location"* align 8 %0), !dbg !987
  %4 = extractvalue { [0 x i32]*, i64 } %3, 0, !dbg !987
  %5 = extractvalue { [0 x i32]*, i64 } %3, 1, !dbg !987
  br label %bb1, !dbg !987

bb1:                                              ; preds = %start
  %6 = insertvalue { [0 x i32]*, i64 } undef, [0 x i32]* %4, 0, !dbg !988
  %7 = insertvalue { [0 x i32]*, i64 } %6, i64 %5, 1, !dbg !988
  ret { [0 x i32]*, i64 } %7, !dbg !988
}

; core::option::Option<T>::expect
; Function Attrs: inlinehint nonlazybind uwtable
define internal i32 (i8, i32)* @"_ZN4core6option15Option$LT$T$GT$6expect17h19997f26a84fe966E"(i64* %0, [0 x i8]* align 1 %msg.0, i64 %msg.1, %"core::panic::location::Location"* align 8 %1) unnamed_addr #2 !dbg !989 {
start:
  %val.dbg.spill = alloca i32 (i8, i32)*, align 8
  %msg.dbg.spill = alloca { [0 x i8]*, i64 }, align 8
  %self = alloca i64*, align 8
  store i64* %0, i64** %self, align 8
  call void @llvm.dbg.declare(metadata i64** %self, metadata !1010, metadata !DIExpression()), !dbg !1014
  %2 = getelementptr inbounds { [0 x i8]*, i64 }, { [0 x i8]*, i64 }* %msg.dbg.spill, i32 0, i32 0
  store [0 x i8]* %msg.0, [0 x i8]** %2, align 8
  %3 = getelementptr inbounds { [0 x i8]*, i64 }, { [0 x i8]*, i64 }* %msg.dbg.spill, i32 0, i32 1
  store i64 %msg.1, i64* %3, align 8
  call void @llvm.dbg.declare(metadata { [0 x i8]*, i64 }* %msg.dbg.spill, metadata !1011, metadata !DIExpression()), !dbg !1015
  %4 = bitcast i64** %self to {}**, !dbg !1016
  %5 = load {}*, {}** %4, align 8, !dbg !1016
  %6 = icmp eq {}* %5, null, !dbg !1016
  %_3 = select i1 %6, i64 0, i64 1, !dbg !1016
  switch i64 %_3, label %bb2 [
    i64 0, label %bb1
    i64 1, label %bb3
  ], !dbg !1017

bb2:                                              ; preds = %start
  unreachable, !dbg !1016

bb1:                                              ; preds = %start
; call core::option::expect_failed
  call void @_ZN4core6option13expect_failed17hfe812f345eb8521fE([0 x i8]* align 1 %msg.0, i64 %msg.1, %"core::panic::location::Location"* align 8 %1) #15, !dbg !1018
  unreachable, !dbg !1018

bb3:                                              ; preds = %start
  %7 = bitcast i64** %self to i32 (i8, i32)**, !dbg !1019
  %val = load i32 (i8, i32)*, i32 (i8, i32)** %7, align 8, !dbg !1019, !nonnull !23, !noundef !23
  store i32 (i8, i32)* %val, i32 (i8, i32)** %val.dbg.spill, align 8, !dbg !1019
  call void @llvm.dbg.declare(metadata i32 (i8, i32)** %val.dbg.spill, metadata !1012, metadata !DIExpression()), !dbg !1020
  ret i32 (i8, i32)* %val, !dbg !1021
}

; core::option::Option<T>::expect
; Function Attrs: inlinehint nonlazybind uwtable
define internal i32 (i8, ...)* @"_ZN4core6option15Option$LT$T$GT$6expect17h1d5e87e6d0d4ee89E"(i64* %0, [0 x i8]* align 1 %msg.0, i64 %msg.1, %"core::panic::location::Location"* align 8 %1) unnamed_addr #2 !dbg !1022 {
start:
  %val.dbg.spill = alloca i32 (i8, ...)*, align 8
  %msg.dbg.spill = alloca { [0 x i8]*, i64 }, align 8
  %self = alloca i64*, align 8
  store i64* %0, i64** %self, align 8
  call void @llvm.dbg.declare(metadata i64** %self, metadata !1040, metadata !DIExpression()), !dbg !1044
  %2 = getelementptr inbounds { [0 x i8]*, i64 }, { [0 x i8]*, i64 }* %msg.dbg.spill, i32 0, i32 0
  store [0 x i8]* %msg.0, [0 x i8]** %2, align 8
  %3 = getelementptr inbounds { [0 x i8]*, i64 }, { [0 x i8]*, i64 }* %msg.dbg.spill, i32 0, i32 1
  store i64 %msg.1, i64* %3, align 8
  call void @llvm.dbg.declare(metadata { [0 x i8]*, i64 }* %msg.dbg.spill, metadata !1041, metadata !DIExpression()), !dbg !1045
  %4 = bitcast i64** %self to {}**, !dbg !1046
  %5 = load {}*, {}** %4, align 8, !dbg !1046
  %6 = icmp eq {}* %5, null, !dbg !1046
  %_3 = select i1 %6, i64 0, i64 1, !dbg !1046
  switch i64 %_3, label %bb2 [
    i64 0, label %bb1
    i64 1, label %bb3
  ], !dbg !1047

bb2:                                              ; preds = %start
  unreachable, !dbg !1046

bb1:                                              ; preds = %start
; call core::option::expect_failed
  call void @_ZN4core6option13expect_failed17hfe812f345eb8521fE([0 x i8]* align 1 %msg.0, i64 %msg.1, %"core::panic::location::Location"* align 8 %1) #15, !dbg !1048
  unreachable, !dbg !1048

bb3:                                              ; preds = %start
  %7 = bitcast i64** %self to i32 (i8, ...)**, !dbg !1049
  %val = load i32 (i8, ...)*, i32 (i8, ...)** %7, align 8, !dbg !1049, !nonnull !23, !noundef !23
  store i32 (i8, ...)* %val, i32 (i8, ...)** %val.dbg.spill, align 8, !dbg !1049
  call void @llvm.dbg.declare(metadata i32 (i8, ...)** %val.dbg.spill, metadata !1042, metadata !DIExpression()), !dbg !1050
  ret i32 (i8, ...)* %val, !dbg !1051
}

; core::option::Option<T>::expect
; Function Attrs: inlinehint nonlazybind uwtable
define internal i32 ()* @"_ZN4core6option15Option$LT$T$GT$6expect17h4bc449a0ade0070dE"(i64* %0, [0 x i8]* align 1 %msg.0, i64 %msg.1, %"core::panic::location::Location"* align 8 %1) unnamed_addr #2 !dbg !1052 {
start:
  %val.dbg.spill = alloca i32 ()*, align 8
  %msg.dbg.spill = alloca { [0 x i8]*, i64 }, align 8
  %self = alloca i64*, align 8
  store i64* %0, i64** %self, align 8
  call void @llvm.dbg.declare(metadata i64** %self, metadata !1072, metadata !DIExpression()), !dbg !1076
  %2 = getelementptr inbounds { [0 x i8]*, i64 }, { [0 x i8]*, i64 }* %msg.dbg.spill, i32 0, i32 0
  store [0 x i8]* %msg.0, [0 x i8]** %2, align 8
  %3 = getelementptr inbounds { [0 x i8]*, i64 }, { [0 x i8]*, i64 }* %msg.dbg.spill, i32 0, i32 1
  store i64 %msg.1, i64* %3, align 8
  call void @llvm.dbg.declare(metadata { [0 x i8]*, i64 }* %msg.dbg.spill, metadata !1073, metadata !DIExpression()), !dbg !1077
  %4 = bitcast i64** %self to {}**, !dbg !1078
  %5 = load {}*, {}** %4, align 8, !dbg !1078
  %6 = icmp eq {}* %5, null, !dbg !1078
  %_3 = select i1 %6, i64 0, i64 1, !dbg !1078
  switch i64 %_3, label %bb2 [
    i64 0, label %bb1
    i64 1, label %bb3
  ], !dbg !1079

bb2:                                              ; preds = %start
  unreachable, !dbg !1078

bb1:                                              ; preds = %start
; call core::option::expect_failed
  call void @_ZN4core6option13expect_failed17hfe812f345eb8521fE([0 x i8]* align 1 %msg.0, i64 %msg.1, %"core::panic::location::Location"* align 8 %1) #15, !dbg !1080
  unreachable, !dbg !1080

bb3:                                              ; preds = %start
  %7 = bitcast i64** %self to i32 ()**, !dbg !1081
  %val = load i32 ()*, i32 ()** %7, align 8, !dbg !1081, !nonnull !23, !noundef !23
  store i32 ()* %val, i32 ()** %val.dbg.spill, align 8, !dbg !1081
  call void @llvm.dbg.declare(metadata i32 ()** %val.dbg.spill, metadata !1074, metadata !DIExpression()), !dbg !1082
  ret i32 ()* %val, !dbg !1083
}

; core::option::Option<T>::expect
; Function Attrs: inlinehint nonlazybind uwtable
define internal i32 (i8)* @"_ZN4core6option15Option$LT$T$GT$6expect17h916ba81426841b8fE"(i64* %0, [0 x i8]* align 1 %msg.0, i64 %msg.1, %"core::panic::location::Location"* align 8 %1) unnamed_addr #2 !dbg !1084 {
start:
  %val.dbg.spill = alloca i32 (i8)*, align 8
  %msg.dbg.spill = alloca { [0 x i8]*, i64 }, align 8
  %self = alloca i64*, align 8
  store i64* %0, i64** %self, align 8
  call void @llvm.dbg.declare(metadata i64** %self, metadata !1101, metadata !DIExpression()), !dbg !1105
  %2 = getelementptr inbounds { [0 x i8]*, i64 }, { [0 x i8]*, i64 }* %msg.dbg.spill, i32 0, i32 0
  store [0 x i8]* %msg.0, [0 x i8]** %2, align 8
  %3 = getelementptr inbounds { [0 x i8]*, i64 }, { [0 x i8]*, i64 }* %msg.dbg.spill, i32 0, i32 1
  store i64 %msg.1, i64* %3, align 8
  call void @llvm.dbg.declare(metadata { [0 x i8]*, i64 }* %msg.dbg.spill, metadata !1102, metadata !DIExpression()), !dbg !1106
  %4 = bitcast i64** %self to {}**, !dbg !1107
  %5 = load {}*, {}** %4, align 8, !dbg !1107
  %6 = icmp eq {}* %5, null, !dbg !1107
  %_3 = select i1 %6, i64 0, i64 1, !dbg !1107
  switch i64 %_3, label %bb2 [
    i64 0, label %bb1
    i64 1, label %bb3
  ], !dbg !1108

bb2:                                              ; preds = %start
  unreachable, !dbg !1107

bb1:                                              ; preds = %start
; call core::option::expect_failed
  call void @_ZN4core6option13expect_failed17hfe812f345eb8521fE([0 x i8]* align 1 %msg.0, i64 %msg.1, %"core::panic::location::Location"* align 8 %1) #15, !dbg !1109
  unreachable, !dbg !1109

bb3:                                              ; preds = %start
  %7 = bitcast i64** %self to i32 (i8)**, !dbg !1110
  %val = load i32 (i8)*, i32 (i8)** %7, align 8, !dbg !1110, !nonnull !23, !noundef !23
  store i32 (i8)* %val, i32 (i8)** %val.dbg.spill, align 8, !dbg !1110
  call void @llvm.dbg.declare(metadata i32 (i8)** %val.dbg.spill, metadata !1103, metadata !DIExpression()), !dbg !1111
  ret i32 (i8)* %val, !dbg !1112
}

; core::option::Option<T>::is_none
; Function Attrs: inlinehint nonlazybind uwtable
define internal zeroext i1 @"_ZN4core6option15Option$LT$T$GT$7is_none17h2ff31c5d7a594d8bE"(i64** align 8 %self) unnamed_addr #2 !dbg !1113 {
start:
  %self.dbg.spill1 = alloca i64**, align 8
  %self.dbg.spill = alloca i64**, align 8
  %_2 = alloca i8, align 1
  store i64** %self, i64*** %self.dbg.spill, align 8
  call void @llvm.dbg.declare(metadata i64*** %self.dbg.spill, metadata !1118, metadata !DIExpression()), !dbg !1119
  store i64** %self, i64*** %self.dbg.spill1, align 8, !dbg !1120
  call void @llvm.dbg.declare(metadata i64*** %self.dbg.spill1, metadata !1121, metadata !DIExpression()), !dbg !1124
  %0 = bitcast i64** %self to {}**, !dbg !1124
  %1 = load {}*, {}** %0, align 8, !dbg !1124
  %2 = icmp eq {}* %1, null, !dbg !1124
  %_4 = select i1 %2, i64 0, i64 1, !dbg !1124
  %3 = icmp eq i64 %_4, 1, !dbg !1124
  br i1 %3, label %bb3, label %bb2, !dbg !1124

bb3:                                              ; preds = %start
  store i8 1, i8* %_2, align 1, !dbg !1124
  br label %bb1, !dbg !1124

bb2:                                              ; preds = %start
  store i8 0, i8* %_2, align 1, !dbg !1124
  br label %bb1, !dbg !1124

bb1:                                              ; preds = %bb3, %bb2
  %4 = load i8, i8* %_2, align 1, !dbg !1125, !range !423, !noundef !23
  %5 = trunc i8 %4 to i1, !dbg !1125
  %6 = xor i1 %5, true, !dbg !1125
  ret i1 %6, !dbg !1126
}

; core::option::Option<T>::is_some
; Function Attrs: inlinehint nonlazybind uwtable
define internal zeroext i1 @"_ZN4core6option15Option$LT$T$GT$7is_some17hd2e2efccfdbffb07E"(i64** align 8 %self) unnamed_addr #2 !dbg !1127 {
start:
  %self.dbg.spill = alloca i64**, align 8
  %0 = alloca i8, align 1
  store i64** %self, i64*** %self.dbg.spill, align 8
  call void @llvm.dbg.declare(metadata i64*** %self.dbg.spill, metadata !1129, metadata !DIExpression()), !dbg !1130
  %1 = bitcast i64** %self to {}**, !dbg !1131
  %2 = load {}*, {}** %1, align 8, !dbg !1131
  %3 = icmp eq {}* %2, null, !dbg !1131
  %_2 = select i1 %3, i64 0, i64 1, !dbg !1131
  %4 = icmp eq i64 %_2, 1, !dbg !1132
  br i1 %4, label %bb2, label %bb1, !dbg !1132

bb2:                                              ; preds = %start
  store i8 1, i8* %0, align 1, !dbg !1132
  br label %bb3, !dbg !1132

bb1:                                              ; preds = %start
  store i8 0, i8* %0, align 1, !dbg !1132
  br label %bb3, !dbg !1132

bb3:                                              ; preds = %bb2, %bb1
  %5 = load i8, i8* %0, align 1, !dbg !1133, !range !423, !noundef !23
  %6 = trunc i8 %5 to i1, !dbg !1133
  ret i1 %6, !dbg !1133
}

; core::panicking::assert_failed
; Function Attrs: cold noreturn nonlazybind uwtable
define internal void @_ZN4core9panicking13assert_failed17h2b91f5b3f805ba9aE(i8 %kind, { [0 x i32]*, i64 }* align 8 %0, { [0 x i32]*, i64 }* align 8 %1, %"core::option::Option<core::fmt::Arguments>"* %args, %"core::panic::location::Location"* align 8 %2) unnamed_addr #3 !dbg !1134 {
start:
  %kind.dbg.spill = alloca i8, align 1
  %_13 = alloca %"core::option::Option<core::fmt::Arguments>", align 8
  %right = alloca { [0 x i32]*, i64 }*, align 8
  %left = alloca { [0 x i32]*, i64 }*, align 8
  store { [0 x i32]*, i64 }* %0, { [0 x i32]*, i64 }** %left, align 8
  store { [0 x i32]*, i64 }* %1, { [0 x i32]*, i64 }** %right, align 8
  store i8 %kind, i8* %kind.dbg.spill, align 1
  call void @llvm.dbg.declare(metadata i8* %kind.dbg.spill, metadata !1152, metadata !DIExpression()), !dbg !1158
  call void @llvm.dbg.declare(metadata { [0 x i32]*, i64 }** %left, metadata !1153, metadata !DIExpression()), !dbg !1159
  call void @llvm.dbg.declare(metadata { [0 x i32]*, i64 }** %right, metadata !1154, metadata !DIExpression()), !dbg !1160
  call void @llvm.dbg.declare(metadata %"core::option::Option<core::fmt::Arguments>"* %args, metadata !1155, metadata !DIExpression()), !dbg !1161
  %_7.0 = bitcast { [0 x i32]*, i64 }** %left to {}*, !dbg !1162
  %_10.0 = bitcast { [0 x i32]*, i64 }** %right to {}*, !dbg !1163
  %3 = bitcast %"core::option::Option<core::fmt::Arguments>"* %_13 to i8*, !dbg !1164
  %4 = bitcast %"core::option::Option<core::fmt::Arguments>"* %args to i8*, !dbg !1164
  call void @llvm.memcpy.p0i8.p0i8.i64(i8* align 8 %3, i8* align 8 %4, i64 48, i1 false), !dbg !1164
; call core::panicking::assert_failed_inner
  call void @_ZN4core9panicking19assert_failed_inner17h2784388051aff910E(i8 %kind, {}* align 1 %_7.0, [3 x i64]* align 8 bitcast (<{ i8*, [16 x i8], i8* }>* @vtable.2 to [3 x i64]*), {}* align 1 %_10.0, [3 x i64]* align 8 bitcast (<{ i8*, [16 x i8], i8* }>* @vtable.2 to [3 x i64]*), %"core::option::Option<core::fmt::Arguments>"* %_13, %"core::panic::location::Location"* align 8 %2) #15, !dbg !1165
  unreachable, !dbg !1165
}

; core::panicking::assert_failed
; Function Attrs: cold noreturn nonlazybind uwtable
define internal void @_ZN4core9panicking13assert_failed17h30664195b9c6fac4E(i8 %kind, [5 x i32]* align 4 %0, [5 x i32]* align 4 %1, %"core::option::Option<core::fmt::Arguments>"* %args, %"core::panic::location::Location"* align 8 %2) unnamed_addr #3 !dbg !1166 {
start:
  %kind.dbg.spill = alloca i8, align 1
  %_13 = alloca %"core::option::Option<core::fmt::Arguments>", align 8
  %right = alloca [5 x i32]*, align 8
  %left = alloca [5 x i32]*, align 8
  store [5 x i32]* %0, [5 x i32]** %left, align 8
  store [5 x i32]* %1, [5 x i32]** %right, align 8
  store i8 %kind, i8* %kind.dbg.spill, align 1
  call void @llvm.dbg.declare(metadata i8* %kind.dbg.spill, metadata !1170, metadata !DIExpression()), !dbg !1176
  call void @llvm.dbg.declare(metadata [5 x i32]** %left, metadata !1171, metadata !DIExpression()), !dbg !1177
  call void @llvm.dbg.declare(metadata [5 x i32]** %right, metadata !1172, metadata !DIExpression()), !dbg !1178
  call void @llvm.dbg.declare(metadata %"core::option::Option<core::fmt::Arguments>"* %args, metadata !1173, metadata !DIExpression()), !dbg !1179
  %_7.0 = bitcast [5 x i32]** %left to {}*, !dbg !1180
  %_10.0 = bitcast [5 x i32]** %right to {}*, !dbg !1181
  %3 = bitcast %"core::option::Option<core::fmt::Arguments>"* %_13 to i8*, !dbg !1182
  %4 = bitcast %"core::option::Option<core::fmt::Arguments>"* %args to i8*, !dbg !1182
  call void @llvm.memcpy.p0i8.p0i8.i64(i8* align 8 %3, i8* align 8 %4, i64 48, i1 false), !dbg !1182
; call core::panicking::assert_failed_inner
  call void @_ZN4core9panicking19assert_failed_inner17h2784388051aff910E(i8 %kind, {}* align 1 %_7.0, [3 x i64]* align 8 bitcast (<{ i8*, [16 x i8], i8* }>* @vtable.3 to [3 x i64]*), {}* align 1 %_10.0, [3 x i64]* align 8 bitcast (<{ i8*, [16 x i8], i8* }>* @vtable.3 to [3 x i64]*), %"core::option::Option<core::fmt::Arguments>"* %_13, %"core::panic::location::Location"* align 8 %2) #15, !dbg !1183
  unreachable, !dbg !1183
}

; core::panicking::assert_failed
; Function Attrs: cold noreturn nonlazybind uwtable
define internal void @_ZN4core9panicking13assert_failed17h6a39cc7b6e95d810E(i8 %kind, i32* align 4 %0, i32* align 4 %1, %"core::option::Option<core::fmt::Arguments>"* %args, %"core::panic::location::Location"* align 8 %2) unnamed_addr #3 !dbg !1184 {
start:
  %kind.dbg.spill = alloca i8, align 1
  %_13 = alloca %"core::option::Option<core::fmt::Arguments>", align 8
  %right = alloca i32*, align 8
  %left = alloca i32*, align 8
  store i32* %0, i32** %left, align 8
  store i32* %1, i32** %right, align 8
  store i8 %kind, i8* %kind.dbg.spill, align 1
  call void @llvm.dbg.declare(metadata i8* %kind.dbg.spill, metadata !1188, metadata !DIExpression()), !dbg !1194
  call void @llvm.dbg.declare(metadata i32** %left, metadata !1189, metadata !DIExpression()), !dbg !1195
  call void @llvm.dbg.declare(metadata i32** %right, metadata !1190, metadata !DIExpression()), !dbg !1196
  call void @llvm.dbg.declare(metadata %"core::option::Option<core::fmt::Arguments>"* %args, metadata !1191, metadata !DIExpression()), !dbg !1197
  %_7.0 = bitcast i32** %left to {}*, !dbg !1198
  %_10.0 = bitcast i32** %right to {}*, !dbg !1199
  %3 = bitcast %"core::option::Option<core::fmt::Arguments>"* %_13 to i8*, !dbg !1200
  %4 = bitcast %"core::option::Option<core::fmt::Arguments>"* %args to i8*, !dbg !1200
  call void @llvm.memcpy.p0i8.p0i8.i64(i8* align 8 %3, i8* align 8 %4, i64 48, i1 false), !dbg !1200
; call core::panicking::assert_failed_inner
  call void @_ZN4core9panicking19assert_failed_inner17h2784388051aff910E(i8 %kind, {}* align 1 %_7.0, [3 x i64]* align 8 bitcast (<{ i8*, [16 x i8], i8* }>* @vtable.1 to [3 x i64]*), {}* align 1 %_10.0, [3 x i64]* align 8 bitcast (<{ i8*, [16 x i8], i8* }>* @vtable.1 to [3 x i64]*), %"core::option::Option<core::fmt::Arguments>"* %_13, %"core::panic::location::Location"* align 8 %2) #15, !dbg !1201
  unreachable, !dbg !1201
}

; core::panicking::assert_failed
; Function Attrs: cold noreturn nonlazybind uwtable
define internal void @_ZN4core9panicking13assert_failed17h71f05d82215f0e9cE(i8 %kind, [31 x i32]* align 4 %0, [31 x i32]* align 4 %1, %"core::option::Option<core::fmt::Arguments>"* %args, %"core::panic::location::Location"* align 8 %2) unnamed_addr #3 !dbg !1202 {
start:
  %kind.dbg.spill = alloca i8, align 1
  %_13 = alloca %"core::option::Option<core::fmt::Arguments>", align 8
  %right = alloca [31 x i32]*, align 8
  %left = alloca [31 x i32]*, align 8
  store [31 x i32]* %0, [31 x i32]** %left, align 8
  store [31 x i32]* %1, [31 x i32]** %right, align 8
  store i8 %kind, i8* %kind.dbg.spill, align 1
  call void @llvm.dbg.declare(metadata i8* %kind.dbg.spill, metadata !1206, metadata !DIExpression()), !dbg !1212
  call void @llvm.dbg.declare(metadata [31 x i32]** %left, metadata !1207, metadata !DIExpression()), !dbg !1213
  call void @llvm.dbg.declare(metadata [31 x i32]** %right, metadata !1208, metadata !DIExpression()), !dbg !1214
  call void @llvm.dbg.declare(metadata %"core::option::Option<core::fmt::Arguments>"* %args, metadata !1209, metadata !DIExpression()), !dbg !1215
  %_7.0 = bitcast [31 x i32]** %left to {}*, !dbg !1216
  %_10.0 = bitcast [31 x i32]** %right to {}*, !dbg !1217
  %3 = bitcast %"core::option::Option<core::fmt::Arguments>"* %_13 to i8*, !dbg !1218
  %4 = bitcast %"core::option::Option<core::fmt::Arguments>"* %args to i8*, !dbg !1218
  call void @llvm.memcpy.p0i8.p0i8.i64(i8* align 8 %3, i8* align 8 %4, i64 48, i1 false), !dbg !1218
; call core::panicking::assert_failed_inner
  call void @_ZN4core9panicking19assert_failed_inner17h2784388051aff910E(i8 %kind, {}* align 1 %_7.0, [3 x i64]* align 8 bitcast (<{ i8*, [16 x i8], i8* }>* @vtable.4 to [3 x i64]*), {}* align 1 %_10.0, [3 x i64]* align 8 bitcast (<{ i8*, [16 x i8], i8* }>* @vtable.4 to [3 x i64]*), %"core::option::Option<core::fmt::Arguments>"* %_13, %"core::panic::location::Location"* align 8 %2) #15, !dbg !1219
  unreachable, !dbg !1219
}

; test::assert_test_result
; Function Attrs: nonlazybind uwtable
define internal void @_ZN4test18assert_test_result17h5a6695315d269373E() unnamed_addr #1 !dbg !1220 {
start:
  %0 = alloca %"core::fmt::Opaque"*, align 8
  %1 = alloca i1 (%"core::fmt::Opaque"*, %"core::fmt::Formatter"*)*, align 8
  %f.dbg.spill = alloca i1 (i32*, %"core::fmt::Formatter"*)*, align 8
  %x.dbg.spill1 = alloca i32*, align 8
  %x.dbg.spill = alloca i32*, align 8
  %right_val.dbg.spill = alloca i32*, align 8
  %left_val.dbg.spill = alloca i32*, align 8
  %self.dbg.spill = alloca i8*, align 8
  %result.dbg.spill = alloca {}, align 1
  %_30 = alloca { i8*, i64* }, align 8
  %_29 = alloca [1 x { i8*, i64* }], align 8
  %_22 = alloca %"core::fmt::Arguments", align 8
  %_21 = alloca %"core::option::Option<core::fmt::Arguments>", align 8
  %_5 = alloca { i32*, i32* }, align 8
  %self = alloca i8, align 1
  %code = alloca i32, align 4
  call void @llvm.dbg.declare(metadata {}* %result.dbg.spill, metadata !1224, metadata !DIExpression()), !dbg !1235
  call void @llvm.dbg.declare(metadata i32* %code, metadata !1225, metadata !DIExpression()), !dbg !1236
  call void @llvm.dbg.declare(metadata i8* %self, metadata !1237, metadata !DIExpression()), !dbg !1241
; call <() as std::process::Termination>::report
  %2 = call i8 @"_ZN54_$LT$$LP$$RP$$u20$as$u20$std..process..Termination$GT$6report17h08d155b0650ff1faE"(), !dbg !1242
  store i8 %2, i8* %self, align 1, !dbg !1242
  br label %bb1, !dbg !1242

bb1:                                              ; preds = %start
  store i8* %self, i8** %self.dbg.spill, align 8, !dbg !1241
  call void @llvm.dbg.declare(metadata i8** %self.dbg.spill, metadata !1243, metadata !DIExpression()), !dbg !1247
  %_36 = load i8, i8* %self, align 1, !dbg !1247
  %3 = zext i8 %_36 to i32, !dbg !1247
  store i32 %3, i32* %code, align 4, !dbg !1247
  %4 = bitcast { i32*, i32* }* %_5 to i32**, !dbg !1249
  store i32* %code, i32** %4, align 8, !dbg !1249
  %5 = getelementptr inbounds { i32*, i32* }, { i32*, i32* }* %_5, i32 0, i32 1, !dbg !1249
  store i32* bitcast (<{ [4 x i8] }>* @alloc210 to i32*), i32** %5, align 8, !dbg !1249
  %6 = bitcast { i32*, i32* }* %_5 to i32**, !dbg !1249
  %left_val = load i32*, i32** %6, align 8, !dbg !1249, !nonnull !23, !align !263, !noundef !23
  store i32* %left_val, i32** %left_val.dbg.spill, align 8, !dbg !1249
  call void @llvm.dbg.declare(metadata i32** %left_val.dbg.spill, metadata !1227, metadata !DIExpression()), !dbg !1250
  %7 = getelementptr inbounds { i32*, i32* }, { i32*, i32* }* %_5, i32 0, i32 1, !dbg !1249
  %right_val = load i32*, i32** %7, align 8, !dbg !1249, !nonnull !23, !align !263, !noundef !23
  store i32* %right_val, i32** %right_val.dbg.spill, align 8, !dbg !1249
  call void @llvm.dbg.declare(metadata i32** %right_val.dbg.spill, metadata !1231, metadata !DIExpression()), !dbg !1250
  %_12 = load i32, i32* %left_val, align 4, !dbg !1250
  %_13 = load i32, i32* %right_val, align 4, !dbg !1250
  %_11 = icmp eq i32 %_12, %_13, !dbg !1250
  %_10 = xor i1 %_11, true, !dbg !1250
  br i1 %_10, label %bb2, label %bb4, !dbg !1250

bb4:                                              ; preds = %bb1
  ret void, !dbg !1251

bb2:                                              ; preds = %bb1
  store i32* %code, i32** %x.dbg.spill, align 8, !dbg !1252
  call void @llvm.dbg.declare(metadata i32** %x.dbg.spill, metadata !1253, metadata !DIExpression()), !dbg !1259
  store i32* %code, i32** %x.dbg.spill1, align 8, !dbg !1259
  call void @llvm.dbg.declare(metadata i32** %x.dbg.spill1, metadata !1261, metadata !DIExpression()), !dbg !1269
  store i1 (i32*, %"core::fmt::Formatter"*)* @"_ZN4core3fmt3num3imp52_$LT$impl$u20$core..fmt..Display$u20$for$u20$i32$GT$3fmt17h52a4838d0eaa2babE", i1 (i32*, %"core::fmt::Formatter"*)** %f.dbg.spill, align 8, !dbg !1259
  call void @llvm.dbg.declare(metadata i1 (i32*, %"core::fmt::Formatter"*)** %f.dbg.spill, metadata !1268, metadata !DIExpression()), !dbg !1269
  store i1 (%"core::fmt::Opaque"*, %"core::fmt::Formatter"*)* bitcast (i1 (i32*, %"core::fmt::Formatter"*)* @"_ZN4core3fmt3num3imp52_$LT$impl$u20$core..fmt..Display$u20$for$u20$i32$GT$3fmt17h52a4838d0eaa2babE" to i1 (%"core::fmt::Opaque"*, %"core::fmt::Formatter"*)*), i1 (%"core::fmt::Opaque"*, %"core::fmt::Formatter"*)** %1, align 8, !dbg !1269
  %_39 = load i1 (%"core::fmt::Opaque"*, %"core::fmt::Formatter"*)*, i1 (%"core::fmt::Opaque"*, %"core::fmt::Formatter"*)** %1, align 8, !dbg !1269, !nonnull !23, !noundef !23
  br label %bb5, !dbg !1269

bb5:                                              ; preds = %bb2
  %8 = bitcast i32* %code to %"core::fmt::Opaque"*, !dbg !1269
  store %"core::fmt::Opaque"* %8, %"core::fmt::Opaque"** %0, align 8, !dbg !1269
  %_41 = load %"core::fmt::Opaque"*, %"core::fmt::Opaque"** %0, align 8, !dbg !1269, !nonnull !23, !align !1271, !noundef !23
  br label %bb6, !dbg !1269

bb6:                                              ; preds = %bb5
  %9 = bitcast { i8*, i64* }* %_30 to %"core::fmt::Opaque"**, !dbg !1269
  store %"core::fmt::Opaque"* %_41, %"core::fmt::Opaque"** %9, align 8, !dbg !1269
  %10 = getelementptr inbounds { i8*, i64* }, { i8*, i64* }* %_30, i32 0, i32 1, !dbg !1269
  %11 = bitcast i64** %10 to i1 (%"core::fmt::Opaque"*, %"core::fmt::Formatter"*)**, !dbg !1269
  store i1 (%"core::fmt::Opaque"*, %"core::fmt::Formatter"*)* %_39, i1 (%"core::fmt::Opaque"*, %"core::fmt::Formatter"*)** %11, align 8, !dbg !1269
  %12 = getelementptr inbounds { i8*, i64* }, { i8*, i64* }* %_30, i32 0, i32 0, !dbg !1252
  %13 = load i8*, i8** %12, align 8, !dbg !1252, !nonnull !23, !align !1271, !noundef !23
  %14 = getelementptr inbounds { i8*, i64* }, { i8*, i64* }* %_30, i32 0, i32 1, !dbg !1252
  %15 = load i64*, i64** %14, align 8, !dbg !1252, !nonnull !23, !noundef !23
  %16 = getelementptr inbounds [1 x { i8*, i64* }], [1 x { i8*, i64* }]* %_29, i64 0, i64 0, !dbg !1252
  %17 = getelementptr inbounds { i8*, i64* }, { i8*, i64* }* %16, i32 0, i32 0, !dbg !1252
  store i8* %13, i8** %17, align 8, !dbg !1252
  %18 = getelementptr inbounds { i8*, i64* }, { i8*, i64* }* %16, i32 0, i32 1, !dbg !1252
  store i64* %15, i64** %18, align 8, !dbg !1252
  %_26.0 = bitcast [1 x { i8*, i64* }]* %_29 to [0 x { i8*, i64* }]*, !dbg !1252
; call core::fmt::Arguments::new_v1
  call void @_ZN4core3fmt9Arguments6new_v117hbd9a0c00d1b2c782E(%"core::fmt::Arguments"* sret(%"core::fmt::Arguments") %_22, [0 x { [0 x i8]*, i64 }]* align 8 bitcast (<{ i8*, [8 x i8], i8*, [8 x i8] }>* @alloc213 to [0 x { [0 x i8]*, i64 }]*), i64 2, [0 x { i8*, i64* }]* align 8 %_26.0, i64 1), !dbg !1252
  br label %bb3, !dbg !1252

bb3:                                              ; preds = %bb6
  %19 = bitcast %"core::option::Option<core::fmt::Arguments>"* %_21 to %"core::option::Option<core::fmt::Arguments>::Some"*, !dbg !1252
  %20 = bitcast %"core::option::Option<core::fmt::Arguments>::Some"* %19 to %"core::fmt::Arguments"*, !dbg !1252
  %21 = bitcast %"core::fmt::Arguments"* %20 to i8*, !dbg !1252
  %22 = bitcast %"core::fmt::Arguments"* %_22 to i8*, !dbg !1252
  call void @llvm.memcpy.p0i8.p0i8.i64(i8* align 8 %21, i8* align 8 %22, i64 48, i1 false), !dbg !1252
; call core::panicking::assert_failed
  call void @_ZN4core9panicking13assert_failed17h6a39cc7b6e95d810E(i8 0, i32* align 4 %left_val, i32* align 4 %right_val, %"core::option::Option<core::fmt::Arguments>"* %_21, %"core::panic::location::Location"* align 8 bitcast (<{ i8*, [16 x i8] }>* @alloc326 to %"core::panic::location::Location"*)) #15, !dbg !1252
  unreachable, !dbg !1252
}

; <() as std::process::Termination>::report
; Function Attrs: inlinehint nonlazybind uwtable
define internal i8 @"_ZN54_$LT$$LP$$RP$$u20$as$u20$std..process..Termination$GT$6report17h08d155b0650ff1faE"() unnamed_addr #2 !dbg !1272 {
start:
  %self.dbg.spill = alloca {}, align 1
  call void @llvm.dbg.declare(metadata {}* %self.dbg.spill, metadata !1277, metadata !DIExpression()), !dbg !1278
  ret i8 0, !dbg !1279
}

; <core::ffi::VaListImpl as core::clone::Clone>::clone
; Function Attrs: inlinehint nonlazybind uwtable
define internal void @"_ZN60_$LT$core..ffi..VaListImpl$u20$as$u20$core..clone..Clone$GT$5clone17h0bdeeab0be385cfdE"(%"core::ffi::VaListImpl"* sret(%"core::ffi::VaListImpl") %0, %"core::ffi::VaListImpl"* align 8 %self) unnamed_addr #2 !dbg !1280 {
start:
  %self.dbg.spill2 = alloca %"core::mem::maybe_uninit::MaybeUninit<core::ffi::VaListImpl>"*, align 8
  %self.dbg.spill = alloca %"core::ffi::VaListImpl"*, align 8
  %slot = alloca %"core::mem::manually_drop::ManuallyDrop<core::ffi::VaListImpl>", align 8
  %self1 = alloca %"core::mem::maybe_uninit::MaybeUninit<core::ffi::VaListImpl>", align 8
  %dest = alloca %"core::mem::maybe_uninit::MaybeUninit<core::ffi::VaListImpl>", align 8
  store %"core::ffi::VaListImpl"* %self, %"core::ffi::VaListImpl"** %self.dbg.spill, align 8
  call void @llvm.dbg.declare(metadata %"core::ffi::VaListImpl"** %self.dbg.spill, metadata !1286, metadata !DIExpression()), !dbg !1298
  call void @llvm.dbg.declare(metadata %"core::mem::maybe_uninit::MaybeUninit<core::ffi::VaListImpl>"* %dest, metadata !1287, metadata !DIExpression()), !dbg !1299
  call void @llvm.dbg.declare(metadata %"core::mem::maybe_uninit::MaybeUninit<core::ffi::VaListImpl>"* %self1, metadata !1300, metadata !DIExpression()), !dbg !1307
  call void @llvm.dbg.declare(metadata %"core::mem::manually_drop::ManuallyDrop<core::ffi::VaListImpl>"* %slot, metadata !1309, metadata !DIExpression()), !dbg !1316
  %1 = bitcast %"core::mem::maybe_uninit::MaybeUninit<core::ffi::VaListImpl>"* %dest to {}*, !dbg !1318
  store %"core::mem::maybe_uninit::MaybeUninit<core::ffi::VaListImpl>"* %dest, %"core::mem::maybe_uninit::MaybeUninit<core::ffi::VaListImpl>"** %self.dbg.spill2, align 8, !dbg !1324
  call void @llvm.dbg.declare(metadata %"core::mem::maybe_uninit::MaybeUninit<core::ffi::VaListImpl>"** %self.dbg.spill2, metadata !1325, metadata !DIExpression()), !dbg !1332
  %_4 = bitcast %"core::mem::maybe_uninit::MaybeUninit<core::ffi::VaListImpl>"* %dest to %"core::ffi::VaListImpl"*, !dbg !1332
  %2 = bitcast %"core::ffi::VaListImpl"* %_4 to i8*, !dbg !1333
  %3 = bitcast %"core::ffi::VaListImpl"* %self to i8*, !dbg !1333
  call void @llvm.va_copy(i8* %2, i8* %3), !dbg !1333
  br label %bb1, !dbg !1333

bb1:                                              ; preds = %start
  %4 = bitcast %"core::mem::maybe_uninit::MaybeUninit<core::ffi::VaListImpl>"* %self1 to i8*, !dbg !1308
  %5 = bitcast %"core::mem::maybe_uninit::MaybeUninit<core::ffi::VaListImpl>"* %dest to i8*, !dbg !1308
  call void @llvm.memcpy.p0i8.p0i8.i64(i8* align 8 %4, i8* align 8 %5, i64 24, i1 false), !dbg !1308
  br label %bb2, !dbg !1307

bb2:                                              ; preds = %bb1
  %6 = bitcast %"core::mem::maybe_uninit::MaybeUninit<core::ffi::VaListImpl>"* %self1 to %"core::mem::manually_drop::ManuallyDrop<core::ffi::VaListImpl>"*, !dbg !1307
  %7 = bitcast %"core::mem::manually_drop::ManuallyDrop<core::ffi::VaListImpl>"* %slot to i8*, !dbg !1307
  %8 = bitcast %"core::mem::manually_drop::ManuallyDrop<core::ffi::VaListImpl>"* %6 to i8*, !dbg !1307
  call void @llvm.memcpy.p0i8.p0i8.i64(i8* align 8 %7, i8* align 8 %8, i64 24, i1 false), !dbg !1307
  %9 = bitcast %"core::mem::manually_drop::ManuallyDrop<core::ffi::VaListImpl>"* %slot to %"core::ffi::VaListImpl"*, !dbg !1316
  %10 = bitcast %"core::ffi::VaListImpl"* %0 to i8*, !dbg !1316
  %11 = bitcast %"core::ffi::VaListImpl"* %9 to i8*, !dbg !1316
  call void @llvm.memcpy.p0i8.p0i8.i64(i8* align 8 %10, i8* align 8 %11, i64 24, i1 false), !dbg !1316
  ret void, !dbg !1334
}

; <I as core::iter::traits::collect::IntoIterator>::into_iter
; Function Attrs: inlinehint nonlazybind uwtable
define internal { i32*, i32* } @"_ZN63_$LT$I$u20$as$u20$core..iter..traits..collect..IntoIterator$GT$9into_iter17h16b08e9862c67d32E"(i32* %self.0, i32* %self.1) unnamed_addr #2 !dbg !1335 {
start:
  %self.dbg.spill = alloca { i32*, i32* }, align 8
  %0 = getelementptr inbounds { i32*, i32* }, { i32*, i32* }* %self.dbg.spill, i32 0, i32 0
  store i32* %self.0, i32** %0, align 8
  %1 = getelementptr inbounds { i32*, i32* }, { i32*, i32* }* %self.dbg.spill, i32 0, i32 1
  store i32* %self.1, i32** %1, align 8
  call void @llvm.dbg.declare(metadata { i32*, i32* }* %self.dbg.spill, metadata !1344, metadata !DIExpression()), !dbg !1346
  %2 = insertvalue { i32*, i32* } undef, i32* %self.0, 0, !dbg !1347
  %3 = insertvalue { i32*, i32* } %2, i32* %self.1, 1, !dbg !1347
  ret { i32*, i32* } %3, !dbg !1347
}

; <T as core::array::equality::SpecArrayEq<U,_>>::spec_eq
; Function Attrs: nonlazybind uwtable
define internal zeroext i1 @"_ZN69_$LT$T$u20$as$u20$core..array..equality..SpecArrayEq$LT$U$C$_$GT$$GT$7spec_eq17hdbbdd54209322b72E"([5 x i32]* align 4 %a, [5 x i32]* align 4 %b) unnamed_addr #1 !dbg !1348 {
start:
  %0 = alloca i8, align 1
  %b.dbg.spill2 = alloca [5 x i32]*, align 8
  %self.dbg.spill1 = alloca i32*, align 8
  %self.dbg.spill = alloca { [0 x i32]*, i64 }, align 8
  %b.dbg.spill = alloca [5 x i32]*, align 8
  %a.dbg.spill = alloca [5 x i32]*, align 8
  store [5 x i32]* %a, [5 x i32]** %a.dbg.spill, align 8
  call void @llvm.dbg.declare(metadata [5 x i32]** %a.dbg.spill, metadata !1351, metadata !DIExpression()), !dbg !1355
  store [5 x i32]* %b, [5 x i32]** %b.dbg.spill, align 8
  call void @llvm.dbg.declare(metadata [5 x i32]** %b.dbg.spill, metadata !1352, metadata !DIExpression()), !dbg !1356
  %self.0 = bitcast [5 x i32]* %b to [0 x i32]*, !dbg !1357
  %1 = getelementptr inbounds { [0 x i32]*, i64 }, { [0 x i32]*, i64 }* %self.dbg.spill, i32 0, i32 0, !dbg !1357
  store [0 x i32]* %self.0, [0 x i32]** %1, align 8, !dbg !1357
  %2 = getelementptr inbounds { [0 x i32]*, i64 }, { [0 x i32]*, i64 }* %self.dbg.spill, i32 0, i32 1, !dbg !1357
  store i64 5, i64* %2, align 8, !dbg !1357
  call void @llvm.dbg.declare(metadata { [0 x i32]*, i64 }* %self.dbg.spill, metadata !1358, metadata !DIExpression()), !dbg !1362
  %self = bitcast [0 x i32]* %self.0 to i32*, !dbg !1362
  store i32* %self, i32** %self.dbg.spill1, align 8, !dbg !1362
  call void @llvm.dbg.declare(metadata i32** %self.dbg.spill1, metadata !1363, metadata !DIExpression()), !dbg !1371
  %_4 = bitcast i32* %self to [5 x i32]*, !dbg !1371
  store [5 x i32]* %_4, [5 x i32]** %b.dbg.spill2, align 8, !dbg !1372
  call void @llvm.dbg.declare(metadata [5 x i32]** %b.dbg.spill2, metadata !1353, metadata !DIExpression()), !dbg !1373
  %3 = bitcast [5 x i32]* %a to i8*, !dbg !1374
  %4 = bitcast [5 x i32]* %_4 to i8*, !dbg !1374
  %5 = call i32 @memcmp(i8* %3, i8* %4, i64 20), !dbg !1374
  %6 = icmp eq i32 %5, 0, !dbg !1374
  %7 = zext i1 %6 to i8, !dbg !1374
  store i8 %7, i8* %0, align 1, !dbg !1374
  %8 = load i8, i8* %0, align 1, !dbg !1374, !range !423, !noundef !23
  %9 = trunc i8 %8 to i1, !dbg !1374
  br label %bb1, !dbg !1374

bb1:                                              ; preds = %start
  ret i1 %9, !dbg !1375
}

; <T as core::array::equality::SpecArrayEq<U,_>>::spec_eq
; Function Attrs: nonlazybind uwtable
define internal zeroext i1 @"_ZN69_$LT$T$u20$as$u20$core..array..equality..SpecArrayEq$LT$U$C$_$GT$$GT$7spec_eq17hf457e760893bfc1cE"([31 x i32]* align 4 %a, [31 x i32]* align 4 %b) unnamed_addr #1 !dbg !1376 {
start:
  %0 = alloca i8, align 1
  %b.dbg.spill2 = alloca [31 x i32]*, align 8
  %self.dbg.spill1 = alloca i32*, align 8
  %self.dbg.spill = alloca { [0 x i32]*, i64 }, align 8
  %b.dbg.spill = alloca [31 x i32]*, align 8
  %a.dbg.spill = alloca [31 x i32]*, align 8
  store [31 x i32]* %a, [31 x i32]** %a.dbg.spill, align 8
  call void @llvm.dbg.declare(metadata [31 x i32]** %a.dbg.spill, metadata !1378, metadata !DIExpression()), !dbg !1382
  store [31 x i32]* %b, [31 x i32]** %b.dbg.spill, align 8
  call void @llvm.dbg.declare(metadata [31 x i32]** %b.dbg.spill, metadata !1379, metadata !DIExpression()), !dbg !1383
  %self.0 = bitcast [31 x i32]* %b to [0 x i32]*, !dbg !1384
  %1 = getelementptr inbounds { [0 x i32]*, i64 }, { [0 x i32]*, i64 }* %self.dbg.spill, i32 0, i32 0, !dbg !1384
  store [0 x i32]* %self.0, [0 x i32]** %1, align 8, !dbg !1384
  %2 = getelementptr inbounds { [0 x i32]*, i64 }, { [0 x i32]*, i64 }* %self.dbg.spill, i32 0, i32 1, !dbg !1384
  store i64 31, i64* %2, align 8, !dbg !1384
  call void @llvm.dbg.declare(metadata { [0 x i32]*, i64 }* %self.dbg.spill, metadata !1385, metadata !DIExpression()), !dbg !1389
  %self = bitcast [0 x i32]* %self.0 to i32*, !dbg !1389
  store i32* %self, i32** %self.dbg.spill1, align 8, !dbg !1389
  call void @llvm.dbg.declare(metadata i32** %self.dbg.spill1, metadata !1390, metadata !DIExpression()), !dbg !1398
  %_4 = bitcast i32* %self to [31 x i32]*, !dbg !1398
  store [31 x i32]* %_4, [31 x i32]** %b.dbg.spill2, align 8, !dbg !1399
  call void @llvm.dbg.declare(metadata [31 x i32]** %b.dbg.spill2, metadata !1380, metadata !DIExpression()), !dbg !1400
  %3 = bitcast [31 x i32]* %a to i8*, !dbg !1401
  %4 = bitcast [31 x i32]* %_4 to i8*, !dbg !1401
  %5 = call i32 @memcmp(i8* %3, i8* %4, i64 124), !dbg !1401
  %6 = icmp eq i32 %5, 0, !dbg !1401
  %7 = zext i1 %6 to i8, !dbg !1401
  store i8 %7, i8* %0, align 1, !dbg !1401
  %8 = load i8, i8* %0, align 1, !dbg !1401, !range !423, !noundef !23
  %9 = trunc i8 %8 to i1, !dbg !1401
  br label %bb1, !dbg !1401

bb1:                                              ; preds = %start
  ret i1 %9, !dbg !1402
}

; <core::option::Option<T> as core::cmp::PartialEq>::eq
; Function Attrs: inlinehint nonlazybind uwtable
define internal zeroext i1 @"_ZN70_$LT$core..option..Option$LT$T$GT$$u20$as$u20$core..cmp..PartialEq$GT$2eq17hf5b0e9a9a6950d80E"(i64** align 8 %self, i64** align 8 %other) unnamed_addr #2 !dbg !1403 {
start:
  %__arg1_0.dbg.spill = alloca i32 (i8)**, align 8
  %__self_0.dbg.spill = alloca i32 (i8)**, align 8
  %__arg1_tag.dbg.spill = alloca i64, align 8
  %__self_tag.dbg.spill = alloca i64, align 8
  %other.dbg.spill = alloca i64**, align 8
  %self.dbg.spill = alloca i64**, align 8
  %_11 = alloca { i64*, i64* }, align 8
  %_10 = alloca i8, align 1
  %0 = alloca i8, align 1
  store i64** %self, i64*** %self.dbg.spill, align 8
  call void @llvm.dbg.declare(metadata i64*** %self.dbg.spill, metadata !1408, metadata !DIExpression()), !dbg !1417
  store i64** %other, i64*** %other.dbg.spill, align 8
  call void @llvm.dbg.declare(metadata i64*** %other.dbg.spill, metadata !1409, metadata !DIExpression()), !dbg !1417
  %1 = bitcast i64** %self to {}**, !dbg !1417
  %2 = load {}*, {}** %1, align 8, !dbg !1417
  %3 = icmp eq {}* %2, null, !dbg !1417
  %__self_tag = select i1 %3, i64 0, i64 1, !dbg !1417
  store i64 %__self_tag, i64* %__self_tag.dbg.spill, align 8, !dbg !1417
  call void @llvm.dbg.declare(metadata i64* %__self_tag.dbg.spill, metadata !1410, metadata !DIExpression()), !dbg !1418
  %4 = bitcast i64** %other to {}**, !dbg !1418
  %5 = load {}*, {}** %4, align 8, !dbg !1418
  %6 = icmp eq {}* %5, null, !dbg !1418
  %__arg1_tag = select i1 %6, i64 0, i64 1, !dbg !1418
  store i64 %__arg1_tag, i64* %__arg1_tag.dbg.spill, align 8, !dbg !1418
  call void @llvm.dbg.declare(metadata i64* %__arg1_tag.dbg.spill, metadata !1412, metadata !DIExpression()), !dbg !1419
  %_7 = icmp eq i64 %__self_tag, %__arg1_tag, !dbg !1419
  br i1 %_7, label %bb2, label %bb1, !dbg !1419

bb1:                                              ; preds = %start
  store i8 0, i8* %0, align 1, !dbg !1419
  br label %bb3, !dbg !1419

bb2:                                              ; preds = %start
  %7 = bitcast { i64*, i64* }* %_11 to i64***, !dbg !1419
  store i64** %self, i64*** %7, align 8, !dbg !1419
  %8 = getelementptr inbounds { i64*, i64* }, { i64*, i64* }* %_11, i32 0, i32 1, !dbg !1419
  %9 = bitcast i64** %8 to i64***, !dbg !1419
  store i64** %other, i64*** %9, align 8, !dbg !1419
  %10 = bitcast { i64*, i64* }* %_11 to i64***, !dbg !1419
  %_20 = load i64**, i64*** %10, align 8, !dbg !1419, !nonnull !23, !align !162, !noundef !23
  %11 = bitcast i64** %_20 to {}**, !dbg !1419
  %12 = load {}*, {}** %11, align 8, !dbg !1419
  %13 = icmp eq {}* %12, null, !dbg !1419
  %_15 = select i1 %13, i64 0, i64 1, !dbg !1419
  %14 = icmp eq i64 %_15, 1, !dbg !1419
  br i1 %14, label %bb5, label %bb4, !dbg !1419

bb5:                                              ; preds = %bb2
  %15 = getelementptr inbounds { i64*, i64* }, { i64*, i64* }* %_11, i32 0, i32 1, !dbg !1419
  %16 = bitcast i64** %15 to i64***, !dbg !1419
  %_21 = load i64**, i64*** %16, align 8, !dbg !1419, !nonnull !23, !align !162, !noundef !23
  %17 = bitcast i64** %_21 to {}**, !dbg !1419
  %18 = load {}*, {}** %17, align 8, !dbg !1419
  %19 = icmp eq {}* %18, null, !dbg !1419
  %_14 = select i1 %19, i64 0, i64 1, !dbg !1419
  %20 = icmp eq i64 %_14, 1, !dbg !1419
  br i1 %20, label %bb6, label %bb4, !dbg !1419

bb4:                                              ; preds = %bb5, %bb2
  store i8 1, i8* %_10, align 1, !dbg !1419
  br label %bb8, !dbg !1419

bb6:                                              ; preds = %bb5
  %21 = bitcast { i64*, i64* }* %_11 to i64***, !dbg !1420
  %_22 = load i64**, i64*** %21, align 8, !dbg !1420, !nonnull !23, !align !162, !noundef !23
  %__self_0 = bitcast i64** %_22 to i32 (i8)**, !dbg !1420
  store i32 (i8)** %__self_0, i32 (i8)*** %__self_0.dbg.spill, align 8, !dbg !1420
  call void @llvm.dbg.declare(metadata i32 (i8)*** %__self_0.dbg.spill, metadata !1414, metadata !DIExpression()), !dbg !1421
  %22 = getelementptr inbounds { i64*, i64* }, { i64*, i64* }* %_11, i32 0, i32 1, !dbg !1420
  %23 = bitcast i64** %22 to i64***, !dbg !1420
  %_23 = load i64**, i64*** %23, align 8, !dbg !1420, !nonnull !23, !align !162, !noundef !23
  %__arg1_0 = bitcast i64** %_23 to i32 (i8)**, !dbg !1420
  store i32 (i8)** %__arg1_0, i32 (i8)*** %__arg1_0.dbg.spill, align 8, !dbg !1420
  call void @llvm.dbg.declare(metadata i32 (i8)*** %__arg1_0.dbg.spill, metadata !1416, metadata !DIExpression()), !dbg !1421
; call core::ptr::<impl core::cmp::PartialEq for unsafe extern "C" fn(T) .> Ret>::eq
  %24 = call zeroext i1 @"_ZN4core3ptr118_$LT$impl$u20$core..cmp..PartialEq$u20$for$u20$unsafe$u20$extern$u20$$u22$C$u22$$u20$fn$LP$T$RP$$u20$.$GT$$u20$Ret$GT$2eq17hb3bc34956817cd06E"(i32 (i8)** align 8 %__self_0, i32 (i8)** align 8 %__arg1_0), !dbg !1421
  %25 = zext i1 %24 to i8, !dbg !1421
  store i8 %25, i8* %_10, align 1, !dbg !1421
  br label %bb7, !dbg !1421

bb8:                                              ; preds = %bb7, %bb4
  %26 = load i8, i8* %_10, align 1, !dbg !1419, !range !423, !noundef !23
  %27 = trunc i8 %26 to i1, !dbg !1419
  %28 = zext i1 %27 to i8, !dbg !1419
  store i8 %28, i8* %0, align 1, !dbg !1419
  br label %bb3, !dbg !1419

bb7:                                              ; preds = %bb6
  br label %bb8, !dbg !1422

bb3:                                              ; preds = %bb1, %bb8
  %29 = load i8, i8* %0, align 1, !dbg !1423, !range !423, !noundef !23
  %30 = trunc i8 %29 to i1, !dbg !1423
  ret i1 %30, !dbg !1423
}

; <[A] as core::slice::cmp::SlicePartialEq<B>>::equal
; Function Attrs: nonlazybind uwtable
define internal zeroext i1 @"_ZN73_$LT$$u5b$A$u5d$$u20$as$u20$core..slice..cmp..SlicePartialEq$LT$B$GT$$GT$5equal17h57b4a7af260f1a62E"([0 x i32]* align 4 %self.0, i64 %self.1, [0 x i32]* align 4 %other.0, i64 %other.1) unnamed_addr #1 !dbg !1424 {
start:
  %self.dbg.spill2 = alloca { [0 x i32]*, i64 }, align 8
  %self.dbg.spill1 = alloca { [0 x i32]*, i64 }, align 8
  %size.dbg.spill = alloca i64, align 8
  %0 = alloca i64, align 8
  %val.dbg.spill = alloca { [0 x i32]*, i64 }, align 8
  %other.dbg.spill = alloca { [0 x i32]*, i64 }, align 8
  %self.dbg.spill = alloca { [0 x i32]*, i64 }, align 8
  %1 = alloca i8, align 1
  %2 = getelementptr inbounds { [0 x i32]*, i64 }, { [0 x i32]*, i64 }* %self.dbg.spill, i32 0, i32 0
  store [0 x i32]* %self.0, [0 x i32]** %2, align 8
  %3 = getelementptr inbounds { [0 x i32]*, i64 }, { [0 x i32]*, i64 }* %self.dbg.spill, i32 0, i32 1
  store i64 %self.1, i64* %3, align 8
  call void @llvm.dbg.declare(metadata { [0 x i32]*, i64 }* %self.dbg.spill, metadata !1427, metadata !DIExpression()), !dbg !1431
  %4 = getelementptr inbounds { [0 x i32]*, i64 }, { [0 x i32]*, i64 }* %other.dbg.spill, i32 0, i32 0
  store [0 x i32]* %other.0, [0 x i32]** %4, align 8
  %5 = getelementptr inbounds { [0 x i32]*, i64 }, { [0 x i32]*, i64 }* %other.dbg.spill, i32 0, i32 1
  store i64 %other.1, i64* %5, align 8
  call void @llvm.dbg.declare(metadata { [0 x i32]*, i64 }* %other.dbg.spill, metadata !1428, metadata !DIExpression()), !dbg !1432
  %_3 = icmp ne i64 %self.1, %other.1, !dbg !1433
  br i1 %_3, label %bb1, label %bb2, !dbg !1433

bb2:                                              ; preds = %start
  %6 = getelementptr inbounds { [0 x i32]*, i64 }, { [0 x i32]*, i64 }* %val.dbg.spill, i32 0, i32 0, !dbg !1434
  store [0 x i32]* %self.0, [0 x i32]** %6, align 8, !dbg !1434
  %7 = getelementptr inbounds { [0 x i32]*, i64 }, { [0 x i32]*, i64 }* %val.dbg.spill, i32 0, i32 1, !dbg !1434
  store i64 %self.1, i64* %7, align 8, !dbg !1434
  call void @llvm.dbg.declare(metadata { [0 x i32]*, i64 }* %val.dbg.spill, metadata !1435, metadata !DIExpression()), !dbg !1441
  %8 = mul nsw i64 %self.1, 4, !dbg !1441
  store i64 %8, i64* %0, align 8, !dbg !1441
  %size = load i64, i64* %0, align 8, !dbg !1441
  store i64 %size, i64* %size.dbg.spill, align 8, !dbg !1441
  call void @llvm.dbg.declare(metadata i64* %size.dbg.spill, metadata !1429, metadata !DIExpression()), !dbg !1443
  br label %bb5, !dbg !1441

bb1:                                              ; preds = %start
  store i8 0, i8* %1, align 1, !dbg !1444
  br label %bb4, !dbg !1445

bb4:                                              ; preds = %bb3, %bb1
  %9 = load i8, i8* %1, align 1, !dbg !1445, !range !423, !noundef !23
  %10 = trunc i8 %9 to i1, !dbg !1445
  ret i1 %10, !dbg !1445

bb5:                                              ; preds = %bb2
  %11 = getelementptr inbounds { [0 x i32]*, i64 }, { [0 x i32]*, i64 }* %self.dbg.spill1, i32 0, i32 0, !dbg !1446
  store [0 x i32]* %self.0, [0 x i32]** %11, align 8, !dbg !1446
  %12 = getelementptr inbounds { [0 x i32]*, i64 }, { [0 x i32]*, i64 }* %self.dbg.spill1, i32 0, i32 1, !dbg !1446
  store i64 %self.1, i64* %12, align 8, !dbg !1446
  call void @llvm.dbg.declare(metadata { [0 x i32]*, i64 }* %self.dbg.spill1, metadata !1447, metadata !DIExpression()), !dbg !1451
  %_12 = bitcast [0 x i32]* %self.0 to i32*, !dbg !1451
  %_11 = bitcast i32* %_12 to i8*, !dbg !1446
  %13 = getelementptr inbounds { [0 x i32]*, i64 }, { [0 x i32]*, i64 }* %self.dbg.spill2, i32 0, i32 0, !dbg !1452
  store [0 x i32]* %other.0, [0 x i32]** %13, align 8, !dbg !1452
  %14 = getelementptr inbounds { [0 x i32]*, i64 }, { [0 x i32]*, i64 }* %self.dbg.spill2, i32 0, i32 1, !dbg !1452
  store i64 %other.1, i64* %14, align 8, !dbg !1452
  call void @llvm.dbg.declare(metadata { [0 x i32]*, i64 }* %self.dbg.spill2, metadata !1453, metadata !DIExpression()), !dbg !1457
  %_15 = bitcast [0 x i32]* %other.0 to i32*, !dbg !1457
  %_14 = bitcast i32* %_15 to i8*, !dbg !1452
  %_10 = call i32 @memcmp(i8* %_11, i8* %_14, i64 %size), !dbg !1458
  br label %bb3, !dbg !1458

bb3:                                              ; preds = %bb5
  %15 = icmp eq i32 %_10, 0, !dbg !1458
  %16 = zext i1 %15 to i8, !dbg !1458
  store i8 %16, i8* %1, align 1, !dbg !1458
  br label %bb4, !dbg !1445
}

; <core::slice::iter::Iter<T> as core::iter::traits::iterator::Iterator>::next
; Function Attrs: inlinehint nonlazybind uwtable
define internal align 4 i32* @"_ZN91_$LT$core..slice..iter..Iter$LT$T$GT$$u20$as$u20$core..iter..traits..iterator..Iterator$GT$4next17hc4d5069051fad528E"({ i32*, i32* }* align 8 %self) unnamed_addr #2 !dbg !1459 {
start:
  %self.dbg.spill26 = alloca i32*, align 8
  %0 = alloca i8*, align 8
  %self.dbg.spill24 = alloca i8*, align 8
  %ptr.dbg.spill = alloca i32*, align 8
  %1 = alloca i32*, align 8
  %self.dbg.spill22 = alloca i32*, align 8
  %self.dbg.spill21 = alloca i32*, align 8
  %old.dbg.spill = alloca i32*, align 8
  %self.dbg.spill19 = alloca i32*, align 8
  %self.dbg.spill17 = alloca { i32*, i32* }*, align 8
  %self.dbg.spill16 = alloca i32*, align 8
  %2 = alloca i8, align 1
  %other.dbg.spill14 = alloca i8*, align 8
  %data_address.dbg.spill12 = alloca {}*, align 8
  %3 = alloca {}*, align 8
  %self.dbg.spill10 = alloca i8*, align 8
  %self.dbg.spill8 = alloca i32*, align 8
  %4 = alloca i8, align 1
  %other.dbg.spill = alloca i8*, align 8
  %data_address.dbg.spill = alloca {}*, align 8
  %5 = alloca {}*, align 8
  %self.dbg.spill6 = alloca i8*, align 8
  %self.dbg.spill4 = alloca i32*, align 8
  %self.dbg.spill3 = alloca i32*, align 8
  %metadata.dbg.spill1 = alloca {}, align 1
  %metadata.dbg.spill = alloca {}, align 1
  %self.dbg.spill = alloca { i32*, i32* }*, align 8
  %_62 = alloca i32*, align 8
  %_47 = alloca %"core::ptr::metadata::PtrComponents<u8>", align 8
  %_46 = alloca %"core::ptr::metadata::PtrRepr<u8>", align 8
  %_30 = alloca %"core::ptr::metadata::PtrComponents<u8>", align 8
  %_29 = alloca %"core::ptr::metadata::PtrRepr<u8>", align 8
  %_19 = alloca i32*, align 8
  %6 = alloca i32*, align 8
  store { i32*, i32* }* %self, { i32*, i32* }** %self.dbg.spill, align 8
  call void @llvm.dbg.declare(metadata { i32*, i32* }** %self.dbg.spill, metadata !1477, metadata !DIExpression()), !dbg !1478
  call void @llvm.dbg.declare(metadata {}* %metadata.dbg.spill, metadata !1479, metadata !DIExpression()), !dbg !1488
  call void @llvm.dbg.declare(metadata {}* %metadata.dbg.spill1, metadata !1504, metadata !DIExpression()), !dbg !1509
  %7 = bitcast { i32*, i32* }* %self to i32**, !dbg !1503
  %self2 = load i32*, i32** %7, align 8, !dbg !1503, !nonnull !23, !noundef !23
  store i32* %self2, i32** %self.dbg.spill3, align 8, !dbg !1503
  call void @llvm.dbg.declare(metadata i32** %self.dbg.spill3, metadata !1518, metadata !DIExpression()), !dbg !1524
  store i32* %self2, i32** %self.dbg.spill4, align 8, !dbg !1524
  call void @llvm.dbg.declare(metadata i32** %self.dbg.spill4, metadata !1501, metadata !DIExpression()), !dbg !1525
  %self5 = bitcast i32* %self2 to i8*, !dbg !1525
  store i8* %self5, i8** %self.dbg.spill6, align 8, !dbg !1525
  call void @llvm.dbg.declare(metadata i8** %self.dbg.spill6, metadata !1526, metadata !DIExpression()), !dbg !1533
  %8 = bitcast {}** %5 to i64*, !dbg !1535
  store i64 0, i64* %8, align 8, !dbg !1535
  %data_address = load {}*, {}** %5, align 8, !dbg !1535
  store {}* %data_address, {}** %data_address.dbg.spill, align 8, !dbg !1535
  call void @llvm.dbg.declare(metadata {}** %data_address.dbg.spill, metadata !1487, metadata !DIExpression()), !dbg !1488
  br label %bb9, !dbg !1535

bb9:                                              ; preds = %start
  %9 = bitcast %"core::ptr::metadata::PtrComponents<u8>"* %_30 to {}**, !dbg !1488
  store {}* %data_address, {}** %9, align 8, !dbg !1488
  %10 = bitcast %"core::ptr::metadata::PtrRepr<u8>"* %_29 to %"core::ptr::metadata::PtrComponents<u8>"*, !dbg !1488
  %11 = bitcast %"core::ptr::metadata::PtrComponents<u8>"* %10 to i8*, !dbg !1488
  %12 = bitcast %"core::ptr::metadata::PtrComponents<u8>"* %_30 to i8*, !dbg !1488
  call void @llvm.memcpy.p0i8.p0i8.i64(i8* align 8 %11, i8* align 8 %12, i64 8, i1 false), !dbg !1488
  %13 = bitcast %"core::ptr::metadata::PtrRepr<u8>"* %_29 to i8**, !dbg !1488
  %other = load i8*, i8** %13, align 8, !dbg !1488
  store i8* %other, i8** %other.dbg.spill, align 8, !dbg !1488
  call void @llvm.dbg.declare(metadata i8** %other.dbg.spill, metadata !1532, metadata !DIExpression()), !dbg !1533
  %14 = icmp eq i8* %self5, %other, !dbg !1533
  %15 = zext i1 %14 to i8, !dbg !1533
  store i8 %15, i8* %4, align 1, !dbg !1533
  %16 = load i8, i8* %4, align 1, !dbg !1533, !range !423, !noundef !23
  %_4 = trunc i8 %16 to i1, !dbg !1533
  br label %bb10, !dbg !1533

bb10:                                             ; preds = %bb9
  %_3 = xor i1 %_4, true, !dbg !1543
  call void @llvm.assume(i1 %_3), !dbg !1544
  br label %bb1, !dbg !1544

bb1:                                              ; preds = %bb10
  br i1 false, label %bb4, label %bb2, !dbg !1545

bb4:                                              ; preds = %bb1
  br label %bb5, !dbg !1546

bb2:                                              ; preds = %bb1
  %17 = getelementptr inbounds { i32*, i32* }, { i32*, i32* }* %self, i32 0, i32 1, !dbg !1517
  %self7 = load i32*, i32** %17, align 8, !dbg !1517
  store i32* %self7, i32** %self.dbg.spill8, align 8, !dbg !1517
  call void @llvm.dbg.declare(metadata i32** %self.dbg.spill8, metadata !1515, metadata !DIExpression()), !dbg !1547
  %self9 = bitcast i32* %self7 to i8*, !dbg !1547
  store i8* %self9, i8** %self.dbg.spill10, align 8, !dbg !1547
  call void @llvm.dbg.declare(metadata i8** %self.dbg.spill10, metadata !1548, metadata !DIExpression()), !dbg !1553
  %18 = bitcast {}** %3 to i64*, !dbg !1555
  store i64 0, i64* %18, align 8, !dbg !1555
  %data_address11 = load {}*, {}** %3, align 8, !dbg !1555
  store {}* %data_address11, {}** %data_address.dbg.spill12, align 8, !dbg !1555
  call void @llvm.dbg.declare(metadata {}** %data_address.dbg.spill12, metadata !1508, metadata !DIExpression()), !dbg !1509
  br label %bb11, !dbg !1555

bb11:                                             ; preds = %bb2
  %19 = bitcast %"core::ptr::metadata::PtrComponents<u8>"* %_47 to {}**, !dbg !1509
  store {}* %data_address11, {}** %19, align 8, !dbg !1509
  %20 = bitcast %"core::ptr::metadata::PtrRepr<u8>"* %_46 to %"core::ptr::metadata::PtrComponents<u8>"*, !dbg !1509
  %21 = bitcast %"core::ptr::metadata::PtrComponents<u8>"* %20 to i8*, !dbg !1509
  %22 = bitcast %"core::ptr::metadata::PtrComponents<u8>"* %_47 to i8*, !dbg !1509
  call void @llvm.memcpy.p0i8.p0i8.i64(i8* align 8 %21, i8* align 8 %22, i64 8, i1 false), !dbg !1509
  %23 = bitcast %"core::ptr::metadata::PtrRepr<u8>"* %_46 to i8**, !dbg !1509
  %other13 = load i8*, i8** %23, align 8, !dbg !1509
  store i8* %other13, i8** %other.dbg.spill14, align 8, !dbg !1509
  call void @llvm.dbg.declare(metadata i8** %other.dbg.spill14, metadata !1552, metadata !DIExpression()), !dbg !1553
  %24 = icmp eq i8* %self9, %other13, !dbg !1553
  %25 = zext i1 %24 to i8, !dbg !1553
  store i8 %25, i8* %2, align 1, !dbg !1553
  %26 = load i8, i8* %2, align 1, !dbg !1553, !range !423, !noundef !23
  %_10 = trunc i8 %26 to i1, !dbg !1553
  br label %bb12, !dbg !1553

bb12:                                             ; preds = %bb11
  %_9 = xor i1 %_10, true, !dbg !1561
  call void @llvm.assume(i1 %_9), !dbg !1562
  br label %bb3, !dbg !1562

bb3:                                              ; preds = %bb12
  br label %bb5, !dbg !1546

bb5:                                              ; preds = %bb4, %bb3
  %27 = bitcast { i32*, i32* }* %self to i32**, !dbg !1563
  %self15 = load i32*, i32** %27, align 8, !dbg !1563, !nonnull !23, !noundef !23
  store i32* %self15, i32** %self.dbg.spill16, align 8, !dbg !1563
  call void @llvm.dbg.declare(metadata i32** %self.dbg.spill16, metadata !1564, metadata !DIExpression()), !dbg !1568
  %28 = getelementptr inbounds { i32*, i32* }, { i32*, i32* }* %self, i32 0, i32 1, !dbg !1563
  %_16 = load i32*, i32** %28, align 8, !dbg !1563
  %_12 = icmp eq i32* %self15, %_16, !dbg !1563
  br i1 %_12, label %bb6, label %bb7, !dbg !1563

bb7:                                              ; preds = %bb5
  store { i32*, i32* }* %self, { i32*, i32* }** %self.dbg.spill17, align 8, !dbg !1570
  call void @llvm.dbg.declare(metadata { i32*, i32* }** %self.dbg.spill17, metadata !1571, metadata !DIExpression()), !dbg !1579
  br i1 false, label %bb13, label %bb14, !dbg !1579

bb6:                                              ; preds = %bb5
  %29 = bitcast i32** %6 to {}**, !dbg !1581
  store {}* null, {}** %29, align 8, !dbg !1581
  br label %bb8, !dbg !1582

bb8:                                              ; preds = %bb15, %bb6
  %30 = load i32*, i32** %6, align 8, !dbg !1583, !align !263
  ret i32* %30, !dbg !1583

bb13:                                             ; preds = %bb7
  %31 = getelementptr inbounds { i32*, i32* }, { i32*, i32* }* %self, i32 0, i32 1, !dbg !1579
  %_56 = load i32*, i32** %31, align 8, !dbg !1579
  %self23 = bitcast i32* %_56 to i8*, !dbg !1579
  store i8* %self23, i8** %self.dbg.spill24, align 8, !dbg !1579
  call void @llvm.dbg.declare(metadata i8** %self.dbg.spill24, metadata !1584, metadata !DIExpression()), !dbg !1589
  %32 = getelementptr i8, i8* %self23, i64 -1, !dbg !1589
  store i8* %32, i8** %0, align 8, !dbg !1589
  %_54 = load i8*, i8** %0, align 8, !dbg !1589
  br label %bb16, !dbg !1589

bb14:                                             ; preds = %bb7
  %33 = bitcast { i32*, i32* }* %self to i32**, !dbg !1579
  %self18 = load i32*, i32** %33, align 8, !dbg !1579, !nonnull !23, !noundef !23
  store i32* %self18, i32** %self.dbg.spill19, align 8, !dbg !1579
  call void @llvm.dbg.declare(metadata i32** %self.dbg.spill19, metadata !1591, metadata !DIExpression()), !dbg !1595
  store i32* %self18, i32** %old.dbg.spill, align 8, !dbg !1595
  call void @llvm.dbg.declare(metadata i32** %old.dbg.spill, metadata !1577, metadata !DIExpression()), !dbg !1597
  %34 = bitcast { i32*, i32* }* %self to i32**, !dbg !1597
  %self20 = load i32*, i32** %34, align 8, !dbg !1597, !nonnull !23, !noundef !23
  store i32* %self20, i32** %self.dbg.spill21, align 8, !dbg !1597
  call void @llvm.dbg.declare(metadata i32** %self.dbg.spill21, metadata !1598, metadata !DIExpression()), !dbg !1602
  store i32* %self20, i32** %self.dbg.spill22, align 8, !dbg !1602
  call void @llvm.dbg.declare(metadata i32** %self.dbg.spill22, metadata !1604, metadata !DIExpression()), !dbg !1611
  %35 = getelementptr inbounds i32, i32* %self20, i64 1, !dbg !1611
  store i32* %35, i32** %1, align 8, !dbg !1611
  %_73 = load i32*, i32** %1, align 8, !dbg !1611
  br label %bb17, !dbg !1611

bb17:                                             ; preds = %bb14
  store i32* %_73, i32** %ptr.dbg.spill, align 8, !dbg !1611
  call void @llvm.dbg.declare(metadata i32** %ptr.dbg.spill, metadata !1612, metadata !DIExpression()), !dbg !1616
  store i32* %_73, i32** %_62, align 8, !dbg !1616
  %36 = bitcast { i32*, i32* }* %self to i32**, !dbg !1597
  %37 = load i32*, i32** %_62, align 8, !dbg !1597, !nonnull !23, !noundef !23
  store i32* %37, i32** %36, align 8, !dbg !1597
  store i32* %self18, i32** %_19, align 8, !dbg !1597
  br label %bb15, !dbg !1579

bb15:                                             ; preds = %bb16, %bb17
  %_18 = load i32*, i32** %_19, align 8, !dbg !1570
  store i32* %_18, i32** %6, align 8, !dbg !1618
  br label %bb8, !dbg !1582

bb16:                                             ; preds = %bb13
  %38 = getelementptr inbounds { i32*, i32* }, { i32*, i32* }* %self, i32 0, i32 1, !dbg !1579
  %39 = bitcast i8* %_54 to i32*, !dbg !1579
  store i32* %39, i32** %38, align 8, !dbg !1579
  %40 = bitcast { i32*, i32* }* %self to i32**, !dbg !1579
  %self25 = load i32*, i32** %40, align 8, !dbg !1579, !nonnull !23, !noundef !23
  store i32* %self25, i32** %self.dbg.spill26, align 8, !dbg !1579
  call void @llvm.dbg.declare(metadata i32** %self.dbg.spill26, metadata !1619, metadata !DIExpression()), !dbg !1623
  store i32* %self25, i32** %_19, align 8, !dbg !1579
  br label %bb15, !dbg !1579
}

; <core::ops::range::RangeFull as core::slice::index::SliceIndex<[T]>>::index
; Function Attrs: inlinehint nonlazybind uwtable
define internal { [0 x i32]*, i64 } @"_ZN97_$LT$core..ops..range..RangeFull$u20$as$u20$core..slice..index..SliceIndex$LT$$u5b$T$u5d$$GT$$GT$5index17hcbae90a2a5b48349E"([0 x i32]* align 4 %slice.0, i64 %slice.1, %"core::panic::location::Location"* align 8 %0) unnamed_addr #2 !dbg !1625 {
start:
  %slice.dbg.spill = alloca { [0 x i32]*, i64 }, align 8
  %self.dbg.spill = alloca %"core::ops::range::RangeFull", align 1
  call void @llvm.dbg.declare(metadata %"core::ops::range::RangeFull"* %self.dbg.spill, metadata !1627, metadata !DIExpression()), !dbg !1629
  %1 = getelementptr inbounds { [0 x i32]*, i64 }, { [0 x i32]*, i64 }* %slice.dbg.spill, i32 0, i32 0
  store [0 x i32]* %slice.0, [0 x i32]** %1, align 8
  %2 = getelementptr inbounds { [0 x i32]*, i64 }, { [0 x i32]*, i64 }* %slice.dbg.spill, i32 0, i32 1
  store i64 %slice.1, i64* %2, align 8
  call void @llvm.dbg.declare(metadata { [0 x i32]*, i64 }* %slice.dbg.spill, metadata !1628, metadata !DIExpression()), !dbg !1630
  %3 = insertvalue { [0 x i32]*, i64 } undef, [0 x i32]* %slice.0, 0, !dbg !1631
  %4 = insertvalue { [0 x i32]*, i64 } %3, i64 %slice.1, 1, !dbg !1631
  ret { [0 x i32]*, i64 } %4, !dbg !1631
}

; Function Attrs: nonlazybind uwtable
define dso_local i32 @rust_intval(i8 signext %c) unnamed_addr #1 !dbg !1632 {
start:
  %c.dbg.spill = alloca i8, align 1
  store i8 %c, i8* %c.dbg.spill, align 1
  call void @llvm.dbg.declare(metadata i8* %c.dbg.spill, metadata !1636, metadata !DIExpression()), !dbg !1637
  %0 = sext i8 %c to i32, !dbg !1638
  ret i32 %0, !dbg !1639
}

; Function Attrs: nonlazybind uwtable
define dso_local i32 @rust_negintval(i8 signext %c) unnamed_addr #1 !dbg !1640 {
start:
  %c.dbg.spill = alloca i8, align 1
  store i8 %c, i8* %c.dbg.spill, align 1
  call void @llvm.dbg.declare(metadata i8* %c.dbg.spill, metadata !1642, metadata !DIExpression()), !dbg !1643
  %_2 = sext i8 %c to i32, !dbg !1644
  %_4 = icmp eq i32 %_2, -2147483648, !dbg !1645
  %0 = call i1 @llvm.expect.i1(i1 %_4, i1 false), !dbg !1645
  br i1 %0, label %panic, label %bb1, !dbg !1645

bb1:                                              ; preds = %start
  %1 = sub i32 0, %_2, !dbg !1645
  ret i32 %1, !dbg !1646

panic:                                            ; preds = %start
; call core::panicking::panic
  call void @_ZN4core9panicking5panic17hf5844c0338bd061cE([0 x i8]* align 1 bitcast ([31 x i8]* @str.5 to [0 x i8]*), i64 31, %"core::panic::location::Location"* align 8 bitcast (<{ i8*, [16 x i8] }>* @alloc328 to %"core::panic::location::Location"*)) #15, !dbg !1645
  unreachable, !dbg !1645
}

; Function Attrs: nonlazybind uwtable
define dso_local i32 @rust_varargs_intval(i8 signext %c, ...) unnamed_addr #1 !dbg !1647 {
start:
  %c.dbg.spill = alloca i8, align 1
  %args = alloca %"core::ffi::VaListImpl", align 8
  %0 = bitcast %"core::ffi::VaListImpl"* %args to i8*
  call void @llvm.va_start(i8* %0)
  store i8 %c, i8* %c.dbg.spill, align 1
  call void @llvm.dbg.declare(metadata i8* %c.dbg.spill, metadata !1649, metadata !DIExpression()), !dbg !1651
  call void @llvm.dbg.declare(metadata %"core::ffi::VaListImpl"* %args, metadata !1650, metadata !DIExpression()), !dbg !1652
  %1 = sext i8 %c to i32, !dbg !1653
; call core::ptr::drop_in_place<core::ffi::VaListImpl>
  call void @"_ZN4core3ptr42drop_in_place$LT$core..ffi..VaListImpl$GT$17h96c49c1d0bc83d4dE"(%"core::ffi::VaListImpl"* %args), !dbg !1654
  br label %bb1, !dbg !1654

bb1:                                              ; preds = %start
  %2 = bitcast %"core::ffi::VaListImpl"* %args to i8*, !dbg !1655
  call void @llvm.va_end(i8* %2), !dbg !1655
  ret i32 %1, !dbg !1655
}

; Function Attrs: nonlazybind uwtable
define dso_local i32 @rust_varargs_fp(i32 %c, ...) unnamed_addr #1 personality i32 (i32, i32, i64, %"unwind::libunwind::_Unwind_Exception"*, %"unwind::libunwind::_Unwind_Context"*)* @rust_eh_personality !dbg !1656 {
start:
  %fp.dbg.spill = alloca i64*, align 8
  %0 = alloca i64*, align 8
  %1 = alloca { i8*, i32 }, align 8
  %c.dbg.spill = alloca i32, align 4
  %_15 = alloca i8, align 1
  %_4 = alloca %"core::ffi::VaListImpl", align 8
  %arg = alloca %"core::ffi::VaListImpl", align 8
  %args = alloca %"core::ffi::VaListImpl", align 8
  %2 = bitcast %"core::ffi::VaListImpl"* %args to i8*
  call void @llvm.va_start(i8* %2)
  store i32 %c, i32* %c.dbg.spill, align 4
  call void @llvm.dbg.declare(metadata i32* %c.dbg.spill, metadata !1660, metadata !DIExpression()), !dbg !1666
  call void @llvm.dbg.declare(metadata %"core::ffi::VaListImpl"* %args, metadata !1661, metadata !DIExpression()), !dbg !1667
  call void @llvm.dbg.declare(metadata %"core::ffi::VaListImpl"* %arg, metadata !1662, metadata !DIExpression()), !dbg !1668
  store i8 0, i8* %_15, align 1, !dbg !1669
; invoke <core::ffi::VaListImpl as core::clone::Clone>::clone
  invoke void @"_ZN60_$LT$core..ffi..VaListImpl$u20$as$u20$core..clone..Clone$GT$5clone17h0bdeeab0be385cfdE"(%"core::ffi::VaListImpl"* sret(%"core::ffi::VaListImpl") %_4, %"core::ffi::VaListImpl"* align 8 %args)
          to label %bb1 unwind label %cleanup, !dbg !1670

bb11:                                             ; preds = %cleanup
  %3 = load i8, i8* %_15, align 1, !dbg !1671, !range !423, !noundef !23
  %4 = trunc i8 %3 to i1, !dbg !1671
  br i1 %4, label %bb10, label %bb8, !dbg !1671

cleanup:                                          ; preds = %bb4, %bb3, %bb1, %start
  %5 = landingpad { i8*, i32 }
          cleanup
  %6 = extractvalue { i8*, i32 } %5, 0
  %7 = extractvalue { i8*, i32 } %5, 1
  %8 = getelementptr inbounds { i8*, i32 }, { i8*, i32 }* %1, i32 0, i32 0
  store i8* %6, i8** %8, align 8
  %9 = getelementptr inbounds { i8*, i32 }, { i8*, i32 }* %1, i32 0, i32 1
  store i32 %7, i32* %9, align 8
  br label %bb11

bb1:                                              ; preds = %start
  store i8 1, i8* %_15, align 1, !dbg !1672
  %10 = bitcast %"core::ffi::VaListImpl"* %arg to i8*, !dbg !1672
  %11 = bitcast %"core::ffi::VaListImpl"* %_4 to i8*, !dbg !1672
  call void @llvm.memcpy.p0i8.p0i8.i64(i8* align 8 %10, i8* align 8 %11, i64 24, i1 false), !dbg !1672
; invoke core::ffi::VaListImpl::arg
  %_7 = invoke i32 (i8)** @_ZN4core3ffi10VaListImpl3arg17h415d4a67e3abf359E(%"core::ffi::VaListImpl"* align 8 %arg)
          to label %bb2 unwind label %cleanup, !dbg !1673

bb2:                                              ; preds = %bb1
  %12 = bitcast i32 (i8)** %_7 to i64*, !dbg !1674
  store i64* %12, i64** %0, align 8, !dbg !1674
  %fp = load i64*, i64** %0, align 8, !dbg !1674
  store i64* %fp, i64** %fp.dbg.spill, align 8, !dbg !1674
  call void @llvm.dbg.declare(metadata i64** %fp.dbg.spill, metadata !1664, metadata !DIExpression()), !dbg !1675
  br label %bb3, !dbg !1674

bb3:                                              ; preds = %bb2
; invoke core::option::Option<T>::expect
  %_9 = invoke i32 (i8)* @"_ZN4core6option15Option$LT$T$GT$6expect17h916ba81426841b8fE"(i64* %fp, [0 x i8]* align 1 bitcast (<{ [25 x i8] }>* @alloc406 to [0 x i8]*), i64 25, %"core::panic::location::Location"* align 8 bitcast (<{ i8*, [16 x i8] }>* @alloc331 to %"core::panic::location::Location"*))
          to label %bb4 unwind label %cleanup, !dbg !1676

bb4:                                              ; preds = %bb3
  %_13 = trunc i32 %c to i8, !dbg !1677
  %13 = invoke i32 %_9(i8 signext %_13)
          to label %bb5 unwind label %cleanup, !dbg !1676

bb5:                                              ; preds = %bb4
; invoke core::ptr::drop_in_place<core::ffi::VaListImpl>
  invoke void @"_ZN4core3ptr42drop_in_place$LT$core..ffi..VaListImpl$GT$17h96c49c1d0bc83d4dE"(%"core::ffi::VaListImpl"* %arg)
          to label %bb6 unwind label %cleanup1, !dbg !1671

bb8:                                              ; preds = %cleanup1, %bb10, %bb11
; invoke core::ptr::drop_in_place<core::ffi::VaListImpl>
  invoke void @"_ZN4core3ptr42drop_in_place$LT$core..ffi..VaListImpl$GT$17h96c49c1d0bc83d4dE"(%"core::ffi::VaListImpl"* %args) #16
          to label %bb9 unwind label %abort, !dbg !1671

bb10:                                             ; preds = %bb11
; invoke core::ptr::drop_in_place<core::ffi::VaListImpl>
  invoke void @"_ZN4core3ptr42drop_in_place$LT$core..ffi..VaListImpl$GT$17h96c49c1d0bc83d4dE"(%"core::ffi::VaListImpl"* %arg) #16
          to label %bb8 unwind label %abort, !dbg !1671

abort:                                            ; preds = %bb8, %bb10
  %14 = landingpad { i8*, i32 }
          cleanup, !dbg !1678
; call core::panicking::panic_no_unwind
  call void @_ZN4core9panicking15panic_no_unwind17h62f8113f44cbfcbfE() #17, !dbg !1678
  unreachable, !dbg !1678

cleanup1:                                         ; preds = %bb5
  %15 = landingpad { i8*, i32 }
          cleanup
  %16 = extractvalue { i8*, i32 } %15, 0
  %17 = extractvalue { i8*, i32 } %15, 1
  %18 = getelementptr inbounds { i8*, i32 }, { i8*, i32 }* %1, i32 0, i32 0
  store i8* %16, i8** %18, align 8
  %19 = getelementptr inbounds { i8*, i32 }, { i8*, i32 }* %1, i32 0, i32 1
  store i32 %17, i32* %19, align 8
  br label %bb8

bb6:                                              ; preds = %bb5
  store i8 0, i8* %_15, align 1, !dbg !1671
; call core::ptr::drop_in_place<core::ffi::VaListImpl>
  call void @"_ZN4core3ptr42drop_in_place$LT$core..ffi..VaListImpl$GT$17h96c49c1d0bc83d4dE"(%"core::ffi::VaListImpl"* %args), !dbg !1671
  br label %bb7, !dbg !1671

bb9:                                              ; preds = %bb8
  %20 = bitcast { i8*, i32 }* %1 to i8**, !dbg !1678
  %21 = load i8*, i8** %20, align 8, !dbg !1678
  %22 = getelementptr inbounds { i8*, i32 }, { i8*, i32 }* %1, i32 0, i32 1, !dbg !1678
  %23 = load i32, i32* %22, align 8, !dbg !1678
  %24 = insertvalue { i8*, i32 } undef, i8* %21, 0, !dbg !1678
  %25 = insertvalue { i8*, i32 } %24, i32 %23, 1, !dbg !1678
  resume { i8*, i32 } %25, !dbg !1678

bb7:                                              ; preds = %bb6
  %26 = bitcast %"core::ffi::VaListImpl"* %args to i8*, !dbg !1679
  call void @llvm.va_end(i8* %26), !dbg !1679
  ret i32 %13, !dbg !1679
}

; Function Attrs: nonlazybind uwtable
define dso_local void @rust_entry3(i32 %sz, i32* %buffer) unnamed_addr #1 !dbg !1680 {
start:
  %0 = alloca i32*, align 8
  %count.dbg.spill.i67 = alloca i64, align 8
  %self.dbg.spill.i68 = alloca i32*, align 8
  %1 = alloca i32*, align 8
  %count.dbg.spill.i64 = alloca i64, align 8
  %self.dbg.spill.i65 = alloca i32*, align 8
  %2 = alloca i32*, align 8
  %count.dbg.spill.i61 = alloca i64, align 8
  %self.dbg.spill.i62 = alloca i32*, align 8
  %3 = alloca i32*, align 8
  %count.dbg.spill.i58 = alloca i64, align 8
  %self.dbg.spill.i59 = alloca i32*, align 8
  %4 = alloca i32*, align 8
  %count.dbg.spill.i55 = alloca i64, align 8
  %self.dbg.spill.i56 = alloca i32*, align 8
  %5 = alloca i32*, align 8
  %count.dbg.spill.i52 = alloca i64, align 8
  %self.dbg.spill.i53 = alloca i32*, align 8
  %6 = alloca i32*, align 8
  %count.dbg.spill.i49 = alloca i64, align 8
  %self.dbg.spill.i50 = alloca i32*, align 8
  %7 = alloca i32*, align 8
  %count.dbg.spill.i46 = alloca i64, align 8
  %self.dbg.spill.i47 = alloca i32*, align 8
  %8 = alloca i32*, align 8
  %count.dbg.spill.i43 = alloca i64, align 8
  %self.dbg.spill.i44 = alloca i32*, align 8
  %9 = alloca i32*, align 8
  %count.dbg.spill.i40 = alloca i64, align 8
  %self.dbg.spill.i41 = alloca i32*, align 8
  %10 = alloca i32*, align 8
  %count.dbg.spill.i37 = alloca i64, align 8
  %self.dbg.spill.i38 = alloca i32*, align 8
  %11 = alloca i32*, align 8
  %count.dbg.spill.i34 = alloca i64, align 8
  %self.dbg.spill.i35 = alloca i32*, align 8
  %12 = alloca i32*, align 8
  %count.dbg.spill.i31 = alloca i64, align 8
  %self.dbg.spill.i32 = alloca i32*, align 8
  %13 = alloca i32*, align 8
  %count.dbg.spill.i28 = alloca i64, align 8
  %self.dbg.spill.i29 = alloca i32*, align 8
  %14 = alloca i32*, align 8
  %count.dbg.spill.i25 = alloca i64, align 8
  %self.dbg.spill.i26 = alloca i32*, align 8
  %15 = alloca i32*, align 8
  %count.dbg.spill.i22 = alloca i64, align 8
  %self.dbg.spill.i23 = alloca i32*, align 8
  %16 = alloca i32*, align 8
  %count.dbg.spill.i = alloca i64, align 8
  %self.dbg.spill.i = alloca i32*, align 8
  %fresh14.dbg.spill = alloca i32, align 4
  %fresh13.dbg.spill = alloca i32, align 4
  %fresh12.dbg.spill = alloca i32, align 4
  %17 = alloca i32 (i32)*, align 8
  %fresh11.dbg.spill = alloca i32, align 4
  %18 = alloca i32 (i32)*, align 8
  %fresh10.dbg.spill = alloca i32, align 4
  %19 = alloca i32 (i32)*, align 8
  %fresh9.dbg.spill = alloca i32, align 4
  %20 = alloca i64*, align 8
  %p13.dbg.spill = alloca i64*, align 8
  %21 = alloca i64*, align 8
  %p12.dbg.spill = alloca i64*, align 8
  %22 = alloca i64*, align 8
  %p11.dbg.spill = alloca i64*, align 8
  %23 = alloca i64*, align 8
  %fresh8.dbg.spill = alloca i32, align 4
  %fresh7.dbg.spill = alloca i32, align 4
  %p10.dbg.spill = alloca i64*, align 8
  %24 = alloca i64*, align 8
  %p9.dbg.spill = alloca i64*, align 8
  %25 = alloca i64*, align 8
  %fresh6.dbg.spill = alloca i32, align 4
  %fresh5.dbg.spill = alloca i32, align 4
  %fresh4.dbg.spill = alloca i32, align 4
  %fresh3.dbg.spill = alloca i32, align 4
  %fresh2.dbg.spill = alloca i32, align 4
  %fresh1.dbg.spill = alloca i32, align 4
  %fresh0.dbg.spill = alloca i32, align 4
  %buffer.dbg.spill = alloca i32*, align 8
  %sz.dbg.spill = alloca i32, align 4
  %_297 = alloca i64*, align 8
  %_270 = alloca i64*, align 8
  %_234 = alloca i64*, align 8
  %s = alloca %"function_pointers::pointer_st", align 8
  %_230 = alloca i64*, align 8
  %_227 = alloca i64*, align 8
  %_192 = alloca i64*, align 8
  %_178 = alloca i64*, align 8
  %p8 = alloca i64*, align 8
  %j_0 = alloca i32, align 4
  %_88 = alloca i32, align 4
  %j = alloca i32, align 4
  %_77 = alloca i64*, align 8
  %_75 = alloca i64*, align 8
  %_73 = alloca i64*, align 8
  %funs = alloca [3 x i64*], align 8
  %_59 = alloca i64*, align 8
  %_48 = alloca i8, align 1
  %_47 = alloca i8, align 1
  %_46 = alloca i8, align 1
  %_44 = alloca i64*, align 8
  %_42 = alloca i64*, align 8
  %p7 = alloca i64*, align 8
  %p6 = alloca i64*, align 8
  %p5 = alloca i64*, align 8
  %p4 = alloca i64*, align 8
  %_16 = alloca i8, align 1
  %_15 = alloca i8, align 1
  %_14 = alloca i8, align 1
  %_12 = alloca i64*, align 8
  %_10 = alloca i64*, align 8
  %p3 = alloca i64*, align 8
  %p2 = alloca i64*, align 8
  %p1 = alloca i64*, align 8
  %p0 = alloca i64*, align 8
  %i = alloca i32, align 4
  store i32 %sz, i32* %sz.dbg.spill, align 4
  call void @llvm.dbg.declare(metadata i32* %sz.dbg.spill, metadata !1684, metadata !DIExpression()), !dbg !1758
  store i32* %buffer, i32** %buffer.dbg.spill, align 8
  call void @llvm.dbg.declare(metadata i32** %buffer.dbg.spill, metadata !1685, metadata !DIExpression()), !dbg !1759
  call void @llvm.dbg.declare(metadata i32* %i, metadata !1686, metadata !DIExpression()), !dbg !1760
  call void @llvm.dbg.declare(metadata i64** %p0, metadata !1688, metadata !DIExpression()), !dbg !1761
  call void @llvm.dbg.declare(metadata i64** %p1, metadata !1690, metadata !DIExpression()), !dbg !1762
  call void @llvm.dbg.declare(metadata i64** %p2, metadata !1692, metadata !DIExpression()), !dbg !1763
  call void @llvm.dbg.declare(metadata i64** %p3, metadata !1694, metadata !DIExpression()), !dbg !1764
  call void @llvm.dbg.declare(metadata i64** %p4, metadata !1696, metadata !DIExpression()), !dbg !1765
  call void @llvm.dbg.declare(metadata i64** %p5, metadata !1698, metadata !DIExpression()), !dbg !1766
  call void @llvm.dbg.declare(metadata i64** %p6, metadata !1700, metadata !DIExpression()), !dbg !1767
  call void @llvm.dbg.declare(metadata i64** %p7, metadata !1702, metadata !DIExpression()), !dbg !1768
  call void @llvm.dbg.declare(metadata [3 x i64*]* %funs, metadata !1704, metadata !DIExpression()), !dbg !1769
  call void @llvm.dbg.declare(metadata i32* %j, metadata !1707, metadata !DIExpression()), !dbg !1770
  call void @llvm.dbg.declare(metadata i32* %j_0, metadata !1719, metadata !DIExpression()), !dbg !1771
  call void @llvm.dbg.declare(metadata i64** %p8, metadata !1721, metadata !DIExpression()), !dbg !1772
  call void @llvm.dbg.declare(metadata %"function_pointers::pointer_st"* %s, metadata !1741, metadata !DIExpression()), !dbg !1773
  store i32 0, i32* %i, align 4, !dbg !1774
  %26 = bitcast i64** %p0 to {}**, !dbg !1775
  store {}* null, {}** %26, align 8, !dbg !1775
  %27 = bitcast i64** %p1 to {}**, !dbg !1776
  store {}* null, {}** %27, align 8, !dbg !1776
  %28 = bitcast i64** %p2 to i32 (i8)**, !dbg !1777
  store i32 (i8)* @rust_intval, i32 (i8)** %28, align 8, !dbg !1777
  %29 = bitcast i64** %p3 to i32 (i8)**, !dbg !1778
  store i32 (i8)* @rust_intval, i32 (i8)** %29, align 8, !dbg !1778
  %30 = bitcast i64** %_10 to i32 (i8)**, !dbg !1779
  store i32 (i8)* @rust_intval, i32 (i8)** %30, align 8, !dbg !1779
  %31 = load i64*, i64** %_10, align 8, !dbg !1780
  store i64* %31, i64** %p3, align 8, !dbg !1780
  %32 = bitcast i64** %_12 to i32 (i8)**, !dbg !1781
  store i32 (i8)* @rust_intval, i32 (i8)** %32, align 8, !dbg !1781
  %33 = load i64*, i64** %_12, align 8, !dbg !1782
  store i64* %33, i64** %p3, align 8, !dbg !1782
; call core::option::Option<T>::is_none
  %_17 = call zeroext i1 @"_ZN4core6option15Option$LT$T$GT$7is_none17h2ff31c5d7a594d8bE"(i64** align 8 %p1), !dbg !1783
  br label %bb10, !dbg !1783

bb10:                                             ; preds = %start
  br i1 %_17, label %bb8, label %bb7, !dbg !1783

bb7:                                              ; preds = %bb10
  store i8 0, i8* %_16, align 1, !dbg !1783
  br label %bb9, !dbg !1783

bb8:                                              ; preds = %bb10
; call core::option::Option<T>::is_some
  %_19 = call zeroext i1 @"_ZN4core6option15Option$LT$T$GT$7is_some17hd2e2efccfdbffb07E"(i64** align 8 %p3), !dbg !1784
  br label %bb11, !dbg !1784

bb11:                                             ; preds = %bb8
  %34 = zext i1 %_19 to i8, !dbg !1783
  store i8 %34, i8* %_16, align 1, !dbg !1783
  br label %bb9, !dbg !1783

bb9:                                              ; preds = %bb7, %bb11
  %35 = load i8, i8* %_16, align 1, !dbg !1783, !range !423, !noundef !23
  %36 = trunc i8 %35 to i1, !dbg !1783
  br i1 %36, label %bb5, label %bb4, !dbg !1783

bb4:                                              ; preds = %bb9
  store i8 0, i8* %_15, align 1, !dbg !1783
  br label %bb6, !dbg !1783

bb5:                                              ; preds = %bb9
; call core::option::Option<T>::is_some
  %_21 = call zeroext i1 @"_ZN4core6option15Option$LT$T$GT$7is_some17hd2e2efccfdbffb07E"(i64** align 8 %p3), !dbg !1785
  br label %bb12, !dbg !1785

bb12:                                             ; preds = %bb5
  %37 = zext i1 %_21 to i8, !dbg !1783
  store i8 %37, i8* %_15, align 1, !dbg !1783
  br label %bb6, !dbg !1783

bb6:                                              ; preds = %bb4, %bb12
  %38 = load i8, i8* %_15, align 1, !dbg !1783, !range !423, !noundef !23
  %39 = trunc i8 %38 to i1, !dbg !1783
  br i1 %39, label %bb2, label %bb1, !dbg !1783

bb1:                                              ; preds = %bb6
  store i8 0, i8* %_14, align 1, !dbg !1783
  br label %bb3, !dbg !1783

bb2:                                              ; preds = %bb6
; call core::option::Option<T>::is_some
  %_23 = call zeroext i1 @"_ZN4core6option15Option$LT$T$GT$7is_some17hd2e2efccfdbffb07E"(i64** align 8 %p3), !dbg !1786
  br label %bb13, !dbg !1786

bb13:                                             ; preds = %bb2
  %40 = zext i1 %_23 to i8, !dbg !1783
  store i8 %40, i8* %_14, align 1, !dbg !1783
  br label %bb3, !dbg !1783

bb3:                                              ; preds = %bb1, %bb13
  %41 = load i8, i8* %_14, align 1, !dbg !1783, !range !423, !noundef !23
  %42 = trunc i8 %41 to i1, !dbg !1783
  br i1 %42, label %bb14, label %bb18, !dbg !1783

bb18:                                             ; preds = %bb17, %bb3
  %43 = load i32, i32* %i, align 4, !dbg !1787
  %44 = call { i32, i1 } @llvm.sadd.with.overflow.i32(i32 %43, i32 1), !dbg !1787
  %_35.0 = extractvalue { i32, i1 } %44, 0, !dbg !1787
  %_35.1 = extractvalue { i32, i1 } %44, 1, !dbg !1787
  %45 = call i1 @llvm.expect.i1(i1 %_35.1, i1 false), !dbg !1787
  br i1 %45, label %panic, label %bb19, !dbg !1787

bb14:                                             ; preds = %bb3
  %_27 = load i64*, i64** %p3, align 8, !dbg !1788
; call core::option::Option<T>::expect
  %_26 = call i32 (i8)* @"_ZN4core6option15Option$LT$T$GT$6expect17h916ba81426841b8fE"(i64* %_27, [0 x i8]* align 1 bitcast (<{ [25 x i8] }>* @alloc406 to [0 x i8]*), i64 25, %"core::panic::location::Location"* align 8 bitcast (<{ i8*, [16 x i8] }>* @alloc334 to %"core::panic::location::Location"*)), !dbg !1788
  br label %bb15, !dbg !1788

bb15:                                             ; preds = %bb14
  %_25 = call i32 %_26(i8 signext 97), !dbg !1788
  br label %bb16, !dbg !1788

bb16:                                             ; preds = %bb15
  %_34 = load i32, i32* %i, align 4, !dbg !1789
  %_33 = sext i32 %_34 to i64, !dbg !1789
  store i32* %buffer, i32** %self.dbg.spill.i68, align 8
  call void @llvm.dbg.declare(metadata i32** %self.dbg.spill.i68, metadata !1790, metadata !DIExpression()), !dbg !1794
  store i64 %_33, i64* %count.dbg.spill.i67, align 8
  call void @llvm.dbg.declare(metadata i64* %count.dbg.spill.i67, metadata !1793, metadata !DIExpression()), !dbg !1796
  %46 = getelementptr inbounds i32, i32* %buffer, i64 %_33, !dbg !1797
  store i32* %46, i32** %0, align 8, !dbg !1797
  %_3.i69 = load i32*, i32** %0, align 8, !dbg !1797
  br label %bb17, !dbg !1798

bb17:                                             ; preds = %bb16
  store i32 %_25, i32* %_3.i69, align 4, !dbg !1799
  br label %bb18, !dbg !1800

bb19:                                             ; preds = %bb18
  store i32 %_35.0, i32* %i, align 4, !dbg !1787
  %47 = bitcast i64** %p4 to {}**, !dbg !1801
  store {}* null, {}** %47, align 8, !dbg !1801
  %48 = bitcast i64** %p5 to {}**, !dbg !1802
  store {}* null, {}** %48, align 8, !dbg !1802
  %49 = bitcast i64** %p6 to i32 (i8)**, !dbg !1803
  store i32 (i8)* @rust_intval, i32 (i8)** %49, align 8, !dbg !1803
  %50 = bitcast i64** %p7 to i32 (i8)**, !dbg !1804
  store i32 (i8)* @rust_intval, i32 (i8)** %50, align 8, !dbg !1804
  %51 = bitcast i64** %_42 to i32 (i8)**, !dbg !1805
  store i32 (i8)* @rust_intval, i32 (i8)** %51, align 8, !dbg !1805
  %52 = load i64*, i64** %_42, align 8, !dbg !1806
  store i64* %52, i64** %p7, align 8, !dbg !1806
  %53 = bitcast i64** %_44 to i32 (i8)**, !dbg !1807
  store i32 (i8)* @rust_intval, i32 (i8)** %53, align 8, !dbg !1807
  %54 = load i64*, i64** %_44, align 8, !dbg !1808
  store i64* %54, i64** %p7, align 8, !dbg !1808
; call core::option::Option<T>::is_none
  %_49 = call zeroext i1 @"_ZN4core6option15Option$LT$T$GT$7is_none17h2ff31c5d7a594d8bE"(i64** align 8 %p5), !dbg !1809
  br label %bb29, !dbg !1809

panic:                                            ; preds = %bb18
; call core::panicking::panic
  call void @_ZN4core9panicking5panic17hf5844c0338bd061cE([0 x i8]* align 1 bitcast ([28 x i8]* @str.6 to [0 x i8]*), i64 28, %"core::panic::location::Location"* align 8 bitcast (<{ i8*, [16 x i8] }>* @alloc336 to %"core::panic::location::Location"*)) #15, !dbg !1787
  unreachable, !dbg !1787

bb29:                                             ; preds = %bb19
  br i1 %_49, label %bb27, label %bb26, !dbg !1809

bb26:                                             ; preds = %bb29
  store i8 0, i8* %_48, align 1, !dbg !1809
  br label %bb28, !dbg !1809

bb27:                                             ; preds = %bb29
; call core::option::Option<T>::is_some
  %_51 = call zeroext i1 @"_ZN4core6option15Option$LT$T$GT$7is_some17hd2e2efccfdbffb07E"(i64** align 8 %p7), !dbg !1810
  br label %bb30, !dbg !1810

bb30:                                             ; preds = %bb27
  %55 = zext i1 %_51 to i8, !dbg !1809
  store i8 %55, i8* %_48, align 1, !dbg !1809
  br label %bb28, !dbg !1809

bb28:                                             ; preds = %bb26, %bb30
  %56 = load i8, i8* %_48, align 1, !dbg !1809, !range !423, !noundef !23
  %57 = trunc i8 %56 to i1, !dbg !1809
  br i1 %57, label %bb24, label %bb23, !dbg !1809

bb23:                                             ; preds = %bb28
  store i8 0, i8* %_47, align 1, !dbg !1809
  br label %bb25, !dbg !1809

bb24:                                             ; preds = %bb28
; call core::option::Option<T>::is_some
  %_53 = call zeroext i1 @"_ZN4core6option15Option$LT$T$GT$7is_some17hd2e2efccfdbffb07E"(i64** align 8 %p7), !dbg !1811
  br label %bb31, !dbg !1811

bb31:                                             ; preds = %bb24
  %58 = zext i1 %_53 to i8, !dbg !1809
  store i8 %58, i8* %_47, align 1, !dbg !1809
  br label %bb25, !dbg !1809

bb25:                                             ; preds = %bb23, %bb31
  %59 = load i8, i8* %_47, align 1, !dbg !1809, !range !423, !noundef !23
  %60 = trunc i8 %59 to i1, !dbg !1809
  br i1 %60, label %bb21, label %bb20, !dbg !1809

bb20:                                             ; preds = %bb25
  store i8 0, i8* %_46, align 1, !dbg !1809
  br label %bb22, !dbg !1809

bb21:                                             ; preds = %bb25
; call core::option::Option<T>::is_some
  %_55 = call zeroext i1 @"_ZN4core6option15Option$LT$T$GT$7is_some17hd2e2efccfdbffb07E"(i64** align 8 %p7), !dbg !1812
  br label %bb32, !dbg !1812

bb32:                                             ; preds = %bb21
  %61 = zext i1 %_55 to i8, !dbg !1809
  store i8 %61, i8* %_46, align 1, !dbg !1809
  br label %bb22, !dbg !1809

bb22:                                             ; preds = %bb20, %bb32
  %62 = load i8, i8* %_46, align 1, !dbg !1809, !range !423, !noundef !23
  %63 = trunc i8 %62 to i1, !dbg !1809
  br i1 %63, label %bb33, label %bb38, !dbg !1809

bb38:                                             ; preds = %bb37, %bb22
  %64 = load i32, i32* %i, align 4, !dbg !1813
  %65 = call { i32, i1 } @llvm.sadd.with.overflow.i32(i32 %64, i32 1), !dbg !1813
  %_71.0 = extractvalue { i32, i1 } %65, 0, !dbg !1813
  %_71.1 = extractvalue { i32, i1 } %65, 1, !dbg !1813
  %66 = call i1 @llvm.expect.i1(i1 %_71.1, i1 false), !dbg !1813
  br i1 %66, label %panic1, label %bb39, !dbg !1813

bb33:                                             ; preds = %bb22
  %_61 = load i64*, i64** %p7, align 8, !dbg !1814
; call core::option::Option<T>::expect
  %_60 = call i32 (i8)* @"_ZN4core6option15Option$LT$T$GT$6expect17h916ba81426841b8fE"(i64* %_61, [0 x i8]* align 1 bitcast (<{ [25 x i8] }>* @alloc406 to [0 x i8]*), i64 25, %"core::panic::location::Location"* align 8 bitcast (<{ i8*, [16 x i8] }>* @alloc339 to %"core::panic::location::Location"*)), !dbg !1814
  br label %bb34, !dbg !1814

bb34:                                             ; preds = %bb33
  %67 = bitcast i64** %_59 to i32 (i8)**, !dbg !1815
  store i32 (i8)* %_60, i32 (i8)** %67, align 8, !dbg !1815
  %68 = load i64*, i64** %_59, align 8, !dbg !1815
; call core::option::Option<T>::expect
  %_58 = call i32 (i8)* @"_ZN4core6option15Option$LT$T$GT$6expect17h916ba81426841b8fE"(i64* %68, [0 x i8]* align 1 bitcast (<{ [25 x i8] }>* @alloc406 to [0 x i8]*), i64 25, %"core::panic::location::Location"* align 8 bitcast (<{ i8*, [16 x i8] }>* @alloc342 to %"core::panic::location::Location"*)), !dbg !1815
  br label %bb35, !dbg !1815

bb35:                                             ; preds = %bb34
  %_57 = call i32 %_58(i8 signext 97), !dbg !1815
  br label %bb36, !dbg !1815

bb36:                                             ; preds = %bb35
  %_70 = load i32, i32* %i, align 4, !dbg !1816
  %_69 = sext i32 %_70 to i64, !dbg !1816
  store i32* %buffer, i32** %self.dbg.spill.i65, align 8
  call void @llvm.dbg.declare(metadata i32** %self.dbg.spill.i65, metadata !1790, metadata !DIExpression()), !dbg !1817
  store i64 %_69, i64* %count.dbg.spill.i64, align 8
  call void @llvm.dbg.declare(metadata i64* %count.dbg.spill.i64, metadata !1793, metadata !DIExpression()), !dbg !1819
  %69 = getelementptr inbounds i32, i32* %buffer, i64 %_69, !dbg !1820
  store i32* %69, i32** %1, align 8, !dbg !1820
  %_3.i66 = load i32*, i32** %1, align 8, !dbg !1820
  br label %bb37, !dbg !1821

bb37:                                             ; preds = %bb36
  store i32 %_57, i32* %_3.i66, align 4, !dbg !1822
  br label %bb38, !dbg !1823

bb39:                                             ; preds = %bb38
  store i32 %_71.0, i32* %i, align 4, !dbg !1813
  %70 = bitcast i64** %_73 to i32 (i8)**, !dbg !1824
  store i32 (i8)* @rust_intval, i32 (i8)** %70, align 8, !dbg !1824
  %71 = bitcast i64** %_75 to i32 (i8)**, !dbg !1825
  store i32 (i8)* @rust_negintval, i32 (i8)** %71, align 8, !dbg !1825
  %72 = bitcast i64** %_77 to {}**, !dbg !1826
  store {}* null, {}** %72, align 8, !dbg !1826
  %73 = load i64*, i64** %_73, align 8, !dbg !1827
  %74 = getelementptr inbounds [3 x i64*], [3 x i64*]* %funs, i64 0, i64 0, !dbg !1827
  store i64* %73, i64** %74, align 8, !dbg !1827
  %75 = load i64*, i64** %_75, align 8, !dbg !1827
  %76 = getelementptr inbounds [3 x i64*], [3 x i64*]* %funs, i64 0, i64 1, !dbg !1827
  store i64* %75, i64** %76, align 8, !dbg !1827
  %77 = load i64*, i64** %_77, align 8, !dbg !1827
  %78 = getelementptr inbounds [3 x i64*], [3 x i64*]* %funs, i64 0, i64 2, !dbg !1827
  store i64* %77, i64** %78, align 8, !dbg !1827
  store i32 0, i32* %j, align 4, !dbg !1828
  br label %bb40, !dbg !1829

panic1:                                           ; preds = %bb38
; call core::panicking::panic
  call void @_ZN4core9panicking5panic17hf5844c0338bd061cE([0 x i8]* align 1 bitcast ([28 x i8]* @str.6 to [0 x i8]*), i64 28, %"core::panic::location::Location"* align 8 bitcast (<{ i8*, [16 x i8] }>* @alloc344 to %"core::panic::location::Location"*)) #15, !dbg !1813
  unreachable, !dbg !1813

bb40:                                             ; preds = %bb54, %bb39
  %_82 = load i32, i32* %j, align 4, !dbg !1830
  %_81 = sext i32 %_82 to i64, !dbg !1830
  %_84 = icmp ult i64 %_81, 3, !dbg !1831
  %79 = call i1 @llvm.expect.i1(i1 %_84, i1 true), !dbg !1831
  br i1 %79, label %bb41, label %panic2, !dbg !1831

bb41:                                             ; preds = %bb40
  %_80 = getelementptr inbounds [3 x i64*], [3 x i64*]* %funs, i64 0, i64 %_81, !dbg !1831
; call core::option::Option<T>::is_some
  %_79 = call zeroext i1 @"_ZN4core6option15Option$LT$T$GT$7is_some17hd2e2efccfdbffb07E"(i64** align 8 %_80), !dbg !1831
  br label %bb42, !dbg !1831

panic2:                                           ; preds = %bb40
; call core::panicking::panic_bounds_check
  call void @_ZN4core9panicking18panic_bounds_check17h66852fee8138fdc4E(i64 %_81, i64 3, %"core::panic::location::Location"* align 8 bitcast (<{ i8*, [16 x i8] }>* @alloc346 to %"core::panic::location::Location"*)) #15, !dbg !1831
  unreachable, !dbg !1831

bb42:                                             ; preds = %bb41
  br i1 %_79, label %bb43, label %bb55, !dbg !1831

bb55:                                             ; preds = %bb42
  %fresh1 = load i32, i32* %i, align 4, !dbg !1832
  store i32 %fresh1, i32* %fresh1.dbg.spill, align 4, !dbg !1832
  call void @llvm.dbg.declare(metadata i32* %fresh1.dbg.spill, metadata !1711, metadata !DIExpression()), !dbg !1833
  %_114 = load i32, i32* %i, align 4, !dbg !1834
  %80 = call { i32, i1 } @llvm.sadd.with.overflow.i32(i32 %_114, i32 1), !dbg !1834
  %_115.0 = extractvalue { i32, i1 } %80, 0, !dbg !1834
  %_115.1 = extractvalue { i32, i1 } %80, 1, !dbg !1834
  %81 = call i1 @llvm.expect.i1(i1 %_115.1, i1 false), !dbg !1834
  br i1 %81, label %panic8, label %bb56, !dbg !1834

bb43:                                             ; preds = %bb42
  %fresh0 = load i32, i32* %i, align 4, !dbg !1835
  store i32 %fresh0, i32* %fresh0.dbg.spill, align 4, !dbg !1835
  call void @llvm.dbg.declare(metadata i32* %fresh0.dbg.spill, metadata !1709, metadata !DIExpression()), !dbg !1836
  %_86 = load i32, i32* %i, align 4, !dbg !1837
  %82 = call { i32, i1 } @llvm.sadd.with.overflow.i32(i32 %_86, i32 1), !dbg !1837
  %_87.0 = extractvalue { i32, i1 } %82, 0, !dbg !1837
  %_87.1 = extractvalue { i32, i1 } %82, 1, !dbg !1837
  %83 = call i1 @llvm.expect.i1(i1 %_87.1, i1 false), !dbg !1837
  br i1 %83, label %panic3, label %bb44, !dbg !1837

bb44:                                             ; preds = %bb43
  store i32 %_87.0, i32* %i, align 4, !dbg !1838
  %_92 = load i32, i32* %j, align 4, !dbg !1839
  %_91 = sext i32 %_92 to i64, !dbg !1839
  %_94 = icmp ult i64 %_91, 3, !dbg !1840
  %84 = call i1 @llvm.expect.i1(i1 %_94, i1 true), !dbg !1840
  br i1 %84, label %bb45, label %panic4, !dbg !1840

panic3:                                           ; preds = %bb43
; call core::panicking::panic
  call void @_ZN4core9panicking5panic17hf5844c0338bd061cE([0 x i8]* align 1 bitcast ([28 x i8]* @str.6 to [0 x i8]*), i64 28, %"core::panic::location::Location"* align 8 bitcast (<{ i8*, [16 x i8] }>* @alloc348 to %"core::panic::location::Location"*)) #15, !dbg !1837
  unreachable, !dbg !1837

bb45:                                             ; preds = %bb44
  %_90 = getelementptr inbounds [3 x i64*], [3 x i64*]* %funs, i64 0, i64 %_91, !dbg !1840
; call core::option::Option<T>::is_some
  %_89 = call zeroext i1 @"_ZN4core6option15Option$LT$T$GT$7is_some17hd2e2efccfdbffb07E"(i64** align 8 %_90), !dbg !1840
  br label %bb46, !dbg !1840

panic4:                                           ; preds = %bb44
; call core::panicking::panic_bounds_check
  call void @_ZN4core9panicking18panic_bounds_check17h66852fee8138fdc4E(i64 %_91, i64 3, %"core::panic::location::Location"* align 8 bitcast (<{ i8*, [16 x i8] }>* @alloc350 to %"core::panic::location::Location"*)) #15, !dbg !1840
  unreachable, !dbg !1840

bb46:                                             ; preds = %bb45
  br i1 %_89, label %bb47, label %bb51, !dbg !1840

bb51:                                             ; preds = %bb46
  store i32 55, i32* %_88, align 4, !dbg !1841
  br label %bb52, !dbg !1842

bb47:                                             ; preds = %bb46
  %_98 = load i32, i32* %j, align 4, !dbg !1843
  %_97 = sext i32 %_98 to i64, !dbg !1843
  %_100 = icmp ult i64 %_97, 3, !dbg !1844
  %85 = call i1 @llvm.expect.i1(i1 %_100, i1 true), !dbg !1844
  br i1 %85, label %bb48, label %panic5, !dbg !1844

bb48:                                             ; preds = %bb47
  %86 = getelementptr inbounds [3 x i64*], [3 x i64*]* %funs, i64 0, i64 %_97, !dbg !1844
  %_96 = load i64*, i64** %86, align 8, !dbg !1844
; call core::option::Option<T>::expect
  %_95 = call i32 (i8)* @"_ZN4core6option15Option$LT$T$GT$6expect17h916ba81426841b8fE"(i64* %_96, [0 x i8]* align 1 bitcast (<{ [25 x i8] }>* @alloc406 to [0 x i8]*), i64 25, %"core::panic::location::Location"* align 8 bitcast (<{ i8*, [16 x i8] }>* @alloc355 to %"core::panic::location::Location"*)), !dbg !1844
  br label %bb49, !dbg !1844

panic5:                                           ; preds = %bb47
; call core::panicking::panic_bounds_check
  call void @_ZN4core9panicking18panic_bounds_check17h66852fee8138fdc4E(i64 %_97, i64 3, %"core::panic::location::Location"* align 8 bitcast (<{ i8*, [16 x i8] }>* @alloc352 to %"core::panic::location::Location"*)) #15, !dbg !1844
  unreachable, !dbg !1844

bb49:                                             ; preds = %bb48
  %_106 = load i32, i32* %j, align 4, !dbg !1845
  %87 = call { i32, i1 } @llvm.sadd.with.overflow.i32(i32 97, i32 %_106), !dbg !1846
  %_107.0 = extractvalue { i32, i1 } %87, 0, !dbg !1846
  %_107.1 = extractvalue { i32, i1 } %87, 1, !dbg !1846
  %88 = call i1 @llvm.expect.i1(i1 %_107.1, i1 false), !dbg !1846
  br i1 %88, label %panic6, label %bb50, !dbg !1846

bb50:                                             ; preds = %bb49
  %_103 = trunc i32 %_107.0 to i8, !dbg !1846
  %89 = call i32 %_95(i8 signext %_103), !dbg !1844
  store i32 %89, i32* %_88, align 4, !dbg !1844
  br label %bb52, !dbg !1844

panic6:                                           ; preds = %bb49
; call core::panicking::panic
  call void @_ZN4core9panicking5panic17hf5844c0338bd061cE([0 x i8]* align 1 bitcast ([28 x i8]* @str.6 to [0 x i8]*), i64 28, %"core::panic::location::Location"* align 8 bitcast (<{ i8*, [16 x i8] }>* @alloc357 to %"core::panic::location::Location"*)) #15, !dbg !1846
  unreachable, !dbg !1846

bb52:                                             ; preds = %bb51, %bb50
  %_110 = sext i32 %fresh0 to i64, !dbg !1847
  store i32* %buffer, i32** %self.dbg.spill.i62, align 8
  call void @llvm.dbg.declare(metadata i32** %self.dbg.spill.i62, metadata !1790, metadata !DIExpression()), !dbg !1848
  store i64 %_110, i64* %count.dbg.spill.i61, align 8
  call void @llvm.dbg.declare(metadata i64* %count.dbg.spill.i61, metadata !1793, metadata !DIExpression()), !dbg !1850
  %90 = getelementptr inbounds i32, i32* %buffer, i64 %_110, !dbg !1851
  store i32* %90, i32** %2, align 8, !dbg !1851
  %_3.i63 = load i32*, i32** %2, align 8, !dbg !1851
  br label %bb53, !dbg !1852

bb53:                                             ; preds = %bb52
  %91 = load i32, i32* %_88, align 4, !dbg !1853
  store i32 %91, i32* %_3.i63, align 4, !dbg !1853
  %92 = load i32, i32* %j, align 4, !dbg !1854
  %93 = call { i32, i1 } @llvm.sadd.with.overflow.i32(i32 %92, i32 1), !dbg !1854
  %_112.0 = extractvalue { i32, i1 } %93, 0, !dbg !1854
  %_112.1 = extractvalue { i32, i1 } %93, 1, !dbg !1854
  %94 = call i1 @llvm.expect.i1(i1 %_112.1, i1 false), !dbg !1854
  br i1 %94, label %panic7, label %bb54, !dbg !1854

bb54:                                             ; preds = %bb53
  store i32 %_112.0, i32* %j, align 4, !dbg !1854
  br label %bb40, !dbg !1829

panic7:                                           ; preds = %bb53
; call core::panicking::panic
  call void @_ZN4core9panicking5panic17hf5844c0338bd061cE([0 x i8]* align 1 bitcast ([28 x i8]* @str.6 to [0 x i8]*), i64 28, %"core::panic::location::Location"* align 8 bitcast (<{ i8*, [16 x i8] }>* @alloc359 to %"core::panic::location::Location"*)) #15, !dbg !1854
  unreachable, !dbg !1854

bb56:                                             ; preds = %bb55
  store i32 %_115.0, i32* %i, align 4, !dbg !1855
; call core::option::Option<T>::is_none
  %_116 = call zeroext i1 @"_ZN4core6option15Option$LT$T$GT$7is_none17h2ff31c5d7a594d8bE"(i64** align 8 %p1), !dbg !1856
  br label %bb57, !dbg !1856

panic8:                                           ; preds = %bb55
; call core::panicking::panic
  call void @_ZN4core9panicking5panic17hf5844c0338bd061cE([0 x i8]* align 1 bitcast ([28 x i8]* @str.6 to [0 x i8]*), i64 28, %"core::panic::location::Location"* align 8 bitcast (<{ i8*, [16 x i8] }>* @alloc361 to %"core::panic::location::Location"*)) #15, !dbg !1834
  unreachable, !dbg !1834

bb57:                                             ; preds = %bb56
  %_120 = sext i32 %fresh1 to i64, !dbg !1857
  store i32* %buffer, i32** %self.dbg.spill.i59, align 8
  call void @llvm.dbg.declare(metadata i32** %self.dbg.spill.i59, metadata !1790, metadata !DIExpression()), !dbg !1858
  store i64 %_120, i64* %count.dbg.spill.i58, align 8
  call void @llvm.dbg.declare(metadata i64* %count.dbg.spill.i58, metadata !1793, metadata !DIExpression()), !dbg !1860
  %95 = getelementptr inbounds i32, i32* %buffer, i64 %_120, !dbg !1861
  store i32* %95, i32** %3, align 8, !dbg !1861
  %_3.i60 = load i32*, i32** %3, align 8, !dbg !1861
  br label %bb58, !dbg !1862

bb58:                                             ; preds = %bb57
  %96 = zext i1 %_116 to i32, !dbg !1863
  store i32 %96, i32* %_3.i60, align 4, !dbg !1863
  %fresh2 = load i32, i32* %i, align 4, !dbg !1864
  store i32 %fresh2, i32* %fresh2.dbg.spill, align 4, !dbg !1864
  call void @llvm.dbg.declare(metadata i32* %fresh2.dbg.spill, metadata !1713, metadata !DIExpression()), !dbg !1865
  %_123 = load i32, i32* %i, align 4, !dbg !1866
  %97 = call { i32, i1 } @llvm.sadd.with.overflow.i32(i32 %_123, i32 1), !dbg !1866
  %_124.0 = extractvalue { i32, i1 } %97, 0, !dbg !1866
  %_124.1 = extractvalue { i32, i1 } %97, 1, !dbg !1866
  %98 = call i1 @llvm.expect.i1(i1 %_124.1, i1 false), !dbg !1866
  br i1 %98, label %panic9, label %bb59, !dbg !1866

bb59:                                             ; preds = %bb58
  store i32 %_124.0, i32* %i, align 4, !dbg !1867
; call core::option::Option<T>::is_some
  %_125 = call zeroext i1 @"_ZN4core6option15Option$LT$T$GT$7is_some17hd2e2efccfdbffb07E"(i64** align 8 %p1), !dbg !1868
  br label %bb60, !dbg !1868

panic9:                                           ; preds = %bb58
; call core::panicking::panic
  call void @_ZN4core9panicking5panic17hf5844c0338bd061cE([0 x i8]* align 1 bitcast ([28 x i8]* @str.6 to [0 x i8]*), i64 28, %"core::panic::location::Location"* align 8 bitcast (<{ i8*, [16 x i8] }>* @alloc363 to %"core::panic::location::Location"*)) #15, !dbg !1866
  unreachable, !dbg !1866

bb60:                                             ; preds = %bb59
  %_129 = sext i32 %fresh2 to i64, !dbg !1869
  store i32* %buffer, i32** %self.dbg.spill.i56, align 8
  call void @llvm.dbg.declare(metadata i32** %self.dbg.spill.i56, metadata !1790, metadata !DIExpression()), !dbg !1870
  store i64 %_129, i64* %count.dbg.spill.i55, align 8
  call void @llvm.dbg.declare(metadata i64* %count.dbg.spill.i55, metadata !1793, metadata !DIExpression()), !dbg !1872
  %99 = getelementptr inbounds i32, i32* %buffer, i64 %_129, !dbg !1873
  store i32* %99, i32** %4, align 8, !dbg !1873
  %_3.i57 = load i32*, i32** %4, align 8, !dbg !1873
  br label %bb61, !dbg !1874

bb61:                                             ; preds = %bb60
  %100 = zext i1 %_125 to i32, !dbg !1875
  store i32 %100, i32* %_3.i57, align 4, !dbg !1875
  %fresh3 = load i32, i32* %i, align 4, !dbg !1876
  store i32 %fresh3, i32* %fresh3.dbg.spill, align 4, !dbg !1876
  call void @llvm.dbg.declare(metadata i32* %fresh3.dbg.spill, metadata !1715, metadata !DIExpression()), !dbg !1877
  %_132 = load i32, i32* %i, align 4, !dbg !1878
  %101 = call { i32, i1 } @llvm.sadd.with.overflow.i32(i32 %_132, i32 1), !dbg !1878
  %_133.0 = extractvalue { i32, i1 } %101, 0, !dbg !1878
  %_133.1 = extractvalue { i32, i1 } %101, 1, !dbg !1878
  %102 = call i1 @llvm.expect.i1(i1 %_133.1, i1 false), !dbg !1878
  br i1 %102, label %panic10, label %bb62, !dbg !1878

bb62:                                             ; preds = %bb61
  store i32 %_133.0, i32* %i, align 4, !dbg !1879
; call core::option::Option<T>::is_none
  %_134 = call zeroext i1 @"_ZN4core6option15Option$LT$T$GT$7is_none17h2ff31c5d7a594d8bE"(i64** align 8 %p2), !dbg !1880
  br label %bb63, !dbg !1880

panic10:                                          ; preds = %bb61
; call core::panicking::panic
  call void @_ZN4core9panicking5panic17hf5844c0338bd061cE([0 x i8]* align 1 bitcast ([28 x i8]* @str.6 to [0 x i8]*), i64 28, %"core::panic::location::Location"* align 8 bitcast (<{ i8*, [16 x i8] }>* @alloc365 to %"core::panic::location::Location"*)) #15, !dbg !1878
  unreachable, !dbg !1878

bb63:                                             ; preds = %bb62
  %_138 = sext i32 %fresh3 to i64, !dbg !1881
  store i32* %buffer, i32** %self.dbg.spill.i53, align 8
  call void @llvm.dbg.declare(metadata i32** %self.dbg.spill.i53, metadata !1790, metadata !DIExpression()), !dbg !1882
  store i64 %_138, i64* %count.dbg.spill.i52, align 8
  call void @llvm.dbg.declare(metadata i64* %count.dbg.spill.i52, metadata !1793, metadata !DIExpression()), !dbg !1884
  %103 = getelementptr inbounds i32, i32* %buffer, i64 %_138, !dbg !1885
  store i32* %103, i32** %5, align 8, !dbg !1885
  %_3.i54 = load i32*, i32** %5, align 8, !dbg !1885
  br label %bb64, !dbg !1886

bb64:                                             ; preds = %bb63
  %104 = zext i1 %_134 to i32, !dbg !1887
  store i32 %104, i32* %_3.i54, align 4, !dbg !1887
  %fresh4 = load i32, i32* %i, align 4, !dbg !1888
  store i32 %fresh4, i32* %fresh4.dbg.spill, align 4, !dbg !1888
  call void @llvm.dbg.declare(metadata i32* %fresh4.dbg.spill, metadata !1717, metadata !DIExpression()), !dbg !1889
  %_141 = load i32, i32* %i, align 4, !dbg !1890
  %105 = call { i32, i1 } @llvm.sadd.with.overflow.i32(i32 %_141, i32 1), !dbg !1890
  %_142.0 = extractvalue { i32, i1 } %105, 0, !dbg !1890
  %_142.1 = extractvalue { i32, i1 } %105, 1, !dbg !1890
  %106 = call i1 @llvm.expect.i1(i1 %_142.1, i1 false), !dbg !1890
  br i1 %106, label %panic11, label %bb65, !dbg !1890

bb65:                                             ; preds = %bb64
  store i32 %_142.0, i32* %i, align 4, !dbg !1891
; call core::option::Option<T>::is_some
  %_143 = call zeroext i1 @"_ZN4core6option15Option$LT$T$GT$7is_some17hd2e2efccfdbffb07E"(i64** align 8 %p2), !dbg !1892
  br label %bb66, !dbg !1892

panic11:                                          ; preds = %bb64
; call core::panicking::panic
  call void @_ZN4core9panicking5panic17hf5844c0338bd061cE([0 x i8]* align 1 bitcast ([28 x i8]* @str.6 to [0 x i8]*), i64 28, %"core::panic::location::Location"* align 8 bitcast (<{ i8*, [16 x i8] }>* @alloc367 to %"core::panic::location::Location"*)) #15, !dbg !1890
  unreachable, !dbg !1890

bb66:                                             ; preds = %bb65
  %_147 = sext i32 %fresh4 to i64, !dbg !1893
  store i32* %buffer, i32** %self.dbg.spill.i50, align 8
  call void @llvm.dbg.declare(metadata i32** %self.dbg.spill.i50, metadata !1790, metadata !DIExpression()), !dbg !1894
  store i64 %_147, i64* %count.dbg.spill.i49, align 8
  call void @llvm.dbg.declare(metadata i64* %count.dbg.spill.i49, metadata !1793, metadata !DIExpression()), !dbg !1896
  %107 = getelementptr inbounds i32, i32* %buffer, i64 %_147, !dbg !1897
  store i32* %107, i32** %6, align 8, !dbg !1897
  %_3.i51 = load i32*, i32** %6, align 8, !dbg !1897
  br label %bb67, !dbg !1898

bb67:                                             ; preds = %bb66
  %108 = zext i1 %_143 to i32, !dbg !1899
  store i32 %108, i32* %_3.i51, align 4, !dbg !1899
; call core::option::Option<T>::is_none
  %_150 = call zeroext i1 @"_ZN4core6option15Option$LT$T$GT$7is_none17h2ff31c5d7a594d8bE"(i64** align 8 %p4), !dbg !1900
  br label %bb68, !dbg !1900

bb68:                                             ; preds = %bb67
  %109 = zext i1 %_150 to i32, !dbg !1900
  store i32 %109, i32* %j_0, align 4, !dbg !1900
; call core::option::Option<T>::is_none
  %_152 = call zeroext i1 @"_ZN4core6option15Option$LT$T$GT$7is_none17h2ff31c5d7a594d8bE"(i64** align 8 %p4), !dbg !1901
  br label %bb69, !dbg !1901

bb69:                                             ; preds = %bb68
  %110 = zext i1 %_152 to i32, !dbg !1902
  store i32 %110, i32* %j_0, align 4, !dbg !1902
; call core::option::Option<T>::is_some
  %_154 = call zeroext i1 @"_ZN4core6option15Option$LT$T$GT$7is_some17hd2e2efccfdbffb07E"(i64** align 8 %p4), !dbg !1903
  br label %bb70, !dbg !1903

bb70:                                             ; preds = %bb69
  %111 = zext i1 %_154 to i32, !dbg !1904
  store i32 %111, i32* %j_0, align 4, !dbg !1904
; call core::option::Option<T>::is_some
  %_156 = call zeroext i1 @"_ZN4core6option15Option$LT$T$GT$7is_some17hd2e2efccfdbffb07E"(i64** align 8 %p4), !dbg !1905
  br label %bb71, !dbg !1905

bb71:                                             ; preds = %bb70
  %112 = zext i1 %_156 to i32, !dbg !1906
  store i32 %112, i32* %j_0, align 4, !dbg !1906
  %113 = bitcast i64** %p8 to i32 (i8, ...)**, !dbg !1907
  store i32 (i8, ...)* @rust_varargs_intval, i32 (i8, ...)** %113, align 8, !dbg !1907
  %fresh5 = load i32, i32* %i, align 4, !dbg !1908
  store i32 %fresh5, i32* %fresh5.dbg.spill, align 4, !dbg !1908
  call void @llvm.dbg.declare(metadata i32* %fresh5.dbg.spill, metadata !1723, metadata !DIExpression()), !dbg !1909
  %_161 = load i32, i32* %i, align 4, !dbg !1910
  %114 = call { i32, i1 } @llvm.sadd.with.overflow.i32(i32 %_161, i32 1), !dbg !1910
  %_162.0 = extractvalue { i32, i1 } %114, 0, !dbg !1910
  %_162.1 = extractvalue { i32, i1 } %114, 1, !dbg !1910
  %115 = call i1 @llvm.expect.i1(i1 %_162.1, i1 false), !dbg !1910
  br i1 %115, label %panic12, label %bb72, !dbg !1910

bb72:                                             ; preds = %bb71
  store i32 %_162.0, i32* %i, align 4, !dbg !1911
  %_165 = load i64*, i64** %p8, align 8, !dbg !1912
; call core::option::Option<T>::expect
  %_164 = call i32 (i8, ...)* @"_ZN4core6option15Option$LT$T$GT$6expect17h1d5e87e6d0d4ee89E"(i64* %_165, [0 x i8]* align 1 bitcast (<{ [25 x i8] }>* @alloc406 to [0 x i8]*), i64 25, %"core::panic::location::Location"* align 8 bitcast (<{ i8*, [16 x i8] }>* @alloc372 to %"core::panic::location::Location"*)), !dbg !1912
  br label %bb73, !dbg !1912

panic12:                                          ; preds = %bb71
; call core::panicking::panic
  call void @_ZN4core9panicking5panic17hf5844c0338bd061cE([0 x i8]* align 1 bitcast ([28 x i8]* @str.6 to [0 x i8]*), i64 28, %"core::panic::location::Location"* align 8 bitcast (<{ i8*, [16 x i8] }>* @alloc369 to %"core::panic::location::Location"*)) #15, !dbg !1910
  unreachable, !dbg !1910

bb73:                                             ; preds = %bb72
  %_163 = call i32 (i8, ...) %_164(i8 signext 65), !dbg !1912
  br label %bb74, !dbg !1912

bb74:                                             ; preds = %bb73
  %_171 = sext i32 %fresh5 to i64, !dbg !1913
  store i32* %buffer, i32** %self.dbg.spill.i47, align 8
  call void @llvm.dbg.declare(metadata i32** %self.dbg.spill.i47, metadata !1790, metadata !DIExpression()), !dbg !1914
  store i64 %_171, i64* %count.dbg.spill.i46, align 8
  call void @llvm.dbg.declare(metadata i64* %count.dbg.spill.i46, metadata !1793, metadata !DIExpression()), !dbg !1916
  %116 = getelementptr inbounds i32, i32* %buffer, i64 %_171, !dbg !1917
  store i32* %116, i32** %7, align 8, !dbg !1917
  %_3.i48 = load i32*, i32** %7, align 8, !dbg !1917
  br label %bb75, !dbg !1918

bb75:                                             ; preds = %bb74
  store i32 %_163, i32* %_3.i48, align 4, !dbg !1919
  %fresh6 = load i32, i32* %i, align 4, !dbg !1920
  store i32 %fresh6, i32* %fresh6.dbg.spill, align 4, !dbg !1920
  call void @llvm.dbg.declare(metadata i32* %fresh6.dbg.spill, metadata !1725, metadata !DIExpression()), !dbg !1921
  %_174 = load i32, i32* %i, align 4, !dbg !1922
  %117 = call { i32, i1 } @llvm.sadd.with.overflow.i32(i32 %_174, i32 1), !dbg !1922
  %_175.0 = extractvalue { i32, i1 } %117, 0, !dbg !1922
  %_175.1 = extractvalue { i32, i1 } %117, 1, !dbg !1922
  %118 = call i1 @llvm.expect.i1(i1 %_175.1, i1 false), !dbg !1922
  br i1 %118, label %panic13, label %bb76, !dbg !1922

bb76:                                             ; preds = %bb75
  store i32 %_175.0, i32* %i, align 4, !dbg !1923
  %_180 = load i64*, i64** %p8, align 8, !dbg !1924
; call core::option::Option<T>::expect
  %_179 = call i32 (i8, ...)* @"_ZN4core6option15Option$LT$T$GT$6expect17h1d5e87e6d0d4ee89E"(i64* %_180, [0 x i8]* align 1 bitcast (<{ [25 x i8] }>* @alloc406 to [0 x i8]*), i64 25, %"core::panic::location::Location"* align 8 bitcast (<{ i8*, [16 x i8] }>* @alloc377 to %"core::panic::location::Location"*)), !dbg !1924
  br label %bb77, !dbg !1924

panic13:                                          ; preds = %bb75
; call core::panicking::panic
  call void @_ZN4core9panicking5panic17hf5844c0338bd061cE([0 x i8]* align 1 bitcast ([28 x i8]* @str.6 to [0 x i8]*), i64 28, %"core::panic::location::Location"* align 8 bitcast (<{ i8*, [16 x i8] }>* @alloc374 to %"core::panic::location::Location"*)) #15, !dbg !1922
  unreachable, !dbg !1922

bb77:                                             ; preds = %bb76
  %119 = bitcast i64** %_178 to i32 (i8, ...)**, !dbg !1925
  store i32 (i8, ...)* %_179, i32 (i8, ...)** %119, align 8, !dbg !1925
  %120 = load i64*, i64** %_178, align 8, !dbg !1925
; call core::option::Option<T>::expect
  %_177 = call i32 (i8, ...)* @"_ZN4core6option15Option$LT$T$GT$6expect17h1d5e87e6d0d4ee89E"(i64* %120, [0 x i8]* align 1 bitcast (<{ [25 x i8] }>* @alloc406 to [0 x i8]*), i64 25, %"core::panic::location::Location"* align 8 bitcast (<{ i8*, [16 x i8] }>* @alloc380 to %"core::panic::location::Location"*)), !dbg !1925
  br label %bb78, !dbg !1925

bb78:                                             ; preds = %bb77
  %_176 = call i32 (i8, ...) %_177(i8 signext 66, i32 67), !dbg !1925
  br label %bb79, !dbg !1925

bb79:                                             ; preds = %bb78
  %_189 = sext i32 %fresh6 to i64, !dbg !1926
  store i32* %buffer, i32** %self.dbg.spill.i44, align 8
  call void @llvm.dbg.declare(metadata i32** %self.dbg.spill.i44, metadata !1790, metadata !DIExpression()), !dbg !1927
  store i64 %_189, i64* %count.dbg.spill.i43, align 8
  call void @llvm.dbg.declare(metadata i64* %count.dbg.spill.i43, metadata !1793, metadata !DIExpression()), !dbg !1929
  %121 = getelementptr inbounds i32, i32* %buffer, i64 %_189, !dbg !1930
  store i32* %121, i32** %8, align 8, !dbg !1930
  %_3.i45 = load i32*, i32** %8, align 8, !dbg !1930
  br label %bb80, !dbg !1931

bb80:                                             ; preds = %bb79
  store i32 %_176, i32* %_3.i45, align 4, !dbg !1932
  %122 = bitcast i64** %_192 to i32 (i8)**, !dbg !1933
  store i32 (i8)* @rust_intval, i32 (i8)** %122, align 8, !dbg !1933
  %123 = load i64*, i64** %_192, align 8, !dbg !1934
  store i64* %123, i64** %25, align 8, !dbg !1934
  %p9 = load i64*, i64** %25, align 8, !dbg !1934
  store i64* %p9, i64** %p9.dbg.spill, align 8, !dbg !1934
  call void @llvm.dbg.declare(metadata i64** %p9.dbg.spill, metadata !1727, metadata !DIExpression()), !dbg !1935
  br label %bb81, !dbg !1934

bb81:                                             ; preds = %bb80
  %_195 = load i64*, i64** %p7, align 8, !dbg !1936
  store i64* %_195, i64** %24, align 8, !dbg !1937
  %p10 = load i64*, i64** %24, align 8, !dbg !1937
  store i64* %p10, i64** %p10.dbg.spill, align 8, !dbg !1937
  call void @llvm.dbg.declare(metadata i64** %p10.dbg.spill, metadata !1729, metadata !DIExpression()), !dbg !1938
  br label %bb82, !dbg !1937

bb82:                                             ; preds = %bb81
  %fresh7 = load i32, i32* %i, align 4, !dbg !1939
  store i32 %fresh7, i32* %fresh7.dbg.spill, align 4, !dbg !1939
  call void @llvm.dbg.declare(metadata i32* %fresh7.dbg.spill, metadata !1731, metadata !DIExpression()), !dbg !1940
  %_197 = load i32, i32* %i, align 4, !dbg !1941
  %124 = call { i32, i1 } @llvm.sadd.with.overflow.i32(i32 %_197, i32 1), !dbg !1941
  %_198.0 = extractvalue { i32, i1 } %124, 0, !dbg !1941
  %_198.1 = extractvalue { i32, i1 } %124, 1, !dbg !1941
  %125 = call i1 @llvm.expect.i1(i1 %_198.1, i1 false), !dbg !1941
  br i1 %125, label %panic14, label %bb83, !dbg !1941

bb83:                                             ; preds = %bb82
  store i32 %_198.0, i32* %i, align 4, !dbg !1942
; call core::option::Option<T>::expect
  %_200 = call i32 (i8, i32)* @"_ZN4core6option15Option$LT$T$GT$6expect17h19997f26a84fe966E"(i64* %p9, [0 x i8]* align 1 bitcast (<{ [25 x i8] }>* @alloc406 to [0 x i8]*), i64 25, %"core::panic::location::Location"* align 8 bitcast (<{ i8*, [16 x i8] }>* @alloc385 to %"core::panic::location::Location"*)), !dbg !1943
  br label %bb84, !dbg !1943

panic14:                                          ; preds = %bb82
; call core::panicking::panic
  call void @_ZN4core9panicking5panic17hf5844c0338bd061cE([0 x i8]* align 1 bitcast ([28 x i8]* @str.6 to [0 x i8]*), i64 28, %"core::panic::location::Location"* align 8 bitcast (<{ i8*, [16 x i8] }>* @alloc382 to %"core::panic::location::Location"*)) #15, !dbg !1941
  unreachable, !dbg !1941

bb84:                                             ; preds = %bb83
  %_199 = call i32 %_200(i8 signext 68, i32 42), !dbg !1943
  br label %bb85, !dbg !1943

bb85:                                             ; preds = %bb84
  %_208 = sext i32 %fresh7 to i64, !dbg !1944
  store i32* %buffer, i32** %self.dbg.spill.i41, align 8
  call void @llvm.dbg.declare(metadata i32** %self.dbg.spill.i41, metadata !1790, metadata !DIExpression()), !dbg !1945
  store i64 %_208, i64* %count.dbg.spill.i40, align 8
  call void @llvm.dbg.declare(metadata i64* %count.dbg.spill.i40, metadata !1793, metadata !DIExpression()), !dbg !1947
  %126 = getelementptr inbounds i32, i32* %buffer, i64 %_208, !dbg !1948
  store i32* %126, i32** %9, align 8, !dbg !1948
  %_3.i42 = load i32*, i32** %9, align 8, !dbg !1948
  br label %bb86, !dbg !1949

bb86:                                             ; preds = %bb85
  store i32 %_199, i32* %_3.i42, align 4, !dbg !1950
  %fresh8 = load i32, i32* %i, align 4, !dbg !1951
  store i32 %fresh8, i32* %fresh8.dbg.spill, align 4, !dbg !1951
  call void @llvm.dbg.declare(metadata i32* %fresh8.dbg.spill, metadata !1733, metadata !DIExpression()), !dbg !1952
  %_211 = load i32, i32* %i, align 4, !dbg !1953
  %127 = call { i32, i1 } @llvm.sadd.with.overflow.i32(i32 %_211, i32 1), !dbg !1953
  %_212.0 = extractvalue { i32, i1 } %127, 0, !dbg !1953
  %_212.1 = extractvalue { i32, i1 } %127, 1, !dbg !1953
  %128 = call i1 @llvm.expect.i1(i1 %_212.1, i1 false), !dbg !1953
  br i1 %128, label %panic15, label %bb87, !dbg !1953

bb87:                                             ; preds = %bb86
  store i32 %_212.0, i32* %i, align 4, !dbg !1954
; call core::option::Option<T>::expect
  %_214 = call i32 (i8, i32)* @"_ZN4core6option15Option$LT$T$GT$6expect17h19997f26a84fe966E"(i64* %p10, [0 x i8]* align 1 bitcast (<{ [25 x i8] }>* @alloc406 to [0 x i8]*), i64 25, %"core::panic::location::Location"* align 8 bitcast (<{ i8*, [16 x i8] }>* @alloc390 to %"core::panic::location::Location"*)), !dbg !1955
  br label %bb88, !dbg !1955

panic15:                                          ; preds = %bb86
; call core::panicking::panic
  call void @_ZN4core9panicking5panic17hf5844c0338bd061cE([0 x i8]* align 1 bitcast ([28 x i8]* @str.6 to [0 x i8]*), i64 28, %"core::panic::location::Location"* align 8 bitcast (<{ i8*, [16 x i8] }>* @alloc387 to %"core::panic::location::Location"*)) #15, !dbg !1953
  unreachable, !dbg !1953

bb88:                                             ; preds = %bb87
  %_213 = call i32 %_214(i8 signext 69, i32 1337), !dbg !1955
  br label %bb89, !dbg !1955

bb89:                                             ; preds = %bb88
  %_222 = sext i32 %fresh8 to i64, !dbg !1956
  store i32* %buffer, i32** %self.dbg.spill.i38, align 8
  call void @llvm.dbg.declare(metadata i32** %self.dbg.spill.i38, metadata !1790, metadata !DIExpression()), !dbg !1957
  store i64 %_222, i64* %count.dbg.spill.i37, align 8
  call void @llvm.dbg.declare(metadata i64* %count.dbg.spill.i37, metadata !1793, metadata !DIExpression()), !dbg !1959
  %129 = getelementptr inbounds i32, i32* %buffer, i64 %_222, !dbg !1960
  store i32* %129, i32** %10, align 8, !dbg !1960
  %_3.i39 = load i32*, i32** %10, align 8, !dbg !1960
  br label %bb90, !dbg !1961

bb90:                                             ; preds = %bb89
  store i32 %_213, i32* %_3.i39, align 4, !dbg !1962
  %130 = bitcast i64** %23 to i64*, !dbg !1963
  store i64 1, i64* %130, align 8, !dbg !1963
  %p11 = load i64*, i64** %23, align 8, !dbg !1963
  store i64* %p11, i64** %p11.dbg.spill, align 8, !dbg !1963
  call void @llvm.dbg.declare(metadata i64** %p11.dbg.spill, metadata !1735, metadata !DIExpression()), !dbg !1964
  br label %bb91, !dbg !1963

bb91:                                             ; preds = %bb90
  %131 = bitcast i64** %_227 to i32 (i8)**, !dbg !1965
  store i32 (i8)* @rust_intval, i32 (i8)** %131, align 8, !dbg !1965
  %132 = load i64*, i64** %_227, align 8, !dbg !1966
  store i64* %132, i64** %22, align 8, !dbg !1966
  %p12 = load i64*, i64** %22, align 8, !dbg !1966
  store i64* %p12, i64** %p12.dbg.spill, align 8, !dbg !1966
  call void @llvm.dbg.declare(metadata i64** %p12.dbg.spill, metadata !1737, metadata !DIExpression()), !dbg !1967
  br label %bb92, !dbg !1966

bb92:                                             ; preds = %bb91
  %133 = bitcast i64** %_230 to i32 (i8)**, !dbg !1968
  store i32 (i8)* @rust_intval, i32 (i8)** %133, align 8, !dbg !1968
  %134 = load i64*, i64** %_230, align 8, !dbg !1969
  store i64* %134, i64** %21, align 8, !dbg !1969
  %p13 = load i64*, i64** %21, align 8, !dbg !1969
  store i64* %p13, i64** %p13.dbg.spill, align 8, !dbg !1969
  call void @llvm.dbg.declare(metadata i64** %p13.dbg.spill, metadata !1739, metadata !DIExpression()), !dbg !1970
  br label %bb93, !dbg !1969

bb93:                                             ; preds = %bb92
  %135 = bitcast %"function_pointers::pointer_st"* %s to i64**, !dbg !1971
  store i64* null, i64** %135, align 8, !dbg !1971
  %136 = bitcast i64** %_234 to i32 (i8)**, !dbg !1972
  store i32 (i8)* @rust_intval, i32 (i8)** %136, align 8, !dbg !1972
  %137 = load i64*, i64** %_234, align 8, !dbg !1973
  store i64* %137, i64** %20, align 8, !dbg !1973
  %_233 = load i64*, i64** %20, align 8, !dbg !1973
  br label %bb94, !dbg !1973

bb94:                                             ; preds = %bb93
  %138 = bitcast %"function_pointers::pointer_st"* %s to i64**, !dbg !1974
  store i64* %_233, i64** %138, align 8, !dbg !1974
  %fresh9 = load i32, i32* %i, align 4, !dbg !1975
  store i32 %fresh9, i32* %fresh9.dbg.spill, align 4, !dbg !1975
  call void @llvm.dbg.declare(metadata i32* %fresh9.dbg.spill, metadata !1746, metadata !DIExpression()), !dbg !1976
  %_237 = load i32, i32* %i, align 4, !dbg !1977
  %139 = call { i32, i1 } @llvm.sadd.with.overflow.i32(i32 %_237, i32 1), !dbg !1977
  %_238.0 = extractvalue { i32, i1 } %139, 0, !dbg !1977
  %_238.1 = extractvalue { i32, i1 } %139, 1, !dbg !1977
  %140 = call i1 @llvm.expect.i1(i1 %_238.1, i1 false), !dbg !1977
  br i1 %140, label %panic16, label %bb95, !dbg !1977

bb95:                                             ; preds = %bb94
  store i32 %_238.0, i32* %i, align 4, !dbg !1978
; call core::option::Option<T>::expect
  %_241 = call i32 ()* @"_ZN4core6option15Option$LT$T$GT$6expect17h4bc449a0ade0070dE"(i64* %p12, [0 x i8]* align 1 bitcast (<{ [25 x i8] }>* @alloc406 to [0 x i8]*), i64 25, %"core::panic::location::Location"* align 8 bitcast (<{ i8*, [16 x i8] }>* @alloc395 to %"core::panic::location::Location"*)), !dbg !1979
  br label %bb96, !dbg !1979

panic16:                                          ; preds = %bb94
; call core::panicking::panic
  call void @_ZN4core9panicking5panic17hf5844c0338bd061cE([0 x i8]* align 1 bitcast ([28 x i8]* @str.6 to [0 x i8]*), i64 28, %"core::panic::location::Location"* align 8 bitcast (<{ i8*, [16 x i8] }>* @alloc392 to %"core::panic::location::Location"*)) #15, !dbg !1977
  unreachable, !dbg !1977

bb96:                                             ; preds = %bb95
  %141 = bitcast i32 ()* %_241 to i32 (i32)*, !dbg !1980
  store i32 (i32)* %141, i32 (i32)** %19, align 8, !dbg !1980
  %_240 = load i32 (i32)*, i32 (i32)** %19, align 8, !dbg !1980, !nonnull !23, !noundef !23
  br label %bb97, !dbg !1980

bb97:                                             ; preds = %bb96
  %_239 = call i32 %_240(i32 97), !dbg !1980
  br label %bb98, !dbg !1980

bb98:                                             ; preds = %bb97
  %_248 = sext i32 %fresh9 to i64, !dbg !1981
  store i32* %buffer, i32** %self.dbg.spill.i35, align 8
  call void @llvm.dbg.declare(metadata i32** %self.dbg.spill.i35, metadata !1790, metadata !DIExpression()), !dbg !1982
  store i64 %_248, i64* %count.dbg.spill.i34, align 8
  call void @llvm.dbg.declare(metadata i64* %count.dbg.spill.i34, metadata !1793, metadata !DIExpression()), !dbg !1984
  %142 = getelementptr inbounds i32, i32* %buffer, i64 %_248, !dbg !1985
  store i32* %142, i32** %11, align 8, !dbg !1985
  %_3.i36 = load i32*, i32** %11, align 8, !dbg !1985
  br label %bb99, !dbg !1986

bb99:                                             ; preds = %bb98
  store i32 %_239, i32* %_3.i36, align 4, !dbg !1987
  %fresh10 = load i32, i32* %i, align 4, !dbg !1988
  store i32 %fresh10, i32* %fresh10.dbg.spill, align 4, !dbg !1988
  call void @llvm.dbg.declare(metadata i32* %fresh10.dbg.spill, metadata !1748, metadata !DIExpression()), !dbg !1989
  %_251 = load i32, i32* %i, align 4, !dbg !1990
  %143 = call { i32, i1 } @llvm.sadd.with.overflow.i32(i32 %_251, i32 1), !dbg !1990
  %_252.0 = extractvalue { i32, i1 } %143, 0, !dbg !1990
  %_252.1 = extractvalue { i32, i1 } %143, 1, !dbg !1990
  %144 = call i1 @llvm.expect.i1(i1 %_252.1, i1 false), !dbg !1990
  br i1 %144, label %panic17, label %bb100, !dbg !1990

bb100:                                            ; preds = %bb99
  store i32 %_252.0, i32* %i, align 4, !dbg !1991
; call core::option::Option<T>::expect
  %_255 = call i32 ()* @"_ZN4core6option15Option$LT$T$GT$6expect17h4bc449a0ade0070dE"(i64* %p13, [0 x i8]* align 1 bitcast (<{ [25 x i8] }>* @alloc406 to [0 x i8]*), i64 25, %"core::panic::location::Location"* align 8 bitcast (<{ i8*, [16 x i8] }>* @alloc400 to %"core::panic::location::Location"*)), !dbg !1992
  br label %bb101, !dbg !1992

panic17:                                          ; preds = %bb99
; call core::panicking::panic
  call void @_ZN4core9panicking5panic17hf5844c0338bd061cE([0 x i8]* align 1 bitcast ([28 x i8]* @str.6 to [0 x i8]*), i64 28, %"core::panic::location::Location"* align 8 bitcast (<{ i8*, [16 x i8] }>* @alloc397 to %"core::panic::location::Location"*)) #15, !dbg !1990
  unreachable, !dbg !1990

bb101:                                            ; preds = %bb100
  %145 = bitcast i32 ()* %_255 to i32 (i32)*, !dbg !1993
  store i32 (i32)* %145, i32 (i32)** %18, align 8, !dbg !1993
  %_254 = load i32 (i32)*, i32 (i32)** %18, align 8, !dbg !1993, !nonnull !23, !noundef !23
  br label %bb102, !dbg !1993

bb102:                                            ; preds = %bb101
  %_253 = call i32 %_254(i32 97), !dbg !1993
  br label %bb103, !dbg !1993

bb103:                                            ; preds = %bb102
  %_262 = sext i32 %fresh10 to i64, !dbg !1994
  store i32* %buffer, i32** %self.dbg.spill.i32, align 8
  call void @llvm.dbg.declare(metadata i32** %self.dbg.spill.i32, metadata !1790, metadata !DIExpression()), !dbg !1995
  store i64 %_262, i64* %count.dbg.spill.i31, align 8
  call void @llvm.dbg.declare(metadata i64* %count.dbg.spill.i31, metadata !1793, metadata !DIExpression()), !dbg !1997
  %146 = getelementptr inbounds i32, i32* %buffer, i64 %_262, !dbg !1998
  store i32* %146, i32** %12, align 8, !dbg !1998
  %_3.i33 = load i32*, i32** %12, align 8, !dbg !1998
  br label %bb104, !dbg !1999

bb104:                                            ; preds = %bb103
  store i32 %_253, i32* %_3.i33, align 4, !dbg !2000
  %fresh11 = load i32, i32* %i, align 4, !dbg !2001
  store i32 %fresh11, i32* %fresh11.dbg.spill, align 4, !dbg !2001
  call void @llvm.dbg.declare(metadata i32* %fresh11.dbg.spill, metadata !1750, metadata !DIExpression()), !dbg !2002
  %_265 = load i32, i32* %i, align 4, !dbg !2003
  %147 = call { i32, i1 } @llvm.sadd.with.overflow.i32(i32 %_265, i32 1), !dbg !2003
  %_266.0 = extractvalue { i32, i1 } %147, 0, !dbg !2003
  %_266.1 = extractvalue { i32, i1 } %147, 1, !dbg !2003
  %148 = call i1 @llvm.expect.i1(i1 %_266.1, i1 false), !dbg !2003
  br i1 %148, label %panic18, label %bb105, !dbg !2003

bb105:                                            ; preds = %bb104
  store i32 %_266.0, i32* %i, align 4, !dbg !2004
  %149 = bitcast %"function_pointers::pointer_st"* %s to i64**, !dbg !2005
  %_272 = load i64*, i64** %149, align 8, !dbg !2005
; call core::option::Option<T>::expect
  %_271 = call i32 ()* @"_ZN4core6option15Option$LT$T$GT$6expect17h4bc449a0ade0070dE"(i64* %_272, [0 x i8]* align 1 bitcast (<{ [25 x i8] }>* @alloc406 to [0 x i8]*), i64 25, %"core::panic::location::Location"* align 8 bitcast (<{ i8*, [16 x i8] }>* @alloc405 to %"core::panic::location::Location"*)), !dbg !2005
  br label %bb106, !dbg !2005

panic18:                                          ; preds = %bb104
; call core::panicking::panic
  call void @_ZN4core9panicking5panic17hf5844c0338bd061cE([0 x i8]* align 1 bitcast ([28 x i8]* @str.6 to [0 x i8]*), i64 28, %"core::panic::location::Location"* align 8 bitcast (<{ i8*, [16 x i8] }>* @alloc402 to %"core::panic::location::Location"*)) #15, !dbg !2003
  unreachable, !dbg !2003

bb106:                                            ; preds = %bb105
  %150 = bitcast i64** %_270 to i32 ()**, !dbg !2006
  store i32 ()* %_271, i32 ()** %150, align 8, !dbg !2006
  %151 = load i64*, i64** %_270, align 8, !dbg !2006
; call core::option::Option<T>::expect
  %_269 = call i32 ()* @"_ZN4core6option15Option$LT$T$GT$6expect17h4bc449a0ade0070dE"(i64* %151, [0 x i8]* align 1 bitcast (<{ [25 x i8] }>* @alloc406 to [0 x i8]*), i64 25, %"core::panic::location::Location"* align 8 bitcast (<{ i8*, [16 x i8] }>* @alloc408 to %"core::panic::location::Location"*)), !dbg !2006
  br label %bb107, !dbg !2006

bb107:                                            ; preds = %bb106
  %152 = bitcast i32 ()* %_269 to i32 (i32)*, !dbg !2007
  store i32 (i32)* %152, i32 (i32)** %17, align 8, !dbg !2007
  %_268 = load i32 (i32)*, i32 (i32)** %17, align 8, !dbg !2007, !nonnull !23, !noundef !23
  br label %bb108, !dbg !2007

bb108:                                            ; preds = %bb107
  %_267 = call i32 %_268(i32 97), !dbg !2007
  br label %bb109, !dbg !2007

bb109:                                            ; preds = %bb108
  %_280 = sext i32 %fresh11 to i64, !dbg !2008
  store i32* %buffer, i32** %self.dbg.spill.i29, align 8
  call void @llvm.dbg.declare(metadata i32** %self.dbg.spill.i29, metadata !1790, metadata !DIExpression()), !dbg !2009
  store i64 %_280, i64* %count.dbg.spill.i28, align 8
  call void @llvm.dbg.declare(metadata i64* %count.dbg.spill.i28, metadata !1793, metadata !DIExpression()), !dbg !2011
  %153 = getelementptr inbounds i32, i32* %buffer, i64 %_280, !dbg !2012
  store i32* %153, i32** %13, align 8, !dbg !2012
  %_3.i30 = load i32*, i32** %13, align 8, !dbg !2012
  br label %bb110, !dbg !2013

bb110:                                            ; preds = %bb109
  store i32 %_267, i32* %_3.i30, align 4, !dbg !2014
  %fresh12 = load i32, i32* %i, align 4, !dbg !2015
  store i32 %fresh12, i32* %fresh12.dbg.spill, align 4, !dbg !2015
  call void @llvm.dbg.declare(metadata i32* %fresh12.dbg.spill, metadata !1752, metadata !DIExpression()), !dbg !2016
  %_283 = load i32, i32* %i, align 4, !dbg !2017
  %154 = call { i32, i1 } @llvm.sadd.with.overflow.i32(i32 %_283, i32 1), !dbg !2017
  %_284.0 = extractvalue { i32, i1 } %154, 0, !dbg !2017
  %_284.1 = extractvalue { i32, i1 } %154, 1, !dbg !2017
  %155 = call i1 @llvm.expect.i1(i1 %_284.1, i1 false), !dbg !2017
  br i1 %155, label %panic19, label %bb111, !dbg !2017

bb111:                                            ; preds = %bb110
  store i32 %_284.0, i32* %i, align 4, !dbg !2018
; call <core::option::Option<T> as core::cmp::PartialEq>::eq
  %_285 = call zeroext i1 @"_ZN70_$LT$core..option..Option$LT$T$GT$$u20$as$u20$core..cmp..PartialEq$GT$2eq17hf5b0e9a9a6950d80E"(i64** align 8 %p2, i64** align 8 bitcast (<{ i8* }>* @alloc109 to i64**)), !dbg !2019
  br label %bb112, !dbg !2019

panic19:                                          ; preds = %bb110
; call core::panicking::panic
  call void @_ZN4core9panicking5panic17hf5844c0338bd061cE([0 x i8]* align 1 bitcast ([28 x i8]* @str.6 to [0 x i8]*), i64 28, %"core::panic::location::Location"* align 8 bitcast (<{ i8*, [16 x i8] }>* @alloc410 to %"core::panic::location::Location"*)) #15, !dbg !2017
  unreachable, !dbg !2017

bb112:                                            ; preds = %bb111
  %_290 = sext i32 %fresh12 to i64, !dbg !2020
  store i32* %buffer, i32** %self.dbg.spill.i26, align 8
  call void @llvm.dbg.declare(metadata i32** %self.dbg.spill.i26, metadata !1790, metadata !DIExpression()), !dbg !2021
  store i64 %_290, i64* %count.dbg.spill.i25, align 8
  call void @llvm.dbg.declare(metadata i64* %count.dbg.spill.i25, metadata !1793, metadata !DIExpression()), !dbg !2023
  %156 = getelementptr inbounds i32, i32* %buffer, i64 %_290, !dbg !2024
  store i32* %156, i32** %14, align 8, !dbg !2024
  %_3.i27 = load i32*, i32** %14, align 8, !dbg !2024
  br label %bb113, !dbg !2025

bb113:                                            ; preds = %bb112
  %157 = zext i1 %_285 to i32, !dbg !2026
  store i32 %157, i32* %_3.i27, align 4, !dbg !2026
  %fresh13 = load i32, i32* %i, align 4, !dbg !2027
  store i32 %fresh13, i32* %fresh13.dbg.spill, align 4, !dbg !2027
  call void @llvm.dbg.declare(metadata i32* %fresh13.dbg.spill, metadata !1754, metadata !DIExpression()), !dbg !2028
  %_293 = load i32, i32* %i, align 4, !dbg !2029
  %158 = call { i32, i1 } @llvm.sadd.with.overflow.i32(i32 %_293, i32 1), !dbg !2029
  %_294.0 = extractvalue { i32, i1 } %158, 0, !dbg !2029
  %_294.1 = extractvalue { i32, i1 } %158, 1, !dbg !2029
  %159 = call i1 @llvm.expect.i1(i1 %_294.1, i1 false), !dbg !2029
  br i1 %159, label %panic20, label %bb114, !dbg !2029

bb114:                                            ; preds = %bb113
  store i32 %_294.0, i32* %i, align 4, !dbg !2030
  %160 = bitcast i64** %_297 to i32 (i8)**, !dbg !2031
  store i32 (i8)* @rust_intval, i32 (i8)** %160, align 8, !dbg !2031
  %161 = load i64*, i64** %_297, align 8, !dbg !2032
  %_295 = call i32 (i32, ...) @rust_varargs_fp(i32 97, i64* %161), !dbg !2032
  br label %bb115, !dbg !2032

panic20:                                          ; preds = %bb113
; call core::panicking::panic
  call void @_ZN4core9panicking5panic17hf5844c0338bd061cE([0 x i8]* align 1 bitcast ([28 x i8]* @str.6 to [0 x i8]*), i64 28, %"core::panic::location::Location"* align 8 bitcast (<{ i8*, [16 x i8] }>* @alloc412 to %"core::panic::location::Location"*)) #15, !dbg !2029
  unreachable, !dbg !2029

bb115:                                            ; preds = %bb114
  %_301 = sext i32 %fresh13 to i64, !dbg !2033
  store i32* %buffer, i32** %self.dbg.spill.i23, align 8
  call void @llvm.dbg.declare(metadata i32** %self.dbg.spill.i23, metadata !1790, metadata !DIExpression()), !dbg !2034
  store i64 %_301, i64* %count.dbg.spill.i22, align 8
  call void @llvm.dbg.declare(metadata i64* %count.dbg.spill.i22, metadata !1793, metadata !DIExpression()), !dbg !2036
  %162 = getelementptr inbounds i32, i32* %buffer, i64 %_301, !dbg !2037
  store i32* %162, i32** %15, align 8, !dbg !2037
  %_3.i24 = load i32*, i32** %15, align 8, !dbg !2037
  br label %bb116, !dbg !2038

bb116:                                            ; preds = %bb115
  store i32 %_295, i32* %_3.i24, align 4, !dbg !2039
  %fresh14 = load i32, i32* %i, align 4, !dbg !2040
  store i32 %fresh14, i32* %fresh14.dbg.spill, align 4, !dbg !2040
  call void @llvm.dbg.declare(metadata i32* %fresh14.dbg.spill, metadata !1756, metadata !DIExpression()), !dbg !2041
  %_304 = load i32, i32* %i, align 4, !dbg !2042
  %163 = call { i32, i1 } @llvm.sadd.with.overflow.i32(i32 %_304, i32 1), !dbg !2042
  %_305.0 = extractvalue { i32, i1 } %163, 0, !dbg !2042
  %_305.1 = extractvalue { i32, i1 } %163, 1, !dbg !2042
  %164 = call i1 @llvm.expect.i1(i1 %_305.1, i1 false), !dbg !2042
  br i1 %164, label %panic21, label %bb117, !dbg !2042

bb117:                                            ; preds = %bb116
  store i32 %_305.0, i32* %i, align 4, !dbg !2043
  %_308 = load i64*, i64** %p2, align 8, !dbg !2044
  %_306 = call i32 (i32, ...) @rust_varargs_fp(i32 98, i64* %_308), !dbg !2045
  br label %bb118, !dbg !2045

panic21:                                          ; preds = %bb116
; call core::panicking::panic
  call void @_ZN4core9panicking5panic17hf5844c0338bd061cE([0 x i8]* align 1 bitcast ([28 x i8]* @str.6 to [0 x i8]*), i64 28, %"core::panic::location::Location"* align 8 bitcast (<{ i8*, [16 x i8] }>* @alloc414 to %"core::panic::location::Location"*)) #15, !dbg !2042
  unreachable, !dbg !2042

bb118:                                            ; preds = %bb117
  %_311 = sext i32 %fresh14 to i64, !dbg !2046
  store i32* %buffer, i32** %self.dbg.spill.i, align 8
  call void @llvm.dbg.declare(metadata i32** %self.dbg.spill.i, metadata !1790, metadata !DIExpression()), !dbg !2047
  store i64 %_311, i64* %count.dbg.spill.i, align 8
  call void @llvm.dbg.declare(metadata i64* %count.dbg.spill.i, metadata !1793, metadata !DIExpression()), !dbg !2049
  %165 = getelementptr inbounds i32, i32* %buffer, i64 %_311, !dbg !2050
  store i32* %165, i32** %16, align 8, !dbg !2050
  %_3.i = load i32*, i32** %16, align 8, !dbg !2050
  br label %bb119, !dbg !2051

bb119:                                            ; preds = %bb118
  store i32 %_306, i32* %_3.i, align 4, !dbg !2052
  ret void, !dbg !2053
}

; Function Attrs: nonlazybind uwtable
define dso_local void @rust_f(i32* %a, i32* %b) unnamed_addr #1 !dbg !2054 {
start:
  %b.dbg.spill = alloca i32*, align 8
  %a.dbg.spill = alloca i32*, align 8
  store i32* %a, i32** %a.dbg.spill, align 8
  call void @llvm.dbg.declare(metadata i32** %a.dbg.spill, metadata !2060, metadata !DIExpression()), !dbg !2062
  store i32* %b, i32** %b.dbg.spill, align 8
  call void @llvm.dbg.declare(metadata i32** %b.dbg.spill, metadata !2061, metadata !DIExpression()), !dbg !2063
  ret void, !dbg !2064
}

; Function Attrs: nonlazybind uwtable
define dso_local void @rust_bar(i32* %a) unnamed_addr #1 !dbg !2065 {
start:
  %0 = alloca i32*, align 8
  %count.dbg.spill.i = alloca i64, align 8
  %self.dbg.spill.i = alloca i32*, align 8
  %p_arr.dbg.spill = alloca [0 x i32]*, align 8
  %a.dbg.spill = alloca i32*, align 8
  %arr = alloca [3 x i32], align 4
  store i32* %a, i32** %a.dbg.spill, align 8
  call void @llvm.dbg.declare(metadata i32** %a.dbg.spill, metadata !2069, metadata !DIExpression()), !dbg !2079
  call void @llvm.dbg.declare(metadata [3 x i32]* %arr, metadata !2070, metadata !DIExpression()), !dbg !2080
  %1 = getelementptr inbounds [3 x i32], [3 x i32]* %arr, i64 0, i64 0, !dbg !2081
  store i32 1, i32* %1, align 4, !dbg !2081
  %2 = getelementptr inbounds [3 x i32], [3 x i32]* %arr, i64 0, i64 1, !dbg !2081
  store i32 2, i32* %2, align 4, !dbg !2081
  %3 = getelementptr inbounds [3 x i32], [3 x i32]* %arr, i64 0, i64 2, !dbg !2081
  store i32 3, i32* %3, align 4, !dbg !2081
  %p_arr = bitcast [3 x i32]* %arr to [0 x i32]*, !dbg !2082
  store [0 x i32]* %p_arr, [0 x i32]** %p_arr.dbg.spill, align 8, !dbg !2082
  call void @llvm.dbg.declare(metadata [0 x i32]** %p_arr.dbg.spill, metadata !2073, metadata !DIExpression()), !dbg !2083
  %_14.0 = bitcast [3 x i32]* %arr to [0 x i32]*, !dbg !2084
; call core::slice::<impl [T]>::as_mut_ptr
  %_13 = call i32* @"_ZN4core5slice29_$LT$impl$u20$$u5b$T$u5d$$GT$10as_mut_ptr17h9eb99fc6db42f33eE"([0 x i32]* align 4 %_14.0, i64 3), !dbg !2084
  br label %bb1, !dbg !2084

bb1:                                              ; preds = %start
  store i32* %_13, i32** %self.dbg.spill.i, align 8
  call void @llvm.dbg.declare(metadata i32** %self.dbg.spill.i, metadata !1790, metadata !DIExpression()), !dbg !2085
  store i64 0, i64* %count.dbg.spill.i, align 8
  call void @llvm.dbg.declare(metadata i64* %count.dbg.spill.i, metadata !1793, metadata !DIExpression()), !dbg !2087
  store i32* %_13, i32** %0, align 8, !dbg !2088
  %_3.i = load i32*, i32** %0, align 8, !dbg !2088
  br label %bb2, !dbg !2084

bb2:                                              ; preds = %bb1
  call void @rust_f(i32* %_3.i, i32* %a), !dbg !2089
  br label %bb3, !dbg !2089

bb3:                                              ; preds = %bb2
  ret void, !dbg !2090
}

; Function Attrs: nonlazybind uwtable
define dso_local void @rust_bitcast(i8* %a) unnamed_addr #1 !dbg !2091 {
start:
  %a.dbg.spill = alloca i8*, align 8
  store i8* %a, i8** %a.dbg.spill, align 8
  call void @llvm.dbg.declare(metadata i8** %a.dbg.spill, metadata !2095, metadata !DIExpression()), !dbg !2096
  ret void, !dbg !2097
}

; Function Attrs: nonlazybind uwtable
define dso_local void @rust_foobar(i32* %a) unnamed_addr #1 !dbg !2098 {
start:
  %a.dbg.spill = alloca i32*, align 8
  store i32* %a, i32** %a.dbg.spill, align 8
  call void @llvm.dbg.declare(metadata i32** %a.dbg.spill, metadata !2103, metadata !DIExpression()), !dbg !2104
  ret void, !dbg !2105
}

; Function Attrs: nonlazybind uwtable
define dso_local void @rust_address_cast(i64 %a) unnamed_addr #1 !dbg !2106 {
start:
  %a.dbg.spill = alloca i64, align 8
  store i64 %a, i64* %a.dbg.spill, align 8
  call void @llvm.dbg.declare(metadata i64* %a.dbg.spill, metadata !2110, metadata !DIExpression()), !dbg !2111
  ret void, !dbg !2112
}

; Function Attrs: nonlazybind uwtable
define dso_local i32 @rust_cmp_ref(i32 %0, i32** %b) unnamed_addr #1 !dbg !2113 {
start:
  %b.dbg.spill = alloca i32**, align 8
  %a = alloca i32, align 4
  store i32 %0, i32* %a, align 4
  call void @llvm.dbg.declare(metadata i32* %a, metadata !2118, metadata !DIExpression()), !dbg !2120
  store i32** %b, i32*** %b.dbg.spill, align 8
  call void @llvm.dbg.declare(metadata i32*** %b.dbg.spill, metadata !2119, metadata !DIExpression()), !dbg !2121
  %_6 = load i32*, i32** %b, align 8, !dbg !2122
  %_3 = icmp ne i32* %a, %_6, !dbg !2123
  %1 = zext i1 %_3 to i32, !dbg !2123
  ret i32 %1, !dbg !2124
}

; Function Attrs: nonlazybind uwtable
define dso_local void @rust_takesPtr(i8* %p) unnamed_addr #1 !dbg !2125 {
start:
  %p.dbg.spill = alloca i8*, align 8
  store i8* %p, i8** %p.dbg.spill, align 8
  call void @llvm.dbg.declare(metadata i8** %p.dbg.spill, metadata !2129, metadata !DIExpression()), !dbg !2130
  ret void, !dbg !2131
}

; Function Attrs: nonlazybind uwtable
define dso_local void @rust_calls_all() unnamed_addr #1 !dbg !2132 {
start:
  %0 = alloca i32*, align 8
  %count.dbg.spill.i14 = alloca i64, align 8
  %self.dbg.spill.i15 = alloca i32*, align 8
  %1 = alloca i32*, align 8
  %count.dbg.spill.i11 = alloca i64, align 8
  %self.dbg.spill.i12 = alloca i32*, align 8
  %2 = alloca i32*, align 8
  %count.dbg.spill.i8 = alloca i64, align 8
  %self.dbg.spill.i9 = alloca i32*, align 8
  %3 = alloca i32*, align 8
  %count.dbg.spill.i5 = alloca i64, align 8
  %self.dbg.spill.i6 = alloca i32*, align 8
  %4 = alloca i8*, align 8
  %count.dbg.spill.i2 = alloca i64, align 8
  %self.dbg.spill.i3 = alloca i8*, align 8
  %5 = alloca i8*, align 8
  %count.dbg.spill.i = alloca i64, align 8
  %self.dbg.spill.i1 = alloca i8*, align 8
  %origin.dbg.spill.i = alloca i32*, align 8
  %self.dbg.spill.i = alloca i32*, align 8
  %r.dbg.spill = alloca %"ref_decay::Page"*, align 8
  %p.dbg.spill = alloca i32, align 4
  %oi.dbg.spill = alloca %"ref_decay::OneInt"*, align 8
  %m.dbg.spill = alloca i8*, align 8
  %k.dbg.spill = alloca i32*, align 8
  %q = alloca i32*, align 8
  %o = alloca i32, align 4
  %n = alloca i32*, align 8
  %ul = alloca i64, align 8
  %l = alloca [2 x i32], align 4
  %init = alloca %"ref_decay::ThreeFields", align 8
  %tf = alloca %"ref_decay::ThreeFields", align 8
  %j = alloca i32, align 4
  %i = alloca i32, align 4
  call void @llvm.dbg.declare(metadata i32* %i, metadata !2134, metadata !DIExpression()), !dbg !2178
  call void @llvm.dbg.declare(metadata i32* %j, metadata !2136, metadata !DIExpression()), !dbg !2179
  call void @llvm.dbg.declare(metadata %"ref_decay::ThreeFields"* %tf, metadata !2142, metadata !DIExpression()), !dbg !2180
  call void @llvm.dbg.declare(metadata %"ref_decay::ThreeFields"* %init, metadata !2149, metadata !DIExpression()), !dbg !2181
  call void @llvm.dbg.declare(metadata [2 x i32]* %l, metadata !2151, metadata !DIExpression()), !dbg !2182
  call void @llvm.dbg.declare(metadata i64* %ul, metadata !2156, metadata !DIExpression()), !dbg !2183
  call void @llvm.dbg.declare(metadata i32** %n, metadata !2164, metadata !DIExpression()), !dbg !2184
  call void @llvm.dbg.declare(metadata i32* %o, metadata !2166, metadata !DIExpression()), !dbg !2185
  call void @llvm.dbg.declare(metadata i32** %q, metadata !2170, metadata !DIExpression()), !dbg !2186
  store i32 1, i32* %i, align 4, !dbg !2187
  store i32 2, i32* %j, align 4, !dbg !2188
  call void @rust_f(i32* %i, i32* %i), !dbg !2189
  br label %bb1, !dbg !2189

bb1:                                              ; preds = %start
  call void @rust_bar(i32* %j), !dbg !2190
  br label %bb2, !dbg !2190

bb2:                                              ; preds = %bb1
  call void @rust_foobar(i32* %i), !dbg !2191
  br label %bb3, !dbg !2191

bb3:                                              ; preds = %bb2
  %_16 = bitcast i32* %i to i8*, !dbg !2192
  call void @rust_bitcast(i8* %_16), !dbg !2193
  br label %bb4, !dbg !2193

bb4:                                              ; preds = %bb3
  store i32* %i, i32** %k.dbg.spill, align 8, !dbg !2194
  call void @llvm.dbg.declare(metadata i32** %k.dbg.spill, metadata !2138, metadata !DIExpression()), !dbg !2195
  %m = bitcast i32* %i to i8*, !dbg !2196
  store i8* %m, i8** %m.dbg.spill, align 8, !dbg !2196
  call void @llvm.dbg.declare(metadata i8** %m.dbg.spill, metadata !2140, metadata !DIExpression()), !dbg !2197
  %_30 = bitcast i32* %i to i8*, !dbg !2198
  %6 = bitcast %"ref_decay::ThreeFields"* %init to i32**, !dbg !2199
  store i32* %i, i32** %6, align 8, !dbg !2199
  %7 = getelementptr inbounds %"ref_decay::ThreeFields", %"ref_decay::ThreeFields"* %init, i32 0, i32 1, !dbg !2199
  store i32* %i, i32** %7, align 8, !dbg !2199
  %8 = getelementptr inbounds %"ref_decay::ThreeFields", %"ref_decay::ThreeFields"* %init, i32 0, i32 2, !dbg !2199
  store i8* %_30, i8** %8, align 8, !dbg !2199
  %9 = bitcast %"ref_decay::ThreeFields"* %tf to i8*, !dbg !2200
  %10 = bitcast %"ref_decay::ThreeFields"* %init to i8*, !dbg !2200
  call void @llvm.memcpy.p0i8.p0i8.i64(i8* align 8 %9, i8* align 8 %10, i64 24, i1 false), !dbg !2200
  %11 = getelementptr inbounds [2 x i32], [2 x i32]* %l, i64 0, i64 0, !dbg !2201
  %12 = bitcast i32* %11 to i8*, !dbg !2201
  call void @llvm.memset.p0i8.i64(i8* align 4 %12, i8 0, i64 8, i1 false), !dbg !2201
  %_35 = bitcast i32* %i to i8*, !dbg !2202
  %_45.0 = bitcast [2 x i32]* %l to [0 x i32]*, !dbg !2203
; call core::slice::<impl [T]>::as_mut_ptr
  %_44 = call i32* @"_ZN4core5slice29_$LT$impl$u20$$u5b$T$u5d$$GT$10as_mut_ptr17h9eb99fc6db42f33eE"([0 x i32]* align 4 %_45.0, i64 2), !dbg !2203
  br label %bb5, !dbg !2203

bb5:                                              ; preds = %bb4
  store i32* %_44, i32** %self.dbg.spill.i15, align 8
  call void @llvm.dbg.declare(metadata i32** %self.dbg.spill.i15, metadata !1790, metadata !DIExpression()), !dbg !2204
  store i64 0, i64* %count.dbg.spill.i14, align 8
  call void @llvm.dbg.declare(metadata i64* %count.dbg.spill.i14, metadata !1793, metadata !DIExpression()), !dbg !2206
  store i32* %_44, i32** %0, align 8, !dbg !2207
  %_3.i16 = load i32*, i32** %0, align 8, !dbg !2207
  br label %bb6, !dbg !2203

bb6:                                              ; preds = %bb5
  %_52.0 = bitcast [2 x i32]* %l to [0 x i32]*, !dbg !2208
; call core::slice::<impl [T]>::as_mut_ptr
  %_51 = call i32* @"_ZN4core5slice29_$LT$impl$u20$$u5b$T$u5d$$GT$10as_mut_ptr17h9eb99fc6db42f33eE"([0 x i32]* align 4 %_52.0, i64 2), !dbg !2208
  br label %bb7, !dbg !2208

bb7:                                              ; preds = %bb6
  store i32* %_51, i32** %self.dbg.spill.i12, align 8
  call void @llvm.dbg.declare(metadata i32** %self.dbg.spill.i12, metadata !1790, metadata !DIExpression()), !dbg !2209
  store i64 1, i64* %count.dbg.spill.i11, align 8
  call void @llvm.dbg.declare(metadata i64* %count.dbg.spill.i11, metadata !1793, metadata !DIExpression()), !dbg !2211
  %13 = getelementptr inbounds i32, i32* %_51, i64 1, !dbg !2212
  store i32* %13, i32** %1, align 8, !dbg !2212
  %_3.i13 = load i32*, i32** %1, align 8, !dbg !2212
  br label %bb8, !dbg !2208

bb8:                                              ; preds = %bb7
  %_34 = call i32 (i8*, i8*, ...) @sscanf(i8* %_35, i8* getelementptr inbounds (<{ [6 x i8] }>, <{ [6 x i8] }>* @alloc10, i32 0, i32 0, i32 0), i32* %_3.i16, i32* %_3.i13), !dbg !2213
  br label %bb9, !dbg !2213

bb9:                                              ; preds = %bb8
  store i64 0, i64* %ul, align 8, !dbg !2214
  %_58 = ptrtoint i64* %ul to i64, !dbg !2215
  call void @rust_address_cast(i64 %_58), !dbg !2216
  br label %bb10, !dbg !2216

bb10:                                             ; preds = %bb9
  store %"ref_decay::OneInt"* null, %"ref_decay::OneInt"** %oi.dbg.spill, align 8, !dbg !2217
  call void @llvm.dbg.declare(metadata %"ref_decay::OneInt"** %oi.dbg.spill, metadata !2158, metadata !DIExpression()), !dbg !2218
  store i32* null, i32** %n, align 8, !dbg !2219
  %_65 = load i32, i32* %i, align 4, !dbg !2220
  %_64 = call i32 @rust_cmp_ref(i32 %_65, i32** %n), !dbg !2221
  br label %bb11, !dbg !2221

bb11:                                             ; preds = %bb10
  store i32 1, i32* %o, align 4, !dbg !2222
  store i32* %o, i32** %self.dbg.spill.i, align 8
  call void @llvm.dbg.declare(metadata i32** %self.dbg.spill.i, metadata !2223, metadata !DIExpression()), !dbg !2229
  store i32* %i, i32** %origin.dbg.spill.i, align 8
  call void @llvm.dbg.declare(metadata i32** %origin.dbg.spill.i, metadata !2228, metadata !DIExpression()), !dbg !2231
; call core::ptr::const_ptr::<impl *const T>::offset_from
  %14 = call i64 @"_ZN4core3ptr9const_ptr33_$LT$impl$u20$$BP$const$u20$T$GT$11offset_from17h97d93ef5cc4158e2E"(i32* %o, i32* %i), !dbg !2232
  br label %bb12, !dbg !2233

bb12:                                             ; preds = %bb11
  %p = trunc i64 %14 to i32, !dbg !2233
  store i32 %p, i32* %p.dbg.spill, align 4, !dbg !2233
  call void @llvm.dbg.declare(metadata i32* %p.dbg.spill, metadata !2168, metadata !DIExpression()), !dbg !2234
  store i32* %o, i32** %self.dbg.spill.i9, align 8
  call void @llvm.dbg.declare(metadata i32** %self.dbg.spill.i9, metadata !1790, metadata !DIExpression()), !dbg !2235
  store i64 0, i64* %count.dbg.spill.i8, align 8
  call void @llvm.dbg.declare(metadata i64* %count.dbg.spill.i8, metadata !1793, metadata !DIExpression()), !dbg !2237
  store i32* %o, i32** %2, align 8, !dbg !2238
  %_3.i10 = load i32*, i32** %2, align 8, !dbg !2238
  store i32* %_3.i10, i32** %q, align 8, !dbg !2239
  br label %bb13, !dbg !2239

bb13:                                             ; preds = %bb12
  store i32* %o, i32** %self.dbg.spill.i6, align 8
  call void @llvm.dbg.declare(metadata i32** %self.dbg.spill.i6, metadata !1790, metadata !DIExpression()), !dbg !2240
  store i64 0, i64* %count.dbg.spill.i5, align 8
  call void @llvm.dbg.declare(metadata i64* %count.dbg.spill.i5, metadata !1793, metadata !DIExpression()), !dbg !2242
  store i32* %o, i32** %3, align 8, !dbg !2243
  %_3.i7 = load i32*, i32** %3, align 8, !dbg !2243
  br label %bb14, !dbg !2244

bb14:                                             ; preds = %bb13
  store i32* %_3.i7, i32** %q, align 8, !dbg !2245
  store %"ref_decay::Page"* null, %"ref_decay::Page"** %r.dbg.spill, align 8, !dbg !2246
  call void @llvm.dbg.declare(metadata %"ref_decay::Page"** %r.dbg.spill, metadata !2172, metadata !DIExpression()), !dbg !2247
  %_92 = load i8*, i8** null, align 8, !dbg !2248
  store i8* %_92, i8** %self.dbg.spill.i3, align 8
  call void @llvm.dbg.declare(metadata i8** %self.dbg.spill.i3, metadata !2249, metadata !DIExpression()), !dbg !2255
  store i64 0, i64* %count.dbg.spill.i2, align 8
  call void @llvm.dbg.declare(metadata i64* %count.dbg.spill.i2, metadata !2254, metadata !DIExpression()), !dbg !2257
  store i8* %_92, i8** %4, align 8, !dbg !2258
  %_3.i4 = load i8*, i8** %4, align 8, !dbg !2258
  br label %bb15, !dbg !2248

bb15:                                             ; preds = %bb14
  store i8* %_3.i4, i8** %self.dbg.spill.i1, align 8
  call void @llvm.dbg.declare(metadata i8** %self.dbg.spill.i1, metadata !2249, metadata !DIExpression()), !dbg !2259
  store i64 0, i64* %count.dbg.spill.i, align 8
  call void @llvm.dbg.declare(metadata i64* %count.dbg.spill.i, metadata !2254, metadata !DIExpression()), !dbg !2261
  store i8* %_3.i4, i8** %5, align 8, !dbg !2262
  %_3.i = load i8*, i8** %5, align 8, !dbg !2262
  br label %bb16, !dbg !2263

bb16:                                             ; preds = %bb15
  %_87 = load i8, i8* %_3.i, align 1, !dbg !2264
  %15 = zext i8 %_87 to i64, !dbg !2264
  %_86 = inttoptr i64 %15 to i8*, !dbg !2264
  call void @rust_takesPtr(i8* %_86), !dbg !2265
  br label %bb17, !dbg !2265

bb17:                                             ; preds = %bb16
  ret void, !dbg !2266
}

; Function Attrs: nonlazybind uwtable
define dso_local i64* @rust_foo() unnamed_addr #1 !dbg !2267 {
start:
  ret i64* null, !dbg !2273
}

; Function Attrs: nonlazybind uwtable
define dso_local i32 @rust_simple(i32** %x, i32** %y) unnamed_addr #1 !dbg !2274 {
start:
  %y.dbg.spill = alloca i32**, align 8
  %x.dbg.spill = alloca i32**, align 8
  store i32** %x, i32*** %x.dbg.spill, align 8
  call void @llvm.dbg.declare(metadata i32*** %x.dbg.spill, metadata !2279, metadata !DIExpression()), !dbg !2281
  store i32** %y, i32*** %y.dbg.spill, align 8
  call void @llvm.dbg.declare(metadata i32*** %y.dbg.spill, metadata !2280, metadata !DIExpression()), !dbg !2282
  %_4 = load i32*, i32** %x, align 8, !dbg !2283
  %_6 = load i32*, i32** %y, align 8, !dbg !2284
  %_3 = icmp eq i32* %_4, %_6, !dbg !2285
  %0 = zext i1 %_3 to i32, !dbg !2285
  ret i32 %0, !dbg !2286
}

; Function Attrs: nonlazybind uwtable
define dso_local void @rust_entry(i32 %buffer_size, i32* %buffer) unnamed_addr #1 !dbg !2287 {
start:
  %0 = alloca i32*, align 8
  %count.dbg.spill.i25 = alloca i64, align 8
  %self.dbg.spill.i26 = alloca i32*, align 8
  %1 = alloca i32*, align 8
  %count.dbg.spill.i22 = alloca i64, align 8
  %self.dbg.spill.i23 = alloca i32*, align 8
  %2 = alloca i32*, align 8
  %count.dbg.spill.i19 = alloca i64, align 8
  %self.dbg.spill.i20 = alloca i32*, align 8
  %3 = alloca i32*, align 8
  %count.dbg.spill.i16 = alloca i64, align 8
  %self.dbg.spill.i17 = alloca i32*, align 8
  %4 = alloca i32*, align 8
  %count.dbg.spill.i13 = alloca i64, align 8
  %self.dbg.spill.i14 = alloca i32*, align 8
  %5 = alloca i8*, align 8
  %count.dbg.spill.i10 = alloca i64, align 8
  %self.dbg.spill.i11 = alloca i8*, align 8
  %6 = alloca i8*, align 8
  %count.dbg.spill.i7 = alloca i64, align 8
  %self.dbg.spill.i8 = alloca i8*, align 8
  %7 = alloca i8*, align 8
  %count.dbg.spill.i4 = alloca i64, align 8
  %self.dbg.spill.i5 = alloca i8*, align 8
  %8 = alloca i8*, align 8
  %count.dbg.spill.i1 = alloca i64, align 8
  %self.dbg.spill.i2 = alloca i8*, align 8
  %9 = alloca i8*, align 8
  %count.dbg.spill.i = alloca i64, align 8
  %self.dbg.spill.i = alloca i8*, align 8
  %test.dbg.spill = alloca i8*, align 8
  %buffer.dbg.spill = alloca i32*, align 8
  %buffer_size.dbg.spill = alloca i32, align 4
  store i32 %buffer_size, i32* %buffer_size.dbg.spill, align 4
