; ModuleID = '24gv3y10vt3ug10t'
source_filename = "24gv3y10vt3ug10t"
target datalayout = "e-m:e-p270:32:32-p271:32:32-p272:64:64-i64:64-f80:128-n8:16:32:64-S128"
target triple = "x86_64-unknown-linux-gnu"

%"core::fmt::Formatter" = type { { i64, i64 }, { i64, i64 }, { {}*, [3 x i64]* }, i32, i32, i8, [7 x i8] }
%"core::ffi::c_str::CStr" = type { [0 x i8] }
%"core::ffi::VaListImpl" = type { i32, i32, i8*, i8*, %"core::marker::PhantomData<&mut &core::ffi::c_void>" }
%"core::marker::PhantomData<&mut &core::ffi::c_void>" = type {}
%"core::fmt::Arguments" = type { { [0 x { [0 x i8]*, i64 }]*, i64 }, { i64*, i64 }, { [0 x { i8*, i64* }]*, i64 } }
%"core::panic::location::Location" = type { { [0 x i8]*, i64 }, i32, i32 }
%"[closure@src/test_varargs.rs:73:1: 79:2]" = type {}
%"[closure@src/test_noop.rs:22:1: 28:2]" = type {}
%"[closure@src/test_varargs.rs:41:1: 46:2]" = type {}
%"[closure@src/test_varargs.rs:83:1: 89:2]" = type {}
%"[closure@src/test_varargs.rs:51:1: 57:2]" = type {}
%"[closure@src/test_varargs.rs:103:1: 109:2]" = type {}
%"[closure@src/test_noop.rs:14:1: 19:2]" = type {}
%"[closure@src/test_functions.rs:9:1: 14:2]" = type {}
%"[closure@src/test_linking.rs:12:1: 28:2]" = type {}
%"[closure@src/test_fn_attrs.rs:4:1: 64:2]" = type {}
%"[closure@src/test_varargs.rs:62:1: 69:2]" = type {}
%"[closure@src/test_varargs.rs:93:1: 99:2]" = type {}
%"[closure@src/test_varargs.rs:113:1: 119:2]" = type {}
%"alloc::vec::Vec<u8>" = type { { i8*, i64 }, i64 }
%"alloc::ffi::c_str::NulError" = type { i64, %"alloc::vec::Vec<u8>" }
%"varargs::vastruct" = type { %"core::ffi::VaListImpl" }
%"core::option::Option<core::convert::Infallible>::None" = type {}
%"core::ptr::metadata::PtrRepr<[u8]>" = type { [2 x i64] }
%"core::option::Option<(usize, usize)>" = type { i64, [2 x i64] }
%"core::str::pattern::TwoWaySearcher" = type { i64, i64, i64, i64, i64, i64, i64, i64 }
%"core::str::pattern::SearchStep" = type { i64, [2 x i64] }
%"core::str::pattern::StrSearcher" = type { { [0 x i8]*, i64 }, { [0 x i8]*, i64 }, %"core::str::pattern::StrSearcherImpl" }
%"core::str::pattern::StrSearcherImpl" = type { i64, [8 x i64] }
%"core::alloc::layout::LayoutError" = type {}
%"core::result::Result<core::convert::Infallible, core::alloc::layout::LayoutError>::Err" = type { %"core::alloc::layout::LayoutError" }
%"core::ptr::metadata::PtrComponents<u8>" = type { {}*, {} }
%"core::ptr::metadata::PtrRepr<u8>" = type { [1 x i64] }
%"[closure@<core::str::iter::Chars as core::iter::traits::iterator::Iterator>::next::{closure#0}]" = type {}
%"core::result::Result<alloc::ffi::c_str::CString, alloc::ffi::c_str::NulError>" = type { i64, [4 x i64] }
%"core::result::Result<alloc::ffi::c_str::CString, alloc::ffi::c_str::NulError>::Ok" = type { [1 x i64], { i8*, i64 } }
%"core::result::Result<alloc::ffi::c_str::CString, alloc::ffi::c_str::NulError>::Err" = type { [1 x i64], %"alloc::ffi::c_str::NulError" }
%"core::option::Option<core::fmt::Arguments>" = type { {}*, [5 x i64] }
%"core::fmt::Opaque" = type {}
%"core::option::Option<core::fmt::Arguments>::Some" = type { %"core::fmt::Arguments" }
%"alloc::alloc::Global" = type {}
%"core::option::Option<(core::ptr::non_null::NonNull<u8>, core::alloc::layout::Layout)>" = type { [2 x i64], i64 }
%"core::option::Option<(core::ptr::non_null::NonNull<u8>, core::alloc::layout::Layout)>::Some" = type { { i8*, { i64, i64 } } }
%"core::mem::maybe_uninit::MaybeUninit<core::ffi::VaListImpl>" = type { [3 x i64] }
%"core::mem::manually_drop::ManuallyDrop<core::ffi::VaListImpl>" = type { %"core::ffi::VaListImpl" }
%"core::str::pattern::StrSearcherImpl::TwoWay" = type { [1 x i64], %"core::str::pattern::TwoWaySearcher" }
%"core::str::pattern::SearchStep::Match" = type { [1 x i64], i64, i64 }
%"core::option::Option<(usize, usize)>::Some" = type { [1 x i64], { i64, i64 } }
%"core::str::pattern::EmptyNeedle" = type { i64, i64, i8, i8, i8, [5 x i8] }
%"core::str::pattern::StrSearcherImpl::Empty" = type { [1 x i64], %"core::str::pattern::EmptyNeedle" }
%"core::str::pattern::SearchStep::Reject" = type { [1 x i64], i64, i64 }
%"test::types::TestDescAndFn" = type { %"test::types::TestDesc", %"test::types::TestFn" }
%"test::types::TestDesc" = type { %"test::types::TestName", { i8*, i64 }, %"test::options::ShouldPanic", i8, i8, i8, i8, [4 x i8] }
%"test::types::TestName" = type { i8, [39 x i8] }
%"test::options::ShouldPanic" = type { i64, [2 x i64] }
%"test::types::TestFn" = type { i64, [2 x i64] }
%"unwind::libunwind::_Unwind_Exception" = type { i64, void (i32, %"unwind::libunwind::_Unwind_Exception"*)*, [6 x i64] }
%"unwind::libunwind::_Unwind_Context" = type { [0 x i8] }

@vtable.0 = private unnamed_addr constant <{ i8*, [16 x i8], i8*, i8*, i8* }> <{ i8* bitcast (void (i64**)* @"_ZN4core3ptr85drop_in_place$LT$std..rt..lang_start$LT$$LP$$RP$$GT$..$u7b$$u7b$closure$u7d$$u7d$$GT$17h5d703a7dbb78ea20E" to i8*), [16 x i8] c"\08\00\00\00\00\00\00\00\08\00\00\00\00\00\00\00", i8* bitcast (i32 (i64**)* @"_ZN4core3ops8function6FnOnce40call_once$u7b$$u7b$vtable.shim$u7d$$u7d$17he3358dbf817acd06E" to i8*), i8* bitcast (i32 (i64**)* @"_ZN3std2rt10lang_start28_$u7b$$u7b$closure$u7d$$u7d$17hd0fde3f377fa9f03E" to i8*), i8* bitcast (i32 (i64**)* @"_ZN3std2rt10lang_start28_$u7b$$u7b$closure$u7d$$u7d$17hd0fde3f377fa9f03E" to i8*) }>, align 8, !dbg !0
@alloc158 = private unnamed_addr constant <{ [12 x i8] }> <{ [12 x i8] c"invalid args" }>, align 1
@alloc159 = private unnamed_addr constant <{ i8*, [8 x i8] }> <{ i8* getelementptr inbounds (<{ [12 x i8] }>, <{ [12 x i8] }>* @alloc158, i32 0, i32 0, i32 0), [8 x i8] c"\0C\00\00\00\00\00\00\00" }>, align 8
@alloc161 = private unnamed_addr constant <{}> zeroinitializer, align 8
@alloc556 = private unnamed_addr constant <{ [75 x i8] }> <{ [75 x i8] c"/rustc/d394408fb38c4de61f765a3ed5189d2731a1da91/library/core/src/fmt/mod.rs" }>, align 1
@alloc557 = private unnamed_addr constant <{ i8*, [16 x i8] }> <{ i8* getelementptr inbounds (<{ [75 x i8] }>, <{ [75 x i8] }>* @alloc556, i32 0, i32 0, i32 0), [16 x i8] c"K\00\00\00\00\00\00\00\88\01\00\00\0D\00\00\00" }>, align 8
@alloc578 = private unnamed_addr constant <{ [79 x i8] }> <{ [79 x i8] c"/rustc/d394408fb38c4de61f765a3ed5189d2731a1da91/library/core/src/str/pattern.rs" }>, align 1
@alloc559 = private unnamed_addr constant <{ i8*, [16 x i8] }> <{ i8* getelementptr inbounds (<{ [79 x i8] }>, <{ [79 x i8] }>* @alloc578, i32 0, i32 0, i32 0), [16 x i8] c"O\00\00\00\00\00\00\00\8C\05\00\00\14\00\00\00" }>, align 8
@alloc561 = private unnamed_addr constant <{ i8*, [16 x i8] }> <{ i8* getelementptr inbounds (<{ [79 x i8] }>, <{ [79 x i8] }>* @alloc578, i32 0, i32 0, i32 0), [16 x i8] c"O\00\00\00\00\00\00\00\8C\05\00\00!\00\00\00" }>, align 8
@alloc563 = private unnamed_addr constant <{ i8*, [16 x i8] }> <{ i8* getelementptr inbounds (<{ [79 x i8] }>, <{ [79 x i8] }>* @alloc578, i32 0, i32 0, i32 0), [16 x i8] c"O\00\00\00\00\00\00\00\98\05\00\00\14\00\00\00" }>, align 8
@alloc565 = private unnamed_addr constant <{ i8*, [16 x i8] }> <{ i8* getelementptr inbounds (<{ [79 x i8] }>, <{ [79 x i8] }>* @alloc578, i32 0, i32 0, i32 0), [16 x i8] c"O\00\00\00\00\00\00\00\98\05\00\00!\00\00\00" }>, align 8
@alloc566 = private unnamed_addr constant <{ [43 x i8] }> <{ [43 x i8] c"called `Result::unwrap()` on an `Err` value" }>, align 1
@vtable.1 = private unnamed_addr constant <{ i8*, [16 x i8], i8* }> <{ i8* bitcast (void (%"alloc::ffi::c_str::NulError"*)* @"_ZN4core3ptr48drop_in_place$LT$alloc..ffi..c_str..NulError$GT$17hd06c3484267b3946E" to i8*), [16 x i8] c" \00\00\00\00\00\00\00\08\00\00\00\00\00\00\00", i8* bitcast (i1 (%"alloc::ffi::c_str::NulError"*, %"core::fmt::Formatter"*)* @"_ZN64_$LT$alloc..ffi..c_str..NulError$u20$as$u20$core..fmt..Debug$GT$3fmt17ha6ddf2cfa3845ef5E" to i8*) }>, align 8, !dbg !24
@vtable.2 = private unnamed_addr constant <{ i8*, [16 x i8], i8* }> <{ i8* bitcast (void (double**)* @"_ZN4core3ptr28drop_in_place$LT$$RF$f64$GT$17h6a3355b55063efb7E" to i8*), [16 x i8] c"\08\00\00\00\00\00\00\00\08\00\00\00\00\00\00\00", i8* bitcast (i1 (double**, %"core::fmt::Formatter"*)* @"_ZN42_$LT$$RF$T$u20$as$u20$core..fmt..Debug$GT$3fmt17h9be428947809936eE" to i8*) }>, align 8, !dbg !71
@vtable.3 = private unnamed_addr constant <{ i8*, [16 x i8], i8* }> <{ i8* bitcast (void (i32**)* @"_ZN4core3ptr28drop_in_place$LT$$RF$i32$GT$17h7a6644d12aade1d6E" to i8*), [16 x i8] c"\08\00\00\00\00\00\00\00\08\00\00\00\00\00\00\00", i8* bitcast (i1 (i32**, %"core::fmt::Formatter"*)* @"_ZN42_$LT$$RF$T$u20$as$u20$core..fmt..Debug$GT$3fmt17h4cc1ce3e266e3b6dE" to i8*) }>, align 8, !dbg !81
@alloc172 = private unnamed_addr constant <{ [4 x i8] }> zeroinitializer, align 4
@alloc149 = private unnamed_addr constant <{ [67 x i8] }> <{ [67 x i8] c"the test returned a termination value with a non-zero status code (" }>, align 1
@alloc151 = private unnamed_addr constant <{ [27 x i8] }> <{ [27 x i8] c") which indicates a failure" }>, align 1
@alloc150 = private unnamed_addr constant <{ i8*, [8 x i8], i8*, [8 x i8] }> <{ i8* getelementptr inbounds (<{ [67 x i8] }>, <{ [67 x i8] }>* @alloc149, i32 0, i32 0, i32 0), [8 x i8] c"C\00\00\00\00\00\00\00", i8* getelementptr inbounds (<{ [27 x i8] }>, <{ [27 x i8] }>* @alloc151, i32 0, i32 0, i32 0), [8 x i8] c"\1B\00\00\00\00\00\00\00" }>, align 8
@alloc576 = private unnamed_addr constant <{ [71 x i8] }> <{ [71 x i8] c"/rustc/d394408fb38c4de61f765a3ed5189d2731a1da91/library/test/src/lib.rs" }>, align 1
@alloc577 = private unnamed_addr constant <{ i8*, [16 x i8] }> <{ i8* getelementptr inbounds (<{ [71 x i8] }>, <{ [71 x i8] }>* @alloc576, i32 0, i32 0, i32 0), [16 x i8] c"G\00\00\00\00\00\00\00\B8\00\00\00\05\00\00\00" }>, align 8
@alloc579 = private unnamed_addr constant <{ i8*, [16 x i8] }> <{ i8* getelementptr inbounds (<{ [79 x i8] }>, <{ [79 x i8] }>* @alloc578, i32 0, i32 0, i32 0), [16 x i8] c"O\00\00\00\00\00\00\00\1C\04\00\00\17\00\00\00" }>, align 8
@rust_mut = global <{ [4 x i8] }> <{ [4 x i8] c"\01\00\00\00" }>, align 4, !dbg !91
@rust_y = global <{ [4 x i8] }> <{ [4 x i8] c"\02\00\00\00" }>, align 4, !dbg !96
@alloc1 = private unnamed_addr constant <{ [8 x i8] }> <{ [8 x i8] c"%d, %f\0A\00" }>, align 1
@alloc4 = private unnamed_addr constant <{ [3 x i8] }> <{ [3 x i8] c"%s\00" }>, align 1
@alloc3 = private unnamed_addr constant <{ [3 x i8] }> <{ [3 x i8] c"%f\00" }>, align 1
@alloc2 = private unnamed_addr constant <{ [3 x i8] }> <{ [3 x i8] c"%d\00" }>, align 1
@alloc590 = private unnamed_addr constant <{ [14 x i8] }> <{ [14 x i8] c"src/varargs.rs" }>, align 1
@alloc581 = private unnamed_addr constant <{ i8*, [16 x i8] }> <{ i8* getelementptr inbounds (<{ [14 x i8] }>, <{ [14 x i8] }>* @alloc590, i32 0, i32 0, i32 0), [16 x i8] c"\0E\00\00\00\00\00\00\00v\00\00\004\00\00\00" }>, align 8
@alloc583 = private unnamed_addr constant <{ i8*, [16 x i8] }> <{ i8* getelementptr inbounds (<{ [14 x i8] }>, <{ [14 x i8] }>* @alloc590, i32 0, i32 0, i32 0), [16 x i8] c"\0E\00\00\00\00\00\00\00y\00\00\004\00\00\00" }>, align 8
@alloc585 = private unnamed_addr constant <{ i8*, [16 x i8] }> <{ i8* getelementptr inbounds (<{ [14 x i8] }>, <{ [14 x i8] }>* @alloc590, i32 0, i32 0, i32 0), [16 x i8] c"\0E\00\00\00\00\00\00\00\86\00\00\004\00\00\00" }>, align 8
@alloc587 = private unnamed_addr constant <{ i8*, [16 x i8] }> <{ i8* getelementptr inbounds (<{ [14 x i8] }>, <{ [14 x i8] }>* @alloc590, i32 0, i32 0, i32 0), [16 x i8] c"\0E\00\00\00\00\00\00\00\89\00\00\004\00\00\00" }>, align 8
@alloc589 = private unnamed_addr constant <{ i8*, [16 x i8] }> <{ i8* getelementptr inbounds (<{ [14 x i8] }>, <{ [14 x i8] }>* @alloc590, i32 0, i32 0, i32 0), [16 x i8] c"\0E\00\00\00\00\00\00\00\AB\00\00\00\09\00\00\00" }>, align 8
@str.4 = internal constant [28 x i8] c"attempt to add with overflow"
@alloc591 = private unnamed_addr constant <{ i8*, [16 x i8] }> <{ i8* getelementptr inbounds (<{ [14 x i8] }>, <{ [14 x i8] }>* @alloc590, i32 0, i32 0, i32 0), [16 x i8] c"\0E\00\00\00\00\00\00\00\B4\00\00\00\09\00\00\00" }>, align 8
@alloc594 = private unnamed_addr constant <{ [16 x i8] }> <{ [16 x i8] c"src/test_noop.rs" }>, align 1
@alloc593 = private unnamed_addr constant <{ i8*, [16 x i8] }> <{ i8* getelementptr inbounds (<{ [16 x i8] }>, <{ [16 x i8] }>* @alloc594, i32 0, i32 0, i32 0), [16 x i8] c"\10\00\00\00\00\00\00\00\1A\00\00\00\05\00\00\00" }>, align 8
@alloc595 = private unnamed_addr constant <{ i8*, [16 x i8] }> <{ i8* getelementptr inbounds (<{ [16 x i8] }>, <{ [16 x i8] }>* @alloc594, i32 0, i32 0, i32 0), [16 x i8] c"\10\00\00\00\00\00\00\00\1B\00\00\00\05\00\00\00" }>, align 8
@alloc606 = private unnamed_addr constant <{ [19 x i8] }> <{ [19 x i8] c"src/test_linking.rs" }>, align 1
@alloc597 = private unnamed_addr constant <{ i8*, [16 x i8] }> <{ i8* getelementptr inbounds (<{ [19 x i8] }>, <{ [19 x i8] }>* @alloc606, i32 0, i32 0, i32 0), [16 x i8] c"\13\00\00\00\00\00\00\00\11\00\00\00\05\00\00\00" }>, align 8
@alloc206 = private unnamed_addr constant <{ [4 x i8] }> <{ [4 x i8] c"\03\00\00\00" }>, align 4
@alloc599 = private unnamed_addr constant <{ i8*, [16 x i8] }> <{ i8* getelementptr inbounds (<{ [19 x i8] }>, <{ [19 x i8] }>* @alloc606, i32 0, i32 0, i32 0), [16 x i8] c"\13\00\00\00\00\00\00\00\12\00\00\00\05\00\00\00" }>, align 8
@alloc601 = private unnamed_addr constant <{ i8*, [16 x i8] }> <{ i8* getelementptr inbounds (<{ [19 x i8] }>, <{ [19 x i8] }>* @alloc606, i32 0, i32 0, i32 0), [16 x i8] c"\13\00\00\00\00\00\00\00\13\00\00\00\05\00\00\00" }>, align 8
@alloc603 = private unnamed_addr constant <{ i8*, [16 x i8] }> <{ i8* getelementptr inbounds (<{ [19 x i8] }>, <{ [19 x i8] }>* @alloc606, i32 0, i32 0, i32 0), [16 x i8] c"\13\00\00\00\00\00\00\00\19\00\00\00\05\00\00\00" }>, align 8
@alloc222 = private unnamed_addr constant <{ [4 x i8] }> <{ [4 x i8] c"\04\00\00\00" }>, align 4
@alloc605 = private unnamed_addr constant <{ i8*, [16 x i8] }> <{ i8* getelementptr inbounds (<{ [19 x i8] }>, <{ [19 x i8] }>* @alloc606, i32 0, i32 0, i32 0), [16 x i8] c"\13\00\00\00\00\00\00\00\1A\00\00\00\05\00\00\00" }>, align 8
@alloc607 = private unnamed_addr constant <{ i8*, [16 x i8] }> <{ i8* getelementptr inbounds (<{ [19 x i8] }>, <{ [19 x i8] }>* @alloc606, i32 0, i32 0, i32 0), [16 x i8] c"\13\00\00\00\00\00\00\00\1B\00\00\00\05\00\00\00" }>, align 8
@alloc608 = private unnamed_addr constant <{ [2057 x i8] }> <{ [2057 x i8] c"#![allow(\0A    dead_code,\0A    mutable_transmutes,\0A    non_camel_case_types,\0A    non_snake_case,\0A    non_upper_case_globals,\0A    unused_assignments,\0A    unused_mut\0A)]\0A#![feature(linkage)]\0Aextern \22C\22 {\0A    #[link_name = \22inline_extern\22]\0A    fn aliased_fn();\0A}\0A#[inline(always)]\0Aunsafe extern \22C\22 fn rust_always_inline_static() {}\0A#[inline(never)]\0Aunsafe extern \22C\22 fn rust_noinline_static() {}\0A#[inline]\0Aunsafe extern \22C\22 fn rust_inline_static() {}\0A#[inline]\0Aunsafe extern \22C\22 fn rust_alt_kw_inline_static() {}\0A#[inline]\0Aunsafe extern \22C\22 fn rust_gnu_inline_static() {}\0A#[cold]\0Aunsafe extern \22C\22 fn rust_cold_used_attrs() {}\0A#[inline(always)]\0Aunsafe extern \22C\22 fn rust_always_inline_nonstatic() {}\0A#[inline]\0Aunsafe extern \22C\22 fn rust_gnu_inline_nonstatic() {}\0A#[no_mangle]\0A#[inline(never)]\0Apub unsafe extern \22C\22 fn rust_noinline_nonstatic() {}\0A#[inline]\0Aunsafe extern \22C\22 fn rust_inline_nonstatic() {}\0A#[inline]\0Aunsafe extern \22C\22 fn rust_alt_kw_inline_nonstatic() {}\0A#[no_mangle]\0A#[inline]\0A#[linkage = \22external\22]\0Apub unsafe extern \22C\22 fn rust_inline_extern() {}\0A#[no_mangle]\0A#[inline]\0A#[linkage = \22external\22]\0Apub unsafe extern \22C\22 fn rust_alt_kw_inline_extern() {}\0A#[no_mangle]\0A#[inline(always)]\0Apub unsafe extern \22C\22 fn rust_always_inline_extern() {}\0A#[inline]\0Aunsafe extern \22C\22 fn rust_gnu_inline_extern() {}\0A#[inline(always)]\0Aunsafe extern \22C\22 fn rust_always_inline_gnu_inline_extern() {}\0A#[inline]\0Aunsafe extern \22C\22 fn rust_gnu_inline_non_canonical_definition_extern() {}\0A#[no_mangle]\0Apub unsafe extern \22C\22 fn rust_ensure_use() {\0A    rust_always_inline_static();\0A    rust_always_inline_nonstatic();\0A    rust_gnu_inline_nonstatic();\0A    rust_inline_static();\0A    rust_alt_kw_inline_static();\0A    rust_noinline_static();\0A    rust_inline_nonstatic();\0A    rust_alt_kw_inline_nonstatic();\0A    rust_gnu_inline_static();\0A    rust_inline_extern();\0A    rust_alt_kw_inline_extern();\0A    rust_always_inline_extern();\0A    rust_gnu_inline_extern();\0A    rust_always_inline_gnu_inline_extern();\0A    rust_gnu_inline_non_canonical_definition_extern();\0A    aliased_fn();\0A}\0A" }>, align 1
@alloc609 = private unnamed_addr constant <{ [64 x i8] }> <{ [64 x i8] c"#[inline(always)]\0Aunsafe extern \22C\22 fn rust_always_inline_static" }>, align 1
@alloc610 = private unnamed_addr constant <{ [108 x i8] }> <{ [108 x i8] c"assertion failed: src.contains(\\\22#[inline(always)]\\\\nunsafe extern \\\\\\\22C\\\\\\\22 fn rust_always_inline_static\\\22)" }>, align 1
@alloc679 = private unnamed_addr constant <{ [20 x i8] }> <{ [20 x i8] c"src/test_fn_attrs.rs" }>, align 1
@alloc612 = private unnamed_addr constant <{ i8*, [16 x i8] }> <{ i8* getelementptr inbounds (<{ [20 x i8] }>, <{ [20 x i8] }>* @alloc679, i32 0, i32 0, i32 0), [16 x i8] c"\14\00\00\00\00\00\00\00\19\00\00\00\05\00\00\00" }>, align 8
@alloc613 = private unnamed_addr constant <{ [58 x i8] }> <{ [58 x i8] c"#[inline(never)]\0Aunsafe extern \22C\22 fn rust_noinline_static" }>, align 1
@alloc614 = private unnamed_addr constant <{ [102 x i8] }> <{ [102 x i8] c"assertion failed: src.contains(\\\22#[inline(never)]\\\\nunsafe extern \\\\\\\22C\\\\\\\22 fn rust_noinline_static\\\22)" }>, align 1
@alloc616 = private unnamed_addr constant <{ i8*, [16 x i8] }> <{ i8* getelementptr inbounds (<{ [20 x i8] }>, <{ [20 x i8] }>* @alloc679, i32 0, i32 0, i32 0), [16 x i8] c"\14\00\00\00\00\00\00\00\1A\00\00\00\05\00\00\00" }>, align 8
@alloc617 = private unnamed_addr constant <{ [49 x i8] }> <{ [49 x i8] c"#[inline]\0Aunsafe extern \22C\22 fn rust_inline_static" }>, align 1
@alloc618 = private unnamed_addr constant <{ [93 x i8] }> <{ [93 x i8] c"assertion failed: src.contains(\\\22#[inline]\\\\nunsafe extern \\\\\\\22C\\\\\\\22 fn rust_inline_static\\\22)" }>, align 1
@alloc620 = private unnamed_addr constant <{ i8*, [16 x i8] }> <{ i8* getelementptr inbounds (<{ [20 x i8] }>, <{ [20 x i8] }>* @alloc679, i32 0, i32 0, i32 0), [16 x i8] c"\14\00\00\00\00\00\00\00\1B\00\00\00\05\00\00\00" }>, align 8
@alloc621 = private unnamed_addr constant <{ [56 x i8] }> <{ [56 x i8] c"#[inline]\0Aunsafe extern \22C\22 fn rust_alt_kw_inline_static" }>, align 1
@alloc622 = private unnamed_addr constant <{ [100 x i8] }> <{ [100 x i8] c"assertion failed: src.contains(\\\22#[inline]\\\\nunsafe extern \\\\\\\22C\\\\\\\22 fn rust_alt_kw_inline_static\\\22)" }>, align 1
@alloc624 = private unnamed_addr constant <{ i8*, [16 x i8] }> <{ i8* getelementptr inbounds (<{ [20 x i8] }>, <{ [20 x i8] }>* @alloc679, i32 0, i32 0, i32 0), [16 x i8] c"\14\00\00\00\00\00\00\00\1C\00\00\00\05\00\00\00" }>, align 8
@alloc625 = private unnamed_addr constant <{ [53 x i8] }> <{ [53 x i8] c"#[inline]\0Aunsafe extern \22C\22 fn rust_gnu_inline_static" }>, align 1
@alloc626 = private unnamed_addr constant <{ [97 x i8] }> <{ [97 x i8] c"assertion failed: src.contains(\\\22#[inline]\\\\nunsafe extern \\\\\\\22C\\\\\\\22 fn rust_gnu_inline_static\\\22)" }>, align 1
@alloc628 = private unnamed_addr constant <{ i8*, [16 x i8] }> <{ i8* getelementptr inbounds (<{ [20 x i8] }>, <{ [20 x i8] }>* @alloc679, i32 0, i32 0, i32 0), [16 x i8] c"\14\00\00\00\00\00\00\00\1D\00\00\00\05\00\00\00" }>, align 8
@alloc629 = private unnamed_addr constant <{ [49 x i8] }> <{ [49 x i8] c"#[cold]\0Aunsafe extern \22C\22 fn rust_cold_used_attrs" }>, align 1
@alloc630 = private unnamed_addr constant <{ [93 x i8] }> <{ [93 x i8] c"assertion failed: src.contains(\\\22#[cold]\\\\nunsafe extern \\\\\\\22C\\\\\\\22 fn rust_cold_used_attrs\\\22)" }>, align 1
@alloc632 = private unnamed_addr constant <{ i8*, [16 x i8] }> <{ i8* getelementptr inbounds (<{ [20 x i8] }>, <{ [20 x i8] }>* @alloc679, i32 0, i32 0, i32 0), [16 x i8] c"\14\00\00\00\00\00\00\00\1E\00\00\00\05\00\00\00" }>, align 8
@alloc633 = private unnamed_addr constant <{ [67 x i8] }> <{ [67 x i8] c"#[inline(always)]\0Aunsafe extern \22C\22 fn rust_always_inline_nonstatic" }>, align 1
@alloc634 = private unnamed_addr constant <{ [111 x i8] }> <{ [111 x i8] c"assertion failed: src.contains(\\\22#[inline(always)]\\\\nunsafe extern \\\\\\\22C\\\\\\\22 fn rust_always_inline_nonstatic\\\22)" }>, align 1
@alloc636 = private unnamed_addr constant <{ i8*, [16 x i8] }> <{ i8* getelementptr inbounds (<{ [20 x i8] }>, <{ [20 x i8] }>* @alloc679, i32 0, i32 0, i32 0), [16 x i8] c"\14\00\00\00\00\00\00\00#\00\00\00\05\00\00\00" }>, align 8
@alloc637 = private unnamed_addr constant <{ [65 x i8] }> <{ [65 x i8] c"#[inline(never)]\0Apub unsafe extern \22C\22 fn rust_noinline_nonstatic" }>, align 1
@alloc638 = private unnamed_addr constant <{ [109 x i8] }> <{ [109 x i8] c"assertion failed: src.contains(\\\22#[inline(never)]\\\\npub unsafe extern \\\\\\\22C\\\\\\\22 fn rust_noinline_nonstatic\\\22)" }>, align 1
@alloc640 = private unnamed_addr constant <{ i8*, [16 x i8] }> <{ i8* getelementptr inbounds (<{ [20 x i8] }>, <{ [20 x i8] }>* @alloc679, i32 0, i32 0, i32 0), [16 x i8] c"\14\00\00\00\00\00\00\00$\00\00\00\05\00\00\00" }>, align 8
@alloc641 = private unnamed_addr constant <{ [52 x i8] }> <{ [52 x i8] c"#[inline]\0Aunsafe extern \22C\22 fn rust_inline_nonstatic" }>, align 1
@alloc642 = private unnamed_addr constant <{ [96 x i8] }> <{ [96 x i8] c"assertion failed: src.contains(\\\22#[inline]\\\\nunsafe extern \\\\\\\22C\\\\\\\22 fn rust_inline_nonstatic\\\22)" }>, align 1
@alloc644 = private unnamed_addr constant <{ i8*, [16 x i8] }> <{ i8* getelementptr inbounds (<{ [20 x i8] }>, <{ [20 x i8] }>* @alloc679, i32 0, i32 0, i32 0), [16 x i8] c"\14\00\00\00\00\00\00\00%\00\00\00\05\00\00\00" }>, align 8
@alloc645 = private unnamed_addr constant <{ [59 x i8] }> <{ [59 x i8] c"#[inline]\0Aunsafe extern \22C\22 fn rust_alt_kw_inline_nonstatic" }>, align 1
@alloc646 = private unnamed_addr constant <{ [103 x i8] }> <{ [103 x i8] c"assertion failed: src.contains(\\\22#[inline]\\\\nunsafe extern \\\\\\\22C\\\\\\\22 fn rust_alt_kw_inline_nonstatic\\\22)" }>, align 1
@alloc648 = private unnamed_addr constant <{ i8*, [16 x i8] }> <{ i8* getelementptr inbounds (<{ [20 x i8] }>, <{ [20 x i8] }>* @alloc679, i32 0, i32 0, i32 0), [16 x i8] c"\14\00\00\00\00\00\00\00&\00\00\00\05\00\00\00" }>, align 8
@alloc649 = private unnamed_addr constant <{ [56 x i8] }> <{ [56 x i8] c"#[inline]\0Aunsafe extern \22C\22 fn rust_gnu_inline_nonstatic" }>, align 1
@alloc650 = private unnamed_addr constant <{ [100 x i8] }> <{ [100 x i8] c"assertion failed: src.contains(\\\22#[inline]\\\\nunsafe extern \\\\\\\22C\\\\\\\22 fn rust_gnu_inline_nonstatic\\\22)" }>, align 1
@alloc652 = private unnamed_addr constant <{ i8*, [16 x i8] }> <{ i8* getelementptr inbounds (<{ [20 x i8] }>, <{ [20 x i8] }>* @alloc679, i32 0, i32 0, i32 0), [16 x i8] c"\14\00\00\00\00\00\00\00'\00\00\00\05\00\00\00" }>, align 8
@alloc653 = private unnamed_addr constant <{ [77 x i8] }> <{ [77 x i8] c"#[inline]\0A#[linkage = \22external\22]\0Apub unsafe extern \22C\22 fn rust_inline_extern" }>, align 1
@alloc654 = private unnamed_addr constant <{ [129 x i8] }> <{ [129 x i8] c"assertion failed: src.contains(\\\22#[inline]\\\\n#[linkage = \\\\\\\22external\\\\\\\22]\\\\npub unsafe extern \\\\\\\22C\\\\\\\22 fn rust_inline_extern\\\22)" }>, align 1
@alloc656 = private unnamed_addr constant <{ i8*, [16 x i8] }> <{ i8* getelementptr inbounds (<{ [20 x i8] }>, <{ [20 x i8] }>* @alloc679, i32 0, i32 0, i32 0), [16 x i8] c"\14\00\00\00\00\00\00\00-\00\00\00\05\00\00\00" }>, align 8
@alloc657 = private unnamed_addr constant <{ [84 x i8] }> <{ [84 x i8] c"#[inline]\0A#[linkage = \22external\22]\0Apub unsafe extern \22C\22 fn rust_alt_kw_inline_extern" }>, align 1
@alloc658 = private unnamed_addr constant <{ [136 x i8] }> <{ [136 x i8] c"assertion failed: src.contains(\\\22#[inline]\\\\n#[linkage = \\\\\\\22external\\\\\\\22]\\\\npub unsafe extern \\\\\\\22C\\\\\\\22 fn rust_alt_kw_inline_extern\\\22)" }>, align 1
@alloc660 = private unnamed_addr constant <{ i8*, [16 x i8] }> <{ i8* getelementptr inbounds (<{ [20 x i8] }>, <{ [20 x i8] }>* @alloc679, i32 0, i32 0, i32 0), [16 x i8] c"\14\00\00\00\00\00\00\000\00\00\00\05\00\00\00" }>, align 8
@alloc661 = private unnamed_addr constant <{ [68 x i8] }> <{ [68 x i8] c"#[inline(always)]\0Apub unsafe extern \22C\22 fn rust_always_inline_extern" }>, align 1
@alloc662 = private unnamed_addr constant <{ [112 x i8] }> <{ [112 x i8] c"assertion failed: src.contains(\\\22#[inline(always)]\\\\npub unsafe extern \\\\\\\22C\\\\\\\22 fn rust_always_inline_extern\\\22)" }>, align 1
@alloc664 = private unnamed_addr constant <{ i8*, [16 x i8] }> <{ i8* getelementptr inbounds (<{ [20 x i8] }>, <{ [20 x i8] }>* @alloc679, i32 0, i32 0, i32 0), [16 x i8] c"\14\00\00\00\00\00\00\001\00\00\00\05\00\00\00" }>, align 8
@alloc665 = private unnamed_addr constant <{ [53 x i8] }> <{ [53 x i8] c"#[inline]\0Aunsafe extern \22C\22 fn rust_gnu_inline_extern" }>, align 1
@alloc666 = private unnamed_addr constant <{ [97 x i8] }> <{ [97 x i8] c"assertion failed: src.contains(\\\22#[inline]\\\\nunsafe extern \\\\\\\22C\\\\\\\22 fn rust_gnu_inline_extern\\\22)" }>, align 1
@alloc668 = private unnamed_addr constant <{ i8*, [16 x i8] }> <{ i8* getelementptr inbounds (<{ [20 x i8] }>, <{ [20 x i8] }>* @alloc679, i32 0, i32 0, i32 0), [16 x i8] c"\14\00\00\00\00\00\00\002\00\00\00\05\00\00\00" }>, align 8
@alloc669 = private unnamed_addr constant <{ [75 x i8] }> <{ [75 x i8] c"#[inline(always)]\0Aunsafe extern \22C\22 fn rust_always_inline_gnu_inline_extern" }>, align 1
@alloc670 = private unnamed_addr constant <{ [119 x i8] }> <{ [119 x i8] c"assertion failed: src.contains(\\\22#[inline(always)]\\\\nunsafe extern \\\\\\\22C\\\\\\\22 fn rust_always_inline_gnu_inline_extern\\\22)" }>, align 1
@alloc672 = private unnamed_addr constant <{ i8*, [16 x i8] }> <{ i8* getelementptr inbounds (<{ [20 x i8] }>, <{ [20 x i8] }>* @alloc679, i32 0, i32 0, i32 0), [16 x i8] c"\14\00\00\00\00\00\00\003\00\00\00\05\00\00\00" }>, align 8
@alloc673 = private unnamed_addr constant <{ [78 x i8] }> <{ [78 x i8] c"#[inline]\0Aunsafe extern \22C\22 fn rust_gnu_inline_non_canonical_definition_extern" }>, align 1
@alloc674 = private unnamed_addr constant <{ [122 x i8] }> <{ [122 x i8] c"assertion failed: src.contains(\\\22#[inline]\\\\nunsafe extern \\\\\\\22C\\\\\\\22 fn rust_gnu_inline_non_canonical_definition_extern\\\22)" }>, align 1
@alloc676 = private unnamed_addr constant <{ i8*, [16 x i8] }> <{ i8* getelementptr inbounds (<{ [20 x i8] }>, <{ [20 x i8] }>* @alloc679, i32 0, i32 0, i32 0), [16 x i8] c"\14\00\00\00\00\00\00\006\00\00\00\05\00\00\00" }>, align 8
@alloc677 = private unnamed_addr constant <{ [68 x i8] }> <{ [68 x i8] c"extern \22C\22 {\0A    #[link_name = \22inline_extern\22]\0A    fn aliased_fn();" }>, align 1
@alloc678 = private unnamed_addr constant <{ [120 x i8] }> <{ [120 x i8] c"assertion failed: src.contains(\\\22extern \\\\\\\22C\\\\\\\22 {\\\\n    #[link_name = \\\\\\\22inline_extern\\\\\\\22]\\\\n    fn aliased_fn();\\\22)" }>, align 1
@alloc680 = private unnamed_addr constant <{ i8*, [16 x i8] }> <{ i8* getelementptr inbounds (<{ [20 x i8] }>, <{ [20 x i8] }>* @alloc679, i32 0, i32 0, i32 0), [16 x i8] c"\14\00\00\00\00\00\00\00<\00\00\00\09\00\00\00" }>, align 8
@alloc699 = private unnamed_addr constant <{ [7 x i8] }> <{ [7 x i8] c"%d, %f\0A" }>, align 1
@alloc702 = private unnamed_addr constant <{ [19 x i8] }> <{ [19 x i8] c"src/test_varargs.rs" }>, align 1
@alloc683 = private unnamed_addr constant <{ i8*, [16 x i8] }> <{ i8* getelementptr inbounds (<{ [19 x i8] }>, <{ [19 x i8] }>* @alloc702, i32 0, i32 0, i32 0), [16 x i8] c"\13\00\00\00\00\00\00\004\00\00\00,\00\00\00" }>, align 8
@alloc684 = private unnamed_addr constant <{ [11 x i8] }> <{ [11 x i8] c"%d, %f, %s\0A" }>, align 1
@alloc686 = private unnamed_addr constant <{ i8*, [16 x i8] }> <{ i8* getelementptr inbounds (<{ [19 x i8] }>, <{ [19 x i8] }>* @alloc702, i32 0, i32 0, i32 0), [16 x i8] c"\13\00\00\00\00\00\00\00?\00\00\000\00\00\00" }>, align 8
@alloc687 = private unnamed_addr constant <{ [4 x i8] }> <{ [4 x i8] c"test" }>, align 1
@alloc689 = private unnamed_addr constant <{ i8*, [16 x i8] }> <{ i8* getelementptr inbounds (<{ [19 x i8] }>, <{ [19 x i8] }>* @alloc702, i32 0, i32 0, i32 0), [16 x i8] c"\13\00\00\00\00\00\00\00@\00\00\00)\00\00\00" }>, align 8
@alloc692 = private unnamed_addr constant <{ i8*, [16 x i8] }> <{ i8* getelementptr inbounds (<{ [19 x i8] }>, <{ [19 x i8] }>* @alloc702, i32 0, i32 0, i32 0), [16 x i8] c"\13\00\00\00\00\00\00\00J\00\00\00,\00\00\00" }>, align 8
@alloc695 = private unnamed_addr constant <{ i8*, [16 x i8] }> <{ i8* getelementptr inbounds (<{ [19 x i8] }>, <{ [19 x i8] }>* @alloc702, i32 0, i32 0, i32 0), [16 x i8] c"\13\00\00\00\00\00\00\00T\00\00\00,\00\00\00" }>, align 8
@alloc698 = private unnamed_addr constant <{ i8*, [16 x i8] }> <{ i8* getelementptr inbounds (<{ [19 x i8] }>, <{ [19 x i8] }>* @alloc702, i32 0, i32 0, i32 0), [16 x i8] c"\13\00\00\00\00\00\00\00^\00\00\00,\00\00\00" }>, align 8
@alloc701 = private unnamed_addr constant <{ i8*, [16 x i8] }> <{ i8* getelementptr inbounds (<{ [19 x i8] }>, <{ [19 x i8] }>* @alloc702, i32 0, i32 0, i32 0), [16 x i8] c"\13\00\00\00\00\00\00\00h\00\00\00,\00\00\00" }>, align 8
@alloc703 = private unnamed_addr constant <{ i8*, [16 x i8] }> <{ i8* getelementptr inbounds (<{ [19 x i8] }>, <{ [19 x i8] }>* @alloc702, i32 0, i32 0, i32 0), [16 x i8] c"\13\00\00\00\00\00\00\00u\00\00\00\09\00\00\00" }>, align 8
@alloc8 = private unnamed_addr constant <{ [20 x i8] }> <{ [20 x i8] c"test_noop::test_noop" }>, align 1
@alloc452 = private unnamed_addr constant <{ [1 x i8], [7 x i8], i8*, [8 x i8], [16 x i8], [8 x i8], [8 x i8], [8 x i8], [16 x i8], [4 x i8], [4 x i8], [8 x i8], i8*, [8 x i8] }> <{ [1 x i8] zeroinitializer, [7 x i8] undef, i8* getelementptr inbounds (<{ [20 x i8] }>, <{ [20 x i8] }>* @alloc8, i32 0, i32 0, i32 0), [8 x i8] c"\14\00\00\00\00\00\00\00", [16 x i8] undef, [8 x i8] zeroinitializer, [8 x i8] undef, [8 x i8] zeroinitializer, [16 x i8] undef, [4 x i8] zeroinitializer, [4 x i8] undef, [8 x i8] zeroinitializer, i8* bitcast (void ()* @_ZN4core3ops8function6FnOnce9call_once17ha270832fbeaf6911E to i8*), [8 x i8] undef }>, align 8
@alloc18 = private unnamed_addr constant <{ [24 x i8] }> <{ [24 x i8] c"test_noop::test_nofnargs" }>, align 1
@alloc453 = private unnamed_addr constant <{ [1 x i8], [7 x i8], i8*, [8 x i8], [16 x i8], [8 x i8], [8 x i8], [8 x i8], [16 x i8], [4 x i8], [4 x i8], [8 x i8], i8*, [8 x i8] }> <{ [1 x i8] zeroinitializer, [7 x i8] undef, i8* getelementptr inbounds (<{ [24 x i8] }>, <{ [24 x i8] }>* @alloc18, i32 0, i32 0, i32 0), [8 x i8] c"\18\00\00\00\00\00\00\00", [16 x i8] undef, [8 x i8] zeroinitializer, [8 x i8] undef, [8 x i8] zeroinitializer, [16 x i8] undef, [4 x i8] zeroinitializer, [4 x i8] undef, [8 x i8] zeroinitializer, i8* bitcast (void ()* @_ZN4core3ops8function6FnOnce9call_once17h5736f6ce427174a2E to i8*), [8 x i8] undef }>, align 8
@alloc30 = private unnamed_addr constant <{ [26 x i8] }> <{ [26 x i8] c"test_linking::test_linking" }>, align 1
@alloc454 = private unnamed_addr constant <{ [1 x i8], [7 x i8], i8*, [8 x i8], [16 x i8], [8 x i8], [8 x i8], [8 x i8], [16 x i8], [4 x i8], [4 x i8], [8 x i8], i8*, [8 x i8] }> <{ [1 x i8] zeroinitializer, [7 x i8] undef, i8* getelementptr inbounds (<{ [26 x i8] }>, <{ [26 x i8] }>* @alloc30, i32 0, i32 0, i32 0), [8 x i8] c"\1A\00\00\00\00\00\00\00", [16 x i8] undef, [8 x i8] zeroinitializer, [8 x i8] undef, [8 x i8] zeroinitializer, [16 x i8] undef, [4 x i8] zeroinitializer, [4 x i8] undef, [8 x i8] zeroinitializer, i8* bitcast (void ()* @_ZN4core3ops8function6FnOnce9call_once17hd483a72806981ebcE to i8*), [8 x i8] undef }>, align 8
@alloc40 = private unnamed_addr constant <{ [44 x i8] }> <{ [44 x i8] c"test_functions::test_coreutils_static_assert" }>, align 1
@alloc455 = private unnamed_addr constant <{ [1 x i8], [7 x i8], i8*, [8 x i8], [16 x i8], [8 x i8], [8 x i8], [8 x i8], [16 x i8], [4 x i8], [4 x i8], [8 x i8], i8*, [8 x i8] }> <{ [1 x i8] zeroinitializer, [7 x i8] undef, i8* getelementptr inbounds (<{ [44 x i8] }>, <{ [44 x i8] }>* @alloc40, i32 0, i32 0, i32 0), [8 x i8] c",\00\00\00\00\00\00\00", [16 x i8] undef, [8 x i8] zeroinitializer, [8 x i8] undef, [8 x i8] zeroinitializer, [16 x i8] undef, [4 x i8] zeroinitializer, [4 x i8] undef, [8 x i8] zeroinitializer, i8* bitcast (void ()* @_ZN4core3ops8function6FnOnce9call_once17hca7b06276e5a34b4E to i8*), [8 x i8] undef }>, align 8
@alloc50 = private unnamed_addr constant <{ [28 x i8] }> <{ [28 x i8] c"test_fn_attrs::test_fn_attrs" }>, align 1
@alloc456 = private unnamed_addr constant <{ [1 x i8], [7 x i8], i8*, [8 x i8], [16 x i8], [8 x i8], [8 x i8], [8 x i8], [16 x i8], [4 x i8], [4 x i8], [8 x i8], i8*, [8 x i8] }> <{ [1 x i8] zeroinitializer, [7 x i8] undef, i8* getelementptr inbounds (<{ [28 x i8] }>, <{ [28 x i8] }>* @alloc50, i32 0, i32 0, i32 0), [8 x i8] c"\1C\00\00\00\00\00\00\00", [16 x i8] undef, [8 x i8] zeroinitializer, [8 x i8] undef, [8 x i8] zeroinitializer, [16 x i8] undef, [4 x i8] zeroinitializer, [4 x i8] undef, [8 x i8] zeroinitializer, i8* bitcast (void ()* @_ZN4core3ops8function6FnOnce9call_once17hd56a9f4381f21938E to i8*), [8 x i8] undef }>, align 8
@alloc60 = private unnamed_addr constant <{ [30 x i8] }> <{ [30 x i8] c"test_varargs::test_call_printf" }>, align 1
@alloc457 = private unnamed_addr constant <{ [1 x i8], [7 x i8], i8*, [8 x i8], [16 x i8], [8 x i8], [8 x i8], [8 x i8], [16 x i8], [4 x i8], [4 x i8], [8 x i8], i8*, [8 x i8] }> <{ [1 x i8] zeroinitializer, [7 x i8] undef, i8* getelementptr inbounds (<{ [30 x i8] }>, <{ [30 x i8] }>* @alloc60, i32 0, i32 0, i32 0), [8 x i8] c"\1E\00\00\00\00\00\00\00", [16 x i8] undef, [8 x i8] zeroinitializer, [8 x i8] undef, [8 x i8] zeroinitializer, [16 x i8] undef, [4 x i8] zeroinitializer, [4 x i8] undef, [8 x i8] zeroinitializer, i8* bitcast (void ()* @_ZN4core3ops8function6FnOnce9call_once17h6214936ae3873b08E to i8*), [8 x i8] undef }>, align 8
@alloc70 = private unnamed_addr constant <{ [31 x i8] }> <{ [31 x i8] c"test_varargs::test_call_vprintf" }>, align 1
@alloc458 = private unnamed_addr constant <{ [1 x i8], [7 x i8], i8*, [8 x i8], [16 x i8], [8 x i8], [8 x i8], [8 x i8], [16 x i8], [4 x i8], [4 x i8], [8 x i8], i8*, [8 x i8] }> <{ [1 x i8] zeroinitializer, [7 x i8] undef, i8* getelementptr inbounds (<{ [31 x i8] }>, <{ [31 x i8] }>* @alloc70, i32 0, i32 0, i32 0), [8 x i8] c"\1F\00\00\00\00\00\00\00", [16 x i8] undef, [8 x i8] zeroinitializer, [8 x i8] undef, [8 x i8] zeroinitializer, [16 x i8] undef, [4 x i8] zeroinitializer, [4 x i8] undef, [8 x i8] zeroinitializer, i8* bitcast (void ()* @_ZN4core3ops8function6FnOnce9call_once17h77aa248235f6fc7bE to i8*), [8 x i8] undef }>, align 8
@alloc80 = private unnamed_addr constant <{ [28 x i8] }> <{ [28 x i8] c"test_varargs::test_my_printf" }>, align 1
@alloc459 = private unnamed_addr constant <{ [1 x i8], [7 x i8], i8*, [8 x i8], [16 x i8], [8 x i8], [8 x i8], [8 x i8], [16 x i8], [4 x i8], [4 x i8], [8 x i8], i8*, [8 x i8] }> <{ [1 x i8] zeroinitializer, [7 x i8] undef, i8* getelementptr inbounds (<{ [28 x i8] }>, <{ [28 x i8] }>* @alloc80, i32 0, i32 0, i32 0), [8 x i8] c"\1C\00\00\00\00\00\00\00", [16 x i8] undef, [8 x i8] zeroinitializer, [8 x i8] undef, [8 x i8] zeroinitializer, [16 x i8] undef, [4 x i8] zeroinitializer, [4 x i8] undef, [8 x i8] zeroinitializer, i8* bitcast (void ()* @_ZN4core3ops8function6FnOnce9call_once17hd6c9cf14983b1622E to i8*), [8 x i8] undef }>, align 8
@alloc90 = private unnamed_addr constant <{ [32 x i8] }> <{ [32 x i8] c"test_varargs::test_simple_vacopy" }>, align 1
@alloc460 = private unnamed_addr constant <{ [1 x i8], [7 x i8], i8*, [8 x i8], [16 x i8], [8 x i8], [8 x i8], [8 x i8], [16 x i8], [4 x i8], [4 x i8], [8 x i8], i8*, [8 x i8] }> <{ [1 x i8] zeroinitializer, [7 x i8] undef, i8* getelementptr inbounds (<{ [32 x i8] }>, <{ [32 x i8] }>* @alloc90, i32 0, i32 0, i32 0), [8 x i8] c" \00\00\00\00\00\00\00", [16 x i8] undef, [8 x i8] zeroinitializer, [8 x i8] undef, [8 x i8] zeroinitializer, [16 x i8] undef, [4 x i8] zeroinitializer, [4 x i8] undef, [8 x i8] zeroinitializer, i8* bitcast (void ()* @_ZN4core3ops8function6FnOnce9call_once17h470a16ca416fea68E to i8*), [8 x i8] undef }>, align 8
@alloc100 = private unnamed_addr constant <{ [39 x i8] }> <{ [39 x i8] c"test_varargs::test_valist_struct_member" }>, align 1
@alloc461 = private unnamed_addr constant <{ [1 x i8], [7 x i8], i8*, [8 x i8], [16 x i8], [8 x i8], [8 x i8], [8 x i8], [16 x i8], [4 x i8], [4 x i8], [8 x i8], i8*, [8 x i8] }> <{ [1 x i8] zeroinitializer, [7 x i8] undef, i8* getelementptr inbounds (<{ [39 x i8] }>, <{ [39 x i8] }>* @alloc100, i32 0, i32 0, i32 0), [8 x i8] c"'\00\00\00\00\00\00\00", [16 x i8] undef, [8 x i8] zeroinitializer, [8 x i8] undef, [8 x i8] zeroinitializer, [16 x i8] undef, [4 x i8] zeroinitializer, [4 x i8] undef, [8 x i8] zeroinitializer, i8* bitcast (void ()* @_ZN4core3ops8function6FnOnce9call_once17h77268db247ff65b5E to i8*), [8 x i8] undef }>, align 8
@alloc110 = private unnamed_addr constant <{ [47 x i8] }> <{ [47 x i8] c"test_varargs::test_valist_struct_pointer_member" }>, align 1
@alloc462 = private unnamed_addr constant <{ [1 x i8], [7 x i8], i8*, [8 x i8], [16 x i8], [8 x i8], [8 x i8], [8 x i8], [16 x i8], [4 x i8], [4 x i8], [8 x i8], i8*, [8 x i8] }> <{ [1 x i8] zeroinitializer, [7 x i8] undef, i8* getelementptr inbounds (<{ [47 x i8] }>, <{ [47 x i8] }>* @alloc110, i32 0, i32 0, i32 0), [8 x i8] c"/\00\00\00\00\00\00\00", [16 x i8] undef, [8 x i8] zeroinitializer, [8 x i8] undef, [8 x i8] zeroinitializer, [16 x i8] undef, [4 x i8] zeroinitializer, [4 x i8] undef, [8 x i8] zeroinitializer, i8* bitcast (void ()* @_ZN4core3ops8function6FnOnce9call_once17hd8abc731315913cdE to i8*), [8 x i8] undef }>, align 8
@alloc120 = private unnamed_addr constant <{ [33 x i8] }> <{ [33 x i8] c"test_varargs::test_restart_valist" }>, align 1
@alloc463 = private unnamed_addr constant <{ [1 x i8], [7 x i8], i8*, [8 x i8], [16 x i8], [8 x i8], [8 x i8], [8 x i8], [16 x i8], [4 x i8], [4 x i8], [8 x i8], i8*, [8 x i8] }> <{ [1 x i8] zeroinitializer, [7 x i8] undef, i8* getelementptr inbounds (<{ [33 x i8] }>, <{ [33 x i8] }>* @alloc120, i32 0, i32 0, i32 0), [8 x i8] c"!\00\00\00\00\00\00\00", [16 x i8] undef, [8 x i8] zeroinitializer, [8 x i8] undef, [8 x i8] zeroinitializer, [16 x i8] undef, [4 x i8] zeroinitializer, [4 x i8] undef, [8 x i8] zeroinitializer, i8* bitcast (void ()* @_ZN4core3ops8function6FnOnce9call_once17h861b3bcfb9bac322E to i8*), [8 x i8] undef }>, align 8
@alloc130 = private unnamed_addr constant <{ [32 x i8] }> <{ [32 x i8] c"test_varargs::test_sample_stddev" }>, align 1
@alloc464 = private unnamed_addr constant <{ [1 x i8], [7 x i8], i8*, [8 x i8], [16 x i8], [8 x i8], [8 x i8], [8 x i8], [16 x i8], [4 x i8], [4 x i8], [8 x i8], i8*, [8 x i8] }> <{ [1 x i8] zeroinitializer, [7 x i8] undef, i8* getelementptr inbounds (<{ [32 x i8] }>, <{ [32 x i8] }>* @alloc130, i32 0, i32 0, i32 0), [8 x i8] c" \00\00\00\00\00\00\00", [16 x i8] undef, [8 x i8] zeroinitializer, [8 x i8] undef, [8 x i8] zeroinitializer, [16 x i8] undef, [4 x i8] zeroinitializer, [4 x i8] undef, [8 x i8] zeroinitializer, i8* bitcast (void ()* @_ZN4core3ops8function6FnOnce9call_once17he9f295bdf9616028E to i8*), [8 x i8] undef }>, align 8
@alloc465 = private unnamed_addr constant <{ i8*, i8*, i8*, i8*, i8*, i8*, i8*, i8*, i8*, i8*, i8*, i8*, i8* }> <{ i8* getelementptr inbounds (<{ [1 x i8], [7 x i8], i8*, [8 x i8], [16 x i8], [8 x i8], [8 x i8], [8 x i8], [16 x i8], [4 x i8], [4 x i8], [8 x i8], i8*, [8 x i8] }>, <{ [1 x i8], [7 x i8], i8*, [8 x i8], [16 x i8], [8 x i8], [8 x i8], [8 x i8], [16 x i8], [4 x i8], [4 x i8], [8 x i8], i8*, [8 x i8] }>* @alloc452, i32 0, i32 0, i32 0), i8* getelementptr inbounds (<{ [1 x i8], [7 x i8], i8*, [8 x i8], [16 x i8], [8 x i8], [8 x i8], [8 x i8], [16 x i8], [4 x i8], [4 x i8], [8 x i8], i8*, [8 x i8] }>, <{ [1 x i8], [7 x i8], i8*, [8 x i8], [16 x i8], [8 x i8], [8 x i8], [8 x i8], [16 x i8], [4 x i8], [4 x i8], [8 x i8], i8*, [8 x i8] }>* @alloc453, i32 0, i32 0, i32 0), i8* getelementptr inbounds (<{ [1 x i8], [7 x i8], i8*, [8 x i8], [16 x i8], [8 x i8], [8 x i8], [8 x i8], [16 x i8], [4 x i8], [4 x i8], [8 x i8], i8*, [8 x i8] }>, <{ [1 x i8], [7 x i8], i8*, [8 x i8], [16 x i8], [8 x i8], [8 x i8], [8 x i8], [16 x i8], [4 x i8], [4 x i8], [8 x i8], i8*, [8 x i8] }>* @alloc454, i32 0, i32 0, i32 0), i8* getelementptr inbounds (<{ [1 x i8], [7 x i8], i8*, [8 x i8], [16 x i8], [8 x i8], [8 x i8], [8 x i8], [16 x i8], [4 x i8], [4 x i8], [8 x i8], i8*, [8 x i8] }>, <{ [1 x i8], [7 x i8], i8*, [8 x i8], [16 x i8], [8 x i8], [8 x i8], [8 x i8], [16 x i8], [4 x i8], [4 x i8], [8 x i8], i8*, [8 x i8] }>* @alloc455, i32 0, i32 0, i32 0), i8* getelementptr inbounds (<{ [1 x i8], [7 x i8], i8*, [8 x i8], [16 x i8], [8 x i8], [8 x i8], [8 x i8], [16 x i8], [4 x i8], [4 x i8], [8 x i8], i8*, [8 x i8] }>, <{ [1 x i8], [7 x i8], i8*, [8 x i8], [16 x i8], [8 x i8], [8 x i8], [8 x i8], [16 x i8], [4 x i8], [4 x i8], [8 x i8], i8*, [8 x i8] }>* @alloc456, i32 0, i32 0, i32 0), i8* getelementptr inbounds (<{ [1 x i8], [7 x i8], i8*, [8 x i8], [16 x i8], [8 x i8], [8 x i8], [8 x i8], [16 x i8], [4 x i8], [4 x i8], [8 x i8], i8*, [8 x i8] }>, <{ [1 x i8], [7 x i8], i8*, [8 x i8], [16 x i8], [8 x i8], [8 x i8], [8 x i8], [16 x i8], [4 x i8], [4 x i8], [8 x i8], i8*, [8 x i8] }>* @alloc457, i32 0, i32 0, i32 0), i8* getelementptr inbounds (<{ [1 x i8], [7 x i8], i8*, [8 x i8], [16 x i8], [8 x i8], [8 x i8], [8 x i8], [16 x i8], [4 x i8], [4 x i8], [8 x i8], i8*, [8 x i8] }>, <{ [1 x i8], [7 x i8], i8*, [8 x i8], [16 x i8], [8 x i8], [8 x i8], [8 x i8], [16 x i8], [4 x i8], [4 x i8], [8 x i8], i8*, [8 x i8] }>* @alloc458, i32 0, i32 0, i32 0), i8* getelementptr inbounds (<{ [1 x i8], [7 x i8], i8*, [8 x i8], [16 x i8], [8 x i8], [8 x i8], [8 x i8], [16 x i8], [4 x i8], [4 x i8], [8 x i8], i8*, [8 x i8] }>, <{ [1 x i8], [7 x i8], i8*, [8 x i8], [16 x i8], [8 x i8], [8 x i8], [8 x i8], [16 x i8], [4 x i8], [4 x i8], [8 x i8], i8*, [8 x i8] }>* @alloc459, i32 0, i32 0, i32 0), i8* getelementptr inbounds (<{ [1 x i8], [7 x i8], i8*, [8 x i8], [16 x i8], [8 x i8], [8 x i8], [8 x i8], [16 x i8], [4 x i8], [4 x i8], [8 x i8], i8*, [8 x i8] }>, <{ [1 x i8], [7 x i8], i8*, [8 x i8], [16 x i8], [8 x i8], [8 x i8], [8 x i8], [16 x i8], [4 x i8], [4 x i8], [8 x i8], i8*, [8 x i8] }>* @alloc460, i32 0, i32 0, i32 0), i8* getelementptr inbounds (<{ [1 x i8], [7 x i8], i8*, [8 x i8], [16 x i8], [8 x i8], [8 x i8], [8 x i8], [16 x i8], [4 x i8], [4 x i8], [8 x i8], i8*, [8 x i8] }>, <{ [1 x i8], [7 x i8], i8*, [8 x i8], [16 x i8], [8 x i8], [8 x i8], [8 x i8], [16 x i8], [4 x i8], [4 x i8], [8 x i8], i8*, [8 x i8] }>* @alloc461, i32 0, i32 0, i32 0), i8* getelementptr inbounds (<{ [1 x i8], [7 x i8], i8*, [8 x i8], [16 x i8], [8 x i8], [8 x i8], [8 x i8], [16 x i8], [4 x i8], [4 x i8], [8 x i8], i8*, [8 x i8] }>, <{ [1 x i8], [7 x i8], i8*, [8 x i8], [16 x i8], [8 x i8], [8 x i8], [8 x i8], [16 x i8], [4 x i8], [4 x i8], [8 x i8], i8*, [8 x i8] }>* @alloc462, i32 0, i32 0, i32 0), i8* getelementptr inbounds (<{ [1 x i8], [7 x i8], i8*, [8 x i8], [16 x i8], [8 x i8], [8 x i8], [8 x i8], [16 x i8], [4 x i8], [4 x i8], [8 x i8], i8*, [8 x i8] }>, <{ [1 x i8], [7 x i8], i8*, [8 x i8], [16 x i8], [8 x i8], [8 x i8], [8 x i8], [16 x i8], [4 x i8], [4 x i8], [8 x i8], i8*, [8 x i8] }>* @alloc463, i32 0, i32 0, i32 0), i8* getelementptr inbounds (<{ [1 x i8], [7 x i8], i8*, [8 x i8], [16 x i8], [8 x i8], [8 x i8], [8 x i8], [16 x i8], [4 x i8], [4 x i8], [8 x i8], i8*, [8 x i8] }>, <{ [1 x i8], [7 x i8], i8*, [8 x i8], [16 x i8], [8 x i8], [8 x i8], [8 x i8], [16 x i8], [4 x i8], [4 x i8], [8 x i8], i8*, [8 x i8] }>* @alloc464, i32 0, i32 0, i32 0) }>, align 8
@__rustc_debug_gdb_scripts_section__ = linkonce_odr unnamed_addr constant [34 x i8] c"\01gdb_load_rust_pretty_printers.py\00", section ".debug_gdb_scripts", align 1

; <core::ptr::non_null::NonNull<T> as core::convert::From<core::ptr::unique::Unique<T>>>::from
; Function Attrs: inlinehint nonlazybind uwtable
define internal i8* @"_ZN119_$LT$core..ptr..non_null..NonNull$LT$T$GT$$u20$as$u20$core..convert..From$LT$core..ptr..unique..Unique$LT$T$GT$$GT$$GT$4from17hb17d977b9330e67cE"(i8* %unique) unnamed_addr #0 !dbg !203 {
start:
  %ptr.dbg.spill = alloca i8*, align 8
  %self.dbg.spill1 = alloca i8*, align 8
  %self.dbg.spill = alloca i8*, align 8
  %unique.dbg.spill = alloca i8*, align 8
  %0 = alloca i8*, align 8
  store i8* %unique, i8** %unique.dbg.spill, align 8
  call void @llvm.dbg.declare(metadata i8** %unique.dbg.spill, metadata !209, metadata !DIExpression()), !dbg !210
  store i8* %unique, i8** %self.dbg.spill, align 8, !dbg !211
  call void @llvm.dbg.declare(metadata i8** %self.dbg.spill, metadata !212, metadata !DIExpression()), !dbg !220
  store i8* %unique, i8** %self.dbg.spill1, align 8, !dbg !220
  call void @llvm.dbg.declare(metadata i8** %self.dbg.spill1, metadata !221, metadata !DIExpression()), !dbg !226
  store i8* %unique, i8** %ptr.dbg.spill, align 8, !dbg !226
  call void @llvm.dbg.declare(metadata i8** %ptr.dbg.spill, metadata !228, metadata !DIExpression()), !dbg !233
  store i8* %unique, i8** %0, align 8, !dbg !233
  %1 = load i8*, i8** %0, align 8, !dbg !235, !nonnull !23, !noundef !23
  ret i8* %1, !dbg !235
}

; std::sys_common::backtrace::__rust_begin_short_backtrace
; Function Attrs: noinline nonlazybind uwtable
define internal void @_ZN3std10sys_common9backtrace28__rust_begin_short_backtrace17h3dcbdf874863fb13E(void ()* %f) unnamed_addr #1 personality i32 (i32, i32, i64, %"unwind::libunwind::_Unwind_Exception"*, %"unwind::libunwind::_Unwind_Context"*)* @rust_eh_personality !dbg !236 {
start:
  %0 = alloca { i8*, i32 }, align 8
  %dummy.dbg.spill = alloca {}, align 1
  %f.dbg.spill = alloca void ()*, align 8
  %result.dbg.spill = alloca {}, align 1
  call void @llvm.dbg.declare(metadata {}* %result.dbg.spill, metadata !244, metadata !DIExpression()), !dbg !249
  store void ()* %f, void ()** %f.dbg.spill, align 8
  call void @llvm.dbg.declare(metadata void ()** %f.dbg.spill, metadata !243, metadata !DIExpression()), !dbg !250
  call void @llvm.dbg.declare(metadata {}* %dummy.dbg.spill, metadata !251, metadata !DIExpression()), !dbg !260
; call core::ops::function::FnOnce::call_once
  call void @_ZN4core3ops8function6FnOnce9call_once17h793ca64f3c1536f2E(void ()* %f), !dbg !262
  br label %bb1, !dbg !262

bb1:                                              ; preds = %start
  call void asm sideeffect "", "r,~{memory}"({}* undef), !dbg !260, !srcloc !263
  br label %bb4, !dbg !260

bb4:                                              ; preds = %bb1
  ret void, !dbg !264

bb2:                                              ; No predecessors!
  br label %bb3, !dbg !265

bb3:                                              ; preds = %bb2
  %1 = bitcast { i8*, i32 }* %0 to i8**, !dbg !266
  %2 = load i8*, i8** %1, align 8, !dbg !266
  %3 = getelementptr inbounds { i8*, i32 }, { i8*, i32 }* %0, i32 0, i32 1, !dbg !266
  %4 = load i32, i32* %3, align 8, !dbg !266
  %5 = insertvalue { i8*, i32 } undef, i8* %2, 0, !dbg !266
  %6 = insertvalue { i8*, i32 } %5, i32 %4, 1, !dbg !266
  resume { i8*, i32 } %6, !dbg !266
}

; std::rt::lang_start
; Function Attrs: nonlazybind uwtable
define hidden i64 @_ZN3std2rt10lang_start17h65989a39d4366ac2E(void ()* %main, i64 %argc, i8** %argv) unnamed_addr #2 !dbg !267 {
start:
  %v.dbg.spill = alloca i64, align 8
  %argv.dbg.spill = alloca i8**, align 8
  %argc.dbg.spill = alloca i64, align 8
  %main.dbg.spill = alloca void ()*, align 8
  %_8 = alloca i64*, align 8
  %_4 = alloca i64, align 8
  store void ()* %main, void ()** %main.dbg.spill, align 8
  call void @llvm.dbg.declare(metadata void ()** %main.dbg.spill, metadata !274, metadata !DIExpression()), !dbg !279
  store i64 %argc, i64* %argc.dbg.spill, align 8
  call void @llvm.dbg.declare(metadata i64* %argc.dbg.spill, metadata !275, metadata !DIExpression()), !dbg !280
  store i8** %argv, i8*** %argv.dbg.spill, align 8
  call void @llvm.dbg.declare(metadata i8*** %argv.dbg.spill, metadata !276, metadata !DIExpression()), !dbg !281
  %0 = bitcast i64** %_8 to void ()**, !dbg !282
  store void ()* %main, void ()** %0, align 8, !dbg !282
  %_5.0 = bitcast i64** %_8 to {}*, !dbg !283
; call std::rt::lang_start_internal
  %1 = call i64 @_ZN3std2rt19lang_start_internal17h498f9556b87c8e5fE({}* align 1 %_5.0, [3 x i64]* align 8 bitcast (<{ i8*, [16 x i8], i8*, i8*, i8* }>* @vtable.0 to [3 x i64]*), i64 %argc, i8** %argv), !dbg !284
  store i64 %1, i64* %_4, align 8, !dbg !284
  br label %bb1, !dbg !284

bb1:                                              ; preds = %start
  %v = load i64, i64* %_4, align 8, !dbg !285
  store i64 %v, i64* %v.dbg.spill, align 8, !dbg !285
  call void @llvm.dbg.declare(metadata i64* %v.dbg.spill, metadata !277, metadata !DIExpression()), !dbg !286
  ret i64 %v, !dbg !287
}

; std::rt::lang_start::{{closure}}
; Function Attrs: inlinehint nonlazybind uwtable
define internal i32 @"_ZN3std2rt10lang_start28_$u7b$$u7b$closure$u7d$$u7d$17hd0fde3f377fa9f03E"(i64** align 8 %_1) unnamed_addr #0 !dbg !288 {
start:
  %self.dbg.spill = alloca i8*, align 8
  %_1.dbg.spill = alloca i64**, align 8
  %self = alloca i8, align 1
  store i64** %_1, i64*** %_1.dbg.spill, align 8
  %0 = load i64**, i64*** %_1.dbg.spill, align 8, !nonnull !23, !align !294, !noundef !23
  %1 = bitcast i64** %0 to void ()**
  call void @llvm.dbg.declare(metadata i64*** %_1.dbg.spill, metadata !293, metadata !DIExpression(DW_OP_deref)), !dbg !295
  call void @llvm.dbg.declare(metadata i8* %self, metadata !296, metadata !DIExpression()), !dbg !314
  %2 = bitcast i64** %_1 to void ()**, !dbg !316
  %_4 = load void ()*, void ()** %2, align 8, !dbg !316, !nonnull !23, !noundef !23
; call std::sys_common::backtrace::__rust_begin_short_backtrace
  call void @_ZN3std10sys_common9backtrace28__rust_begin_short_backtrace17h3dcbdf874863fb13E(void ()* %_4), !dbg !315
  br label %bb1, !dbg !315

bb1:                                              ; preds = %start
; call <() as std::process::Termination>::report
  %3 = call i8 @"_ZN54_$LT$$LP$$RP$$u20$as$u20$std..process..Termination$GT$6report17he2d2acc5dba4a248E"(), !dbg !315
  store i8 %3, i8* %self, align 1, !dbg !315
  br label %bb2, !dbg !315

bb2:                                              ; preds = %bb1
  store i8* %self, i8** %self.dbg.spill, align 8, !dbg !314
  call void @llvm.dbg.declare(metadata i8** %self.dbg.spill, metadata !317, metadata !DIExpression()), !dbg !325
  %_6 = load i8, i8* %self, align 1, !dbg !325
  %4 = zext i8 %_6 to i32, !dbg !325
  ret i32 %4, !dbg !327
}

; <&T as core::fmt::Debug>::fmt
; Function Attrs: nonlazybind uwtable
define internal zeroext i1 @"_ZN42_$LT$$RF$T$u20$as$u20$core..fmt..Debug$GT$3fmt17h4cc1ce3e266e3b6dE"(i32** align 8 %self, %"core::fmt::Formatter"* align 8 %f) unnamed_addr #2 !dbg !328 {
start:
  %f.dbg.spill = alloca %"core::fmt::Formatter"*, align 8
  %self.dbg.spill = alloca i32**, align 8
  store i32** %self, i32*** %self.dbg.spill, align 8
  call void @llvm.dbg.declare(metadata i32*** %self.dbg.spill, metadata !387, metadata !DIExpression()), !dbg !391
  store %"core::fmt::Formatter"* %f, %"core::fmt::Formatter"** %f.dbg.spill, align 8
  call void @llvm.dbg.declare(metadata %"core::fmt::Formatter"** %f.dbg.spill, metadata !388, metadata !DIExpression()), !dbg !392
  %_6 = load i32*, i32** %self, align 8, !dbg !393, !nonnull !23, !align !394, !noundef !23
; call core::fmt::num::<impl core::fmt::Debug for i32>::fmt
  %0 = call zeroext i1 @"_ZN4core3fmt3num50_$LT$impl$u20$core..fmt..Debug$u20$for$u20$i32$GT$3fmt17hcddc92d572cb5de9E"(i32* align 4 %_6, %"core::fmt::Formatter"* align 8 %f), !dbg !395
  br label %bb1, !dbg !395

bb1:                                              ; preds = %start
  ret i1 %0, !dbg !396
}

; <&T as core::fmt::Debug>::fmt
; Function Attrs: nonlazybind uwtable
define internal zeroext i1 @"_ZN42_$LT$$RF$T$u20$as$u20$core..fmt..Debug$GT$3fmt17h9be428947809936eE"(double** align 8 %self, %"core::fmt::Formatter"* align 8 %f) unnamed_addr #2 !dbg !397 {
start:
  %f.dbg.spill = alloca %"core::fmt::Formatter"*, align 8
  %self.dbg.spill = alloca double**, align 8
  store double** %self, double*** %self.dbg.spill, align 8
  call void @llvm.dbg.declare(metadata double*** %self.dbg.spill, metadata !402, metadata !DIExpression()), !dbg !406
  store %"core::fmt::Formatter"* %f, %"core::fmt::Formatter"** %f.dbg.spill, align 8
  call void @llvm.dbg.declare(metadata %"core::fmt::Formatter"** %f.dbg.spill, metadata !403, metadata !DIExpression()), !dbg !407
  %_6 = load double*, double** %self, align 8, !dbg !408, !nonnull !23, !align !294, !noundef !23
; call core::fmt::float::<impl core::fmt::Debug for f64>::fmt
  %0 = call zeroext i1 @"_ZN4core3fmt5float50_$LT$impl$u20$core..fmt..Debug$u20$for$u20$f64$GT$3fmt17hd598d3675624ef64E"(double* align 8 %_6, %"core::fmt::Formatter"* align 8 %f), !dbg !409
  br label %bb1, !dbg !409

bb1:                                              ; preds = %start
  ret i1 %0, !dbg !410
}

; <usize as core::iter::range::Step>::forward_unchecked
; Function Attrs: inlinehint nonlazybind uwtable
define internal i64 @"_ZN49_$LT$usize$u20$as$u20$core..iter..range..Step$GT$17forward_unchecked17h225f3d09039f53a3E"(i64 %start1, i64 %n) unnamed_addr #0 !dbg !411 {
start:
  %0 = alloca i64, align 8
  %rhs.dbg.spill = alloca i64, align 8
  %self.dbg.spill = alloca i64, align 8
  %n.dbg.spill = alloca i64, align 8
  %start.dbg.spill = alloca i64, align 8
  store i64 %start1, i64* %start.dbg.spill, align 8
  call void @llvm.dbg.declare(metadata i64* %start.dbg.spill, metadata !419, metadata !DIExpression()), !dbg !421
  store i64 %n, i64* %n.dbg.spill, align 8
  call void @llvm.dbg.declare(metadata i64* %n.dbg.spill, metadata !420, metadata !DIExpression()), !dbg !422
  store i64 %start1, i64* %self.dbg.spill, align 8, !dbg !423
  call void @llvm.dbg.declare(metadata i64* %self.dbg.spill, metadata !424, metadata !DIExpression()), !dbg !432
  store i64 %n, i64* %rhs.dbg.spill, align 8, !dbg !433
  call void @llvm.dbg.declare(metadata i64* %rhs.dbg.spill, metadata !431, metadata !DIExpression()), !dbg !432
  %1 = add nuw i64 %start1, %n, !dbg !432
  store i64 %1, i64* %0, align 8, !dbg !432
  %2 = load i64, i64* %0, align 8, !dbg !432
  br label %bb1, !dbg !432

bb1:                                              ; preds = %start
  ret i64 %2, !dbg !434
}

; <usize as core::iter::range::Step>::backward_unchecked
; Function Attrs: inlinehint nonlazybind uwtable
define internal i64 @"_ZN49_$LT$usize$u20$as$u20$core..iter..range..Step$GT$18backward_unchecked17h5d3b8e6580969331E"(i64 %start1, i64 %n) unnamed_addr #0 !dbg !435 {
start:
  %0 = alloca i64, align 8
  %rhs.dbg.spill = alloca i64, align 8
  %self.dbg.spill = alloca i64, align 8
  %n.dbg.spill = alloca i64, align 8
  %start.dbg.spill = alloca i64, align 8
  store i64 %start1, i64* %start.dbg.spill, align 8
  call void @llvm.dbg.declare(metadata i64* %start.dbg.spill, metadata !437, metadata !DIExpression()), !dbg !439
  store i64 %n, i64* %n.dbg.spill, align 8
  call void @llvm.dbg.declare(metadata i64* %n.dbg.spill, metadata !438, metadata !DIExpression()), !dbg !440
  store i64 %start1, i64* %self.dbg.spill, align 8, !dbg !441
  call void @llvm.dbg.declare(metadata i64* %self.dbg.spill, metadata !442, metadata !DIExpression()), !dbg !447
  store i64 %n, i64* %rhs.dbg.spill, align 8, !dbg !448
  call void @llvm.dbg.declare(metadata i64* %rhs.dbg.spill, metadata !446, metadata !DIExpression()), !dbg !447
  %1 = sub nuw i64 %start1, %n, !dbg !447
  store i64 %1, i64* %0, align 8, !dbg !447
  %2 = load i64, i64* %0, align 8, !dbg !447
  br label %bb1, !dbg !447

bb1:                                              ; preds = %start
  ret i64 %2, !dbg !449
}

; core::intrinsics::const_eval_select
; Function Attrs: inlinehint nonlazybind uwtable
define internal { %"core::ffi::c_str::CStr"*, i64 } @_ZN4core10intrinsics17const_eval_select17h168407bbf0f28c3dE(i8* align 1 %arg.0, i64 %arg.1) unnamed_addr #0 personality i32 (i32, i32, i64, %"unwind::libunwind::_Unwind_Exception"*, %"unwind::libunwind::_Unwind_Context"*)* @rust_eh_personality !dbg !450 {
start:
  %0 = alloca { i8*, i32 }, align 8
  %called_at_rt.dbg.spill = alloca {}, align 1
  %_called_in_const.dbg.spill = alloca {}, align 1
  %arg.dbg.spill = alloca { i8*, i64 }, align 8
  %1 = getelementptr inbounds { i8*, i64 }, { i8*, i64 }* %arg.dbg.spill, i32 0, i32 0
  store i8* %arg.0, i8** %1, align 8
  %2 = getelementptr inbounds { i8*, i64 }, { i8*, i64 }* %arg.dbg.spill, i32 0, i32 1
  store i64 %arg.1, i64* %2, align 8
  call void @llvm.dbg.declare(metadata { i8*, i64 }* %arg.dbg.spill, metadata !476, metadata !DIExpression()), !dbg !484
  call void @llvm.dbg.declare(metadata {}* %_called_in_const.dbg.spill, metadata !477, metadata !DIExpression()), !dbg !485
  call void @llvm.dbg.declare(metadata {}* %called_at_rt.dbg.spill, metadata !478, metadata !DIExpression()), !dbg !486
  %3 = bitcast i8* %arg.0 to [0 x i8]*, !dbg !487
; invoke core::ops::function::FnOnce::call_once
  %4 = invoke { %"core::ffi::c_str::CStr"*, i64 } @_ZN4core3ops8function6FnOnce9call_once17h461c99379196a0a7E([0 x i8]* align 1 %3, i64 %arg.1)
          to label %bb1 unwind label %cleanup, !dbg !487

bb3:                                              ; preds = %cleanup
  br label %bb4, !dbg !488

cleanup:                                          ; preds = %start
  %5 = landingpad { i8*, i32 }
          cleanup
  %6 = extractvalue { i8*, i32 } %5, 0
  %7 = extractvalue { i8*, i32 } %5, 1
  %8 = getelementptr inbounds { i8*, i32 }, { i8*, i32 }* %0, i32 0, i32 0
  store i8* %6, i8** %8, align 8
  %9 = getelementptr inbounds { i8*, i32 }, { i8*, i32 }* %0, i32 0, i32 1
  store i32 %7, i32* %9, align 8
  br label %bb3

bb1:                                              ; preds = %start
  %10 = extractvalue { %"core::ffi::c_str::CStr"*, i64 } %4, 0, !dbg !487
  %11 = extractvalue { %"core::ffi::c_str::CStr"*, i64 } %4, 1, !dbg !487
  br label %bb2, !dbg !488

bb4:                                              ; preds = %bb3
  %12 = bitcast { i8*, i32 }* %0 to i8**, !dbg !489
  %13 = load i8*, i8** %12, align 8, !dbg !489
  %14 = getelementptr inbounds { i8*, i32 }, { i8*, i32 }* %0, i32 0, i32 1, !dbg !489
  %15 = load i32, i32* %14, align 8, !dbg !489
  %16 = insertvalue { i8*, i32 } undef, i8* %13, 0, !dbg !489
  %17 = insertvalue { i8*, i32 } %16, i32 %15, 1, !dbg !489
  resume { i8*, i32 } %17, !dbg !489

bb2:                                              ; preds = %bb1
  %18 = insertvalue { %"core::ffi::c_str::CStr"*, i64 } undef, %"core::ffi::c_str::CStr"* %10, 0, !dbg !490
  %19 = insertvalue { %"core::ffi::c_str::CStr"*, i64 } %18, i64 %11, 1, !dbg !490
  ret { %"core::ffi::c_str::CStr"*, i64 } %19, !dbg !490
}

; core::cmp::Ord::max
; Function Attrs: inlinehint nonlazybind uwtable
define internal i64 @_ZN4core3cmp3Ord3max17heb94650d3533541dE(i64 %0, i64 %1) unnamed_addr #0 personality i32 (i32, i32, i64, %"unwind::libunwind::_Unwind_Exception"*, %"unwind::libunwind::_Unwind_Context"*)* @rust_eh_personality !dbg !491 {
start:
  %2 = alloca { i8*, i32 }, align 8
  %_9 = alloca i8, align 1
  %_8 = alloca i8, align 1
  %_3 = alloca i8, align 1
  %3 = alloca i64, align 8
  %other = alloca i64, align 8
  %self = alloca i64, align 8
  store i64 %0, i64* %self, align 8
  store i64 %1, i64* %other, align 8
  call void @llvm.dbg.declare(metadata i64* %self, metadata !495, metadata !DIExpression()), !dbg !499
  call void @llvm.dbg.declare(metadata i64* %other, metadata !496, metadata !DIExpression()), !dbg !500
  store i8 1, i8* %_9, align 1, !dbg !501
  store i8 1, i8* %_8, align 1, !dbg !501
; invoke core::cmp::impls::<impl core::cmp::Ord for usize>::cmp
  %4 = invoke i8 @"_ZN4core3cmp5impls50_$LT$impl$u20$core..cmp..Ord$u20$for$u20$usize$GT$3cmp17hb3f07e57d892c0cbE"(i64* align 8 %self, i64* align 8 %other)
          to label %bb1 unwind label %cleanup, !dbg !501, !range !502

bb8:                                              ; preds = %cleanup
  br label %bb13, !dbg !503

cleanup:                                          ; preds = %start
  %5 = landingpad { i8*, i32 }
          cleanup
  %6 = extractvalue { i8*, i32 } %5, 0
  %7 = extractvalue { i8*, i32 } %5, 1
  %8 = getelementptr inbounds { i8*, i32 }, { i8*, i32 }* %2, i32 0, i32 0
  store i8* %6, i8** %8, align 8
  %9 = getelementptr inbounds { i8*, i32 }, { i8*, i32 }* %2, i32 0, i32 1
  store i32 %7, i32* %9, align 8
  br label %bb8

bb1:                                              ; preds = %start
  store i8 %4, i8* %_3, align 1, !dbg !501
  %_7 = load i8, i8* %_3, align 1, !dbg !501, !range !502, !noundef !23
  switch i8 %_7, label %bb3 [
    i8 -1, label %bb4
    i8 0, label %bb4
    i8 1, label %bb2
  ], !dbg !504

bb13:                                             ; preds = %bb8
  %10 = load i8, i8* %_9, align 1, !dbg !503, !range !505, !noundef !23
  %11 = trunc i8 %10 to i1, !dbg !503
  br i1 %11, label %bb12, label %bb9, !dbg !503

bb3:                                              ; preds = %bb1
  unreachable, !dbg !501

bb4:                                              ; preds = %bb1, %bb1
  store i8 0, i8* %_8, align 1, !dbg !506
  %12 = load i64, i64* %other, align 8, !dbg !506
  store i64 %12, i64* %3, align 8, !dbg !506
  br label %bb5, !dbg !506

bb2:                                              ; preds = %bb1
  store i8 0, i8* %_9, align 1, !dbg !507
  %13 = load i64, i64* %self, align 8, !dbg !507
  store i64 %13, i64* %3, align 8, !dbg !507
  br label %bb5, !dbg !507

bb5:                                              ; preds = %bb4, %bb2
  %14 = load i8, i8* %_8, align 1, !dbg !503, !range !505, !noundef !23
  %15 = trunc i8 %14 to i1, !dbg !503
  br i1 %15, label %bb10, label %bb6, !dbg !503

bb6:                                              ; preds = %bb10, %bb5
  %16 = load i8, i8* %_9, align 1, !dbg !503, !range !505, !noundef !23
  %17 = trunc i8 %16 to i1, !dbg !503
  br i1 %17, label %bb11, label %bb7, !dbg !503

bb10:                                             ; preds = %bb5
  br label %bb6, !dbg !503

bb9:                                              ; preds = %bb12, %bb13
  %18 = bitcast { i8*, i32 }* %2 to i8**, !dbg !508
  %19 = load i8*, i8** %18, align 8, !dbg !508
  %20 = getelementptr inbounds { i8*, i32 }, { i8*, i32 }* %2, i32 0, i32 1, !dbg !508
  %21 = load i32, i32* %20, align 8, !dbg !508
  %22 = insertvalue { i8*, i32 } undef, i8* %19, 0, !dbg !508
  %23 = insertvalue { i8*, i32 } %22, i32 %21, 1, !dbg !508
  resume { i8*, i32 } %23, !dbg !508

bb12:                                             ; preds = %bb13
  br label %bb9, !dbg !503

bb7:                                              ; preds = %bb11, %bb6
  %24 = load i64, i64* %3, align 8, !dbg !509
  ret i64 %24, !dbg !509

bb11:                                             ; preds = %bb6
  br label %bb7, !dbg !503
}

; core::cmp::impls::<impl core::cmp::Ord for usize>::cmp
; Function Attrs: inlinehint nonlazybind uwtable
define internal i8 @"_ZN4core3cmp5impls50_$LT$impl$u20$core..cmp..Ord$u20$for$u20$usize$GT$3cmp17hb3f07e57d892c0cbE"(i64* align 8 %self, i64* align 8 %other) unnamed_addr #0 !dbg !510 {
start:
  %other.dbg.spill = alloca i64*, align 8
  %self.dbg.spill = alloca i64*, align 8
  %0 = alloca i8, align 1
  store i64* %self, i64** %self.dbg.spill, align 8
  call void @llvm.dbg.declare(metadata i64** %self.dbg.spill, metadata !517, metadata !DIExpression()), !dbg !519
  store i64* %other, i64** %other.dbg.spill, align 8
  call void @llvm.dbg.declare(metadata i64** %other.dbg.spill, metadata !518, metadata !DIExpression()), !dbg !520
  %_4 = load i64, i64* %self, align 8, !dbg !521
  %_5 = load i64, i64* %other, align 8, !dbg !522
  %_3 = icmp ult i64 %_4, %_5, !dbg !521
  br i1 %_3, label %bb1, label %bb2, !dbg !521

bb2:                                              ; preds = %start
  %_7 = load i64, i64* %self, align 8, !dbg !523
  %_8 = load i64, i64* %other, align 8, !dbg !524
  %_6 = icmp eq i64 %_7, %_8, !dbg !523
  br i1 %_6, label %bb3, label %bb4, !dbg !523

bb1:                                              ; preds = %start
  store i8 -1, i8* %0, align 1, !dbg !525
  br label %bb6, !dbg !526

bb6:                                              ; preds = %bb5, %bb1
  %1 = load i8, i8* %0, align 1, !dbg !527, !range !502, !noundef !23
  ret i8 %1, !dbg !527

bb4:                                              ; preds = %bb2
  store i8 1, i8* %0, align 1, !dbg !528
  br label %bb5, !dbg !529

bb3:                                              ; preds = %bb2
  store i8 0, i8* %0, align 1, !dbg !530
  br label %bb5, !dbg !529

bb5:                                              ; preds = %bb4, %bb3
  br label %bb6, !dbg !526
}

; core::cmp::impls::<impl core::cmp::PartialOrd for usize>::lt
; Function Attrs: inlinehint nonlazybind uwtable
define internal zeroext i1 @"_ZN4core3cmp5impls57_$LT$impl$u20$core..cmp..PartialOrd$u20$for$u20$usize$GT$2lt17h36ac290b4ba6899eE"(i64* align 8 %self, i64* align 8 %other) unnamed_addr #0 !dbg !531 {
start:
  %other.dbg.spill = alloca i64*, align 8
  %self.dbg.spill = alloca i64*, align 8
  store i64* %self, i64** %self.dbg.spill, align 8
  call void @llvm.dbg.declare(metadata i64** %self.dbg.spill, metadata !537, metadata !DIExpression()), !dbg !539
  store i64* %other, i64** %other.dbg.spill, align 8
  call void @llvm.dbg.declare(metadata i64** %other.dbg.spill, metadata !538, metadata !DIExpression()), !dbg !540
  %_3 = load i64, i64* %self, align 8, !dbg !541
  %_4 = load i64, i64* %other, align 8, !dbg !542
  %0 = icmp ult i64 %_3, %_4, !dbg !541
  ret i1 %0, !dbg !543
}

; core::ffi::VaListImpl::as_va_list
; Function Attrs: inlinehint nonlazybind uwtable
define internal align 8 i64* @_ZN4core3ffi10VaListImpl10as_va_list17h002e33e9454b942dE(%"core::ffi::VaListImpl"* align 8 %self) unnamed_addr #0 !dbg !544 {
start:
  %self.dbg.spill = alloca %"core::ffi::VaListImpl"*, align 8
  %0 = alloca i64*, align 8
  store %"core::ffi::VaListImpl"* %self, %"core::ffi::VaListImpl"** %self.dbg.spill, align 8
  call void @llvm.dbg.declare(metadata %"core::ffi::VaListImpl"** %self.dbg.spill, metadata !570, metadata !DIExpression()), !dbg !571
  %1 = bitcast i64** %0 to %"core::ffi::VaListImpl"**, !dbg !572
  store %"core::ffi::VaListImpl"* %self, %"core::ffi::VaListImpl"** %1, align 8, !dbg !572
  %2 = load i64*, i64** %0, align 8, !dbg !573, !nonnull !23, !align !294, !noundef !23
  ret i64* %2, !dbg !573
}

; core::ffi::VaListImpl::arg
; Function Attrs: inlinehint nonlazybind uwtable
define internal i32 @_ZN4core3ffi10VaListImpl3arg17h346cf3d2ff706f30E(%"core::ffi::VaListImpl"* align 8 %self) unnamed_addr #0 !dbg !574 {
start:
  %0 = alloca i32, align 4
  %self.dbg.spill = alloca %"core::ffi::VaListImpl"*, align 8
  store %"core::ffi::VaListImpl"* %self, %"core::ffi::VaListImpl"** %self.dbg.spill, align 8
  call void @llvm.dbg.declare(metadata %"core::ffi::VaListImpl"** %self.dbg.spill, metadata !578, metadata !DIExpression()), !dbg !579
  %1 = va_arg %"core::ffi::VaListImpl"* %self, i32, !dbg !580
  store i32 %1, i32* %0, align 4, !dbg !580
  %2 = load i32, i32* %0, align 4, !dbg !580
  br label %bb1, !dbg !580

bb1:                                              ; preds = %start
  ret i32 %2, !dbg !581
}

; core::ffi::VaListImpl::arg
; Function Attrs: inlinehint nonlazybind uwtable
define internal double @_ZN4core3ffi10VaListImpl3arg17h527596819821ca88E(%"core::ffi::VaListImpl"* align 8 %self) unnamed_addr #0 !dbg !582 {
start:
  %0 = alloca double, align 8
  %self.dbg.spill = alloca %"core::ffi::VaListImpl"*, align 8
  store %"core::ffi::VaListImpl"* %self, %"core::ffi::VaListImpl"** %self.dbg.spill, align 8
  call void @llvm.dbg.declare(metadata %"core::ffi::VaListImpl"** %self.dbg.spill, metadata !586, metadata !DIExpression()), !dbg !587
  %1 = va_arg %"core::ffi::VaListImpl"* %self, double, !dbg !588
  store double %1, double* %0, align 8, !dbg !588
  %2 = load double, double* %0, align 8, !dbg !588
  br label %bb1, !dbg !588

bb1:                                              ; preds = %start
  ret double %2, !dbg !589
}

; core::ffi::VaListImpl::arg
; Function Attrs: inlinehint nonlazybind uwtable
define internal i8* @_ZN4core3ffi10VaListImpl3arg17hf947328bb00d6431E(%"core::ffi::VaListImpl"* align 8 %self) unnamed_addr #0 !dbg !590 {
start:
  %0 = alloca i8*, align 8
  %self.dbg.spill = alloca %"core::ffi::VaListImpl"*, align 8
  store %"core::ffi::VaListImpl"* %self, %"core::ffi::VaListImpl"** %self.dbg.spill, align 8
  call void @llvm.dbg.declare(metadata %"core::ffi::VaListImpl"** %self.dbg.spill, metadata !595, metadata !DIExpression()), !dbg !598
  %1 = va_arg %"core::ffi::VaListImpl"* %self, i8*, !dbg !599
  store i8* %1, i8** %0, align 8, !dbg !599
  %2 = load i8*, i8** %0, align 8, !dbg !599
  br label %bb1, !dbg !599

bb1:                                              ; preds = %start
  ret i8* %2, !dbg !600
}

; core::ffi::c_str::CStr::as_ptr
; Function Attrs: inlinehint nonlazybind uwtable
define internal i8* @_ZN4core3ffi5c_str4CStr6as_ptr17h8ee0d6d5d74d8703E(%"core::ffi::c_str::CStr"* align 1 %self.0, i64 %self.1) unnamed_addr #0 !dbg !601 {
start:
  %self.dbg.spill2 = alloca { [0 x i8]*, i64 }, align 8
  %self.dbg.spill = alloca { %"core::ffi::c_str::CStr"*, i64 }, align 8
  %0 = getelementptr inbounds { %"core::ffi::c_str::CStr"*, i64 }, { %"core::ffi::c_str::CStr"*, i64 }* %self.dbg.spill, i32 0, i32 0
  store %"core::ffi::c_str::CStr"* %self.0, %"core::ffi::c_str::CStr"** %0, align 8
  %1 = getelementptr inbounds { %"core::ffi::c_str::CStr"*, i64 }, { %"core::ffi::c_str::CStr"*, i64 }* %self.dbg.spill, i32 0, i32 1
  store i64 %self.1, i64* %1, align 8
  call void @llvm.dbg.declare(metadata { %"core::ffi::c_str::CStr"*, i64 }* %self.dbg.spill, metadata !607, metadata !DIExpression()), !dbg !608
  %self.01 = bitcast %"core::ffi::c_str::CStr"* %self.0 to [0 x i8]*, !dbg !609
  %2 = getelementptr inbounds { [0 x i8]*, i64 }, { [0 x i8]*, i64 }* %self.dbg.spill2, i32 0, i32 0, !dbg !609
  store [0 x i8]* %self.01, [0 x i8]** %2, align 8, !dbg !609
  %3 = getelementptr inbounds { [0 x i8]*, i64 }, { [0 x i8]*, i64 }* %self.dbg.spill2, i32 0, i32 1, !dbg !609
  store i64 %self.1, i64* %3, align 8, !dbg !609
  call void @llvm.dbg.declare(metadata { [0 x i8]*, i64 }* %self.dbg.spill2, metadata !610, metadata !DIExpression()), !dbg !626
  %4 = bitcast [0 x i8]* %self.01 to i8*, !dbg !626
  ret i8* %4, !dbg !627
}

; core::fmt::num::<impl core::fmt::Debug for i32>::fmt
; Function Attrs: inlinehint nonlazybind uwtable
define internal zeroext i1 @"_ZN4core3fmt3num50_$LT$impl$u20$core..fmt..Debug$u20$for$u20$i32$GT$3fmt17hcddc92d572cb5de9E"(i32* align 4 %self, %"core::fmt::Formatter"* align 8 %f) unnamed_addr #0 !dbg !628 {
start:
  %f.dbg.spill = alloca %"core::fmt::Formatter"*, align 8
  %self.dbg.spill = alloca i32*, align 8
  %0 = alloca i8, align 1
  store i32* %self, i32** %self.dbg.spill, align 8
  call void @llvm.dbg.declare(metadata i32** %self.dbg.spill, metadata !635, metadata !DIExpression()), !dbg !637
  store %"core::fmt::Formatter"* %f, %"core::fmt::Formatter"** %f.dbg.spill, align 8
  call void @llvm.dbg.declare(metadata %"core::fmt::Formatter"** %f.dbg.spill, metadata !636, metadata !DIExpression()), !dbg !638
; call core::fmt::Formatter::debug_lower_hex
  %_3 = call zeroext i1 @_ZN4core3fmt9Formatter15debug_lower_hex17h861f5ddbf758e4f9E(%"core::fmt::Formatter"* align 8 %f), !dbg !639
  br label %bb1, !dbg !639

bb1:                                              ; preds = %start
  br i1 %_3, label %bb2, label %bb4, !dbg !639

bb4:                                              ; preds = %bb1
; call core::fmt::Formatter::debug_upper_hex
  %_7 = call zeroext i1 @_ZN4core3fmt9Formatter15debug_upper_hex17h21ddf2be2e6a0fd5E(%"core::fmt::Formatter"* align 8 %f), !dbg !640
  br label %bb5, !dbg !640

bb2:                                              ; preds = %bb1
; call core::fmt::num::<impl core::fmt::LowerHex for i32>::fmt
  %1 = call zeroext i1 @"_ZN4core3fmt3num53_$LT$impl$u20$core..fmt..LowerHex$u20$for$u20$i32$GT$3fmt17h46ab6094afed2354E"(i32* align 4 %self, %"core::fmt::Formatter"* align 8 %f), !dbg !641
  %2 = zext i1 %1 to i8, !dbg !641
  store i8 %2, i8* %0, align 1, !dbg !641
  br label %bb3, !dbg !641

bb3:                                              ; preds = %bb2
  br label %bb11, !dbg !642

bb11:                                             ; preds = %bb10, %bb3
  %3 = load i8, i8* %0, align 1, !dbg !643, !range !505, !noundef !23
  %4 = trunc i8 %3 to i1, !dbg !643
  ret i1 %4, !dbg !643

bb5:                                              ; preds = %bb4
  br i1 %_7, label %bb6, label %bb8, !dbg !640

bb8:                                              ; preds = %bb5
; call core::fmt::num::imp::<impl core::fmt::Display for i32>::fmt
  %5 = call zeroext i1 @"_ZN4core3fmt3num3imp52_$LT$impl$u20$core..fmt..Display$u20$for$u20$i32$GT$3fmt17h52a4838d0eaa2babE"(i32* align 4 %self, %"core::fmt::Formatter"* align 8 %f), !dbg !644
  %6 = zext i1 %5 to i8, !dbg !644
  store i8 %6, i8* %0, align 1, !dbg !644
  br label %bb9, !dbg !644

bb6:                                              ; preds = %bb5
; call core::fmt::num::<impl core::fmt::UpperHex for i32>::fmt
  %7 = call zeroext i1 @"_ZN4core3fmt3num53_$LT$impl$u20$core..fmt..UpperHex$u20$for$u20$i32$GT$3fmt17h827553a54a7e037dE"(i32* align 4 %self, %"core::fmt::Formatter"* align 8 %f), !dbg !645
  %8 = zext i1 %7 to i8, !dbg !645
  store i8 %8, i8* %0, align 1, !dbg !645
  br label %bb7, !dbg !645

bb7:                                              ; preds = %bb6
  br label %bb10, !dbg !646

bb10:                                             ; preds = %bb9, %bb7
  br label %bb11, !dbg !642

bb9:                                              ; preds = %bb8
  br label %bb10, !dbg !646
}

; core::fmt::Arguments::new_v1
; Function Attrs: inlinehint nonlazybind uwtable
define internal void @_ZN4core3fmt9Arguments6new_v117h1abf688bf72f1613E(%"core::fmt::Arguments"* sret(%"core::fmt::Arguments") %0, [0 x { [0 x i8]*, i64 }]* align 8 %pieces.0, i64 %pieces.1, [0 x { i8*, i64* }]* align 8 %args.0, i64 %args.1) unnamed_addr #0 !dbg !647 {
start:
  %args.dbg.spill = alloca { [0 x { i8*, i64* }]*, i64 }, align 8
  %pieces.dbg.spill = alloca { [0 x { [0 x i8]*, i64 }]*, i64 }, align 8
  %_24 = alloca { i64*, i64 }, align 8
  %_16 = alloca %"core::fmt::Arguments", align 8
  %_3 = alloca i8, align 1
  %1 = getelementptr inbounds { [0 x { [0 x i8]*, i64 }]*, i64 }, { [0 x { [0 x i8]*, i64 }]*, i64 }* %pieces.dbg.spill, i32 0, i32 0
  store [0 x { [0 x i8]*, i64 }]* %pieces.0, [0 x { [0 x i8]*, i64 }]** %1, align 8
  %2 = getelementptr inbounds { [0 x { [0 x i8]*, i64 }]*, i64 }, { [0 x { [0 x i8]*, i64 }]*, i64 }* %pieces.dbg.spill, i32 0, i32 1
  store i64 %pieces.1, i64* %2, align 8
  call void @llvm.dbg.declare(metadata { [0 x { [0 x i8]*, i64 }]*, i64 }* %pieces.dbg.spill, metadata !724, metadata !DIExpression()), !dbg !726
  %3 = getelementptr inbounds { [0 x { i8*, i64* }]*, i64 }, { [0 x { i8*, i64* }]*, i64 }* %args.dbg.spill, i32 0, i32 0
  store [0 x { i8*, i64* }]* %args.0, [0 x { i8*, i64* }]** %3, align 8
  %4 = getelementptr inbounds { [0 x { i8*, i64* }]*, i64 }, { [0 x { i8*, i64* }]*, i64 }* %args.dbg.spill, i32 0, i32 1
  store i64 %args.1, i64* %4, align 8
  call void @llvm.dbg.declare(metadata { [0 x { i8*, i64* }]*, i64 }* %args.dbg.spill, metadata !725, metadata !DIExpression()), !dbg !727
  %_4 = icmp ult i64 %pieces.1, %args.1, !dbg !728
  br i1 %_4, label %bb1, label %bb2, !dbg !728

bb2:                                              ; preds = %start
  %_12 = add i64 %args.1, 1, !dbg !729
  %_9 = icmp ugt i64 %pieces.1, %_12, !dbg !730
  %5 = zext i1 %_9 to i8, !dbg !728
  store i8 %5, i8* %_3, align 1, !dbg !728
  br label %bb3, !dbg !728

bb1:                                              ; preds = %start
  store i8 1, i8* %_3, align 1, !dbg !728
  br label %bb3, !dbg !728

bb3:                                              ; preds = %bb2, %bb1
  %6 = load i8, i8* %_3, align 1, !dbg !728, !range !505, !noundef !23
  %7 = trunc i8 %6 to i1, !dbg !728
  br i1 %7, label %bb4, label %bb6, !dbg !728

bb6:                                              ; preds = %bb3
  %8 = bitcast { i64*, i64 }* %_24 to {}**, !dbg !731
  store {}* null, {}** %8, align 8, !dbg !731
  %9 = bitcast %"core::fmt::Arguments"* %0 to { [0 x { [0 x i8]*, i64 }]*, i64 }*, !dbg !732
  %10 = getelementptr inbounds { [0 x { [0 x i8]*, i64 }]*, i64 }, { [0 x { [0 x i8]*, i64 }]*, i64 }* %9, i32 0, i32 0, !dbg !732
  store [0 x { [0 x i8]*, i64 }]* %pieces.0, [0 x { [0 x i8]*, i64 }]** %10, align 8, !dbg !732
  %11 = getelementptr inbounds { [0 x { [0 x i8]*, i64 }]*, i64 }, { [0 x { [0 x i8]*, i64 }]*, i64 }* %9, i32 0, i32 1, !dbg !732
  store i64 %pieces.1, i64* %11, align 8, !dbg !732
  %12 = getelementptr inbounds %"core::fmt::Arguments", %"core::fmt::Arguments"* %0, i32 0, i32 1, !dbg !732
  %13 = getelementptr inbounds { i64*, i64 }, { i64*, i64 }* %_24, i32 0, i32 0, !dbg !732
  %14 = load i64*, i64** %13, align 8, !dbg !732, !align !294
  %15 = getelementptr inbounds { i64*, i64 }, { i64*, i64 }* %_24, i32 0, i32 1, !dbg !732
  %16 = load i64, i64* %15, align 8, !dbg !732
  %17 = getelementptr inbounds { i64*, i64 }, { i64*, i64 }* %12, i32 0, i32 0, !dbg !732
  store i64* %14, i64** %17, align 8, !dbg !732
  %18 = getelementptr inbounds { i64*, i64 }, { i64*, i64 }* %12, i32 0, i32 1, !dbg !732
  store i64 %16, i64* %18, align 8, !dbg !732
  %19 = getelementptr inbounds %"core::fmt::Arguments", %"core::fmt::Arguments"* %0, i32 0, i32 2, !dbg !732
  %20 = getelementptr inbounds { [0 x { i8*, i64* }]*, i64 }, { [0 x { i8*, i64* }]*, i64 }* %19, i32 0, i32 0, !dbg !732
  store [0 x { i8*, i64* }]* %args.0, [0 x { i8*, i64* }]** %20, align 8, !dbg !732
  %21 = getelementptr inbounds { [0 x { i8*, i64* }]*, i64 }, { [0 x { i8*, i64* }]*, i64 }* %19, i32 0, i32 1, !dbg !732
  store i64 %args.1, i64* %21, align 8, !dbg !732
  ret void, !dbg !733

bb4:                                              ; preds = %bb3
; call core::fmt::Arguments::new_v1
  call void @_ZN4core3fmt9Arguments6new_v117h1abf688bf72f1613E(%"core::fmt::Arguments"* sret(%"core::fmt::Arguments") %_16, [0 x { [0 x i8]*, i64 }]* align 8 bitcast (<{ i8*, [8 x i8] }>* @alloc159 to [0 x { [0 x i8]*, i64 }]*), i64 1, [0 x { i8*, i64* }]* align 8 bitcast (<{}>* @alloc161 to [0 x { i8*, i64* }]*), i64 0), !dbg !734
  br label %bb5, !dbg !734

bb5:                                              ; preds = %bb4
; call core::panicking::panic_fmt
  call void @_ZN4core9panicking9panic_fmt17h62ccf03c8a8a51b5E(%"core::fmt::Arguments"* %_16, %"core::panic::location::Location"* align 8 bitcast (<{ i8*, [16 x i8] }>* @alloc557 to %"core::panic::location::Location"*)) #15, !dbg !734
  unreachable, !dbg !734
}

; core::mem::replace
; Function Attrs: inlinehint nonlazybind uwtable
define internal i64 @_ZN4core3mem7replace17ha68ea4317dd069c4E(i64* align 8 %dest, i64 %src) unnamed_addr #0 personality i32 (i32, i32, i64, %"unwind::libunwind::_Unwind_Exception"*, %"unwind::libunwind::_Unwind_Context"*)* @rust_eh_personality !dbg !735 {
start:
  %dst.dbg.spill = alloca i64*, align 8
  %result.dbg.spill = alloca i64, align 8
  %slot.dbg.spill = alloca i64, align 8
  %0 = alloca { i8*, i32 }, align 8
  %self.dbg.spill3 = alloca i64, align 8
  %self.dbg.spill = alloca i64*, align 8
  %src.dbg.spill2 = alloca i64*, align 8
  %src.dbg.spill = alloca i64, align 8
  %dest.dbg.spill = alloca i64*, align 8
  %tmp = alloca i64, align 8
  %src1 = alloca i64, align 8
  store i64* %dest, i64** %dest.dbg.spill, align 8
  call void @llvm.dbg.declare(metadata i64** %dest.dbg.spill, metadata !741, metadata !DIExpression()), !dbg !745
  store i64 %src, i64* %src.dbg.spill, align 8
  call void @llvm.dbg.declare(metadata i64* %src.dbg.spill, metadata !742, metadata !DIExpression()), !dbg !746
  call void @llvm.dbg.declare(metadata i64* %src1, metadata !747, metadata !DIExpression()), !dbg !756
  call void @llvm.dbg.declare(metadata i64* %tmp, metadata !758, metadata !DIExpression()), !dbg !777
  store i64* %dest, i64** %src.dbg.spill2, align 8, !dbg !779
  call void @llvm.dbg.declare(metadata i64** %src.dbg.spill2, metadata !766, metadata !DIExpression()), !dbg !780
  %1 = bitcast i64* %tmp to {}*, !dbg !781
  store i64* %tmp, i64** %self.dbg.spill, align 8, !dbg !777
  call void @llvm.dbg.declare(metadata i64** %self.dbg.spill, metadata !788, metadata !DIExpression()), !dbg !795
  %2 = bitcast i64* %tmp to i8*, !dbg !777
  %3 = bitcast i64* %dest to i8*, !dbg !777
  call void @llvm.memcpy.p0i8.p0i8.i64(i8* align 8 %2, i8* align 8 %3, i64 8, i1 false), !dbg !777
  %self = load i64, i64* %tmp, align 8, !dbg !777
  store i64 %self, i64* %self.dbg.spill3, align 8, !dbg !777
  call void @llvm.dbg.declare(metadata i64* %self.dbg.spill3, metadata !797, metadata !DIExpression()), !dbg !811
  br label %bb4, !dbg !811

bb4:                                              ; preds = %start
  store i64 %self, i64* %slot.dbg.spill, align 8, !dbg !811
  call void @llvm.dbg.declare(metadata i64* %slot.dbg.spill, metadata !813, metadata !DIExpression()), !dbg !820
  store i64 %self, i64* %result.dbg.spill, align 8, !dbg !820
  call void @llvm.dbg.declare(metadata i64* %result.dbg.spill, metadata !743, metadata !DIExpression()), !dbg !822
  store i64* %dest, i64** %dst.dbg.spill, align 8, !dbg !823
  call void @llvm.dbg.declare(metadata i64** %dst.dbg.spill, metadata !755, metadata !DIExpression()), !dbg !756
  store i64 %src, i64* %src1, align 8, !dbg !824
  %4 = bitcast i64* %dest to i8*, !dbg !756
  %5 = bitcast i64* %src1 to i8*, !dbg !756
  call void @llvm.memcpy.p0i8.p0i8.i64(i8* align 8 %4, i8* align 8 %5, i64 8, i1 false), !dbg !756
  ret i64 %self, !dbg !825

bb3:                                              ; No predecessors!
  br i1 true, label %bb2, label %bb1, !dbg !826

bb1:                                              ; preds = %bb2, %bb3
  %6 = bitcast { i8*, i32 }* %0 to i8**, !dbg !827
  %7 = load i8*, i8** %6, align 8, !dbg !827
  %8 = getelementptr inbounds { i8*, i32 }, { i8*, i32 }* %0, i32 0, i32 1, !dbg !827
  %9 = load i32, i32* %8, align 8, !dbg !827
  %10 = insertvalue { i8*, i32 } undef, i8* %7, 0, !dbg !827
  %11 = insertvalue { i8*, i32 } %10, i32 %9, 1, !dbg !827
  resume { i8*, i32 } %11, !dbg !827

bb2:                                              ; preds = %bb3
  br label %bb1, !dbg !826
}

; core::num::<impl usize>::checked_mul
; Function Attrs: inlinehint nonlazybind uwtable
define internal { i64, i64 } @"_ZN4core3num23_$LT$impl$u20$usize$GT$11checked_mul17h47da74691c4ba223E"(i64 %self, i64 %rhs) unnamed_addr #0 !dbg !828 {
start:
  %0 = alloca i8, align 1
  %b.dbg.spill4 = alloca i8, align 1
  %a.dbg.spill3 = alloca i64, align 8
  %b.dbg.spill = alloca i8, align 1
  %a.dbg.spill = alloca i64, align 8
  %1 = alloca { i64, i8 }, align 8
  %rhs.dbg.spill2 = alloca i64, align 8
  %self.dbg.spill1 = alloca i64, align 8
  %rhs.dbg.spill = alloca i64, align 8
  %self.dbg.spill = alloca i64, align 8
  %_5 = alloca { i64, i8 }, align 8
  %2 = alloca { i64, i64 }, align 8
  store i64 %self, i64* %self.dbg.spill, align 8
  call void @llvm.dbg.declare(metadata i64* %self.dbg.spill, metadata !832, metadata !DIExpression()), !dbg !837
  store i64 %rhs, i64* %rhs.dbg.spill, align 8
  call void @llvm.dbg.declare(metadata i64* %rhs.dbg.spill, metadata !833, metadata !DIExpression()), !dbg !838
  store i64 %self, i64* %self.dbg.spill1, align 8, !dbg !839
  call void @llvm.dbg.declare(metadata i64* %self.dbg.spill1, metadata !840, metadata !DIExpression()), !dbg !853
  store i64 %rhs, i64* %rhs.dbg.spill2, align 8, !dbg !854
  call void @llvm.dbg.declare(metadata i64* %rhs.dbg.spill2, metadata !849, metadata !DIExpression()), !dbg !853
  %3 = call { i64, i1 } @llvm.umul.with.overflow.i64(i64 %self, i64 %rhs), !dbg !853
  %4 = extractvalue { i64, i1 } %3, 0, !dbg !853
  %5 = extractvalue { i64, i1 } %3, 1, !dbg !853
  %6 = zext i1 %5 to i8, !dbg !853
  %7 = bitcast { i64, i8 }* %1 to i64*, !dbg !853
  store i64 %4, i64* %7, align 8, !dbg !853
  %8 = getelementptr inbounds { i64, i8 }, { i64, i8 }* %1, i32 0, i32 1, !dbg !853
  store i8 %6, i8* %8, align 8, !dbg !853
  %9 = getelementptr inbounds { i64, i8 }, { i64, i8 }* %1, i32 0, i32 0, !dbg !853
  %_13.0 = load i64, i64* %9, align 8, !dbg !853
  %10 = getelementptr inbounds { i64, i8 }, { i64, i8 }* %1, i32 0, i32 1, !dbg !853
  %11 = load i8, i8* %10, align 8, !dbg !853, !range !505, !noundef !23
  %_13.1 = trunc i8 %11 to i1, !dbg !853
  br label %bb5, !dbg !853

bb5:                                              ; preds = %start
  store i64 %_13.0, i64* %a.dbg.spill, align 8, !dbg !853
  call void @llvm.dbg.declare(metadata i64* %a.dbg.spill, metadata !850, metadata !DIExpression()), !dbg !855
  %12 = zext i1 %_13.1 to i8, !dbg !853
  store i8 %12, i8* %b.dbg.spill, align 1, !dbg !853
  call void @llvm.dbg.declare(metadata i8* %b.dbg.spill, metadata !852, metadata !DIExpression()), !dbg !855
  %13 = bitcast { i64, i8 }* %_5 to i64*, !dbg !855
  store i64 %_13.0, i64* %13, align 8, !dbg !855
  %14 = getelementptr inbounds { i64, i8 }, { i64, i8 }* %_5, i32 0, i32 1, !dbg !855
  %15 = zext i1 %_13.1 to i8, !dbg !855
  store i8 %15, i8* %14, align 8, !dbg !855
  %16 = bitcast { i64, i8 }* %_5 to i64*, !dbg !856
  %a = load i64, i64* %16, align 8, !dbg !856
  store i64 %a, i64* %a.dbg.spill3, align 8, !dbg !856
  call void @llvm.dbg.declare(metadata i64* %a.dbg.spill3, metadata !834, metadata !DIExpression()), !dbg !857
  %17 = getelementptr inbounds { i64, i8 }, { i64, i8 }* %_5, i32 0, i32 1, !dbg !858
  %18 = load i8, i8* %17, align 8, !dbg !858, !range !505, !noundef !23
  %b = trunc i8 %18 to i1, !dbg !858
  %19 = zext i1 %b to i8, !dbg !858
  store i8 %19, i8* %b.dbg.spill4, align 1, !dbg !858
  call void @llvm.dbg.declare(metadata i8* %b.dbg.spill4, metadata !836, metadata !DIExpression()), !dbg !859
  %20 = call i1 @llvm.expect.i1(i1 %b, i1 false), !dbg !860
  %21 = zext i1 %20 to i8, !dbg !860
  store i8 %21, i8* %0, align 1, !dbg !860
  %22 = load i8, i8* %0, align 1, !dbg !860, !range !505, !noundef !23
  %_8 = trunc i8 %22 to i1, !dbg !860
  br label %bb1, !dbg !860

bb1:                                              ; preds = %bb5
  br i1 %_8, label %bb2, label %bb3, !dbg !860

bb3:                                              ; preds = %bb1
  %23 = getelementptr inbounds { i64, i64 }, { i64, i64 }* %2, i32 0, i32 1, !dbg !861
  store i64 %a, i64* %23, align 8, !dbg !861
  %24 = bitcast { i64, i64 }* %2 to i64*, !dbg !861
  store i64 1, i64* %24, align 8, !dbg !861
  br label %bb4, !dbg !862

bb2:                                              ; preds = %bb1
  %25 = bitcast { i64, i64 }* %2 to i64*, !dbg !863
  store i64 0, i64* %25, align 8, !dbg !863
  br label %bb4, !dbg !862

bb4:                                              ; preds = %bb3, %bb2
  %26 = getelementptr inbounds { i64, i64 }, { i64, i64 }* %2, i32 0, i32 0, !dbg !864
  %27 = load i64, i64* %26, align 8, !dbg !864, !range !865, !noundef !23
  %28 = getelementptr inbounds { i64, i64 }, { i64, i64 }* %2, i32 0, i32 1, !dbg !864
  %29 = load i64, i64* %28, align 8, !dbg !864
  %30 = insertvalue { i64, i64 } undef, i64 %27, 0, !dbg !864
  %31 = insertvalue { i64, i64 } %30, i64 %29, 1, !dbg !864
  ret { i64, i64 } %31, !dbg !864
}

; core::ops::function::FnOnce::call_once{{vtable.shim}}
; Function Attrs: inlinehint nonlazybind uwtable
define internal i32 @"_ZN4core3ops8function6FnOnce40call_once$u7b$$u7b$vtable.shim$u7d$$u7d$17he3358dbf817acd06E"(i64** %_1) unnamed_addr #0 !dbg !866 {
start:
  %_1.dbg.spill = alloca i64**, align 8
  %_2 = alloca {}, align 1
  store i64** %_1, i64*** %_1.dbg.spill, align 8
  call void @llvm.dbg.declare(metadata i64*** %_1.dbg.spill, metadata !875, metadata !DIExpression()), !dbg !880
  call void @llvm.dbg.declare(metadata {}* %_2, metadata !876, metadata !DIExpression()), !dbg !880
  %0 = load i64*, i64** %_1, align 8, !dbg !880, !nonnull !23, !noundef !23
; call core::ops::function::FnOnce::call_once
  %1 = call i32 @_ZN4core3ops8function6FnOnce9call_once17hf73420e894a2abd6E(i64* %0), !dbg !880
  br label %bb1, !dbg !880

bb1:                                              ; preds = %start
  ret i32 %1, !dbg !880
}

; core::ops::function::FnOnce::call_once
; Function Attrs: inlinehint nonlazybind uwtable
define internal { %"core::ffi::c_str::CStr"*, i64 } @_ZN4core3ops8function6FnOnce9call_once17h461c99379196a0a7E([0 x i8]* align 1 %0, i64 %1) unnamed_addr #0 !dbg !881 {
start:
  %_1.dbg.spill = alloca {}, align 1
  %_2 = alloca { i8*, i64 }, align 8
  %2 = bitcast { i8*, i64 }* %_2 to { [0 x i8]*, i64 }*
  %3 = getelementptr inbounds { [0 x i8]*, i64 }, { [0 x i8]*, i64 }* %2, i32 0, i32 0
  store [0 x i8]* %0, [0 x i8]** %3, align 8
  %4 = getelementptr inbounds { [0 x i8]*, i64 }, { [0 x i8]*, i64 }* %2, i32 0, i32 1
  store i64 %1, i64* %4, align 8
  call void @llvm.dbg.declare(metadata {}* %_1.dbg.spill, metadata !885, metadata !DIExpression()), !dbg !890
  call void @llvm.dbg.declare(metadata { i8*, i64 }* %_2, metadata !886, metadata !DIExpression()), !dbg !890
  %5 = bitcast { i8*, i64 }* %_2 to { [0 x i8]*, i64 }*, !dbg !890
  %6 = getelementptr inbounds { [0 x i8]*, i64 }, { [0 x i8]*, i64 }* %5, i32 0, i32 0, !dbg !890
  %7 = load [0 x i8]*, [0 x i8]** %6, align 8, !dbg !890, !nonnull !23, !align !891, !noundef !23
  %8 = getelementptr inbounds { [0 x i8]*, i64 }, { [0 x i8]*, i64 }* %5, i32 0, i32 1, !dbg !890
  %9 = load i64, i64* %8, align 8, !dbg !890
; call core::ffi::c_str::CStr::from_bytes_with_nul_unchecked::rt_impl
  %10 = call { %"core::ffi::c_str::CStr"*, i64 } @_ZN4core3ffi5c_str4CStr29from_bytes_with_nul_unchecked7rt_impl17h7896654501f3620cE([0 x i8]* align 1 %7, i64 %9), !dbg !890
  %11 = extractvalue { %"core::ffi::c_str::CStr"*, i64 } %10, 0, !dbg !890
  %12 = extractvalue { %"core::ffi::c_str::CStr"*, i64 } %10, 1, !dbg !890
  br label %bb1, !dbg !890

bb1:                                              ; preds = %start
  %13 = insertvalue { %"core::ffi::c_str::CStr"*, i64 } undef, %"core::ffi::c_str::CStr"* %11, 0, !dbg !890
  %14 = insertvalue { %"core::ffi::c_str::CStr"*, i64 } %13, i64 %12, 1, !dbg !890
  ret { %"core::ffi::c_str::CStr"*, i64 } %14, !dbg !890
}

; core::ops::function::FnOnce::call_once
; Function Attrs: inlinehint nonlazybind uwtable
define internal void @_ZN4core3ops8function6FnOnce9call_once17h470a16ca416fea68E() unnamed_addr #0 personality i32 (i32, i32, i64, %"unwind::libunwind::_Unwind_Exception"*, %"unwind::libunwind::_Unwind_Context"*)* @rust_eh_personality !dbg !892 {
start:
  %0 = alloca { i8*, i32 }, align 8
  %_2 = alloca {}, align 1
  %_1 = alloca %"[closure@src/test_varargs.rs:73:1: 79:2]", align 1
  call void @llvm.dbg.declare(metadata %"[closure@src/test_varargs.rs:73:1: 79:2]"* %_1, metadata !899, metadata !DIExpression()), !dbg !903
  call void @llvm.dbg.declare(metadata {}* %_2, metadata !900, metadata !DIExpression()), !dbg !903
; invoke items_tests::test_varargs::test_simple_vacopy::{{closure}}
  invoke void @"_ZN11items_tests12test_varargs18test_simple_vacopy28_$u7b$$u7b$closure$u7d$$u7d$17hce8dd81165069b8dE"(%"[closure@src/test_varargs.rs:73:1: 79:2]"* align 1 %_1)
          to label %bb1 unwind label %cleanup, !dbg !903

bb3:                                              ; preds = %cleanup
  br label %bb4, !dbg !903

cleanup:                                          ; preds = %start
  %1 = landingpad { i8*, i32 }
          cleanup
  %2 = extractvalue { i8*, i32 } %1, 0
  %3 = extractvalue { i8*, i32 } %1, 1
  %4 = getelementptr inbounds { i8*, i32 }, { i8*, i32 }* %0, i32 0, i32 0
  store i8* %2, i8** %4, align 8
  %5 = getelementptr inbounds { i8*, i32 }, { i8*, i32 }* %0, i32 0, i32 1
  store i32 %3, i32* %5, align 8
  br label %bb3

bb1:                                              ; preds = %start
  br label %bb2, !dbg !903

bb4:                                              ; preds = %bb3
  %6 = bitcast { i8*, i32 }* %0 to i8**, !dbg !903
  %7 = load i8*, i8** %6, align 8, !dbg !903
  %8 = getelementptr inbounds { i8*, i32 }, { i8*, i32 }* %0, i32 0, i32 1, !dbg !903
  %9 = load i32, i32* %8, align 8, !dbg !903
  %10 = insertvalue { i8*, i32 } undef, i8* %7, 0, !dbg !903
  %11 = insertvalue { i8*, i32 } %10, i32 %9, 1, !dbg !903
  resume { i8*, i32 } %11, !dbg !903

bb2:                                              ; preds = %bb1
  ret void, !dbg !903
}

; core::ops::function::FnOnce::call_once
; Function Attrs: inlinehint nonlazybind uwtable
define internal void @_ZN4core3ops8function6FnOnce9call_once17h5736f6ce427174a2E() unnamed_addr #0 personality i32 (i32, i32, i64, %"unwind::libunwind::_Unwind_Exception"*, %"unwind::libunwind::_Unwind_Context"*)* @rust_eh_personality !dbg !904 {
start:
  %0 = alloca { i8*, i32 }, align 8
  %_2 = alloca {}, align 1
  %_1 = alloca %"[closure@src/test_noop.rs:22:1: 28:2]", align 1
  call void @llvm.dbg.declare(metadata %"[closure@src/test_noop.rs:22:1: 28:2]"* %_1, metadata !911, metadata !DIExpression()), !dbg !915
  call void @llvm.dbg.declare(metadata {}* %_2, metadata !912, metadata !DIExpression()), !dbg !915
; invoke items_tests::test_noop::test_nofnargs::{{closure}}
  invoke void @"_ZN11items_tests9test_noop13test_nofnargs28_$u7b$$u7b$closure$u7d$$u7d$17h7138966bf29b488dE"(%"[closure@src/test_noop.rs:22:1: 28:2]"* align 1 %_1)
          to label %bb1 unwind label %cleanup, !dbg !915

bb3:                                              ; preds = %cleanup
  br label %bb4, !dbg !915

cleanup:                                          ; preds = %start
  %1 = landingpad { i8*, i32 }
          cleanup
  %2 = extractvalue { i8*, i32 } %1, 0
  %3 = extractvalue { i8*, i32 } %1, 1
  %4 = getelementptr inbounds { i8*, i32 }, { i8*, i32 }* %0, i32 0, i32 0
  store i8* %2, i8** %4, align 8
  %5 = getelementptr inbounds { i8*, i32 }, { i8*, i32 }* %0, i32 0, i32 1
  store i32 %3, i32* %5, align 8
  br label %bb3

bb1:                                              ; preds = %start
  br label %bb2, !dbg !915

bb4:                                              ; preds = %bb3
  %6 = bitcast { i8*, i32 }* %0 to i8**, !dbg !915
  %7 = load i8*, i8** %6, align 8, !dbg !915
  %8 = getelementptr inbounds { i8*, i32 }, { i8*, i32 }* %0, i32 0, i32 1, !dbg !915
  %9 = load i32, i32* %8, align 8, !dbg !915
  %10 = insertvalue { i8*, i32 } undef, i8* %7, 0, !dbg !915
  %11 = insertvalue { i8*, i32 } %10, i32 %9, 1, !dbg !915
  resume { i8*, i32 } %11, !dbg !915

bb2:                                              ; preds = %bb1
  ret void, !dbg !915
}

; core::ops::function::FnOnce::call_once
; Function Attrs: inlinehint nonlazybind uwtable
define internal void @_ZN4core3ops8function6FnOnce9call_once17h6214936ae3873b08E() unnamed_addr #0 personality i32 (i32, i32, i64, %"unwind::libunwind::_Unwind_Exception"*, %"unwind::libunwind::_Unwind_Context"*)* @rust_eh_personality !dbg !916 {
start:
  %0 = alloca { i8*, i32 }, align 8
  %_2 = alloca {}, align 1
  %_1 = alloca %"[closure@src/test_varargs.rs:41:1: 46:2]", align 1
  call void @llvm.dbg.declare(metadata %"[closure@src/test_varargs.rs:41:1: 46:2]"* %_1, metadata !922, metadata !DIExpression()), !dbg !926
  call void @llvm.dbg.declare(metadata {}* %_2, metadata !923, metadata !DIExpression()), !dbg !926
; invoke items_tests::test_varargs::test_call_printf::{{closure}}
  invoke void @"_ZN11items_tests12test_varargs16test_call_printf28_$u7b$$u7b$closure$u7d$$u7d$17h7769b24fd3ad455bE"(%"[closure@src/test_varargs.rs:41:1: 46:2]"* align 1 %_1)
          to label %bb1 unwind label %cleanup, !dbg !926

bb3:                                              ; preds = %cleanup
  br label %bb4, !dbg !926

cleanup:                                          ; preds = %start
  %1 = landingpad { i8*, i32 }
          cleanup
  %2 = extractvalue { i8*, i32 } %1, 0
  %3 = extractvalue { i8*, i32 } %1, 1
  %4 = getelementptr inbounds { i8*, i32 }, { i8*, i32 }* %0, i32 0, i32 0
  store i8* %2, i8** %4, align 8
  %5 = getelementptr inbounds { i8*, i32 }, { i8*, i32 }* %0, i32 0, i32 1
  store i32 %3, i32* %5, align 8
  br label %bb3

bb1:                                              ; preds = %start
  br label %bb2, !dbg !926

bb4:                                              ; preds = %bb3
  %6 = bitcast { i8*, i32 }* %0 to i8**, !dbg !926
  %7 = load i8*, i8** %6, align 8, !dbg !926
  %8 = getelementptr inbounds { i8*, i32 }, { i8*, i32 }* %0, i32 0, i32 1, !dbg !926
  %9 = load i32, i32* %8, align 8, !dbg !926
  %10 = insertvalue { i8*, i32 } undef, i8* %7, 0, !dbg !926
  %11 = insertvalue { i8*, i32 } %10, i32 %9, 1, !dbg !926
  resume { i8*, i32 } %11, !dbg !926

bb2:                                              ; preds = %bb1
  ret void, !dbg !926
}

; core::ops::function::FnOnce::call_once
; Function Attrs: inlinehint nonlazybind uwtable
define internal void @_ZN4core3ops8function6FnOnce9call_once17h77268db247ff65b5E() unnamed_addr #0 personality i32 (i32, i32, i64, %"unwind::libunwind::_Unwind_Exception"*, %"unwind::libunwind::_Unwind_Context"*)* @rust_eh_personality !dbg !927 {
start:
  %0 = alloca { i8*, i32 }, align 8
  %_2 = alloca {}, align 1
  %_1 = alloca %"[closure@src/test_varargs.rs:83:1: 89:2]", align 1
  call void @llvm.dbg.declare(metadata %"[closure@src/test_varargs.rs:83:1: 89:2]"* %_1, metadata !933, metadata !DIExpression()), !dbg !937
  call void @llvm.dbg.declare(metadata {}* %_2, metadata !934, metadata !DIExpression()), !dbg !937
; invoke items_tests::test_varargs::test_valist_struct_member::{{closure}}
  invoke void @"_ZN11items_tests12test_varargs25test_valist_struct_member28_$u7b$$u7b$closure$u7d$$u7d$17h5c1477b770555c50E"(%"[closure@src/test_varargs.rs:83:1: 89:2]"* align 1 %_1)
          to label %bb1 unwind label %cleanup, !dbg !937

bb3:                                              ; preds = %cleanup
  br label %bb4, !dbg !937

cleanup:                                          ; preds = %start
  %1 = landingpad { i8*, i32 }
          cleanup
  %2 = extractvalue { i8*, i32 } %1, 0
  %3 = extractvalue { i8*, i32 } %1, 1
  %4 = getelementptr inbounds { i8*, i32 }, { i8*, i32 }* %0, i32 0, i32 0
  store i8* %2, i8** %4, align 8
  %5 = getelementptr inbounds { i8*, i32 }, { i8*, i32 }* %0, i32 0, i32 1
  store i32 %3, i32* %5, align 8
  br label %bb3

bb1:                                              ; preds = %start
  br label %bb2, !dbg !937

bb4:                                              ; preds = %bb3
  %6 = bitcast { i8*, i32 }* %0 to i8**, !dbg !937
  %7 = load i8*, i8** %6, align 8, !dbg !937
  %8 = getelementptr inbounds { i8*, i32 }, { i8*, i32 }* %0, i32 0, i32 1, !dbg !937
  %9 = load i32, i32* %8, align 8, !dbg !937
  %10 = insertvalue { i8*, i32 } undef, i8* %7, 0, !dbg !937
  %11 = insertvalue { i8*, i32 } %10, i32 %9, 1, !dbg !937
  resume { i8*, i32 } %11, !dbg !937

bb2:                                              ; preds = %bb1
  ret void, !dbg !937
}

; core::ops::function::FnOnce::call_once
; Function Attrs: inlinehint nonlazybind uwtable
define internal void @_ZN4core3ops8function6FnOnce9call_once17h77aa248235f6fc7bE() unnamed_addr #0 personality i32 (i32, i32, i64, %"unwind::libunwind::_Unwind_Exception"*, %"unwind::libunwind::_Unwind_Context"*)* @rust_eh_personality !dbg !938 {
start:
  %0 = alloca { i8*, i32 }, align 8
  %_2 = alloca {}, align 1
  %_1 = alloca %"[closure@src/test_varargs.rs:51:1: 57:2]", align 1
  call void @llvm.dbg.declare(metadata %"[closure@src/test_varargs.rs:51:1: 57:2]"* %_1, metadata !944, metadata !DIExpression()), !dbg !948
  call void @llvm.dbg.declare(metadata {}* %_2, metadata !945, metadata !DIExpression()), !dbg !948
; invoke items_tests::test_varargs::test_call_vprintf::{{closure}}
  invoke void @"_ZN11items_tests12test_varargs17test_call_vprintf28_$u7b$$u7b$closure$u7d$$u7d$17h7f42e6bd2a229663E"(%"[closure@src/test_varargs.rs:51:1: 57:2]"* align 1 %_1)
          to label %bb1 unwind label %cleanup, !dbg !948

bb3:                                              ; preds = %cleanup
  br label %bb4, !dbg !948

cleanup:                                          ; preds = %start
  %1 = landingpad { i8*, i32 }
          cleanup
  %2 = extractvalue { i8*, i32 } %1, 0
  %3 = extractvalue { i8*, i32 } %1, 1
  %4 = getelementptr inbounds { i8*, i32 }, { i8*, i32 }* %0, i32 0, i32 0
  store i8* %2, i8** %4, align 8
  %5 = getelementptr inbounds { i8*, i32 }, { i8*, i32 }* %0, i32 0, i32 1
  store i32 %3, i32* %5, align 8
  br label %bb3

bb1:                                              ; preds = %start
  br label %bb2, !dbg !948

bb4:                                              ; preds = %bb3
  %6 = bitcast { i8*, i32 }* %0 to i8**, !dbg !948
  %7 = load i8*, i8** %6, align 8, !dbg !948
  %8 = getelementptr inbounds { i8*, i32 }, { i8*, i32 }* %0, i32 0, i32 1, !dbg !948
  %9 = load i32, i32* %8, align 8, !dbg !948
  %10 = insertvalue { i8*, i32 } undef, i8* %7, 0, !dbg !948
  %11 = insertvalue { i8*, i32 } %10, i32 %9, 1, !dbg !948
  resume { i8*, i32 } %11, !dbg !948

bb2:                                              ; preds = %bb1
  ret void, !dbg !948
}

; core::ops::function::FnOnce::call_once
; Function Attrs: inlinehint nonlazybind uwtable
define internal void @_ZN4core3ops8function6FnOnce9call_once17h793ca64f3c1536f2E(void ()* %_1) unnamed_addr #0 !dbg !949 {
start:
  %_1.dbg.spill = alloca void ()*, align 8
  %_2 = alloca {}, align 1
  store void ()* %_1, void ()** %_1.dbg.spill, align 8
  call void @llvm.dbg.declare(metadata void ()** %_1.dbg.spill, metadata !951, metadata !DIExpression()), !dbg !955
  call void @llvm.dbg.declare(metadata {}* %_2, metadata !952, metadata !DIExpression()), !dbg !955
  call void %_1(), !dbg !955
  br label %bb1, !dbg !955

bb1:                                              ; preds = %start
  ret void, !dbg !955
}

; core::ops::function::FnOnce::call_once
; Function Attrs: inlinehint nonlazybind uwtable
define internal void @_ZN4core3ops8function6FnOnce9call_once17h861b3bcfb9bac322E() unnamed_addr #0 personality i32 (i32, i32, i64, %"unwind::libunwind::_Unwind_Exception"*, %"unwind::libunwind::_Unwind_Context"*)* @rust_eh_personality !dbg !956 {
start:
  %0 = alloca { i8*, i32 }, align 8
  %_2 = alloca {}, align 1
  %_1 = alloca %"[closure@src/test_varargs.rs:103:1: 109:2]", align 1
  call void @llvm.dbg.declare(metadata %"[closure@src/test_varargs.rs:103:1: 109:2]"* %_1, metadata !962, metadata !DIExpression()), !dbg !966
  call void @llvm.dbg.declare(metadata {}* %_2, metadata !963, metadata !DIExpression()), !dbg !966
; invoke items_tests::test_varargs::test_restart_valist::{{closure}}
  invoke void @"_ZN11items_tests12test_varargs19test_restart_valist28_$u7b$$u7b$closure$u7d$$u7d$17h62cd1bc9af715e26E"(%"[closure@src/test_varargs.rs:103:1: 109:2]"* align 1 %_1)
          to label %bb1 unwind label %cleanup, !dbg !966

bb3:                                              ; preds = %cleanup
  br label %bb4, !dbg !966

cleanup:                                          ; preds = %start
  %1 = landingpad { i8*, i32 }
          cleanup
  %2 = extractvalue { i8*, i32 } %1, 0
  %3 = extractvalue { i8*, i32 } %1, 1
  %4 = getelementptr inbounds { i8*, i32 }, { i8*, i32 }* %0, i32 0, i32 0
  store i8* %2, i8** %4, align 8
  %5 = getelementptr inbounds { i8*, i32 }, { i8*, i32 }* %0, i32 0, i32 1
  store i32 %3, i32* %5, align 8
  br label %bb3

bb1:                                              ; preds = %start
  br label %bb2, !dbg !966

bb4:                                              ; preds = %bb3
  %6 = bitcast { i8*, i32 }* %0 to i8**, !dbg !966
  %7 = load i8*, i8** %6, align 8, !dbg !966
  %8 = getelementptr inbounds { i8*, i32 }, { i8*, i32 }* %0, i32 0, i32 1, !dbg !966
  %9 = load i32, i32* %8, align 8, !dbg !966
  %10 = insertvalue { i8*, i32 } undef, i8* %7, 0, !dbg !966
  %11 = insertvalue { i8*, i32 } %10, i32 %9, 1, !dbg !966
  resume { i8*, i32 } %11, !dbg !966

bb2:                                              ; preds = %bb1
  ret void, !dbg !966
}

; core::ops::function::FnOnce::call_once
; Function Attrs: inlinehint nonlazybind uwtable
define internal void @_ZN4core3ops8function6FnOnce9call_once17ha270832fbeaf6911E() unnamed_addr #0 personality i32 (i32, i32, i64, %"unwind::libunwind::_Unwind_Exception"*, %"unwind::libunwind::_Unwind_Context"*)* @rust_eh_personality !dbg !967 {
start:
  %0 = alloca { i8*, i32 }, align 8
  %_2 = alloca {}, align 1
  %_1 = alloca %"[closure@src/test_noop.rs:14:1: 19:2]", align 1
  call void @llvm.dbg.declare(metadata %"[closure@src/test_noop.rs:14:1: 19:2]"* %_1, metadata !973, metadata !DIExpression()), !dbg !977
  call void @llvm.dbg.declare(metadata {}* %_2, metadata !974, metadata !DIExpression()), !dbg !977
; invoke items_tests::test_noop::test_noop::{{closure}}
  invoke void @"_ZN11items_tests9test_noop9test_noop28_$u7b$$u7b$closure$u7d$$u7d$17h25e9900ed25c3047E"(%"[closure@src/test_noop.rs:14:1: 19:2]"* align 1 %_1)
          to label %bb1 unwind label %cleanup, !dbg !977

bb3:                                              ; preds = %cleanup
  br label %bb4, !dbg !977

cleanup:                                          ; preds = %start
  %1 = landingpad { i8*, i32 }
          cleanup
  %2 = extractvalue { i8*, i32 } %1, 0
  %3 = extractvalue { i8*, i32 } %1, 1
  %4 = getelementptr inbounds { i8*, i32 }, { i8*, i32 }* %0, i32 0, i32 0
  store i8* %2, i8** %4, align 8
  %5 = getelementptr inbounds { i8*, i32 }, { i8*, i32 }* %0, i32 0, i32 1
  store i32 %3, i32* %5, align 8
  br label %bb3

bb1:                                              ; preds = %start
  br label %bb2, !dbg !977

bb4:                                              ; preds = %bb3
  %6 = bitcast { i8*, i32 }* %0 to i8**, !dbg !977
  %7 = load i8*, i8** %6, align 8, !dbg !977
  %8 = getelementptr inbounds { i8*, i32 }, { i8*, i32 }* %0, i32 0, i32 1, !dbg !977
  %9 = load i32, i32* %8, align 8, !dbg !977
  %10 = insertvalue { i8*, i32 } undef, i8* %7, 0, !dbg !977
  %11 = insertvalue { i8*, i32 } %10, i32 %9, 1, !dbg !977
  resume { i8*, i32 } %11, !dbg !977

bb2:                                              ; preds = %bb1
  ret void, !dbg !977
}

; core::ops::function::FnOnce::call_once
; Function Attrs: inlinehint nonlazybind uwtable
define internal void @_ZN4core3ops8function6FnOnce9call_once17hca7b06276e5a34b4E() unnamed_addr #0 personality i32 (i32, i32, i64, %"unwind::libunwind::_Unwind_Exception"*, %"unwind::libunwind::_Unwind_Context"*)* @rust_eh_personality !dbg !978 {
start:
  %0 = alloca { i8*, i32 }, align 8
  %_2 = alloca {}, align 1
  %_1 = alloca %"[closure@src/test_functions.rs:9:1: 14:2]", align 1
  call void @llvm.dbg.declare(metadata %"[closure@src/test_functions.rs:9:1: 14:2]"* %_1, metadata !985, metadata !DIExpression()), !dbg !989
  call void @llvm.dbg.declare(metadata {}* %_2, metadata !986, metadata !DIExpression()), !dbg !989
; invoke items_tests::test_functions::test_coreutils_static_assert::{{closure}}
  invoke void @"_ZN11items_tests14test_functions28test_coreutils_static_assert28_$u7b$$u7b$closure$u7d$$u7d$17h7050d3523f1ec425E"(%"[closure@src/test_functions.rs:9:1: 14:2]"* align 1 %_1)
          to label %bb1 unwind label %cleanup, !dbg !989

bb3:                                              ; preds = %cleanup
  br label %bb4, !dbg !989

cleanup:                                          ; preds = %start
  %1 = landingpad { i8*, i32 }
          cleanup
  %2 = extractvalue { i8*, i32 } %1, 0
  %3 = extractvalue { i8*, i32 } %1, 1
  %4 = getelementptr inbounds { i8*, i32 }, { i8*, i32 }* %0, i32 0, i32 0
  store i8* %2, i8** %4, align 8
  %5 = getelementptr inbounds { i8*, i32 }, { i8*, i32 }* %0, i32 0, i32 1
  store i32 %3, i32* %5, align 8
  br label %bb3

bb1:                                              ; preds = %start
  br label %bb2, !dbg !989

bb4:                                              ; preds = %bb3
  %6 = bitcast { i8*, i32 }* %0 to i8**, !dbg !989
  %7 = load i8*, i8** %6, align 8, !dbg !989
  %8 = getelementptr inbounds { i8*, i32 }, { i8*, i32 }* %0, i32 0, i32 1, !dbg !989
  %9 = load i32, i32* %8, align 8, !dbg !989
  %10 = insertvalue { i8*, i32 } undef, i8* %7, 0, !dbg !989
  %11 = insertvalue { i8*, i32 } %10, i32 %9, 1, !dbg !989
  resume { i8*, i32 } %11, !dbg !989

bb2:                                              ; preds = %bb1
  ret void, !dbg !989
}

; core::ops::function::FnOnce::call_once
; Function Attrs: inlinehint nonlazybind uwtable
define internal void @_ZN4core3ops8function6FnOnce9call_once17hd483a72806981ebcE() unnamed_addr #0 personality i32 (i32, i32, i64, %"unwind::libunwind::_Unwind_Exception"*, %"unwind::libunwind::_Unwind_Context"*)* @rust_eh_personality !dbg !990 {
start:
  %0 = alloca { i8*, i32 }, align 8
  %_2 = alloca {}, align 1
  %_1 = alloca %"[closure@src/test_linking.rs:12:1: 28:2]", align 1
  call void @llvm.dbg.declare(metadata %"[closure@src/test_linking.rs:12:1: 28:2]"* %_1, metadata !997, metadata !DIExpression()), !dbg !1001
  call void @llvm.dbg.declare(metadata {}* %_2, metadata !998, metadata !DIExpression()), !dbg !1001
; invoke items_tests::test_linking::test_linking::{{closure}}
  invoke void @"_ZN11items_tests12test_linking12test_linking28_$u7b$$u7b$closure$u7d$$u7d$17h0e727e4d4b2158baE"(%"[closure@src/test_linking.rs:12:1: 28:2]"* align 1 %_1)
          to label %bb1 unwind label %cleanup, !dbg !1001

bb3:                                              ; preds = %cleanup
  br label %bb4, !dbg !1001

cleanup:                                          ; preds = %start
  %1 = landingpad { i8*, i32 }
          cleanup
  %2 = extractvalue { i8*, i32 } %1, 0
  %3 = extractvalue { i8*, i32 } %1, 1
  %4 = getelementptr inbounds { i8*, i32 }, { i8*, i32 }* %0, i32 0, i32 0
  store i8* %2, i8** %4, align 8
  %5 = getelementptr inbounds { i8*, i32 }, { i8*, i32 }* %0, i32 0, i32 1
  store i32 %3, i32* %5, align 8
  br label %bb3

bb1:                                              ; preds = %start
  br label %bb2, !dbg !1001

bb4:                                              ; preds = %bb3
  %6 = bitcast { i8*, i32 }* %0 to i8**, !dbg !1001
  %7 = load i8*, i8** %6, align 8, !dbg !1001
  %8 = getelementptr inbounds { i8*, i32 }, { i8*, i32 }* %0, i32 0, i32 1, !dbg !1001
  %9 = load i32, i32* %8, align 8, !dbg !1001
  %10 = insertvalue { i8*, i32 } undef, i8* %7, 0, !dbg !1001
  %11 = insertvalue { i8*, i32 } %10, i32 %9, 1, !dbg !1001
  resume { i8*, i32 } %11, !dbg !1001

bb2:                                              ; preds = %bb1
  ret void, !dbg !1001
}

; core::ops::function::FnOnce::call_once
; Function Attrs: inlinehint nonlazybind uwtable
define internal void @_ZN4core3ops8function6FnOnce9call_once17hd56a9f4381f21938E() unnamed_addr #0 personality i32 (i32, i32, i64, %"unwind::libunwind::_Unwind_Exception"*, %"unwind::libunwind::_Unwind_Context"*)* @rust_eh_personality !dbg !1002 {
start:
  %0 = alloca { i8*, i32 }, align 8
  %_2 = alloca {}, align 1
  %_1 = alloca %"[closure@src/test_fn_attrs.rs:4:1: 64:2]", align 1
  call void @llvm.dbg.declare(metadata %"[closure@src/test_fn_attrs.rs:4:1: 64:2]"* %_1, metadata !1009, metadata !DIExpression()), !dbg !1013
  call void @llvm.dbg.declare(metadata {}* %_2, metadata !1010, metadata !DIExpression()), !dbg !1013
; invoke items_tests::test_fn_attrs::test_fn_attrs::{{closure}}
  invoke void @"_ZN11items_tests13test_fn_attrs13test_fn_attrs28_$u7b$$u7b$closure$u7d$$u7d$17h714141d32e086469E"(%"[closure@src/test_fn_attrs.rs:4:1: 64:2]"* align 1 %_1)
          to label %bb1 unwind label %cleanup, !dbg !1013

bb3:                                              ; preds = %cleanup
  br label %bb4, !dbg !1013

cleanup:                                          ; preds = %start
  %1 = landingpad { i8*, i32 }
          cleanup
  %2 = extractvalue { i8*, i32 } %1, 0
  %3 = extractvalue { i8*, i32 } %1, 1
  %4 = getelementptr inbounds { i8*, i32 }, { i8*, i32 }* %0, i32 0, i32 0
  store i8* %2, i8** %4, align 8
  %5 = getelementptr inbounds { i8*, i32 }, { i8*, i32 }* %0, i32 0, i32 1
  store i32 %3, i32* %5, align 8
  br label %bb3

bb1:                                              ; preds = %start
  br label %bb2, !dbg !1013

bb4:                                              ; preds = %bb3
  %6 = bitcast { i8*, i32 }* %0 to i8**, !dbg !1013
  %7 = load i8*, i8** %6, align 8, !dbg !1013
  %8 = getelementptr inbounds { i8*, i32 }, { i8*, i32 }* %0, i32 0, i32 1, !dbg !1013
  %9 = load i32, i32* %8, align 8, !dbg !1013
  %10 = insertvalue { i8*, i32 } undef, i8* %7, 0, !dbg !1013
  %11 = insertvalue { i8*, i32 } %10, i32 %9, 1, !dbg !1013
  resume { i8*, i32 } %11, !dbg !1013

bb2:                                              ; preds = %bb1
  ret void, !dbg !1013
}

; core::ops::function::FnOnce::call_once
; Function Attrs: inlinehint nonlazybind uwtable
define internal void @_ZN4core3ops8function6FnOnce9call_once17hd6c9cf14983b1622E() unnamed_addr #0 personality i32 (i32, i32, i64, %"unwind::libunwind::_Unwind_Exception"*, %"unwind::libunwind::_Unwind_Context"*)* @rust_eh_personality !dbg !1014 {
start:
  %0 = alloca { i8*, i32 }, align 8
  %_2 = alloca {}, align 1
  %_1 = alloca %"[closure@src/test_varargs.rs:62:1: 69:2]", align 1
  call void @llvm.dbg.declare(metadata %"[closure@src/test_varargs.rs:62:1: 69:2]"* %_1, metadata !1020, metadata !DIExpression()), !dbg !1024
  call void @llvm.dbg.declare(metadata {}* %_2, metadata !1021, metadata !DIExpression()), !dbg !1024
; invoke items_tests::test_varargs::test_my_printf::{{closure}}
  invoke void @"_ZN11items_tests12test_varargs14test_my_printf28_$u7b$$u7b$closure$u7d$$u7d$17hbbba3c461f8facb5E"(%"[closure@src/test_varargs.rs:62:1: 69:2]"* align 1 %_1)
          to label %bb1 unwind label %cleanup, !dbg !1024

bb3:                                              ; preds = %cleanup
  br label %bb4, !dbg !1024

cleanup:                                          ; preds = %start
  %1 = landingpad { i8*, i32 }
          cleanup
  %2 = extractvalue { i8*, i32 } %1, 0
  %3 = extractvalue { i8*, i32 } %1, 1
  %4 = getelementptr inbounds { i8*, i32 }, { i8*, i32 }* %0, i32 0, i32 0
  store i8* %2, i8** %4, align 8
  %5 = getelementptr inbounds { i8*, i32 }, { i8*, i32 }* %0, i32 0, i32 1
  store i32 %3, i32* %5, align 8
  br label %bb3

bb1:                                              ; preds = %start
  br label %bb2, !dbg !1024

bb4:                                              ; preds = %bb3
  %6 = bitcast { i8*, i32 }* %0 to i8**, !dbg !1024
  %7 = load i8*, i8** %6, align 8, !dbg !1024
  %8 = getelementptr inbounds { i8*, i32 }, { i8*, i32 }* %0, i32 0, i32 1, !dbg !1024
  %9 = load i32, i32* %8, align 8, !dbg !1024
  %10 = insertvalue { i8*, i32 } undef, i8* %7, 0, !dbg !1024
  %11 = insertvalue { i8*, i32 } %10, i32 %9, 1, !dbg !1024
  resume { i8*, i32 } %11, !dbg !1024

bb2:                                              ; preds = %bb1
  ret void, !dbg !1024
}

; core::ops::function::FnOnce::call_once
; Function Attrs: inlinehint nonlazybind uwtable
define internal void @_ZN4core3ops8function6FnOnce9call_once17hd8abc731315913cdE() unnamed_addr #0 personality i32 (i32, i32, i64, %"unwind::libunwind::_Unwind_Exception"*, %"unwind::libunwind::_Unwind_Context"*)* @rust_eh_personality !dbg !1025 {
start:
  %0 = alloca { i8*, i32 }, align 8
  %_2 = alloca {}, align 1
  %_1 = alloca %"[closure@src/test_varargs.rs:93:1: 99:2]", align 1
  call void @llvm.dbg.declare(metadata %"[closure@src/test_varargs.rs:93:1: 99:2]"* %_1, metadata !1031, metadata !DIExpression()), !dbg !1035
  call void @llvm.dbg.declare(metadata {}* %_2, metadata !1032, metadata !DIExpression()), !dbg !1035
; invoke items_tests::test_varargs::test_valist_struct_pointer_member::{{closure}}
  invoke void @"_ZN11items_tests12test_varargs33test_valist_struct_pointer_member28_$u7b$$u7b$closure$u7d$$u7d$17h9352fcc9fc119ee9E"(%"[closure@src/test_varargs.rs:93:1: 99:2]"* align 1 %_1)
          to label %bb1 unwind label %cleanup, !dbg !1035

bb3:                                              ; preds = %cleanup
  br label %bb4, !dbg !1035

cleanup:                                          ; preds = %start
  %1 = landingpad { i8*, i32 }
          cleanup
  %2 = extractvalue { i8*, i32 } %1, 0
  %3 = extractvalue { i8*, i32 } %1, 1
  %4 = getelementptr inbounds { i8*, i32 }, { i8*, i32 }* %0, i32 0, i32 0
  store i8* %2, i8** %4, align 8
  %5 = getelementptr inbounds { i8*, i32 }, { i8*, i32 }* %0, i32 0, i32 1
  store i32 %3, i32* %5, align 8
  br label %bb3

bb1:                                              ; preds = %start
  br label %bb2, !dbg !1035

bb4:                                              ; preds = %bb3
  %6 = bitcast { i8*, i32 }* %0 to i8**, !dbg !1035
  %7 = load i8*, i8** %6, align 8, !dbg !1035
  %8 = getelementptr inbounds { i8*, i32 }, { i8*, i32 }* %0, i32 0, i32 1, !dbg !1035
  %9 = load i32, i32* %8, align 8, !dbg !1035
  %10 = insertvalue { i8*, i32 } undef, i8* %7, 0, !dbg !1035
  %11 = insertvalue { i8*, i32 } %10, i32 %9, 1, !dbg !1035
  resume { i8*, i32 } %11, !dbg !1035

bb2:                                              ; preds = %bb1
  ret void, !dbg !1035
}

; core::ops::function::FnOnce::call_once
; Function Attrs: inlinehint nonlazybind uwtable
define internal void @_ZN4core3ops8function6FnOnce9call_once17he9f295bdf9616028E() unnamed_addr #0 personality i32 (i32, i32, i64, %"unwind::libunwind::_Unwind_Exception"*, %"unwind::libunwind::_Unwind_Context"*)* @rust_eh_personality !dbg !1036 {
start:
  %0 = alloca { i8*, i32 }, align 8
  %_2 = alloca {}, align 1
  %_1 = alloca %"[closure@src/test_varargs.rs:113:1: 119:2]", align 1
  call void @llvm.dbg.declare(metadata %"[closure@src/test_varargs.rs:113:1: 119:2]"* %_1, metadata !1042, metadata !DIExpression()), !dbg !1046
  call void @llvm.dbg.declare(metadata {}* %_2, metadata !1043, metadata !DIExpression()), !dbg !1046
; invoke items_tests::test_varargs::test_sample_stddev::{{closure}}
  invoke void @"_ZN11items_tests12test_varargs18test_sample_stddev28_$u7b$$u7b$closure$u7d$$u7d$17h5b0b6323e1a2b9e7E"(%"[closure@src/test_varargs.rs:113:1: 119:2]"* align 1 %_1)
          to label %bb1 unwind label %cleanup, !dbg !1046

bb3:                                              ; preds = %cleanup
  br label %bb4, !dbg !1046

cleanup:                                          ; preds = %start
  %1 = landingpad { i8*, i32 }
          cleanup
  %2 = extractvalue { i8*, i32 } %1, 0
  %3 = extractvalue { i8*, i32 } %1, 1
  %4 = getelementptr inbounds { i8*, i32 }, { i8*, i32 }* %0, i32 0, i32 0
  store i8* %2, i8** %4, align 8
  %5 = getelementptr inbounds { i8*, i32 }, { i8*, i32 }* %0, i32 0, i32 1
  store i32 %3, i32* %5, align 8
  br label %bb3

bb1:                                              ; preds = %start
  br label %bb2, !dbg !1046

bb4:                                              ; preds = %bb3
  %6 = bitcast { i8*, i32 }* %0 to i8**, !dbg !1046
  %7 = load i8*, i8** %6, align 8, !dbg !1046
  %8 = getelementptr inbounds { i8*, i32 }, { i8*, i32 }* %0, i32 0, i32 1, !dbg !1046
  %9 = load i32, i32* %8, align 8, !dbg !1046
  %10 = insertvalue { i8*, i32 } undef, i8* %7, 0, !dbg !1046
  %11 = insertvalue { i8*, i32 } %10, i32 %9, 1, !dbg !1046
  resume { i8*, i32 } %11, !dbg !1046

bb2:                                              ; preds = %bb1
  ret void, !dbg !1046
}

; core::ops::function::FnOnce::call_once
; Function Attrs: inlinehint nonlazybind uwtable
define internal i32 @_ZN4core3ops8function6FnOnce9call_once17hf73420e894a2abd6E(i64* %0) unnamed_addr #0 personality i32 (i32, i32, i64, %"unwind::libunwind::_Unwind_Exception"*, %"unwind::libunwind::_Unwind_Context"*)* @rust_eh_personality !dbg !1047 {
start:
  %1 = alloca { i8*, i32 }, align 8
  %_2 = alloca {}, align 1
  %_1 = alloca i64*, align 8
  store i64* %0, i64** %_1, align 8
  call void @llvm.dbg.declare(metadata i64** %_1, metadata !1051, metadata !DIExpression()), !dbg !1053
  call void @llvm.dbg.declare(metadata {}* %_2, metadata !1052, metadata !DIExpression()), !dbg !1053
; invoke std::rt::lang_start::{{closure}}
  %2 = invoke i32 @"_ZN3std2rt10lang_start28_$u7b$$u7b$closure$u7d$$u7d$17hd0fde3f377fa9f03E"(i64** align 8 %_1)
          to label %bb1 unwind label %cleanup, !dbg !1053

bb3:                                              ; preds = %cleanup
  br label %bb4, !dbg !1053

cleanup:                                          ; preds = %start
  %3 = landingpad { i8*, i32 }
          cleanup
  %4 = extractvalue { i8*, i32 } %3, 0
  %5 = extractvalue { i8*, i32 } %3, 1
  %6 = getelementptr inbounds { i8*, i32 }, { i8*, i32 }* %1, i32 0, i32 0
  store i8* %4, i8** %6, align 8
  %7 = getelementptr inbounds { i8*, i32 }, { i8*, i32 }* %1, i32 0, i32 1
  store i32 %5, i32* %7, align 8
  br label %bb3

bb1:                                              ; preds = %start
  br label %bb2, !dbg !1053

bb4:                                              ; preds = %bb3
  %8 = bitcast { i8*, i32 }* %1 to i8**, !dbg !1053
  %9 = load i8*, i8** %8, align 8, !dbg !1053
  %10 = getelementptr inbounds { i8*, i32 }, { i8*, i32 }* %1, i32 0, i32 1, !dbg !1053
  %11 = load i32, i32* %10, align 8, !dbg !1053
  %12 = insertvalue { i8*, i32 } undef, i8* %9, 0, !dbg !1053
  %13 = insertvalue { i8*, i32 } %12, i32 %11, 1, !dbg !1053
  resume { i8*, i32 } %13, !dbg !1053

bb2:                                              ; preds = %bb1
  ret i32 %2, !dbg !1053
}

; core::ptr::drop_in_place<&f64>
; Function Attrs: inlinehint nonlazybind uwtable
define internal void @"_ZN4core3ptr28drop_in_place$LT$$RF$f64$GT$17h6a3355b55063efb7E"(double** %_1) unnamed_addr #0 !dbg !1054 {
start:
  %_1.dbg.spill = alloca double**, align 8
  store double** %_1, double*** %_1.dbg.spill, align 8
  call void @llvm.dbg.declare(metadata double*** %_1.dbg.spill, metadata !1059, metadata !DIExpression()), !dbg !1062
  ret void, !dbg !1062
}

; core::ptr::drop_in_place<&i32>
; Function Attrs: inlinehint nonlazybind uwtable
define internal void @"_ZN4core3ptr28drop_in_place$LT$$RF$i32$GT$17h7a6644d12aade1d6E"(i32** %_1) unnamed_addr #0 !dbg !1063 {
start:
  %_1.dbg.spill = alloca i32**, align 8
  store i32** %_1, i32*** %_1.dbg.spill, align 8
  call void @llvm.dbg.declare(metadata i32*** %_1.dbg.spill, metadata !1068, metadata !DIExpression()), !dbg !1071
  ret void, !dbg !1071
}

; core::ptr::drop_in_place<core::ffi::VaListImpl>
; Function Attrs: nonlazybind uwtable
define internal void @"_ZN4core3ptr42drop_in_place$LT$core..ffi..VaListImpl$GT$17h3a1e24ff022acba3E"(%"core::ffi::VaListImpl"* %_1) unnamed_addr #2 !dbg !1072 {
start:
  %_1.dbg.spill = alloca %"core::ffi::VaListImpl"*, align 8
  store %"core::ffi::VaListImpl"* %_1, %"core::ffi::VaListImpl"** %_1.dbg.spill, align 8
  call void @llvm.dbg.declare(metadata %"core::ffi::VaListImpl"** %_1.dbg.spill, metadata !1077, metadata !DIExpression()), !dbg !1080
; call <core::ffi::VaListImpl as core::ops::drop::Drop>::drop
  call void @"_ZN63_$LT$core..ffi..VaListImpl$u20$as$u20$core..ops..drop..Drop$GT$4drop17hb93fc25a64ad027fE"(%"core::ffi::VaListImpl"* align 8 %_1), !dbg !1080
  br label %bb1, !dbg !1080

bb1:                                              ; preds = %start
  ret void, !dbg !1080
}

; core::ptr::drop_in_place<alloc::vec::Vec<u8>>
; Function Attrs: nonlazybind uwtable
define internal void @"_ZN4core3ptr46drop_in_place$LT$alloc..vec..Vec$LT$u8$GT$$GT$17hb51816728a6c9bbcE"(%"alloc::vec::Vec<u8>"* %_1) unnamed_addr #2 personality i32 (i32, i32, i64, %"unwind::libunwind::_Unwind_Exception"*, %"unwind::libunwind::_Unwind_Context"*)* @rust_eh_personality !dbg !1081 {
start:
  %0 = alloca { i8*, i32 }, align 8
  %_1.dbg.spill = alloca %"alloc::vec::Vec<u8>"*, align 8
  store %"alloc::vec::Vec<u8>"* %_1, %"alloc::vec::Vec<u8>"** %_1.dbg.spill, align 8
  call void @llvm.dbg.declare(metadata %"alloc::vec::Vec<u8>"** %_1.dbg.spill, metadata !1086, metadata !DIExpression()), !dbg !1089
; invoke <alloc::vec::Vec<T,A> as core::ops::drop::Drop>::drop
  invoke void @"_ZN70_$LT$alloc..vec..Vec$LT$T$C$A$GT$$u20$as$u20$core..ops..drop..Drop$GT$4drop17hf355b8d3bd7b28f5E"(%"alloc::vec::Vec<u8>"* align 8 %_1)
          to label %bb4 unwind label %cleanup, !dbg !1089

bb3:                                              ; preds = %cleanup
  %1 = bitcast %"alloc::vec::Vec<u8>"* %_1 to { i8*, i64 }*, !dbg !1089
; invoke core::ptr::drop_in_place<alloc::raw_vec::RawVec<u8>>
  invoke void @"_ZN4core3ptr53drop_in_place$LT$alloc..raw_vec..RawVec$LT$u8$GT$$GT$17ha323cba6f3d73791E"({ i8*, i64 }* %1) #16
          to label %bb1 unwind label %abort, !dbg !1089

cleanup:                                          ; preds = %start
  %2 = landingpad { i8*, i32 }
          cleanup
  %3 = extractvalue { i8*, i32 } %2, 0
  %4 = extractvalue { i8*, i32 } %2, 1
  %5 = getelementptr inbounds { i8*, i32 }, { i8*, i32 }* %0, i32 0, i32 0
  store i8* %3, i8** %5, align 8
  %6 = getelementptr inbounds { i8*, i32 }, { i8*, i32 }* %0, i32 0, i32 1
  store i32 %4, i32* %6, align 8
  br label %bb3

bb4:                                              ; preds = %start
  %7 = bitcast %"alloc::vec::Vec<u8>"* %_1 to { i8*, i64 }*, !dbg !1089
; call core::ptr::drop_in_place<alloc::raw_vec::RawVec<u8>>
  call void @"_ZN4core3ptr53drop_in_place$LT$alloc..raw_vec..RawVec$LT$u8$GT$$GT$17ha323cba6f3d73791E"({ i8*, i64 }* %7), !dbg !1089
  br label %bb2, !dbg !1089

abort:                                            ; preds = %bb3
  %8 = landingpad { i8*, i32 }
          cleanup, !dbg !1089
; call core::panicking::panic_no_unwind
  call void @_ZN4core9panicking15panic_no_unwind17h62f8113f44cbfcbfE() #17, !dbg !1089
  unreachable, !dbg !1089

bb1:                                              ; preds = %bb3
  %9 = bitcast { i8*, i32 }* %0 to i8**, !dbg !1089
  %10 = load i8*, i8** %9, align 8, !dbg !1089
  %11 = getelementptr inbounds { i8*, i32 }, { i8*, i32 }* %0, i32 0, i32 1, !dbg !1089
  %12 = load i32, i32* %11, align 8, !dbg !1089
  %13 = insertvalue { i8*, i32 } undef, i8* %10, 0, !dbg !1089
  %14 = insertvalue { i8*, i32 } %13, i32 %12, 1, !dbg !1089
  resume { i8*, i32 } %14, !dbg !1089

bb2:                                              ; preds = %bb4
  ret void, !dbg !1089
}

; core::ptr::drop_in_place<alloc::ffi::c_str::CString>
; Function Attrs: nonlazybind uwtable
define internal void @"_ZN4core3ptr47drop_in_place$LT$alloc..ffi..c_str..CString$GT$17h5cc2bd7e561e5645E"({ i8*, i64 }* %_1) unnamed_addr #2 personality i32 (i32, i32, i64, %"unwind::libunwind::_Unwind_Exception"*, %"unwind::libunwind::_Unwind_Context"*)* @rust_eh_personality !dbg !1090 {
start:
  %0 = alloca { i8*, i32 }, align 8
  %_1.dbg.spill = alloca { i8*, i64 }*, align 8
  store { i8*, i64 }* %_1, { i8*, i64 }** %_1.dbg.spill, align 8
  call void @llvm.dbg.declare(metadata { i8*, i64 }** %_1.dbg.spill, metadata !1102, metadata !DIExpression()), !dbg !1105
; invoke <alloc::ffi::c_str::CString as core::ops::drop::Drop>::drop
  invoke void @"_ZN68_$LT$alloc..ffi..c_str..CString$u20$as$u20$core..ops..drop..Drop$GT$4drop17h4267592d6ad554dbE"({ i8*, i64 }* align 8 %_1)
          to label %bb4 unwind label %cleanup, !dbg !1105

bb3:                                              ; preds = %cleanup
  %1 = bitcast { i8*, i64 }* %_1 to { [0 x i8]*, i64 }*, !dbg !1105
; invoke core::ptr::drop_in_place<alloc::boxed::Box<[u8]>>
  invoke void @"_ZN4core3ptr58drop_in_place$LT$alloc..boxed..Box$LT$$u5b$u8$u5d$$GT$$GT$17h02185211e6a35737E"({ [0 x i8]*, i64 }* %1) #16
          to label %bb1 unwind label %abort, !dbg !1105

cleanup:                                          ; preds = %start
  %2 = landingpad { i8*, i32 }
          cleanup
  %3 = extractvalue { i8*, i32 } %2, 0
  %4 = extractvalue { i8*, i32 } %2, 1
  %5 = getelementptr inbounds { i8*, i32 }, { i8*, i32 }* %0, i32 0, i32 0
  store i8* %3, i8** %5, align 8
  %6 = getelementptr inbounds { i8*, i32 }, { i8*, i32 }* %0, i32 0, i32 1
  store i32 %4, i32* %6, align 8
  br label %bb3

bb4:                                              ; preds = %start
  %7 = bitcast { i8*, i64 }* %_1 to { [0 x i8]*, i64 }*, !dbg !1105
; call core::ptr::drop_in_place<alloc::boxed::Box<[u8]>>
  call void @"_ZN4core3ptr58drop_in_place$LT$alloc..boxed..Box$LT$$u5b$u8$u5d$$GT$$GT$17h02185211e6a35737E"({ [0 x i8]*, i64 }* %7), !dbg !1105
  br label %bb2, !dbg !1105

abort:                                            ; preds = %bb3
  %8 = landingpad { i8*, i32 }
          cleanup, !dbg !1105
; call core::panicking::panic_no_unwind
  call void @_ZN4core9panicking15panic_no_unwind17h62f8113f44cbfcbfE() #17, !dbg !1105
  unreachable, !dbg !1105

bb1:                                              ; preds = %bb3
  %9 = bitcast { i8*, i32 }* %0 to i8**, !dbg !1105
  %10 = load i8*, i8** %9, align 8, !dbg !1105
  %11 = getelementptr inbounds { i8*, i32 }, { i8*, i32 }* %0, i32 0, i32 1, !dbg !1105
  %12 = load i32, i32* %11, align 8, !dbg !1105
  %13 = insertvalue { i8*, i32 } undef, i8* %10, 0, !dbg !1105
  %14 = insertvalue { i8*, i32 } %13, i32 %12, 1, !dbg !1105
  resume { i8*, i32 } %14, !dbg !1105

bb2:                                              ; preds = %bb4
  ret void, !dbg !1105
}

; core::ptr::drop_in_place<alloc::ffi::c_str::NulError>
; Function Attrs: nonlazybind uwtable
define internal void @"_ZN4core3ptr48drop_in_place$LT$alloc..ffi..c_str..NulError$GT$17hd06c3484267b3946E"(%"alloc::ffi::c_str::NulError"* %_1) unnamed_addr #2 !dbg !1106 {
start:
  %_1.dbg.spill = alloca %"alloc::ffi::c_str::NulError"*, align 8
  store %"alloc::ffi::c_str::NulError"* %_1, %"alloc::ffi::c_str::NulError"** %_1.dbg.spill, align 8
  call void @llvm.dbg.declare(metadata %"alloc::ffi::c_str::NulError"** %_1.dbg.spill, metadata !1111, metadata !DIExpression()), !dbg !1114
  %0 = getelementptr inbounds %"alloc::ffi::c_str::NulError", %"alloc::ffi::c_str::NulError"* %_1, i32 0, i32 1, !dbg !1114
; call core::ptr::drop_in_place<alloc::vec::Vec<u8>>
  call void @"_ZN4core3ptr46drop_in_place$LT$alloc..vec..Vec$LT$u8$GT$$GT$17hb51816728a6c9bbcE"(%"alloc::vec::Vec<u8>"* %0), !dbg !1114
  br label %bb1, !dbg !1114

bb1:                                              ; preds = %start
  ret void, !dbg !1114
}

; core::ptr::drop_in_place<items_tests::varargs::vastruct>
; Function Attrs: nonlazybind uwtable
define internal void @"_ZN4core3ptr51drop_in_place$LT$items_tests..varargs..vastruct$GT$17h657f85b8ecbacd36E"(%"varargs::vastruct"* %_1) unnamed_addr #2 !dbg !1115 {
start:
  %_1.dbg.spill = alloca %"varargs::vastruct"*, align 8
  store %"varargs::vastruct"* %_1, %"varargs::vastruct"** %_1.dbg.spill, align 8
  call void @llvm.dbg.declare(metadata %"varargs::vastruct"** %_1.dbg.spill, metadata !1124, metadata !DIExpression()), !dbg !1127
  %0 = bitcast %"varargs::vastruct"* %_1 to %"core::ffi::VaListImpl"*, !dbg !1127
; call core::ptr::drop_in_place<core::ffi::VaListImpl>
  call void @"_ZN4core3ptr42drop_in_place$LT$core..ffi..VaListImpl$GT$17h3a1e24ff022acba3E"(%"core::ffi::VaListImpl"* %0), !dbg !1127
  br label %bb1, !dbg !1127

bb1:                                              ; preds = %start
  ret void, !dbg !1127
}

; core::ptr::drop_in_place<alloc::raw_vec::RawVec<u8>>
; Function Attrs: nonlazybind uwtable
define internal void @"_ZN4core3ptr53drop_in_place$LT$alloc..raw_vec..RawVec$LT$u8$GT$$GT$17ha323cba6f3d73791E"({ i8*, i64 }* %_1) unnamed_addr #2 !dbg !1128 {
start:
  %_1.dbg.spill = alloca { i8*, i64 }*, align 8
  store { i8*, i64 }* %_1, { i8*, i64 }** %_1.dbg.spill, align 8
  call void @llvm.dbg.declare(metadata { i8*, i64 }** %_1.dbg.spill, metadata !1133, metadata !DIExpression()), !dbg !1136
; call <alloc::raw_vec::RawVec<T,A> as core::ops::drop::Drop>::drop
  call void @"_ZN77_$LT$alloc..raw_vec..RawVec$LT$T$C$A$GT$$u20$as$u20$core..ops..drop..Drop$GT$4drop17h1c28ae7813adc08cE"({ i8*, i64 }* align 8 %_1), !dbg !1136
  br label %bb1, !dbg !1136

bb1:                                              ; preds = %start
  ret void, !dbg !1136
}

; core::ptr::drop_in_place<alloc::boxed::Box<[u8]>>
; Function Attrs: nonlazybind uwtable
define internal void @"_ZN4core3ptr58drop_in_place$LT$alloc..boxed..Box$LT$$u5b$u8$u5d$$GT$$GT$17h02185211e6a35737E"({ [0 x i8]*, i64 }* %_1) unnamed_addr #2 personality i32 (i32, i32, i64, %"unwind::libunwind::_Unwind_Exception"*, %"unwind::libunwind::_Unwind_Context"*)* @rust_eh_personality !dbg !1137 {
start:
  %0 = alloca { i8*, i32 }, align 8
  %_1.dbg.spill = alloca { [0 x i8]*, i64 }*, align 8
  store { [0 x i8]*, i64 }* %_1, { [0 x i8]*, i64 }** %_1.dbg.spill, align 8
  call void @llvm.dbg.declare(metadata { [0 x i8]*, i64 }** %_1.dbg.spill, metadata !1142, metadata !DIExpression()), !dbg !1145
  br label %bb3, !dbg !1145

bb3:                                              ; preds = %start
  %1 = bitcast { [0 x i8]*, i64 }* %_1 to { i8*, i64 }*, !dbg !1145
  %2 = getelementptr inbounds { i8*, i64 }, { i8*, i64 }* %1, i32 0, i32 0, !dbg !1145
  %3 = load i8*, i8** %2, align 8, !dbg !1145, !nonnull !23, !noundef !23
  %4 = getelementptr inbounds { i8*, i64 }, { i8*, i64 }* %1, i32 0, i32 1, !dbg !1145
  %5 = load i64, i64* %4, align 8, !dbg !1145
; call alloc::alloc::box_free
  call void @_ZN5alloc5alloc8box_free17hff0ed9975f7a7ec0E(i8* %3, i64 %5), !dbg !1145
  br label %bb1, !dbg !1145

bb4:                                              ; No predecessors!
  %6 = bitcast { [0 x i8]*, i64 }* %_1 to { i8*, i64 }*, !dbg !1145
  %7 = getelementptr inbounds { i8*, i64 }, { i8*, i64 }* %6, i32 0, i32 0, !dbg !1145
  %8 = load i8*, i8** %7, align 8, !dbg !1145, !nonnull !23, !noundef !23
  %9 = getelementptr inbounds { i8*, i64 }, { i8*, i64 }* %6, i32 0, i32 1, !dbg !1145
  %10 = load i64, i64* %9, align 8, !dbg !1145
; invoke alloc::alloc::box_free
  invoke void @_ZN5alloc5alloc8box_free17hff0ed9975f7a7ec0E(i8* %8, i64 %10) #16
          to label %bb2 unwind label %abort, !dbg !1145

abort:                                            ; preds = %bb4
  %11 = landingpad { i8*, i32 }
          cleanup, !dbg !1145
; call core::panicking::panic_no_unwind
  call void @_ZN4core9panicking15panic_no_unwind17h62f8113f44cbfcbfE() #17, !dbg !1145
  unreachable, !dbg !1145

bb2:                                              ; preds = %bb4
  %12 = bitcast { i8*, i32 }* %0 to i8**, !dbg !1145
  %13 = load i8*, i8** %12, align 8, !dbg !1145
  %14 = getelementptr inbounds { i8*, i32 }, { i8*, i32 }* %0, i32 0, i32 1, !dbg !1145
  %15 = load i32, i32* %14, align 8, !dbg !1145
  %16 = insertvalue { i8*, i32 } undef, i8* %13, 0, !dbg !1145
  %17 = insertvalue { i8*, i32 } %16, i32 %15, 1, !dbg !1145
  resume { i8*, i32 } %17, !dbg !1145

bb1:                                              ; preds = %bb3
  ret void, !dbg !1145
}

; core::ptr::drop_in_place<std::rt::lang_start<()>::{{closure}}>
; Function Attrs: inlinehint nonlazybind uwtable
define internal void @"_ZN4core3ptr85drop_in_place$LT$std..rt..lang_start$LT$$LP$$RP$$GT$..$u7b$$u7b$closure$u7d$$u7d$$GT$17h5d703a7dbb78ea20E"(i64** %_1) unnamed_addr #0 !dbg !1146 {
start:
  %_1.dbg.spill = alloca i64**, align 8
  store i64** %_1, i64*** %_1.dbg.spill, align 8
  call void @llvm.dbg.declare(metadata i64*** %_1.dbg.spill, metadata !1150, metadata !DIExpression()), !dbg !1153
  ret void, !dbg !1153
}

; core::str::validations::next_code_point
; Function Attrs: inlinehint nonlazybind uwtable
define internal { i32, i32 } @_ZN4core3str11validations15next_code_point17h648e628bdbab7c31E({ i8*, i8* }* align 8 %bytes) unnamed_addr #0 !dbg !1154 {
start:
  %byte.dbg.spill16 = alloca i8, align 1
  %ch.dbg.spill15 = alloca i32, align 4
  %w.dbg.spill = alloca i8, align 1
  %val.dbg.spill14 = alloca i8*, align 8
  %y_z.dbg.spill = alloca i32, align 4
  %byte.dbg.spill12 = alloca i8, align 1
  %ch.dbg.spill11 = alloca i32, align 4
  %z.dbg.spill = alloca i8, align 1
  %val.dbg.spill9 = alloca i8*, align 8
  %byte.dbg.spill7 = alloca i8, align 1
  %ch.dbg.spill = alloca i32, align 4
  %y.dbg.spill = alloca i8, align 1
  %val.dbg.spill6 = alloca i8*, align 8
  %init.dbg.spill = alloca i32, align 4
  %byte.dbg.spill = alloca i8, align 1
  %x.dbg.spill = alloca i8, align 1
  %val.dbg.spill = alloca i8*, align 8
  %v.dbg.spill = alloca i8*, align 8
  %residual.dbg.spill1 = alloca %"core::option::Option<core::convert::Infallible>::None", align 1
  %residual.dbg.spill = alloca %"core::option::Option<core::convert::Infallible>::None", align 1
  %bytes.dbg.spill = alloca { i8*, i8* }*, align 8
  %self4 = alloca i8*, align 8
  %self3 = alloca i8*, align 8
  %ch = alloca i32, align 4
  %self2 = alloca i8*, align 8
  %self = alloca i8*, align 8
  %_4 = alloca i8*, align 8
  %0 = alloca { i32, i32 }, align 4
  store { i8*, i8* }* %bytes, { i8*, i8* }** %bytes.dbg.spill, align 8
  call void @llvm.dbg.declare(metadata { i8*, i8* }** %bytes.dbg.spill, metadata !1185, metadata !DIExpression()), !dbg !1222
  call void @llvm.dbg.declare(metadata i8** %self, metadata !1223, metadata !DIExpression()), !dbg !1262
  call void @llvm.dbg.declare(metadata %"core::option::Option<core::convert::Infallible>::None"* %residual.dbg.spill, metadata !1188, metadata !DIExpression()), !dbg !1264
  call void @llvm.dbg.declare(metadata %"core::option::Option<core::convert::Infallible>::None"* %residual.dbg.spill1, metadata !1265, metadata !DIExpression()), !dbg !1272
  call void @llvm.dbg.declare(metadata i8** %self2, metadata !1274, metadata !DIExpression()), !dbg !1283
  call void @llvm.dbg.declare(metadata i32* %ch, metadata !1212, metadata !DIExpression()), !dbg !1285
  call void @llvm.dbg.declare(metadata i8** %self3, metadata !1286, metadata !DIExpression()), !dbg !1293
  call void @llvm.dbg.declare(metadata i8** %self4, metadata !1295, metadata !DIExpression()), !dbg !1302
; call <core::slice::iter::Iter<T> as core::iter::traits::iterator::Iterator>::next
  %1 = call align 1 i8* @"_ZN91_$LT$core..slice..iter..Iter$LT$T$GT$$u20$as$u20$core..iter..traits..iterator..Iterator$GT$4next17haa9da4098f8d73adE"({ i8*, i8* }* align 8 %bytes), !dbg !1263
  store i8* %1, i8** %self, align 8, !dbg !1263
  br label %bb1, !dbg !1263

bb1:                                              ; preds = %start
  %2 = bitcast i8** %self to {}**, !dbg !1262
  %3 = load {}*, {}** %2, align 8, !dbg !1262
  %4 = icmp eq {}* %3, null, !dbg !1262
  %_51 = select i1 %4, i64 0, i64 1, !dbg !1262
  switch i64 %_51, label %bb18 [
    i64 0, label %bb17
    i64 1, label %bb19
  ], !dbg !1262

bb18:                                             ; preds = %bb1
  unreachable, !dbg !1262

bb17:                                             ; preds = %bb1
  %5 = bitcast i8** %_4 to {}**, !dbg !1262
  store {}* null, {}** %5, align 8, !dbg !1262
  br label %bb2, !dbg !1262

bb19:                                             ; preds = %bb1
  %v = load i8*, i8** %self, align 8, !dbg !1262, !nonnull !23, !align !891, !noundef !23
  store i8* %v, i8** %v.dbg.spill, align 8, !dbg !1262
  call void @llvm.dbg.declare(metadata i8** %v.dbg.spill, metadata !1259, metadata !DIExpression()), !dbg !1304
  store i8* %v, i8** %_4, align 8, !dbg !1304
  br label %bb2, !dbg !1262

bb2:                                              ; preds = %bb17, %bb19
  %6 = bitcast i8** %_4 to {}**, !dbg !1263
  %7 = load {}*, {}** %6, align 8, !dbg !1263
  %8 = icmp eq {}* %7, null, !dbg !1263
  %_7 = select i1 %8, i64 1, i64 0, !dbg !1263
  switch i64 %_7, label %bb4 [
    i64 0, label %bb3
    i64 1, label %bb5
  ], !dbg !1263

bb4:                                              ; preds = %bb2
  unreachable, !dbg !1263

bb3:                                              ; preds = %bb2
  %val = load i8*, i8** %_4, align 8, !dbg !1263, !nonnull !23, !align !891, !noundef !23
  store i8* %val, i8** %val.dbg.spill, align 8, !dbg !1263
  call void @llvm.dbg.declare(metadata i8** %val.dbg.spill, metadata !1206, metadata !DIExpression()), !dbg !1305
  %x = load i8, i8* %val, align 1, !dbg !1306
  store i8 %x, i8* %x.dbg.spill, align 1, !dbg !1306
  call void @llvm.dbg.declare(metadata i8* %x.dbg.spill, metadata !1186, metadata !DIExpression()), !dbg !1307
  %_11 = icmp ult i8 %x, -128, !dbg !1308
  br i1 %_11, label %bb6, label %bb7, !dbg !1308

bb5:                                              ; preds = %bb2
  %9 = bitcast { i32, i32 }* %0 to i32*, !dbg !1272
  store i32 0, i32* %9, align 4, !dbg !1272
  br label %bb15, !dbg !1309

bb15:                                             ; preds = %bb6, %bb5
  br label %bb16, !dbg !1312

bb7:                                              ; preds = %bb3
  store i8 %x, i8* %byte.dbg.spill, align 1, !dbg !1313
  call void @llvm.dbg.declare(metadata i8* %byte.dbg.spill, metadata !1314, metadata !DIExpression()), !dbg !1320
  %_55 = and i8 %x, 31, !dbg !1320
  %init = zext i8 %_55 to i32, !dbg !1320
  store i32 %init, i32* %init.dbg.spill, align 4, !dbg !1320
  call void @llvm.dbg.declare(metadata i32* %init.dbg.spill, metadata !1208, metadata !DIExpression()), !dbg !1322
; call <core::slice::iter::Iter<T> as core::iter::traits::iterator::Iterator>::next
  %10 = call align 1 i8* @"_ZN91_$LT$core..slice..iter..Iter$LT$T$GT$$u20$as$u20$core..iter..traits..iterator..Iterator$GT$4next17haa9da4098f8d73adE"({ i8*, i8* }* align 8 %bytes), !dbg !1284
  store i8* %10, i8** %self2, align 8, !dbg !1284
  br label %bb8, !dbg !1284

bb6:                                              ; preds = %bb3
  %_13 = zext i8 %x to i32, !dbg !1323
  %11 = getelementptr inbounds { i32, i32 }, { i32, i32 }* %0, i32 0, i32 1, !dbg !1324
  store i32 %_13, i32* %11, align 4, !dbg !1324
  %12 = bitcast { i32, i32 }* %0 to i32*, !dbg !1324
  store i32 1, i32* %12, align 4, !dbg !1324
  br label %bb15, !dbg !1325

bb16:                                             ; preds = %bb14, %bb15
  %13 = getelementptr inbounds { i32, i32 }, { i32, i32 }* %0, i32 0, i32 0, !dbg !1312
  %14 = load i32, i32* %13, align 4, !dbg !1312, !range !1327, !noundef !23
  %15 = getelementptr inbounds { i32, i32 }, { i32, i32 }* %0, i32 0, i32 1, !dbg !1312
  %16 = load i32, i32* %15, align 4, !dbg !1312
  %17 = insertvalue { i32, i32 } undef, i32 %14, 0, !dbg !1312
  %18 = insertvalue { i32, i32 } %17, i32 %16, 1, !dbg !1312
  ret { i32, i32 } %18, !dbg !1312

bb8:                                              ; preds = %bb7
  %19 = bitcast i8** %self2 to {}**, !dbg !1283
  %20 = load {}*, {}** %19, align 8, !dbg !1283
  %21 = icmp eq {}* %20, null, !dbg !1283
  %_59 = select i1 %21, i64 0, i64 1, !dbg !1283
  switch i64 %_59, label %bb21 [
    i64 0, label %bb20
    i64 1, label %bb22
  ], !dbg !1283

bb21:                                             ; preds = %bb8
  unreachable, !dbg !1283

bb20:                                             ; preds = %bb8
  unreachable, !dbg !1328

bb22:                                             ; preds = %bb8
  %val5 = load i8*, i8** %self2, align 8, !dbg !1283, !nonnull !23, !align !891, !noundef !23
  store i8* %val5, i8** %val.dbg.spill6, align 8, !dbg !1283
  call void @llvm.dbg.declare(metadata i8** %val.dbg.spill6, metadata !1280, metadata !DIExpression()), !dbg !1332
  %y = load i8, i8* %val5, align 1, !dbg !1333
  store i8 %y, i8* %y.dbg.spill, align 1, !dbg !1333
  call void @llvm.dbg.declare(metadata i8* %y.dbg.spill, metadata !1210, metadata !DIExpression()), !dbg !1334
  store i32 %init, i32* %ch.dbg.spill, align 4, !dbg !1335
  call void @llvm.dbg.declare(metadata i32* %ch.dbg.spill, metadata !1336, metadata !DIExpression()), !dbg !1342
  store i8 %y, i8* %byte.dbg.spill7, align 1, !dbg !1344
  call void @llvm.dbg.declare(metadata i8* %byte.dbg.spill7, metadata !1341, metadata !DIExpression()), !dbg !1342
  %_60 = shl i32 %init, 6, !dbg !1342
  %_63 = and i8 %y, 63, !dbg !1342
  %_62 = zext i8 %_63 to i32, !dbg !1342
  %22 = or i32 %_60, %_62, !dbg !1342
  store i32 %22, i32* %ch, align 4, !dbg !1342
  %_24 = icmp uge i8 %x, -32, !dbg !1345
  br i1 %_24, label %bb9, label %bb14, !dbg !1345

bb14:                                             ; preds = %bb13, %bb22
  %_50 = load i32, i32* %ch, align 4, !dbg !1346
  %23 = getelementptr inbounds { i32, i32 }, { i32, i32 }* %0, i32 0, i32 1, !dbg !1347
  store i32 %_50, i32* %23, align 4, !dbg !1347
  %24 = bitcast { i32, i32 }* %0 to i32*, !dbg !1347
  store i32 1, i32* %24, align 4, !dbg !1347
  br label %bb16, !dbg !1312

bb9:                                              ; preds = %bb22
; call <core::slice::iter::Iter<T> as core::iter::traits::iterator::Iterator>::next
  %25 = call align 1 i8* @"_ZN91_$LT$core..slice..iter..Iter$LT$T$GT$$u20$as$u20$core..iter..traits..iterator..Iterator$GT$4next17haa9da4098f8d73adE"({ i8*, i8* }* align 8 %bytes), !dbg !1294
  store i8* %25, i8** %self3, align 8, !dbg !1294
  br label %bb10, !dbg !1294

bb10:                                             ; preds = %bb9
  %26 = bitcast i8** %self3 to {}**, !dbg !1293
  %27 = load {}*, {}** %26, align 8, !dbg !1293
  %28 = icmp eq {}* %27, null, !dbg !1293
  %_66 = select i1 %28, i64 0, i64 1, !dbg !1293
  switch i64 %_66, label %bb24 [
    i64 0, label %bb23
    i64 1, label %bb25
  ], !dbg !1293

bb24:                                             ; preds = %bb10
  unreachable, !dbg !1293

bb23:                                             ; preds = %bb10
  unreachable, !dbg !1348

bb25:                                             ; preds = %bb10
  %val8 = load i8*, i8** %self3, align 8, !dbg !1293, !nonnull !23, !align !891, !noundef !23
  store i8* %val8, i8** %val.dbg.spill9, align 8, !dbg !1293
  call void @llvm.dbg.declare(metadata i8** %val.dbg.spill9, metadata !1290, metadata !DIExpression()), !dbg !1352
  %z = load i8, i8* %val8, align 1, !dbg !1353
  store i8 %z, i8* %z.dbg.spill, align 1, !dbg !1353
  call void @llvm.dbg.declare(metadata i8* %z.dbg.spill, metadata !1214, metadata !DIExpression()), !dbg !1354
  %_32 = and i8 %y, 63, !dbg !1355
  %ch10 = zext i8 %_32 to i32, !dbg !1355
  store i32 %ch10, i32* %ch.dbg.spill11, align 4, !dbg !1355
  call void @llvm.dbg.declare(metadata i32* %ch.dbg.spill11, metadata !1356, metadata !DIExpression()), !dbg !1360
  store i8 %z, i8* %byte.dbg.spill12, align 1, !dbg !1362
  call void @llvm.dbg.declare(metadata i8* %byte.dbg.spill12, metadata !1359, metadata !DIExpression()), !dbg !1360
  %_67 = shl i32 %ch10, 6, !dbg !1360
  %_70 = and i8 %z, 63, !dbg !1360
  %_69 = zext i8 %_70 to i32, !dbg !1360
  %y_z = or i32 %_67, %_69, !dbg !1360
  store i32 %y_z, i32* %y_z.dbg.spill, align 4, !dbg !1360
  call void @llvm.dbg.declare(metadata i32* %y_z.dbg.spill, metadata !1216, metadata !DIExpression()), !dbg !1363
  %_35 = shl i32 %init, 12, !dbg !1364
  %29 = or i32 %_35, %y_z, !dbg !1365
  store i32 %29, i32* %ch, align 4, !dbg !1365
  %_38 = icmp uge i8 %x, -16, !dbg !1366
  br i1 %_38, label %bb11, label %bb13, !dbg !1366

bb13:                                             ; preds = %bb28, %bb25
  br label %bb14, !dbg !1367

bb11:                                             ; preds = %bb25
; call <core::slice::iter::Iter<T> as core::iter::traits::iterator::Iterator>::next
  %30 = call align 1 i8* @"_ZN91_$LT$core..slice..iter..Iter$LT$T$GT$$u20$as$u20$core..iter..traits..iterator..Iterator$GT$4next17haa9da4098f8d73adE"({ i8*, i8* }* align 8 %bytes), !dbg !1303
  store i8* %30, i8** %self4, align 8, !dbg !1303
  br label %bb12, !dbg !1303

bb12:                                             ; preds = %bb11
  %31 = bitcast i8** %self4 to {}**, !dbg !1302
  %32 = load {}*, {}** %31, align 8, !dbg !1302
  %33 = icmp eq {}* %32, null, !dbg !1302
  %_73 = select i1 %33, i64 0, i64 1, !dbg !1302
  switch i64 %_73, label %bb27 [
    i64 0, label %bb26
    i64 1, label %bb28
  ], !dbg !1302

bb27:                                             ; preds = %bb12
  unreachable, !dbg !1302

bb26:                                             ; preds = %bb12
  unreachable, !dbg !1368

bb28:                                             ; preds = %bb12
  %val13 = load i8*, i8** %self4, align 8, !dbg !1302, !nonnull !23, !align !891, !noundef !23
  store i8* %val13, i8** %val.dbg.spill14, align 8, !dbg !1302
  call void @llvm.dbg.declare(metadata i8** %val.dbg.spill14, metadata !1299, metadata !DIExpression()), !dbg !1372
  %w = load i8, i8* %val13, align 1, !dbg !1373
  store i8 %w, i8* %w.dbg.spill, align 1, !dbg !1373
  call void @llvm.dbg.declare(metadata i8* %w.dbg.spill, metadata !1218, metadata !DIExpression()), !dbg !1374
  %_45 = and i32 %init, 7, !dbg !1375
  %_44 = shl i32 %_45, 18, !dbg !1375
  store i32 %y_z, i32* %ch.dbg.spill15, align 4, !dbg !1376
  call void @llvm.dbg.declare(metadata i32* %ch.dbg.spill15, metadata !1377, metadata !DIExpression()), !dbg !1381
  store i8 %w, i8* %byte.dbg.spill16, align 1, !dbg !1383
  call void @llvm.dbg.declare(metadata i8* %byte.dbg.spill16, metadata !1380, metadata !DIExpression()), !dbg !1381
  %_74 = shl i32 %y_z, 6, !dbg !1381
  %_77 = and i8 %w, 63, !dbg !1381
  %_76 = zext i8 %_77 to i32, !dbg !1381
  %_47 = or i32 %_74, %_76, !dbg !1381
  %34 = or i32 %_44, %_47, !dbg !1384
  store i32 %34, i32* %ch, align 4, !dbg !1384
  br label %bb13, !dbg !1385
}

; core::str::<impl str>::is_char_boundary
; Function Attrs: inlinehint nonlazybind uwtable
define internal zeroext i1 @"_ZN4core3str21_$LT$impl$u20$str$GT$16is_char_boundary17hbd67d1e56763f3f2E"([0 x i8]* align 1 %self.0, i64 %self.1, i64 %index) unnamed_addr #0 !dbg !1386 {
start:
  %0 = alloca { [0 x i8]*, i64 }, align 8
  %self.dbg.spill6 = alloca { [0 x i8]*, i64 }, align 8
  %self.dbg.spill5 = alloca { [0 x i8]*, i64 }, align 8
  %self.dbg.spill4 = alloca i8, align 1
  %b.dbg.spill = alloca i8, align 1
  %index.dbg.spill3 = alloca i64, align 8
  %self.dbg.spill2 = alloca { [0 x i8]*, i64 }, align 8
  %1 = alloca { [0 x i8]*, i64 }, align 8
  %self.dbg.spill1 = alloca { [0 x i8]*, i64 }, align 8
  %index.dbg.spill = alloca i64, align 8
  %self.dbg.spill = alloca { [0 x i8]*, i64 }, align 8
  %_4 = alloca i8*, align 8
  %2 = alloca i8, align 1
  %3 = getelementptr inbounds { [0 x i8]*, i64 }, { [0 x i8]*, i64 }* %self.dbg.spill, i32 0, i32 0
  store [0 x i8]* %self.0, [0 x i8]** %3, align 8
  %4 = getelementptr inbounds { [0 x i8]*, i64 }, { [0 x i8]*, i64 }* %self.dbg.spill, i32 0, i32 1
  store i64 %self.1, i64* %4, align 8
  call void @llvm.dbg.declare(metadata { [0 x i8]*, i64 }* %self.dbg.spill, metadata !1392, metadata !DIExpression()), !dbg !1396
  store i64 %index, i64* %index.dbg.spill, align 8
  call void @llvm.dbg.declare(metadata i64* %index.dbg.spill, metadata !1393, metadata !DIExpression()), !dbg !1397
  %5 = icmp eq i64 %index, 0, !dbg !1398
  br i1 %5, label %bb1, label %bb2, !dbg !1398

bb1:                                              ; preds = %start
  store i8 1, i8* %2, align 1, !dbg !1399
  br label %bb7, !dbg !1400

bb2:                                              ; preds = %start
  %6 = getelementptr inbounds { [0 x i8]*, i64 }, { [0 x i8]*, i64 }* %self.dbg.spill1, i32 0, i32 0, !dbg !1401
  store [0 x i8]* %self.0, [0 x i8]** %6, align 8, !dbg !1401
  %7 = getelementptr inbounds { [0 x i8]*, i64 }, { [0 x i8]*, i64 }* %self.dbg.spill1, i32 0, i32 1, !dbg !1401
  store i64 %self.1, i64* %7, align 8, !dbg !1401
  call void @llvm.dbg.declare(metadata { [0 x i8]*, i64 }* %self.dbg.spill1, metadata !1402, metadata !DIExpression()), !dbg !1407
  %8 = getelementptr inbounds { [0 x i8]*, i64 }, { [0 x i8]*, i64 }* %1, i32 0, i32 0, !dbg !1407
  store [0 x i8]* %self.0, [0 x i8]** %8, align 8, !dbg !1407
  %9 = getelementptr inbounds { [0 x i8]*, i64 }, { [0 x i8]*, i64 }* %1, i32 0, i32 1, !dbg !1407
  store i64 %self.1, i64* %9, align 8, !dbg !1407
  %10 = getelementptr inbounds { [0 x i8]*, i64 }, { [0 x i8]*, i64 }* %1, i32 0, i32 0, !dbg !1407
  %_6.0 = load [0 x i8]*, [0 x i8]** %10, align 8, !dbg !1407, !nonnull !23, !align !891, !noundef !23
  %11 = getelementptr inbounds { [0 x i8]*, i64 }, { [0 x i8]*, i64 }* %1, i32 0, i32 1, !dbg !1407
  %_6.1 = load i64, i64* %11, align 8, !dbg !1407
  br label %bb8, !dbg !1407

bb8:                                              ; preds = %bb2
  %12 = getelementptr inbounds { [0 x i8]*, i64 }, { [0 x i8]*, i64 }* %self.dbg.spill2, i32 0, i32 0, !dbg !1401
  store [0 x i8]* %_6.0, [0 x i8]** %12, align 8, !dbg !1401
  %13 = getelementptr inbounds { [0 x i8]*, i64 }, { [0 x i8]*, i64 }* %self.dbg.spill2, i32 0, i32 1, !dbg !1401
  store i64 %_6.1, i64* %13, align 8, !dbg !1401
  call void @llvm.dbg.declare(metadata { [0 x i8]*, i64 }* %self.dbg.spill2, metadata !1408, metadata !DIExpression()), !dbg !1417
  store i64 %index, i64* %index.dbg.spill3, align 8, !dbg !1418
  call void @llvm.dbg.declare(metadata i64* %index.dbg.spill3, metadata !1414, metadata !DIExpression()), !dbg !1417
; call <usize as core::slice::index::SliceIndex<[T]>>::get
  %14 = call align 1 i8* @"_ZN75_$LT$usize$u20$as$u20$core..slice..index..SliceIndex$LT$$u5b$T$u5d$$GT$$GT$3get17heeb6b4d4f761f61aE"(i64 %index, [0 x i8]* align 1 %_6.0, i64 %_6.1), !dbg !1417
  store i8* %14, i8** %_4, align 8, !dbg !1417
  br label %bb9, !dbg !1417

bb9:                                              ; preds = %bb8
  %15 = bitcast i8** %_4 to {}**, !dbg !1401
  %16 = load {}*, {}** %15, align 8, !dbg !1401
  %17 = icmp eq {}* %16, null, !dbg !1401
  %_9 = select i1 %17, i64 0, i64 1, !dbg !1401
  switch i64 %_9, label %bb4 [
    i64 0, label %bb5
    i64 1, label %bb3
  ], !dbg !1419

bb4:                                              ; preds = %bb9
  unreachable, !dbg !1401

bb5:                                              ; preds = %bb9
  %18 = getelementptr inbounds { [0 x i8]*, i64 }, { [0 x i8]*, i64 }* %self.dbg.spill5, i32 0, i32 0, !dbg !1420
  store [0 x i8]* %self.0, [0 x i8]** %18, align 8, !dbg !1420
  %19 = getelementptr inbounds { [0 x i8]*, i64 }, { [0 x i8]*, i64 }* %self.dbg.spill5, i32 0, i32 1, !dbg !1420
  store i64 %self.1, i64* %19, align 8, !dbg !1420
  call void @llvm.dbg.declare(metadata { [0 x i8]*, i64 }* %self.dbg.spill5, metadata !1421, metadata !DIExpression()), !dbg !1426
  %20 = getelementptr inbounds { [0 x i8]*, i64 }, { [0 x i8]*, i64 }* %self.dbg.spill6, i32 0, i32 0, !dbg !1426
  store [0 x i8]* %self.0, [0 x i8]** %20, align 8, !dbg !1426
  %21 = getelementptr inbounds { [0 x i8]*, i64 }, { [0 x i8]*, i64 }* %self.dbg.spill6, i32 0, i32 1, !dbg !1426
  store i64 %self.1, i64* %21, align 8, !dbg !1426
  call void @llvm.dbg.declare(metadata { [0 x i8]*, i64 }* %self.dbg.spill6, metadata !1427, metadata !DIExpression()), !dbg !1430
  %22 = getelementptr inbounds { [0 x i8]*, i64 }, { [0 x i8]*, i64 }* %0, i32 0, i32 0, !dbg !1430
  store [0 x i8]* %self.0, [0 x i8]** %22, align 8, !dbg !1430
  %23 = getelementptr inbounds { [0 x i8]*, i64 }, { [0 x i8]*, i64 }* %0, i32 0, i32 1, !dbg !1430
  store i64 %self.1, i64* %23, align 8, !dbg !1430
  %24 = getelementptr inbounds { [0 x i8]*, i64 }, { [0 x i8]*, i64 }* %0, i32 0, i32 0, !dbg !1430
  %_22.0 = load [0 x i8]*, [0 x i8]** %24, align 8, !dbg !1430, !nonnull !23, !align !891, !noundef !23
  %25 = getelementptr inbounds { [0 x i8]*, i64 }, { [0 x i8]*, i64 }* %0, i32 0, i32 1, !dbg !1430
  %_22.1 = load i64, i64* %25, align 8, !dbg !1430
  br label %bb10, !dbg !1430

bb3:                                              ; preds = %bb9
  %_15 = load i8*, i8** %_4, align 8, !dbg !1432, !nonnull !23, !align !891, !noundef !23
  %b = load i8, i8* %_15, align 1, !dbg !1432
  store i8 %b, i8* %b.dbg.spill, align 1, !dbg !1432
  call void @llvm.dbg.declare(metadata i8* %b.dbg.spill, metadata !1394, metadata !DIExpression()), !dbg !1433
  store i8 %b, i8* %self.dbg.spill4, align 1, !dbg !1434
  call void @llvm.dbg.declare(metadata i8* %self.dbg.spill4, metadata !1435, metadata !DIExpression()), !dbg !1443
  %26 = icmp sge i8 %b, -64, !dbg !1443
  %27 = zext i1 %26 to i8, !dbg !1443
  store i8 %27, i8* %2, align 1, !dbg !1443
  br label %bb6, !dbg !1444

bb6:                                              ; preds = %bb10, %bb3
  br label %bb7, !dbg !1400

bb10:                                             ; preds = %bb5
  %28 = icmp eq i64 %index, %_22.1, !dbg !1445
  %29 = zext i1 %28 to i8, !dbg !1445
  store i8 %29, i8* %2, align 1, !dbg !1445
  br label %bb6, !dbg !1446

bb7:                                              ; preds = %bb1, %bb6
  %30 = load i8, i8* %2, align 1, !dbg !1400, !range !505, !noundef !23
  %31 = trunc i8 %30 to i1, !dbg !1400
  ret i1 %31, !dbg !1400
}

; core::str::<impl str>::contains
; Function Attrs: inlinehint nonlazybind uwtable
define internal zeroext i1 @"_ZN4core3str21_$LT$impl$u20$str$GT$8contains17hfeac4b08dc6955fbE"([0 x i8]* align 1 %self.0, i64 %self.1, [0 x i8]* align 1 %pat.0, i64 %pat.1) unnamed_addr #0 !dbg !1447 {
start:
  %pat.dbg.spill = alloca { [0 x i8]*, i64 }, align 8
  %self.dbg.spill = alloca { [0 x i8]*, i64 }, align 8
  %0 = getelementptr inbounds { [0 x i8]*, i64 }, { [0 x i8]*, i64 }* %self.dbg.spill, i32 0, i32 0
  store [0 x i8]* %self.0, [0 x i8]** %0, align 8
  %1 = getelementptr inbounds { [0 x i8]*, i64 }, { [0 x i8]*, i64 }* %self.dbg.spill, i32 0, i32 1
  store i64 %self.1, i64* %1, align 8
  call void @llvm.dbg.declare(metadata { [0 x i8]*, i64 }* %self.dbg.spill, metadata !1451, metadata !DIExpression()), !dbg !1455
  %2 = getelementptr inbounds { [0 x i8]*, i64 }, { [0 x i8]*, i64 }* %pat.dbg.spill, i32 0, i32 0
  store [0 x i8]* %pat.0, [0 x i8]** %2, align 8
  %3 = getelementptr inbounds { [0 x i8]*, i64 }, { [0 x i8]*, i64 }* %pat.dbg.spill, i32 0, i32 1
  store i64 %pat.1, i64* %3, align 8
  call void @llvm.dbg.declare(metadata { [0 x i8]*, i64 }* %pat.dbg.spill, metadata !1452, metadata !DIExpression()), !dbg !1456
; call core::str::pattern::Pattern::is_contained_in
  %4 = call zeroext i1 @_ZN4core3str7pattern7Pattern15is_contained_in17hb3e21f3a96f4b49eE([0 x i8]* align 1 %pat.0, i64 %pat.1, [0 x i8]* align 1 %self.0, i64 %self.1), !dbg !1457
  br label %bb1, !dbg !1457

bb1:                                              ; preds = %start
  ret i1 %4, !dbg !1458
}

; core::str::traits::<impl core::slice::index::SliceIndex<str> for core::ops::range::RangeFrom<usize>>::get_unchecked
; Function Attrs: inlinehint nonlazybind uwtable
define internal { [0 x i8]*, i64 } @"_ZN4core3str6traits112_$LT$impl$u20$core..slice..index..SliceIndex$LT$str$GT$$u20$for$u20$core..ops..range..RangeFrom$LT$usize$GT$$GT$13get_unchecked17h80a97136f9aa87bfE"(i64 %self, [0 x i8]* %slice.0, i64 %slice.1) unnamed_addr #0 !dbg !1459 {
start:
  %metadata.dbg.spill = alloca i64, align 8
  %data_address.dbg.spill = alloca {}*, align 8
  %self.dbg.spill10 = alloca i8*, align 8
  %len.dbg.spill9 = alloca i64, align 8
  %data.dbg.spill = alloca i8*, align 8
  %len.dbg.spill = alloca i64, align 8
  %ptr.dbg.spill8 = alloca { [0 x i8]*, i64 }, align 8
  %self.dbg.spill7 = alloca { [0 x i8]*, i64 }, align 8
  %ptr.dbg.spill = alloca i8*, align 8
  %0 = alloca i8*, align 8
  %count.dbg.spill6 = alloca i64, align 8
  %self.dbg.spill5 = alloca i8*, align 8
  %count.dbg.spill = alloca i64, align 8
  %self.dbg.spill4 = alloca i8*, align 8
  %self.dbg.spill2 = alloca { [0 x i8]*, i64 }, align 8
  %slice.dbg.spill1 = alloca { [0 x i8]*, i64 }, align 8
  %slice.dbg.spill = alloca { [0 x i8]*, i64 }, align 8
  %self.dbg.spill = alloca i64, align 8
  %_30 = alloca { i8*, i64 }, align 8
  %_29 = alloca %"core::ptr::metadata::PtrRepr<[u8]>", align 8
  %_23 = alloca %"core::ptr::metadata::PtrRepr<[u8]>", align 8
  store i64 %self, i64* %self.dbg.spill, align 8
  call void @llvm.dbg.declare(metadata i64* %self.dbg.spill, metadata !1476, metadata !DIExpression()), !dbg !1488
  %1 = getelementptr inbounds { [0 x i8]*, i64 }, { [0 x i8]*, i64 }* %slice.dbg.spill, i32 0, i32 0
  store [0 x i8]* %slice.0, [0 x i8]** %1, align 8
  %2 = getelementptr inbounds { [0 x i8]*, i64 }, { [0 x i8]*, i64 }* %slice.dbg.spill, i32 0, i32 1
  store i64 %slice.1, i64* %2, align 8
  call void @llvm.dbg.declare(metadata { [0 x i8]*, i64 }* %slice.dbg.spill, metadata !1477, metadata !DIExpression()), !dbg !1489
  %3 = getelementptr inbounds { [0 x i8]*, i64 }, { [0 x i8]*, i64 }* %slice.dbg.spill1, i32 0, i32 0, !dbg !1490
  store [0 x i8]* %slice.0, [0 x i8]** %3, align 8, !dbg !1490
  %4 = getelementptr inbounds { [0 x i8]*, i64 }, { [0 x i8]*, i64 }* %slice.dbg.spill1, i32 0, i32 1, !dbg !1490
  store i64 %slice.1, i64* %4, align 8, !dbg !1490
  call void @llvm.dbg.declare(metadata { [0 x i8]*, i64 }* %slice.dbg.spill1, metadata !1478, metadata !DIExpression()), !dbg !1491
  %5 = getelementptr inbounds { [0 x i8]*, i64 }, { [0 x i8]*, i64 }* %self.dbg.spill2, i32 0, i32 0, !dbg !1492
  store [0 x i8]* %slice.0, [0 x i8]** %5, align 8, !dbg !1492
  %6 = getelementptr inbounds { [0 x i8]*, i64 }, { [0 x i8]*, i64 }* %self.dbg.spill2, i32 0, i32 1, !dbg !1492
  store i64 %slice.1, i64* %6, align 8, !dbg !1492
  call void @llvm.dbg.declare(metadata { [0 x i8]*, i64 }* %self.dbg.spill2, metadata !1493, metadata !DIExpression()), !dbg !1502
  %self3 = bitcast [0 x i8]* %slice.0 to i8*, !dbg !1502
  store i8* %self3, i8** %self.dbg.spill4, align 8, !dbg !1502
  call void @llvm.dbg.declare(metadata i8** %self.dbg.spill4, metadata !1503, metadata !DIExpression()), !dbg !1511
  store i64 %self, i64* %count.dbg.spill, align 8, !dbg !1512
  call void @llvm.dbg.declare(metadata i64* %count.dbg.spill, metadata !1510, metadata !DIExpression()), !dbg !1511
  store i8* %self3, i8** %self.dbg.spill5, align 8, !dbg !1511
  call void @llvm.dbg.declare(metadata i8** %self.dbg.spill5, metadata !1513, metadata !DIExpression()), !dbg !1520
  store i64 %self, i64* %count.dbg.spill6, align 8, !dbg !1511
  call void @llvm.dbg.declare(metadata i64* %count.dbg.spill6, metadata !1519, metadata !DIExpression()), !dbg !1520
  %7 = getelementptr inbounds i8, i8* %self3, i64 %self, !dbg !1520
  store i8* %7, i8** %0, align 8, !dbg !1520
  %ptr = load i8*, i8** %0, align 8, !dbg !1520
  store i8* %ptr, i8** %ptr.dbg.spill, align 8, !dbg !1520
  call void @llvm.dbg.declare(metadata i8** %ptr.dbg.spill, metadata !1484, metadata !DIExpression()), !dbg !1522
  br label %bb1, !dbg !1520

bb1:                                              ; preds = %start
  %8 = getelementptr inbounds { [0 x i8]*, i64 }, { [0 x i8]*, i64 }* %self.dbg.spill7, i32 0, i32 0, !dbg !1523
  store [0 x i8]* %slice.0, [0 x i8]** %8, align 8, !dbg !1523
  %9 = getelementptr inbounds { [0 x i8]*, i64 }, { [0 x i8]*, i64 }* %self.dbg.spill7, i32 0, i32 1, !dbg !1523
  store i64 %slice.1, i64* %9, align 8, !dbg !1523
  call void @llvm.dbg.declare(metadata { [0 x i8]*, i64 }* %self.dbg.spill7, metadata !1524, metadata !DIExpression()), !dbg !1530
  %10 = getelementptr inbounds { [0 x i8]*, i64 }, { [0 x i8]*, i64 }* %ptr.dbg.spill8, i32 0, i32 0, !dbg !1530
  store [0 x i8]* %slice.0, [0 x i8]** %10, align 8, !dbg !1530
  %11 = getelementptr inbounds { [0 x i8]*, i64 }, { [0 x i8]*, i64 }* %ptr.dbg.spill8, i32 0, i32 1, !dbg !1530
  store i64 %slice.1, i64* %11, align 8, !dbg !1530
  call void @llvm.dbg.declare(metadata { [0 x i8]*, i64 }* %ptr.dbg.spill8, metadata !1531, metadata !DIExpression()), !dbg !1537
  %12 = bitcast %"core::ptr::metadata::PtrRepr<[u8]>"* %_23 to { [0 x i8]*, i64 }*, !dbg !1537
  %13 = getelementptr inbounds { [0 x i8]*, i64 }, { [0 x i8]*, i64 }* %12, i32 0, i32 0, !dbg !1537
  store [0 x i8]* %slice.0, [0 x i8]** %13, align 8, !dbg !1537
  %14 = getelementptr inbounds { [0 x i8]*, i64 }, { [0 x i8]*, i64 }* %12, i32 0, i32 1, !dbg !1537
  store i64 %slice.1, i64* %14, align 8, !dbg !1537
  %15 = bitcast %"core::ptr::metadata::PtrRepr<[u8]>"* %_23 to { i8*, i64 }*, !dbg !1537
  %16 = getelementptr inbounds { i8*, i64 }, { i8*, i64 }* %15, i32 0, i32 1, !dbg !1537
  %_10 = load i64, i64* %16, align 8, !dbg !1537
  %len = sub i64 %_10, %self, !dbg !1523
  store i64 %len, i64* %len.dbg.spill, align 8, !dbg !1523
  call void @llvm.dbg.declare(metadata i64* %len.dbg.spill, metadata !1486, metadata !DIExpression()), !dbg !1539
  store i8* %ptr, i8** %data.dbg.spill, align 8, !dbg !1540
  call void @llvm.dbg.declare(metadata i8** %data.dbg.spill, metadata !1541, metadata !DIExpression()), !dbg !1548
  store i64 %len, i64* %len.dbg.spill9, align 8, !dbg !1550
  call void @llvm.dbg.declare(metadata i64* %len.dbg.spill9, metadata !1547, metadata !DIExpression()), !dbg !1548
  store i8* %ptr, i8** %self.dbg.spill10, align 8, !dbg !1548
  call void @llvm.dbg.declare(metadata i8** %self.dbg.spill10, metadata !1551, metadata !DIExpression()), !dbg !1559
  %data_address = bitcast i8* %ptr to {}*, !dbg !1559
  store {}* %data_address, {}** %data_address.dbg.spill, align 8, !dbg !1559
  call void @llvm.dbg.declare(metadata {}** %data_address.dbg.spill, metadata !1561, metadata !DIExpression()), !dbg !1568
  store i64 %len, i64* %metadata.dbg.spill, align 8, !dbg !1548
  call void @llvm.dbg.declare(metadata i64* %metadata.dbg.spill, metadata !1567, metadata !DIExpression()), !dbg !1568
  %17 = bitcast { i8*, i64 }* %_30 to {}**, !dbg !1568
  store {}* %data_address, {}** %17, align 8, !dbg !1568
  %18 = getelementptr inbounds { i8*, i64 }, { i8*, i64 }* %_30, i32 0, i32 1, !dbg !1568
  store i64 %len, i64* %18, align 8, !dbg !1568
  %19 = bitcast %"core::ptr::metadata::PtrRepr<[u8]>"* %_29 to { i8*, i64 }*, !dbg !1568
  %20 = getelementptr inbounds { i8*, i64 }, { i8*, i64 }* %_30, i32 0, i32 0, !dbg !1568
  %21 = load i8*, i8** %20, align 8, !dbg !1568
  %22 = getelementptr inbounds { i8*, i64 }, { i8*, i64 }* %_30, i32 0, i32 1, !dbg !1568
  %23 = load i64, i64* %22, align 8, !dbg !1568
  %24 = getelementptr inbounds { i8*, i64 }, { i8*, i64 }* %19, i32 0, i32 0, !dbg !1568
  store i8* %21, i8** %24, align 8, !dbg !1568
  %25 = getelementptr inbounds { i8*, i64 }, { i8*, i64 }* %19, i32 0, i32 1, !dbg !1568
  store i64 %23, i64* %25, align 8, !dbg !1568
  %26 = bitcast %"core::ptr::metadata::PtrRepr<[u8]>"* %_29 to { [0 x i8]*, i64 }*, !dbg !1568
  %27 = getelementptr inbounds { [0 x i8]*, i64 }, { [0 x i8]*, i64 }* %26, i32 0, i32 0, !dbg !1568
  %_13.0 = load [0 x i8]*, [0 x i8]** %27, align 8, !dbg !1568
  %28 = getelementptr inbounds { [0 x i8]*, i64 }, { [0 x i8]*, i64 }* %26, i32 0, i32 1, !dbg !1568
  %_13.1 = load i64, i64* %28, align 8, !dbg !1568
  %29 = insertvalue { [0 x i8]*, i64 } undef, [0 x i8]* %_13.0, 0, !dbg !1570
  %30 = insertvalue { [0 x i8]*, i64 } %29, i64 %_13.1, 1, !dbg !1570
  ret { [0 x i8]*, i64 } %30, !dbg !1570
}

; core::str::traits::<impl core::slice::index::SliceIndex<str> for core::ops::range::RangeFrom<usize>>::get
; Function Attrs: inlinehint nonlazybind uwtable
define internal { i8*, i64 } @"_ZN4core3str6traits112_$LT$impl$u20$core..slice..index..SliceIndex$LT$str$GT$$u20$for$u20$core..ops..range..RangeFrom$LT$usize$GT$$GT$3get17hbcbfc7b531f185c4E"(i64 %self, [0 x i8]* align 1 %slice.0, i64 %slice.1) unnamed_addr #0 !dbg !1571 {
start:
  %slice.dbg.spill = alloca { [0 x i8]*, i64 }, align 8
  %self.dbg.spill = alloca i64, align 8
  %0 = alloca { i8*, i64 }, align 8
  store i64 %self, i64* %self.dbg.spill, align 8
  call void @llvm.dbg.declare(metadata i64* %self.dbg.spill, metadata !1588, metadata !DIExpression()), !dbg !1590
  %1 = getelementptr inbounds { [0 x i8]*, i64 }, { [0 x i8]*, i64 }* %slice.dbg.spill, i32 0, i32 0
  store [0 x i8]* %slice.0, [0 x i8]** %1, align 8
  %2 = getelementptr inbounds { [0 x i8]*, i64 }, { [0 x i8]*, i64 }* %slice.dbg.spill, i32 0, i32 1
  store i64 %slice.1, i64* %2, align 8
  call void @llvm.dbg.declare(metadata { [0 x i8]*, i64 }* %slice.dbg.spill, metadata !1589, metadata !DIExpression()), !dbg !1591
; call core::str::<impl str>::is_char_boundary
  %_3 = call zeroext i1 @"_ZN4core3str21_$LT$impl$u20$str$GT$16is_char_boundary17hbd67d1e56763f3f2E"([0 x i8]* align 1 %slice.0, i64 %slice.1, i64 %self), !dbg !1592
  br label %bb1, !dbg !1592

bb1:                                              ; preds = %start
  br i1 %_3, label %bb2, label %bb4, !dbg !1592

bb4:                                              ; preds = %bb1
  %3 = bitcast { i8*, i64 }* %0 to {}**, !dbg !1593
  store {}* null, {}** %3, align 8, !dbg !1593
  br label %bb5, !dbg !1594

bb2:                                              ; preds = %bb1
; call core::str::traits::<impl core::slice::index::SliceIndex<str> for core::ops::range::RangeFrom<usize>>::get_unchecked
  %4 = call { [0 x i8]*, i64 } @"_ZN4core3str6traits112_$LT$impl$u20$core..slice..index..SliceIndex$LT$str$GT$$u20$for$u20$core..ops..range..RangeFrom$LT$usize$GT$$GT$13get_unchecked17h80a97136f9aa87bfE"(i64 %self, [0 x i8]* %slice.0, i64 %slice.1), !dbg !1595
  %_8.0 = extractvalue { [0 x i8]*, i64 } %4, 0, !dbg !1595
  %_8.1 = extractvalue { [0 x i8]*, i64 } %4, 1, !dbg !1595
  br label %bb3, !dbg !1595

bb3:                                              ; preds = %bb2
  %5 = bitcast { i8*, i64 }* %0 to { [0 x i8]*, i64 }*, !dbg !1596
  %6 = getelementptr inbounds { [0 x i8]*, i64 }, { [0 x i8]*, i64 }* %5, i32 0, i32 0, !dbg !1596
  store [0 x i8]* %_8.0, [0 x i8]** %6, align 8, !dbg !1596
  %7 = getelementptr inbounds { [0 x i8]*, i64 }, { [0 x i8]*, i64 }* %5, i32 0, i32 1, !dbg !1596
  store i64 %_8.1, i64* %7, align 8, !dbg !1596
  br label %bb5, !dbg !1594

bb5:                                              ; preds = %bb4, %bb3
  %8 = getelementptr inbounds { i8*, i64 }, { i8*, i64 }* %0, i32 0, i32 0, !dbg !1597
  %9 = load i8*, i8** %8, align 8, !dbg !1597, !align !891
  %10 = getelementptr inbounds { i8*, i64 }, { i8*, i64 }* %0, i32 0, i32 1, !dbg !1597
  %11 = load i64, i64* %10, align 8, !dbg !1597
  %12 = insertvalue { i8*, i64 } undef, i8* %9, 0, !dbg !1597
  %13 = insertvalue { i8*, i64 } %12, i64 %11, 1, !dbg !1597
  ret { i8*, i64 } %13, !dbg !1597
}

; core::str::traits::<impl core::slice::index::SliceIndex<str> for core::ops::range::RangeFrom<usize>>::index
; Function Attrs: inlinehint nonlazybind uwtable
define internal { [0 x i8]*, i64 } @"_ZN4core3str6traits112_$LT$impl$u20$core..slice..index..SliceIndex$LT$str$GT$$u20$for$u20$core..ops..range..RangeFrom$LT$usize$GT$$GT$5index17h97f66a9983957c89E"(i64 %self, [0 x i8]* align 1 %slice.0, i64 %slice.1, %"core::panic::location::Location"* align 8 %0) unnamed_addr #0 !dbg !1598 {
start:
  %s.dbg.spill = alloca { [0 x i8]*, i64 }, align 8
  %end.dbg.spill = alloca i64, align 8
  %start.dbg.spill = alloca i64, align 8
  %1 = alloca { [0 x i8]*, i64 }, align 8
  %self.dbg.spill2 = alloca { [0 x i8]*, i64 }, align 8
  %self.dbg.spill1 = alloca { [0 x i8]*, i64 }, align 8
  %slice.dbg.spill = alloca { [0 x i8]*, i64 }, align 8
  %self.dbg.spill = alloca i64, align 8
  %_9 = alloca { i8*, i64 }, align 8
  %_5 = alloca { i64, i64 }, align 8
  store i64 %self, i64* %self.dbg.spill, align 8
  call void @llvm.dbg.declare(metadata i64* %self.dbg.spill, metadata !1602, metadata !DIExpression()), !dbg !1609
  %2 = getelementptr inbounds { [0 x i8]*, i64 }, { [0 x i8]*, i64 }* %slice.dbg.spill, i32 0, i32 0
  store [0 x i8]* %slice.0, [0 x i8]** %2, align 8
  %3 = getelementptr inbounds { [0 x i8]*, i64 }, { [0 x i8]*, i64 }* %slice.dbg.spill, i32 0, i32 1
  store i64 %slice.1, i64* %3, align 8
  call void @llvm.dbg.declare(metadata { [0 x i8]*, i64 }* %slice.dbg.spill, metadata !1603, metadata !DIExpression()), !dbg !1610
  %4 = getelementptr inbounds { [0 x i8]*, i64 }, { [0 x i8]*, i64 }* %self.dbg.spill1, i32 0, i32 0, !dbg !1611
  store [0 x i8]* %slice.0, [0 x i8]** %4, align 8, !dbg !1611
  %5 = getelementptr inbounds { [0 x i8]*, i64 }, { [0 x i8]*, i64 }* %self.dbg.spill1, i32 0, i32 1, !dbg !1611
  store i64 %slice.1, i64* %5, align 8, !dbg !1611
  call void @llvm.dbg.declare(metadata { [0 x i8]*, i64 }* %self.dbg.spill1, metadata !1612, metadata !DIExpression()), !dbg !1616
  %6 = getelementptr inbounds { [0 x i8]*, i64 }, { [0 x i8]*, i64 }* %self.dbg.spill2, i32 0, i32 0, !dbg !1616
  store [0 x i8]* %slice.0, [0 x i8]** %6, align 8, !dbg !1616
  %7 = getelementptr inbounds { [0 x i8]*, i64 }, { [0 x i8]*, i64 }* %self.dbg.spill2, i32 0, i32 1, !dbg !1616
  store i64 %slice.1, i64* %7, align 8, !dbg !1616
  call void @llvm.dbg.declare(metadata { [0 x i8]*, i64 }* %self.dbg.spill2, metadata !1617, metadata !DIExpression()), !dbg !1621
  %8 = getelementptr inbounds { [0 x i8]*, i64 }, { [0 x i8]*, i64 }* %1, i32 0, i32 0, !dbg !1621
  store [0 x i8]* %slice.0, [0 x i8]** %8, align 8, !dbg !1621
  %9 = getelementptr inbounds { [0 x i8]*, i64 }, { [0 x i8]*, i64 }* %1, i32 0, i32 1, !dbg !1621
  store i64 %slice.1, i64* %9, align 8, !dbg !1621
  %10 = getelementptr inbounds { [0 x i8]*, i64 }, { [0 x i8]*, i64 }* %1, i32 0, i32 0, !dbg !1621
  %_18.0 = load [0 x i8]*, [0 x i8]** %10, align 8, !dbg !1621, !nonnull !23, !align !891, !noundef !23
  %11 = getelementptr inbounds { [0 x i8]*, i64 }, { [0 x i8]*, i64 }* %1, i32 0, i32 1, !dbg !1621
  %_18.1 = load i64, i64* %11, align 8, !dbg !1621
  br label %bb5, !dbg !1621

bb5:                                              ; preds = %start
  %12 = bitcast { i64, i64 }* %_5 to i64*, !dbg !1623
  store i64 %self, i64* %12, align 8, !dbg !1623
  %13 = getelementptr inbounds { i64, i64 }, { i64, i64 }* %_5, i32 0, i32 1, !dbg !1623
  store i64 %_18.1, i64* %13, align 8, !dbg !1623
  %14 = bitcast { i64, i64 }* %_5 to i64*, !dbg !1624
  %start3 = load i64, i64* %14, align 8, !dbg !1624
  store i64 %start3, i64* %start.dbg.spill, align 8, !dbg !1624
  call void @llvm.dbg.declare(metadata i64* %start.dbg.spill, metadata !1604, metadata !DIExpression()), !dbg !1625
  %15 = getelementptr inbounds { i64, i64 }, { i64, i64 }* %_5, i32 0, i32 1, !dbg !1626
  %end = load i64, i64* %15, align 8, !dbg !1626
  store i64 %end, i64* %end.dbg.spill, align 8, !dbg !1626
  call void @llvm.dbg.declare(metadata i64* %end.dbg.spill, metadata !1606, metadata !DIExpression()), !dbg !1627
; call core::str::traits::<impl core::slice::index::SliceIndex<str> for core::ops::range::RangeFrom<usize>>::get
  %16 = call { i8*, i64 } @"_ZN4core3str6traits112_$LT$impl$u20$core..slice..index..SliceIndex$LT$str$GT$$u20$for$u20$core..ops..range..RangeFrom$LT$usize$GT$$GT$3get17hbcbfc7b531f185c4E"(i64 %self, [0 x i8]* align 1 %slice.0, i64 %slice.1), !dbg !1628
  store { i8*, i64 } %16, { i8*, i64 }* %_9, align 8, !dbg !1628
  br label %bb1, !dbg !1628

bb1:                                              ; preds = %bb5
  %17 = bitcast { i8*, i64 }* %_9 to {}**, !dbg !1628
  %18 = load {}*, {}** %17, align 8, !dbg !1628
  %19 = icmp eq {}* %18, null, !dbg !1628
  %_12 = select i1 %19, i64 0, i64 1, !dbg !1628
  switch i64 %_12, label %bb3 [
    i64 0, label %bb2
    i64 1, label %bb4
  ], !dbg !1629

bb3:                                              ; preds = %bb1
  unreachable, !dbg !1628

bb2:                                              ; preds = %bb1
; call core::str::slice_error_fail
  call void @_ZN4core3str16slice_error_fail17h062f63050b85fc0cE([0 x i8]* align 1 %slice.0, i64 %slice.1, i64 %start3, i64 %end, %"core::panic::location::Location"* align 8 %0) #15, !dbg !1630
  unreachable, !dbg !1630

bb4:                                              ; preds = %bb1
  %20 = bitcast { i8*, i64 }* %_9 to { [0 x i8]*, i64 }*, !dbg !1631
  %21 = getelementptr inbounds { [0 x i8]*, i64 }, { [0 x i8]*, i64 }* %20, i32 0, i32 0, !dbg !1631
  %s.0 = load [0 x i8]*, [0 x i8]** %21, align 8, !dbg !1631, !nonnull !23, !align !891, !noundef !23
  %22 = getelementptr inbounds { [0 x i8]*, i64 }, { [0 x i8]*, i64 }* %20, i32 0, i32 1, !dbg !1631
  %s.1 = load i64, i64* %22, align 8, !dbg !1631
  %23 = getelementptr inbounds { [0 x i8]*, i64 }, { [0 x i8]*, i64 }* %s.dbg.spill, i32 0, i32 0, !dbg !1631
  store [0 x i8]* %s.0, [0 x i8]** %23, align 8, !dbg !1631
  %24 = getelementptr inbounds { [0 x i8]*, i64 }, { [0 x i8]*, i64 }* %s.dbg.spill, i32 0, i32 1, !dbg !1631
  store i64 %s.1, i64* %24, align 8, !dbg !1631
  call void @llvm.dbg.declare(metadata { [0 x i8]*, i64 }* %s.dbg.spill, metadata !1607, metadata !DIExpression()), !dbg !1632
  %25 = insertvalue { [0 x i8]*, i64 } undef, [0 x i8]* %s.0, 0, !dbg !1633
  %26 = insertvalue { [0 x i8]*, i64 } %25, i64 %s.1, 1, !dbg !1633
  ret { [0 x i8]*, i64 } %26, !dbg !1633
}

; core::str::pattern::TwoWaySearcher::next
; Function Attrs: inlinehint nonlazybind uwtable
define internal void @_ZN4core3str7pattern14TwoWaySearcher4next17h6962a7f9d502e88aE(%"core::option::Option<(usize, usize)>"* sret(%"core::option::Option<(usize, usize)>") %0, %"core::str::pattern::TwoWaySearcher"* align 8 %self, [0 x i8]* align 1 %haystack.0, i64 %haystack.1, [0 x i8]* align 1 %needle.0, i64 %needle.1, i1 zeroext %long_period) unnamed_addr #0 !dbg !1634 {
start:
  %match_pos.dbg.spill = alloca i64, align 8
  %i.dbg.spill14 = alloca i64, align 8
  %self.dbg.spill12 = alloca { i64, i64 }*, align 8
  %self.dbg.spill11 = alloca { i64, i64 }*, align 8
  %self.dbg.spill10 = alloca { i64, i64 }, align 8
  %i.dbg.spill = alloca i64, align 8
  %self.dbg.spill8 = alloca { i64, i64 }*, align 8
  %v2.dbg.spill = alloca i64, align 8
  %v1.dbg.spill = alloca i64, align 8
  %byte.dbg.spill = alloca i8, align 1
  %self.dbg.spill7 = alloca %"core::str::pattern::TwoWaySearcher"*, align 8
  %tail_byte.dbg.spill = alloca i8, align 1
  %b.dbg.spill = alloca i8, align 1
  %index.dbg.spill = alloca i64, align 8
  %self.dbg.spill6 = alloca { [0 x i8]*, i64 }, align 8
  %needle_last.dbg.spill = alloca i64, align 8
  %old_pos.dbg.spill = alloca i64, align 8
  %long_period.dbg.spill = alloca i8, align 1
  %needle.dbg.spill = alloca { [0 x i8]*, i64 }, align 8
  %haystack.dbg.spill = alloca { [0 x i8]*, i64 }, align 8
  %self.dbg.spill = alloca %"core::str::pattern::TwoWaySearcher"*, align 8
  %_76 = alloca { i64, i64 }, align 8
  %iter5 = alloca { i64, i64 }, align 8
  %self4 = alloca { i64, i64 }, align 8
  %start3 = alloca i64, align 8
  %_46 = alloca { i64, i64 }, align 8
  %iter = alloca { i64, i64 }, align 8
  %self2 = alloca { i64, i64 }, align 8
  %start1 = alloca i64, align 8
  %_21 = alloca i8, align 1
  %_10 = alloca i8*, align 8
  store %"core::str::pattern::TwoWaySearcher"* %self, %"core::str::pattern::TwoWaySearcher"** %self.dbg.spill, align 8
  call void @llvm.dbg.declare(metadata %"core::str::pattern::TwoWaySearcher"** %self.dbg.spill, metadata !1668, metadata !DIExpression()), !dbg !1710
  %1 = getelementptr inbounds { [0 x i8]*, i64 }, { [0 x i8]*, i64 }* %haystack.dbg.spill, i32 0, i32 0
  store [0 x i8]* %haystack.0, [0 x i8]** %1, align 8
  %2 = getelementptr inbounds { [0 x i8]*, i64 }, { [0 x i8]*, i64 }* %haystack.dbg.spill, i32 0, i32 1
  store i64 %haystack.1, i64* %2, align 8
  call void @llvm.dbg.declare(metadata { [0 x i8]*, i64 }* %haystack.dbg.spill, metadata !1669, metadata !DIExpression()), !dbg !1711
  %3 = getelementptr inbounds { [0 x i8]*, i64 }, { [0 x i8]*, i64 }* %needle.dbg.spill, i32 0, i32 0
  store [0 x i8]* %needle.0, [0 x i8]** %3, align 8
  %4 = getelementptr inbounds { [0 x i8]*, i64 }, { [0 x i8]*, i64 }* %needle.dbg.spill, i32 0, i32 1
  store i64 %needle.1, i64* %4, align 8
  call void @llvm.dbg.declare(metadata { [0 x i8]*, i64 }* %needle.dbg.spill, metadata !1670, metadata !DIExpression()), !dbg !1712
  %5 = zext i1 %long_period to i8
  store i8 %5, i8* %long_period.dbg.spill, align 1
  call void @llvm.dbg.declare(metadata i8* %long_period.dbg.spill, metadata !1671, metadata !DIExpression()), !dbg !1713
  call void @llvm.dbg.declare(metadata i64* %start1, metadata !1680, metadata !DIExpression()), !dbg !1714
  call void @llvm.dbg.declare(metadata { i64, i64 }* %self2, metadata !1715, metadata !DIExpression()), !dbg !1727
  call void @llvm.dbg.declare(metadata { i64, i64 }* %iter, metadata !1682, metadata !DIExpression()), !dbg !1729
  call void @llvm.dbg.declare(metadata i64* %start3, metadata !1690, metadata !DIExpression()), !dbg !1730
  call void @llvm.dbg.declare(metadata { i64, i64 }* %self4, metadata !1731, metadata !DIExpression()), !dbg !1742
  call void @llvm.dbg.declare(metadata { i64, i64 }* %iter5, metadata !1692, metadata !DIExpression()), !dbg !1744
  %6 = getelementptr inbounds %"core::str::pattern::TwoWaySearcher", %"core::str::pattern::TwoWaySearcher"* %self, i32 0, i32 4, !dbg !1745
  %old_pos = load i64, i64* %6, align 8, !dbg !1745
  store i64 %old_pos, i64* %old_pos.dbg.spill, align 8, !dbg !1745
  call void @llvm.dbg.declare(metadata i64* %old_pos.dbg.spill, metadata !1672, metadata !DIExpression()), !dbg !1746
  %needle_last = sub i64 %needle.1, 1, !dbg !1747
  store i64 %needle_last, i64* %needle_last.dbg.spill, align 8, !dbg !1747
  call void @llvm.dbg.declare(metadata i64* %needle_last.dbg.spill, metadata !1674, metadata !DIExpression()), !dbg !1748
  br label %bb1, !dbg !1749

bb1:                                              ; preds = %bb47, %start
  %7 = getelementptr inbounds { [0 x i8]*, i64 }, { [0 x i8]*, i64 }* %self.dbg.spill6, i32 0, i32 0, !dbg !1750
  store [0 x i8]* %haystack.0, [0 x i8]** %7, align 8, !dbg !1750
  %8 = getelementptr inbounds { [0 x i8]*, i64 }, { [0 x i8]*, i64 }* %self.dbg.spill6, i32 0, i32 1, !dbg !1750
  store i64 %haystack.1, i64* %8, align 8, !dbg !1750
  call void @llvm.dbg.declare(metadata { [0 x i8]*, i64 }* %self.dbg.spill6, metadata !1751, metadata !DIExpression()), !dbg !1756
  %9 = getelementptr inbounds %"core::str::pattern::TwoWaySearcher", %"core::str::pattern::TwoWaySearcher"* %self, i32 0, i32 4, !dbg !1757
  %_13 = load i64, i64* %9, align 8, !dbg !1757
  %index = add i64 %_13, %needle_last, !dbg !1757
  store i64 %index, i64* %index.dbg.spill, align 8, !dbg !1757
  call void @llvm.dbg.declare(metadata i64* %index.dbg.spill, metadata !1755, metadata !DIExpression()), !dbg !1756
; call <usize as core::slice::index::SliceIndex<[T]>>::get
  %10 = call align 1 i8* @"_ZN75_$LT$usize$u20$as$u20$core..slice..index..SliceIndex$LT$$u5b$T$u5d$$GT$$GT$3get17heeb6b4d4f761f61aE"(i64 %index, [0 x i8]* align 1 %haystack.0, i64 %haystack.1), !dbg !1756
  store i8* %10, i8** %_10, align 8, !dbg !1756
  br label %bb49, !dbg !1756

bb49:                                             ; preds = %bb1
  %11 = bitcast i8** %_10 to {}**, !dbg !1750
  %12 = load {}*, {}** %11, align 8, !dbg !1750
  %13 = icmp eq {}* %12, null, !dbg !1750
  %_15 = select i1 %13, i64 0, i64 1, !dbg !1750
  switch i64 %_15, label %bb3 [
    i64 0, label %bb2
    i64 1, label %bb4
  ], !dbg !1758

bb3:                                              ; preds = %bb49
  unreachable, !dbg !1750

bb2:                                              ; preds = %bb49
  %14 = getelementptr inbounds %"core::str::pattern::TwoWaySearcher", %"core::str::pattern::TwoWaySearcher"* %self, i32 0, i32 4, !dbg !1759
  store i64 %haystack.1, i64* %14, align 8, !dbg !1759
  %15 = getelementptr inbounds %"core::str::pattern::TwoWaySearcher", %"core::str::pattern::TwoWaySearcher"* %self, i32 0, i32 4, !dbg !1760
  %_20 = load i64, i64* %15, align 8, !dbg !1760
; call <core::str::pattern::MatchOnly as core::str::pattern::TwoWayStrategy>::rejecting
  call void @"_ZN84_$LT$core..str..pattern..MatchOnly$u20$as$u20$core..str..pattern..TwoWayStrategy$GT$9rejecting17hda9f75ab38cb40d1E"(%"core::option::Option<(usize, usize)>"* sret(%"core::option::Option<(usize, usize)>") %0, i64 %old_pos, i64 %_20), !dbg !1761
  br label %bb5, !dbg !1761

bb4:                                              ; preds = %bb49
  %_108 = load i8*, i8** %_10, align 8, !dbg !1762, !nonnull !23, !align !891, !noundef !23
  %b = load i8, i8* %_108, align 1, !dbg !1762
  store i8 %b, i8* %b.dbg.spill, align 1, !dbg !1762
  call void @llvm.dbg.declare(metadata i8* %b.dbg.spill, metadata !1678, metadata !DIExpression()), !dbg !1763
  store i8 %b, i8* %tail_byte.dbg.spill, align 1, !dbg !1764
  call void @llvm.dbg.declare(metadata i8* %tail_byte.dbg.spill, metadata !1676, metadata !DIExpression()), !dbg !1765
; call <core::str::pattern::MatchOnly as core::str::pattern::TwoWayStrategy>::use_early_reject
  %_22 = call zeroext i1 @"_ZN84_$LT$core..str..pattern..MatchOnly$u20$as$u20$core..str..pattern..TwoWayStrategy$GT$16use_early_reject17hb52141c99a9bb598E"(), !dbg !1766
  br label %bb9, !dbg !1766

bb9:                                              ; preds = %bb4
  br i1 %_22, label %bb7, label %bb6, !dbg !1766

bb6:                                              ; preds = %bb9
  store i8 0, i8* %_21, align 1, !dbg !1766
  br label %bb8, !dbg !1766

bb7:                                              ; preds = %bb9
  %16 = getelementptr inbounds %"core::str::pattern::TwoWaySearcher", %"core::str::pattern::TwoWaySearcher"* %self, i32 0, i32 4, !dbg !1767
  %_25 = load i64, i64* %16, align 8, !dbg !1767
  %_23 = icmp ne i64 %old_pos, %_25, !dbg !1768
  %17 = zext i1 %_23 to i8, !dbg !1766
  store i8 %17, i8* %_21, align 1, !dbg !1766
  br label %bb8, !dbg !1766

bb8:                                              ; preds = %bb6, %bb7
  %18 = load i8, i8* %_21, align 1, !dbg !1766, !range !505, !noundef !23
  %19 = trunc i8 %18 to i1, !dbg !1766
  br i1 %19, label %bb10, label %bb12, !dbg !1766

bb12:                                             ; preds = %bb8
  store %"core::str::pattern::TwoWaySearcher"* %self, %"core::str::pattern::TwoWaySearcher"** %self.dbg.spill7, align 8, !dbg !1769
  call void @llvm.dbg.declare(metadata %"core::str::pattern::TwoWaySearcher"** %self.dbg.spill7, metadata !1770, metadata !DIExpression()), !dbg !1777
  store i8 %b, i8* %byte.dbg.spill, align 1, !dbg !1778
  call void @llvm.dbg.declare(metadata i8* %byte.dbg.spill, metadata !1776, metadata !DIExpression()), !dbg !1777
  %20 = getelementptr inbounds %"core::str::pattern::TwoWaySearcher", %"core::str::pattern::TwoWaySearcher"* %self, i32 0, i32 3, !dbg !1777
  %_113 = load i64, i64* %20, align 8, !dbg !1777
  %_115 = and i8 %b, 63, !dbg !1777
  %_114 = zext i8 %_115 to i64, !dbg !1777
  %21 = and i64 %_114, 63, !dbg !1777
  %_112 = lshr i64 %_113, %21, !dbg !1777
  %_111 = and i64 %_112, 1, !dbg !1777
  %_29 = icmp ne i64 %_111, 0, !dbg !1777
  %_28 = xor i1 %_29, true, !dbg !1779
  br i1 %_28, label %bb13, label %bb16, !dbg !1779

bb10:                                             ; preds = %bb8
  %22 = getelementptr inbounds %"core::str::pattern::TwoWaySearcher", %"core::str::pattern::TwoWaySearcher"* %self, i32 0, i32 4, !dbg !1780
  %_27 = load i64, i64* %22, align 8, !dbg !1780
; call <core::str::pattern::MatchOnly as core::str::pattern::TwoWayStrategy>::rejecting
  call void @"_ZN84_$LT$core..str..pattern..MatchOnly$u20$as$u20$core..str..pattern..TwoWayStrategy$GT$9rejecting17hda9f75ab38cb40d1E"(%"core::option::Option<(usize, usize)>"* sret(%"core::option::Option<(usize, usize)>") %0, i64 %old_pos, i64 %_27), !dbg !1781
  br label %bb11, !dbg !1781

bb11:                                             ; preds = %bb10
  br label %bb48, !dbg !1782

bb48:                                             ; preds = %bb5, %bb45, %bb11
  ret void, !dbg !1784

bb16:                                             ; preds = %bb12
  br i1 %long_period, label %bb17, label %bb18, !dbg !1785

bb13:                                             ; preds = %bb12
  %23 = getelementptr inbounds %"core::str::pattern::TwoWaySearcher", %"core::str::pattern::TwoWaySearcher"* %self, i32 0, i32 4, !dbg !1786
  %24 = getelementptr inbounds %"core::str::pattern::TwoWaySearcher", %"core::str::pattern::TwoWaySearcher"* %self, i32 0, i32 4, !dbg !1786
  %25 = load i64, i64* %24, align 8, !dbg !1786
  %26 = add i64 %25, %needle.1, !dbg !1786
  store i64 %26, i64* %23, align 8, !dbg !1786
  %_34 = xor i1 %long_period, true, !dbg !1787
  br i1 %_34, label %bb14, label %bb15, !dbg !1787

bb15:                                             ; preds = %bb14, %bb13
  br label %bb47, !dbg !1782

bb14:                                             ; preds = %bb13
  %27 = getelementptr inbounds %"core::str::pattern::TwoWaySearcher", %"core::str::pattern::TwoWaySearcher"* %self, i32 0, i32 6, !dbg !1788
  store i64 0, i64* %27, align 8, !dbg !1788
  br label %bb15, !dbg !1789

bb47:                                             ; preds = %bb46, %bb15
  br label %bb1, !dbg !1790

bb18:                                             ; preds = %bb16
  %28 = bitcast %"core::str::pattern::TwoWaySearcher"* %self to i64*, !dbg !1792
  %v1 = load i64, i64* %28, align 8, !dbg !1792
  store i64 %v1, i64* %v1.dbg.spill, align 8, !dbg !1792
  call void @llvm.dbg.declare(metadata i64* %v1.dbg.spill, metadata !1793, metadata !DIExpression()), !dbg !1798
  %29 = getelementptr inbounds %"core::str::pattern::TwoWaySearcher", %"core::str::pattern::TwoWaySearcher"* %self, i32 0, i32 6, !dbg !1800
  %v2 = load i64, i64* %29, align 8, !dbg !1800
  store i64 %v2, i64* %v2.dbg.spill, align 8, !dbg !1800
  call void @llvm.dbg.declare(metadata i64* %v2.dbg.spill, metadata !1797, metadata !DIExpression()), !dbg !1798
; call core::cmp::Ord::max
  %30 = call i64 @_ZN4core3cmp3Ord3max17heb94650d3533541dE(i64 %v1, i64 %v2), !dbg !1798
  store i64 %30, i64* %start1, align 8, !dbg !1798
  br label %bb50, !dbg !1798

bb17:                                             ; preds = %bb16
  %31 = bitcast %"core::str::pattern::TwoWaySearcher"* %self to i64*, !dbg !1801
  %32 = load i64, i64* %31, align 8, !dbg !1801
  store i64 %32, i64* %start1, align 8, !dbg !1801
  br label %bb19, !dbg !1802

bb19:                                             ; preds = %bb50, %bb17
  %_42 = load i64, i64* %start1, align 8, !dbg !1728
  %33 = bitcast { i64, i64 }* %self2 to i64*, !dbg !1728
  store i64 %_42, i64* %33, align 8, !dbg !1728
  %34 = getelementptr inbounds { i64, i64 }, { i64, i64 }* %self2, i32 0, i32 1, !dbg !1728
  store i64 %needle.1, i64* %34, align 8, !dbg !1728
  %35 = getelementptr inbounds { i64, i64 }, { i64, i64 }* %self2, i32 0, i32 0, !dbg !1727
  %_40.0 = load i64, i64* %35, align 8, !dbg !1727
  %36 = getelementptr inbounds { i64, i64 }, { i64, i64 }* %self2, i32 0, i32 1, !dbg !1727
  %_40.1 = load i64, i64* %36, align 8, !dbg !1727
  %37 = getelementptr inbounds { i64, i64 }, { i64, i64 }* %iter, i32 0, i32 0, !dbg !1728
  store i64 %_40.0, i64* %37, align 8, !dbg !1728
  %38 = getelementptr inbounds { i64, i64 }, { i64, i64 }* %iter, i32 0, i32 1, !dbg !1728
  store i64 %_40.1, i64* %38, align 8, !dbg !1728
  br label %bb20, !dbg !1803

bb50:                                             ; preds = %bb18
  br label %bb19, !dbg !1802

bb20:                                             ; preds = %bb29, %bb19
  store { i64, i64 }* %iter, { i64, i64 }** %self.dbg.spill8, align 8, !dbg !1729
  call void @llvm.dbg.declare(metadata { i64, i64 }** %self.dbg.spill8, metadata !1804, metadata !DIExpression()), !dbg !1814
; call <core::ops::range::Range<T> as core::iter::range::RangeIteratorImpl>::spec_next
  %39 = call { i64, i64 } @"_ZN89_$LT$core..ops..range..Range$LT$T$GT$$u20$as$u20$core..iter..range..RangeIteratorImpl$GT$9spec_next17hd8a51031829ef59cE"({ i64, i64 }* align 8 %iter), !dbg !1814
  store { i64, i64 } %39, { i64, i64 }* %_46, align 8, !dbg !1814
  br label %bb51, !dbg !1814

bb51:                                             ; preds = %bb20
  %40 = bitcast { i64, i64 }* %_46 to i64*, !dbg !1729
  %_49 = load i64, i64* %40, align 8, !dbg !1729, !range !865, !noundef !23
  switch i64 %_49, label %bb22 [
    i64 0, label %bb23
    i64 1, label %bb21
  ], !dbg !1729

bb22:                                             ; preds = %bb51
  unreachable, !dbg !1729

bb23:                                             ; preds = %bb51
  br i1 %long_period, label %bb30, label %bb31, !dbg !1815

bb21:                                             ; preds = %bb51
  %41 = getelementptr inbounds { i64, i64 }, { i64, i64 }* %_46, i32 0, i32 1, !dbg !1816
  %i = load i64, i64* %41, align 8, !dbg !1816
  store i64 %i, i64* %i.dbg.spill, align 8, !dbg !1816
  call void @llvm.dbg.declare(metadata i64* %i.dbg.spill, metadata !1688, metadata !DIExpression()), !dbg !1817
  %_55 = icmp ult i64 %i, %needle.1, !dbg !1818
  %42 = call i1 @llvm.expect.i1(i1 %_55, i1 true), !dbg !1818
  br i1 %42, label %bb24, label %panic, !dbg !1818

bb24:                                             ; preds = %bb21
  %43 = getelementptr inbounds [0 x i8], [0 x i8]* %needle.0, i64 0, i64 %i, !dbg !1818
  %_52 = load i8, i8* %43, align 1, !dbg !1818
  %44 = getelementptr inbounds %"core::str::pattern::TwoWaySearcher", %"core::str::pattern::TwoWaySearcher"* %self, i32 0, i32 4, !dbg !1819
  %_58 = load i64, i64* %44, align 8, !dbg !1819
  %_57 = add i64 %_58, %i, !dbg !1819
  %_61 = icmp ult i64 %_57, %haystack.1, !dbg !1820
  %45 = call i1 @llvm.expect.i1(i1 %_61, i1 true), !dbg !1820
  br i1 %45, label %bb25, label %panic9, !dbg !1820

panic:                                            ; preds = %bb21
; call core::panicking::panic_bounds_check
  call void @_ZN4core9panicking18panic_bounds_check17h66852fee8138fdc4E(i64 %i, i64 %needle.1, %"core::panic::location::Location"* align 8 bitcast (<{ i8*, [16 x i8] }>* @alloc559 to %"core::panic::location::Location"*)) #15, !dbg !1818
  unreachable, !dbg !1818

bb25:                                             ; preds = %bb24
  %46 = getelementptr inbounds [0 x i8], [0 x i8]* %haystack.0, i64 0, i64 %_57, !dbg !1820
  %_56 = load i8, i8* %46, align 1, !dbg !1820
  %_51 = icmp ne i8 %_52, %_56, !dbg !1818
  br i1 %_51, label %bb26, label %bb29, !dbg !1818

panic9:                                           ; preds = %bb24
; call core::panicking::panic_bounds_check
  call void @_ZN4core9panicking18panic_bounds_check17h66852fee8138fdc4E(i64 %_57, i64 %haystack.1, %"core::panic::location::Location"* align 8 bitcast (<{ i8*, [16 x i8] }>* @alloc561 to %"core::panic::location::Location"*)) #15, !dbg !1820
  unreachable, !dbg !1820

bb29:                                             ; preds = %bb25
  br label %bb20, !dbg !1803

bb26:                                             ; preds = %bb25
  %47 = bitcast %"core::str::pattern::TwoWaySearcher"* %self to i64*, !dbg !1821
  %_65 = load i64, i64* %47, align 8, !dbg !1821
  %_63 = sub i64 %i, %_65, !dbg !1822
  %_62 = add i64 %_63, 1, !dbg !1822
  %48 = getelementptr inbounds %"core::str::pattern::TwoWaySearcher", %"core::str::pattern::TwoWaySearcher"* %self, i32 0, i32 4, !dbg !1823
  %49 = getelementptr inbounds %"core::str::pattern::TwoWaySearcher", %"core::str::pattern::TwoWaySearcher"* %self, i32 0, i32 4, !dbg !1823
  %50 = load i64, i64* %49, align 8, !dbg !1823
  %51 = add i64 %50, %_62, !dbg !1823
  store i64 %51, i64* %48, align 8, !dbg !1823
  %_66 = xor i1 %long_period, true, !dbg !1824
  br i1 %_66, label %bb27, label %bb28, !dbg !1824

bb28:                                             ; preds = %bb27, %bb26
  br label %bb46, !dbg !1825

bb27:                                             ; preds = %bb26
  %52 = getelementptr inbounds %"core::str::pattern::TwoWaySearcher", %"core::str::pattern::TwoWaySearcher"* %self, i32 0, i32 6, !dbg !1827
  store i64 0, i64* %52, align 8, !dbg !1827
  br label %bb28, !dbg !1828

bb46:                                             ; preds = %bb41, %bb28
  br label %bb47, !dbg !1782

bb31:                                             ; preds = %bb23
  %53 = getelementptr inbounds %"core::str::pattern::TwoWaySearcher", %"core::str::pattern::TwoWaySearcher"* %self, i32 0, i32 6, !dbg !1829
  %54 = load i64, i64* %53, align 8, !dbg !1829
  store i64 %54, i64* %start3, align 8, !dbg !1829
  br label %bb32, !dbg !1830

bb30:                                             ; preds = %bb23
  store i64 0, i64* %start3, align 8, !dbg !1831
  br label %bb32, !dbg !1830

bb32:                                             ; preds = %bb31, %bb30
  %_73 = load i64, i64* %start3, align 8, !dbg !1832
  %55 = bitcast %"core::str::pattern::TwoWaySearcher"* %self to i64*, !dbg !1833
  %_74 = load i64, i64* %55, align 8, !dbg !1833
  %56 = bitcast { i64, i64 }* %self4 to i64*, !dbg !1743
  store i64 %_73, i64* %56, align 8, !dbg !1743
  %57 = getelementptr inbounds { i64, i64 }, { i64, i64 }* %self4, i32 0, i32 1, !dbg !1743
  store i64 %_74, i64* %57, align 8, !dbg !1743
  %58 = getelementptr inbounds { i64, i64 }, { i64, i64 }* %self4, i32 0, i32 0, !dbg !1742
  %_120.0 = load i64, i64* %58, align 8, !dbg !1742
  %59 = getelementptr inbounds { i64, i64 }, { i64, i64 }* %self4, i32 0, i32 1, !dbg !1742
  %_120.1 = load i64, i64* %59, align 8, !dbg !1742
; call core::iter::adapters::rev::Rev<T>::new
  %60 = call { i64, i64 } @"_ZN4core4iter8adapters3rev12Rev$LT$T$GT$3new17h14fc142aaebf8b7eE"(i64 %_120.0, i64 %_120.1), !dbg !1742
  %self.0 = extractvalue { i64, i64 } %60, 0, !dbg !1742
  %self.1 = extractvalue { i64, i64 } %60, 1, !dbg !1742
  %61 = getelementptr inbounds { i64, i64 }, { i64, i64 }* %self.dbg.spill10, i32 0, i32 0, !dbg !1742
  store i64 %self.0, i64* %61, align 8, !dbg !1742
  %62 = getelementptr inbounds { i64, i64 }, { i64, i64 }* %self.dbg.spill10, i32 0, i32 1, !dbg !1742
  store i64 %self.1, i64* %62, align 8, !dbg !1742
  call void @llvm.dbg.declare(metadata { i64, i64 }* %self.dbg.spill10, metadata !1834, metadata !DIExpression()), !dbg !1842
  br label %bb52, !dbg !1742

bb52:                                             ; preds = %bb32
  %63 = getelementptr inbounds { i64, i64 }, { i64, i64 }* %iter5, i32 0, i32 0, !dbg !1743
  store i64 %self.0, i64* %63, align 8, !dbg !1743
  %64 = getelementptr inbounds { i64, i64 }, { i64, i64 }* %iter5, i32 0, i32 1, !dbg !1743
  store i64 %self.1, i64* %64, align 8, !dbg !1743
  br label %bb33, !dbg !1843

bb33:                                             ; preds = %bb42, %bb52
  store { i64, i64 }* %iter5, { i64, i64 }** %self.dbg.spill11, align 8, !dbg !1744
  call void @llvm.dbg.declare(metadata { i64, i64 }** %self.dbg.spill11, metadata !1844, metadata !DIExpression()), !dbg !1853
  store { i64, i64 }* %iter5, { i64, i64 }** %self.dbg.spill12, align 8, !dbg !1853
  call void @llvm.dbg.declare(metadata { i64, i64 }** %self.dbg.spill12, metadata !1854, metadata !DIExpression()), !dbg !1859
; call <core::ops::range::Range<T> as core::iter::range::RangeIteratorImpl>::spec_next_back
  %65 = call { i64, i64 } @"_ZN89_$LT$core..ops..range..Range$LT$T$GT$$u20$as$u20$core..iter..range..RangeIteratorImpl$GT$14spec_next_back17h83600a7c9863ba0eE"({ i64, i64 }* align 8 %iter5), !dbg !1859
  store { i64, i64 } %65, { i64, i64 }* %_76, align 8, !dbg !1859
  br label %bb53, !dbg !1859

bb53:                                             ; preds = %bb33
  %66 = bitcast { i64, i64 }* %_76 to i64*, !dbg !1744
  %_79 = load i64, i64* %66, align 8, !dbg !1744, !range !865, !noundef !23
  switch i64 %_79, label %bb35 [
    i64 0, label %bb36
    i64 1, label %bb34
  ], !dbg !1744

bb35:                                             ; preds = %bb53
  unreachable, !dbg !1744

bb36:                                             ; preds = %bb53
  %67 = getelementptr inbounds %"core::str::pattern::TwoWaySearcher", %"core::str::pattern::TwoWaySearcher"* %self, i32 0, i32 4, !dbg !1861
  %match_pos = load i64, i64* %67, align 8, !dbg !1861
  store i64 %match_pos, i64* %match_pos.dbg.spill, align 8, !dbg !1861
  call void @llvm.dbg.declare(metadata i64* %match_pos.dbg.spill, metadata !1703, metadata !DIExpression()), !dbg !1862
  %68 = getelementptr inbounds %"core::str::pattern::TwoWaySearcher", %"core::str::pattern::TwoWaySearcher"* %self, i32 0, i32 4, !dbg !1863
  %69 = getelementptr inbounds %"core::str::pattern::TwoWaySearcher", %"core::str::pattern::TwoWaySearcher"* %self, i32 0, i32 4, !dbg !1863
  %70 = load i64, i64* %69, align 8, !dbg !1863
  %71 = add i64 %70, %needle.1, !dbg !1863
  store i64 %71, i64* %68, align 8, !dbg !1863
  %_101 = xor i1 %long_period, true, !dbg !1864
  br i1 %_101, label %bb43, label %bb44, !dbg !1864

bb34:                                             ; preds = %bb53
  %72 = getelementptr inbounds { i64, i64 }, { i64, i64 }* %_76, i32 0, i32 1, !dbg !1865
  %i13 = load i64, i64* %72, align 8, !dbg !1865
  store i64 %i13, i64* %i.dbg.spill14, align 8, !dbg !1865
  call void @llvm.dbg.declare(metadata i64* %i.dbg.spill14, metadata !1701, metadata !DIExpression()), !dbg !1866
  %_85 = icmp ult i64 %i13, %needle.1, !dbg !1867
  %73 = call i1 @llvm.expect.i1(i1 %_85, i1 true), !dbg !1867
  br i1 %73, label %bb37, label %panic15, !dbg !1867

bb37:                                             ; preds = %bb34
  %74 = getelementptr inbounds [0 x i8], [0 x i8]* %needle.0, i64 0, i64 %i13, !dbg !1867
  %_82 = load i8, i8* %74, align 1, !dbg !1867
  %75 = getelementptr inbounds %"core::str::pattern::TwoWaySearcher", %"core::str::pattern::TwoWaySearcher"* %self, i32 0, i32 4, !dbg !1868
  %_88 = load i64, i64* %75, align 8, !dbg !1868
  %_87 = add i64 %_88, %i13, !dbg !1868
  %_91 = icmp ult i64 %_87, %haystack.1, !dbg !1869
  %76 = call i1 @llvm.expect.i1(i1 %_91, i1 true), !dbg !1869
  br i1 %76, label %bb38, label %panic16, !dbg !1869

panic15:                                          ; preds = %bb34
; call core::panicking::panic_bounds_check
  call void @_ZN4core9panicking18panic_bounds_check17h66852fee8138fdc4E(i64 %i13, i64 %needle.1, %"core::panic::location::Location"* align 8 bitcast (<{ i8*, [16 x i8] }>* @alloc563 to %"core::panic::location::Location"*)) #15, !dbg !1867
  unreachable, !dbg !1867

bb38:                                             ; preds = %bb37
  %77 = getelementptr inbounds [0 x i8], [0 x i8]* %haystack.0, i64 0, i64 %_87, !dbg !1869
  %_86 = load i8, i8* %77, align 1, !dbg !1869
  %_81 = icmp ne i8 %_82, %_86, !dbg !1867
  br i1 %_81, label %bb39, label %bb42, !dbg !1867

panic16:                                          ; preds = %bb37
; call core::panicking::panic_bounds_check
  call void @_ZN4core9panicking18panic_bounds_check17h66852fee8138fdc4E(i64 %_87, i64 %haystack.1, %"core::panic::location::Location"* align 8 bitcast (<{ i8*, [16 x i8] }>* @alloc565 to %"core::panic::location::Location"*)) #15, !dbg !1869
  unreachable, !dbg !1869

bb42:                                             ; preds = %bb38
  br label %bb33, !dbg !1843

bb39:                                             ; preds = %bb38
  %78 = getelementptr inbounds %"core::str::pattern::TwoWaySearcher", %"core::str::pattern::TwoWaySearcher"* %self, i32 0, i32 2, !dbg !1870
  %_92 = load i64, i64* %78, align 8, !dbg !1870
  %79 = getelementptr inbounds %"core::str::pattern::TwoWaySearcher", %"core::str::pattern::TwoWaySearcher"* %self, i32 0, i32 4, !dbg !1871
  %80 = getelementptr inbounds %"core::str::pattern::TwoWaySearcher", %"core::str::pattern::TwoWaySearcher"* %self, i32 0, i32 4, !dbg !1871
  %81 = load i64, i64* %80, align 8, !dbg !1871
  %82 = add i64 %81, %_92, !dbg !1871
  store i64 %82, i64* %79, align 8, !dbg !1871
  %_93 = xor i1 %long_period, true, !dbg !1872
  br i1 %_93, label %bb40, label %bb41, !dbg !1872

bb41:                                             ; preds = %bb40, %bb39
  br label %bb46, !dbg !1825

bb40:                                             ; preds = %bb39
  %83 = getelementptr inbounds %"core::str::pattern::TwoWaySearcher", %"core::str::pattern::TwoWaySearcher"* %self, i32 0, i32 2, !dbg !1873
  %_97 = load i64, i64* %83, align 8, !dbg !1873
  %84 = getelementptr inbounds %"core::str::pattern::TwoWaySearcher", %"core::str::pattern::TwoWaySearcher"* %self, i32 0, i32 6, !dbg !1874
  %85 = sub i64 %needle.1, %_97, !dbg !1874
  store i64 %85, i64* %84, align 8, !dbg !1874
  br label %bb41, !dbg !1875

bb44:                                             ; preds = %bb43, %bb36
  %_104 = add i64 %match_pos, %needle.1, !dbg !1876
; call <core::str::pattern::MatchOnly as core::str::pattern::TwoWayStrategy>::matching
  call void @"_ZN84_$LT$core..str..pattern..MatchOnly$u20$as$u20$core..str..pattern..TwoWayStrategy$GT$8matching17hc559d9f21266915fE"(%"core::option::Option<(usize, usize)>"* sret(%"core::option::Option<(usize, usize)>") %0, i64 %match_pos, i64 %_104), !dbg !1877
  br label %bb45, !dbg !1877

bb43:                                             ; preds = %bb36
  %86 = getelementptr inbounds %"core::str::pattern::TwoWaySearcher", %"core::str::pattern::TwoWaySearcher"* %self, i32 0, i32 6, !dbg !1878
  store i64 0, i64* %86, align 8, !dbg !1878
  br label %bb44, !dbg !1879

bb45:                                             ; preds = %bb44
  br label %bb48, !dbg !1782

bb5:                                              ; preds = %bb2
  br label %bb48, !dbg !1790
}

; core::str::pattern::TwoWaySearcher::next
; Function Attrs: inlinehint nonlazybind uwtable
define internal void @_ZN4core3str7pattern14TwoWaySearcher4next17h7d87489eb065f5dbE(%"core::str::pattern::SearchStep"* sret(%"core::str::pattern::SearchStep") %0, %"core::str::pattern::TwoWaySearcher"* align 8 %self, [0 x i8]* align 1 %haystack.0, i64 %haystack.1, [0 x i8]* align 1 %needle.0, i64 %needle.1, i1 zeroext %long_period) unnamed_addr #0 !dbg !1880 {
start:
  %match_pos.dbg.spill = alloca i64, align 8
  %i.dbg.spill14 = alloca i64, align 8
  %self.dbg.spill12 = alloca { i64, i64 }*, align 8
  %self.dbg.spill11 = alloca { i64, i64 }*, align 8
  %self.dbg.spill10 = alloca { i64, i64 }, align 8
  %i.dbg.spill = alloca i64, align 8
  %self.dbg.spill8 = alloca { i64, i64 }*, align 8
  %v2.dbg.spill = alloca i64, align 8
  %v1.dbg.spill = alloca i64, align 8
  %byte.dbg.spill = alloca i8, align 1
  %self.dbg.spill7 = alloca %"core::str::pattern::TwoWaySearcher"*, align 8
  %tail_byte.dbg.spill = alloca i8, align 1
  %b.dbg.spill = alloca i8, align 1
  %index.dbg.spill = alloca i64, align 8
  %self.dbg.spill6 = alloca { [0 x i8]*, i64 }, align 8
  %needle_last.dbg.spill = alloca i64, align 8
  %old_pos.dbg.spill = alloca i64, align 8
  %long_period.dbg.spill = alloca i8, align 1
  %needle.dbg.spill = alloca { [0 x i8]*, i64 }, align 8
  %haystack.dbg.spill = alloca { [0 x i8]*, i64 }, align 8
  %self.dbg.spill = alloca %"core::str::pattern::TwoWaySearcher"*, align 8
  %_76 = alloca { i64, i64 }, align 8
  %iter5 = alloca { i64, i64 }, align 8
  %self4 = alloca { i64, i64 }, align 8
  %start3 = alloca i64, align 8
  %_46 = alloca { i64, i64 }, align 8
  %iter = alloca { i64, i64 }, align 8
  %self2 = alloca { i64, i64 }, align 8
  %start1 = alloca i64, align 8
  %_21 = alloca i8, align 1
  %_10 = alloca i8*, align 8
  store %"core::str::pattern::TwoWaySearcher"* %self, %"core::str::pattern::TwoWaySearcher"** %self.dbg.spill, align 8
  call void @llvm.dbg.declare(metadata %"core::str::pattern::TwoWaySearcher"** %self.dbg.spill, metadata !1901, metadata !DIExpression()), !dbg !1932
  %1 = getelementptr inbounds { [0 x i8]*, i64 }, { [0 x i8]*, i64 }* %haystack.dbg.spill, i32 0, i32 0
  store [0 x i8]* %haystack.0, [0 x i8]** %1, align 8
  %2 = getelementptr inbounds { [0 x i8]*, i64 }, { [0 x i8]*, i64 }* %haystack.dbg.spill, i32 0, i32 1
  store i64 %haystack.1, i64* %2, align 8
  call void @llvm.dbg.declare(metadata { [0 x i8]*, i64 }* %haystack.dbg.spill, metadata !1902, metadata !DIExpression()), !dbg !1933
  %3 = getelementptr inbounds { [0 x i8]*, i64 }, { [0 x i8]*, i64 }* %needle.dbg.spill, i32 0, i32 0
  store [0 x i8]* %needle.0, [0 x i8]** %3, align 8
  %4 = getelementptr inbounds { [0 x i8]*, i64 }, { [0 x i8]*, i64 }* %needle.dbg.spill, i32 0, i32 1
  store i64 %needle.1, i64* %4, align 8
  call void @llvm.dbg.declare(metadata { [0 x i8]*, i64 }* %needle.dbg.spill, metadata !1903, metadata !DIExpression()), !dbg !1934
  %5 = zext i1 %long_period to i8
  store i8 %5, i8* %long_period.dbg.spill, align 1
  call void @llvm.dbg.declare(metadata i8* %long_period.dbg.spill, metadata !1904, metadata !DIExpression()), !dbg !1935
  call void @llvm.dbg.declare(metadata i64* %start1, metadata !1913, metadata !DIExpression()), !dbg !1936
  call void @llvm.dbg.declare(metadata { i64, i64 }* %self2, metadata !1937, metadata !DIExpression()), !dbg !1941
  call void @llvm.dbg.declare(metadata { i64, i64 }* %iter, metadata !1915, metadata !DIExpression()), !dbg !1943
  call void @llvm.dbg.declare(metadata i64* %start3, metadata !1919, metadata !DIExpression()), !dbg !1944
  call void @llvm.dbg.declare(metadata { i64, i64 }* %self4, metadata !1945, metadata !DIExpression()), !dbg !1949
  call void @llvm.dbg.declare(metadata { i64, i64 }* %iter5, metadata !1921, metadata !DIExpression()), !dbg !1951
  %6 = getelementptr inbounds %"core::str::pattern::TwoWaySearcher", %"core::str::pattern::TwoWaySearcher"* %self, i32 0, i32 4, !dbg !1952
  %old_pos = load i64, i64* %6, align 8, !dbg !1952
  store i64 %old_pos, i64* %old_pos.dbg.spill, align 8, !dbg !1952
  call void @llvm.dbg.declare(metadata i64* %old_pos.dbg.spill, metadata !1905, metadata !DIExpression()), !dbg !1953
  %needle_last = sub i64 %needle.1, 1, !dbg !1954
  store i64 %needle_last, i64* %needle_last.dbg.spill, align 8, !dbg !1954
  call void @llvm.dbg.declare(metadata i64* %needle_last.dbg.spill, metadata !1907, metadata !DIExpression()), !dbg !1955
  br label %bb1, !dbg !1956

bb1:                                              ; preds = %bb47, %start
  %7 = getelementptr inbounds { [0 x i8]*, i64 }, { [0 x i8]*, i64 }* %self.dbg.spill6, i32 0, i32 0, !dbg !1957
  store [0 x i8]* %haystack.0, [0 x i8]** %7, align 8, !dbg !1957
  %8 = getelementptr inbounds { [0 x i8]*, i64 }, { [0 x i8]*, i64 }* %self.dbg.spill6, i32 0, i32 1, !dbg !1957
  store i64 %haystack.1, i64* %8, align 8, !dbg !1957
  call void @llvm.dbg.declare(metadata { [0 x i8]*, i64 }* %self.dbg.spill6, metadata !1958, metadata !DIExpression()), !dbg !1963
  %9 = getelementptr inbounds %"core::str::pattern::TwoWaySearcher", %"core::str::pattern::TwoWaySearcher"* %self, i32 0, i32 4, !dbg !1964
  %_13 = load i64, i64* %9, align 8, !dbg !1964
  %index = add i64 %_13, %needle_last, !dbg !1964
  store i64 %index, i64* %index.dbg.spill, align 8, !dbg !1964
  call void @llvm.dbg.declare(metadata i64* %index.dbg.spill, metadata !1962, metadata !DIExpression()), !dbg !1963
; call <usize as core::slice::index::SliceIndex<[T]>>::get
  %10 = call align 1 i8* @"_ZN75_$LT$usize$u20$as$u20$core..slice..index..SliceIndex$LT$$u5b$T$u5d$$GT$$GT$3get17heeb6b4d4f761f61aE"(i64 %index, [0 x i8]* align 1 %haystack.0, i64 %haystack.1), !dbg !1963
  store i8* %10, i8** %_10, align 8, !dbg !1963
  br label %bb49, !dbg !1963

bb49:                                             ; preds = %bb1
  %11 = bitcast i8** %_10 to {}**, !dbg !1957
  %12 = load {}*, {}** %11, align 8, !dbg !1957
  %13 = icmp eq {}* %12, null, !dbg !1957
  %_15 = select i1 %13, i64 0, i64 1, !dbg !1957
  switch i64 %_15, label %bb3 [
    i64 0, label %bb2
    i64 1, label %bb4
  ], !dbg !1965

bb3:                                              ; preds = %bb49
  unreachable, !dbg !1957

bb2:                                              ; preds = %bb49
  %14 = getelementptr inbounds %"core::str::pattern::TwoWaySearcher", %"core::str::pattern::TwoWaySearcher"* %self, i32 0, i32 4, !dbg !1966
  store i64 %haystack.1, i64* %14, align 8, !dbg !1966
  %15 = getelementptr inbounds %"core::str::pattern::TwoWaySearcher", %"core::str::pattern::TwoWaySearcher"* %self, i32 0, i32 4, !dbg !1967
  %_20 = load i64, i64* %15, align 8, !dbg !1967
; call <core::str::pattern::RejectAndMatch as core::str::pattern::TwoWayStrategy>::rejecting
  call void @"_ZN89_$LT$core..str..pattern..RejectAndMatch$u20$as$u20$core..str..pattern..TwoWayStrategy$GT$9rejecting17h7964d54b180e7969E"(%"core::str::pattern::SearchStep"* sret(%"core::str::pattern::SearchStep") %0, i64 %old_pos, i64 %_20), !dbg !1968
  br label %bb5, !dbg !1968

bb4:                                              ; preds = %bb49
  %_108 = load i8*, i8** %_10, align 8, !dbg !1969, !nonnull !23, !align !891, !noundef !23
  %b = load i8, i8* %_108, align 1, !dbg !1969
  store i8 %b, i8* %b.dbg.spill, align 1, !dbg !1969
  call void @llvm.dbg.declare(metadata i8* %b.dbg.spill, metadata !1911, metadata !DIExpression()), !dbg !1970
  store i8 %b, i8* %tail_byte.dbg.spill, align 1, !dbg !1971
  call void @llvm.dbg.declare(metadata i8* %tail_byte.dbg.spill, metadata !1909, metadata !DIExpression()), !dbg !1972
; call <core::str::pattern::RejectAndMatch as core::str::pattern::TwoWayStrategy>::use_early_reject
  %_22 = call zeroext i1 @"_ZN89_$LT$core..str..pattern..RejectAndMatch$u20$as$u20$core..str..pattern..TwoWayStrategy$GT$16use_early_reject17h0c69b4227548a848E"(), !dbg !1973
  br label %bb9, !dbg !1973

bb9:                                              ; preds = %bb4
  br i1 %_22, label %bb7, label %bb6, !dbg !1973

bb6:                                              ; preds = %bb9
  store i8 0, i8* %_21, align 1, !dbg !1973
  br label %bb8, !dbg !1973

bb7:                                              ; preds = %bb9
  %16 = getelementptr inbounds %"core::str::pattern::TwoWaySearcher", %"core::str::pattern::TwoWaySearcher"* %self, i32 0, i32 4, !dbg !1974
  %_25 = load i64, i64* %16, align 8, !dbg !1974
  %_23 = icmp ne i64 %old_pos, %_25, !dbg !1975
  %17 = zext i1 %_23 to i8, !dbg !1973
  store i8 %17, i8* %_21, align 1, !dbg !1973
  br label %bb8, !dbg !1973

bb8:                                              ; preds = %bb6, %bb7
  %18 = load i8, i8* %_21, align 1, !dbg !1973, !range !505, !noundef !23
  %19 = trunc i8 %18 to i1, !dbg !1973
  br i1 %19, label %bb10, label %bb12, !dbg !1973

bb12:                                             ; preds = %bb8
  store %"core::str::pattern::TwoWaySearcher"* %self, %"core::str::pattern::TwoWaySearcher"** %self.dbg.spill7, align 8, !dbg !1976
  call void @llvm.dbg.declare(metadata %"core::str::pattern::TwoWaySearcher"** %self.dbg.spill7, metadata !1977, metadata !DIExpression()), !dbg !1981
  store i8 %b, i8* %byte.dbg.spill, align 1, !dbg !1982
  call void @llvm.dbg.declare(metadata i8* %byte.dbg.spill, metadata !1980, metadata !DIExpression()), !dbg !1981
  %20 = getelementptr inbounds %"core::str::pattern::TwoWaySearcher", %"core::str::pattern::TwoWaySearcher"* %self, i32 0, i32 3, !dbg !1981
  %_113 = load i64, i64* %20, align 8, !dbg !1981
  %_115 = and i8 %b, 63, !dbg !1981
  %_114 = zext i8 %_115 to i64, !dbg !1981
  %21 = and i64 %_114, 63, !dbg !1981
  %_112 = lshr i64 %_113, %21, !dbg !1981
  %_111 = and i64 %_112, 1, !dbg !1981
  %_29 = icmp ne i64 %_111, 0, !dbg !1981
  %_28 = xor i1 %_29, true, !dbg !1983
  br i1 %_28, label %bb13, label %bb16, !dbg !1983

bb10:                                             ; preds = %bb8
  %22 = getelementptr inbounds %"core::str::pattern::TwoWaySearcher", %"core::str::pattern::TwoWaySearcher"* %self, i32 0, i32 4, !dbg !1984
  %_27 = load i64, i64* %22, align 8, !dbg !1984
; call <core::str::pattern::RejectAndMatch as core::str::pattern::TwoWayStrategy>::rejecting
  call void @"_ZN89_$LT$core..str..pattern..RejectAndMatch$u20$as$u20$core..str..pattern..TwoWayStrategy$GT$9rejecting17h7964d54b180e7969E"(%"core::str::pattern::SearchStep"* sret(%"core::str::pattern::SearchStep") %0, i64 %old_pos, i64 %_27), !dbg !1985
  br label %bb11, !dbg !1985

bb11:                                             ; preds = %bb10
  br label %bb48, !dbg !1986

bb48:                                             ; preds = %bb5, %bb45, %bb11
  ret void, !dbg !1988

bb16:                                             ; preds = %bb12
  br i1 %long_period, label %bb17, label %bb18, !dbg !1989

bb13:                                             ; preds = %bb12
  %23 = getelementptr inbounds %"core::str::pattern::TwoWaySearcher", %"core::str::pattern::TwoWaySearcher"* %self, i32 0, i32 4, !dbg !1990
  %24 = getelementptr inbounds %"core::str::pattern::TwoWaySearcher", %"core::str::pattern::TwoWaySearcher"* %self, i32 0, i32 4, !dbg !1990
  %25 = load i64, i64* %24, align 8, !dbg !1990
  %26 = add i64 %25, %needle.1, !dbg !1990
  store i64 %26, i64* %23, align 8, !dbg !1990
  %_34 = xor i1 %long_period, true, !dbg !1991
  br i1 %_34, label %bb14, label %bb15, !dbg !1991

bb15:                                             ; preds = %bb14, %bb13
  br label %bb47, !dbg !1986

bb14:                                             ; preds = %bb13
  %27 = getelementptr inbounds %"core::str::pattern::TwoWaySearcher", %"core::str::pattern::TwoWaySearcher"* %self, i32 0, i32 6, !dbg !1992
  store i64 0, i64* %27, align 8, !dbg !1992
  br label %bb15, !dbg !1993

bb47:                                             ; preds = %bb46, %bb15
  br label %bb1, !dbg !1994

bb18:                                             ; preds = %bb16
  %28 = bitcast %"core::str::pattern::TwoWaySearcher"* %self to i64*, !dbg !1996
  %v1 = load i64, i64* %28, align 8, !dbg !1996
  store i64 %v1, i64* %v1.dbg.spill, align 8, !dbg !1996
  call void @llvm.dbg.declare(metadata i64* %v1.dbg.spill, metadata !1997, metadata !DIExpression()), !dbg !2002
  %29 = getelementptr inbounds %"core::str::pattern::TwoWaySearcher", %"core::str::pattern::TwoWaySearcher"* %self, i32 0, i32 6, !dbg !2004
  %v2 = load i64, i64* %29, align 8, !dbg !2004
  store i64 %v2, i64* %v2.dbg.spill, align 8, !dbg !2004
  call void @llvm.dbg.declare(metadata i64* %v2.dbg.spill, metadata !2001, metadata !DIExpression()), !dbg !2002
; call core::cmp::Ord::max
  %30 = call i64 @_ZN4core3cmp3Ord3max17heb94650d3533541dE(i64 %v1, i64 %v2), !dbg !2002
  store i64 %30, i64* %start1, align 8, !dbg !2002
  br label %bb50, !dbg !2002

bb17:                                             ; preds = %bb16
  %31 = bitcast %"core::str::pattern::TwoWaySearcher"* %self to i64*, !dbg !2005
  %32 = load i64, i64* %31, align 8, !dbg !2005
  store i64 %32, i64* %start1, align 8, !dbg !2005
  br label %bb19, !dbg !2006

bb19:                                             ; preds = %bb50, %bb17
  %_42 = load i64, i64* %start1, align 8, !dbg !1942
  %33 = bitcast { i64, i64 }* %self2 to i64*, !dbg !1942
  store i64 %_42, i64* %33, align 8, !dbg !1942
  %34 = getelementptr inbounds { i64, i64 }, { i64, i64 }* %self2, i32 0, i32 1, !dbg !1942
  store i64 %needle.1, i64* %34, align 8, !dbg !1942
  %35 = getelementptr inbounds { i64, i64 }, { i64, i64 }* %self2, i32 0, i32 0, !dbg !1941
  %_40.0 = load i64, i64* %35, align 8, !dbg !1941
  %36 = getelementptr inbounds { i64, i64 }, { i64, i64 }* %self2, i32 0, i32 1, !dbg !1941
  %_40.1 = load i64, i64* %36, align 8, !dbg !1941
  %37 = getelementptr inbounds { i64, i64 }, { i64, i64 }* %iter, i32 0, i32 0, !dbg !1942
  store i64 %_40.0, i64* %37, align 8, !dbg !1942
  %38 = getelementptr inbounds { i64, i64 }, { i64, i64 }* %iter, i32 0, i32 1, !dbg !1942
  store i64 %_40.1, i64* %38, align 8, !dbg !1942
  br label %bb20, !dbg !2007

bb50:                                             ; preds = %bb18
  br label %bb19, !dbg !2006

bb20:                                             ; preds = %bb29, %bb19
  store { i64, i64 }* %iter, { i64, i64 }** %self.dbg.spill8, align 8, !dbg !1943
  call void @llvm.dbg.declare(metadata { i64, i64 }** %self.dbg.spill8, metadata !2008, metadata !DIExpression()), !dbg !2012
; call <core::ops::range::Range<T> as core::iter::range::RangeIteratorImpl>::spec_next
  %39 = call { i64, i64 } @"_ZN89_$LT$core..ops..range..Range$LT$T$GT$$u20$as$u20$core..iter..range..RangeIteratorImpl$GT$9spec_next17hd8a51031829ef59cE"({ i64, i64 }* align 8 %iter), !dbg !2012
  store { i64, i64 } %39, { i64, i64 }* %_46, align 8, !dbg !2012
  br label %bb51, !dbg !2012

bb51:                                             ; preds = %bb20
  %40 = bitcast { i64, i64 }* %_46 to i64*, !dbg !1943
  %_49 = load i64, i64* %40, align 8, !dbg !1943, !range !865, !noundef !23
  switch i64 %_49, label %bb22 [
    i64 0, label %bb23
    i64 1, label %bb21
  ], !dbg !1943

bb22:                                             ; preds = %bb51
  unreachable, !dbg !1943

bb23:                                             ; preds = %bb51
  br i1 %long_period, label %bb30, label %bb31, !dbg !2013

bb21:                                             ; preds = %bb51
  %41 = getelementptr inbounds { i64, i64 }, { i64, i64 }* %_46, i32 0, i32 1, !dbg !2014
  %i = load i64, i64* %41, align 8, !dbg !2014
  store i64 %i, i64* %i.dbg.spill, align 8, !dbg !2014
  call void @llvm.dbg.declare(metadata i64* %i.dbg.spill, metadata !1917, metadata !DIExpression()), !dbg !2015
  %_55 = icmp ult i64 %i, %needle.1, !dbg !2016
  %42 = call i1 @llvm.expect.i1(i1 %_55, i1 true), !dbg !2016
  br i1 %42, label %bb24, label %panic, !dbg !2016

bb24:                                             ; preds = %bb21
  %43 = getelementptr inbounds [0 x i8], [0 x i8]* %needle.0, i64 0, i64 %i, !dbg !2016
  %_52 = load i8, i8* %43, align 1, !dbg !2016
  %44 = getelementptr inbounds %"core::str::pattern::TwoWaySearcher", %"core::str::pattern::TwoWaySearcher"* %self, i32 0, i32 4, !dbg !2017
  %_58 = load i64, i64* %44, align 8, !dbg !2017
  %_57 = add i64 %_58, %i, !dbg !2017
  %_61 = icmp ult i64 %_57, %haystack.1, !dbg !2018
  %45 = call i1 @llvm.expect.i1(i1 %_61, i1 true), !dbg !2018
  br i1 %45, label %bb25, label %panic9, !dbg !2018

panic:                                            ; preds = %bb21
; call core::panicking::panic_bounds_check
  call void @_ZN4core9panicking18panic_bounds_check17h66852fee8138fdc4E(i64 %i, i64 %needle.1, %"core::panic::location::Location"* align 8 bitcast (<{ i8*, [16 x i8] }>* @alloc559 to %"core::panic::location::Location"*)) #15, !dbg !2016
  unreachable, !dbg !2016

bb25:                                             ; preds = %bb24
  %46 = getelementptr inbounds [0 x i8], [0 x i8]* %haystack.0, i64 0, i64 %_57, !dbg !2018
  %_56 = load i8, i8* %46, align 1, !dbg !2018
  %_51 = icmp ne i8 %_52, %_56, !dbg !2016
  br i1 %_51, label %bb26, label %bb29, !dbg !2016

panic9:                                           ; preds = %bb24
; call core::panicking::panic_bounds_check
  call void @_ZN4core9panicking18panic_bounds_check17h66852fee8138fdc4E(i64 %_57, i64 %haystack.1, %"core::panic::location::Location"* align 8 bitcast (<{ i8*, [16 x i8] }>* @alloc561 to %"core::panic::location::Location"*)) #15, !dbg !2018
  unreachable, !dbg !2018

bb29:                                             ; preds = %bb25
  br label %bb20, !dbg !2007

bb26:                                             ; preds = %bb25
  %47 = bitcast %"core::str::pattern::TwoWaySearcher"* %self to i64*, !dbg !2019
  %_65 = load i64, i64* %47, align 8, !dbg !2019
  %_63 = sub i64 %i, %_65, !dbg !2020
  %_62 = add i64 %_63, 1, !dbg !2020
  %48 = getelementptr inbounds %"core::str::pattern::TwoWaySearcher", %"core::str::pattern::TwoWaySearcher"* %self, i32 0, i32 4, !dbg !2021
  %49 = getelementptr inbounds %"core::str::pattern::TwoWaySearcher", %"core::str::pattern::TwoWaySearcher"* %self, i32 0, i32 4, !dbg !2021
  %50 = load i64, i64* %49, align 8, !dbg !2021
  %51 = add i64 %50, %_62, !dbg !2021
  store i64 %51, i64* %48, align 8, !dbg !2021
  %_66 = xor i1 %long_period, true, !dbg !2022
  br i1 %_66, label %bb27, label %bb28, !dbg !2022

bb28:                                             ; preds = %bb27, %bb26
  br label %bb46, !dbg !2023

bb27:                                             ; preds = %bb26
  %52 = getelementptr inbounds %"core::str::pattern::TwoWaySearcher", %"core::str::pattern::TwoWaySearcher"* %self, i32 0, i32 6, !dbg !2025
  store i64 0, i64* %52, align 8, !dbg !2025
  br label %bb28, !dbg !2026

bb46:                                             ; preds = %bb41, %bb28
  br label %bb47, !dbg !1986

bb31:                                             ; preds = %bb23
  %53 = getelementptr inbounds %"core::str::pattern::TwoWaySearcher", %"core::str::pattern::TwoWaySearcher"* %self, i32 0, i32 6, !dbg !2027
  %54 = load i64, i64* %53, align 8, !dbg !2027
  store i64 %54, i64* %start3, align 8, !dbg !2027
  br label %bb32, !dbg !2028

bb30:                                             ; preds = %bb23
  store i64 0, i64* %start3, align 8, !dbg !2029
  br label %bb32, !dbg !2028

bb32:                                             ; preds = %bb31, %bb30
  %_73 = load i64, i64* %start3, align 8, !dbg !2030
  %55 = bitcast %"core::str::pattern::TwoWaySearcher"* %self to i64*, !dbg !2031
  %_74 = load i64, i64* %55, align 8, !dbg !2031
  %56 = bitcast { i64, i64 }* %self4 to i64*, !dbg !1950
  store i64 %_73, i64* %56, align 8, !dbg !1950
  %57 = getelementptr inbounds { i64, i64 }, { i64, i64 }* %self4, i32 0, i32 1, !dbg !1950
  store i64 %_74, i64* %57, align 8, !dbg !1950
  %58 = getelementptr inbounds { i64, i64 }, { i64, i64 }* %self4, i32 0, i32 0, !dbg !1949
  %_120.0 = load i64, i64* %58, align 8, !dbg !1949
  %59 = getelementptr inbounds { i64, i64 }, { i64, i64 }* %self4, i32 0, i32 1, !dbg !1949
  %_120.1 = load i64, i64* %59, align 8, !dbg !1949
; call core::iter::adapters::rev::Rev<T>::new
  %60 = call { i64, i64 } @"_ZN4core4iter8adapters3rev12Rev$LT$T$GT$3new17h14fc142aaebf8b7eE"(i64 %_120.0, i64 %_120.1), !dbg !1949
  %self.0 = extractvalue { i64, i64 } %60, 0, !dbg !1949
  %self.1 = extractvalue { i64, i64 } %60, 1, !dbg !1949
  %61 = getelementptr inbounds { i64, i64 }, { i64, i64 }* %self.dbg.spill10, i32 0, i32 0, !dbg !1949
  store i64 %self.0, i64* %61, align 8, !dbg !1949
  %62 = getelementptr inbounds { i64, i64 }, { i64, i64 }* %self.dbg.spill10, i32 0, i32 1, !dbg !1949
  store i64 %self.1, i64* %62, align 8, !dbg !1949
  call void @llvm.dbg.declare(metadata { i64, i64 }* %self.dbg.spill10, metadata !2032, metadata !DIExpression()), !dbg !2036
  br label %bb52, !dbg !1949

bb52:                                             ; preds = %bb32
  %63 = getelementptr inbounds { i64, i64 }, { i64, i64 }* %iter5, i32 0, i32 0, !dbg !1950
  store i64 %self.0, i64* %63, align 8, !dbg !1950
  %64 = getelementptr inbounds { i64, i64 }, { i64, i64 }* %iter5, i32 0, i32 1, !dbg !1950
  store i64 %self.1, i64* %64, align 8, !dbg !1950
  br label %bb33, !dbg !2037

bb33:                                             ; preds = %bb42, %bb52
  store { i64, i64 }* %iter5, { i64, i64 }** %self.dbg.spill11, align 8, !dbg !1951
  call void @llvm.dbg.declare(metadata { i64, i64 }** %self.dbg.spill11, metadata !2038, metadata !DIExpression()), !dbg !2042
  store { i64, i64 }* %iter5, { i64, i64 }** %self.dbg.spill12, align 8, !dbg !2042
  call void @llvm.dbg.declare(metadata { i64, i64 }** %self.dbg.spill12, metadata !2043, metadata !DIExpression()), !dbg !2047
; call <core::ops::range::Range<T> as core::iter::range::RangeIteratorImpl>::spec_next_back
  %65 = call { i64, i64 } @"_ZN89_$LT$core..ops..range..Range$LT$T$GT$$u20$as$u20$core..iter..range..RangeIteratorImpl$GT$14spec_next_back17h83600a7c9863ba0eE"({ i64, i64 }* align 8 %iter5), !dbg !2047
  store { i64, i64 } %65, { i64, i64 }* %_76, align 8, !dbg !2047
  br label %bb53, !dbg !2047

bb53:                                             ; preds = %bb33
  %66 = bitcast { i64, i64 }* %_76 to i64*, !dbg !1951
  %_79 = load i64, i64* %66, align 8, !dbg !1951, !range !865, !noundef !23
  switch i64 %_79, label %bb35 [
    i64 0, label %bb36
    i64 1, label %bb34
  ], !dbg !1951

bb35:                                             ; preds = %bb53
  unreachable, !dbg !1951

bb36:                                             ; preds = %bb53
  %67 = getelementptr inbounds %"core::str::pattern::TwoWaySearcher", %"core::str::pattern::TwoWaySearcher"* %self, i32 0, i32 4, !dbg !2049
  %match_pos = load i64, i64* %67, align 8, !dbg !2049
  store i64 %match_pos, i64* %match_pos.dbg.spill, align 8, !dbg !2049
  call void @llvm.dbg.declare(metadata i64* %match_pos.dbg.spill, metadata !1925, metadata !DIExpression()), !dbg !2050
  %68 = getelementptr inbounds %"core::str::pattern::TwoWaySearcher", %"core::str::pattern::TwoWaySearcher"* %self, i32 0, i32 4, !dbg !2051
  %69 = getelementptr inbounds %"core::str::pattern::TwoWaySearcher", %"core::str::pattern::TwoWaySearcher"* %self, i32 0, i32 4, !dbg !2051
  %70 = load i64, i64* %69, align 8, !dbg !2051
  %71 = add i64 %70, %needle.1, !dbg !2051
  store i64 %71, i64* %68, align 8, !dbg !2051
  %_101 = xor i1 %long_period, true, !dbg !2052
  br i1 %_101, label %bb43, label %bb44, !dbg !2052

bb34:                                             ; preds = %bb53
  %72 = getelementptr inbounds { i64, i64 }, { i64, i64 }* %_76, i32 0, i32 1, !dbg !2053
  %i13 = load i64, i64* %72, align 8, !dbg !2053
  store i64 %i13, i64* %i.dbg.spill14, align 8, !dbg !2053
  call void @llvm.dbg.declare(metadata i64* %i.dbg.spill14, metadata !1923, metadata !DIExpression()), !dbg !2054
  %_85 = icmp ult i64 %i13, %needle.1, !dbg !2055
  %73 = call i1 @llvm.expect.i1(i1 %_85, i1 true), !dbg !2055
  br i1 %73, label %bb37, label %panic15, !dbg !2055

bb37:                                             ; preds = %bb34
  %74 = getelementptr inbounds [0 x i8], [0 x i8]* %needle.0, i64 0, i64 %i13, !dbg !2055
  %_82 = load i8, i8* %74, align 1, !dbg !2055
  %75 = getelementptr inbounds %"core::str::pattern::TwoWaySearcher", %"core::str::pattern::TwoWaySearcher"* %self, i32 0, i32 4, !dbg !2056
  %_88 = load i64, i64* %75, align 8, !dbg !2056
  %_87 = add i64 %_88, %i13, !dbg !2056
  %_91 = icmp ult i64 %_87, %haystack.1, !dbg !2057
  %76 = call i1 @llvm.expect.i1(i1 %_91, i1 true), !dbg !2057
  br i1 %76, label %bb38, label %panic16, !dbg !2057

panic15:                                          ; preds = %bb34
; call core::panicking::panic_bounds_check
  call void @_ZN4core9panicking18panic_bounds_check17h66852fee8138fdc4E(i64 %i13, i64 %needle.1, %"core::panic::location::Location"* align 8 bitcast (<{ i8*, [16 x i8] }>* @alloc563 to %"core::panic::location::Location"*)) #15, !dbg !2055
  unreachable, !dbg !2055

bb38:                                             ; preds = %bb37
  %77 = getelementptr inbounds [0 x i8], [0 x i8]* %haystack.0, i64 0, i64 %_87, !dbg !2057
  %_86 = load i8, i8* %77, align 1, !dbg !2057
  %_81 = icmp ne i8 %_82, %_86, !dbg !2055
  br i1 %_81, label %bb39, label %bb42, !dbg !2055

panic16:                                          ; preds = %bb37
; call core::panicking::panic_bounds_check
  call void @_ZN4core9panicking18panic_bounds_check17h66852fee8138fdc4E(i64 %_87, i64 %haystack.1, %"core::panic::location::Location"* align 8 bitcast (<{ i8*, [16 x i8] }>* @alloc565 to %"core::panic::location::Location"*)) #15, !dbg !2057
  unreachable, !dbg !2057

bb42:                                             ; preds = %bb38
  br label %bb33, !dbg !2037

bb39:                                             ; preds = %bb38
  %78 = getelementptr inbounds %"core::str::pattern::TwoWaySearcher", %"core::str::pattern::TwoWaySearcher"* %self, i32 0, i32 2, !dbg !2058
  %_92 = load i64, i64* %78, align 8, !dbg !2058
  %79 = getelementptr inbounds %"core::str::pattern::TwoWaySearcher", %"core::str::pattern::TwoWaySearcher"* %self, i32 0, i32 4, !dbg !2059
  %80 = getelementptr inbounds %"core::str::pattern::TwoWaySearcher", %"core::str::pattern::TwoWaySearcher"* %self, i32 0, i32 4, !dbg !2059
  %81 = load i64, i64* %80, align 8, !dbg !2059
  %82 = add i64 %81, %_92, !dbg !2059
  store i64 %82, i64* %79, align 8, !dbg !2059
  %_93 = xor i1 %long_period, true, !dbg !2060
  br i1 %_93, label %bb40, label %bb41, !dbg !2060

bb41:                                             ; preds = %bb40, %bb39
  br label %bb46, !dbg !2023

bb40:                                             ; preds = %bb39
  %83 = getelementptr inbounds %"core::str::pattern::TwoWaySearcher", %"core::str::pattern::TwoWaySearcher"* %self, i32 0, i32 2, !dbg !2061
  %_97 = load i64, i64* %83, align 8, !dbg !2061
  %84 = getelementptr inbounds %"core::str::pattern::TwoWaySearcher", %"core::str::pattern::TwoWaySearcher"* %self, i32 0, i32 6, !dbg !2062
  %85 = sub i64 %needle.1, %_97, !dbg !2062
  store i64 %85, i64* %84, align 8, !dbg !2062
  br label %bb41, !dbg !2063

bb44:                                             ; preds = %bb43, %bb36
  %_104 = add i64 %match_pos, %needle.1, !dbg !2064
; call <core::str::pattern::RejectAndMatch as core::str::pattern::TwoWayStrategy>::matching
  call void @"_ZN89_$LT$core..str..pattern..RejectAndMatch$u20$as$u20$core..str..pattern..TwoWayStrategy$GT$8matching17he875a91c80a0f86dE"(%"core::str::pattern::SearchStep"* sret(%"core::str::pattern::SearchStep") %0, i64 %match_pos, i64 %_104), !dbg !2065
  br label %bb45, !dbg !2065

bb43:                                             ; preds = %bb36
  %86 = getelementptr inbounds %"core::str::pattern::TwoWaySearcher", %"core::str::pattern::TwoWaySearcher"* %self, i32 0, i32 6, !dbg !2066
  store i64 0, i64* %86, align 8, !dbg !2066
  br label %bb44, !dbg !2067

bb45:                                             ; preds = %bb44
  br label %bb48, !dbg !1986

bb5:                                              ; preds = %bb2
  br label %bb48, !dbg !1994
}

; core::str::pattern::Pattern::is_contained_in
; Function Attrs: inlinehint nonlazybind uwtable
define internal zeroext i1 @_ZN4core3str7pattern7Pattern15is_contained_in17hb3e21f3a96f4b49eE([0 x i8]* align 1 %self.0, i64 %self.1, [0 x i8]* align 1 %haystack.0, i64 %haystack.1) unnamed_addr #0 personality i32 (i32, i32, i64, %"unwind::libunwind::_Unwind_Exception"*, %"unwind::libunwind::_Unwind_Context"*)* @rust_eh_personality !dbg !2068 {
start:
  %self.dbg.spill1 = alloca %"core::option::Option<(usize, usize)>"*, align 8
  %0 = alloca { i8*, i32 }, align 8
  %haystack.dbg.spill = alloca { [0 x i8]*, i64 }, align 8
  %self.dbg.spill = alloca { [0 x i8]*, i64 }, align 8
  %_6 = alloca %"core::str::pattern::StrSearcher", align 8
  %_4 = alloca %"core::option::Option<(usize, usize)>", align 8
  %1 = alloca i8, align 1
  %2 = getelementptr inbounds { [0 x i8]*, i64 }, { [0 x i8]*, i64 }* %self.dbg.spill, i32 0, i32 0
  store [0 x i8]* %self.0, [0 x i8]** %2, align 8
  %3 = getelementptr inbounds { [0 x i8]*, i64 }, { [0 x i8]*, i64 }* %self.dbg.spill, i32 0, i32 1
  store i64 %self.1, i64* %3, align 8
  call void @llvm.dbg.declare(metadata { [0 x i8]*, i64 }* %self.dbg.spill, metadata !2071, metadata !DIExpression()), !dbg !2075
  %4 = getelementptr inbounds { [0 x i8]*, i64 }, { [0 x i8]*, i64 }* %haystack.dbg.spill, i32 0, i32 0
  store [0 x i8]* %haystack.0, [0 x i8]** %4, align 8
  %5 = getelementptr inbounds { [0 x i8]*, i64 }, { [0 x i8]*, i64 }* %haystack.dbg.spill, i32 0, i32 1
  store i64 %haystack.1, i64* %5, align 8
  call void @llvm.dbg.declare(metadata { [0 x i8]*, i64 }* %haystack.dbg.spill, metadata !2072, metadata !DIExpression()), !dbg !2076
; call <&str as core::str::pattern::Pattern>::into_searcher
  call void @"_ZN55_$LT$$RF$str$u20$as$u20$core..str..pattern..Pattern$GT$13into_searcher17hd40404a44a279b2dE"(%"core::str::pattern::StrSearcher"* sret(%"core::str::pattern::StrSearcher") %_6, [0 x i8]* align 1 %self.0, i64 %self.1, [0 x i8]* align 1 %haystack.0, i64 %haystack.1), !dbg !2077
  br label %bb1, !dbg !2077

bb1:                                              ; preds = %start
; invoke <core::str::pattern::StrSearcher as core::str::pattern::Searcher>::next_match
  invoke void @"_ZN80_$LT$core..str..pattern..StrSearcher$u20$as$u20$core..str..pattern..Searcher$GT$10next_match17h26c97d8fb1832ad5E"(%"core::option::Option<(usize, usize)>"* sret(%"core::option::Option<(usize, usize)>") %_4, %"core::str::pattern::StrSearcher"* align 8 %_6)
          to label %bb2 unwind label %cleanup, !dbg !2077

bb5:                                              ; preds = %cleanup
  br label %bb6, !dbg !2078

cleanup:                                          ; preds = %bb1
  %6 = landingpad { i8*, i32 }
          cleanup
  %7 = extractvalue { i8*, i32 } %6, 0
  %8 = extractvalue { i8*, i32 } %6, 1
  %9 = getelementptr inbounds { i8*, i32 }, { i8*, i32 }* %0, i32 0, i32 0
  store i8* %7, i8** %9, align 8
  %10 = getelementptr inbounds { i8*, i32 }, { i8*, i32 }* %0, i32 0, i32 1
  store i32 %8, i32* %10, align 8
  br label %bb5

bb2:                                              ; preds = %bb1
  store %"core::option::Option<(usize, usize)>"* %_4, %"core::option::Option<(usize, usize)>"** %self.dbg.spill1, align 8, !dbg !2077
  call void @llvm.dbg.declare(metadata %"core::option::Option<(usize, usize)>"** %self.dbg.spill1, metadata !2079, metadata !DIExpression()), !dbg !2086
  %11 = bitcast %"core::option::Option<(usize, usize)>"* %_4 to i64*, !dbg !2086
  %_9 = load i64, i64* %11, align 8, !dbg !2086, !range !865, !noundef !23
  %12 = icmp eq i64 %_9, 1, !dbg !2086
  br i1 %12, label %bb8, label %bb7, !dbg !2086

bb6:                                              ; preds = %bb5
  %13 = bitcast { i8*, i32 }* %0 to i8**, !dbg !2087
  %14 = load i8*, i8** %13, align 8, !dbg !2087
  %15 = getelementptr inbounds { i8*, i32 }, { i8*, i32 }* %0, i32 0, i32 1, !dbg !2087
  %16 = load i32, i32* %15, align 8, !dbg !2087
  %17 = insertvalue { i8*, i32 } undef, i8* %14, 0, !dbg !2087
  %18 = insertvalue { i8*, i32 } %17, i32 %16, 1, !dbg !2087
  resume { i8*, i32 } %18, !dbg !2087

bb8:                                              ; preds = %bb2
  store i8 1, i8* %1, align 1, !dbg !2086
  br label %bb3, !dbg !2086

bb7:                                              ; preds = %bb2
  store i8 0, i8* %1, align 1, !dbg !2086
  br label %bb3, !dbg !2086

bb3:                                              ; preds = %bb8, %bb7
  br label %bb4, !dbg !2078

bb4:                                              ; preds = %bb3
  %19 = load i8, i8* %1, align 1, !dbg !2088, !range !505, !noundef !23
  %20 = trunc i8 %19 to i1, !dbg !2088
  ret i1 %20, !dbg !2088
}

; core::char::methods::len_utf8
; Function Attrs: inlinehint nonlazybind uwtable
define internal i64 @_ZN4core4char7methods8len_utf817h2ae2e3433924ffc4E(i32 %code) unnamed_addr #0 !dbg !2089 {
start:
  %code.dbg.spill = alloca i32, align 4
  %0 = alloca i64, align 8
  store i32 %code, i32* %code.dbg.spill, align 4
  call void @llvm.dbg.declare(metadata i32* %code.dbg.spill, metadata !2096, metadata !DIExpression()), !dbg !2097
  %_2 = icmp ult i32 %code, 128, !dbg !2098
  br i1 %_2, label %bb1, label %bb2, !dbg !2098

bb2:                                              ; preds = %start
  %_4 = icmp ult i32 %code, 2048, !dbg !2099
  br i1 %_4, label %bb3, label %bb4, !dbg !2099

bb1:                                              ; preds = %start
  store i64 1, i64* %0, align 8, !dbg !2100
  br label %bb9, !dbg !2101

bb9:                                              ; preds = %bb8, %bb1
  %1 = load i64, i64* %0, align 8, !dbg !2102
  ret i64 %1, !dbg !2102

bb4:                                              ; preds = %bb2
  %_6 = icmp ult i32 %code, 65536, !dbg !2103
  br i1 %_6, label %bb5, label %bb6, !dbg !2103

bb3:                                              ; preds = %bb2
  store i64 2, i64* %0, align 8, !dbg !2104
  br label %bb8, !dbg !2105

bb8:                                              ; preds = %bb7, %bb3
  br label %bb9, !dbg !2101

bb6:                                              ; preds = %bb4
  store i64 4, i64* %0, align 8, !dbg !2106
  br label %bb7, !dbg !2107

bb5:                                              ; preds = %bb4
  store i64 3, i64* %0, align 8, !dbg !2108
  br label %bb7, !dbg !2107

bb7:                                              ; preds = %bb6, %bb5
  br label %bb8, !dbg !2105
}

; core::iter::adapters::rev::Rev<T>::new
; Function Attrs: nonlazybind uwtable
define internal { i64, i64 } @"_ZN4core4iter8adapters3rev12Rev$LT$T$GT$3new17h14fc142aaebf8b7eE"(i64 %iter.0, i64 %iter.1) unnamed_addr #2 !dbg !2109 {
start:
  %iter.dbg.spill = alloca { i64, i64 }, align 8
  %0 = alloca { i64, i64 }, align 8
  %1 = getelementptr inbounds { i64, i64 }, { i64, i64 }* %iter.dbg.spill, i32 0, i32 0
  store i64 %iter.0, i64* %1, align 8
  %2 = getelementptr inbounds { i64, i64 }, { i64, i64 }* %iter.dbg.spill, i32 0, i32 1
  store i64 %iter.1, i64* %2, align 8
  call void @llvm.dbg.declare(metadata { i64, i64 }* %iter.dbg.spill, metadata !2111, metadata !DIExpression()), !dbg !2112
  %3 = getelementptr inbounds { i64, i64 }, { i64, i64 }* %0, i32 0, i32 0, !dbg !2113
  store i64 %iter.0, i64* %3, align 8, !dbg !2113
  %4 = getelementptr inbounds { i64, i64 }, { i64, i64 }* %0, i32 0, i32 1, !dbg !2113
  store i64 %iter.1, i64* %4, align 8, !dbg !2113
  %5 = getelementptr inbounds { i64, i64 }, { i64, i64 }* %0, i32 0, i32 0, !dbg !2114
  %6 = load i64, i64* %5, align 8, !dbg !2114
  %7 = getelementptr inbounds { i64, i64 }, { i64, i64 }* %0, i32 0, i32 1, !dbg !2114
  %8 = load i64, i64* %7, align 8, !dbg !2114
  %9 = insertvalue { i64, i64 } undef, i64 %6, 0, !dbg !2114
  %10 = insertvalue { i64, i64 } %9, i64 %8, 1, !dbg !2114
  ret { i64, i64 } %10, !dbg !2114
}

; core::alloc::layout::Layout::from_size_valid_align
; Function Attrs: inlinehint nonlazybind uwtable
define internal { i64, i64 } @_ZN4core5alloc6layout6Layout21from_size_valid_align17hc30ce28b3d614478E(i64 %size, i64 %align) unnamed_addr #0 !dbg !2115 {
start:
  %n.dbg.spill = alloca i64, align 8
  %align.dbg.spill = alloca i64, align 8
  %size.dbg.spill = alloca i64, align 8
  %_11 = alloca { i64, i64 }, align 8
  %self1 = alloca i64, align 8
  %self = alloca i64, align 8
  %0 = alloca { i64, i64 }, align 8
  store i64 %size, i64* %size.dbg.spill, align 8
  call void @llvm.dbg.declare(metadata i64* %size.dbg.spill, metadata !2146, metadata !DIExpression()), !dbg !2148
  store i64 %align, i64* %align.dbg.spill, align 8
  call void @llvm.dbg.declare(metadata i64* %align.dbg.spill, metadata !2147, metadata !DIExpression()), !dbg !2149
  call void @llvm.dbg.declare(metadata i64* %self, metadata !2150, metadata !DIExpression()), !dbg !2161
  call void @llvm.dbg.declare(metadata i64* %self1, metadata !2163, metadata !DIExpression()), !dbg !2170
  store i64 %align, i64* %self1, align 8, !dbg !2162
  %_15 = load i64, i64* %self1, align 8, !dbg !2170, !range !2171, !noundef !23
  store i64 %_15, i64* %n.dbg.spill, align 8, !dbg !2170
  call void @llvm.dbg.declare(metadata i64* %n.dbg.spill, metadata !2172, metadata !DIExpression()), !dbg !2186
  store i64 %_15, i64* %self, align 8, !dbg !2186
  %_8 = load i64, i64* %self, align 8, !dbg !2161
  %_7 = sub i64 %_8, 1, !dbg !2188
  %_5 = sub i64 9223372036854775807, %_7, !dbg !2189
  %_3 = icmp ugt i64 %size, %_5, !dbg !2190
  br i1 %_3, label %bb1, label %bb2, !dbg !2190

bb2:                                              ; preds = %start
  %1 = bitcast { i64, i64 }* %_11 to i64*, !dbg !2191
  store i64 %size, i64* %1, align 8, !dbg !2191
  %2 = getelementptr inbounds { i64, i64 }, { i64, i64 }* %_11, i32 0, i32 1, !dbg !2191
  store i64 %align, i64* %2, align 8, !dbg !2191
  %3 = getelementptr inbounds { i64, i64 }, { i64, i64 }* %_11, i32 0, i32 0, !dbg !2192
  %4 = load i64, i64* %3, align 8, !dbg !2192
  %5 = getelementptr inbounds { i64, i64 }, { i64, i64 }* %_11, i32 0, i32 1, !dbg !2192
  %6 = load i64, i64* %5, align 8, !dbg !2192, !range !2171, !noundef !23
  %7 = getelementptr inbounds { i64, i64 }, { i64, i64 }* %0, i32 0, i32 0, !dbg !2192
  store i64 %4, i64* %7, align 8, !dbg !2192
  %8 = getelementptr inbounds { i64, i64 }, { i64, i64 }* %0, i32 0, i32 1, !dbg !2192
  store i64 %6, i64* %8, align 8, !dbg !2192
  br label %bb3, !dbg !2193

bb1:                                              ; preds = %start
  %9 = getelementptr inbounds { i64, i64 }, { i64, i64 }* %0, i32 0, i32 1, !dbg !2194
  store i64 0, i64* %9, align 8, !dbg !2194
  br label %bb3, !dbg !2193

bb3:                                              ; preds = %bb2, %bb1
  %10 = getelementptr inbounds { i64, i64 }, { i64, i64 }* %0, i32 0, i32 0, !dbg !2193
  %11 = load i64, i64* %10, align 8, !dbg !2193
  %12 = getelementptr inbounds { i64, i64 }, { i64, i64 }* %0, i32 0, i32 1, !dbg !2193
  %13 = load i64, i64* %12, align 8, !dbg !2193, !range !2195, !noundef !23
  %14 = insertvalue { i64, i64 } undef, i64 %11, 0, !dbg !2193
  %15 = insertvalue { i64, i64 } %14, i64 %13, 1, !dbg !2193
  ret { i64, i64 } %15, !dbg !2193
}

; core::alloc::layout::Layout::array
; Function Attrs: inlinehint nonlazybind uwtable
define internal { i64, i64 } @_ZN4core5alloc6layout6Layout5array17h1a1ed60865c4d910E(i64 %n) unnamed_addr #0 !dbg !2196 {
start:
  %0 = alloca i64, align 8
  %align.dbg.spill = alloca i64, align 8
  %array_size.dbg.spill = alloca i64, align 8
  %val.dbg.spill = alloca i64, align 8
  %v.dbg.spill5 = alloca i64, align 8
  %v.dbg.spill = alloca i64, align 8
  %e.dbg.spill3 = alloca %"core::alloc::layout::LayoutError", align 1
  %e.dbg.spill = alloca %"core::alloc::layout::LayoutError", align 1
  %residual.dbg.spill2 = alloca %"core::result::Result<core::convert::Infallible, core::alloc::layout::LayoutError>::Err", align 1
  %residual.dbg.spill = alloca %"core::result::Result<core::convert::Infallible, core::alloc::layout::LayoutError>::Err", align 1
  %err.dbg.spill = alloca %"core::alloc::layout::LayoutError", align 1
  %n.dbg.spill = alloca i64, align 8
  %self1 = alloca { i64, i64 }, align 8
  %self = alloca { i64, i64 }, align 8
  %_3 = alloca { i64, i64 }, align 8
  %1 = alloca { i64, i64 }, align 8
  store i64 %n, i64* %n.dbg.spill, align 8
  call void @llvm.dbg.declare(metadata i64* %n.dbg.spill, metadata !2200, metadata !DIExpression()), !dbg !2220
  call void @llvm.dbg.declare(metadata { i64, i64 }* %self, metadata !2221, metadata !DIExpression()), !dbg !2265
  call void @llvm.dbg.declare(metadata { i64, i64 }* %self1, metadata !2267, metadata !DIExpression()), !dbg !2277
  call void @llvm.dbg.declare(metadata %"core::alloc::layout::LayoutError"* %err.dbg.spill, metadata !2273, metadata !DIExpression()), !dbg !2277
  call void @llvm.dbg.declare(metadata %"core::result::Result<core::convert::Infallible, core::alloc::layout::LayoutError>::Err"* %residual.dbg.spill, metadata !2203, metadata !DIExpression()), !dbg !2278
  call void @llvm.dbg.declare(metadata %"core::result::Result<core::convert::Infallible, core::alloc::layout::LayoutError>::Err"* %residual.dbg.spill2, metadata !2279, metadata !DIExpression()), !dbg !2291
  call void @llvm.dbg.declare(metadata %"core::alloc::layout::LayoutError"* %e.dbg.spill, metadata !2262, metadata !DIExpression()), !dbg !2293
  call void @llvm.dbg.declare(metadata %"core::alloc::layout::LayoutError"* %e.dbg.spill3, metadata !2286, metadata !DIExpression()), !dbg !2294
; call core::num::<impl usize>::checked_mul
  %2 = call { i64, i64 } @"_ZN4core3num23_$LT$impl$u20$usize$GT$11checked_mul17h47da74691c4ba223E"(i64 1, i64 %n), !dbg !2266
  store { i64, i64 } %2, { i64, i64 }* %self1, align 8, !dbg !2266
  br label %bb1, !dbg !2266

bb1:                                              ; preds = %start
  %3 = bitcast { i64, i64 }* %self1 to i64*, !dbg !2277
  %_15 = load i64, i64* %3, align 8, !dbg !2277, !range !865, !noundef !23
  switch i64 %_15, label %bb9 [
    i64 0, label %bb8
    i64 1, label %bb10
  ], !dbg !2277

bb9:                                              ; preds = %bb1
  unreachable, !dbg !2277

bb8:                                              ; preds = %bb1
  %4 = bitcast { i64, i64 }* %self to i64*, !dbg !2277
  store i64 1, i64* %4, align 8, !dbg !2277
  br label %bb11, !dbg !2277

bb10:                                             ; preds = %bb1
  %5 = getelementptr inbounds { i64, i64 }, { i64, i64 }* %self1, i32 0, i32 1, !dbg !2277
  %v = load i64, i64* %5, align 8, !dbg !2277
  store i64 %v, i64* %v.dbg.spill, align 8, !dbg !2277
  call void @llvm.dbg.declare(metadata i64* %v.dbg.spill, metadata !2274, metadata !DIExpression()), !dbg !2295
  %6 = getelementptr inbounds { i64, i64 }, { i64, i64 }* %self, i32 0, i32 1, !dbg !2295
  store i64 %v, i64* %6, align 8, !dbg !2295
  %7 = bitcast { i64, i64 }* %self to i64*, !dbg !2295
  store i64 0, i64* %7, align 8, !dbg !2295
  br label %bb11, !dbg !2277

bb11:                                             ; preds = %bb8, %bb10
  %8 = bitcast { i64, i64 }* %self to i64*, !dbg !2265
  %_18 = load i64, i64* %8, align 8, !dbg !2265, !range !865, !noundef !23
  switch i64 %_18, label %bb13 [
    i64 0, label %bb14
    i64 1, label %bb12
  ], !dbg !2265

bb13:                                             ; preds = %bb11
  unreachable, !dbg !2265

bb14:                                             ; preds = %bb11
  %9 = getelementptr inbounds { i64, i64 }, { i64, i64 }* %self, i32 0, i32 1, !dbg !2265
  %v4 = load i64, i64* %9, align 8, !dbg !2265
  store i64 %v4, i64* %v.dbg.spill5, align 8, !dbg !2265
  call void @llvm.dbg.declare(metadata i64* %v.dbg.spill5, metadata !2259, metadata !DIExpression()), !dbg !2296
  %10 = getelementptr inbounds { i64, i64 }, { i64, i64 }* %_3, i32 0, i32 1, !dbg !2296
  store i64 %v4, i64* %10, align 8, !dbg !2296
  %11 = bitcast { i64, i64 }* %_3 to i64*, !dbg !2296
  store i64 0, i64* %11, align 8, !dbg !2296
  br label %bb2, !dbg !2265

bb12:                                             ; preds = %bb11
  %12 = bitcast { i64, i64 }* %_3 to i64*, !dbg !2293
  store i64 1, i64* %12, align 8, !dbg !2293
  br label %bb2, !dbg !2265

bb2:                                              ; preds = %bb14, %bb12
  %13 = bitcast { i64, i64 }* %_3 to i64*, !dbg !2266
  %_9 = load i64, i64* %13, align 8, !dbg !2266, !range !865, !noundef !23
  switch i64 %_9, label %bb4 [
    i64 0, label %bb3
    i64 1, label %bb5
  ], !dbg !2266

bb4:                                              ; preds = %bb2
