; ModuleID = 'build_script_build.cfd22473-cgu.0'
source_filename = "build_script_build.cfd22473-cgu.0"
target datalayout = "e-m:e-p270:32:32-p271:32:32-p272:64:64-i64:64-f80:128-n8:16:32:64-S128"
target triple = "x86_64-unknown-linux-gnu"

%"alloc::string::String" = type { %"alloc::vec::Vec<u8>" }
%"alloc::vec::Vec<u8>" = type { { i8*, i64 }, i64 }
%"core::panic::location::Location" = type { { [0 x i8]*, i64 }, i32, i32 }
%"core::ops::range::RangeFull" = type {}
%"core::ptr::metadata::PtrRepr<[u8]>" = type { [2 x i64] }
%"[closure@alloc::str::join_generic_copy<str, u8, &str>::{closure#0}::{closure#0}]" = type {}
%"core::str::iter::CharIndices" = type { i64, { i8*, i8* } }
%"core::str::pattern::SearchStep" = type { i64, [2 x i64] }
%"core::str::pattern::MultiCharEqSearcher<[closure@core::str::<impl str>::trim::{closure#0}]>" = type { %"[closure@core::str::<impl str>::trim::{closure#0}]", { [0 x i8]*, i64 }, %"core::str::iter::CharIndices" }
%"[closure@core::str::<impl str>::trim::{closure#0}]" = type {}
%"core::str::pattern::SearchStep::Reject" = type { [1 x i64], i64, i64 }
%"core::str::pattern::SearchStep::Match" = type { [1 x i64], i64, i64 }
%"[closure@<core::ops::range::Range<usize> as core::slice::index::SliceIndex<[u8]>>::get_unchecked::{closure#0}]" = type { i64*, i64*, { [0 x i8]*, i64 }* }
%"[closure@<core::ops::range::Range<usize> as core::slice::index::SliceIndex<[u8]>>::get_unchecked_mut::{closure#0}]" = type { i64*, i64*, { [0 x i8]*, i64 }* }
%"core::ptr::metadata::PtrRepr<[core::mem::maybe_uninit::MaybeUninit<u8>]>" = type { [2 x i64] }
%"[closure@<core::ops::range::Range<usize> as core::slice::index::SliceIndex<[core::mem::maybe_uninit::MaybeUninit<u8>]>>::get_unchecked_mut::{closure#0}]" = type { i64*, i64*, { [0 x i8]*, i64 }* }
%"core::ptr::metadata::PtrComponents<u8>" = type { {}*, {} }
%"core::ptr::metadata::PtrRepr<u8>" = type { [1 x i64] }
%"core::option::Option<(usize, usize)>" = type { i64, [2 x i64] }
%"core::str::pattern::CharPredicateSearcher<[closure@core::str::<impl str>::trim::{closure#0}]>" = type { %"core::str::pattern::MultiCharEqSearcher<[closure@core::str::<impl str>::trim::{closure#0}]>" }
%"alloc::collections::btree::map::IntoIter<std::ffi::os_str::OsString, core::option::Option<std::ffi::os_str::OsString>>" = type { %"alloc::alloc::Global", %"alloc::collections::btree::navigate::LazyLeafRange<alloc::collections::btree::node::marker::Dying, std::ffi::os_str::OsString, core::option::Option<std::ffi::os_str::OsString>>", i64 }
%"alloc::alloc::Global" = type {}
%"alloc::collections::btree::navigate::LazyLeafRange<alloc::collections::btree::node::marker::Dying, std::ffi::os_str::OsString, core::option::Option<std::ffi::os_str::OsString>>" = type { %"core::option::Option<alloc::collections::btree::navigate::LazyLeafHandle<alloc::collections::btree::node::marker::Dying, std::ffi::os_str::OsString, core::option::Option<std::ffi::os_str::OsString>>>", %"core::option::Option<alloc::collections::btree::navigate::LazyLeafHandle<alloc::collections::btree::node::marker::Dying, std::ffi::os_str::OsString, core::option::Option<std::ffi::os_str::OsString>>>" }
%"core::option::Option<alloc::collections::btree::navigate::LazyLeafHandle<alloc::collections::btree::node::marker::Dying, std::ffi::os_str::OsString, core::option::Option<std::ffi::os_str::OsString>>>" = type { i64, [3 x i64] }
%"alloc::collections::btree::map::BTreeMap<std::ffi::os_str::OsString, core::option::Option<std::ffi::os_str::OsString>>" = type { %"core::mem::manually_drop::ManuallyDrop<alloc::alloc::Global>", %"core::marker::PhantomData<alloc::boxed::Box<(std::ffi::os_str::OsString, core::option::Option<std::ffi::os_str::OsString>)>>", { i64, i64* }, i64 }
%"core::mem::manually_drop::ManuallyDrop<alloc::alloc::Global>" = type { %"alloc::alloc::Global" }
%"core::marker::PhantomData<alloc::boxed::Box<(std::ffi::os_str::OsString, core::option::Option<std::ffi::os_str::OsString>)>>" = type {}
%"core::mem::maybe_uninit::MaybeUninit<alloc::alloc::Global>" = type { [0 x i8] }
%"core::mem::manually_drop::ManuallyDrop<alloc::collections::btree::map::BTreeMap<std::ffi::os_str::OsString, core::option::Option<std::ffi::os_str::OsString>>>" = type { %"alloc::collections::btree::map::BTreeMap<std::ffi::os_str::OsString, core::option::Option<std::ffi::os_str::OsString>>" }
%"alloc::collections::btree::node::Handle<alloc::collections::btree::node::NodeRef<alloc::collections::btree::node::marker::Dying, std::ffi::os_str::OsString, core::option::Option<std::ffi::os_str::OsString>, alloc::collections::btree::node::marker::LeafOrInternal>, alloc::collections::btree::node::marker::KV>" = type { %"core::marker::PhantomData<alloc::collections::btree::node::marker::KV>", { i64, i64* }, i64 }
%"core::marker::PhantomData<alloc::collections::btree::node::marker::KV>" = type {}
%"core::option::Option<alloc::collections::btree::node::Handle<alloc::collections::btree::node::NodeRef<alloc::collections::btree::node::marker::Dying, std::ffi::os_str::OsString, core::option::Option<std::ffi::os_str::OsString>, alloc::collections::btree::node::marker::LeafOrInternal>, alloc::collections::btree::node::marker::KV>>" = type { [1 x i64], {}*, [1 x i64] }
%"core::option::Option<alloc::collections::btree::node::Handle<alloc::collections::btree::node::NodeRef<alloc::collections::btree::node::marker::Dying, std::ffi::os_str::OsString, core::option::Option<std::ffi::os_str::OsString>, alloc::collections::btree::node::marker::LeafOrInternal>, alloc::collections::btree::node::marker::KV>>::Some" = type { %"alloc::collections::btree::node::Handle<alloc::collections::btree::node::NodeRef<alloc::collections::btree::node::marker::Dying, std::ffi::os_str::OsString, core::option::Option<std::ffi::os_str::OsString>, alloc::collections::btree::node::marker::LeafOrInternal>, alloc::collections::btree::node::marker::KV>" }
%"std::io::error::ErrorData<alloc::boxed::Box<std::io::error::Custom>>" = type { i8, [15 x i8] }
%"std::io::error::SimpleMessage" = type { { [0 x i8]*, i64 }, i8, [7 x i8] }
%"std::io::error::Custom" = type { { {}*, [3 x i64]* }, i8, [7 x i8] }
%"[closure@<std::io::error::repr_bitpacked::Repr as core::ops::drop::Drop>::drop::{closure#0}]" = type {}
%"std::io::error::ErrorData<alloc::boxed::Box<std::io::error::Custom>>::Os" = type { [1 x i32], i32 }
%"std::io::error::ErrorData<alloc::boxed::Box<std::io::error::Custom>>::SimpleMessage" = type { [1 x i64], %"std::io::error::SimpleMessage"* }
%"std::io::error::ErrorData<alloc::boxed::Box<std::io::error::Custom>>::Custom" = type { [1 x i64], %"std::io::error::Custom"* }
%"std::io::error::ErrorData<alloc::boxed::Box<std::io::error::Custom>>::Simple" = type { [1 x i8], i8 }
%"core::fmt::UnsafeArg" = type { {} }
%"core::result::Result<alloc::string::String, std::env::VarError>" = type { i64, [3 x i64] }
%"std::ffi::os_str::OsStr" = type { %"std::sys::unix::os_str::Slice" }
%"std::sys::unix::os_str::Slice" = type { [0 x i8] }
%"core::option::Option<std::ffi::os_str::OsString>" = type { {}*, [2 x i64] }
%"std::sys::unix::os_str::Buf" = type { %"alloc::vec::Vec<u8>" }
%"std::process::Command" = type { %"std::sys::unix::process::process_common::Command" }
%"std::sys::unix::process::process_common::Command" = type { { i8*, i64 }, %"alloc::vec::Vec<alloc::ffi::c_str::CString>", %"std::sys::unix::process::process_common::Argv", %"std::sys_common::process::CommandEnv", { i8*, i64 }, %"alloc::vec::Vec<alloc::boxed::Box<dyn core::ops::function::FnMut() -> core::result::Result<(), std::io::error::Error> + core::marker::Send + core::marker::Sync>>", { i32*, i64 }, { i32, i32 }, { i32, i32 }, { i32, i32 }, { i32, i32 }, { i32, i32 }, { i32, i32 }, i8, i8, [6 x i8] }
%"alloc::vec::Vec<alloc::ffi::c_str::CString>" = type { { i64*, i64 }, i64 }
%"std::sys::unix::process::process_common::Argv" = type { %"alloc::vec::Vec<*const i8>" }
%"alloc::vec::Vec<*const i8>" = type { { i64*, i64 }, i64 }
%"std::sys_common::process::CommandEnv" = type { %"alloc::collections::btree::map::BTreeMap<std::ffi::os_str::OsString, core::option::Option<std::ffi::os_str::OsString>>", i8, i8, [6 x i8] }
%"alloc::vec::Vec<alloc::boxed::Box<dyn core::ops::function::FnMut() -> core::result::Result<(), std::io::error::Error> + core::marker::Send + core::marker::Sync>>" = type { { i64*, i64 }, i64 }
%"std::ffi::os_str::OsString" = type { %"std::sys::unix::os_str::Buf" }
%"core::fmt::Formatter" = type { { i64, i64 }, { i64, i64 }, { {}*, [3 x i64]* }, i32, i32, i8, [7 x i8] }
%"core::str::pattern::MultiCharEqPattern<[closure@core::str::<impl str>::trim::{closure#0}]>" = type { %"[closure@core::str::<impl str>::trim::{closure#0}]" }
%"core::fmt::Opaque" = type {}
%"alloc::borrow::Cow<str>" = type { i64, [3 x i64] }
%"core::fmt::Arguments" = type { { [0 x { [0 x i8]*, i64 }]*, i64 }, { i64*, i64 }, { [0 x { i8*, i64* }]*, i64 } }
%"core::mem::maybe_uninit::MaybeUninit<core::option::Option<std::ffi::os_str::OsString>>" = type { [3 x i64] }
%"core::mem::maybe_uninit::MaybeUninit<std::ffi::os_str::OsString>" = type { [3 x i64] }
%"core::mem::maybe_uninit::MaybeUninit<core::option::Option<alloc::collections::btree::navigate::LazyLeafHandle<alloc::collections::btree::node::marker::Dying, std::ffi::os_str::OsString, core::option::Option<std::ffi::os_str::OsString>>>>" = type { [4 x i64] }
%"core::mem::manually_drop::ManuallyDrop<core::option::Option<alloc::collections::btree::navigate::LazyLeafHandle<alloc::collections::btree::node::marker::Dying, std::ffi::os_str::OsString, core::option::Option<std::ffi::os_str::OsString>>>>" = type { %"core::option::Option<alloc::collections::btree::navigate::LazyLeafHandle<alloc::collections::btree::node::marker::Dying, std::ffi::os_str::OsString, core::option::Option<std::ffi::os_str::OsString>>>" }
%"[closure@alloc::str::join_generic_copy<str, u8, &str>::{closure#1}]" = type {}
%"std::env::VarError" = type { {}*, [2 x i64] }
%"std::env::VarError::NotUnicode" = type { %"std::ffi::os_str::OsString" }
%"std::process::Output" = type { %"alloc::vec::Vec<u8>", %"alloc::vec::Vec<u8>", i32, [1 x i32] }
%"alloc::string::FromUtf8Error" = type { %"alloc::vec::Vec<u8>", %"core::str::error::Utf8Error" }
%"core::str::error::Utf8Error" = type { i64, { i8, i8 }, [6 x i8] }
%"alloc::borrow::Cow<str>::Owned" = type { [1 x i64], %"alloc::string::String" }
%"alloc::collections::btree::mem::replace::PanicGuard" = type {}
%"core::option::Option<std::ffi::os_str::OsString>::Some" = type { %"std::ffi::os_str::OsString" }
%"core::result::Result<alloc::string::String, std::env::VarError>::Ok" = type { [1 x i64], %"alloc::string::String" }
%"core::result::Result<alloc::string::String, std::env::VarError>::Err" = type { [1 x i64], %"std::env::VarError" }
%"core::option::Option<core::convert::Infallible>::None" = type {}
%"core::option::Option<(usize, usize)>::Some" = type { [1 x i64], { i64, i64 } }
%"core::result::Result<i32, core::num::error::ParseIntError>" = type { i8, [7 x i8] }
%"core::result::Result<u32, core::num::error::ParseIntError>" = type { i8, [7 x i8] }
%"core::result::Result<u64, core::num::error::ParseIntError>" = type { i8, [15 x i8] }
%"core::str::iter::Split<char>" = type { %"core::str::iter::SplitInternal<char>" }
%"core::str::iter::SplitInternal<char>" = type { i64, i64, %"core::str::pattern::CharSearcher", i8, i8, [6 x i8] }
%"core::str::pattern::CharSearcher" = type { { [0 x i8]*, i64 }, i64, i64, i64, i32, [4 x i8] }
%"core::str::iter::Split<[char; 2]>" = type { %"core::str::iter::SplitInternal<[char; 2]>" }
%"core::str::iter::SplitInternal<[char; 2]>" = type { i64, i64, %"core::str::pattern::CharArraySearcher<2>", i8, i8, [6 x i8] }
%"core::str::pattern::CharArraySearcher<2>" = type { %"core::str::pattern::MultiCharEqSearcher<[char; 2]>" }
%"core::str::pattern::MultiCharEqSearcher<[char; 2]>" = type { { [0 x i8]*, i64 }, %"core::str::iter::CharIndices", [2 x i32] }
%"core::result::Result<&str, usize>" = type { i64, [2 x i64] }
%"core::ops::control_flow::ControlFlow<core::result::Result<core::convert::Infallible, usize>, &str>" = type { i64, [2 x i64] }
%"core::ops::control_flow::ControlFlow<core::result::Result<core::convert::Infallible, usize>, &str>::Continue" = type { [1 x i64], { [0 x i8]*, i64 } }
%"core::ops::control_flow::ControlFlow<core::result::Result<core::convert::Infallible, usize>, &str>::Break" = type { [1 x i64], i64 }
%"core::alloc::layout::LayoutError" = type {}
%"core::result::Result<core::convert::Infallible, core::alloc::layout::LayoutError>::Err" = type { %"core::alloc::layout::LayoutError" }
%"[closure@core::intrinsics::copy_nonoverlapping<core::mem::maybe_uninit::MaybeUninit<u8>>::{closure#0}]" = type { i8**, i8**, i64* }
%"core::option::Option<alloc::collections::btree::node::Handle<alloc::collections::btree::node::NodeRef<alloc::collections::btree::node::marker::Dying, std::ffi::os_str::OsString, core::option::Option<std::ffi::os_str::OsString>, alloc::collections::btree::node::marker::Internal>, alloc::collections::btree::node::marker::Edge>>" = type { [1 x i64], {}*, [1 x i64] }
%"alloc::collections::btree::node::Handle<alloc::collections::btree::node::NodeRef<alloc::collections::btree::node::marker::Dying, std::ffi::os_str::OsString, core::option::Option<std::ffi::os_str::OsString>, alloc::collections::btree::node::marker::Internal>, alloc::collections::btree::node::marker::Edge>" = type { %"core::marker::PhantomData<alloc::collections::btree::node::marker::Edge>", { i64, i64* }, i64 }
%"core::marker::PhantomData<alloc::collections::btree::node::marker::Edge>" = type {}
%"core::option::Option<alloc::collections::btree::node::Handle<alloc::collections::btree::node::NodeRef<alloc::collections::btree::node::marker::Dying, std::ffi::os_str::OsString, core::option::Option<std::ffi::os_str::OsString>, alloc::collections::btree::node::marker::Internal>, alloc::collections::btree::node::marker::Edge>>::Some" = type { %"alloc::collections::btree::node::Handle<alloc::collections::btree::node::NodeRef<alloc::collections::btree::node::marker::Dying, std::ffi::os_str::OsString, core::option::Option<std::ffi::os_str::OsString>, alloc::collections::btree::node::marker::Internal>, alloc::collections::btree::node::marker::Edge>" }
%"[closure@<core::str::iter::Chars as core::iter::traits::double_ended::DoubleEndedIterator>::next_back::{closure#0}]" = type {}
%"[closure@<core::str::iter::Chars as core::iter::traits::iterator::Iterator>::next::{closure#0}]" = type {}
%"core::result::Result<&str, usize>::Err" = type { [1 x i64], i64 }
%"core::result::Result<&str, usize>::Ok" = type { [1 x i64], { [0 x i8]*, i64 } }
%"[closure@/home/calvin/.cargo/registry/src/github.com-1ecc6299db9ec823/libc-0.2.175/build.rs:239:45: 239:50]" = type {}
%"[closure@/home/calvin/.cargo/registry/src/github.com-1ecc6299db9ec823/libc-0.2.175/build.rs:286:40: 286:43]" = type {}
%"[closure@/home/calvin/.cargo/registry/src/github.com-1ecc6299db9ec823/libc-0.2.175/build.rs:285:40: 285:43]" = type {}
%"[closure@/home/calvin/.cargo/registry/src/github.com-1ecc6299db9ec823/libc-0.2.175/build.rs:284:40: 284:43]" = type {}
%"core::result::Result<u64, core::num::error::ParseIntError>::Ok" = type { [1 x i64], i64 }
%"core::result::Result<u64, core::num::error::ParseIntError>::Err" = type { [1 x i8], i8 }
%"core::option::Option<alloc::string::String>" = type { {}*, [2 x i64] }
%"core::result::Result<alloc::string::String, alloc::string::FromUtf8Error>" = type { i64, [5 x i64] }
%"core::result::Result<alloc::string::String, alloc::string::FromUtf8Error>::Ok" = type { [1 x i64], %"alloc::string::String" }
%"core::option::Option<alloc::string::String>::Some" = type { %"alloc::string::String" }
%"core::result::Result<alloc::string::String, alloc::string::FromUtf8Error>::Err" = type { [1 x i64], %"alloc::string::FromUtf8Error" }
%"core::result::Result<&str, core::str::error::Utf8Error>" = type { i64, [2 x i64] }
%"core::result::Result<&str, core::str::error::Utf8Error>::Ok" = type { [1 x i64], { [0 x i8]*, i64 } }
%"core::result::Result<&str, core::str::error::Utf8Error>::Err" = type { [1 x i64], %"core::str::error::Utf8Error" }
%"core::result::Result<u32, core::num::error::ParseIntError>::Ok" = type { [1 x i32], i32 }
%"core::result::Result<u32, core::num::error::ParseIntError>::Err" = type { [1 x i8], i8 }
%"core::option::Option<std::process::Output>" = type { {}*, [6 x i64] }
%"core::result::Result<std::process::Output, std::io::error::Error>" = type { i64, [7 x i64] }
%"core::result::Result<std::process::Output, std::io::error::Error>::Ok" = type { [1 x i64], %"std::process::Output" }
%"core::option::Option<std::process::Output>::Some" = type { %"std::process::Output" }
%"core::result::Result<std::process::Output, std::io::error::Error>::Err" = type { [1 x i64], i8* }
%"core::result::Result<i32, core::num::error::ParseIntError>::Ok" = type { [1 x i32], i32 }
%"core::result::Result<i32, core::num::error::ParseIntError>::Err" = type { [1 x i8], i8 }
%"core::result::Result<core::alloc::layout::Layout, alloc::collections::TryReserveErrorKind>" = type { i64, [2 x i64] }
%"[closure@alloc::raw_vec::finish_grow<alloc::alloc::Global>::{closure#0}]" = type {}
%"core::result::Result<core::alloc::layout::Layout, alloc::collections::TryReserveErrorKind>::Ok" = type { [1 x i64], { i64, i64 } }
%"core::result::Result<core::alloc::layout::Layout, alloc::collections::TryReserveErrorKind>::Err" = type { [1 x i64], { i64, i64 } }
%"core::result::Result<core::ptr::non_null::NonNull<[u8]>, alloc::collections::TryReserveError>" = type { i64, [2 x i64] }
%"core::alloc::AllocError" = type {}
%"core::result::Result<core::ptr::non_null::NonNull<[u8]>, alloc::collections::TryReserveError>::Ok" = type { [1 x i64], { i8*, i64 } }
%"core::result::Result<core::ptr::non_null::NonNull<[u8]>, alloc::collections::TryReserveError>::Err" = type { [1 x i64], { i64, i64 } }
%"[closure@alloc::raw_vec::handle_reserve::{closure#0}]" = type {}
%"core::result::Result<(), alloc::collections::TryReserveErrorKind>::Ok" = type { {} }
%"core::option::Option<core::fmt::Arguments>" = type { {}*, [5 x i64] }
%"alloc::collections::btree::node::Handle<alloc::collections::btree::node::NodeRef<alloc::collections::btree::node::marker::Dying, std::ffi::os_str::OsString, core::option::Option<std::ffi::os_str::OsString>, alloc::collections::btree::node::marker::Leaf>, alloc::collections::btree::node::marker::Edge>" = type { %"core::marker::PhantomData<alloc::collections::btree::node::marker::Edge>", { i64, i64* }, i64 }
%"core::mem::maybe_uninit::MaybeUninit<alloc::collections::btree::node::Handle<alloc::collections::btree::node::NodeRef<alloc::collections::btree::node::marker::Dying, std::ffi::os_str::OsString, core::option::Option<std::ffi::os_str::OsString>, alloc::collections::btree::node::marker::Leaf>, alloc::collections::btree::node::marker::Edge>>" = type { [3 x i64] }
%"[closure@alloc::collections::btree::navigate::<impl alloc::collections::btree::node::Handle<alloc::collections::btree::node::NodeRef<alloc::collections::btree::node::marker::Dying, std::ffi::os_str::OsString, core::option::Option<std::ffi::os_str::OsString>, alloc::collections::btree::node::marker::Leaf>, alloc::collections::btree::node::marker::Edge>>::deallocating_next_unchecked<alloc::alloc::Global>::{closure#0}]" = type { %"alloc::alloc::Global" }
%"core::mem::manually_drop::ManuallyDrop<alloc::collections::btree::node::Handle<alloc::collections::btree::node::NodeRef<alloc::collections::btree::node::marker::Dying, std::ffi::os_str::OsString, core::option::Option<std::ffi::os_str::OsString>, alloc::collections::btree::node::marker::Leaf>, alloc::collections::btree::node::marker::Edge>>" = type { %"alloc::collections::btree::node::Handle<alloc::collections::btree::node::NodeRef<alloc::collections::btree::node::marker::Dying, std::ffi::os_str::OsString, core::option::Option<std::ffi::os_str::OsString>, alloc::collections::btree::node::marker::Leaf>, alloc::collections::btree::node::marker::Edge>" }
%"core::result::Result<alloc::collections::btree::node::Handle<alloc::collections::btree::node::NodeRef<alloc::collections::btree::node::marker::Dying, std::ffi::os_str::OsString, core::option::Option<std::ffi::os_str::OsString>, alloc::collections::btree::node::marker::Internal>, alloc::collections::btree::node::marker::Edge>, alloc::collections::btree::node::NodeRef<alloc::collections::btree::node::marker::Dying, std::ffi::os_str::OsString, core::option::Option<std::ffi::os_str::OsString>, alloc::collections::btree::node::marker::LeafOrInternal>>" = type { i64, [3 x i64] }
%"core::result::Result<alloc::collections::btree::node::Handle<alloc::collections::btree::node::NodeRef<alloc::collections::btree::node::marker::Dying, std::ffi::os_str::OsString, core::option::Option<std::ffi::os_str::OsString>, alloc::collections::btree::node::marker::Internal>, alloc::collections::btree::node::marker::Edge>, alloc::collections::btree::node::NodeRef<alloc::collections::btree::node::marker::Dying, std::ffi::os_str::OsString, core::option::Option<std::ffi::os_str::OsString>, alloc::collections::btree::node::marker::LeafOrInternal>>::Ok" = type { [1 x i64], %"alloc::collections::btree::node::Handle<alloc::collections::btree::node::NodeRef<alloc::collections::btree::node::marker::Dying, std::ffi::os_str::OsString, core::option::Option<std::ffi::os_str::OsString>, alloc::collections::btree::node::marker::Internal>, alloc::collections::btree::node::marker::Edge>" }
%"alloc::collections::btree::node::LeafNode<std::ffi::os_str::OsString, core::option::Option<std::ffi::os_str::OsString>>" = type { i64*, [11 x %"core::mem::maybe_uninit::MaybeUninit<std::ffi::os_str::OsString>"], [11 x %"core::mem::maybe_uninit::MaybeUninit<core::option::Option<std::ffi::os_str::OsString>>"], i16, i16, [2 x i16] }
%"alloc::collections::btree::node::Handle<alloc::collections::btree::node::NodeRef<alloc::collections::btree::node::marker::Dying, std::ffi::os_str::OsString, core::option::Option<std::ffi::os_str::OsString>, alloc::collections::btree::node::marker::Internal>, alloc::collections::btree::node::marker::KV>" = type { %"core::marker::PhantomData<alloc::collections::btree::node::marker::KV>", { i64, i64* }, i64 }
%"alloc::collections::btree::node::Handle<alloc::collections::btree::node::NodeRef<alloc::collections::btree::node::marker::Dying, std::ffi::os_str::OsString, core::option::Option<std::ffi::os_str::OsString>, alloc::collections::btree::node::marker::Leaf>, alloc::collections::btree::node::marker::KV>" = type { %"core::marker::PhantomData<alloc::collections::btree::node::marker::KV>", { i64, i64* }, i64 }
%"alloc::collections::btree::node::Handle<alloc::collections::btree::node::NodeRef<alloc::collections::btree::node::marker::Dying, std::ffi::os_str::OsString, core::option::Option<std::ffi::os_str::OsString>, alloc::collections::btree::node::marker::LeafOrInternal>, alloc::collections::btree::node::marker::Edge>" = type { %"core::marker::PhantomData<alloc::collections::btree::node::marker::Edge>", { i64, i64* }, i64 }
%"core::result::Result<alloc::collections::btree::node::Handle<alloc::collections::btree::node::NodeRef<alloc::collections::btree::node::marker::Dying, std::ffi::os_str::OsString, core::option::Option<std::ffi::os_str::OsString>, alloc::collections::btree::node::marker::LeafOrInternal>, alloc::collections::btree::node::marker::KV>, alloc::collections::btree::node::Handle<alloc::collections::btree::node::NodeRef<alloc::collections::btree::node::marker::Dying, std::ffi::os_str::OsString, core::option::Option<std::ffi::os_str::OsString>, alloc::collections::btree::node::marker::LeafOrInternal>, alloc::collections::btree::node::marker::Edge>>" = type { i64, [3 x i64] }
%"core::result::Result<alloc::collections::btree::node::Handle<alloc::collections::btree::node::NodeRef<alloc::collections::btree::node::marker::Dying, std::ffi::os_str::OsString, core::option::Option<std::ffi::os_str::OsString>, alloc::collections::btree::node::marker::LeafOrInternal>, alloc::collections::btree::node::marker::KV>, alloc::collections::btree::node::Handle<alloc::collections::btree::node::NodeRef<alloc::collections::btree::node::marker::Dying, std::ffi::os_str::OsString, core::option::Option<std::ffi::os_str::OsString>, alloc::collections::btree::node::marker::LeafOrInternal>, alloc::collections::btree::node::marker::Edge>>::Err" = type { [1 x i64], %"alloc::collections::btree::node::Handle<alloc::collections::btree::node::NodeRef<alloc::collections::btree::node::marker::Dying, std::ffi::os_str::OsString, core::option::Option<std::ffi::os_str::OsString>, alloc::collections::btree::node::marker::LeafOrInternal>, alloc::collections::btree::node::marker::Edge>" }
%"core::result::Result<alloc::collections::btree::node::Handle<alloc::collections::btree::node::NodeRef<alloc::collections::btree::node::marker::Dying, std::ffi::os_str::OsString, core::option::Option<std::ffi::os_str::OsString>, alloc::collections::btree::node::marker::LeafOrInternal>, alloc::collections::btree::node::marker::KV>, alloc::collections::btree::node::Handle<alloc::collections::btree::node::NodeRef<alloc::collections::btree::node::marker::Dying, std::ffi::os_str::OsString, core::option::Option<std::ffi::os_str::OsString>, alloc::collections::btree::node::marker::LeafOrInternal>, alloc::collections::btree::node::marker::Edge>>::Ok" = type { [1 x i64], %"alloc::collections::btree::node::Handle<alloc::collections::btree::node::NodeRef<alloc::collections::btree::node::marker::Dying, std::ffi::os_str::OsString, core::option::Option<std::ffi::os_str::OsString>, alloc::collections::btree::node::marker::LeafOrInternal>, alloc::collections::btree::node::marker::KV>" }
%"alloc::collections::btree::node::ForceResult<alloc::collections::btree::node::Handle<alloc::collections::btree::node::NodeRef<alloc::collections::btree::node::marker::Dying, std::ffi::os_str::OsString, core::option::Option<std::ffi::os_str::OsString>, alloc::collections::btree::node::marker::Leaf>, alloc::collections::btree::node::marker::KV>, alloc::collections::btree::node::Handle<alloc::collections::btree::node::NodeRef<alloc::collections::btree::node::marker::Dying, std::ffi::os_str::OsString, core::option::Option<std::ffi::os_str::OsString>, alloc::collections::btree::node::marker::Internal>, alloc::collections::btree::node::marker::KV>>" = type { i64, [3 x i64] }
%"alloc::collections::btree::node::ForceResult<alloc::collections::btree::node::NodeRef<alloc::collections::btree::node::marker::Dying, std::ffi::os_str::OsString, core::option::Option<std::ffi::os_str::OsString>, alloc::collections::btree::node::marker::Leaf>, alloc::collections::btree::node::NodeRef<alloc::collections::btree::node::marker::Dying, std::ffi::os_str::OsString, core::option::Option<std::ffi::os_str::OsString>, alloc::collections::btree::node::marker::Internal>>" = type { i64, [2 x i64] }
%"alloc::collections::btree::node::ForceResult<alloc::collections::btree::node::NodeRef<alloc::collections::btree::node::marker::Dying, std::ffi::os_str::OsString, core::option::Option<std::ffi::os_str::OsString>, alloc::collections::btree::node::marker::Leaf>, alloc::collections::btree::node::NodeRef<alloc::collections::btree::node::marker::Dying, std::ffi::os_str::OsString, core::option::Option<std::ffi::os_str::OsString>, alloc::collections::btree::node::marker::Internal>>::Leaf" = type { [1 x i64], { i64, i64* } }
%"alloc::collections::btree::node::ForceResult<alloc::collections::btree::node::Handle<alloc::collections::btree::node::NodeRef<alloc::collections::btree::node::marker::Dying, std::ffi::os_str::OsString, core::option::Option<std::ffi::os_str::OsString>, alloc::collections::btree::node::marker::Leaf>, alloc::collections::btree::node::marker::KV>, alloc::collections::btree::node::Handle<alloc::collections::btree::node::NodeRef<alloc::collections::btree::node::marker::Dying, std::ffi::os_str::OsString, core::option::Option<std::ffi::os_str::OsString>, alloc::collections::btree::node::marker::Internal>, alloc::collections::btree::node::marker::KV>>::Leaf" = type { [1 x i64], %"alloc::collections::btree::node::Handle<alloc::collections::btree::node::NodeRef<alloc::collections::btree::node::marker::Dying, std::ffi::os_str::OsString, core::option::Option<std::ffi::os_str::OsString>, alloc::collections::btree::node::marker::Leaf>, alloc::collections::btree::node::marker::KV>" }
%"alloc::collections::btree::node::ForceResult<alloc::collections::btree::node::NodeRef<alloc::collections::btree::node::marker::Dying, std::ffi::os_str::OsString, core::option::Option<std::ffi::os_str::OsString>, alloc::collections::btree::node::marker::Leaf>, alloc::collections::btree::node::NodeRef<alloc::collections::btree::node::marker::Dying, std::ffi::os_str::OsString, core::option::Option<std::ffi::os_str::OsString>, alloc::collections::btree::node::marker::Internal>>::Internal" = type { [1 x i64], { i64, i64* } }
%"alloc::collections::btree::node::ForceResult<alloc::collections::btree::node::Handle<alloc::collections::btree::node::NodeRef<alloc::collections::btree::node::marker::Dying, std::ffi::os_str::OsString, core::option::Option<std::ffi::os_str::OsString>, alloc::collections::btree::node::marker::Leaf>, alloc::collections::btree::node::marker::KV>, alloc::collections::btree::node::Handle<alloc::collections::btree::node::NodeRef<alloc::collections::btree::node::marker::Dying, std::ffi::os_str::OsString, core::option::Option<std::ffi::os_str::OsString>, alloc::collections::btree::node::marker::Internal>, alloc::collections::btree::node::marker::KV>>::Internal" = type { [1 x i64], %"alloc::collections::btree::node::Handle<alloc::collections::btree::node::NodeRef<alloc::collections::btree::node::marker::Dying, std::ffi::os_str::OsString, core::option::Option<std::ffi::os_str::OsString>, alloc::collections::btree::node::marker::Internal>, alloc::collections::btree::node::marker::KV>" }
%"alloc::collections::btree::node::InternalNode<std::ffi::os_str::OsString, core::option::Option<std::ffi::os_str::OsString>>" = type { %"alloc::collections::btree::node::LeafNode<std::ffi::os_str::OsString, core::option::Option<std::ffi::os_str::OsString>>", [12 x i8*] }
%"core::result::Result<alloc::collections::btree::node::Handle<alloc::collections::btree::node::NodeRef<alloc::collections::btree::node::marker::Dying, std::ffi::os_str::OsString, core::option::Option<std::ffi::os_str::OsString>, alloc::collections::btree::node::marker::Internal>, alloc::collections::btree::node::marker::Edge>, alloc::collections::btree::node::NodeRef<alloc::collections::btree::node::marker::Dying, std::ffi::os_str::OsString, core::option::Option<std::ffi::os_str::OsString>, alloc::collections::btree::node::marker::LeafOrInternal>>::Err" = type { [1 x i64], { i64, i64* } }
%"alloc::collections::btree::navigate::LazyLeafHandle<alloc::collections::btree::node::marker::Dying, std::ffi::os_str::OsString, core::option::Option<std::ffi::os_str::OsString>>" = type { i64, [3 x i64] }
%"alloc::collections::btree::navigate::LazyLeafHandle<alloc::collections::btree::node::marker::Dying, std::ffi::os_str::OsString, core::option::Option<std::ffi::os_str::OsString>>::Root" = type { [1 x i64], { i64, i64* } }
%"core::option::Option<alloc::collections::btree::navigate::LazyLeafHandle<alloc::collections::btree::node::marker::Dying, std::ffi::os_str::OsString, core::option::Option<std::ffi::os_str::OsString>>>::Some" = type { %"alloc::collections::btree::navigate::LazyLeafHandle<alloc::collections::btree::node::marker::Dying, std::ffi::os_str::OsString, core::option::Option<std::ffi::os_str::OsString>>" }
%"core::option::Option<(alloc::collections::btree::node::Handle<alloc::collections::btree::node::NodeRef<alloc::collections::btree::node::marker::Dying, std::ffi::os_str::OsString, core::option::Option<std::ffi::os_str::OsString>, alloc::collections::btree::node::marker::Leaf>, alloc::collections::btree::node::marker::Edge>, alloc::collections::btree::node::Handle<alloc::collections::btree::node::NodeRef<alloc::collections::btree::node::marker::Dying, std::ffi::os_str::OsString, core::option::Option<std::ffi::os_str::OsString>, alloc::collections::btree::node::marker::LeafOrInternal>, alloc::collections::btree::node::marker::KV>)>" = type { [1 x i64], {}*, [4 x i64] }
%"core::mem::maybe_uninit::MaybeUninit<alloc::collections::btree::node::Handle<alloc::collections::btree::node::NodeRef<alloc::collections::btree::node::marker::Dying, std::ffi::os_str::OsString, core::option::Option<std::ffi::os_str::OsString>, alloc::collections::btree::node::marker::LeafOrInternal>, alloc::collections::btree::node::marker::KV>>" = type { [3 x i64] }
%"core::mem::manually_drop::ManuallyDrop<alloc::collections::btree::node::Handle<alloc::collections::btree::node::NodeRef<alloc::collections::btree::node::marker::Dying, std::ffi::os_str::OsString, core::option::Option<std::ffi::os_str::OsString>, alloc::collections::btree::node::marker::LeafOrInternal>, alloc::collections::btree::node::marker::KV>>" = type { %"alloc::collections::btree::node::Handle<alloc::collections::btree::node::NodeRef<alloc::collections::btree::node::marker::Dying, std::ffi::os_str::OsString, core::option::Option<std::ffi::os_str::OsString>, alloc::collections::btree::node::marker::LeafOrInternal>, alloc::collections::btree::node::marker::KV>" }
%"core::option::Option<(alloc::collections::btree::node::Handle<alloc::collections::btree::node::NodeRef<alloc::collections::btree::node::marker::Dying, std::ffi::os_str::OsString, core::option::Option<std::ffi::os_str::OsString>, alloc::collections::btree::node::marker::Leaf>, alloc::collections::btree::node::marker::Edge>, alloc::collections::btree::node::Handle<alloc::collections::btree::node::NodeRef<alloc::collections::btree::node::marker::Dying, std::ffi::os_str::OsString, core::option::Option<std::ffi::os_str::OsString>, alloc::collections::btree::node::marker::LeafOrInternal>, alloc::collections::btree::node::marker::KV>)>::Some" = type { { %"alloc::collections::btree::node::Handle<alloc::collections::btree::node::NodeRef<alloc::collections::btree::node::marker::Dying, std::ffi::os_str::OsString, core::option::Option<std::ffi::os_str::OsString>, alloc::collections::btree::node::marker::Leaf>, alloc::collections::btree::node::marker::Edge>", %"alloc::collections::btree::node::Handle<alloc::collections::btree::node::NodeRef<alloc::collections::btree::node::marker::Dying, std::ffi::os_str::OsString, core::option::Option<std::ffi::os_str::OsString>, alloc::collections::btree::node::marker::LeafOrInternal>, alloc::collections::btree::node::marker::KV>" } }
%"alloc::collections::btree::navigate::LazyLeafHandle<alloc::collections::btree::node::marker::Dying, std::ffi::os_str::OsString, core::option::Option<std::ffi::os_str::OsString>>::Edge" = type { [1 x i64], %"alloc::collections::btree::node::Handle<alloc::collections::btree::node::NodeRef<alloc::collections::btree::node::marker::Dying, std::ffi::os_str::OsString, core::option::Option<std::ffi::os_str::OsString>, alloc::collections::btree::node::marker::Leaf>, alloc::collections::btree::node::marker::Edge>" }
%"core::option::Option<alloc::collections::btree::node::Handle<alloc::collections::btree::node::NodeRef<alloc::collections::btree::node::marker::Dying, std::ffi::os_str::OsString, core::option::Option<std::ffi::os_str::OsString>, alloc::collections::btree::node::marker::Leaf>, alloc::collections::btree::node::marker::Edge>>" = type { [1 x i64], {}*, [1 x i64] }
%"core::ops::control_flow::ControlFlow<core::option::Option<core::convert::Infallible>, alloc::collections::btree::navigate::LazyLeafHandle<alloc::collections::btree::node::marker::Dying, std::ffi::os_str::OsString, core::option::Option<std::ffi::os_str::OsString>>>" = type { i64, [3 x i64] }
%"core::ops::control_flow::ControlFlow<core::option::Option<core::convert::Infallible>, alloc::collections::btree::navigate::LazyLeafHandle<alloc::collections::btree::node::marker::Dying, std::ffi::os_str::OsString, core::option::Option<std::ffi::os_str::OsString>>>::Continue" = type { %"alloc::collections::btree::navigate::LazyLeafHandle<alloc::collections::btree::node::marker::Dying, std::ffi::os_str::OsString, core::option::Option<std::ffi::os_str::OsString>>" }
%"core::option::Option<alloc::collections::btree::node::Handle<alloc::collections::btree::node::NodeRef<alloc::collections::btree::node::marker::Dying, std::ffi::os_str::OsString, core::option::Option<std::ffi::os_str::OsString>, alloc::collections::btree::node::marker::Leaf>, alloc::collections::btree::node::marker::Edge>>::Some" = type { %"alloc::collections::btree::node::Handle<alloc::collections::btree::node::NodeRef<alloc::collections::btree::node::marker::Dying, std::ffi::os_str::OsString, core::option::Option<std::ffi::os_str::OsString>, alloc::collections::btree::node::marker::Leaf>, alloc::collections::btree::node::marker::Edge>" }
%"[closure@core::intrinsics::copy_nonoverlapping<u8>::{closure#0}]" = type { i8**, i8**, i64* }
%"core::result::Result<core::convert::Infallible, core::alloc::AllocError>::Err" = type { %"core::alloc::AllocError" }
%"core::option::Option<(core::ptr::non_null::NonNull<u8>, core::alloc::layout::Layout)>" = type { [2 x i64], i64 }
%"core::ops::control_flow::ControlFlow<core::result::Result<core::convert::Infallible, alloc::collections::TryReserveErrorKind>, core::alloc::layout::Layout>" = type { i64, [2 x i64] }
%"core::ops::control_flow::ControlFlow<core::result::Result<core::convert::Infallible, alloc::collections::TryReserveErrorKind>, core::alloc::layout::Layout>::Continue" = type { [1 x i64], { i64, i64 } }
%"core::ops::control_flow::ControlFlow<core::result::Result<core::convert::Infallible, alloc::collections::TryReserveErrorKind>, core::alloc::layout::Layout>::Break" = type { [1 x i64], { i64, i64 } }
%"core::option::Option<(core::ptr::non_null::NonNull<u8>, core::alloc::layout::Layout)>::Some" = type { { i8*, { i64, i64 } } }
%"core::ops::control_flow::ControlFlow<core::result::Result<core::convert::Infallible, alloc::collections::TryReserveError>, core::ptr::non_null::NonNull<[u8]>>" = type { i64, [2 x i64] }
%"core::result::Result<usize, alloc::collections::TryReserveErrorKind>" = type { i64, [2 x i64] }
%"core::ops::control_flow::ControlFlow<core::result::Result<core::convert::Infallible, alloc::collections::TryReserveErrorKind>, usize>" = type { i64, [2 x i64] }
%"core::result::Result<usize, alloc::collections::TryReserveErrorKind>::Err" = type { [1 x i64], { i64, i64 } }
%"core::result::Result<usize, alloc::collections::TryReserveErrorKind>::Ok" = type { [1 x i64], i64 }
%"core::ops::control_flow::ControlFlow<core::result::Result<core::convert::Infallible, alloc::collections::TryReserveErrorKind>, usize>::Continue" = type { [1 x i64], i64 }
%"core::ops::control_flow::ControlFlow<core::result::Result<core::convert::Infallible, alloc::collections::TryReserveErrorKind>, usize>::Break" = type { [1 x i64], { i64, i64 } }
%"core::ops::control_flow::ControlFlow<core::result::Result<core::convert::Infallible, alloc::collections::TryReserveError>, core::ptr::non_null::NonNull<[u8]>>::Continue" = type { [1 x i64], { i8*, i64 } }
%"core::ops::control_flow::ControlFlow<core::result::Result<core::convert::Infallible, alloc::collections::TryReserveError>, core::ptr::non_null::NonNull<[u8]>>::Break" = type { [1 x i64], { i64, i64 } }
%"alloc::borrow::Cow<str>::Borrowed" = type { [1 x i64], { [0 x i8]*, i64 } }
%"core::ptr::metadata::PtrRepr<[alloc::boxed::Box<dyn core::ops::function::FnMut() -> core::result::Result<(), std::io::error::Error> + core::marker::Send + core::marker::Sync>]>" = type { [2 x i64] }
%"core::ptr::metadata::PtrRepr<[*const i8]>" = type { [2 x i64] }
%"core::ptr::metadata::PtrRepr<[alloc::ffi::c_str::CString]>" = type { [2 x i64] }
%"core::str::pattern::MultiCharEqPattern<[char; 2]>" = type { [2 x i32] }
%"core::ops::control_flow::ControlFlow<core::option::Option<core::convert::Infallible>, std::process::Output>" = type { {}*, [6 x i64] }
%"core::ops::control_flow::ControlFlow<core::option::Option<core::convert::Infallible>, std::process::Output>::Continue" = type { %"std::process::Output" }
%"core::ops::control_flow::ControlFlow<core::option::Option<core::convert::Infallible>, alloc::string::String>" = type { {}*, [2 x i64] }
%"core::ops::control_flow::ControlFlow<core::option::Option<core::convert::Infallible>, alloc::string::String>::Continue" = type { %"alloc::string::String" }
%"core::mem::maybe_uninit::MaybeUninit<alloc::collections::btree::map::BTreeMap<std::ffi::os_str::OsString, core::option::Option<std::ffi::os_str::OsString>>>" = type { [3 x i64] }
%"core::option::Option<core::fmt::Arguments>::Some" = type { %"core::fmt::Arguments" }
%"unwind::libunwind::_Unwind_Exception" = type { i64, void (i32, %"unwind::libunwind::_Unwind_Exception"*)*, [6 x i64] }
%"unwind::libunwind::_Unwind_Context" = type { [0 x i8] }

@alloc513 = private unnamed_addr constant <{ [40 x i8] }> <{ [40 x i8] c"internal error: entered unreachable code" }>, align 1
@alloc514 = private unnamed_addr constant <{ [90 x i8] }> <{ [90 x i8] c"/rustc/d394408fb38c4de61f765a3ed5189d2731a1da91/library/std/src/io/error/repr_bitpacked.rs" }>, align 1
@alloc515 = private unnamed_addr constant <{ i8*, [16 x i8] }> <{ i8* getelementptr inbounds (<{ [90 x i8] }>, <{ [90 x i8] }>* @alloc514, i32 0, i32 0, i32 0), [16 x i8] c"Z\00\00\00\00\00\00\00\18\01\00\00\0D\00\00\00" }>, align 8
@vtable.0 = private unnamed_addr constant <{ i8*, [16 x i8], i8*, i8*, i8* }> <{ i8* bitcast (void (i64**)* @"_ZN4core3ptr85drop_in_place$LT$std..rt..lang_start$LT$$LP$$RP$$GT$..$u7b$$u7b$closure$u7d$$u7d$$GT$17h5cc1347c42b5cc74E" to i8*), [16 x i8] c"\08\00\00\00\00\00\00\00\08\00\00\00\00\00\00\00", i8* bitcast (i32 (i64**)* @"_ZN4core3ops8function6FnOnce40call_once$u7b$$u7b$vtable.shim$u7d$$u7d$17h3c2f1caed72981f4E" to i8*), i8* bitcast (i32 (i64**)* @"_ZN3std2rt10lang_start28_$u7b$$u7b$closure$u7d$$u7d$17ha250cad3a78ce847E" to i8*), i8* bitcast (i32 (i64**)* @"_ZN3std2rt10lang_start28_$u7b$$u7b$closure$u7d$$u7d$17ha250cad3a78ce847E" to i8*) }>, align 8, !dbg !0
@alloc243 = private unnamed_addr constant <{ [12 x i8] }> <{ [12 x i8] c"invalid args" }>, align 1
@alloc244 = private unnamed_addr constant <{ i8*, [8 x i8] }> <{ i8* getelementptr inbounds (<{ [12 x i8] }>, <{ [12 x i8] }>* @alloc243, i32 0, i32 0, i32 0), [8 x i8] c"\0C\00\00\00\00\00\00\00" }>, align 8
@alloc252 = private unnamed_addr constant <{}> zeroinitializer, align 8
@alloc521 = private unnamed_addr constant <{ [75 x i8] }> <{ [75 x i8] c"/rustc/d394408fb38c4de61f765a3ed5189d2731a1da91/library/core/src/fmt/mod.rs" }>, align 1
@alloc522 = private unnamed_addr constant <{ i8*, [16 x i8] }> <{ i8* getelementptr inbounds (<{ [75 x i8] }>, <{ [75 x i8] }>* @alloc521, i32 0, i32 0, i32 0), [16 x i8] c"K\00\00\00\00\00\00\00\88\01\00\00\0D\00\00\00" }>, align 8
@alloc525 = private unnamed_addr constant <{ [80 x i8] }> <{ [80 x i8] c"/rustc/d394408fb38c4de61f765a3ed5189d2731a1da91/library/core/src/char/methods.rs" }>, align 1
@alloc524 = private unnamed_addr constant <{ i8*, [16 x i8] }> <{ i8* getelementptr inbounds (<{ [80 x i8] }>, <{ [80 x i8] }>* @alloc525, i32 0, i32 0, i32 0), [16 x i8] c"P\00\00\00\00\00\00\00\A7\06\00\00\0A\00\00\00" }>, align 8
@alloc324 = private unnamed_addr constant <{ [18 x i8] }> <{ [18 x i8] c"encode_utf8: need " }>, align 1
@alloc326 = private unnamed_addr constant <{ [19 x i8] }> <{ [19 x i8] c" bytes to encode U+" }>, align 1
@alloc327 = private unnamed_addr constant <{ [21 x i8] }> <{ [21 x i8] c", but the buffer has " }>, align 1
@alloc325 = private unnamed_addr constant <{ i8*, [8 x i8], i8*, [8 x i8], i8*, [8 x i8] }> <{ i8* getelementptr inbounds (<{ [18 x i8] }>, <{ [18 x i8] }>* @alloc324, i32 0, i32 0, i32 0), [8 x i8] c"\12\00\00\00\00\00\00\00", i8* getelementptr inbounds (<{ [19 x i8] }>, <{ [19 x i8] }>* @alloc326, i32 0, i32 0, i32 0), [8 x i8] c"\13\00\00\00\00\00\00\00", i8* getelementptr inbounds (<{ [21 x i8] }>, <{ [21 x i8] }>* @alloc327, i32 0, i32 0, i32 0), [8 x i8] c"\15\00\00\00\00\00\00\00" }>, align 8
@alloc526 = private unnamed_addr constant <{ i8*, [16 x i8] }> <{ i8* getelementptr inbounds (<{ [80 x i8] }>, <{ [80 x i8] }>* @alloc525, i32 0, i32 0, i32 0), [16 x i8] c"P\00\00\00\00\00\00\00\A0\06\00\00\0E\00\00\00" }>, align 8
@alloc527 = private unnamed_addr constant <{ [77 x i8] }> <{ [77 x i8] c"/rustc/d394408fb38c4de61f765a3ed5189d2731a1da91/library/core/src/slice/mod.rs" }>, align 1
@alloc528 = private unnamed_addr constant <{ i8*, [16 x i8] }> <{ i8* getelementptr inbounds (<{ [77 x i8] }>, <{ [77 x i8] }>* @alloc527, i32 0, i32 0, i32 0), [16 x i8] c"M\00\00\00\00\00\00\00\9E\08\00\00'\00\00\00" }>, align 8
@alloc529 = private unnamed_addr constant <{ [35 x i8] }> <{ [35 x i8] c"assertion failed: mid <= self.len()" }>, align 1
@vtable.1 = private unnamed_addr constant <{ i8*, [16 x i8], i8* }> <{ i8* bitcast (void (i8**)* @"_ZN4core3ptr42drop_in_place$LT$std..io..error..Error$GT$17hb5924639660c528dE" to i8*), [16 x i8] c"\08\00\00\00\00\00\00\00\08\00\00\00\00\00\00\00", i8* bitcast (i1 (i8**, %"core::fmt::Formatter"*)* @"_ZN58_$LT$std..io..error..Error$u20$as$u20$core..fmt..Debug$GT$3fmt17h9412cc25832b82a2E" to i8*) }>, align 8, !dbg !24
@alloc533 = private unnamed_addr constant <{ [43 x i8] }> <{ [43 x i8] c"called `Result::unwrap()` on an `Err` value" }>, align 1
@vtable.2 = private unnamed_addr constant <{ i8*, [16 x i8], i8* }> <{ i8* bitcast (void (i8*)* @"_ZN4core3ptr52drop_in_place$LT$core..num..error..ParseIntError$GT$17h6a56c174e9ffbc8eE" to i8*), [16 x i8] c"\01\00\00\00\00\00\00\00\01\00\00\00\00\00\00\00", i8* bitcast (i1 (i8*, %"core::fmt::Formatter"*)* @"_ZN68_$LT$core..num..error..ParseIntError$u20$as$u20$core..fmt..Debug$GT$3fmt17h69f92421caac858dE" to i8*) }>, align 8, !dbg !147
@vtable.3 = private unnamed_addr constant <{ i8*, [16 x i8], i8* }> <{ i8* bitcast (void ({ i8*, i64 }**)* @"_ZN4core3ptr60drop_in_place$LT$$RF$core..option..Option$LT$$RF$str$GT$$GT$17he50dc97f5c182187E" to i8*), [16 x i8] c"\08\00\00\00\00\00\00\00\08\00\00\00\00\00\00\00", i8* bitcast (i1 ({ i8*, i64 }**, %"core::fmt::Formatter"*)* @"_ZN42_$LT$$RF$T$u20$as$u20$core..fmt..Debug$GT$3fmt17heb65f44bf8fb9e20E" to i8*) }>, align 8, !dbg !167
@alloc543 = private unnamed_addr constant <{ [47 x i8] }> <{ [47 x i8] c"assertion failed: BorrowType::PERMITS_TRAVERSAL" }>, align 1
@alloc544 = private unnamed_addr constant <{ [91 x i8] }> <{ [91 x i8] c"/rustc/d394408fb38c4de61f765a3ed5189d2731a1da91/library/alloc/src/collections/btree/node.rs" }>, align 1
@alloc542 = private unnamed_addr constant <{ i8*, [16 x i8] }> <{ i8* getelementptr inbounds (<{ [91 x i8] }>, <{ [91 x i8] }>* @alloc544, i32 0, i32 0, i32 0), [16 x i8] c"[\00\00\00\00\00\00\00\EE\03\00\00\09\00\00\00" }>, align 8
@alloc545 = private unnamed_addr constant <{ i8*, [16 x i8] }> <{ i8* getelementptr inbounds (<{ [91 x i8] }>, <{ [91 x i8] }>* @alloc544, i32 0, i32 0, i32 0), [16 x i8] c"[\00\00\00\00\00\00\00A\01\00\00\09\00\00\00" }>, align 8
@alloc549 = private unnamed_addr constant <{ [43 x i8] }> <{ [43 x i8] c"called `Option::unwrap()` on a `None` value" }>, align 1
@alloc550 = private unnamed_addr constant <{ [95 x i8] }> <{ [95 x i8] c"/rustc/d394408fb38c4de61f765a3ed5189d2731a1da91/library/alloc/src/collections/btree/navigate.rs" }>, align 1
@alloc548 = private unnamed_addr constant <{ i8*, [16 x i8] }> <{ i8* getelementptr inbounds (<{ [95 x i8] }>, <{ [95 x i8] }>* @alloc550, i32 0, i32 0, i32 0), [16 x i8] c"_\00\00\00\00\00\00\00L\02\00\00\0D\00\00\00" }>, align 8
@alloc551 = private unnamed_addr constant <{ i8*, [16 x i8] }> <{ i8* getelementptr inbounds (<{ [95 x i8] }>, <{ [95 x i8] }>* @alloc550, i32 0, i32 0, i32 0), [16 x i8] c"_\00\00\00\00\00\00\00\BA\00\00\00\15\00\00\00" }>, align 8
@alloc552 = private unnamed_addr constant <{ [53 x i8] }> <{ [53 x i8] c"attempt to join into collection with len > usize::MAX" }>, align 1
@alloc555 = private unnamed_addr constant <{ [72 x i8] }> <{ [72 x i8] c"/rustc/d394408fb38c4de61f765a3ed5189d2731a1da91/library/alloc/src/str.rs" }>, align 1
@alloc554 = private unnamed_addr constant <{ i8*, [16 x i8] }> <{ i8* getelementptr inbounds (<{ [72 x i8] }>, <{ [72 x i8] }>* @alloc555, i32 0, i32 0, i32 0), [16 x i8] c"H\00\00\00\00\00\00\00\C2\00\00\00\16\00\00\00" }>, align 8
@alloc556 = private unnamed_addr constant <{ i8*, [16 x i8] }> <{ i8* getelementptr inbounds (<{ [72 x i8] }>, <{ [72 x i8] }>* @alloc555, i32 0, i32 0, i32 0), [16 x i8] c"H\00\00\00\00\00\00\00\A6\00\00\00\18\00\00\00" }>, align 8
@0 = private unnamed_addr constant <{ [16 x i8] }> <{ [16 x i8] c"\01\00\00\00\00\00\00\00\00\00\00\00\00\00\00\00" }>, align 8
@alloc557 = private unnamed_addr constant <{ [4 x i8] }> <{ [4 x i8] c"Some" }>, align 1
@vtable.4 = private unnamed_addr constant <{ i8*, [16 x i8], i8* }> <{ i8* bitcast (void ({ [0 x i8]*, i64 }**)* @"_ZN4core3ptr32drop_in_place$LT$$RF$$RF$str$GT$17hf0fb5c2cb3a8d8dbE" to i8*), [16 x i8] c"\08\00\00\00\00\00\00\00\08\00\00\00\00\00\00\00", i8* bitcast (i1 ({ [0 x i8]*, i64 }**, %"core::fmt::Formatter"*)* @"_ZN42_$LT$$RF$T$u20$as$u20$core..fmt..Debug$GT$3fmt17hf06ba88675a9062bE" to i8*) }>, align 8, !dbg !191
@alloc561 = private unnamed_addr constant <{ [4 x i8] }> <{ [4 x i8] c"None" }>, align 1
@alloc562 = private unnamed_addr constant <{ [75 x i8] }> <{ [75 x i8] c"/rustc/d394408fb38c4de61f765a3ed5189d2731a1da91/library/alloc/src/string.rs" }>, align 1
@alloc563 = private unnamed_addr constant <{ i8*, [16 x i8] }> <{ i8* getelementptr inbounds (<{ [75 x i8] }>, <{ [75 x i8] }>* @alloc562, i32 0, i32 0, i32 0), [16 x i8] c"K\00\00\00\00\00\00\00\9E\08\00\00\01\00\00\00" }>, align 8
@alloc564 = private unnamed_addr constant <{ [79 x i8] }> <{ [79 x i8] c"/rustc/d394408fb38c4de61f765a3ed5189d2731a1da91/library/core/src/str/pattern.rs" }>, align 1
@alloc565 = private unnamed_addr constant <{ i8*, [16 x i8] }> <{ i8* getelementptr inbounds (<{ [79 x i8] }>, <{ [79 x i8] }>* @alloc564, i32 0, i32 0, i32 0), [16 x i8] c"O\00\00\00\00\00\00\00\B7\01\00\00&\00\00\00" }>, align 8
@alloc566 = private unnamed_addr constant <{ [78 x i8] }> <{ [78 x i8] c"/rustc/d394408fb38c4de61f765a3ed5189d2731a1da91/library/core/src/slice/iter.rs" }>, align 1
@alloc567 = private unnamed_addr constant <{ i8*, [16 x i8] }> <{ i8* getelementptr inbounds (<{ [78 x i8] }>, <{ [78 x i8] }>* @alloc566, i32 0, i32 0, i32 0), [16 x i8] c"N\00\00\00\00\00\00\00\87\00\00\00\01\00\00\00" }>, align 8
@str.5 = internal constant [28 x i8] c"attempt to add with overflow"
@alloc52 = private unnamed_addr constant <{ [32 x i8] }> <{ [32 x i8] c"cargo:rerun-if-changed=build.rs\0A" }>, align 1
@alloc53 = private unnamed_addr constant <{ i8*, [8 x i8] }> <{ i8* getelementptr inbounds (<{ [32 x i8] }>, <{ [32 x i8] }>* @alloc52, i32 0, i32 0, i32 0), [8 x i8] c" \00\00\00\00\00\00\00" }>, align 8
@alloc568 = private unnamed_addr constant <{ [30 x i8] }> <{ [30 x i8] c"CARGO_FEATURE_RUSTC_DEP_OF_STD" }>, align 1
@alloc569 = private unnamed_addr constant <{ [7 x i8] }> <{ [7 x i8] c"LIBC_CI" }>, align 1
@alloc570 = private unnamed_addr constant <{ [20 x i8] }> <{ [20 x i8] c"CARGO_CFG_TARGET_ENV" }>, align 1
@alloc571 = private unnamed_addr constant <{ [19 x i8] }> <{ [19 x i8] c"CARGO_CFG_TARGET_OS" }>, align 1
@alloc572 = private unnamed_addr constant <{ [30 x i8] }> <{ [30 x i8] c"CARGO_CFG_TARGET_POINTER_WIDTH" }>, align 1
@alloc573 = private unnamed_addr constant <{ [21 x i8] }> <{ [21 x i8] c"CARGO_CFG_TARGET_ARCH" }>, align 1
@alloc63 = private unnamed_addr constant <{ [62 x i8] }> <{ [62 x i8] c"cargo:rerun-if-env-changed=RUST_LIBC_UNSTABLE_FREEBSD_VERSION\0A" }>, align 1
@alloc64 = private unnamed_addr constant <{ i8*, [8 x i8] }> <{ i8* getelementptr inbounds (<{ [62 x i8] }>, <{ [62 x i8] }>* @alloc63, i32 0, i32 0, i32 0), [8 x i8] c">\00\00\00\00\00\00\00" }>, align 8
@alloc574 = private unnamed_addr constant <{ [34 x i8] }> <{ [34 x i8] c"RUST_LIBC_UNSTABLE_FREEBSD_VERSION" }>, align 1
@alloc644 = private unnamed_addr constant <{ [82 x i8] }> <{ [82 x i8] c"/home/calvin/.cargo/registry/src/github.com-1ecc6299db9ec823/libc-0.2.175/build.rs" }>, align 1
@alloc576 = private unnamed_addr constant <{ i8*, [16 x i8] }> <{ i8* getelementptr inbounds (<{ [82 x i8] }>, <{ [82 x i8] }>* @alloc644, i32 0, i32 0, i32 0), [16 x i8] c"R\00\00\00\00\00\00\00D\00\00\00$\00\00\00" }>, align 8
@alloc69 = private unnamed_addr constant <{ [41 x i8] }> <{ [41 x i8] c"cargo:warning=setting FreeBSD version to " }>, align 1
@alloc387 = private unnamed_addr constant <{ [1 x i8] }> <{ [1 x i8] c"\0A" }>, align 1
@alloc70 = private unnamed_addr constant <{ i8*, [8 x i8], i8*, [8 x i8] }> <{ i8* getelementptr inbounds (<{ [41 x i8] }>, <{ [41 x i8] }>* @alloc69, i32 0, i32 0, i32 0), [8 x i8] c")\00\00\00\00\00\00\00", i8* getelementptr inbounds (<{ [1 x i8] }>, <{ [1 x i8] }>* @alloc387, i32 0, i32 0, i32 0), [8 x i8] c"\01\00\00\00\00\00\00\00" }>, align 8
@alloc75 = private unnamed_addr constant <{ [38 x i8] }> <{ [38 x i8] c"FreeBSD older than 10 is not supported" }>, align 1
@alloc76 = private unnamed_addr constant <{ i8*, [8 x i8] }> <{ i8* getelementptr inbounds (<{ [38 x i8] }>, <{ [38 x i8] }>* @alloc75, i32 0, i32 0, i32 0), [8 x i8] c"&\00\00\00\00\00\00\00" }>, align 8
@alloc578 = private unnamed_addr constant <{ i8*, [16 x i8] }> <{ i8* getelementptr inbounds (<{ [82 x i8] }>, <{ [82 x i8] }>* @alloc644, i32 0, i32 0, i32 0), [16 x i8] c"R\00\00\00\00\00\00\00P\00\00\00\18\00\00\00" }>, align 8
@alloc11 = private unnamed_addr constant <{ [9 x i8] }> <{ [9 x i8] c"freebsd15" }>, align 1
@alloc10 = private unnamed_addr constant <{ [9 x i8] }> <{ [9 x i8] c"freebsd14" }>, align 1
@alloc9 = private unnamed_addr constant <{ [9 x i8] }> <{ [9 x i8] c"freebsd13" }>, align 1
@alloc8 = private unnamed_addr constant <{ [9 x i8] }> <{ [9 x i8] c"freebsd12" }>, align 1
@alloc7 = private unnamed_addr constant <{ [9 x i8] }> <{ [9 x i8] c"freebsd11" }>, align 1
@alloc6 = private unnamed_addr constant <{ [9 x i8] }> <{ [9 x i8] c"freebsd10" }>, align 1
@alloc3 = private unnamed_addr constant <{ [23 x i8] }> <{ [23 x i8] c"emscripten_old_stat_abi" }>, align 1
@alloc586 = private unnamed_addr constant <{ [30 x i8] }> <{ [30 x i8] c"RUST_LIBC_UNSTABLE_MUSL_V1_2_3" }>, align 1
@alloc93 = private unnamed_addr constant <{ [58 x i8] }> <{ [58 x i8] c"cargo:rerun-if-env-changed=RUST_LIBC_UNSTABLE_MUSL_V1_2_3\0A" }>, align 1
@alloc94 = private unnamed_addr constant <{ i8*, [8 x i8] }> <{ i8* getelementptr inbounds (<{ [58 x i8] }>, <{ [58 x i8] }>* @alloc93, i32 0, i32 0, i32 0), [8 x i8] c":\00\00\00\00\00\00\00" }>, align 8
@alloc42 = private unnamed_addr constant <{ [11 x i8] }> <{ [11 x i8] c"loongarch64" }>, align 1
@alloc102 = private unnamed_addr constant <{ i8*, [8 x i8] }> <{ i8* getelementptr inbounds (<{ [11 x i8] }>, <{ [11 x i8] }>* @alloc42, i32 0, i32 0, i32 0), [8 x i8] c"\0B\00\00\00\00\00\00\00" }>, align 8
@alloc37 = private unnamed_addr constant <{ [4 x i8] }> <{ [4 x i8] c"ohos" }>, align 1
@alloc99 = private unnamed_addr constant <{ i8*, [8 x i8] }> <{ i8* getelementptr inbounds (<{ [4 x i8] }>, <{ [4 x i8] }>* @alloc37, i32 0, i32 0, i32 0), [8 x i8] c"\04\00\00\00\00\00\00\00" }>, align 8
@alloc19 = private unnamed_addr constant <{ [11 x i8] }> <{ [11 x i8] c"musl_v1_2_3" }>, align 1
@alloc588 = private unnamed_addr constant <{ [36 x i8] }> <{ [36 x i8] c"RUST_LIBC_UNSTABLE_LINUX_TIME_BITS64" }>, align 1
@alloc107 = private unnamed_addr constant <{ [64 x i8] }> <{ [64 x i8] c"cargo:rerun-if-env-changed=RUST_LIBC_UNSTABLE_LINUX_TIME_BITS64\0A" }>, align 1
@alloc108 = private unnamed_addr constant <{ i8*, [8 x i8] }> <{ i8* getelementptr inbounds (<{ [64 x i8] }>, <{ [64 x i8] }>* @alloc107, i32 0, i32 0, i32 0), [8 x i8] c"@\00\00\00\00\00\00\00" }>, align 8
@alloc18 = private unnamed_addr constant <{ [17 x i8] }> <{ [17 x i8] c"linux_time_bits64" }>, align 1
@alloc114 = private unnamed_addr constant <{ [67 x i8] }> <{ [67 x i8] c"cargo:rerun-if-env-changed=RUST_LIBC_UNSTABLE_GNU_FILE_OFFSET_BITS\0A" }>, align 1
@alloc115 = private unnamed_addr constant <{ i8*, [8 x i8] }> <{ i8* getelementptr inbounds (<{ [67 x i8] }>, <{ [67 x i8] }>* @alloc114, i32 0, i32 0, i32 0), [8 x i8] c"C\00\00\00\00\00\00\00" }>, align 8
@alloc119 = private unnamed_addr constant <{ [60 x i8] }> <{ [60 x i8] c"cargo:rerun-if-env-changed=RUST_LIBC_UNSTABLE_GNU_TIME_BITS\0A" }>, align 1
@alloc120 = private unnamed_addr constant <{ i8*, [8 x i8] }> <{ i8* getelementptr inbounds (<{ [60 x i8] }>, <{ [60 x i8] }>* @alloc119, i32 0, i32 0, i32 0), [8 x i8] c"<\00\00\00\00\00\00\00" }>, align 8
@alloc124 = private unnamed_addr constant <{ [3 x i8] }> <{ [3 x i8] c"gnu" }>, align 1
@alloc125 = private unnamed_addr constant <{ i8*, [8 x i8] }> <{ i8* getelementptr inbounds (<{ [3 x i8] }>, <{ [3 x i8] }>* @alloc124, i32 0, i32 0, i32 0), [8 x i8] c"\03\00\00\00\00\00\00\00" }>, align 8
@alloc136 = private unnamed_addr constant <{ [5 x i8] }> <{ [5 x i8] c"linux" }>, align 1
@alloc137 = private unnamed_addr constant <{ i8*, [8 x i8] }> <{ i8* getelementptr inbounds (<{ [5 x i8] }>, <{ [5 x i8] }>* @alloc136, i32 0, i32 0, i32 0), [8 x i8] c"\05\00\00\00\00\00\00\00" }>, align 8
@alloc163 = private unnamed_addr constant <{ [2 x i8] }> <{ [2 x i8] c"32" }>, align 1
@alloc164 = private unnamed_addr constant <{ i8*, [8 x i8] }> <{ i8* getelementptr inbounds (<{ [2 x i8] }>, <{ [2 x i8] }>* @alloc163, i32 0, i32 0, i32 0), [8 x i8] c"\02\00\00\00\00\00\00\00" }>, align 8
@alloc130 = private unnamed_addr constant <{ [7 x i8] }> <{ [7 x i8] c"riscv32" }>, align 1
@alloc131 = private unnamed_addr constant <{ i8*, [8 x i8] }> <{ i8* getelementptr inbounds (<{ [7 x i8] }>, <{ [7 x i8] }>* @alloc130, i32 0, i32 0, i32 0), [8 x i8] c"\07\00\00\00\00\00\00\00" }>, align 8
@alloc127 = private unnamed_addr constant <{ [6 x i8] }> <{ [6 x i8] c"x86_64" }>, align 1
@alloc128 = private unnamed_addr constant <{ i8*, [8 x i8] }> <{ i8* getelementptr inbounds (<{ [6 x i8] }>, <{ [6 x i8] }>* @alloc127, i32 0, i32 0, i32 0), [8 x i8] c"\06\00\00\00\00\00\00\00" }>, align 8
@alloc590 = private unnamed_addr constant <{ [32 x i8] }> <{ [32 x i8] c"RUST_LIBC_UNSTABLE_GNU_TIME_BITS" }>, align 1
@alloc158 = private unnamed_addr constant <{ [2 x i8] }> <{ [2 x i8] c"64" }>, align 1
@alloc159 = private unnamed_addr constant <{ i8*, [8 x i8] }> <{ i8* getelementptr inbounds (<{ [2 x i8] }>, <{ [2 x i8] }>* @alloc158, i32 0, i32 0, i32 0), [8 x i8] c"\02\00\00\00\00\00\00\00" }>, align 8
@alloc12 = private unnamed_addr constant <{ [22 x i8] }> <{ [22 x i8] c"gnu_file_offset_bits64" }>, align 1
@alloc13 = private unnamed_addr constant <{ [15 x i8] }> <{ [15 x i8] c"gnu_time_bits64" }>, align 1
@alloc153 = private unnamed_addr constant <{ [64 x i8] }> <{ [64 x i8] c"RUST_LIBC_UNSTABLE_GNU_TIME_BITS may only be set to '32' or '64'" }>, align 1
@alloc154 = private unnamed_addr constant <{ i8*, [8 x i8] }> <{ i8* getelementptr inbounds (<{ [64 x i8] }>, <{ [64 x i8] }>* @alloc153, i32 0, i32 0, i32 0), [8 x i8] c"@\00\00\00\00\00\00\00" }>, align 8
@alloc595 = private unnamed_addr constant <{ i8*, [16 x i8] }> <{ i8* getelementptr inbounds (<{ [82 x i8] }>, <{ [82 x i8] }>* @alloc644, i32 0, i32 0, i32 0), [16 x i8] c"R\00\00\00\00\00\00\00z\00\00\00\11\00\00\00" }>, align 8
@alloc596 = private unnamed_addr constant <{ [39 x i8] }> <{ [39 x i8] c"RUST_LIBC_UNSTABLE_GNU_FILE_OFFSET_BITS" }>, align 1
@alloc166 = private unnamed_addr constant <{ [71 x i8] }> <{ [71 x i8] c"RUST_LIBC_UNSTABLE_GNU_FILE_OFFSET_BITS may only be set to '32' or '64'" }>, align 1
@alloc167 = private unnamed_addr constant <{ i8*, [8 x i8] }> <{ i8* getelementptr inbounds (<{ [71 x i8] }>, <{ [71 x i8] }>* @alloc166, i32 0, i32 0, i32 0), [8 x i8] c"G\00\00\00\00\00\00\00" }>, align 8
@alloc599 = private unnamed_addr constant <{ i8*, [16 x i8] }> <{ i8* getelementptr inbounds (<{ [82 x i8] }>, <{ [82 x i8] }>* @alloc644, i32 0, i32 0, i32 0), [16 x i8] c"R\00\00\00\00\00\00\00\82\00\00\00\19\00\00\00" }>, align 8
@alloc15 = private unnamed_addr constant <{ [18 x i8] }> <{ [18 x i8] c"libc_deny_warnings" }>, align 1
@alloc16 = private unnamed_addr constant <{ [17 x i8] }> <{ [17 x i8] c"libc_thread_local" }>, align 1
@alloc14 = private unnamed_addr constant <{ [20 x i8] }> <{ [20 x i8] c"libc_const_extern_fn" }>, align 1
@alloc5 = private unnamed_addr constant <{ [13 x i8] }> <{ [13 x i8] c"espidf_time32" }>, align 1
@alloc17 = private unnamed_addr constant <{ [10 x i8] }> <{ [10 x i8] c"libc_ctest" }>, align 1
@alloc4 = private unnamed_addr constant <{ i8*, [8 x i8], i8*, [8 x i8], i8*, [8 x i8], i8*, [8 x i8], i8*, [8 x i8], i8*, [8 x i8], i8*, [8 x i8], i8*, [8 x i8], i8*, [8 x i8], i8*, [8 x i8], i8*, [8 x i8], i8*, [8 x i8], i8*, [8 x i8], i8*, [8 x i8], i8*, [8 x i8], i8*, [8 x i8] }> <{ i8* getelementptr inbounds (<{ [23 x i8] }>, <{ [23 x i8] }>* @alloc3, i32 0, i32 0, i32 0), [8 x i8] c"\17\00\00\00\00\00\00\00", i8* getelementptr inbounds (<{ [13 x i8] }>, <{ [13 x i8] }>* @alloc5, i32 0, i32 0, i32 0), [8 x i8] c"\0D\00\00\00\00\00\00\00", i8* getelementptr inbounds (<{ [9 x i8] }>, <{ [9 x i8] }>* @alloc6, i32 0, i32 0, i32 0), [8 x i8] c"\09\00\00\00\00\00\00\00", i8* getelementptr inbounds (<{ [9 x i8] }>, <{ [9 x i8] }>* @alloc7, i32 0, i32 0, i32 0), [8 x i8] c"\09\00\00\00\00\00\00\00", i8* getelementptr inbounds (<{ [9 x i8] }>, <{ [9 x i8] }>* @alloc8, i32 0, i32 0, i32 0), [8 x i8] c"\09\00\00\00\00\00\00\00", i8* getelementptr inbounds (<{ [9 x i8] }>, <{ [9 x i8] }>* @alloc9, i32 0, i32 0, i32 0), [8 x i8] c"\09\00\00\00\00\00\00\00", i8* getelementptr inbounds (<{ [9 x i8] }>, <{ [9 x i8] }>* @alloc10, i32 0, i32 0, i32 0), [8 x i8] c"\09\00\00\00\00\00\00\00", i8* getelementptr inbounds (<{ [9 x i8] }>, <{ [9 x i8] }>* @alloc11, i32 0, i32 0, i32 0), [8 x i8] c"\09\00\00\00\00\00\00\00", i8* getelementptr inbounds (<{ [22 x i8] }>, <{ [22 x i8] }>* @alloc12, i32 0, i32 0, i32 0), [8 x i8] c"\16\00\00\00\00\00\00\00", i8* getelementptr inbounds (<{ [15 x i8] }>, <{ [15 x i8] }>* @alloc13, i32 0, i32 0, i32 0), [8 x i8] c"\0F\00\00\00\00\00\00\00", i8* getelementptr inbounds (<{ [20 x i8] }>, <{ [20 x i8] }>* @alloc14, i32 0, i32 0, i32 0), [8 x i8] c"\14\00\00\00\00\00\00\00", i8* getelementptr inbounds (<{ [18 x i8] }>, <{ [18 x i8] }>* @alloc15, i32 0, i32 0, i32 0), [8 x i8] c"\12\00\00\00\00\00\00\00", i8* getelementptr inbounds (<{ [17 x i8] }>, <{ [17 x i8] }>* @alloc16, i32 0, i32 0, i32 0), [8 x i8] c"\11\00\00\00\00\00\00\00", i8* getelementptr inbounds (<{ [10 x i8] }>, <{ [10 x i8] }>* @alloc17, i32 0, i32 0, i32 0), [8 x i8] c"\0A\00\00\00\00\00\00\00", i8* getelementptr inbounds (<{ [17 x i8] }>, <{ [17 x i8] }>* @alloc18, i32 0, i32 0, i32 0), [8 x i8] c"\11\00\00\00\00\00\00\00", i8* getelementptr inbounds (<{ [11 x i8] }>, <{ [11 x i8] }>* @alloc19, i32 0, i32 0, i32 0), [8 x i8] c"\0B\00\00\00\00\00\00\00" }>, align 8
@1 = private unnamed_addr constant <{ i8*, [8 x i8] }> <{ i8* bitcast (<{ i8*, [8 x i8], i8*, [8 x i8], i8*, [8 x i8], i8*, [8 x i8], i8*, [8 x i8], i8*, [8 x i8], i8*, [8 x i8], i8*, [8 x i8], i8*, [8 x i8], i8*, [8 x i8], i8*, [8 x i8], i8*, [8 x i8], i8*, [8 x i8], i8*, [8 x i8], i8*, [8 x i8], i8*, [8 x i8] }>* @alloc4 to i8*), [8 x i8] c"\10\00\00\00\00\00\00\00" }>, align 8
@alloc187 = private unnamed_addr constant <{ [26 x i8] }> <{ [26 x i8] c"cargo:rustc-check-cfg=cfg(" }>, align 1
@alloc183 = private unnamed_addr constant <{ [2 x i8] }> <{ [2 x i8] c")\0A" }>, align 1
@alloc178 = private unnamed_addr constant <{ i8*, [8 x i8], i8*, [8 x i8] }> <{ i8* getelementptr inbounds (<{ [26 x i8] }>, <{ [26 x i8] }>* @alloc187, i32 0, i32 0, i32 0), [8 x i8] c"\1A\00\00\00\00\00\00\00", i8* getelementptr inbounds (<{ [2 x i8] }>, <{ [2 x i8] }>* @alloc183, i32 0, i32 0, i32 0), [8 x i8] c"\02\00\00\00\00\00\00\00" }>, align 8
@alloc192 = private unnamed_addr constant <{ [29 x i8] }> <{ [29 x i8] c"cargo:rustc-check-cfg=values(" }>, align 1
@alloc182 = private unnamed_addr constant <{ i8*, [8 x i8], i8*, [8 x i8] }> <{ i8* getelementptr inbounds (<{ [29 x i8] }>, <{ [29 x i8] }>* @alloc192, i32 0, i32 0, i32 0), [8 x i8] c"\1D\00\00\00\00\00\00\00", i8* getelementptr inbounds (<{ [2 x i8] }>, <{ [2 x i8] }>* @alloc183, i32 0, i32 0, i32 0), [8 x i8] c"\02\00\00\00\00\00\00\00" }>, align 8
@alloc32 = private unnamed_addr constant <{ [9 x i8] }> <{ [9 x i8] c"target_os" }>, align 1
@alloc22 = private unnamed_addr constant <{ [6 x i8] }> <{ [6 x i8] c"switch" }>, align 1
@alloc36 = private unnamed_addr constant <{ [3 x i8] }> <{ [3 x i8] c"aix" }>, align 1
@alloc26 = private unnamed_addr constant <{ [4 x i8] }> <{ [4 x i8] c"hurd" }>, align 1
@alloc27 = private unnamed_addr constant <{ [5 x i8] }> <{ [5 x i8] c"rtems" }>, align 1
@alloc28 = private unnamed_addr constant <{ [8 x i8] }> <{ [8 x i8] c"visionos" }>, align 1
@alloc29 = private unnamed_addr constant <{ [5 x i8] }> <{ [5 x i8] c"nuttx" }>, align 1
@alloc30 = private unnamed_addr constant <{ [6 x i8] }> <{ [6 x i8] c"cygwin" }>, align 1
@alloc23 = private unnamed_addr constant <{ i8*, [8 x i8], i8*, [8 x i8], i8*, [8 x i8], i8*, [8 x i8], i8*, [8 x i8], i8*, [8 x i8], i8*, [8 x i8], i8*, [8 x i8] }> <{ i8* getelementptr inbounds (<{ [6 x i8] }>, <{ [6 x i8] }>* @alloc22, i32 0, i32 0, i32 0), [8 x i8] c"\06\00\00\00\00\00\00\00", i8* getelementptr inbounds (<{ [3 x i8] }>, <{ [3 x i8] }>* @alloc36, i32 0, i32 0, i32 0), [8 x i8] c"\03\00\00\00\00\00\00\00", i8* getelementptr inbounds (<{ [4 x i8] }>, <{ [4 x i8] }>* @alloc37, i32 0, i32 0, i32 0), [8 x i8] c"\04\00\00\00\00\00\00\00", i8* getelementptr inbounds (<{ [4 x i8] }>, <{ [4 x i8] }>* @alloc26, i32 0, i32 0, i32 0), [8 x i8] c"\04\00\00\00\00\00\00\00", i8* getelementptr inbounds (<{ [5 x i8] }>, <{ [5 x i8] }>* @alloc27, i32 0, i32 0, i32 0), [8 x i8] c"\05\00\00\00\00\00\00\00", i8* getelementptr inbounds (<{ [8 x i8] }>, <{ [8 x i8] }>* @alloc28, i32 0, i32 0, i32 0), [8 x i8] c"\08\00\00\00\00\00\00\00", i8* getelementptr inbounds (<{ [5 x i8] }>, <{ [5 x i8] }>* @alloc29, i32 0, i32 0, i32 0), [8 x i8] c"\05\00\00\00\00\00\00\00", i8* getelementptr inbounds (<{ [6 x i8] }>, <{ [6 x i8] }>* @alloc30, i32 0, i32 0, i32 0), [8 x i8] c"\06\00\00\00\00\00\00\00" }>, align 8
@alloc41 = private unnamed_addr constant <{ [10 x i8] }> <{ [10 x i8] c"target_env" }>, align 1
@alloc33 = private unnamed_addr constant <{ [7 x i8] }> <{ [7 x i8] c"illumos" }>, align 1
@alloc35 = private unnamed_addr constant <{ [4 x i8] }> <{ [4 x i8] c"wasi" }>, align 1
@alloc38 = private unnamed_addr constant <{ [12 x i8] }> <{ [12 x i8] c"nto71_iosock" }>, align 1
@alloc39 = private unnamed_addr constant <{ [5 x i8] }> <{ [5 x i8] c"nto80" }>, align 1
@alloc34 = private unnamed_addr constant <{ i8*, [8 x i8], i8*, [8 x i8], i8*, [8 x i8], i8*, [8 x i8], i8*, [8 x i8], i8*, [8 x i8] }> <{ i8* getelementptr inbounds (<{ [7 x i8] }>, <{ [7 x i8] }>* @alloc33, i32 0, i32 0, i32 0), [8 x i8] c"\07\00\00\00\00\00\00\00", i8* getelementptr inbounds (<{ [4 x i8] }>, <{ [4 x i8] }>* @alloc35, i32 0, i32 0, i32 0), [8 x i8] c"\04\00\00\00\00\00\00\00", i8* getelementptr inbounds (<{ [3 x i8] }>, <{ [3 x i8] }>* @alloc36, i32 0, i32 0, i32 0), [8 x i8] c"\03\00\00\00\00\00\00\00", i8* getelementptr inbounds (<{ [4 x i8] }>, <{ [4 x i8] }>* @alloc37, i32 0, i32 0, i32 0), [8 x i8] c"\04\00\00\00\00\00\00\00", i8* getelementptr inbounds (<{ [12 x i8] }>, <{ [12 x i8] }>* @alloc38, i32 0, i32 0, i32 0), [8 x i8] c"\0C\00\00\00\00\00\00\00", i8* getelementptr inbounds (<{ [5 x i8] }>, <{ [5 x i8] }>* @alloc39, i32 0, i32 0, i32 0), [8 x i8] c"\05\00\00\00\00\00\00\00" }>, align 8
@alloc48 = private unnamed_addr constant <{ [11 x i8] }> <{ [11 x i8] c"target_arch" }>, align 1
@alloc44 = private unnamed_addr constant <{ [8 x i8] }> <{ [8 x i8] c"mips32r6" }>, align 1
@alloc45 = private unnamed_addr constant <{ [8 x i8] }> <{ [8 x i8] c"mips64r6" }>, align 1
@alloc46 = private unnamed_addr constant <{ [4 x i8] }> <{ [4 x i8] c"csky" }>, align 1
@alloc43 = private unnamed_addr constant <{ i8*, [8 x i8], i8*, [8 x i8], i8*, [8 x i8], i8*, [8 x i8] }> <{ i8* getelementptr inbounds (<{ [11 x i8] }>, <{ [11 x i8] }>* @alloc42, i32 0, i32 0, i32 0), [8 x i8] c"\0B\00\00\00\00\00\00\00", i8* getelementptr inbounds (<{ [8 x i8] }>, <{ [8 x i8] }>* @alloc44, i32 0, i32 0, i32 0), [8 x i8] c"\08\00\00\00\00\00\00\00", i8* getelementptr inbounds (<{ [8 x i8] }>, <{ [8 x i8] }>* @alloc45, i32 0, i32 0, i32 0), [8 x i8] c"\08\00\00\00\00\00\00\00", i8* getelementptr inbounds (<{ [4 x i8] }>, <{ [4 x i8] }>* @alloc46, i32 0, i32 0, i32 0), [8 x i8] c"\04\00\00\00\00\00\00\00" }>, align 8
@alloc49 = private unnamed_addr constant <{ i8*, [8 x i8], i8*, [8 x i8], i8*, [8 x i8], i8*, [8 x i8], i8*, [8 x i8], i8*, [8 x i8] }> <{ i8* getelementptr inbounds (<{ [9 x i8] }>, <{ [9 x i8] }>* @alloc32, i32 0, i32 0, i32 0), [8 x i8] c"\09\00\00\00\00\00\00\00", i8* bitcast (<{ i8*, [8 x i8], i8*, [8 x i8], i8*, [8 x i8], i8*, [8 x i8], i8*, [8 x i8], i8*, [8 x i8], i8*, [8 x i8], i8*, [8 x i8] }>* @alloc23 to i8*), [8 x i8] c"\08\00\00\00\00\00\00\00", i8* getelementptr inbounds (<{ [10 x i8] }>, <{ [10 x i8] }>* @alloc41, i32 0, i32 0, i32 0), [8 x i8] c"\0A\00\00\00\00\00\00\00", i8* bitcast (<{ i8*, [8 x i8], i8*, [8 x i8], i8*, [8 x i8], i8*, [8 x i8], i8*, [8 x i8], i8*, [8 x i8] }>* @alloc34 to i8*), [8 x i8] c"\06\00\00\00\00\00\00\00", i8* getelementptr inbounds (<{ [11 x i8] }>, <{ [11 x i8] }>* @alloc48, i32 0, i32 0, i32 0), [8 x i8] c"\0B\00\00\00\00\00\00\00", i8* bitcast (<{ i8*, [8 x i8], i8*, [8 x i8], i8*, [8 x i8], i8*, [8 x i8] }>* @alloc43 to i8*), [8 x i8] c"\04\00\00\00\00\00\00\00" }>, align 8
@2 = private unnamed_addr constant <{ i8*, [8 x i8] }> <{ i8* bitcast (<{ i8*, [8 x i8], i8*, [8 x i8], i8*, [8 x i8], i8*, [8 x i8], i8*, [8 x i8], i8*, [8 x i8] }>* @alloc49 to i8*), [8 x i8] c"\03\00\00\00\00\00\00\00" }>, align 8
@alloc603 = private unnamed_addr constant <{ [3 x i8] }> <{ [3 x i8] c"\22,\22" }>, align 1
@alloc189 = private unnamed_addr constant <{ [9 x i8] }> <{ [9 x i8] c",values(\22" }>, align 1
@alloc190 = private unnamed_addr constant <{ [4 x i8] }> <{ [4 x i8] c"\22))\0A" }>, align 1
@alloc188 = private unnamed_addr constant <{ i8*, [8 x i8], i8*, [8 x i8], i8*, [8 x i8] }> <{ i8* getelementptr inbounds (<{ [26 x i8] }>, <{ [26 x i8] }>* @alloc187, i32 0, i32 0, i32 0), [8 x i8] c"\1A\00\00\00\00\00\00\00", i8* getelementptr inbounds (<{ [9 x i8] }>, <{ [9 x i8] }>* @alloc189, i32 0, i32 0, i32 0), [8 x i8] c"\09\00\00\00\00\00\00\00", i8* getelementptr inbounds (<{ [4 x i8] }>, <{ [4 x i8] }>* @alloc190, i32 0, i32 0, i32 0), [8 x i8] c"\04\00\00\00\00\00\00\00" }>, align 8
@alloc194 = private unnamed_addr constant <{ [2 x i8] }> <{ [2 x i8] c",\22" }>, align 1
@alloc195 = private unnamed_addr constant <{ [3 x i8] }> <{ [3 x i8] c"\22)\0A" }>, align 1
@alloc193 = private unnamed_addr constant <{ i8*, [8 x i8], i8*, [8 x i8], i8*, [8 x i8] }> <{ i8* getelementptr inbounds (<{ [29 x i8] }>, <{ [29 x i8] }>* @alloc192, i32 0, i32 0, i32 0), [8 x i8] c"\1D\00\00\00\00\00\00\00", i8* getelementptr inbounds (<{ [2 x i8] }>, <{ [2 x i8] }>* @alloc194, i32 0, i32 0, i32 0), [8 x i8] c"\02\00\00\00\00\00\00\00", i8* getelementptr inbounds (<{ [3 x i8] }>, <{ [3 x i8] }>* @alloc195, i32 0, i32 0, i32 0), [8 x i8] c"\03\00\00\00\00\00\00\00" }>, align 8
@alloc604 = private unnamed_addr constant <{ [5 x i8] }> <{ [5 x i8] c"RUSTC" }>, align 1
@alloc605 = private unnamed_addr constant <{ [46 x i8] }> <{ [46 x i8] c"Failed to get rustc version: missing RUSTC env" }>, align 1
@alloc607 = private unnamed_addr constant <{ i8*, [16 x i8] }> <{ i8* getelementptr inbounds (<{ [82 x i8] }>, <{ [82 x i8] }>* @alloc644, i32 0, i32 0, i32 0), [16 x i8] c"R\00\00\00\00\00\00\00\AE\00\00\00&\00\00\00" }>, align 8
@alloc608 = private unnamed_addr constant <{ [13 x i8] }> <{ [13 x i8] c"RUSTC_WRAPPER" }>, align 1
@alloc609 = private unnamed_addr constant <{ [7 x i8] }> <{ [7 x i8] c"--rustc" }>, align 1
@alloc610 = private unnamed_addr constant <{ [9 x i8] }> <{ [9 x i8] c"--version" }>, align 1
@alloc249 = private unnamed_addr constant <{ [27 x i8] }> <{ [27 x i8] c"Failed to get rustc version" }>, align 1
@alloc613 = private unnamed_addr constant <{ i8*, [16 x i8] }> <{ i8* getelementptr inbounds (<{ [82 x i8] }>, <{ [82 x i8] }>* @alloc644, i32 0, i32 0, i32 0), [16 x i8] c"R\00\00\00\00\00\00\00\C0\00\00\00\1F\00\00\00" }>, align 8
@alloc305 = private unnamed_addr constant <{ [21 x i8] }> <{ [21 x i8] c"failed to run rustc: " }>, align 1
@alloc306 = private unnamed_addr constant <{ i8*, [8 x i8] }> <{ i8* getelementptr inbounds (<{ [21 x i8] }>, <{ [21 x i8] }>* @alloc305, i32 0, i32 0, i32 0), [8 x i8] c"\15\00\00\00\00\00\00\00" }>, align 8
@alloc615 = private unnamed_addr constant <{ i8*, [16 x i8] }> <{ i8* getelementptr inbounds (<{ [82 x i8] }>, <{ [82 x i8] }>* @alloc644, i32 0, i32 0, i32 0), [16 x i8] c"R\00\00\00\00\00\00\00\C2\00\00\00\05\00\00\00" }>, align 8
@alloc616 = private unnamed_addr constant <{ [6 x i8] }> <{ [6 x i8] c"clippy" }>, align 1
@alloc261 = private unnamed_addr constant <{ [7 x i8] }> <{ [7 x i8] c"rustc 1" }>, align 1
@alloc260 = private unnamed_addr constant <{ i8*, [8 x i8] }> <{ i8* getelementptr inbounds (<{ [7 x i8] }>, <{ [7 x i8] }>* @alloc261, i32 0, i32 0, i32 0), [8 x i8] c"\07\00\00\00\00\00\00\00" }>, align 8
@alloc250 = private unnamed_addr constant <{ i8*, [8 x i8] }> <{ i8* getelementptr inbounds (<{ [27 x i8] }>, <{ [27 x i8] }>* @alloc249, i32 0, i32 0, i32 0), [8 x i8] c"\1B\00\00\00\00\00\00\00" }>, align 8
@alloc618 = private unnamed_addr constant <{ i8*, [16 x i8] }> <{ i8* getelementptr inbounds (<{ [82 x i8] }>, <{ [82 x i8] }>* @alloc644, i32 0, i32 0, i32 0), [16 x i8] c"R\00\00\00\00\00\00\00\E1\00\00\00\05\00\00\00" }>, align 8
@alloc620 = private unnamed_addr constant <{ i8*, [16 x i8] }> <{ i8* getelementptr inbounds (<{ [82 x i8] }>, <{ [82 x i8] }>* @alloc644, i32 0, i32 0, i32 0), [16 x i8] c"R\00\00\00\00\00\00\00\F2\00\00\00\11\00\00\00" }>, align 8
@alloc622 = private unnamed_addr constant <{ i8*, [16 x i8] }> <{ i8* getelementptr inbounds (<{ [82 x i8] }>, <{ [82 x i8] }>* @alloc644, i32 0, i32 0, i32 0), [16 x i8] c"R\00\00\00\00\00\00\00\F2\00\00\00\17\00\00\00" }>, align 8
@alloc624 = private unnamed_addr constant <{ i8*, [16 x i8] }> <{ i8* getelementptr inbounds (<{ [82 x i8] }>, <{ [82 x i8] }>* @alloc644, i32 0, i32 0, i32 0), [16 x i8] c"R\00\00\00\00\00\00\00\EE\00\00\00\17\00\00\00" }>, align 8
@alloc626 = private unnamed_addr constant <{ i8*, [16 x i8] }> <{ i8* getelementptr inbounds (<{ [82 x i8] }>, <{ [82 x i8] }>* @alloc644, i32 0, i32 0, i32 0), [16 x i8] c"R\00\00\00\00\00\00\00\DD\00\00\00\13\00\00\00" }>, align 8
@alloc628 = private unnamed_addr constant <{ i8*, [16 x i8] }> <{ i8* getelementptr inbounds (<{ [82 x i8] }>, <{ [82 x i8] }>* @alloc644, i32 0, i32 0, i32 0), [16 x i8] c"R\00\00\00\00\00\00\00\D9\00\00\00\08\00\00\00" }>, align 8
@alloc629 = private unnamed_addr constant <{ [3 x i8] }> <{ [3 x i8] c"dev" }>, align 1
@alloc630 = private unnamed_addr constant <{ [7 x i8] }> <{ [7 x i8] c"nightly" }>, align 1
@alloc631 = private unnamed_addr constant <{ [15 x i8] }> <{ [15 x i8] c"freebsd-version" }>, align 1
@alloc632 = private unnamed_addr constant <{ [2 x i8] }> <{ [2 x i8] c"10" }>, align 1
@alloc633 = private unnamed_addr constant <{ [2 x i8] }> <{ [2 x i8] c"11" }>, align 1
@alloc634 = private unnamed_addr constant <{ [2 x i8] }> <{ [2 x i8] c"12" }>, align 1
@alloc635 = private unnamed_addr constant <{ [2 x i8] }> <{ [2 x i8] c"13" }>, align 1
@alloc636 = private unnamed_addr constant <{ [2 x i8] }> <{ [2 x i8] c"14" }>, align 1
@alloc637 = private unnamed_addr constant <{ [2 x i8] }> <{ [2 x i8] c"15" }>, align 1
@alloc638 = private unnamed_addr constant <{ [4 x i8] }> <{ [4 x i8] c"emcc" }>, align 1
@alloc639 = private unnamed_addr constant <{ [12 x i8] }> <{ [12 x i8] c"-dumpversion" }>, align 1
@alloc641 = private unnamed_addr constant <{ i8*, [16 x i8] }> <{ i8* getelementptr inbounds (<{ [82 x i8] }>, <{ [82 x i8] }>* @alloc644, i32 0, i32 0, i32 0), [16 x i8] c"R\00\00\00\00\00\00\00 \01\00\00\0A\00\00\00" }>, align 8
@str.6 = internal constant [33 x i8] c"attempt to multiply with overflow"
@alloc643 = private unnamed_addr constant <{ i8*, [16 x i8] }> <{ i8* getelementptr inbounds (<{ [82 x i8] }>, <{ [82 x i8] }>* @alloc644, i32 0, i32 0, i32 0), [16 x i8] c"R\00\00\00\00\00\00\00 \01\00\00\1A\00\00\00" }>, align 8
@alloc381 = private unnamed_addr constant <{ [18 x i8] }> <{ [18 x i8] c"trying to set cfg " }>, align 1
@alloc383 = private unnamed_addr constant <{ [31 x i8] }> <{ [31 x i8] c", but it is not in ALLOWED_CFGS" }>, align 1
@alloc382 = private unnamed_addr constant <{ i8*, [8 x i8], i8*, [8 x i8] }> <{ i8* getelementptr inbounds (<{ [18 x i8] }>, <{ [18 x i8] }>* @alloc381, i32 0, i32 0, i32 0), [8 x i8] c"\12\00\00\00\00\00\00\00", i8* getelementptr inbounds (<{ [31 x i8] }>, <{ [31 x i8] }>* @alloc383, i32 0, i32 0, i32 0), [8 x i8] c"\1F\00\00\00\00\00\00\00" }>, align 8
@alloc645 = private unnamed_addr constant <{ i8*, [16 x i8] }> <{ i8* getelementptr inbounds (<{ [82 x i8] }>, <{ [82 x i8] }>* @alloc644, i32 0, i32 0, i32 0), [16 x i8] c"R\00\00\00\00\00\00\00$\01\00\00\05\00\00\00" }>, align 8
@alloc385 = private unnamed_addr constant <{ [16 x i8] }> <{ [16 x i8] c"cargo:rustc-cfg=" }>, align 1
@alloc386 = private unnamed_addr constant <{ i8*, [8 x i8], i8*, [8 x i8] }> <{ i8* getelementptr inbounds (<{ [16 x i8] }>, <{ [16 x i8] }>* @alloc385, i32 0, i32 0, i32 0), [8 x i8] c"\10\00\00\00\00\00\00\00", i8* getelementptr inbounds (<{ [1 x i8] }>, <{ [1 x i8] }>* @alloc387, i32 0, i32 0, i32 0), [8 x i8] c"\01\00\00\00\00\00\00\00" }>, align 8
@__rustc_debug_gdb_scripts_section__ = linkonce_odr unnamed_addr constant [34 x i8] c"\01gdb_load_rust_pretty_printers.py\00", section ".debug_gdb_scripts", align 1

; <alloc::string::String as core::ops::index::Index<core::ops::range::RangeFull>>::index
; Function Attrs: inlinehint nonlazybind uwtable
define internal { [0 x i8]*, i64 } @"_ZN100_$LT$alloc..string..String$u20$as$u20$core..ops..index..Index$LT$core..ops..range..RangeFull$GT$$GT$5index17h7d8c747932610c4dE"(%"alloc::string::String"* align 8 %self, %"core::panic::location::Location"* align 8 %0) unnamed_addr #0 !dbg !305 {
start:
  %1 = alloca { [0 x i8]*, i64 }, align 8
  %v.dbg.spill = alloca { [0 x i8]*, i64 }, align 8
  %metadata.dbg.spill = alloca i64, align 8
  %data_address.dbg.spill = alloca {}*, align 8
  %self.dbg.spill4 = alloca i8*, align 8
  %len.dbg.spill3 = alloca i64, align 8
  %data.dbg.spill2 = alloca i8*, align 8
  %len.dbg.spill = alloca i64, align 8
  %data.dbg.spill = alloca i8*, align 8
  %self.dbg.spill1 = alloca %"alloc::vec::Vec<u8>"*, align 8
  %_index.dbg.spill = alloca %"core::ops::range::RangeFull", align 1
  %self.dbg.spill = alloca %"alloc::string::String"*, align 8
  %_19 = alloca { i8*, i64 }, align 8
  %_18 = alloca %"core::ptr::metadata::PtrRepr<[u8]>", align 8
  store %"alloc::string::String"* %self, %"alloc::string::String"** %self.dbg.spill, align 8
  call void @llvm.dbg.declare(metadata %"alloc::string::String"** %self.dbg.spill, metadata !354, metadata !DIExpression()), !dbg !356
  call void @llvm.dbg.declare(metadata %"core::ops::range::RangeFull"* %_index.dbg.spill, metadata !355, metadata !DIExpression()), !dbg !357
  %_6 = bitcast %"alloc::string::String"* %self to %"alloc::vec::Vec<u8>"*, !dbg !358
  store %"alloc::vec::Vec<u8>"* %_6, %"alloc::vec::Vec<u8>"** %self.dbg.spill1, align 8, !dbg !358
  call void @llvm.dbg.declare(metadata %"alloc::vec::Vec<u8>"** %self.dbg.spill1, metadata !359, metadata !DIExpression()), !dbg !372
; call alloc::vec::Vec<T,A>::as_ptr
  %data = call i8* @"_ZN5alloc3vec16Vec$LT$T$C$A$GT$6as_ptr17hcda8ebe428aaf363E"(%"alloc::vec::Vec<u8>"* align 8 %_6), !dbg !372
  store i8* %data, i8** %data.dbg.spill, align 8, !dbg !372
  call void @llvm.dbg.declare(metadata i8** %data.dbg.spill, metadata !373, metadata !DIExpression()), !dbg !394
  br label %bb1, !dbg !372

bb1:                                              ; preds = %start
  %2 = getelementptr inbounds %"alloc::vec::Vec<u8>", %"alloc::vec::Vec<u8>"* %_6, i32 0, i32 1, !dbg !372
  %len = load i64, i64* %2, align 8, !dbg !372
  store i64 %len, i64* %len.dbg.spill, align 8, !dbg !372
  call void @llvm.dbg.declare(metadata i64* %len.dbg.spill, metadata !382, metadata !DIExpression()), !dbg !394
  store i8* %data, i8** %data.dbg.spill2, align 8, !dbg !394
  call void @llvm.dbg.declare(metadata i8** %data.dbg.spill2, metadata !396, metadata !DIExpression()), !dbg !408
  store i64 %len, i64* %len.dbg.spill3, align 8, !dbg !394
  call void @llvm.dbg.declare(metadata i64* %len.dbg.spill3, metadata !407, metadata !DIExpression()), !dbg !408
  store i8* %data, i8** %self.dbg.spill4, align 8, !dbg !408
  call void @llvm.dbg.declare(metadata i8** %self.dbg.spill4, metadata !410, metadata !DIExpression()), !dbg !421
  %data_address = bitcast i8* %data to {}*, !dbg !421
  store {}* %data_address, {}** %data_address.dbg.spill, align 8, !dbg !421
  call void @llvm.dbg.declare(metadata {}** %data_address.dbg.spill, metadata !423, metadata !DIExpression()), !dbg !432
  store i64 %len, i64* %metadata.dbg.spill, align 8, !dbg !408
  call void @llvm.dbg.declare(metadata i64* %metadata.dbg.spill, metadata !431, metadata !DIExpression()), !dbg !432
  %3 = bitcast { i8*, i64 }* %_19 to {}**, !dbg !432
  store {}* %data_address, {}** %3, align 8, !dbg !432
  %4 = getelementptr inbounds { i8*, i64 }, { i8*, i64 }* %_19, i32 0, i32 1, !dbg !432
  store i64 %len, i64* %4, align 8, !dbg !432
  %5 = bitcast %"core::ptr::metadata::PtrRepr<[u8]>"* %_18 to { i8*, i64 }*, !dbg !432
  %6 = getelementptr inbounds { i8*, i64 }, { i8*, i64 }* %_19, i32 0, i32 0, !dbg !432
  %7 = load i8*, i8** %6, align 8, !dbg !432
  %8 = getelementptr inbounds { i8*, i64 }, { i8*, i64 }* %_19, i32 0, i32 1, !dbg !432
  %9 = load i64, i64* %8, align 8, !dbg !432
  %10 = getelementptr inbounds { i8*, i64 }, { i8*, i64 }* %5, i32 0, i32 0, !dbg !432
  store i8* %7, i8** %10, align 8, !dbg !432
  %11 = getelementptr inbounds { i8*, i64 }, { i8*, i64 }* %5, i32 0, i32 1, !dbg !432
  store i64 %9, i64* %11, align 8, !dbg !432
  %12 = bitcast %"core::ptr::metadata::PtrRepr<[u8]>"* %_18 to { [0 x i8]*, i64 }*, !dbg !432
  %13 = getelementptr inbounds { [0 x i8]*, i64 }, { [0 x i8]*, i64 }* %12, i32 0, i32 0, !dbg !432
  %_11.0 = load [0 x i8]*, [0 x i8]** %13, align 8, !dbg !432
  %14 = getelementptr inbounds { [0 x i8]*, i64 }, { [0 x i8]*, i64 }* %12, i32 0, i32 1, !dbg !432
  %_11.1 = load i64, i64* %14, align 8, !dbg !432
  %15 = getelementptr inbounds { [0 x i8]*, i64 }, { [0 x i8]*, i64 }* %v.dbg.spill, i32 0, i32 0, !dbg !358
  store [0 x i8]* %_11.0, [0 x i8]** %15, align 8, !dbg !358
  %16 = getelementptr inbounds { [0 x i8]*, i64 }, { [0 x i8]*, i64 }* %v.dbg.spill, i32 0, i32 1, !dbg !358
  store i64 %_11.1, i64* %16, align 8, !dbg !358
  call void @llvm.dbg.declare(metadata { [0 x i8]*, i64 }* %v.dbg.spill, metadata !434, metadata !DIExpression()), !dbg !443
  %17 = getelementptr inbounds { [0 x i8]*, i64 }, { [0 x i8]*, i64 }* %1, i32 0, i32 0, !dbg !443
  store [0 x i8]* %_11.0, [0 x i8]** %17, align 8, !dbg !443
  %18 = getelementptr inbounds { [0 x i8]*, i64 }, { [0 x i8]*, i64 }* %1, i32 0, i32 1, !dbg !443
  store i64 %_11.1, i64* %18, align 8, !dbg !443
  %19 = getelementptr inbounds { [0 x i8]*, i64 }, { [0 x i8]*, i64 }* %1, i32 0, i32 0, !dbg !443
  %20 = load [0 x i8]*, [0 x i8]** %19, align 8, !dbg !443, !nonnull !23, !align !445, !noundef !23
  %21 = getelementptr inbounds { [0 x i8]*, i64 }, { [0 x i8]*, i64 }* %1, i32 0, i32 1, !dbg !443
  %22 = load i64, i64* %21, align 8, !dbg !443
  br label %bb2, !dbg !443

bb2:                                              ; preds = %bb1
  %23 = insertvalue { [0 x i8]*, i64 } undef, [0 x i8]* %20, 0, !dbg !446
  %24 = insertvalue { [0 x i8]*, i64 } %23, i64 %22, 1, !dbg !446
  ret { [0 x i8]*, i64 } %24, !dbg !446
}

; <core::iter::adapters::map::Map<I,F> as core::iter::traits::iterator::Iterator>::try_fold
; Function Attrs: nonlazybind uwtable
define internal { i64, i64 } @"_ZN102_$LT$core..iter..adapters..map..Map$LT$I$C$F$GT$$u20$as$u20$core..iter..traits..iterator..Iterator$GT$8try_fold17h8de37ed017eb7085E"({ i64*, i64* }* align 8 %self, i64 %init) unnamed_addr #1 personality i32 (i32, i32, i64, %"unwind::libunwind::_Unwind_Exception"*, %"unwind::libunwind::_Unwind_Context"*)* @rust_eh_personality !dbg !447 {
start:
  %0 = alloca { i8*, i32 }, align 8
  %g.dbg.spill = alloca {}, align 1
  %init.dbg.spill = alloca i64, align 8
  %self.dbg.spill = alloca { i64*, i64* }*, align 8
  %_10 = alloca i8, align 1
  store { i64*, i64* }* %self, { i64*, i64* }** %self.dbg.spill, align 8
  call void @llvm.dbg.declare(metadata { i64*, i64* }** %self.dbg.spill, metadata !497, metadata !DIExpression()), !dbg !505
  store i64 %init, i64* %init.dbg.spill, align 8
  call void @llvm.dbg.declare(metadata i64* %init.dbg.spill, metadata !498, metadata !DIExpression()), !dbg !506
  call void @llvm.dbg.declare(metadata {}* %g.dbg.spill, metadata !499, metadata !DIExpression()), !dbg !507
  store i8 1, i8* %_10, align 1, !dbg !508
  %_8 = bitcast { i64*, i64* }* %self to %"[closure@alloc::str::join_generic_copy<str, u8, &str>::{closure#0}::{closure#0}]"*, !dbg !509
; invoke core::iter::adapters::map::map_try_fold
  %_6 = invoke align 1 i8* @_ZN4core4iter8adapters3map12map_try_fold17h4d53a0801c1cce34E(%"[closure@alloc::str::join_generic_copy<str, u8, &str>::{closure#0}::{closure#0}]"* align 1 %_8)
          to label %bb1 unwind label %cleanup, !dbg !510

bb5:                                              ; preds = %cleanup
  %1 = load i8, i8* %_10, align 1, !dbg !511, !range !512, !noundef !23
  %2 = trunc i8 %1 to i1, !dbg !511
  br i1 %2, label %bb4, label %bb3, !dbg !511

cleanup:                                          ; preds = %bb1, %start
  %3 = landingpad { i8*, i32 }
          cleanup
  %4 = extractvalue { i8*, i32 } %3, 0
  %5 = extractvalue { i8*, i32 } %3, 1
  %6 = getelementptr inbounds { i8*, i32 }, { i8*, i32 }* %0, i32 0, i32 0
  store i8* %4, i8** %6, align 8
  %7 = getelementptr inbounds { i8*, i32 }, { i8*, i32 }* %0, i32 0, i32 1
  store i32 %5, i32* %7, align 8
  br label %bb5

bb1:                                              ; preds = %start
  store i8 0, i8* %_10, align 1, !dbg !513
; invoke core::iter::traits::iterator::Iterator::try_fold
  %8 = invoke { i64, i64 } @_ZN4core4iter6traits8iterator8Iterator8try_fold17h61f1b67524321cb2E({ i64*, i64* }* align 8 %self, i64 %init, i8* align 1 %_6)
          to label %bb2 unwind label %cleanup, !dbg !513

bb2:                                              ; preds = %bb1
  %9 = extractvalue { i64, i64 } %8, 0, !dbg !513
  %10 = extractvalue { i64, i64 } %8, 1, !dbg !513
  %11 = insertvalue { i64, i64 } undef, i64 %9, 0, !dbg !514
  %12 = insertvalue { i64, i64 } %11, i64 %10, 1, !dbg !514
  ret { i64, i64 } %12, !dbg !514

bb3:                                              ; preds = %bb4, %bb5
  %13 = bitcast { i8*, i32 }* %0 to i8**, !dbg !515
  %14 = load i8*, i8** %13, align 8, !dbg !515
  %15 = getelementptr inbounds { i8*, i32 }, { i8*, i32 }* %0, i32 0, i32 1, !dbg !515
  %16 = load i32, i32* %15, align 8, !dbg !515
  %17 = insertvalue { i8*, i32 } undef, i8* %14, 0, !dbg !515
  %18 = insertvalue { i8*, i32 } %17, i32 %16, 1, !dbg !515
  resume { i8*, i32 } %18, !dbg !515

bb4:                                              ; preds = %bb5
  br label %bb3, !dbg !511
}

; <core::str::iter::CharIndices as core::iter::traits::double_ended::DoubleEndedIterator>::next_back
; Function Attrs: inlinehint nonlazybind uwtable
define internal { i64, i32 } @"_ZN102_$LT$core..str..iter..CharIndices$u20$as$u20$core..iter..traits..double_ended..DoubleEndedIterator$GT$9next_back17h9d06d895a780a20dE"(%"core::str::iter::CharIndices"* align 8 %self) unnamed_addr #0 !dbg !516 {
start:
  %self.dbg.spill2 = alloca { i8*, i8* }*, align 8
  %self.dbg.spill = alloca %"core::str::iter::CharIndices"*, align 8
  %_4 = alloca { i64*, i64* }, align 8
  store %"core::str::iter::CharIndices"* %self, %"core::str::iter::CharIndices"** %self.dbg.spill, align 8
  call void @llvm.dbg.declare(metadata %"core::str::iter::CharIndices"** %self.dbg.spill, metadata !558, metadata !DIExpression()), !dbg !559
  %self1 = getelementptr inbounds %"core::str::iter::CharIndices", %"core::str::iter::CharIndices"* %self, i32 0, i32 1, !dbg !560
  store { i8*, i8* }* %self1, { i8*, i8* }** %self.dbg.spill2, align 8, !dbg !560
  call void @llvm.dbg.declare(metadata { i8*, i8* }** %self.dbg.spill2, metadata !561, metadata !DIExpression()), !dbg !581
; call core::str::validations::next_code_point_reverse
  %0 = call { i32, i32 } @_ZN4core3str11validations23next_code_point_reverse17h3be7733f33aea549E({ i8*, i8* }* align 8 %self1), !dbg !581
  %_7.0 = extractvalue { i32, i32 } %0, 0, !dbg !581
  %_7.1 = extractvalue { i32, i32 } %0, 1, !dbg !581
  br label %bb2, !dbg !581

bb2:                                              ; preds = %start
; call core::option::Option<T>::map
  %_2 = call i32 @"_ZN4core6option15Option$LT$T$GT$3map17h54d2ab215f40a2d9E"(i32 %_7.0, i32 %_7.1), !dbg !581, !range !582
  br label %bb3, !dbg !581

bb3:                                              ; preds = %bb2
  %_5 = bitcast %"core::str::iter::CharIndices"* %self to i64*, !dbg !583
  %_6 = getelementptr inbounds %"core::str::iter::CharIndices", %"core::str::iter::CharIndices"* %self, i32 0, i32 1, !dbg !583
  %1 = bitcast { i64*, i64* }* %_4 to i64**, !dbg !583
  store i64* %_5, i64** %1, align 8, !dbg !583
  %2 = getelementptr inbounds { i64*, i64* }, { i64*, i64* }* %_4, i32 0, i32 1, !dbg !583
  %3 = bitcast i64** %2 to { i8*, i8* }**, !dbg !583
  store { i8*, i8* }* %_6, { i8*, i8* }** %3, align 8, !dbg !583
  %4 = getelementptr inbounds { i64*, i64* }, { i64*, i64* }* %_4, i32 0, i32 0, !dbg !560
  %5 = load i64*, i64** %4, align 8, !dbg !560, !nonnull !23, !align !584, !noundef !23
  %6 = getelementptr inbounds { i64*, i64* }, { i64*, i64* }* %_4, i32 0, i32 1, !dbg !560
  %7 = load i64*, i64** %6, align 8, !dbg !560, !nonnull !23, !align !584, !noundef !23
; call core::option::Option<T>::map
  %8 = call { i64, i32 } @"_ZN4core6option15Option$LT$T$GT$3map17h4f6218bb1bf4933aE"(i32 %_2, i64* align 8 %5, i64* align 8 %7), !dbg !560
  %9 = extractvalue { i64, i32 } %8, 0, !dbg !560
  %10 = extractvalue { i64, i32 } %8, 1, !dbg !560
  br label %bb1, !dbg !560

bb1:                                              ; preds = %bb3
  %11 = insertvalue { i64, i32 } undef, i64 %9, 0, !dbg !585
  %12 = insertvalue { i64, i32 } %11, i32 %10, 1, !dbg !585
  ret { i64, i32 } %12, !dbg !585
}

; <core::str::iter::CharIndices as core::iter::traits::double_ended::DoubleEndedIterator>::next_back::{{closure}}
; Function Attrs: inlinehint nonlazybind uwtable
define internal { i64, i32 } @"_ZN102_$LT$core..str..iter..CharIndices$u20$as$u20$core..iter..traits..double_ended..DoubleEndedIterator$GT$9next_back28_$u7b$$u7b$closure$u7d$$u7d$17h2f165d3b881e7820E"(i64* align 8 %0, i64* align 8 %1, i32 %ch) unnamed_addr #0 !dbg !586 {
start:
  %index.dbg.spill = alloca i64, align 8
  %2 = alloca i64, align 8
  %diff.dbg.spill = alloca i64, align 8
  %3 = alloca i64, align 8
  %4 = alloca i64, align 8
  %self.dbg.spill4 = alloca i8*, align 8
  %self.dbg.spill3 = alloca i8*, align 8
  %5 = alloca i64, align 8
  %self.dbg.spill2 = alloca i8*, align 8
  %size.dbg.spill = alloca i64, align 8
  %start.dbg.spill = alloca i8*, align 8
  %self.dbg.spill = alloca { i8*, i8* }*, align 8
  %ch.dbg.spill = alloca i32, align 4
  %6 = alloca { i64, i32 }, align 8
  %_1 = alloca { i64*, i64* }, align 8
  %7 = getelementptr inbounds { i64*, i64* }, { i64*, i64* }* %_1, i32 0, i32 0
  store i64* %0, i64** %7, align 8
  %8 = getelementptr inbounds { i64*, i64* }, { i64*, i64* }* %_1, i32 0, i32 1
  store i64* %1, i64** %8, align 8
  %9 = bitcast { i64*, i64* }* %_1 to i64**
  %10 = load i64*, i64** %9, align 8, !nonnull !23, !align !584, !noundef !23
  call void @llvm.dbg.declare(metadata { i64*, i64* }* %_1, metadata !597, metadata !DIExpression(DW_OP_deref)), !dbg !601
  %11 = getelementptr inbounds { i64*, i64* }, { i64*, i64* }* %_1, i32 0, i32 1
  %12 = bitcast i64** %11 to { i8*, i8* }**
  %13 = load { i8*, i8* }*, { i8*, i8* }** %12, align 8, !nonnull !23, !align !584, !noundef !23
  call void @llvm.dbg.declare(metadata { i64*, i64* }* %_1, metadata !598, metadata !DIExpression(DW_OP_plus_uconst, 8, DW_OP_deref)), !dbg !601
  store i32 %ch, i32* %ch.dbg.spill, align 4
  call void @llvm.dbg.declare(metadata i32* %ch.dbg.spill, metadata !596, metadata !DIExpression()), !dbg !602
  %14 = bitcast { i64*, i64* }* %_1 to i64**, !dbg !603
  %_9 = load i64*, i64** %14, align 8, !dbg !603, !nonnull !23, !align !584, !noundef !23
  %_4 = load i64, i64* %_9, align 8, !dbg !603
  %15 = getelementptr inbounds { i64*, i64* }, { i64*, i64* }* %_1, i32 0, i32 1, !dbg !604
  %16 = bitcast i64** %15 to { i8*, i8* }**, !dbg !604
  %_10 = load { i8*, i8* }*, { i8*, i8* }** %16, align 8, !dbg !604, !nonnull !23, !align !584, !noundef !23
  store { i8*, i8* }* %_10, { i8*, i8* }** %self.dbg.spill, align 8, !dbg !604
  call void @llvm.dbg.declare(metadata { i8*, i8* }** %self.dbg.spill, metadata !605, metadata !DIExpression()), !dbg !622
  %17 = bitcast { i8*, i8* }* %_10 to i8**, !dbg !622
  %start1 = load i8*, i8** %17, align 8, !dbg !622, !nonnull !23, !noundef !23
  store i8* %start1, i8** %start.dbg.spill, align 8, !dbg !622
  call void @llvm.dbg.declare(metadata i8** %start.dbg.spill, metadata !613, metadata !DIExpression()), !dbg !623
  store i64 1, i64* %size.dbg.spill, align 8, !dbg !624
  call void @llvm.dbg.declare(metadata i64* %size.dbg.spill, metadata !616, metadata !DIExpression()), !dbg !636
  %18 = getelementptr inbounds { i8*, i8* }, { i8*, i8* }* %_10, i32 0, i32 1, !dbg !636
  %self = load i8*, i8** %18, align 8, !dbg !636
  store i8* %self, i8** %self.dbg.spill2, align 8, !dbg !636
  call void @llvm.dbg.declare(metadata i8** %self.dbg.spill2, metadata !637, metadata !DIExpression()), !dbg !641
  %19 = bitcast i64* %5 to i8**, !dbg !641
  store i8* %self, i8** %19, align 8, !dbg !641
  %_20 = load i64, i64* %5, align 8, !dbg !641
  br label %bb3, !dbg !641

bb3:                                              ; preds = %start
  store i8* %start1, i8** %self.dbg.spill3, align 8, !dbg !636
  call void @llvm.dbg.declare(metadata i8** %self.dbg.spill3, metadata !643, metadata !DIExpression()), !dbg !651
  store i8* %start1, i8** %self.dbg.spill4, align 8, !dbg !651
  call void @llvm.dbg.declare(metadata i8** %self.dbg.spill4, metadata !653, metadata !DIExpression()), !dbg !662
  %20 = bitcast i64* %4 to i8**, !dbg !662
  store i8* %start1, i8** %20, align 8, !dbg !662
  %_22 = load i64, i64* %4, align 8, !dbg !662
  br label %bb4, !dbg !662

bb4:                                              ; preds = %bb3
  %21 = sub nuw i64 %_20, %_22, !dbg !636
  store i64 %21, i64* %3, align 8, !dbg !636
  %diff = load i64, i64* %3, align 8, !dbg !636
  store i64 %diff, i64* %diff.dbg.spill, align 8, !dbg !636
  call void @llvm.dbg.declare(metadata i64* %diff.dbg.spill, metadata !619, metadata !DIExpression()), !dbg !663
  br label %bb1, !dbg !636

bb1:                                              ; preds = %bb4
  %22 = udiv exact i64 %diff, 1, !dbg !663
  store i64 %22, i64* %2, align 8, !dbg !663
  %_5 = load i64, i64* %2, align 8, !dbg !663
  br label %bb2, !dbg !663

bb2:                                              ; preds = %bb1
  %index = add i64 %_4, %_5, !dbg !603
  store i64 %index, i64* %index.dbg.spill, align 8, !dbg !603
  call void @llvm.dbg.declare(metadata i64* %index.dbg.spill, metadata !599, metadata !DIExpression()), !dbg !664
  %23 = bitcast { i64, i32 }* %6 to i64*, !dbg !665
  store i64 %index, i64* %23, align 8, !dbg !665
  %24 = getelementptr inbounds { i64, i32 }, { i64, i32 }* %6, i32 0, i32 1, !dbg !665
  store i32 %ch, i32* %24, align 8, !dbg !665
  %25 = getelementptr inbounds { i64, i32 }, { i64, i32 }* %6, i32 0, i32 0, !dbg !666
  %26 = load i64, i64* %25, align 8, !dbg !666
  %27 = getelementptr inbounds { i64, i32 }, { i64, i32 }* %6, i32 0, i32 1, !dbg !666
  %28 = load i32, i32* %27, align 8, !dbg !666, !range !667, !noundef !23
  %29 = insertvalue { i64, i32 } undef, i64 %26, 0, !dbg !666
  %30 = insertvalue { i64, i32 } %29, i32 %28, 1, !dbg !666
  ret { i64, i32 } %30, !dbg !666
}

; <core::str::pattern::MultiCharEqSearcher<C> as core::str::pattern::ReverseSearcher>::next_back
; Function Attrs: inlinehint nonlazybind uwtable
define internal void @"_ZN104_$LT$core..str..pattern..MultiCharEqSearcher$LT$C$GT$$u20$as$u20$core..str..pattern..ReverseSearcher$GT$9next_back17haf0fbae422bf6c47E"(%"core::str::pattern::SearchStep"* sret(%"core::str::pattern::SearchStep") %0, %"core::str::pattern::MultiCharEqSearcher<[closure@core::str::<impl str>::trim::{closure#0}]>"* align 8 %self) unnamed_addr #0 !dbg !668 {
start:
  %char_len.dbg.spill = alloca i64, align 8
  %len.dbg.spill = alloca i64, align 8
  %1 = alloca i64, align 8
  %diff.dbg.spill18 = alloca i64, align 8
  %2 = alloca i64, align 8
  %3 = alloca i64, align 8
  %self.dbg.spill16 = alloca i8*, align 8
  %self.dbg.spill15 = alloca i8*, align 8
  %4 = alloca i64, align 8
  %self.dbg.spill14 = alloca i8*, align 8
  %size.dbg.spill12 = alloca i64, align 8
  %start.dbg.spill11 = alloca i8*, align 8
  %self.dbg.spill9 = alloca { i8*, i8* }*, align 8
  %c.dbg.spill = alloca i32, align 4
  %i.dbg.spill = alloca i64, align 8
  %pre_len.dbg.spill = alloca i64, align 8
  %5 = alloca i64, align 8
  %diff.dbg.spill = alloca i64, align 8
  %6 = alloca i64, align 8
  %7 = alloca i64, align 8
  %self.dbg.spill7 = alloca i8*, align 8
  %self.dbg.spill6 = alloca i8*, align 8
  %8 = alloca i64, align 8
  %self.dbg.spill5 = alloca i8*, align 8
  %size.dbg.spill = alloca i64, align 8
  %start.dbg.spill = alloca i8*, align 8
  %self.dbg.spill2 = alloca { i8*, i8* }*, align 8
  %s.dbg.spill = alloca %"core::str::iter::CharIndices"*, align 8
  %self.dbg.spill = alloca %"core::str::pattern::MultiCharEqSearcher<[closure@core::str::<impl str>::trim::{closure#0}]>"*, align 8
  %_5 = alloca { i64, i32 }, align 8
  store %"core::str::pattern::MultiCharEqSearcher<[closure@core::str::<impl str>::trim::{closure#0}]>"* %self, %"core::str::pattern::MultiCharEqSearcher<[closure@core::str::<impl str>::trim::{closure#0}]>"** %self.dbg.spill, align 8
  call void @llvm.dbg.declare(metadata %"core::str::pattern::MultiCharEqSearcher<[closure@core::str::<impl str>::trim::{closure#0}]>"** %self.dbg.spill, metadata !703, metadata !DIExpression()), !dbg !715
  %s = getelementptr inbounds %"core::str::pattern::MultiCharEqSearcher<[closure@core::str::<impl str>::trim::{closure#0}]>", %"core::str::pattern::MultiCharEqSearcher<[closure@core::str::<impl str>::trim::{closure#0}]>"* %self, i32 0, i32 2, !dbg !716
  store %"core::str::iter::CharIndices"* %s, %"core::str::iter::CharIndices"** %s.dbg.spill, align 8, !dbg !716
  call void @llvm.dbg.declare(metadata %"core::str::iter::CharIndices"** %s.dbg.spill, metadata !704, metadata !DIExpression()), !dbg !717
  %self1 = getelementptr inbounds %"core::str::iter::CharIndices", %"core::str::iter::CharIndices"* %s, i32 0, i32 1, !dbg !718
  store { i8*, i8* }* %self1, { i8*, i8* }** %self.dbg.spill2, align 8, !dbg !718
  call void @llvm.dbg.declare(metadata { i8*, i8* }** %self.dbg.spill2, metadata !719, metadata !DIExpression()), !dbg !732
  %9 = bitcast { i8*, i8* }* %self1 to i8**, !dbg !732
  %start3 = load i8*, i8** %9, align 8, !dbg !732, !nonnull !23, !noundef !23
  store i8* %start3, i8** %start.dbg.spill, align 8, !dbg !732
  call void @llvm.dbg.declare(metadata i8** %start.dbg.spill, metadata !723, metadata !DIExpression()), !dbg !733
  store i64 1, i64* %size.dbg.spill, align 8, !dbg !734
  call void @llvm.dbg.declare(metadata i64* %size.dbg.spill, metadata !726, metadata !DIExpression()), !dbg !740
  %10 = getelementptr inbounds { i8*, i8* }, { i8*, i8* }* %self1, i32 0, i32 1, !dbg !740
  %self4 = load i8*, i8** %10, align 8, !dbg !740
  store i8* %self4, i8** %self.dbg.spill5, align 8, !dbg !740
  call void @llvm.dbg.declare(metadata i8** %self.dbg.spill5, metadata !741, metadata !DIExpression()), !dbg !745
  %11 = bitcast i64* %8 to i8**, !dbg !745
  store i8* %self4, i8** %11, align 8, !dbg !745
  %_35 = load i64, i64* %8, align 8, !dbg !745
  br label %bb11, !dbg !745

bb11:                                             ; preds = %start
  store i8* %start3, i8** %self.dbg.spill6, align 8, !dbg !740
  call void @llvm.dbg.declare(metadata i8** %self.dbg.spill6, metadata !747, metadata !DIExpression()), !dbg !751
  store i8* %start3, i8** %self.dbg.spill7, align 8, !dbg !751
  call void @llvm.dbg.declare(metadata i8** %self.dbg.spill7, metadata !753, metadata !DIExpression()), !dbg !757
  %12 = bitcast i64* %7 to i8**, !dbg !757
  store i8* %start3, i8** %12, align 8, !dbg !757
  %_37 = load i64, i64* %7, align 8, !dbg !757
  br label %bb12, !dbg !757

bb12:                                             ; preds = %bb11
  %13 = sub nuw i64 %_35, %_37, !dbg !740
  store i64 %13, i64* %6, align 8, !dbg !740
  %diff = load i64, i64* %6, align 8, !dbg !740
  store i64 %diff, i64* %diff.dbg.spill, align 8, !dbg !740
  call void @llvm.dbg.declare(metadata i64* %diff.dbg.spill, metadata !729, metadata !DIExpression()), !dbg !758
  br label %bb9, !dbg !740

bb9:                                              ; preds = %bb12
  %14 = udiv exact i64 %diff, 1, !dbg !758
  store i64 %14, i64* %5, align 8, !dbg !758
  %pre_len = load i64, i64* %5, align 8, !dbg !758
  store i64 %pre_len, i64* %pre_len.dbg.spill, align 8, !dbg !758
  call void @llvm.dbg.declare(metadata i64* %pre_len.dbg.spill, metadata !706, metadata !DIExpression()), !dbg !759
  br label %bb10, !dbg !758

bb10:                                             ; preds = %bb9
; call <core::str::iter::CharIndices as core::iter::traits::double_ended::DoubleEndedIterator>::next_back
  %15 = call { i64, i32 } @"_ZN102_$LT$core..str..iter..CharIndices$u20$as$u20$core..iter..traits..double_ended..DoubleEndedIterator$GT$9next_back17h9d06d895a780a20dE"(%"core::str::iter::CharIndices"* align 8 %s), !dbg !760
  store { i64, i32 } %15, { i64, i32 }* %_5, align 8, !dbg !760
  br label %bb1, !dbg !760

bb1:                                              ; preds = %bb10
  %16 = getelementptr inbounds { i64, i32 }, { i64, i32 }* %_5, i32 0, i32 1, !dbg !761
  %17 = load i32, i32* %16, align 8, !dbg !761, !range !582, !noundef !23
  %18 = sub i32 %17, 1114112, !dbg !761
  %19 = icmp eq i32 %18, 0, !dbg !761
  %_7 = select i1 %19, i64 0, i64 1, !dbg !761
  %20 = icmp eq i64 %_7, 1, !dbg !761
  br i1 %20, label %bb2, label %bb6, !dbg !761

bb2:                                              ; preds = %bb1
  %21 = bitcast { i64, i32 }* %_5 to i64*, !dbg !762
  %i = load i64, i64* %21, align 8, !dbg !762
  store i64 %i, i64* %i.dbg.spill, align 8, !dbg !762
  call void @llvm.dbg.declare(metadata i64* %i.dbg.spill, metadata !708, metadata !DIExpression()), !dbg !762
  %22 = getelementptr inbounds { i64, i32 }, { i64, i32 }* %_5, i32 0, i32 1, !dbg !763
  %c = load i32, i32* %22, align 8, !dbg !763, !range !667, !noundef !23
  store i32 %c, i32* %c.dbg.spill, align 4, !dbg !763
  call void @llvm.dbg.declare(metadata i32* %c.dbg.spill, metadata !710, metadata !DIExpression()), !dbg !763
  %self8 = getelementptr inbounds %"core::str::iter::CharIndices", %"core::str::iter::CharIndices"* %s, i32 0, i32 1, !dbg !764
  store { i8*, i8* }* %self8, { i8*, i8* }** %self.dbg.spill9, align 8, !dbg !764
  call void @llvm.dbg.declare(metadata { i8*, i8* }** %self.dbg.spill9, metadata !765, metadata !DIExpression()), !dbg !778
  %23 = bitcast { i8*, i8* }* %self8 to i8**, !dbg !778
  %start10 = load i8*, i8** %23, align 8, !dbg !778, !nonnull !23, !noundef !23
  store i8* %start10, i8** %start.dbg.spill11, align 8, !dbg !778
  call void @llvm.dbg.declare(metadata i8** %start.dbg.spill11, metadata !769, metadata !DIExpression()), !dbg !779
  store i64 1, i64* %size.dbg.spill12, align 8, !dbg !780
  call void @llvm.dbg.declare(metadata i64* %size.dbg.spill12, metadata !772, metadata !DIExpression()), !dbg !786
  %24 = getelementptr inbounds { i8*, i8* }, { i8*, i8* }* %self8, i32 0, i32 1, !dbg !786
  %self13 = load i8*, i8** %24, align 8, !dbg !786
  store i8* %self13, i8** %self.dbg.spill14, align 8, !dbg !786
  call void @llvm.dbg.declare(metadata i8** %self.dbg.spill14, metadata !787, metadata !DIExpression()), !dbg !791
  %25 = bitcast i64* %4 to i8**, !dbg !791
  store i8* %self13, i8** %25, align 8, !dbg !791
  %_54 = load i64, i64* %4, align 8, !dbg !791
  br label %bb15, !dbg !791

bb6:                                              ; preds = %bb1
  %26 = bitcast %"core::str::pattern::SearchStep"* %0 to i64*, !dbg !793
  store i64 2, i64* %26, align 8, !dbg !793
  br label %bb8, !dbg !794

bb8:                                              ; preds = %bb7, %bb6
  ret void, !dbg !794

bb15:                                             ; preds = %bb2
  store i8* %start10, i8** %self.dbg.spill15, align 8, !dbg !786
  call void @llvm.dbg.declare(metadata i8** %self.dbg.spill15, metadata !795, metadata !DIExpression()), !dbg !799
  store i8* %start10, i8** %self.dbg.spill16, align 8, !dbg !799
  call void @llvm.dbg.declare(metadata i8** %self.dbg.spill16, metadata !801, metadata !DIExpression()), !dbg !805
  %27 = bitcast i64* %3 to i8**, !dbg !805
  store i8* %start10, i8** %27, align 8, !dbg !805
  %_56 = load i64, i64* %3, align 8, !dbg !805
  br label %bb16, !dbg !805

bb16:                                             ; preds = %bb15
  %28 = sub nuw i64 %_54, %_56, !dbg !786
  store i64 %28, i64* %2, align 8, !dbg !786
  %diff17 = load i64, i64* %2, align 8, !dbg !786
  store i64 %diff17, i64* %diff.dbg.spill18, align 8, !dbg !786
  call void @llvm.dbg.declare(metadata i64* %diff.dbg.spill18, metadata !775, metadata !DIExpression()), !dbg !806
  br label %bb13, !dbg !786

bb13:                                             ; preds = %bb16
  %29 = udiv exact i64 %diff17, 1, !dbg !806
  store i64 %29, i64* %1, align 8, !dbg !806
  %len = load i64, i64* %1, align 8, !dbg !806
  store i64 %len, i64* %len.dbg.spill, align 8, !dbg !806
  call void @llvm.dbg.declare(metadata i64* %len.dbg.spill, metadata !711, metadata !DIExpression()), !dbg !807
  br label %bb14, !dbg !806

bb14:                                             ; preds = %bb13
  %char_len = sub i64 %pre_len, %len, !dbg !808
  store i64 %char_len, i64* %char_len.dbg.spill, align 8, !dbg !808
  call void @llvm.dbg.declare(metadata i64* %char_len.dbg.spill, metadata !713, metadata !DIExpression()), !dbg !809
  %_16 = bitcast %"core::str::pattern::MultiCharEqSearcher<[closure@core::str::<impl str>::trim::{closure#0}]>"* %self to %"[closure@core::str::<impl str>::trim::{closure#0}]"*, !dbg !810
; call <F as core::str::pattern::MultiCharEq>::matches
  %_15 = call zeroext i1 @"_ZN53_$LT$F$u20$as$u20$core..str..pattern..MultiCharEq$GT$7matches17hdc36e925302422e0E"(%"[closure@core::str::<impl str>::trim::{closure#0}]"* align 1 %_16, i32 %c), !dbg !810
  br label %bb3, !dbg !810

bb3:                                              ; preds = %bb14
  br i1 %_15, label %bb4, label %bb5, !dbg !810

bb5:                                              ; preds = %bb3
  %_23 = add i64 %i, %char_len, !dbg !811
  %30 = bitcast %"core::str::pattern::SearchStep"* %0 to %"core::str::pattern::SearchStep::Reject"*, !dbg !812
  %31 = getelementptr inbounds %"core::str::pattern::SearchStep::Reject", %"core::str::pattern::SearchStep::Reject"* %30, i32 0, i32 1, !dbg !812
  store i64 %i, i64* %31, align 8, !dbg !812
  %32 = bitcast %"core::str::pattern::SearchStep"* %0 to %"core::str::pattern::SearchStep::Reject"*, !dbg !812
  %33 = getelementptr inbounds %"core::str::pattern::SearchStep::Reject", %"core::str::pattern::SearchStep::Reject"* %32, i32 0, i32 2, !dbg !812
  store i64 %_23, i64* %33, align 8, !dbg !812
  %34 = bitcast %"core::str::pattern::SearchStep"* %0 to i64*, !dbg !812
  store i64 1, i64* %34, align 8, !dbg !812
  br label %bb7, !dbg !813

bb4:                                              ; preds = %bb3
  %_19 = add i64 %i, %char_len, !dbg !814
  %35 = bitcast %"core::str::pattern::SearchStep"* %0 to %"core::str::pattern::SearchStep::Match"*, !dbg !815
  %36 = getelementptr inbounds %"core::str::pattern::SearchStep::Match", %"core::str::pattern::SearchStep::Match"* %35, i32 0, i32 1, !dbg !815
  store i64 %i, i64* %36, align 8, !dbg !815
  %37 = bitcast %"core::str::pattern::SearchStep"* %0 to %"core::str::pattern::SearchStep::Match"*, !dbg !815
  %38 = getelementptr inbounds %"core::str::pattern::SearchStep::Match", %"core::str::pattern::SearchStep::Match"* %37, i32 0, i32 2, !dbg !815
  store i64 %_19, i64* %38, align 8, !dbg !815
  %39 = bitcast %"core::str::pattern::SearchStep"* %0 to i64*, !dbg !815
  store i64 0, i64* %39, align 8, !dbg !815
  br label %bb7, !dbg !816

bb7:                                              ; preds = %bb5, %bb4
  br label %bb8, !dbg !794
}

; <core::ops::range::Range<usize> as core::slice::index::SliceIndex<[T]>>::get_unchecked
; Function Attrs: inlinehint nonlazybind uwtable
define internal { [0 x i8]*, i64 } @"_ZN106_$LT$core..ops..range..Range$LT$usize$GT$$u20$as$u20$core..slice..index..SliceIndex$LT$$u5b$T$u5d$$GT$$GT$13get_unchecked17hadb60770f7cc267eE"(i64 %self.0, i64 %self.1, [0 x i8]* %slice.0, i64 %slice.1) unnamed_addr #0 !dbg !817 {
start:
  %metadata.dbg.spill = alloca i64, align 8
  %data_address.dbg.spill = alloca {}*, align 8
  %self.dbg.spill5 = alloca i8*, align 8
  %len.dbg.spill = alloca i64, align 8
  %data.dbg.spill = alloca i8*, align 8
  %0 = alloca i8*, align 8
  %count.dbg.spill4 = alloca i64, align 8
  %self.dbg.spill3 = alloca i8*, align 8
  %count.dbg.spill = alloca i64, align 8
  %self.dbg.spill2 = alloca i8*, align 8
  %self.dbg.spill1 = alloca { [0 x i8]*, i64 }, align 8
  %slice.dbg.spill = alloca { [0 x i8]*, i64 }, align 8
  %self.dbg.spill = alloca { i64, i64 }, align 8
  %_22 = alloca { i8*, i64 }, align 8
  %_21 = alloca %"core::ptr::metadata::PtrRepr<[u8]>", align 8
  %runtime = alloca %"[closure@<core::ops::range::Range<usize> as core::slice::index::SliceIndex<[u8]>>::get_unchecked::{closure#0}]", align 8
  %1 = getelementptr inbounds { i64, i64 }, { i64, i64 }* %self.dbg.spill, i32 0, i32 0
  store i64 %self.0, i64* %1, align 8
  %2 = getelementptr inbounds { i64, i64 }, { i64, i64 }* %self.dbg.spill, i32 0, i32 1
  store i64 %self.1, i64* %2, align 8
  call void @llvm.dbg.declare(metadata { i64, i64 }* %self.dbg.spill, metadata !830, metadata !DIExpression()), !dbg !842
  %3 = getelementptr inbounds { [0 x i8]*, i64 }, { [0 x i8]*, i64 }* %slice.dbg.spill, i32 0, i32 0
  store [0 x i8]* %slice.0, [0 x i8]** %3, align 8
  %4 = getelementptr inbounds { [0 x i8]*, i64 }, { [0 x i8]*, i64 }* %slice.dbg.spill, i32 0, i32 1
  store i64 %slice.1, i64* %4, align 8
  call void @llvm.dbg.declare(metadata { [0 x i8]*, i64 }* %slice.dbg.spill, metadata !831, metadata !DIExpression()), !dbg !843
  call void @llvm.dbg.declare(metadata %"[closure@<core::ops::range::Range<usize> as core::slice::index::SliceIndex<[u8]>>::get_unchecked::{closure#0}]"* %runtime, metadata !832, metadata !DIExpression()), !dbg !844
  %5 = getelementptr inbounds { [0 x i8]*, i64 }, { [0 x i8]*, i64 }* %self.dbg.spill1, i32 0, i32 0, !dbg !845
  store [0 x i8]* %slice.0, [0 x i8]** %5, align 8, !dbg !845
  %6 = getelementptr inbounds { [0 x i8]*, i64 }, { [0 x i8]*, i64 }* %self.dbg.spill1, i32 0, i32 1, !dbg !845
  store i64 %slice.1, i64* %6, align 8, !dbg !845
  call void @llvm.dbg.declare(metadata { [0 x i8]*, i64 }* %self.dbg.spill1, metadata !846, metadata !DIExpression()), !dbg !853
  %self = bitcast [0 x i8]* %slice.0 to i8*, !dbg !853
  store i8* %self, i8** %self.dbg.spill2, align 8, !dbg !853
  call void @llvm.dbg.declare(metadata i8** %self.dbg.spill2, metadata !854, metadata !DIExpression()), !dbg !861
  store i64 %self.0, i64* %count.dbg.spill, align 8, !dbg !862
  call void @llvm.dbg.declare(metadata i64* %count.dbg.spill, metadata !860, metadata !DIExpression()), !dbg !861
  store i8* %self, i8** %self.dbg.spill3, align 8, !dbg !861
  call void @llvm.dbg.declare(metadata i8** %self.dbg.spill3, metadata !863, metadata !DIExpression()), !dbg !871
  store i64 %self.0, i64* %count.dbg.spill4, align 8, !dbg !861
  call void @llvm.dbg.declare(metadata i64* %count.dbg.spill4, metadata !870, metadata !DIExpression()), !dbg !871
  %7 = getelementptr inbounds i8, i8* %self, i64 %self.0, !dbg !871
  store i8* %7, i8** %0, align 8, !dbg !871
  %data = load i8*, i8** %0, align 8, !dbg !871
  store i8* %data, i8** %data.dbg.spill, align 8, !dbg !871
  call void @llvm.dbg.declare(metadata i8** %data.dbg.spill, metadata !873, metadata !DIExpression()), !dbg !878
  br label %bb1, !dbg !871

bb1:                                              ; preds = %start
  %len = sub i64 %self.1, %self.0, !dbg !880
  store i64 %len, i64* %len.dbg.spill, align 8, !dbg !880
  call void @llvm.dbg.declare(metadata i64* %len.dbg.spill, metadata !877, metadata !DIExpression()), !dbg !878
  store i8* %data, i8** %self.dbg.spill5, align 8, !dbg !878
  call void @llvm.dbg.declare(metadata i8** %self.dbg.spill5, metadata !881, metadata !DIExpression()), !dbg !885
  %data_address = bitcast i8* %data to {}*, !dbg !885
  store {}* %data_address, {}** %data_address.dbg.spill, align 8, !dbg !885
  call void @llvm.dbg.declare(metadata {}** %data_address.dbg.spill, metadata !887, metadata !DIExpression()), !dbg !892
  store i64 %len, i64* %metadata.dbg.spill, align 8, !dbg !878
  call void @llvm.dbg.declare(metadata i64* %metadata.dbg.spill, metadata !891, metadata !DIExpression()), !dbg !892
  %8 = bitcast { i8*, i64 }* %_22 to {}**, !dbg !892
  store {}* %data_address, {}** %8, align 8, !dbg !892
  %9 = getelementptr inbounds { i8*, i64 }, { i8*, i64 }* %_22, i32 0, i32 1, !dbg !892
  store i64 %len, i64* %9, align 8, !dbg !892
  %10 = bitcast %"core::ptr::metadata::PtrRepr<[u8]>"* %_21 to { i8*, i64 }*, !dbg !892
  %11 = getelementptr inbounds { i8*, i64 }, { i8*, i64 }* %_22, i32 0, i32 0, !dbg !892
  %12 = load i8*, i8** %11, align 8, !dbg !892
  %13 = getelementptr inbounds { i8*, i64 }, { i8*, i64 }* %_22, i32 0, i32 1, !dbg !892
  %14 = load i64, i64* %13, align 8, !dbg !892
  %15 = getelementptr inbounds { i8*, i64 }, { i8*, i64 }* %10, i32 0, i32 0, !dbg !892
  store i8* %12, i8** %15, align 8, !dbg !892
  %16 = getelementptr inbounds { i8*, i64 }, { i8*, i64 }* %10, i32 0, i32 1, !dbg !892
  store i64 %14, i64* %16, align 8, !dbg !892
  %17 = bitcast %"core::ptr::metadata::PtrRepr<[u8]>"* %_21 to { [0 x i8]*, i64 }*, !dbg !892
  %18 = getelementptr inbounds { [0 x i8]*, i64 }, { [0 x i8]*, i64 }* %17, i32 0, i32 0, !dbg !892
  %19 = load [0 x i8]*, [0 x i8]** %18, align 8, !dbg !892
  %20 = getelementptr inbounds { [0 x i8]*, i64 }, { [0 x i8]*, i64 }* %17, i32 0, i32 1, !dbg !892
  %21 = load i64, i64* %20, align 8, !dbg !892
  %22 = insertvalue { [0 x i8]*, i64 } undef, [0 x i8]* %19, 0, !dbg !894
  %23 = insertvalue { [0 x i8]*, i64 } %22, i64 %21, 1, !dbg !894
  ret { [0 x i8]*, i64 } %23, !dbg !894
}

; <core::ops::range::Range<usize> as core::slice::index::SliceIndex<[T]>>::get_unchecked_mut
; Function Attrs: inlinehint nonlazybind uwtable
define internal { [0 x i8]*, i64 } @"_ZN106_$LT$core..ops..range..Range$LT$usize$GT$$u20$as$u20$core..slice..index..SliceIndex$LT$$u5b$T$u5d$$GT$$GT$17get_unchecked_mut17h0289f9d6ecabd111E"(i64 %self.0, i64 %self.1, [0 x i8]* %slice.0, i64 %slice.1) unnamed_addr #0 !dbg !895 {
start:
  %metadata.dbg.spill = alloca i64, align 8
  %data_address.dbg.spill = alloca {}*, align 8
  %self.dbg.spill5 = alloca i8*, align 8
  %len.dbg.spill = alloca i64, align 8
  %data.dbg.spill = alloca i8*, align 8
  %0 = alloca i8*, align 8
  %count.dbg.spill4 = alloca i64, align 8
  %self.dbg.spill3 = alloca i8*, align 8
  %count.dbg.spill = alloca i64, align 8
  %self.dbg.spill2 = alloca i8*, align 8
  %self.dbg.spill1 = alloca { [0 x i8]*, i64 }, align 8
  %slice.dbg.spill = alloca { [0 x i8]*, i64 }, align 8
  %self.dbg.spill = alloca { i64, i64 }, align 8
  %_24 = alloca { i8*, i64 }, align 8
  %_23 = alloca %"core::ptr::metadata::PtrRepr<[u8]>", align 8
  %runtime = alloca %"[closure@<core::ops::range::Range<usize> as core::slice::index::SliceIndex<[u8]>>::get_unchecked_mut::{closure#0}]", align 8
  %1 = getelementptr inbounds { i64, i64 }, { i64, i64 }* %self.dbg.spill, i32 0, i32 0
  store i64 %self.0, i64* %1, align 8
  %2 = getelementptr inbounds { i64, i64 }, { i64, i64 }* %self.dbg.spill, i32 0, i32 1
  store i64 %self.1, i64* %2, align 8
  call void @llvm.dbg.declare(metadata { i64, i64 }* %self.dbg.spill, metadata !903, metadata !DIExpression()), !dbg !915
  %3 = getelementptr inbounds { [0 x i8]*, i64 }, { [0 x i8]*, i64 }* %slice.dbg.spill, i32 0, i32 0
  store [0 x i8]* %slice.0, [0 x i8]** %3, align 8
  %4 = getelementptr inbounds { [0 x i8]*, i64 }, { [0 x i8]*, i64 }* %slice.dbg.spill, i32 0, i32 1
  store i64 %slice.1, i64* %4, align 8
  call void @llvm.dbg.declare(metadata { [0 x i8]*, i64 }* %slice.dbg.spill, metadata !904, metadata !DIExpression()), !dbg !916
  call void @llvm.dbg.declare(metadata %"[closure@<core::ops::range::Range<usize> as core::slice::index::SliceIndex<[u8]>>::get_unchecked_mut::{closure#0}]"* %runtime, metadata !905, metadata !DIExpression()), !dbg !917
  %5 = getelementptr inbounds { [0 x i8]*, i64 }, { [0 x i8]*, i64 }* %self.dbg.spill1, i32 0, i32 0, !dbg !918
  store [0 x i8]* %slice.0, [0 x i8]** %5, align 8, !dbg !918
  %6 = getelementptr inbounds { [0 x i8]*, i64 }, { [0 x i8]*, i64 }* %self.dbg.spill1, i32 0, i32 1, !dbg !918
  store i64 %slice.1, i64* %6, align 8, !dbg !918
  call void @llvm.dbg.declare(metadata { [0 x i8]*, i64 }* %self.dbg.spill1, metadata !919, metadata !DIExpression()), !dbg !926
  %self = bitcast [0 x i8]* %slice.0 to i8*, !dbg !926
  store i8* %self, i8** %self.dbg.spill2, align 8, !dbg !926
  call void @llvm.dbg.declare(metadata i8** %self.dbg.spill2, metadata !927, metadata !DIExpression()), !dbg !934
  store i64 %self.0, i64* %count.dbg.spill, align 8, !dbg !935
  call void @llvm.dbg.declare(metadata i64* %count.dbg.spill, metadata !933, metadata !DIExpression()), !dbg !934
  store i8* %self, i8** %self.dbg.spill3, align 8, !dbg !934
  call void @llvm.dbg.declare(metadata i8** %self.dbg.spill3, metadata !936, metadata !DIExpression()), !dbg !943
  store i64 %self.0, i64* %count.dbg.spill4, align 8, !dbg !934
  call void @llvm.dbg.declare(metadata i64* %count.dbg.spill4, metadata !942, metadata !DIExpression()), !dbg !943
  %7 = getelementptr inbounds i8, i8* %self, i64 %self.0, !dbg !943
  store i8* %7, i8** %0, align 8, !dbg !943
  %_15 = load i8*, i8** %0, align 8, !dbg !943
  br label %bb1, !dbg !943

bb1:                                              ; preds = %start
  store i8* %_15, i8** %data.dbg.spill, align 8, !dbg !943
  call void @llvm.dbg.declare(metadata i8** %data.dbg.spill, metadata !945, metadata !DIExpression()), !dbg !952
  %len = sub i64 %self.1, %self.0, !dbg !954
  store i64 %len, i64* %len.dbg.spill, align 8, !dbg !954
  call void @llvm.dbg.declare(metadata i64* %len.dbg.spill, metadata !951, metadata !DIExpression()), !dbg !952
  store i8* %_15, i8** %self.dbg.spill5, align 8, !dbg !952
  call void @llvm.dbg.declare(metadata i8** %self.dbg.spill5, metadata !955, metadata !DIExpression()), !dbg !962
  %data_address = bitcast i8* %_15 to {}*, !dbg !962
  store {}* %data_address, {}** %data_address.dbg.spill, align 8, !dbg !962
  call void @llvm.dbg.declare(metadata {}** %data_address.dbg.spill, metadata !964, metadata !DIExpression()), !dbg !971
  store i64 %len, i64* %metadata.dbg.spill, align 8, !dbg !952
  call void @llvm.dbg.declare(metadata i64* %metadata.dbg.spill, metadata !970, metadata !DIExpression()), !dbg !971
  %8 = bitcast { i8*, i64 }* %_24 to {}**, !dbg !971
  store {}* %data_address, {}** %8, align 8, !dbg !971
  %9 = getelementptr inbounds { i8*, i64 }, { i8*, i64 }* %_24, i32 0, i32 1, !dbg !971
  store i64 %len, i64* %9, align 8, !dbg !971
  %10 = bitcast %"core::ptr::metadata::PtrRepr<[u8]>"* %_23 to { i8*, i64 }*, !dbg !971
  %11 = getelementptr inbounds { i8*, i64 }, { i8*, i64 }* %_24, i32 0, i32 0, !dbg !971
  %12 = load i8*, i8** %11, align 8, !dbg !971
  %13 = getelementptr inbounds { i8*, i64 }, { i8*, i64 }* %_24, i32 0, i32 1, !dbg !971
  %14 = load i64, i64* %13, align 8, !dbg !971
  %15 = getelementptr inbounds { i8*, i64 }, { i8*, i64 }* %10, i32 0, i32 0, !dbg !971
  store i8* %12, i8** %15, align 8, !dbg !971
  %16 = getelementptr inbounds { i8*, i64 }, { i8*, i64 }* %10, i32 0, i32 1, !dbg !971
  store i64 %14, i64* %16, align 8, !dbg !971
  %17 = bitcast %"core::ptr::metadata::PtrRepr<[u8]>"* %_23 to { [0 x i8]*, i64 }*, !dbg !971
  %18 = getelementptr inbounds { [0 x i8]*, i64 }, { [0 x i8]*, i64 }* %17, i32 0, i32 0, !dbg !971
  %19 = load [0 x i8]*, [0 x i8]** %18, align 8, !dbg !971
  %20 = getelementptr inbounds { [0 x i8]*, i64 }, { [0 x i8]*, i64 }* %17, i32 0, i32 1, !dbg !971
  %21 = load i64, i64* %20, align 8, !dbg !971
  %22 = insertvalue { [0 x i8]*, i64 } undef, [0 x i8]* %19, 0, !dbg !973
  %23 = insertvalue { [0 x i8]*, i64 } %22, i64 %21, 1, !dbg !973
  ret { [0 x i8]*, i64 } %23, !dbg !973
}

; <core::ops::range::Range<usize> as core::slice::index::SliceIndex<[T]>>::get_unchecked_mut
; Function Attrs: inlinehint nonlazybind uwtable
define internal { [0 x i8]*, i64 } @"_ZN106_$LT$core..ops..range..Range$LT$usize$GT$$u20$as$u20$core..slice..index..SliceIndex$LT$$u5b$T$u5d$$GT$$GT$17get_unchecked_mut17hcb8e7252e399a07dE"(i64 %self.0, i64 %self.1, [0 x i8]* %slice.0, i64 %slice.1) unnamed_addr #0 !dbg !974 {
start:
  %metadata.dbg.spill = alloca i64, align 8
  %data_address.dbg.spill = alloca {}*, align 8
  %self.dbg.spill5 = alloca i8*, align 8
  %len.dbg.spill = alloca i64, align 8
  %data.dbg.spill = alloca i8*, align 8
  %0 = alloca i8*, align 8
  %count.dbg.spill4 = alloca i64, align 8
  %self.dbg.spill3 = alloca i8*, align 8
  %count.dbg.spill = alloca i64, align 8
  %self.dbg.spill2 = alloca i8*, align 8
  %self.dbg.spill1 = alloca { [0 x i8]*, i64 }, align 8
  %slice.dbg.spill = alloca { [0 x i8]*, i64 }, align 8
  %self.dbg.spill = alloca { i64, i64 }, align 8
  %_24 = alloca { i8*, i64 }, align 8
  %_23 = alloca %"core::ptr::metadata::PtrRepr<[core::mem::maybe_uninit::MaybeUninit<u8>]>", align 8
  %runtime = alloca %"[closure@<core::ops::range::Range<usize> as core::slice::index::SliceIndex<[core::mem::maybe_uninit::MaybeUninit<u8>]>>::get_unchecked_mut::{closure#0}]", align 8
  %1 = getelementptr inbounds { i64, i64 }, { i64, i64 }* %self.dbg.spill, i32 0, i32 0
  store i64 %self.0, i64* %1, align 8
  %2 = getelementptr inbounds { i64, i64 }, { i64, i64 }* %self.dbg.spill, i32 0, i32 1
  store i64 %self.1, i64* %2, align 8
  call void @llvm.dbg.declare(metadata { i64, i64 }* %self.dbg.spill, metadata !992, metadata !DIExpression()), !dbg !1005
  %3 = getelementptr inbounds { [0 x i8]*, i64 }, { [0 x i8]*, i64 }* %slice.dbg.spill, i32 0, i32 0
  store [0 x i8]* %slice.0, [0 x i8]** %3, align 8
  %4 = getelementptr inbounds { [0 x i8]*, i64 }, { [0 x i8]*, i64 }* %slice.dbg.spill, i32 0, i32 1
  store i64 %slice.1, i64* %4, align 8
  call void @llvm.dbg.declare(metadata { [0 x i8]*, i64 }* %slice.dbg.spill, metadata !993, metadata !DIExpression()), !dbg !1006
  call void @llvm.dbg.declare(metadata %"[closure@<core::ops::range::Range<usize> as core::slice::index::SliceIndex<[core::mem::maybe_uninit::MaybeUninit<u8>]>>::get_unchecked_mut::{closure#0}]"* %runtime, metadata !994, metadata !DIExpression()), !dbg !1007
  %5 = getelementptr inbounds { [0 x i8]*, i64 }, { [0 x i8]*, i64 }* %self.dbg.spill1, i32 0, i32 0, !dbg !1008
  store [0 x i8]* %slice.0, [0 x i8]** %5, align 8, !dbg !1008
  %6 = getelementptr inbounds { [0 x i8]*, i64 }, { [0 x i8]*, i64 }* %self.dbg.spill1, i32 0, i32 1, !dbg !1008
  store i64 %slice.1, i64* %6, align 8, !dbg !1008
  call void @llvm.dbg.declare(metadata { [0 x i8]*, i64 }* %self.dbg.spill1, metadata !1009, metadata !DIExpression()), !dbg !1016
  %self = bitcast [0 x i8]* %slice.0 to i8*, !dbg !1016
  store i8* %self, i8** %self.dbg.spill2, align 8, !dbg !1016
  call void @llvm.dbg.declare(metadata i8** %self.dbg.spill2, metadata !1017, metadata !DIExpression()), !dbg !1024
  store i64 %self.0, i64* %count.dbg.spill, align 8, !dbg !1025
  call void @llvm.dbg.declare(metadata i64* %count.dbg.spill, metadata !1023, metadata !DIExpression()), !dbg !1024
  store i8* %self, i8** %self.dbg.spill3, align 8, !dbg !1024
  call void @llvm.dbg.declare(metadata i8** %self.dbg.spill3, metadata !1026, metadata !DIExpression()), !dbg !1033
  store i64 %self.0, i64* %count.dbg.spill4, align 8, !dbg !1024
  call void @llvm.dbg.declare(metadata i64* %count.dbg.spill4, metadata !1032, metadata !DIExpression()), !dbg !1033
  %7 = getelementptr inbounds i8, i8* %self, i64 %self.0, !dbg !1033
  store i8* %7, i8** %0, align 8, !dbg !1033
  %_15 = load i8*, i8** %0, align 8, !dbg !1033
  br label %bb1, !dbg !1033

bb1:                                              ; preds = %start
  store i8* %_15, i8** %data.dbg.spill, align 8, !dbg !1033
  call void @llvm.dbg.declare(metadata i8** %data.dbg.spill, metadata !1035, metadata !DIExpression()), !dbg !1042
  %len = sub i64 %self.1, %self.0, !dbg !1044
  store i64 %len, i64* %len.dbg.spill, align 8, !dbg !1044
  call void @llvm.dbg.declare(metadata i64* %len.dbg.spill, metadata !1041, metadata !DIExpression()), !dbg !1042
  store i8* %_15, i8** %self.dbg.spill5, align 8, !dbg !1042
  call void @llvm.dbg.declare(metadata i8** %self.dbg.spill5, metadata !1045, metadata !DIExpression()), !dbg !1052
  %data_address = bitcast i8* %_15 to {}*, !dbg !1052
  store {}* %data_address, {}** %data_address.dbg.spill, align 8, !dbg !1052
  call void @llvm.dbg.declare(metadata {}** %data_address.dbg.spill, metadata !1054, metadata !DIExpression()), !dbg !1061
  store i64 %len, i64* %metadata.dbg.spill, align 8, !dbg !1042
  call void @llvm.dbg.declare(metadata i64* %metadata.dbg.spill, metadata !1060, metadata !DIExpression()), !dbg !1061
  %8 = bitcast { i8*, i64 }* %_24 to {}**, !dbg !1061
  store {}* %data_address, {}** %8, align 8, !dbg !1061
  %9 = getelementptr inbounds { i8*, i64 }, { i8*, i64 }* %_24, i32 0, i32 1, !dbg !1061
  store i64 %len, i64* %9, align 8, !dbg !1061
  %10 = bitcast %"core::ptr::metadata::PtrRepr<[core::mem::maybe_uninit::MaybeUninit<u8>]>"* %_23 to { i8*, i64 }*, !dbg !1061
  %11 = getelementptr inbounds { i8*, i64 }, { i8*, i64 }* %_24, i32 0, i32 0, !dbg !1061
  %12 = load i8*, i8** %11, align 8, !dbg !1061
  %13 = getelementptr inbounds { i8*, i64 }, { i8*, i64 }* %_24, i32 0, i32 1, !dbg !1061
  %14 = load i64, i64* %13, align 8, !dbg !1061
  %15 = getelementptr inbounds { i8*, i64 }, { i8*, i64 }* %10, i32 0, i32 0, !dbg !1061
  store i8* %12, i8** %15, align 8, !dbg !1061
  %16 = getelementptr inbounds { i8*, i64 }, { i8*, i64 }* %10, i32 0, i32 1, !dbg !1061
  store i64 %14, i64* %16, align 8, !dbg !1061
  %17 = bitcast %"core::ptr::metadata::PtrRepr<[core::mem::maybe_uninit::MaybeUninit<u8>]>"* %_23 to { [0 x i8]*, i64 }*, !dbg !1061
  %18 = getelementptr inbounds { [0 x i8]*, i64 }, { [0 x i8]*, i64 }* %17, i32 0, i32 0, !dbg !1061
  %19 = load [0 x i8]*, [0 x i8]** %18, align 8, !dbg !1061
  %20 = getelementptr inbounds { [0 x i8]*, i64 }, { [0 x i8]*, i64 }* %17, i32 0, i32 1, !dbg !1061
  %21 = load i64, i64* %20, align 8, !dbg !1061
  %22 = insertvalue { [0 x i8]*, i64 } undef, [0 x i8]* %19, 0, !dbg !1063
  %23 = insertvalue { [0 x i8]*, i64 } %22, i64 %21, 1, !dbg !1063
  ret { [0 x i8]*, i64 } %23, !dbg !1063
}

; <core::ops::range::Range<usize> as core::slice::index::SliceIndex<[T]>>::get
; Function Attrs: inlinehint nonlazybind uwtable
define internal { i8*, i64 } @"_ZN106_$LT$core..ops..range..Range$LT$usize$GT$$u20$as$u20$core..slice..index..SliceIndex$LT$$u5b$T$u5d$$GT$$GT$3get17hf345357b5c64d268E"(i64 %self.0, i64 %self.1, [0 x i8]* align 1 %slice.0, i64 %slice.1) unnamed_addr #0 !dbg !1064 {
start:
  %slice.dbg.spill = alloca { [0 x i8]*, i64 }, align 8
  %self.dbg.spill = alloca { i64, i64 }, align 8
  %_3 = alloca i8, align 1
  %0 = alloca { i8*, i64 }, align 8
  %1 = getelementptr inbounds { i64, i64 }, { i64, i64 }* %self.dbg.spill, i32 0, i32 0
  store i64 %self.0, i64* %1, align 8
  %2 = getelementptr inbounds { i64, i64 }, { i64, i64 }* %self.dbg.spill, i32 0, i32 1
  store i64 %self.1, i64* %2, align 8
  call void @llvm.dbg.declare(metadata { i64, i64 }* %self.dbg.spill, metadata !1081, metadata !DIExpression()), !dbg !1083
  %3 = getelementptr inbounds { [0 x i8]*, i64 }, { [0 x i8]*, i64 }* %slice.dbg.spill, i32 0, i32 0
  store [0 x i8]* %slice.0, [0 x i8]** %3, align 8
  %4 = getelementptr inbounds { [0 x i8]*, i64 }, { [0 x i8]*, i64 }* %slice.dbg.spill, i32 0, i32 1
  store i64 %slice.1, i64* %4, align 8
  call void @llvm.dbg.declare(metadata { [0 x i8]*, i64 }* %slice.dbg.spill, metadata !1082, metadata !DIExpression()), !dbg !1084
  %_4 = icmp ugt i64 %self.0, %self.1, !dbg !1085
  br i1 %_4, label %bb1, label %bb2, !dbg !1085

bb2:                                              ; preds = %start
  %_7 = icmp ugt i64 %self.1, %slice.1, !dbg !1086
  %5 = zext i1 %_7 to i8, !dbg !1085
  store i8 %5, i8* %_3, align 1, !dbg !1085
  br label %bb3, !dbg !1085

bb1:                                              ; preds = %start
  store i8 1, i8* %_3, align 1, !dbg !1085
  br label %bb3, !dbg !1085

bb3:                                              ; preds = %bb2, %bb1
  %6 = load i8, i8* %_3, align 1, !dbg !1085, !range !512, !noundef !23
  %7 = trunc i8 %6 to i1, !dbg !1085
  br i1 %7, label %bb4, label %bb5, !dbg !1085

bb5:                                              ; preds = %bb3
; call <core::ops::range::Range<usize> as core::slice::index::SliceIndex<[T]>>::get_unchecked
  %8 = call { [0 x i8]*, i64 } @"_ZN106_$LT$core..ops..range..Range$LT$usize$GT$$u20$as$u20$core..slice..index..SliceIndex$LT$$u5b$T$u5d$$GT$$GT$13get_unchecked17hadb60770f7cc267eE"(i64 %self.0, i64 %self.1, [0 x i8]* %slice.0, i64 %slice.1), !dbg !1087
  %_13.0 = extractvalue { [0 x i8]*, i64 } %8, 0, !dbg !1087
  %_13.1 = extractvalue { [0 x i8]*, i64 } %8, 1, !dbg !1087
  br label %bb6, !dbg !1087

bb4:                                              ; preds = %bb3
  %9 = bitcast { i8*, i64 }* %0 to {}**, !dbg !1088
  store {}* null, {}** %9, align 8, !dbg !1088
  br label %bb7, !dbg !1089

bb7:                                              ; preds = %bb6, %bb4
  %10 = getelementptr inbounds { i8*, i64 }, { i8*, i64 }* %0, i32 0, i32 0, !dbg !1090
  %11 = load i8*, i8** %10, align 8, !dbg !1090, !align !445
  %12 = getelementptr inbounds { i8*, i64 }, { i8*, i64 }* %0, i32 0, i32 1, !dbg !1090
  %13 = load i64, i64* %12, align 8, !dbg !1090
  %14 = insertvalue { i8*, i64 } undef, i8* %11, 0, !dbg !1090
  %15 = insertvalue { i8*, i64 } %14, i64 %13, 1, !dbg !1090
  ret { i8*, i64 } %15, !dbg !1090

bb6:                                              ; preds = %bb5
  %16 = bitcast { i8*, i64 }* %0 to { [0 x i8]*, i64 }*, !dbg !1091
  %17 = getelementptr inbounds { [0 x i8]*, i64 }, { [0 x i8]*, i64 }* %16, i32 0, i32 0, !dbg !1091
  store [0 x i8]* %_13.0, [0 x i8]** %17, align 8, !dbg !1091
  %18 = getelementptr inbounds { [0 x i8]*, i64 }, { [0 x i8]*, i64 }* %16, i32 0, i32 1, !dbg !1091
  store i64 %_13.1, i64* %18, align 8, !dbg !1091
  br label %bb7, !dbg !1089
}

; <core::ops::range::Range<usize> as core::slice::index::SliceIndex<[T]>>::index
; Function Attrs: inlinehint nonlazybind uwtable
define internal { [0 x i8]*, i64 } @"_ZN106_$LT$core..ops..range..Range$LT$usize$GT$$u20$as$u20$core..slice..index..SliceIndex$LT$$u5b$T$u5d$$GT$$GT$5index17h311cd6c79c217910E"(i64 %self.0, i64 %self.1, [0 x i8]* align 1 %slice.0, i64 %slice.1, %"core::panic::location::Location"* align 8 %0) unnamed_addr #0 !dbg !1092 {
start:
  %slice.dbg.spill = alloca { [0 x i8]*, i64 }, align 8
  %self.dbg.spill = alloca { i64, i64 }, align 8
  %1 = getelementptr inbounds { i64, i64 }, { i64, i64 }* %self.dbg.spill, i32 0, i32 0
  store i64 %self.0, i64* %1, align 8
  %2 = getelementptr inbounds { i64, i64 }, { i64, i64 }* %self.dbg.spill, i32 0, i32 1
  store i64 %self.1, i64* %2, align 8
  call void @llvm.dbg.declare(metadata { i64, i64 }* %self.dbg.spill, metadata !1096, metadata !DIExpression()), !dbg !1098
  %3 = getelementptr inbounds { [0 x i8]*, i64 }, { [0 x i8]*, i64 }* %slice.dbg.spill, i32 0, i32 0
  store [0 x i8]* %slice.0, [0 x i8]** %3, align 8
  %4 = getelementptr inbounds { [0 x i8]*, i64 }, { [0 x i8]*, i64 }* %slice.dbg.spill, i32 0, i32 1
  store i64 %slice.1, i64* %4, align 8
  call void @llvm.dbg.declare(metadata { [0 x i8]*, i64 }* %slice.dbg.spill, metadata !1097, metadata !DIExpression()), !dbg !1099
  %_3 = icmp ugt i64 %self.0, %self.1, !dbg !1100
  br i1 %_3, label %bb1, label %bb2, !dbg !1100

bb2:                                              ; preds = %start
  %_9 = icmp ugt i64 %self.1, %slice.1, !dbg !1101
  br i1 %_9, label %bb3, label %bb4, !dbg !1101

bb1:                                              ; preds = %start
; call core::slice::index::slice_index_order_fail
  call void @_ZN4core5slice5index22slice_index_order_fail17ha5ea6a931f940f05E(i64 %self.0, i64 %self.1, %"core::panic::location::Location"* align 8 %0) #15, !dbg !1102
  unreachable, !dbg !1102

bb4:                                              ; preds = %bb2
; call <core::ops::range::Range<usize> as core::slice::index::SliceIndex<[T]>>::get_unchecked
  %5 = call { [0 x i8]*, i64 } @"_ZN106_$LT$core..ops..range..Range$LT$usize$GT$$u20$as$u20$core..slice..index..SliceIndex$LT$$u5b$T$u5d$$GT$$GT$13get_unchecked17hadb60770f7cc267eE"(i64 %self.0, i64 %self.1, [0 x i8]* %slice.0, i64 %slice.1), !dbg !1103
  %_17.0 = extractvalue { [0 x i8]*, i64 } %5, 0, !dbg !1103
  %_17.1 = extractvalue { [0 x i8]*, i64 } %5, 1, !dbg !1103
  br label %bb5, !dbg !1103

bb3:                                              ; preds = %bb2
; call core::slice::index::slice_end_index_len_fail
  call void @_ZN4core5slice5index24slice_end_index_len_fail17hc132699ea07ad3eeE(i64 %self.1, i64 %slice.1, %"core::panic::location::Location"* align 8 %0) #15, !dbg !1104
  unreachable, !dbg !1104

bb5:                                              ; preds = %bb4
  %6 = insertvalue { [0 x i8]*, i64 } undef, [0 x i8]* %_17.0, 0, !dbg !1105
  %7 = insertvalue { [0 x i8]*, i64 } %6, i64 %_17.1, 1, !dbg !1105
  ret { [0 x i8]*, i64 } %7, !dbg !1105
}

; <core::ops::range::Range<usize> as core::slice::index::SliceIndex<[T]>>::index_mut
; Function Attrs: inlinehint nonlazybind uwtable
define internal { [0 x i8]*, i64 } @"_ZN106_$LT$core..ops..range..Range$LT$usize$GT$$u20$as$u20$core..slice..index..SliceIndex$LT$$u5b$T$u5d$$GT$$GT$9index_mut17h88e374dad76d3e4bE"(i64 %self.0, i64 %self.1, [0 x i8]* align 1 %slice.0, i64 %slice.1, %"core::panic::location::Location"* align 8 %0) unnamed_addr #0 !dbg !1106 {
start:
  %slice.dbg.spill = alloca { [0 x i8]*, i64 }, align 8
  %self.dbg.spill = alloca { i64, i64 }, align 8
  %1 = getelementptr inbounds { i64, i64 }, { i64, i64 }* %self.dbg.spill, i32 0, i32 0
  store i64 %self.0, i64* %1, align 8
  %2 = getelementptr inbounds { i64, i64 }, { i64, i64 }* %self.dbg.spill, i32 0, i32 1
  store i64 %self.1, i64* %2, align 8
  call void @llvm.dbg.declare(metadata { i64, i64 }* %self.dbg.spill, metadata !1114, metadata !DIExpression()), !dbg !1116
  %3 = getelementptr inbounds { [0 x i8]*, i64 }, { [0 x i8]*, i64 }* %slice.dbg.spill, i32 0, i32 0
  store [0 x i8]* %slice.0, [0 x i8]** %3, align 8
  %4 = getelementptr inbounds { [0 x i8]*, i64 }, { [0 x i8]*, i64 }* %slice.dbg.spill, i32 0, i32 1
  store i64 %slice.1, i64* %4, align 8
  call void @llvm.dbg.declare(metadata { [0 x i8]*, i64 }* %slice.dbg.spill, metadata !1115, metadata !DIExpression()), !dbg !1117
  %_4 = icmp ugt i64 %self.0, %self.1, !dbg !1118
  br i1 %_4, label %bb1, label %bb2, !dbg !1118

bb2:                                              ; preds = %start
  %_10 = icmp ugt i64 %self.1, %slice.1, !dbg !1119
  br i1 %_10, label %bb3, label %bb4, !dbg !1119

bb1:                                              ; preds = %start
; call core::slice::index::slice_index_order_fail
  call void @_ZN4core5slice5index22slice_index_order_fail17ha5ea6a931f940f05E(i64 %self.0, i64 %self.1, %"core::panic::location::Location"* align 8 %0) #15, !dbg !1120
  unreachable, !dbg !1120

bb4:                                              ; preds = %bb2
; call <core::ops::range::Range<usize> as core::slice::index::SliceIndex<[T]>>::get_unchecked_mut
  %5 = call { [0 x i8]*, i64 } @"_ZN106_$LT$core..ops..range..Range$LT$usize$GT$$u20$as$u20$core..slice..index..SliceIndex$LT$$u5b$T$u5d$$GT$$GT$17get_unchecked_mut17h0289f9d6ecabd111E"(i64 %self.0, i64 %self.1, [0 x i8]* %slice.0, i64 %slice.1), !dbg !1121
  %_20.0 = extractvalue { [0 x i8]*, i64 } %5, 0, !dbg !1121
  %_20.1 = extractvalue { [0 x i8]*, i64 } %5, 1, !dbg !1121
  br label %bb5, !dbg !1121

bb3:                                              ; preds = %bb2
; call core::slice::index::slice_end_index_len_fail
  call void @_ZN4core5slice5index24slice_end_index_len_fail17hc132699ea07ad3eeE(i64 %self.1, i64 %slice.1, %"core::panic::location::Location"* align 8 %0) #15, !dbg !1122
  unreachable, !dbg !1122

bb5:                                              ; preds = %bb4
  %6 = insertvalue { [0 x i8]*, i64 } undef, [0 x i8]* %_20.0, 0, !dbg !1123
  %7 = insertvalue { [0 x i8]*, i64 } %6, i64 %_20.1, 1, !dbg !1123
  ret { [0 x i8]*, i64 } %7, !dbg !1123
}

; <core::slice::iter::Iter<T> as core::iter::traits::double_ended::DoubleEndedIterator>::next_back
; Function Attrs: inlinehint nonlazybind uwtable
define internal align 1 i8* @"_ZN106_$LT$core..slice..iter..Iter$LT$T$GT$$u20$as$u20$core..iter..traits..double_ended..DoubleEndedIterator$GT$9next_back17h8e87941d7e06ef18E"({ i8*, i8* }* align 8 %self) unnamed_addr #0 !dbg !1124 {
start:
  %self.dbg.spill20 = alloca i8*, align 8
  %0 = alloca i8*, align 8
  %self.dbg.spill18 = alloca i8*, align 8
  %1 = alloca i8*, align 8
  %self.dbg.spill17 = alloca i8*, align 8
  %self.dbg.spill15 = alloca { i8*, i8* }*, align 8
  %self.dbg.spill14 = alloca i8*, align 8
  %2 = alloca i8, align 1
  %other.dbg.spill12 = alloca i8*, align 8
  %data_address.dbg.spill10 = alloca {}*, align 8
  %3 = alloca {}*, align 8
  %self.dbg.spill8 = alloca i8*, align 8
  %self.dbg.spill7 = alloca i8*, align 8
  %4 = alloca i8, align 1
  %other.dbg.spill = alloca i8*, align 8
  %data_address.dbg.spill = alloca {}*, align 8
  %5 = alloca {}*, align 8
  %self.dbg.spill5 = alloca i8*, align 8
  %self.dbg.spill4 = alloca i8*, align 8
  %self.dbg.spill3 = alloca i8*, align 8
  %metadata.dbg.spill1 = alloca {}, align 1
  %metadata.dbg.spill = alloca {}, align 1
  %self.dbg.spill = alloca { i8*, i8* }*, align 8
  %_47 = alloca %"core::ptr::metadata::PtrComponents<u8>", align 8
  %_46 = alloca %"core::ptr::metadata::PtrRepr<u8>", align 8
  %_30 = alloca %"core::ptr::metadata::PtrComponents<u8>", align 8
  %_29 = alloca %"core::ptr::metadata::PtrRepr<u8>", align 8
  %_19 = alloca i8*, align 8
  %6 = alloca i8*, align 8
  store { i8*, i8* }* %self, { i8*, i8* }** %self.dbg.spill, align 8
  call void @llvm.dbg.declare(metadata { i8*, i8* }** %self.dbg.spill, metadata !1141, metadata !DIExpression()), !dbg !1142
  call void @llvm.dbg.declare(metadata {}* %metadata.dbg.spill, metadata !1143, metadata !DIExpression()), !dbg !1150
  call void @llvm.dbg.declare(metadata {}* %metadata.dbg.spill1, metadata !1164, metadata !DIExpression()), !dbg !1171
  %7 = bitcast { i8*, i8* }* %self to i8**, !dbg !1163
  %self2 = load i8*, i8** %7, align 8, !dbg !1163, !nonnull !23, !noundef !23
  store i8* %self2, i8** %self.dbg.spill3, align 8, !dbg !1163
  call void @llvm.dbg.declare(metadata i8** %self.dbg.spill3, metadata !1184, metadata !DIExpression()), !dbg !1188
  store i8* %self2, i8** %self.dbg.spill4, align 8, !dbg !1188
  call void @llvm.dbg.declare(metadata i8** %self.dbg.spill4, metadata !1161, metadata !DIExpression()), !dbg !1189
  store i8* %self2, i8** %self.dbg.spill5, align 8, !dbg !1189
  call void @llvm.dbg.declare(metadata i8** %self.dbg.spill5, metadata !1190, metadata !DIExpression()), !dbg !1197
  %8 = bitcast {}** %5 to i64*, !dbg !1199
  store i64 0, i64* %8, align 8, !dbg !1199
  %data_address = load {}*, {}** %5, align 8, !dbg !1199
  store {}* %data_address, {}** %data_address.dbg.spill, align 8, !dbg !1199
  call void @llvm.dbg.declare(metadata {}** %data_address.dbg.spill, metadata !1149, metadata !DIExpression()), !dbg !1150
  br label %bb9, !dbg !1199

bb9:                                              ; preds = %start
  %9 = bitcast %"core::ptr::metadata::PtrComponents<u8>"* %_30 to {}**, !dbg !1150
  store {}* %data_address, {}** %9, align 8, !dbg !1150
  %10 = bitcast %"core::ptr::metadata::PtrRepr<u8>"* %_29 to %"core::ptr::metadata::PtrComponents<u8>"*, !dbg !1150
  %11 = bitcast %"core::ptr::metadata::PtrComponents<u8>"* %10 to i8*, !dbg !1150
  %12 = bitcast %"core::ptr::metadata::PtrComponents<u8>"* %_30 to i8*, !dbg !1150
  call void @llvm.memcpy.p0i8.p0i8.i64(i8* align 8 %11, i8* align 8 %12, i64 8, i1 false), !dbg !1150
  %13 = bitcast %"core::ptr::metadata::PtrRepr<u8>"* %_29 to i8**, !dbg !1150
  %other = load i8*, i8** %13, align 8, !dbg !1150
  store i8* %other, i8** %other.dbg.spill, align 8, !dbg !1150
  call void @llvm.dbg.declare(metadata i8** %other.dbg.spill, metadata !1196, metadata !DIExpression()), !dbg !1197
  %14 = icmp eq i8* %self2, %other, !dbg !1197
  %15 = zext i1 %14 to i8, !dbg !1197
  store i8 %15, i8* %4, align 1, !dbg !1197
  %16 = load i8, i8* %4, align 1, !dbg !1197, !range !512, !noundef !23
  %_4 = trunc i8 %16 to i1, !dbg !1197
  br label %bb10, !dbg !1197

bb10:                                             ; preds = %bb9
  %_3 = xor i1 %_4, true, !dbg !1207
  call void @llvm.assume(i1 %_3), !dbg !1208
  br label %bb1, !dbg !1208

bb1:                                              ; preds = %bb10
  br i1 false, label %bb4, label %bb2, !dbg !1209

bb4:                                              ; preds = %bb1
  br label %bb5, !dbg !1210

bb2:                                              ; preds = %bb1
  %17 = getelementptr inbounds { i8*, i8* }, { i8*, i8* }* %self, i32 0, i32 1, !dbg !1183
  %self6 = load i8*, i8** %17, align 8, !dbg !1183
  store i8* %self6, i8** %self.dbg.spill7, align 8, !dbg !1183
  call void @llvm.dbg.declare(metadata i8** %self.dbg.spill7, metadata !1181, metadata !DIExpression()), !dbg !1211
  store i8* %self6, i8** %self.dbg.spill8, align 8, !dbg !1211
  call void @llvm.dbg.declare(metadata i8** %self.dbg.spill8, metadata !1212, metadata !DIExpression()), !dbg !1219
  %18 = bitcast {}** %3 to i64*, !dbg !1221
  store i64 0, i64* %18, align 8, !dbg !1221
  %data_address9 = load {}*, {}** %3, align 8, !dbg !1221
  store {}* %data_address9, {}** %data_address.dbg.spill10, align 8, !dbg !1221
  call void @llvm.dbg.declare(metadata {}** %data_address.dbg.spill10, metadata !1170, metadata !DIExpression()), !dbg !1171
  br label %bb11, !dbg !1221

bb11:                                             ; preds = %bb2
  %19 = bitcast %"core::ptr::metadata::PtrComponents<u8>"* %_47 to {}**, !dbg !1171
  store {}* %data_address9, {}** %19, align 8, !dbg !1171
  %20 = bitcast %"core::ptr::metadata::PtrRepr<u8>"* %_46 to %"core::ptr::metadata::PtrComponents<u8>"*, !dbg !1171
  %21 = bitcast %"core::ptr::metadata::PtrComponents<u8>"* %20 to i8*, !dbg !1171
  %22 = bitcast %"core::ptr::metadata::PtrComponents<u8>"* %_47 to i8*, !dbg !1171
  call void @llvm.memcpy.p0i8.p0i8.i64(i8* align 8 %21, i8* align 8 %22, i64 8, i1 false), !dbg !1171
  %23 = bitcast %"core::ptr::metadata::PtrRepr<u8>"* %_46 to i8**, !dbg !1171
  %other11 = load i8*, i8** %23, align 8, !dbg !1171
  store i8* %other11, i8** %other.dbg.spill12, align 8, !dbg !1171
  call void @llvm.dbg.declare(metadata i8** %other.dbg.spill12, metadata !1218, metadata !DIExpression()), !dbg !1219
  %24 = icmp eq i8* %self6, %other11, !dbg !1219
  %25 = zext i1 %24 to i8, !dbg !1219
  store i8 %25, i8* %2, align 1, !dbg !1219
  %26 = load i8, i8* %2, align 1, !dbg !1219, !range !512, !noundef !23
  %_10 = trunc i8 %26 to i1, !dbg !1219
  br label %bb12, !dbg !1219

bb12:                                             ; preds = %bb11
  %_9 = xor i1 %_10, true, !dbg !1229
  call void @llvm.assume(i1 %_9), !dbg !1230
  br label %bb3, !dbg !1230

bb3:                                              ; preds = %bb12
  br label %bb5, !dbg !1210

bb5:                                              ; preds = %bb4, %bb3
  %27 = bitcast { i8*, i8* }* %self to i8**, !dbg !1231
  %self13 = load i8*, i8** %27, align 8, !dbg !1231, !nonnull !23, !noundef !23
  store i8* %self13, i8** %self.dbg.spill14, align 8, !dbg !1231
  call void @llvm.dbg.declare(metadata i8** %self.dbg.spill14, metadata !1232, metadata !DIExpression()), !dbg !1236
  %28 = getelementptr inbounds { i8*, i8* }, { i8*, i8* }* %self, i32 0, i32 1, !dbg !1231
  %_16 = load i8*, i8** %28, align 8, !dbg !1231
  %_12 = icmp eq i8* %self13, %_16, !dbg !1231
  br i1 %_12, label %bb6, label %bb7, !dbg !1231

bb7:                                              ; preds = %bb5
  store { i8*, i8* }* %self, { i8*, i8* }** %self.dbg.spill15, align 8, !dbg !1238
  call void @llvm.dbg.declare(metadata { i8*, i8* }** %self.dbg.spill15, metadata !1239, metadata !DIExpression()), !dbg !1245
  br i1 false, label %bb13, label %bb14, !dbg !1245

bb6:                                              ; preds = %bb5
  %29 = bitcast i8** %6 to {}**, !dbg !1247
  store {}* null, {}** %29, align 8, !dbg !1247
  br label %bb8, !dbg !1248

bb8:                                              ; preds = %bb15, %bb6
  %30 = load i8*, i8** %6, align 8, !dbg !1249, !align !445
  ret i8* %30, !dbg !1249

bb13:                                             ; preds = %bb7
  %31 = getelementptr inbounds { i8*, i8* }, { i8*, i8* }* %self, i32 0, i32 1, !dbg !1245
  %_56 = load i8*, i8** %31, align 8, !dbg !1245
  store i8* %_56, i8** %self.dbg.spill18, align 8, !dbg !1245
  call void @llvm.dbg.declare(metadata i8** %self.dbg.spill18, metadata !1250, metadata !DIExpression()), !dbg !1255
  %32 = getelementptr i8, i8* %_56, i64 -1, !dbg !1255
  store i8* %32, i8** %0, align 8, !dbg !1255
  %_54 = load i8*, i8** %0, align 8, !dbg !1255
  br label %bb16, !dbg !1255

bb14:                                             ; preds = %bb7
  %33 = getelementptr inbounds { i8*, i8* }, { i8*, i8* }* %self, i32 0, i32 1, !dbg !1245
  %self16 = load i8*, i8** %33, align 8, !dbg !1245
  store i8* %self16, i8** %self.dbg.spill17, align 8, !dbg !1245
  call void @llvm.dbg.declare(metadata i8** %self.dbg.spill17, metadata !1257, metadata !DIExpression()), !dbg !1262
  %34 = getelementptr inbounds i8, i8* %self16, i64 -1, !dbg !1262
  store i8* %34, i8** %1, align 8, !dbg !1262
  %_60 = load i8*, i8** %1, align 8, !dbg !1262
  br label %bb17, !dbg !1262

bb17:                                             ; preds = %bb14
  %35 = getelementptr inbounds { i8*, i8* }, { i8*, i8* }* %self, i32 0, i32 1, !dbg !1245
  store i8* %_60, i8** %35, align 8, !dbg !1245
  %36 = getelementptr inbounds { i8*, i8* }, { i8*, i8* }* %self, i32 0, i32 1, !dbg !1245
  %37 = load i8*, i8** %36, align 8, !dbg !1245
  store i8* %37, i8** %_19, align 8, !dbg !1245
  br label %bb15, !dbg !1245

bb15:                                             ; preds = %bb16, %bb17
  %_18 = load i8*, i8** %_19, align 8, !dbg !1238
  store i8* %_18, i8** %6, align 8, !dbg !1264
  br label %bb8, !dbg !1248

bb16:                                             ; preds = %bb13
  %38 = getelementptr inbounds { i8*, i8* }, { i8*, i8* }* %self, i32 0, i32 1, !dbg !1245
  store i8* %_54, i8** %38, align 8, !dbg !1245
  %39 = bitcast { i8*, i8* }* %self to i8**, !dbg !1245
  %self19 = load i8*, i8** %39, align 8, !dbg !1245, !nonnull !23, !noundef !23
  store i8* %self19, i8** %self.dbg.spill20, align 8, !dbg !1245
  call void @llvm.dbg.declare(metadata i8** %self.dbg.spill20, metadata !1265, metadata !DIExpression()), !dbg !1269
  store i8* %self19, i8** %_19, align 8, !dbg !1245
  br label %bb15, !dbg !1245
}

; <core::str::pattern::CharPredicateSearcher<F> as core::str::pattern::ReverseSearcher>::next_reject_back
; Function Attrs: inlinehint nonlazybind uwtable
define internal void @"_ZN106_$LT$core..str..pattern..CharPredicateSearcher$LT$F$GT$$u20$as$u20$core..str..pattern..ReverseSearcher$GT$16next_reject_back17h67232f0984849cf5E"(%"core::option::Option<(usize, usize)>"* sret(%"core::option::Option<(usize, usize)>") %0, %"core::str::pattern::CharPredicateSearcher<[closure@core::str::<impl str>::trim::{closure#0}]>"* align 8 %self) unnamed_addr #0 !dbg !1271 {
start:
  %self.dbg.spill = alloca %"core::str::pattern::CharPredicateSearcher<[closure@core::str::<impl str>::trim::{closure#0}]>"*, align 8
  store %"core::str::pattern::CharPredicateSearcher<[closure@core::str::<impl str>::trim::{closure#0}]>"* %self, %"core::str::pattern::CharPredicateSearcher<[closure@core::str::<impl str>::trim::{closure#0}]>"** %self.dbg.spill, align 8
  call void @llvm.dbg.declare(metadata %"core::str::pattern::CharPredicateSearcher<[closure@core::str::<impl str>::trim::{closure#0}]>"** %self.dbg.spill, metadata !1299, metadata !DIExpression()), !dbg !1300
  %_2 = bitcast %"core::str::pattern::CharPredicateSearcher<[closure@core::str::<impl str>::trim::{closure#0}]>"* %self to %"core::str::pattern::MultiCharEqSearcher<[closure@core::str::<impl str>::trim::{closure#0}]>"*, !dbg !1301
; call core::str::pattern::ReverseSearcher::next_reject_back
  call void @_ZN4core3str7pattern15ReverseSearcher16next_reject_back17h4f16c1589d6f0daeE(%"core::option::Option<(usize, usize)>"* sret(%"core::option::Option<(usize, usize)>") %0, %"core::str::pattern::MultiCharEqSearcher<[closure@core::str::<impl str>::trim::{closure#0}]>"* align 8 %_2), !dbg !1301
  br label %bb1, !dbg !1301

bb1:                                              ; preds = %start
  ret void, !dbg !1302
}

; <alloc::collections::btree::map::BTreeMap<K,V,A> as core::iter::traits::collect::IntoIterator>::into_iter
; Function Attrs: nonlazybind uwtable
define internal void @"_ZN119_$LT$alloc..collections..btree..map..BTreeMap$LT$K$C$V$C$A$GT$$u20$as$u20$core..iter..traits..collect..IntoIterator$GT$9into_iter17h2b44944a4e45610fE"(%"alloc::collections::btree::map::IntoIter<std::ffi::os_str::OsString, core::option::Option<std::ffi::os_str::OsString>>"* sret(%"alloc::collections::btree::map::IntoIter<std::ffi::os_str::OsString, core::option::Option<std::ffi::os_str::OsString>>") %0, %"alloc::collections::btree::map::BTreeMap<std::ffi::os_str::OsString, core::option::Option<std::ffi::os_str::OsString>>"* %self) unnamed_addr #1 !dbg !1303 {
start:
  %self.dbg.spill14 = alloca %"core::mem::maybe_uninit::MaybeUninit<alloc::alloc::Global>"*, align 8
  %src.dbg.spill13 = alloca %"alloc::alloc::Global"*, align 8
  %slot.dbg.spill12 = alloca %"core::mem::manually_drop::ManuallyDrop<alloc::alloc::Global>"*, align 8
  %self.dbg.spill11 = alloca %"core::mem::manually_drop::ManuallyDrop<alloc::collections::btree::map::BTreeMap<std::ffi::os_str::OsString, core::option::Option<std::ffi::os_str::OsString>>>"*, align 8
  %self.dbg.spill10 = alloca %"core::mem::manually_drop::ManuallyDrop<alloc::collections::btree::map::BTreeMap<std::ffi::os_str::OsString, core::option::Option<std::ffi::os_str::OsString>>>"*, align 8
  %root.dbg.spill = alloca { i64, i64* }, align 8
  %self.dbg.spill9 = alloca %"core::mem::maybe_uninit::MaybeUninit<alloc::alloc::Global>"*, align 8
  %src.dbg.spill = alloca %"alloc::alloc::Global"*, align 8
  %slot.dbg.spill8 = alloca %"core::mem::manually_drop::ManuallyDrop<alloc::alloc::Global>"*, align 8
  %self.dbg.spill7 = alloca %"core::mem::manually_drop::ManuallyDrop<alloc::collections::btree::map::BTreeMap<std::ffi::os_str::OsString, core::option::Option<std::ffi::os_str::OsString>>>"*, align 8
  %self.dbg.spill6 = alloca { i64, i64* }*, align 8
  %self.dbg.spill4 = alloca %"core::mem::manually_drop::ManuallyDrop<alloc::collections::btree::map::BTreeMap<std::ffi::os_str::OsString, core::option::Option<std::ffi::os_str::OsString>>>"*, align 8
  %slot.dbg.spill3 = alloca %"core::mem::manually_drop::ManuallyDrop<alloc::alloc::Global>", align 1
  %self.dbg.spill2 = alloca %"core::mem::maybe_uninit::MaybeUninit<alloc::alloc::Global>", align 1
  %slot.dbg.spill = alloca %"core::mem::manually_drop::ManuallyDrop<alloc::alloc::Global>", align 1
  %self.dbg.spill = alloca %"core::mem::maybe_uninit::MaybeUninit<alloc::alloc::Global>", align 1
  %tmp1 = alloca %"core::mem::maybe_uninit::MaybeUninit<alloc::alloc::Global>", align 1
  %tmp = alloca %"core::mem::maybe_uninit::MaybeUninit<alloc::alloc::Global>", align 1
  %_32 = alloca { i64, i64* }, align 8
  %_28 = alloca %"alloc::collections::btree::map::BTreeMap<std::ffi::os_str::OsString, core::option::Option<std::ffi::os_str::OsString>>", align 8
  %_22 = alloca %"alloc::collections::btree::navigate::LazyLeafRange<alloc::collections::btree::node::marker::Dying, std::ffi::os_str::OsString, core::option::Option<std::ffi::os_str::OsString>>", align 8
  %_13 = alloca %"alloc::collections::btree::navigate::LazyLeafRange<alloc::collections::btree::node::marker::Dying, std::ffi::os_str::OsString, core::option::Option<std::ffi::os_str::OsString>>", align 8
  %full_range = alloca %"alloc::collections::btree::navigate::LazyLeafRange<alloc::collections::btree::node::marker::Dying, std::ffi::os_str::OsString, core::option::Option<std::ffi::os_str::OsString>>", align 8
  %_4 = alloca { i64, i64* }, align 8
  %value = alloca %"alloc::collections::btree::map::BTreeMap<std::ffi::os_str::OsString, core::option::Option<std::ffi::os_str::OsString>>", align 8
  %me = alloca %"core::mem::manually_drop::ManuallyDrop<alloc::collections::btree::map::BTreeMap<std::ffi::os_str::OsString, core::option::Option<std::ffi::os_str::OsString>>>", align 8
  call void @llvm.dbg.declare(metadata %"alloc::collections::btree::map::BTreeMap<std::ffi::os_str::OsString, core::option::Option<std::ffi::os_str::OsString>>"* %self, metadata !1558, metadata !DIExpression()), !dbg !1570
  call void @llvm.dbg.declare(metadata %"core::mem::manually_drop::ManuallyDrop<alloc::collections::btree::map::BTreeMap<std::ffi::os_str::OsString, core::option::Option<std::ffi::os_str::OsString>>>"* %me, metadata !1559, metadata !DIExpression()), !dbg !1571
  call void @llvm.dbg.declare(metadata %"alloc::collections::btree::map::BTreeMap<std::ffi::os_str::OsString, core::option::Option<std::ffi::os_str::OsString>>"* %value, metadata !1572, metadata !DIExpression()), !dbg !1579
  call void @llvm.dbg.declare(metadata %"alloc::collections::btree::navigate::LazyLeafRange<alloc::collections::btree::node::marker::Dying, std::ffi::os_str::OsString, core::option::Option<std::ffi::os_str::OsString>>"* %full_range, metadata !1568, metadata !DIExpression()), !dbg !1581
  call void @llvm.dbg.declare(metadata %"core::mem::maybe_uninit::MaybeUninit<alloc::alloc::Global>"* %tmp, metadata !1582, metadata !DIExpression()), !dbg !1596
  call void @llvm.dbg.declare(metadata %"core::mem::maybe_uninit::MaybeUninit<alloc::alloc::Global>"* %self.dbg.spill, metadata !1606, metadata !DIExpression()), !dbg !1613
  call void @llvm.dbg.declare(metadata %"core::mem::manually_drop::ManuallyDrop<alloc::alloc::Global>"* %slot.dbg.spill, metadata !1615, metadata !DIExpression()), !dbg !1621
  call void @llvm.dbg.declare(metadata %"core::mem::maybe_uninit::MaybeUninit<alloc::alloc::Global>"* %tmp1, metadata !1623, metadata !DIExpression()), !dbg !1630
  call void @llvm.dbg.declare(metadata %"core::mem::maybe_uninit::MaybeUninit<alloc::alloc::Global>"* %self.dbg.spill2, metadata !1637, metadata !DIExpression()), !dbg !1641
  call void @llvm.dbg.declare(metadata %"core::mem::manually_drop::ManuallyDrop<alloc::alloc::Global>"* %slot.dbg.spill3, metadata !1643, metadata !DIExpression()), !dbg !1647
  %1 = bitcast %"alloc::collections::btree::map::BTreeMap<std::ffi::os_str::OsString, core::option::Option<std::ffi::os_str::OsString>>"* %value to i8*, !dbg !1649
  %2 = bitcast %"alloc::collections::btree::map::BTreeMap<std::ffi::os_str::OsString, core::option::Option<std::ffi::os_str::OsString>>"* %self to i8*, !dbg !1649
  call void @llvm.memcpy.p0i8.p0i8.i64(i8* align 8 %1, i8* align 8 %2, i64 24, i1 false), !dbg !1649
  %3 = bitcast %"alloc::collections::btree::map::BTreeMap<std::ffi::os_str::OsString, core::option::Option<std::ffi::os_str::OsString>>"* %_28 to i8*, !dbg !1579
  %4 = bitcast %"alloc::collections::btree::map::BTreeMap<std::ffi::os_str::OsString, core::option::Option<std::ffi::os_str::OsString>>"* %value to i8*, !dbg !1579
  call void @llvm.memcpy.p0i8.p0i8.i64(i8* align 8 %3, i8* align 8 %4, i64 24, i1 false), !dbg !1579
  %5 = bitcast %"core::mem::manually_drop::ManuallyDrop<alloc::collections::btree::map::BTreeMap<std::ffi::os_str::OsString, core::option::Option<std::ffi::os_str::OsString>>>"* %me to %"alloc::collections::btree::map::BTreeMap<std::ffi::os_str::OsString, core::option::Option<std::ffi::os_str::OsString>>"*, !dbg !1579
  %6 = bitcast %"alloc::collections::btree::map::BTreeMap<std::ffi::os_str::OsString, core::option::Option<std::ffi::os_str::OsString>>"* %5 to i8*, !dbg !1579
  %7 = bitcast %"alloc::collections::btree::map::BTreeMap<std::ffi::os_str::OsString, core::option::Option<std::ffi::os_str::OsString>>"* %_28 to i8*, !dbg !1579
  call void @llvm.memcpy.p0i8.p0i8.i64(i8* align 8 %6, i8* align 8 %7, i64 24, i1 false), !dbg !1579
  store %"core::mem::manually_drop::ManuallyDrop<alloc::collections::btree::map::BTreeMap<std::ffi::os_str::OsString, core::option::Option<std::ffi::os_str::OsString>>>"* %me, %"core::mem::manually_drop::ManuallyDrop<alloc::collections::btree::map::BTreeMap<std::ffi::os_str::OsString, core::option::Option<std::ffi::os_str::OsString>>>"** %self.dbg.spill4, align 8, !dbg !1650
  call void @llvm.dbg.declare(metadata %"core::mem::manually_drop::ManuallyDrop<alloc::collections::btree::map::BTreeMap<std::ffi::os_str::OsString, core::option::Option<std::ffi::os_str::OsString>>>"** %self.dbg.spill4, metadata !1651, metadata !DIExpression()), !dbg !1660
  %_30 = bitcast %"core::mem::manually_drop::ManuallyDrop<alloc::collections::btree::map::BTreeMap<std::ffi::os_str::OsString, core::option::Option<std::ffi::os_str::OsString>>>"* %me to %"alloc::collections::btree::map::BTreeMap<std::ffi::os_str::OsString, core::option::Option<std::ffi::os_str::OsString>>"*, !dbg !1660
  %self5 = bitcast %"alloc::collections::btree::map::BTreeMap<std::ffi::os_str::OsString, core::option::Option<std::ffi::os_str::OsString>>"* %_30 to { i64, i64* }*, !dbg !1650
  store { i64, i64* }* %self5, { i64, i64* }** %self.dbg.spill6, align 8, !dbg !1650
  call void @llvm.dbg.declare(metadata { i64, i64* }** %self.dbg.spill6, metadata !1661, metadata !DIExpression()), !dbg !1669
  %8 = getelementptr inbounds { i64, i64* }, { i64, i64* }* %_32, i32 0, i32 1, !dbg !1669
  %9 = bitcast i64** %8 to {}**, !dbg !1669
  store {}* null, {}** %9, align 8, !dbg !1669
  %10 = getelementptr inbounds { i64, i64* }, { i64, i64* }* %_32, i32 0, i32 0, !dbg !1669
  %11 = load i64, i64* %10, align 8, !dbg !1669
  %12 = getelementptr inbounds { i64, i64* }, { i64, i64* }* %_32, i32 0, i32 1, !dbg !1669
  %13 = load i64*, i64** %12, align 8, !dbg !1669
; call core::mem::replace
  %14 = call { i64, i64* } @_ZN4core3mem7replace17hcdd549a02bb507dfE({ i64, i64* }* align 8 %self5, i64 %11, i64* %13), !dbg !1669
  store { i64, i64* } %14, { i64, i64* }* %_4, align 8, !dbg !1669
  br label %bb7, !dbg !1669

bb7:                                              ; preds = %start
  %15 = getelementptr inbounds { i64, i64* }, { i64, i64* }* %_4, i32 0, i32 1, !dbg !1670
  %16 = bitcast i64** %15 to {}**, !dbg !1670
  %17 = load {}*, {}** %16, align 8, !dbg !1670
  %18 = icmp eq {}* %17, null, !dbg !1670
  %_8 = select i1 %18, i64 0, i64 1, !dbg !1670
  %19 = icmp eq i64 %_8, 1, !dbg !1670
  br i1 %19, label %bb1, label %bb4, !dbg !1670

bb1:                                              ; preds = %bb7
  %20 = getelementptr inbounds { i64, i64* }, { i64, i64* }* %_4, i32 0, i32 0, !dbg !1671
  %root.0 = load i64, i64* %20, align 8, !dbg !1671
  %21 = getelementptr inbounds { i64, i64* }, { i64, i64* }* %_4, i32 0, i32 1, !dbg !1671
  %root.1 = load i64*, i64** %21, align 8, !dbg !1671, !nonnull !23, !noundef !23
  %22 = getelementptr inbounds { i64, i64* }, { i64, i64* }* %root.dbg.spill, i32 0, i32 0, !dbg !1671
  store i64 %root.0, i64* %22, align 8, !dbg !1671
  %23 = getelementptr inbounds { i64, i64* }, { i64, i64* }* %root.dbg.spill, i32 0, i32 1, !dbg !1671
  store i64* %root.1, i64** %23, align 8, !dbg !1671
  call void @llvm.dbg.declare(metadata { i64, i64* }* %root.dbg.spill, metadata !1566, metadata !DIExpression()), !dbg !1671
; call alloc::collections::btree::node::NodeRef<alloc::collections::btree::node::marker::Owned,K,V,Type>::into_dying
  %24 = call { i64, i64* } @"_ZN5alloc11collections5btree4node76NodeRef$LT$alloc..collections..btree..node..marker..Owned$C$K$C$V$C$Type$GT$10into_dying17h6029ad7cda11e823E"(i64 %root.0, i64* %root.1), !dbg !1672
  %_11.0 = extractvalue { i64, i64* } %24, 0, !dbg !1672
  %_11.1 = extractvalue { i64, i64* } %24, 1, !dbg !1672
  br label %bb2, !dbg !1672

bb4:                                              ; preds = %bb7
; call alloc::collections::btree::navigate::LazyLeafRange<BorrowType,K,V>::none
  call void @"_ZN5alloc11collections5btree8navigate39LazyLeafRange$LT$BorrowType$C$K$C$V$GT$4none17h695ba281fab6cef3E"(%"alloc::collections::btree::navigate::LazyLeafRange<alloc::collections::btree::node::marker::Dying, std::ffi::os_str::OsString, core::option::Option<std::ffi::os_str::OsString>>"* sret(%"alloc::collections::btree::navigate::LazyLeafRange<alloc::collections::btree::node::marker::Dying, std::ffi::os_str::OsString, core::option::Option<std::ffi::os_str::OsString>>") %_22), !dbg !1673
  br label %bb5, !dbg !1673

bb5:                                              ; preds = %bb4
  store %"core::mem::manually_drop::ManuallyDrop<alloc::collections::btree::map::BTreeMap<std::ffi::os_str::OsString, core::option::Option<std::ffi::os_str::OsString>>>"* %me, %"core::mem::manually_drop::ManuallyDrop<alloc::collections::btree::map::BTreeMap<std::ffi::os_str::OsString, core::option::Option<std::ffi::os_str::OsString>>>"** %self.dbg.spill7, align 8, !dbg !1674
  call void @llvm.dbg.declare(metadata %"core::mem::manually_drop::ManuallyDrop<alloc::collections::btree::map::BTreeMap<std::ffi::os_str::OsString, core::option::Option<std::ffi::os_str::OsString>>>"** %self.dbg.spill7, metadata !1675, metadata !DIExpression()), !dbg !1679
  %_48 = bitcast %"core::mem::manually_drop::ManuallyDrop<alloc::collections::btree::map::BTreeMap<std::ffi::os_str::OsString, core::option::Option<std::ffi::os_str::OsString>>>"* %me to %"alloc::collections::btree::map::BTreeMap<std::ffi::os_str::OsString, core::option::Option<std::ffi::os_str::OsString>>"*, !dbg !1679
  %_25 = bitcast %"alloc::collections::btree::map::BTreeMap<std::ffi::os_str::OsString, core::option::Option<std::ffi::os_str::OsString>>"* %_48 to %"core::mem::manually_drop::ManuallyDrop<alloc::alloc::Global>"*, !dbg !1680
  store %"core::mem::manually_drop::ManuallyDrop<alloc::alloc::Global>"* %_25, %"core::mem::manually_drop::ManuallyDrop<alloc::alloc::Global>"** %slot.dbg.spill8, align 8, !dbg !1680
  call void @llvm.dbg.declare(metadata %"core::mem::manually_drop::ManuallyDrop<alloc::alloc::Global>"** %slot.dbg.spill8, metadata !1634, metadata !DIExpression()), !dbg !1681
  %_50 = bitcast %"core::mem::manually_drop::ManuallyDrop<alloc::alloc::Global>"* %_25 to %"alloc::alloc::Global"*, !dbg !1681
  store %"alloc::alloc::Global"* %_50, %"alloc::alloc::Global"** %src.dbg.spill, align 8, !dbg !1681
  call void @llvm.dbg.declare(metadata %"alloc::alloc::Global"** %src.dbg.spill, metadata !1628, metadata !DIExpression()), !dbg !1682
  %25 = bitcast %"core::mem::maybe_uninit::MaybeUninit<alloc::alloc::Global>"* %tmp1 to {}*, !dbg !1683
  store %"core::mem::maybe_uninit::MaybeUninit<alloc::alloc::Global>"* %tmp1, %"core::mem::maybe_uninit::MaybeUninit<alloc::alloc::Global>"** %self.dbg.spill9, align 8, !dbg !1630
  call void @llvm.dbg.declare(metadata %"core::mem::maybe_uninit::MaybeUninit<alloc::alloc::Global>"** %self.dbg.spill9, metadata !1687, metadata !DIExpression()), !dbg !1695
  %_53 = bitcast %"core::mem::maybe_uninit::MaybeUninit<alloc::alloc::Global>"* %tmp1 to %"alloc::alloc::Global"*, !dbg !1695
  %26 = bitcast %"alloc::alloc::Global"* %_53 to i8*, !dbg !1630
  %27 = bitcast %"alloc::alloc::Global"* %_50 to i8*, !dbg !1630
  call void @llvm.memcpy.p0i8.p0i8.i64(i8* align 1 %26, i8* align 1 %27, i64 0, i1 false), !dbg !1630
  br label %bb9, !dbg !1641

bb9:                                              ; preds = %bb5
  %28 = bitcast %"alloc::collections::btree::map::IntoIter<std::ffi::os_str::OsString, core::option::Option<std::ffi::os_str::OsString>>"* %0 to %"alloc::collections::btree::navigate::LazyLeafRange<alloc::collections::btree::node::marker::Dying, std::ffi::os_str::OsString, core::option::Option<std::ffi::os_str::OsString>>"*, !dbg !1697
  %29 = bitcast %"alloc::collections::btree::navigate::LazyLeafRange<alloc::collections::btree::node::marker::Dying, std::ffi::os_str::OsString, core::option::Option<std::ffi::os_str::OsString>>"* %28 to i8*, !dbg !1697
  %30 = bitcast %"alloc::collections::btree::navigate::LazyLeafRange<alloc::collections::btree::node::marker::Dying, std::ffi::os_str::OsString, core::option::Option<std::ffi::os_str::OsString>>"* %_22 to i8*, !dbg !1697
  call void @llvm.memcpy.p0i8.p0i8.i64(i8* align 8 %29, i8* align 8 %30, i64 64, i1 false), !dbg !1697
  %31 = getelementptr inbounds %"alloc::collections::btree::map::IntoIter<std::ffi::os_str::OsString, core::option::Option<std::ffi::os_str::OsString>>", %"alloc::collections::btree::map::IntoIter<std::ffi::os_str::OsString, core::option::Option<std::ffi::os_str::OsString>>"* %0, i32 0, i32 2, !dbg !1697
  store i64 0, i64* %31, align 8, !dbg !1697
  %32 = bitcast %"alloc::collections::btree::map::IntoIter<std::ffi::os_str::OsString, core::option::Option<std::ffi::os_str::OsString>>"* %0 to %"alloc::alloc::Global"*, !dbg !1697
  br label %bb6, !dbg !1698

bb6:                                              ; preds = %bb8, %bb9
  ret void, !dbg !1699

bb2:                                              ; preds = %bb1
; call alloc::collections::btree::navigate::<impl alloc::collections::btree::node::NodeRef<alloc::collections::btree::node::marker::Dying,K,V,alloc::collections::btree::node::marker::LeafOrInternal>>::full_range
  call void @"_ZN5alloc11collections5btree8navigate178_$LT$impl$u20$alloc..collections..btree..node..NodeRef$LT$alloc..collections..btree..node..marker..Dying$C$K$C$V$C$alloc..collections..btree..node..marker..LeafOrInternal$GT$$GT$10full_range17h09990fc7236fc009E"(%"alloc::collections::btree::navigate::LazyLeafRange<alloc::collections::btree::node::marker::Dying, std::ffi::os_str::OsString, core::option::Option<std::ffi::os_str::OsString>>"* sret(%"alloc::collections::btree::navigate::LazyLeafRange<alloc::collections::btree::node::marker::Dying, std::ffi::os_str::OsString, core::option::Option<std::ffi::os_str::OsString>>") %full_range, i64 %_11.0, i64* %_11.1), !dbg !1672
  br label %bb3, !dbg !1672

bb3:                                              ; preds = %bb2
  %33 = bitcast %"alloc::collections::btree::navigate::LazyLeafRange<alloc::collections::btree::node::marker::Dying, std::ffi::os_str::OsString, core::option::Option<std::ffi::os_str::OsString>>"* %_13 to i8*, !dbg !1700
  %34 = bitcast %"alloc::collections::btree::navigate::LazyLeafRange<alloc::collections::btree::node::marker::Dying, std::ffi::os_str::OsString, core::option::Option<std::ffi::os_str::OsString>>"* %full_range to i8*, !dbg !1700
  call void @llvm.memcpy.p0i8.p0i8.i64(i8* align 8 %33, i8* align 8 %34, i64 64, i1 false), !dbg !1700
  store %"core::mem::manually_drop::ManuallyDrop<alloc::collections::btree::map::BTreeMap<std::ffi::os_str::OsString, core::option::Option<std::ffi::os_str::OsString>>>"* %me, %"core::mem::manually_drop::ManuallyDrop<alloc::collections::btree::map::BTreeMap<std::ffi::os_str::OsString, core::option::Option<std::ffi::os_str::OsString>>>"** %self.dbg.spill10, align 8, !dbg !1701
  call void @llvm.dbg.declare(metadata %"core::mem::manually_drop::ManuallyDrop<alloc::collections::btree::map::BTreeMap<std::ffi::os_str::OsString, core::option::Option<std::ffi::os_str::OsString>>>"** %self.dbg.spill10, metadata !1702, metadata !DIExpression()), !dbg !1711
  %_15 = bitcast %"core::mem::manually_drop::ManuallyDrop<alloc::collections::btree::map::BTreeMap<std::ffi::os_str::OsString, core::option::Option<std::ffi::os_str::OsString>>>"* %me to %"alloc::collections::btree::map::BTreeMap<std::ffi::os_str::OsString, core::option::Option<std::ffi::os_str::OsString>>"*, !dbg !1711
  %35 = getelementptr inbounds %"alloc::collections::btree::map::BTreeMap<std::ffi::os_str::OsString, core::option::Option<std::ffi::os_str::OsString>>", %"alloc::collections::btree::map::BTreeMap<std::ffi::os_str::OsString, core::option::Option<std::ffi::os_str::OsString>>"* %_15, i32 0, i32 3, !dbg !1701
  %_14 = load i64, i64* %35, align 8, !dbg !1701
  store %"core::mem::manually_drop::ManuallyDrop<alloc::collections::btree::map::BTreeMap<std::ffi::os_str::OsString, core::option::Option<std::ffi::os_str::OsString>>>"* %me, %"core::mem::manually_drop::ManuallyDrop<alloc::collections::btree::map::BTreeMap<std::ffi::os_str::OsString, core::option::Option<std::ffi::os_str::OsString>>>"** %self.dbg.spill11, align 8, !dbg !1712
  call void @llvm.dbg.declare(metadata %"core::mem::manually_drop::ManuallyDrop<alloc::collections::btree::map::BTreeMap<std::ffi::os_str::OsString, core::option::Option<std::ffi::os_str::OsString>>>"** %self.dbg.spill11, metadata !1713, metadata !DIExpression()), !dbg !1717
  %_34 = bitcast %"core::mem::manually_drop::ManuallyDrop<alloc::collections::btree::map::BTreeMap<std::ffi::os_str::OsString, core::option::Option<std::ffi::os_str::OsString>>>"* %me to %"alloc::collections::btree::map::BTreeMap<std::ffi::os_str::OsString, core::option::Option<std::ffi::os_str::OsString>>"*, !dbg !1717
  %_19 = bitcast %"alloc::collections::btree::map::BTreeMap<std::ffi::os_str::OsString, core::option::Option<std::ffi::os_str::OsString>>"* %_34 to %"core::mem::manually_drop::ManuallyDrop<alloc::alloc::Global>"*, !dbg !1718
  store %"core::mem::manually_drop::ManuallyDrop<alloc::alloc::Global>"* %_19, %"core::mem::manually_drop::ManuallyDrop<alloc::alloc::Global>"** %slot.dbg.spill12, align 8, !dbg !1718
  call void @llvm.dbg.declare(metadata %"core::mem::manually_drop::ManuallyDrop<alloc::alloc::Global>"** %slot.dbg.spill12, metadata !1603, metadata !DIExpression()), !dbg !1719
  %_36 = bitcast %"core::mem::manually_drop::ManuallyDrop<alloc::alloc::Global>"* %_19 to %"alloc::alloc::Global"*, !dbg !1719
  store %"alloc::alloc::Global"* %_36, %"alloc::alloc::Global"** %src.dbg.spill13, align 8, !dbg !1719
  call void @llvm.dbg.declare(metadata %"alloc::alloc::Global"** %src.dbg.spill13, metadata !1590, metadata !DIExpression()), !dbg !1720
  %36 = bitcast %"core::mem::maybe_uninit::MaybeUninit<alloc::alloc::Global>"* %tmp to {}*, !dbg !1721
  store %"core::mem::maybe_uninit::MaybeUninit<alloc::alloc::Global>"* %tmp, %"core::mem::maybe_uninit::MaybeUninit<alloc::alloc::Global>"** %self.dbg.spill14, align 8, !dbg !1596
  call void @llvm.dbg.declare(metadata %"core::mem::maybe_uninit::MaybeUninit<alloc::alloc::Global>"** %self.dbg.spill14, metadata !1725, metadata !DIExpression()), !dbg !1729
  %_39 = bitcast %"core::mem::maybe_uninit::MaybeUninit<alloc::alloc::Global>"* %tmp to %"alloc::alloc::Global"*, !dbg !1729
  %37 = bitcast %"alloc::alloc::Global"* %_39 to i8*, !dbg !1596
  %38 = bitcast %"alloc::alloc::Global"* %_36 to i8*, !dbg !1596
  call void @llvm.memcpy.p0i8.p0i8.i64(i8* align 1 %37, i8* align 1 %38, i64 0, i1 false), !dbg !1596
  br label %bb8, !dbg !1613

bb8:                                              ; preds = %bb3
  %39 = bitcast %"alloc::collections::btree::map::IntoIter<std::ffi::os_str::OsString, core::option::Option<std::ffi::os_str::OsString>>"* %0 to %"alloc::collections::btree::navigate::LazyLeafRange<alloc::collections::btree::node::marker::Dying, std::ffi::os_str::OsString, core::option::Option<std::ffi::os_str::OsString>>"*, !dbg !1731
  %40 = bitcast %"alloc::collections::btree::navigate::LazyLeafRange<alloc::collections::btree::node::marker::Dying, std::ffi::os_str::OsString, core::option::Option<std::ffi::os_str::OsString>>"* %39 to i8*, !dbg !1731
  %41 = bitcast %"alloc::collections::btree::navigate::LazyLeafRange<alloc::collections::btree::node::marker::Dying, std::ffi::os_str::OsString, core::option::Option<std::ffi::os_str::OsString>>"* %_13 to i8*, !dbg !1731
  call void @llvm.memcpy.p0i8.p0i8.i64(i8* align 8 %40, i8* align 8 %41, i64 64, i1 false), !dbg !1731
  %42 = getelementptr inbounds %"alloc::collections::btree::map::IntoIter<std::ffi::os_str::OsString, core::option::Option<std::ffi::os_str::OsString>>", %"alloc::collections::btree::map::IntoIter<std::ffi::os_str::OsString, core::option::Option<std::ffi::os_str::OsString>>"* %0, i32 0, i32 2, !dbg !1731
  store i64 %_14, i64* %42, align 8, !dbg !1731
  %43 = bitcast %"alloc::collections::btree::map::IntoIter<std::ffi::os_str::OsString, core::option::Option<std::ffi::os_str::OsString>>"* %0 to %"alloc::alloc::Global"*, !dbg !1731
  br label %bb6, !dbg !1698
}

; <core::ptr::non_null::NonNull<T> as core::convert::From<core::ptr::unique::Unique<T>>>::from
; Function Attrs: inlinehint nonlazybind uwtable
define internal i8* @"_ZN119_$LT$core..ptr..non_null..NonNull$LT$T$GT$$u20$as$u20$core..convert..From$LT$core..ptr..unique..Unique$LT$T$GT$$GT$$GT$4from17h235423854f80c95bE"(i8* %unique) unnamed_addr #0 !dbg !1732 {
start:
  %ptr.dbg.spill = alloca i8*, align 8
  %self.dbg.spill1 = alloca i8*, align 8
  %self.dbg.spill = alloca i8*, align 8
  %unique.dbg.spill = alloca i8*, align 8
  %0 = alloca i8*, align 8
  store i8* %unique, i8** %unique.dbg.spill, align 8
  call void @llvm.dbg.declare(metadata i8** %unique.dbg.spill, metadata !1737, metadata !DIExpression()), !dbg !1738
  store i8* %unique, i8** %self.dbg.spill, align 8, !dbg !1739
  call void @llvm.dbg.declare(metadata i8** %self.dbg.spill, metadata !1740, metadata !DIExpression()), !dbg !1747
  store i8* %unique, i8** %self.dbg.spill1, align 8, !dbg !1747
  call void @llvm.dbg.declare(metadata i8** %self.dbg.spill1, metadata !1748, metadata !DIExpression()), !dbg !1751
  store i8* %unique, i8** %ptr.dbg.spill, align 8, !dbg !1751
  call void @llvm.dbg.declare(metadata i8** %ptr.dbg.spill, metadata !1753, metadata !DIExpression()), !dbg !1758
  store i8* %unique, i8** %0, align 8, !dbg !1758
  %1 = load i8*, i8** %0, align 8, !dbg !1760, !nonnull !23, !noundef !23
  ret i8* %1, !dbg !1760
}

; <alloc::collections::TryReserveError as core::convert::From<alloc::collections::TryReserveErrorKind>>::from
; Function Attrs: inlinehint nonlazybind uwtable
define internal { i64, i64 } @"_ZN122_$LT$alloc..collections..TryReserveError$u20$as$u20$core..convert..From$LT$alloc..collections..TryReserveErrorKind$GT$$GT$4from17h546a7d4f068a885bE"(i64 %kind.0, i64 %kind.1) unnamed_addr #0 !dbg !1761 {
start:
  %kind.dbg.spill = alloca { i64, i64 }, align 8
  %0 = alloca { i64, i64 }, align 8
  %1 = getelementptr inbounds { i64, i64 }, { i64, i64 }* %kind.dbg.spill, i32 0, i32 0
  store i64 %kind.0, i64* %1, align 8
  %2 = getelementptr inbounds { i64, i64 }, { i64, i64 }* %kind.dbg.spill, i32 0, i32 1
  store i64 %kind.1, i64* %2, align 8
  call void @llvm.dbg.declare(metadata { i64, i64 }* %kind.dbg.spill, metadata !1791, metadata !DIExpression()), !dbg !1792
  %3 = getelementptr inbounds { i64, i64 }, { i64, i64 }* %0, i32 0, i32 0, !dbg !1793
  store i64 %kind.0, i64* %3, align 8, !dbg !1793
  %4 = getelementptr inbounds { i64, i64 }, { i64, i64 }* %0, i32 0, i32 1, !dbg !1793
  store i64 %kind.1, i64* %4, align 8, !dbg !1793
  %5 = getelementptr inbounds { i64, i64 }, { i64, i64 }* %0, i32 0, i32 0, !dbg !1794
  %6 = load i64, i64* %5, align 8, !dbg !1794
  %7 = getelementptr inbounds { i64, i64 }, { i64, i64 }* %0, i32 0, i32 1, !dbg !1794
  %8 = load i64, i64* %7, align 8, !dbg !1794, !range !1795, !noundef !23
  %9 = insertvalue { i64, i64 } undef, i64 %6, 0, !dbg !1794
  %10 = insertvalue { i64, i64 } %9, i64 %8, 1, !dbg !1794
  ret { i64, i64 } %10, !dbg !1794
}

; <alloc::vec::Vec<T,A> as alloc::vec::spec_extend::SpecExtend<&T,core::slice::iter::Iter<T>>>::spec_extend
; Function Attrs: nonlazybind uwtable
define internal void @"_ZN132_$LT$alloc..vec..Vec$LT$T$C$A$GT$$u20$as$u20$alloc..vec..spec_extend..SpecExtend$LT$$RF$T$C$core..slice..iter..Iter$LT$T$GT$$GT$$GT$11spec_extend17hfa10ff63240d453dE"(%"alloc::vec::Vec<u8>"* align 8 %self, i8* %0, i8* %1) unnamed_addr #1 !dbg !1796 {
start:
  %slice.dbg.spill = alloca { [0 x i8]*, i64 }, align 8
  %self.dbg.spill = alloca %"alloc::vec::Vec<u8>"*, align 8
  %iterator = alloca { i8*, i8* }, align 8
  %2 = getelementptr inbounds { i8*, i8* }, { i8*, i8* }* %iterator, i32 0, i32 0
  store i8* %0, i8** %2, align 8
  %3 = getelementptr inbounds { i8*, i8* }, { i8*, i8* }* %iterator, i32 0, i32 1
  store i8* %1, i8** %3, align 8
  store %"alloc::vec::Vec<u8>"* %self, %"alloc::vec::Vec<u8>"** %self.dbg.spill, align 8
  call void @llvm.dbg.declare(metadata %"alloc::vec::Vec<u8>"** %self.dbg.spill, metadata !1804, metadata !DIExpression()), !dbg !1808
  call void @llvm.dbg.declare(metadata { i8*, i8* }* %iterator, metadata !1805, metadata !DIExpression()), !dbg !1809
; call core::slice::iter::Iter<T>::as_slice
  %4 = call { [0 x i8]*, i64 } @"_ZN4core5slice4iter13Iter$LT$T$GT$8as_slice17h95713962b8792772E"({ i8*, i8* }* align 8 %iterator), !dbg !1810
  %slice.0 = extractvalue { [0 x i8]*, i64 } %4, 0, !dbg !1810
  %slice.1 = extractvalue { [0 x i8]*, i64 } %4, 1, !dbg !1810
  %5 = getelementptr inbounds { [0 x i8]*, i64 }, { [0 x i8]*, i64 }* %slice.dbg.spill, i32 0, i32 0, !dbg !1810
  store [0 x i8]* %slice.0, [0 x i8]** %5, align 8, !dbg !1810
  %6 = getelementptr inbounds { [0 x i8]*, i64 }, { [0 x i8]*, i64 }* %slice.dbg.spill, i32 0, i32 1, !dbg !1810
  store i64 %slice.1, i64* %6, align 8, !dbg !1810
  call void @llvm.dbg.declare(metadata { [0 x i8]*, i64 }* %slice.dbg.spill, metadata !1806, metadata !DIExpression()), !dbg !1811
  br label %bb1, !dbg !1810

bb1:                                              ; preds = %start
; call alloc::vec::Vec<T,A>::append_elements
  call void @"_ZN5alloc3vec16Vec$LT$T$C$A$GT$15append_elements17hb0491b9b26179efeE"(%"alloc::vec::Vec<u8>"* align 8 %self, [0 x i8]* %slice.0, i64 %slice.1), !dbg !1812
  br label %bb2, !dbg !1812

bb2:                                              ; preds = %bb1
  ret void, !dbg !1813
}

; <<alloc::collections::btree::map::IntoIter<K,V,A> as core::ops::drop::Drop>::drop::DropGuard<K,V,A> as core::ops::drop::Drop>::drop
; Function Attrs: nonlazybind uwtable
define internal void @"_ZN174_$LT$$LT$alloc..collections..btree..map..IntoIter$LT$K$C$V$C$A$GT$$u20$as$u20$core..ops..drop..Drop$GT$..drop..DropGuard$LT$K$C$V$C$A$GT$$u20$as$u20$core..ops..drop..Drop$GT$4drop17hded606778ae165c8E"(i64** align 8 %self) unnamed_addr #1 !dbg !1814 {
start:
  %self.dbg.spill = alloca i64**, align 8
  %_7 = alloca %"alloc::collections::btree::node::Handle<alloc::collections::btree::node::NodeRef<alloc::collections::btree::node::marker::Dying, std::ffi::os_str::OsString, core::option::Option<std::ffi::os_str::OsString>, alloc::collections::btree::node::marker::LeafOrInternal>, alloc::collections::btree::node::marker::KV>", align 8
  %kv = alloca %"alloc::collections::btree::node::Handle<alloc::collections::btree::node::NodeRef<alloc::collections::btree::node::marker::Dying, std::ffi::os_str::OsString, core::option::Option<std::ffi::os_str::OsString>, alloc::collections::btree::node::marker::LeafOrInternal>, alloc::collections::btree::node::marker::KV>", align 8
  %_2 = alloca %"core::option::Option<alloc::collections::btree::node::Handle<alloc::collections::btree::node::NodeRef<alloc::collections::btree::node::marker::Dying, std::ffi::os_str::OsString, core::option::Option<std::ffi::os_str::OsString>, alloc::collections::btree::node::marker::LeafOrInternal>, alloc::collections::btree::node::marker::KV>>", align 8
  store i64** %self, i64*** %self.dbg.spill, align 8
  call void @llvm.dbg.declare(metadata i64*** %self.dbg.spill, metadata !1826, metadata !DIExpression()), !dbg !1843
  call void @llvm.dbg.declare(metadata %"alloc::collections::btree::node::Handle<alloc::collections::btree::node::NodeRef<alloc::collections::btree::node::marker::Dying, std::ffi::os_str::OsString, core::option::Option<std::ffi::os_str::OsString>, alloc::collections::btree::node::marker::LeafOrInternal>, alloc::collections::btree::node::marker::KV>"* %kv, metadata !1827, metadata !DIExpression()), !dbg !1844
  br label %bb1, !dbg !1845

bb1:                                              ; preds = %bb4, %start
  %0 = bitcast i64** %self to %"alloc::collections::btree::map::IntoIter<std::ffi::os_str::OsString, core::option::Option<std::ffi::os_str::OsString>>"**, !dbg !1846
  %_8 = load %"alloc::collections::btree::map::IntoIter<std::ffi::os_str::OsString, core::option::Option<std::ffi::os_str::OsString>>"*, %"alloc::collections::btree::map::IntoIter<std::ffi::os_str::OsString, core::option::Option<std::ffi::os_str::OsString>>"** %0, align 8, !dbg !1846, !nonnull !23, !align !584, !noundef !23
; call alloc::collections::btree::map::IntoIter<K,V,A>::dying_next
  call void @"_ZN5alloc11collections5btree3map25IntoIter$LT$K$C$V$C$A$GT$10dying_next17h4f1bfc4fa54278c4E"(%"core::option::Option<alloc::collections::btree::node::Handle<alloc::collections::btree::node::NodeRef<alloc::collections::btree::node::marker::Dying, std::ffi::os_str::OsString, core::option::Option<std::ffi::os_str::OsString>, alloc::collections::btree::node::marker::LeafOrInternal>, alloc::collections::btree::node::marker::KV>>"* sret(%"core::option::Option<alloc::collections::btree::node::Handle<alloc::collections::btree::node::NodeRef<alloc::collections::btree::node::marker::Dying, std::ffi::os_str::OsString, core::option::Option<std::ffi::os_str::OsString>, alloc::collections::btree::node::marker::LeafOrInternal>, alloc::collections::btree::node::marker::KV>>") %_2, %"alloc::collections::btree::map::IntoIter<std::ffi::os_str::OsString, core::option::Option<std::ffi::os_str::OsString>>"* align 8 %_8), !dbg !1846
  br label %bb2, !dbg !1846

bb2:                                              ; preds = %bb1
  %1 = getelementptr inbounds %"core::option::Option<alloc::collections::btree::node::Handle<alloc::collections::btree::node::NodeRef<alloc::collections::btree::node::marker::Dying, std::ffi::os_str::OsString, core::option::Option<std::ffi::os_str::OsString>, alloc::collections::btree::node::marker::LeafOrInternal>, alloc::collections::btree::node::marker::KV>>", %"core::option::Option<alloc::collections::btree::node::Handle<alloc::collections::btree::node::NodeRef<alloc::collections::btree::node::marker::Dying, std::ffi::os_str::OsString, core::option::Option<std::ffi::os_str::OsString>, alloc::collections::btree::node::marker::LeafOrInternal>, alloc::collections::btree::node::marker::KV>>"* %_2, i32 0, i32 1, !dbg !1847
  %2 = load {}*, {}** %1, align 8, !dbg !1847
  %3 = icmp eq {}* %2, null, !dbg !1847
  %_4 = select i1 %3, i64 0, i64 1, !dbg !1847
  %4 = icmp eq i64 %_4, 1, !dbg !1847
  br i1 %4, label %bb3, label %bb5, !dbg !1847

bb3:                                              ; preds = %bb2
  %5 = bitcast %"core::option::Option<alloc::collections::btree::node::Handle<alloc::collections::btree::node::NodeRef<alloc::collections::btree::node::marker::Dying, std::ffi::os_str::OsString, core::option::Option<std::ffi::os_str::OsString>, alloc::collections::btree::node::marker::LeafOrInternal>, alloc::collections::btree::node::marker::KV>>"* %_2 to %"core::option::Option<alloc::collections::btree::node::Handle<alloc::collections::btree::node::NodeRef<alloc::collections::btree::node::marker::Dying, std::ffi::os_str::OsString, core::option::Option<std::ffi::os_str::OsString>, alloc::collections::btree::node::marker::LeafOrInternal>, alloc::collections::btree::node::marker::KV>>::Some"*, !dbg !1844
  %6 = bitcast %"core::option::Option<alloc::collections::btree::node::Handle<alloc::collections::btree::node::NodeRef<alloc::collections::btree::node::marker::Dying, std::ffi::os_str::OsString, core::option::Option<std::ffi::os_str::OsString>, alloc::collections::btree::node::marker::LeafOrInternal>, alloc::collections::btree::node::marker::KV>>::Some"* %5 to %"alloc::collections::btree::node::Handle<alloc::collections::btree::node::NodeRef<alloc::collections::btree::node::marker::Dying, std::ffi::os_str::OsString, core::option::Option<std::ffi::os_str::OsString>, alloc::collections::btree::node::marker::LeafOrInternal>, alloc::collections::btree::node::marker::KV>"*, !dbg !1844
  %7 = bitcast %"alloc::collections::btree::node::Handle<alloc::collections::btree::node::NodeRef<alloc::collections::btree::node::marker::Dying, std::ffi::os_str::OsString, core::option::Option<std::ffi::os_str::OsString>, alloc::collections::btree::node::marker::LeafOrInternal>, alloc::collections::btree::node::marker::KV>"* %kv to i8*, !dbg !1844
  %8 = bitcast %"alloc::collections::btree::node::Handle<alloc::collections::btree::node::NodeRef<alloc::collections::btree::node::marker::Dying, std::ffi::os_str::OsString, core::option::Option<std::ffi::os_str::OsString>, alloc::collections::btree::node::marker::LeafOrInternal>, alloc::collections::btree::node::marker::KV>"* %6 to i8*, !dbg !1844
  call void @llvm.memcpy.p0i8.p0i8.i64(i8* align 8 %7, i8* align 8 %8, i64 24, i1 false), !dbg !1844
  %9 = bitcast %"alloc::collections::btree::node::Handle<alloc::collections::btree::node::NodeRef<alloc::collections::btree::node::marker::Dying, std::ffi::os_str::OsString, core::option::Option<std::ffi::os_str::OsString>, alloc::collections::btree::node::marker::LeafOrInternal>, alloc::collections::btree::node::marker::KV>"* %_7 to i8*, !dbg !1848
  %10 = bitcast %"alloc::collections::btree::node::Handle<alloc::collections::btree::node::NodeRef<alloc::collections::btree::node::marker::Dying, std::ffi::os_str::OsString, core::option::Option<std::ffi::os_str::OsString>, alloc::collections::btree::node::marker::LeafOrInternal>, alloc::collections::btree::node::marker::KV>"* %kv to i8*, !dbg !1848
  call void @llvm.memcpy.p0i8.p0i8.i64(i8* align 8 %9, i8* align 8 %10, i64 24, i1 false), !dbg !1848
; call alloc::collections::btree::node::Handle<alloc::collections::btree::node::NodeRef<alloc::collections::btree::node::marker::Dying,K,V,NodeType>,alloc::collections::btree::node::marker::KV>::drop_key_val
  call void @"_ZN5alloc11collections5btree4node173Handle$LT$alloc..collections..btree..node..NodeRef$LT$alloc..collections..btree..node..marker..Dying$C$K$C$V$C$NodeType$GT$$C$alloc..collections..btree..node..marker..KV$GT$12drop_key_val17h7334a7c41f34b097E"(%"alloc::collections::btree::node::Handle<alloc::collections::btree::node::NodeRef<alloc::collections::btree::node::marker::Dying, std::ffi::os_str::OsString, core::option::Option<std::ffi::os_str::OsString>, alloc::collections::btree::node::marker::LeafOrInternal>, alloc::collections::btree::node::marker::KV>"* %_7), !dbg !1848
  br label %bb4, !dbg !1848

bb5:                                              ; preds = %bb2
  ret void, !dbg !1849

bb4:                                              ; preds = %bb3
  br label %bb1, !dbg !1845
}

; std::sys_common::backtrace::__rust_begin_short_backtrace
; Function Attrs: noinline nonlazybind uwtable
define internal void @_ZN3std10sys_common9backtrace28__rust_begin_short_backtrace17h2a99f7a5eba12a9bE(void ()* %f) unnamed_addr #2 personality i32 (i32, i32, i64, %"unwind::libunwind::_Unwind_Exception"*, %"unwind::libunwind::_Unwind_Context"*)* @rust_eh_personality !dbg !1850 {
start:
  %0 = alloca { i8*, i32 }, align 8
  %dummy.dbg.spill = alloca {}, align 1
  %f.dbg.spill = alloca void ()*, align 8
  %result.dbg.spill = alloca {}, align 1
  call void @llvm.dbg.declare(metadata {}* %result.dbg.spill, metadata !1858, metadata !DIExpression()), !dbg !1862
  store void ()* %f, void ()** %f.dbg.spill, align 8
  call void @llvm.dbg.declare(metadata void ()** %f.dbg.spill, metadata !1857, metadata !DIExpression()), !dbg !1863
  call void @llvm.dbg.declare(metadata {}* %dummy.dbg.spill, metadata !1864, metadata !DIExpression()), !dbg !1872
; call core::ops::function::FnOnce::call_once
  call void @_ZN4core3ops8function6FnOnce9call_once17h5f346be4eda2d72eE(void ()* %f), !dbg !1874
  br label %bb1, !dbg !1874

bb1:                                              ; preds = %start
  call void asm sideeffect "", "r,~{memory}"({}* undef), !dbg !1872, !srcloc !1875
  br label %bb4, !dbg !1872

bb4:                                              ; preds = %bb1
  ret void, !dbg !1876

bb2:                                              ; No predecessors!
  br label %bb3, !dbg !1877

bb3:                                              ; preds = %bb2
  %1 = bitcast { i8*, i32 }* %0 to i8**, !dbg !1878
  %2 = load i8*, i8** %1, align 8, !dbg !1878
  %3 = getelementptr inbounds { i8*, i32 }, { i8*, i32 }* %0, i32 0, i32 1, !dbg !1878
  %4 = load i32, i32* %3, align 8, !dbg !1878
  %5 = insertvalue { i8*, i32 } undef, i8* %2, 0, !dbg !1878
  %6 = insertvalue { i8*, i32 } %5, i32 %4, 1, !dbg !1878
  resume { i8*, i32 } %6, !dbg !1878
}

; std::io::error::repr_bitpacked::decode_repr
; Function Attrs: inlinehint nonlazybind uwtable
define internal void @_ZN3std2io5error14repr_bitpacked11decode_repr17hcd0e3b9b5356dd58E(%"std::io::error::ErrorData<alloc::boxed::Box<std::io::error::Custom>>"* sret(%"std::io::error::ErrorData<alloc::boxed::Box<std::io::error::Custom>>") %0, i8* %ptr) unnamed_addr #0 personality i32 (i32, i32, i64, %"unwind::libunwind::_Unwind_Exception"*, %"unwind::libunwind::_Unwind_Context"*)* @rust_eh_personality !dbg !1879 {
start:
  %code.dbg.spill = alloca i32, align 4
  %x.dbg.spill = alloca i8, align 1
  %kind_bits.dbg.spill = alloca i32, align 4
  %ptr.dbg.spill12 = alloca %"std::io::error::SimpleMessage"*, align 8
  %self.dbg.spill10 = alloca i8*, align 8
  %self.dbg.spill9 = alloca i8*, align 8
  %custom.dbg.spill = alloca %"std::io::error::Custom"*, align 8
  %self.dbg.spill8 = alloca i8*, align 8
  %1 = alloca i8*, align 8
  %self.dbg.spill7 = alloca i8*, align 8
  %self.dbg.spill6 = alloca i8*, align 8
  %self.dbg.spill4 = alloca {}*, align 8
  %self.dbg.spill3 = alloca i8*, align 8
  %2 = alloca { i8*, i32 }, align 8
  %self.dbg.spill2 = alloca {}*, align 8
  %self.dbg.spill = alloca i8*, align 8
  %make_custom.dbg.spill = alloca %"[closure@<std::io::error::repr_bitpacked::Repr as core::ops::drop::Drop>::drop::{closure#0}]", align 1
  %ptr.dbg.spill = alloca i8*, align 8
  %_37 = alloca i8, align 1
  %_34 = alloca i64*, align 8
  %self1 = alloca i64*, align 8
  %f = alloca i64*, align 8
  %self = alloca i8, align 1
  %kind = alloca i8, align 1
  %bits = alloca i64, align 8
  store i8* %ptr, i8** %ptr.dbg.spill, align 8
  call void @llvm.dbg.declare(metadata i8** %ptr.dbg.spill, metadata !1887, metadata !DIExpression()), !dbg !1902
  call void @llvm.dbg.declare(metadata %"[closure@<std::io::error::repr_bitpacked::Repr as core::ops::drop::Drop>::drop::{closure#0}]"* %make_custom.dbg.spill, metadata !1888, metadata !DIExpression()), !dbg !1903
  call void @llvm.dbg.declare(metadata i64* %bits, metadata !1889, metadata !DIExpression()), !dbg !1904
  call void @llvm.dbg.declare(metadata i8* %kind, metadata !1895, metadata !DIExpression()), !dbg !1905
  call void @llvm.dbg.declare(metadata i8* %self, metadata !1906, metadata !DIExpression()), !dbg !1935
  call void @llvm.dbg.declare(metadata i64** %f, metadata !1929, metadata !DIExpression()), !dbg !1935
  call void @llvm.dbg.declare(metadata i64** %self1, metadata !1937, metadata !DIExpression()), !dbg !1950
  store i8 1, i8* %_37, align 1, !dbg !1952
  store i8* %ptr, i8** %self.dbg.spill, align 8, !dbg !1953
  call void @llvm.dbg.declare(metadata i8** %self.dbg.spill, metadata !1954, metadata !DIExpression()), !dbg !1960
  %_38 = bitcast i8* %ptr to {}*, !dbg !1960
  store {}* %_38, {}** %self.dbg.spill2, align 8, !dbg !1960
  call void @llvm.dbg.declare(metadata {}** %self.dbg.spill2, metadata !1961, metadata !DIExpression()), !dbg !1967
  %3 = bitcast i64* %bits to {}**, !dbg !1967
  store {}* %_38, {}** %3, align 8, !dbg !1967
  br label %bb14, !dbg !1967

bb14:                                             ; preds = %start
  %_7 = load i64, i64* %bits, align 8, !dbg !1968
  %_6 = and i64 %_7, 3, !dbg !1968
  switch i64 %_6, label %bb1 [
    i64 2, label %bb2
    i64 3, label %bb3
    i64 0, label %bb5
    i64 1, label %bb6
  ], !dbg !1969

bb1:                                              ; preds = %bb14
; invoke core::panicking::panic
  invoke void @_ZN4core9panicking5panic17hf5844c0338bd061cE([0 x i8]* align 1 bitcast (<{ [40 x i8] }>* @alloc513 to [0 x i8]*), i64 40, %"core::panic::location::Location"* align 8 bitcast (<{ i8*, [16 x i8] }>* @alloc515 to %"core::panic::location::Location"*)) #15
          to label %unreachable unwind label %cleanup, !dbg !1970

bb2:                                              ; preds = %bb14
  %_11 = load i64, i64* %bits, align 8, !dbg !1971
  %_9 = ashr i64 %_11, 32, !dbg !1972
  %code = trunc i64 %_9 to i32, !dbg !1972
  store i32 %code, i32* %code.dbg.spill, align 4, !dbg !1972
  call void @llvm.dbg.declare(metadata i32* %code.dbg.spill, metadata !1891, metadata !DIExpression()), !dbg !1973
  %4 = bitcast %"std::io::error::ErrorData<alloc::boxed::Box<std::io::error::Custom>>"* %0 to %"std::io::error::ErrorData<alloc::boxed::Box<std::io::error::Custom>>::Os"*, !dbg !1974
  %5 = getelementptr inbounds %"std::io::error::ErrorData<alloc::boxed::Box<std::io::error::Custom>>::Os", %"std::io::error::ErrorData<alloc::boxed::Box<std::io::error::Custom>>::Os"* %4, i32 0, i32 1, !dbg !1974
  store i32 %code, i32* %5, align 4, !dbg !1974
  %6 = bitcast %"std::io::error::ErrorData<alloc::boxed::Box<std::io::error::Custom>>"* %0 to i8*, !dbg !1974
  store i8 0, i8* %6, align 8, !dbg !1974
  br label %bb8, !dbg !1975

bb3:                                              ; preds = %bb14
  %_15 = load i64, i64* %bits, align 8, !dbg !1976
  %_14 = lshr i64 %_15, 32, !dbg !1977
  %kind_bits = trunc i64 %_14 to i32, !dbg !1977
  store i32 %kind_bits, i32* %kind_bits.dbg.spill, align 4, !dbg !1977
  call void @llvm.dbg.declare(metadata i32* %kind_bits.dbg.spill, metadata !1893, metadata !DIExpression()), !dbg !1978
; invoke std::io::error::repr_bitpacked::kind_from_prim
  %7 = invoke i8 @_ZN3std2io5error14repr_bitpacked14kind_from_prim17h5c18ff44e4b611d2E(i32 %kind_bits)
          to label %bb4 unwind label %cleanup, !dbg !1936, !range !1979

bb5:                                              ; preds = %bb14
  store i8* %ptr, i8** %self.dbg.spill9, align 8, !dbg !1951
  call void @llvm.dbg.declare(metadata i8** %self.dbg.spill9, metadata !1980, metadata !DIExpression()), !dbg !1988
  store i8* %ptr, i8** %self.dbg.spill10, align 8, !dbg !1988
  call void @llvm.dbg.declare(metadata i8** %self.dbg.spill10, metadata !1989, metadata !DIExpression()), !dbg !1993
  %_47 = bitcast i8* %ptr to {}*, !dbg !1993
  %ptr11 = bitcast {}* %_47 to %"std::io::error::SimpleMessage"*, !dbg !1988
  store %"std::io::error::SimpleMessage"* %ptr11, %"std::io::error::SimpleMessage"** %ptr.dbg.spill12, align 8, !dbg !1988
  call void @llvm.dbg.declare(metadata %"std::io::error::SimpleMessage"** %ptr.dbg.spill12, metadata !1995, metadata !DIExpression()), !dbg !2001
  %8 = bitcast i64** %self1 to %"std::io::error::SimpleMessage"**, !dbg !2001
  store %"std::io::error::SimpleMessage"* %ptr11, %"std::io::error::SimpleMessage"** %8, align 8, !dbg !2001
  %9 = bitcast i64** %self1 to %"std::io::error::SimpleMessage"**, !dbg !1950
  %_51 = load %"std::io::error::SimpleMessage"*, %"std::io::error::SimpleMessage"** %9, align 8, !dbg !1950
  %10 = bitcast %"std::io::error::ErrorData<alloc::boxed::Box<std::io::error::Custom>>"* %0 to %"std::io::error::ErrorData<alloc::boxed::Box<std::io::error::Custom>>::SimpleMessage"*, !dbg !2003
  %11 = getelementptr inbounds %"std::io::error::ErrorData<alloc::boxed::Box<std::io::error::Custom>>::SimpleMessage", %"std::io::error::ErrorData<alloc::boxed::Box<std::io::error::Custom>>::SimpleMessage"* %10, i32 0, i32 1, !dbg !2003
  store %"std::io::error::SimpleMessage"* %_51, %"std::io::error::SimpleMessage"** %11, align 8, !dbg !2003
  %12 = bitcast %"std::io::error::ErrorData<alloc::boxed::Box<std::io::error::Custom>>"* %0 to i8*, !dbg !2003
  store i8 2, i8* %12, align 8, !dbg !2003
  br label %bb8, !dbg !2004

bb6:                                              ; preds = %bb14
  store i8* %ptr, i8** %self.dbg.spill3, align 8, !dbg !2005
  call void @llvm.dbg.declare(metadata i8** %self.dbg.spill3, metadata !2006, metadata !DIExpression()), !dbg !2010
  %_52 = bitcast i8* %ptr to {}*, !dbg !2010
  store {}* %_52, {}** %self.dbg.spill4, align 8, !dbg !2010
  call void @llvm.dbg.declare(metadata {}** %self.dbg.spill4, metadata !2011, metadata !DIExpression()), !dbg !2019
  %self5 = bitcast {}* %_52 to i8*, !dbg !2019
  store i8* %self5, i8** %self.dbg.spill6, align 8, !dbg !2019
  call void @llvm.dbg.declare(metadata i8** %self.dbg.spill6, metadata !2020, metadata !DIExpression()), !dbg !2025
  store i8* %self5, i8** %self.dbg.spill7, align 8, !dbg !2025
  call void @llvm.dbg.declare(metadata i8** %self.dbg.spill7, metadata !2026, metadata !DIExpression()), !dbg !2031
  %13 = getelementptr i8, i8* %self5, i64 -1, !dbg !2031
  store i8* %13, i8** %1, align 8, !dbg !2031
  %_60 = load i8*, i8** %1, align 8, !dbg !2031
  br label %bb20, !dbg !2031

bb13:                                             ; preds = %cleanup
  %14 = load i8, i8* %_37, align 1, !dbg !2033, !range !512, !noundef !23
  %15 = trunc i8 %14 to i1, !dbg !2033
  br i1 %15, label %bb12, label %bb10, !dbg !2033

cleanup:                                          ; preds = %bb15, %bb3, %bb20, %bb1
  %16 = landingpad { i8*, i32 }
          cleanup
  %17 = extractvalue { i8*, i32 } %16, 0
  %18 = extractvalue { i8*, i32 } %16, 1
  %19 = getelementptr inbounds { i8*, i32 }, { i8*, i32 }* %2, i32 0, i32 0
  store i8* %17, i8** %19, align 8
  %20 = getelementptr inbounds { i8*, i32 }, { i8*, i32 }* %2, i32 0, i32 1
  store i32 %18, i32* %20, align 8
  br label %bb13

unreachable:                                      ; preds = %bb1
  unreachable

bb20:                                             ; preds = %bb6
  store i8* %_60, i8** %self.dbg.spill8, align 8, !dbg !2031
  call void @llvm.dbg.declare(metadata i8** %self.dbg.spill8, metadata !2034, metadata !DIExpression()), !dbg !2042
  %custom = bitcast i8* %_60 to %"std::io::error::Custom"*, !dbg !2042
  store %"std::io::error::Custom"* %custom, %"std::io::error::Custom"** %custom.dbg.spill, align 8, !dbg !2042
  call void @llvm.dbg.declare(metadata %"std::io::error::Custom"** %custom.dbg.spill, metadata !1897, metadata !DIExpression()), !dbg !2043
  store i8 0, i8* %_37, align 1, !dbg !2044
  %21 = bitcast i64** %_34 to %"std::io::error::Custom"**, !dbg !2044
  store %"std::io::error::Custom"* %custom, %"std::io::error::Custom"** %21, align 8, !dbg !2044
  %22 = load i64*, i64** %_34, align 8, !dbg !2044
  %23 = bitcast i64* %22 to %"std::io::error::Custom"*, !dbg !2044
; invoke <std::io::error::repr_bitpacked::Repr as core::ops::drop::Drop>::drop::{{closure}}
  %_32 = invoke align 8 %"std::io::error::Custom"* @"_ZN78_$LT$std..io..error..repr_bitpacked..Repr$u20$as$u20$core..ops..drop..Drop$GT$4drop28_$u7b$$u7b$closure$u7d$$u7d$17h216229d3035f3cdbE"(%"std::io::error::Custom"* %23)
          to label %bb7 unwind label %cleanup, !dbg !2044

bb7:                                              ; preds = %bb20
  %24 = bitcast %"std::io::error::ErrorData<alloc::boxed::Box<std::io::error::Custom>>"* %0 to %"std::io::error::ErrorData<alloc::boxed::Box<std::io::error::Custom>>::Custom"*, !dbg !2045
  %25 = getelementptr inbounds %"std::io::error::ErrorData<alloc::boxed::Box<std::io::error::Custom>>::Custom", %"std::io::error::ErrorData<alloc::boxed::Box<std::io::error::Custom>>::Custom"* %24, i32 0, i32 1, !dbg !2045
  store %"std::io::error::Custom"* %_32, %"std::io::error::Custom"** %25, align 8, !dbg !2045
  %26 = bitcast %"std::io::error::ErrorData<alloc::boxed::Box<std::io::error::Custom>>"* %0 to i8*, !dbg !2045
  store i8 3, i8* %26, align 8, !dbg !2045
  br label %bb8, !dbg !2046

bb8:                                              ; preds = %bb2, %bb19, %bb5, %bb7
  %27 = load i8, i8* %_37, align 1, !dbg !2033, !range !512, !noundef !23
  %28 = trunc i8 %27 to i1, !dbg !2033
  br i1 %28, label %bb11, label %bb9, !dbg !2033

bb4:                                              ; preds = %bb3
  store i8 %7, i8* %self, align 1, !dbg !1936
  store i64* %bits, i64** %f, align 8, !dbg !2047
  %29 = load i8, i8* %self, align 1, !dbg !1935, !range !1979, !noundef !23
  %30 = sub i8 %29, 41, !dbg !1935
  %31 = icmp eq i8 %30, 0, !dbg !1935
  %_40 = select i1 %31, i64 0, i64 1, !dbg !1935
  switch i64 %_40, label %bb16 [
    i64 0, label %bb15
    i64 1, label %bb17
  ], !dbg !1935

bb16:                                             ; preds = %bb4
  unreachable, !dbg !1935

bb15:                                             ; preds = %bb4
  %_42 = load i64*, i64** %f, align 8, !dbg !1935, !nonnull !23, !align !584, !noundef !23
; invoke std::io::error::repr_bitpacked::decode_repr::{{closure}}
  %32 = invoke i8 @"_ZN3std2io5error14repr_bitpacked11decode_repr28_$u7b$$u7b$closure$u7d$$u7d$17hc8e85d939c45a11bE"(i64* align 8 %_42)
          to label %bb18 unwind label %cleanup, !dbg !1935, !range !2048

bb17:                                             ; preds = %bb4
  %x = load i8, i8* %self, align 1, !dbg !1935, !range !2048, !noundef !23
  store i8 %x, i8* %x.dbg.spill, align 1, !dbg !1935
  call void @llvm.dbg.declare(metadata i8* %x.dbg.spill, metadata !1930, metadata !DIExpression()), !dbg !2049
  store i8 %x, i8* %kind, align 1, !dbg !2049
  br label %bb19, !dbg !1935

bb19:                                             ; preds = %bb18, %bb17
  %_21 = load i8, i8* %kind, align 1, !dbg !2050, !range !2048, !noundef !23
  %33 = bitcast %"std::io::error::ErrorData<alloc::boxed::Box<std::io::error::Custom>>"* %0 to %"std::io::error::ErrorData<alloc::boxed::Box<std::io::error::Custom>>::Simple"*, !dbg !2051
  %34 = getelementptr inbounds %"std::io::error::ErrorData<alloc::boxed::Box<std::io::error::Custom>>::Simple", %"std::io::error::ErrorData<alloc::boxed::Box<std::io::error::Custom>>::Simple"* %33, i32 0, i32 1, !dbg !2051
  store i8 %_21, i8* %34, align 1, !dbg !2051
  %35 = bitcast %"std::io::error::ErrorData<alloc::boxed::Box<std::io::error::Custom>>"* %0 to i8*, !dbg !2051
  store i8 1, i8* %35, align 8, !dbg !2051
  br label %bb8, !dbg !2052

bb18:                                             ; preds = %bb15
  store i8 %32, i8* %kind, align 1, !dbg !1935
  br label %bb19, !dbg !1935

bb10:                                             ; preds = %bb12, %bb13
  %36 = bitcast { i8*, i32 }* %2 to i8**, !dbg !2053
  %37 = load i8*, i8** %36, align 8, !dbg !2053
  %38 = getelementptr inbounds { i8*, i32 }, { i8*, i32 }* %2, i32 0, i32 1, !dbg !2053
  %39 = load i32, i32* %38, align 8, !dbg !2053
  %40 = insertvalue { i8*, i32 } undef, i8* %37, 0, !dbg !2053
  %41 = insertvalue { i8*, i32 } %40, i32 %39, 1, !dbg !2053
  resume { i8*, i32 } %41, !dbg !2053

bb12:                                             ; preds = %bb13
  br label %bb10, !dbg !2033

bb9:                                              ; preds = %bb11, %bb8
  ret void, !dbg !2054

bb11:                                             ; preds = %bb8
  br label %bb9, !dbg !2033
}

; std::io::error::repr_bitpacked::decode_repr::{{closure}}
; Function Attrs: inlinehint nonlazybind uwtable
define internal i8 @"_ZN3std2io5error14repr_bitpacked11decode_repr28_$u7b$$u7b$closure$u7d$$u7d$17hc8e85d939c45a11bE"(i64* align 8 %_1) unnamed_addr #0 !dbg !2055 {
start:
  %_unsafe_arg.dbg.spill = alloca %"core::fmt::UnsafeArg", align 1
  %_1.dbg.spill = alloca i64*, align 8
  store i64* %_1, i64** %_1.dbg.spill, align 8
  %0 = load i64*, i64** %_1.dbg.spill, align 8, !nonnull !23, !align !584, !noundef !23
  call void @llvm.dbg.declare(metadata i64** %_1.dbg.spill, metadata !2059, metadata !DIExpression(DW_OP_deref)), !dbg !2060
  call void @llvm.dbg.declare(metadata %"core::fmt::UnsafeArg"* %_unsafe_arg.dbg.spill, metadata !2061, metadata !DIExpression()), !dbg !2175
  unreachable, !dbg !2179
}

; std::io::error::repr_bitpacked::kind_from_prim
; Function Attrs: inlinehint nonlazybind uwtable
define internal i8 @_ZN3std2io5error14repr_bitpacked14kind_from_prim17h5c18ff44e4b611d2E(i32 %0) unnamed_addr #0 !dbg !2183 {
start:
  %v.dbg.spill40 = alloca i32*, align 8
  %v.dbg.spill39 = alloca i32*, align 8
  %v.dbg.spill38 = alloca i32*, align 8
  %v.dbg.spill37 = alloca i32*, align 8
  %v.dbg.spill36 = alloca i32*, align 8
  %v.dbg.spill35 = alloca i32*, align 8
  %v.dbg.spill34 = alloca i32*, align 8
  %v.dbg.spill33 = alloca i32*, align 8
  %v.dbg.spill32 = alloca i32*, align 8
  %v.dbg.spill31 = alloca i32*, align 8
  %v.dbg.spill30 = alloca i32*, align 8
  %v.dbg.spill29 = alloca i32*, align 8
  %v.dbg.spill28 = alloca i32*, align 8
  %v.dbg.spill27 = alloca i32*, align 8
  %v.dbg.spill26 = alloca i32*, align 8
  %v.dbg.spill25 = alloca i32*, align 8
  %v.dbg.spill24 = alloca i32*, align 8
  %v.dbg.spill23 = alloca i32*, align 8
  %v.dbg.spill22 = alloca i32*, align 8
  %v.dbg.spill21 = alloca i32*, align 8
  %v.dbg.spill20 = alloca i32*, align 8
  %v.dbg.spill19 = alloca i32*, align 8
  %v.dbg.spill18 = alloca i32*, align 8
  %v.dbg.spill17 = alloca i32*, align 8
  %v.dbg.spill16 = alloca i32*, align 8
  %v.dbg.spill15 = alloca i32*, align 8
  %v.dbg.spill14 = alloca i32*, align 8
  %v.dbg.spill13 = alloca i32*, align 8
  %v.dbg.spill12 = alloca i32*, align 8
  %v.dbg.spill11 = alloca i32*, align 8
  %v.dbg.spill10 = alloca i32*, align 8
  %v.dbg.spill9 = alloca i32*, align 8
  %v.dbg.spill8 = alloca i32*, align 8
  %v.dbg.spill7 = alloca i32*, align 8
  %v.dbg.spill6 = alloca i32*, align 8
  %v.dbg.spill5 = alloca i32*, align 8
  %v.dbg.spill4 = alloca i32*, align 8
  %v.dbg.spill3 = alloca i32*, align 8
  %v.dbg.spill2 = alloca i32*, align 8
  %v.dbg.spill1 = alloca i32*, align 8
  %v.dbg.spill = alloca i32*, align 8
  %1 = alloca i8, align 1
  %ek = alloca i32, align 4
  store i32 %0, i32* %ek, align 4
  call void @llvm.dbg.declare(metadata i32* %ek, metadata !2187, metadata !DIExpression()), !dbg !2312
  store i32* %ek, i32** %v.dbg.spill, align 8, !dbg !2313
  call void @llvm.dbg.declare(metadata i32** %v.dbg.spill, metadata !2190, metadata !DIExpression()), !dbg !2314
  %_5 = load i32, i32* %ek, align 4, !dbg !2313
  %_4 = icmp eq i32 %_5, 0, !dbg !2313
  br i1 %_4, label %bb1, label %bb2, !dbg !2313

bb2:                                              ; preds = %start
  store i32* %ek, i32** %v.dbg.spill1, align 8, !dbg !2313
  call void @llvm.dbg.declare(metadata i32** %v.dbg.spill1, metadata !2194, metadata !DIExpression()), !dbg !2315
  %_10 = load i32, i32* %ek, align 4, !dbg !2313
  %_9 = icmp eq i32 %_10, 1, !dbg !2313
  br i1 %_9, label %bb3, label %bb4, !dbg !2313

bb1:                                              ; preds = %start
  store i8 0, i8* %1, align 1, !dbg !2314
  br label %bb83, !dbg !2313

bb83:                                             ; preds = %bb82, %bb81, %bb79, %bb77, %bb75, %bb73, %bb71, %bb69, %bb67, %bb65, %bb63, %bb61, %bb59, %bb57, %bb55, %bb53, %bb51, %bb49, %bb47, %bb45, %bb43, %bb41, %bb39, %bb37, %bb35, %bb33, %bb31, %bb29, %bb27, %bb25, %bb23, %bb21, %bb19, %bb17, %bb15, %bb13, %bb11, %bb9, %bb7, %bb5, %bb3, %bb1
  %2 = load i8, i8* %1, align 1, !dbg !2316, !range !1979, !noundef !23
  ret i8 %2, !dbg !2316

bb4:                                              ; preds = %bb2
  store i32* %ek, i32** %v.dbg.spill2, align 8, !dbg !2313
  call void @llvm.dbg.declare(metadata i32** %v.dbg.spill2, metadata !2197, metadata !DIExpression()), !dbg !2317
  %_15 = load i32, i32* %ek, align 4, !dbg !2313
  %_14 = icmp eq i32 %_15, 2, !dbg !2313
  br i1 %_14, label %bb5, label %bb6, !dbg !2313

bb3:                                              ; preds = %bb2
  store i8 1, i8* %1, align 1, !dbg !2315
  br label %bb83, !dbg !2313

bb6:                                              ; preds = %bb4
  store i32* %ek, i32** %v.dbg.spill3, align 8, !dbg !2313
  call void @llvm.dbg.declare(metadata i32** %v.dbg.spill3, metadata !2200, metadata !DIExpression()), !dbg !2318
  %_20 = load i32, i32* %ek, align 4, !dbg !2313
  %_19 = icmp eq i32 %_20, 3, !dbg !2313
  br i1 %_19, label %bb7, label %bb8, !dbg !2313

bb5:                                              ; preds = %bb4
  store i8 2, i8* %1, align 1, !dbg !2317
  br label %bb83, !dbg !2313

bb8:                                              ; preds = %bb6
  store i32* %ek, i32** %v.dbg.spill4, align 8, !dbg !2313
  call void @llvm.dbg.declare(metadata i32** %v.dbg.spill4, metadata !2203, metadata !DIExpression()), !dbg !2319
  %_25 = load i32, i32* %ek, align 4, !dbg !2313
  %_24 = icmp eq i32 %_25, 4, !dbg !2313
  br i1 %_24, label %bb9, label %bb10, !dbg !2313

bb7:                                              ; preds = %bb6
  store i8 3, i8* %1, align 1, !dbg !2318
  br label %bb83, !dbg !2313

bb10:                                             ; preds = %bb8
  store i32* %ek, i32** %v.dbg.spill5, align 8, !dbg !2313
  call void @llvm.dbg.declare(metadata i32** %v.dbg.spill5, metadata !2206, metadata !DIExpression()), !dbg !2320
  %_30 = load i32, i32* %ek, align 4, !dbg !2313
  %_29 = icmp eq i32 %_30, 5, !dbg !2313
  br i1 %_29, label %bb11, label %bb12, !dbg !2313

bb9:                                              ; preds = %bb8
  store i8 4, i8* %1, align 1, !dbg !2319
  br label %bb83, !dbg !2313

bb12:                                             ; preds = %bb10
  store i32* %ek, i32** %v.dbg.spill6, align 8, !dbg !2313
  call void @llvm.dbg.declare(metadata i32** %v.dbg.spill6, metadata !2209, metadata !DIExpression()), !dbg !2321
  %_35 = load i32, i32* %ek, align 4, !dbg !2313
  %_34 = icmp eq i32 %_35, 6, !dbg !2313
  br i1 %_34, label %bb13, label %bb14, !dbg !2313

bb11:                                             ; preds = %bb10
  store i8 5, i8* %1, align 1, !dbg !2320
  br label %bb83, !dbg !2313

bb14:                                             ; preds = %bb12
  store i32* %ek, i32** %v.dbg.spill7, align 8, !dbg !2313
  call void @llvm.dbg.declare(metadata i32** %v.dbg.spill7, metadata !2212, metadata !DIExpression()), !dbg !2322
  %_40 = load i32, i32* %ek, align 4, !dbg !2313
  %_39 = icmp eq i32 %_40, 7, !dbg !2313
  br i1 %_39, label %bb15, label %bb16, !dbg !2313

bb13:                                             ; preds = %bb12
  store i8 6, i8* %1, align 1, !dbg !2321
  br label %bb83, !dbg !2313

bb16:                                             ; preds = %bb14
  store i32* %ek, i32** %v.dbg.spill8, align 8, !dbg !2313
  call void @llvm.dbg.declare(metadata i32** %v.dbg.spill8, metadata !2215, metadata !DIExpression()), !dbg !2323
  %_45 = load i32, i32* %ek, align 4, !dbg !2313
  %_44 = icmp eq i32 %_45, 8, !dbg !2313
  br i1 %_44, label %bb17, label %bb18, !dbg !2313

bb15:                                             ; preds = %bb14
  store i8 7, i8* %1, align 1, !dbg !2322
  br label %bb83, !dbg !2313

bb18:                                             ; preds = %bb16
  store i32* %ek, i32** %v.dbg.spill9, align 8, !dbg !2313
  call void @llvm.dbg.declare(metadata i32** %v.dbg.spill9, metadata !2218, metadata !DIExpression()), !dbg !2324
  %_50 = load i32, i32* %ek, align 4, !dbg !2313
  %_49 = icmp eq i32 %_50, 9, !dbg !2313
  br i1 %_49, label %bb19, label %bb20, !dbg !2313

bb17:                                             ; preds = %bb16
  store i8 8, i8* %1, align 1, !dbg !2323
  br label %bb83, !dbg !2313

bb20:                                             ; preds = %bb18
  store i32* %ek, i32** %v.dbg.spill10, align 8, !dbg !2313
  call void @llvm.dbg.declare(metadata i32** %v.dbg.spill10, metadata !2221, metadata !DIExpression()), !dbg !2325
  %_55 = load i32, i32* %ek, align 4, !dbg !2313
  %_54 = icmp eq i32 %_55, 10, !dbg !2313
  br i1 %_54, label %bb21, label %bb22, !dbg !2313

bb19:                                             ; preds = %bb18
  store i8 9, i8* %1, align 1, !dbg !2324
  br label %bb83, !dbg !2313

bb22:                                             ; preds = %bb20
  store i32* %ek, i32** %v.dbg.spill11, align 8, !dbg !2313
  call void @llvm.dbg.declare(metadata i32** %v.dbg.spill11, metadata !2224, metadata !DIExpression()), !dbg !2326
  %_60 = load i32, i32* %ek, align 4, !dbg !2313
  %_59 = icmp eq i32 %_60, 11, !dbg !2313
  br i1 %_59, label %bb23, label %bb24, !dbg !2313

bb21:                                             ; preds = %bb20
  store i8 10, i8* %1, align 1, !dbg !2325
  br label %bb83, !dbg !2313

bb24:                                             ; preds = %bb22
  store i32* %ek, i32** %v.dbg.spill12, align 8, !dbg !2313
  call void @llvm.dbg.declare(metadata i32** %v.dbg.spill12, metadata !2227, metadata !DIExpression()), !dbg !2327
  %_65 = load i32, i32* %ek, align 4, !dbg !2313
  %_64 = icmp eq i32 %_65, 12, !dbg !2313
  br i1 %_64, label %bb25, label %bb26, !dbg !2313

bb23:                                             ; preds = %bb22
  store i8 11, i8* %1, align 1, !dbg !2326
  br label %bb83, !dbg !2313

bb26:                                             ; preds = %bb24
  store i32* %ek, i32** %v.dbg.spill13, align 8, !dbg !2313
  call void @llvm.dbg.declare(metadata i32** %v.dbg.spill13, metadata !2230, metadata !DIExpression()), !dbg !2328
  %_70 = load i32, i32* %ek, align 4, !dbg !2313
  %_69 = icmp eq i32 %_70, 13, !dbg !2313
  br i1 %_69, label %bb27, label %bb28, !dbg !2313

bb25:                                             ; preds = %bb24
  store i8 12, i8* %1, align 1, !dbg !2327
  br label %bb83, !dbg !2313

bb28:                                             ; preds = %bb26
  store i32* %ek, i32** %v.dbg.spill14, align 8, !dbg !2313
  call void @llvm.dbg.declare(metadata i32** %v.dbg.spill14, metadata !2233, metadata !DIExpression()), !dbg !2329
  %_75 = load i32, i32* %ek, align 4, !dbg !2313
  %_74 = icmp eq i32 %_75, 14, !dbg !2313
  br i1 %_74, label %bb29, label %bb30, !dbg !2313

bb27:                                             ; preds = %bb26
  store i8 13, i8* %1, align 1, !dbg !2328
  br label %bb83, !dbg !2313

bb30:                                             ; preds = %bb28
  store i32* %ek, i32** %v.dbg.spill15, align 8, !dbg !2313
  call void @llvm.dbg.declare(metadata i32** %v.dbg.spill15, metadata !2236, metadata !DIExpression()), !dbg !2330
  %_80 = load i32, i32* %ek, align 4, !dbg !2313
  %_79 = icmp eq i32 %_80, 15, !dbg !2313
  br i1 %_79, label %bb31, label %bb32, !dbg !2313

bb29:                                             ; preds = %bb28
  store i8 14, i8* %1, align 1, !dbg !2329
  br label %bb83, !dbg !2313

bb32:                                             ; preds = %bb30
  store i32* %ek, i32** %v.dbg.spill16, align 8, !dbg !2313
  call void @llvm.dbg.declare(metadata i32** %v.dbg.spill16, metadata !2239, metadata !DIExpression()), !dbg !2331
  %_85 = load i32, i32* %ek, align 4, !dbg !2313
  %_84 = icmp eq i32 %_85, 16, !dbg !2313
  br i1 %_84, label %bb33, label %bb34, !dbg !2313

bb31:                                             ; preds = %bb30
  store i8 15, i8* %1, align 1, !dbg !2330
  br label %bb83, !dbg !2313

bb34:                                             ; preds = %bb32
  store i32* %ek, i32** %v.dbg.spill17, align 8, !dbg !2313
  call void @llvm.dbg.declare(metadata i32** %v.dbg.spill17, metadata !2242, metadata !DIExpression()), !dbg !2332
  %_90 = load i32, i32* %ek, align 4, !dbg !2313
  %_89 = icmp eq i32 %_90, 17, !dbg !2313
  br i1 %_89, label %bb35, label %bb36, !dbg !2313

bb33:                                             ; preds = %bb32
  store i8 16, i8* %1, align 1, !dbg !2331
  br label %bb83, !dbg !2313

bb36:                                             ; preds = %bb34
  store i32* %ek, i32** %v.dbg.spill18, align 8, !dbg !2313
  call void @llvm.dbg.declare(metadata i32** %v.dbg.spill18, metadata !2245, metadata !DIExpression()), !dbg !2333
  %_95 = load i32, i32* %ek, align 4, !dbg !2313
  %_94 = icmp eq i32 %_95, 18, !dbg !2313
  br i1 %_94, label %bb37, label %bb38, !dbg !2313

bb35:                                             ; preds = %bb34
  store i8 17, i8* %1, align 1, !dbg !2332
  br label %bb83, !dbg !2313

bb38:                                             ; preds = %bb36
  store i32* %ek, i32** %v.dbg.spill19, align 8, !dbg !2313
  call void @llvm.dbg.declare(metadata i32** %v.dbg.spill19, metadata !2248, metadata !DIExpression()), !dbg !2334
  %_100 = load i32, i32* %ek, align 4, !dbg !2313
  %_99 = icmp eq i32 %_100, 19, !dbg !2313
  br i1 %_99, label %bb39, label %bb40, !dbg !2313

bb37:                                             ; preds = %bb36
  store i8 18, i8* %1, align 1, !dbg !2333
  br label %bb83, !dbg !2313

bb40:                                             ; preds = %bb38
  store i32* %ek, i32** %v.dbg.spill20, align 8, !dbg !2313
  call void @llvm.dbg.declare(metadata i32** %v.dbg.spill20, metadata !2251, metadata !DIExpression()), !dbg !2335
  %_105 = load i32, i32* %ek, align 4, !dbg !2313
  %_104 = icmp eq i32 %_105, 20, !dbg !2313
  br i1 %_104, label %bb41, label %bb42, !dbg !2313

bb39:                                             ; preds = %bb38
  store i8 19, i8* %1, align 1, !dbg !2334
  br label %bb83, !dbg !2313

bb42:                                             ; preds = %bb40
  store i32* %ek, i32** %v.dbg.spill21, align 8, !dbg !2313
  call void @llvm.dbg.declare(metadata i32** %v.dbg.spill21, metadata !2254, metadata !DIExpression()), !dbg !2336
  %_110 = load i32, i32* %ek, align 4, !dbg !2313
  %_109 = icmp eq i32 %_110, 21, !dbg !2313
  br i1 %_109, label %bb43, label %bb44, !dbg !2313

bb41:                                             ; preds = %bb40
  store i8 20, i8* %1, align 1, !dbg !2335
  br label %bb83, !dbg !2313

bb44:                                             ; preds = %bb42
  store i32* %ek, i32** %v.dbg.spill22, align 8, !dbg !2313
  call void @llvm.dbg.declare(metadata i32** %v.dbg.spill22, metadata !2257, metadata !DIExpression()), !dbg !2337
  %_115 = load i32, i32* %ek, align 4, !dbg !2313
  %_114 = icmp eq i32 %_115, 22, !dbg !2313
  br i1 %_114, label %bb45, label %bb46, !dbg !2313

bb43:                                             ; preds = %bb42
  store i8 21, i8* %1, align 1, !dbg !2336
  br label %bb83, !dbg !2313

bb46:                                             ; preds = %bb44
  store i32* %ek, i32** %v.dbg.spill23, align 8, !dbg !2313
  call void @llvm.dbg.declare(metadata i32** %v.dbg.spill23, metadata !2260, metadata !DIExpression()), !dbg !2338
  %_120 = load i32, i32* %ek, align 4, !dbg !2313
  %_119 = icmp eq i32 %_120, 23, !dbg !2313
  br i1 %_119, label %bb47, label %bb48, !dbg !2313

bb45:                                             ; preds = %bb44
  store i8 22, i8* %1, align 1, !dbg !2337
  br label %bb83, !dbg !2313

bb48:                                             ; preds = %bb46
  store i32* %ek, i32** %v.dbg.spill24, align 8, !dbg !2313
  call void @llvm.dbg.declare(metadata i32** %v.dbg.spill24, metadata !2263, metadata !DIExpression()), !dbg !2339
  %_125 = load i32, i32* %ek, align 4, !dbg !2313
  %_124 = icmp eq i32 %_125, 24, !dbg !2313
  br i1 %_124, label %bb49, label %bb50, !dbg !2313

bb47:                                             ; preds = %bb46
  store i8 23, i8* %1, align 1, !dbg !2338
  br label %bb83, !dbg !2313

bb50:                                             ; preds = %bb48
  store i32* %ek, i32** %v.dbg.spill25, align 8, !dbg !2313
  call void @llvm.dbg.declare(metadata i32** %v.dbg.spill25, metadata !2266, metadata !DIExpression()), !dbg !2340
  %_130 = load i32, i32* %ek, align 4, !dbg !2313
  %_129 = icmp eq i32 %_130, 25, !dbg !2313
  br i1 %_129, label %bb51, label %bb52, !dbg !2313

bb49:                                             ; preds = %bb48
  store i8 24, i8* %1, align 1, !dbg !2339
  br label %bb83, !dbg !2313

bb52:                                             ; preds = %bb50
  store i32* %ek, i32** %v.dbg.spill26, align 8, !dbg !2313
  call void @llvm.dbg.declare(metadata i32** %v.dbg.spill26, metadata !2269, metadata !DIExpression()), !dbg !2341
  %_135 = load i32, i32* %ek, align 4, !dbg !2313
  %_134 = icmp eq i32 %_135, 26, !dbg !2313
  br i1 %_134, label %bb53, label %bb54, !dbg !2313

bb51:                                             ; preds = %bb50
  store i8 25, i8* %1, align 1, !dbg !2340
  br label %bb83, !dbg !2313

bb54:                                             ; preds = %bb52
  store i32* %ek, i32** %v.dbg.spill27, align 8, !dbg !2313
  call void @llvm.dbg.declare(metadata i32** %v.dbg.spill27, metadata !2272, metadata !DIExpression()), !dbg !2342
  %_140 = load i32, i32* %ek, align 4, !dbg !2313
  %_139 = icmp eq i32 %_140, 27, !dbg !2313
  br i1 %_139, label %bb55, label %bb56, !dbg !2313

bb53:                                             ; preds = %bb52
  store i8 26, i8* %1, align 1, !dbg !2341
  br label %bb83, !dbg !2313

bb56:                                             ; preds = %bb54
  store i32* %ek, i32** %v.dbg.spill28, align 8, !dbg !2313
  call void @llvm.dbg.declare(metadata i32** %v.dbg.spill28, metadata !2275, metadata !DIExpression()), !dbg !2343
  %_145 = load i32, i32* %ek, align 4, !dbg !2313
  %_144 = icmp eq i32 %_145, 28, !dbg !2313
  br i1 %_144, label %bb57, label %bb58, !dbg !2313

bb55:                                             ; preds = %bb54
  store i8 27, i8* %1, align 1, !dbg !2342
  br label %bb83, !dbg !2313

bb58:                                             ; preds = %bb56
  store i32* %ek, i32** %v.dbg.spill29, align 8, !dbg !2313
  call void @llvm.dbg.declare(metadata i32** %v.dbg.spill29, metadata !2278, metadata !DIExpression()), !dbg !2344
  %_150 = load i32, i32* %ek, align 4, !dbg !2313
  %_149 = icmp eq i32 %_150, 29, !dbg !2313
  br i1 %_149, label %bb59, label %bb60, !dbg !2313

bb57:                                             ; preds = %bb56
  store i8 28, i8* %1, align 1, !dbg !2343
  br label %bb83, !dbg !2313

bb60:                                             ; preds = %bb58
  store i32* %ek, i32** %v.dbg.spill30, align 8, !dbg !2313
  call void @llvm.dbg.declare(metadata i32** %v.dbg.spill30, metadata !2281, metadata !DIExpression()), !dbg !2345
  %_155 = load i32, i32* %ek, align 4, !dbg !2313
  %_154 = icmp eq i32 %_155, 30, !dbg !2313
  br i1 %_154, label %bb61, label %bb62, !dbg !2313

bb59:                                             ; preds = %bb58
  store i8 29, i8* %1, align 1, !dbg !2344
  br label %bb83, !dbg !2313

bb62:                                             ; preds = %bb60
  store i32* %ek, i32** %v.dbg.spill31, align 8, !dbg !2313
  call void @llvm.dbg.declare(metadata i32** %v.dbg.spill31, metadata !2284, metadata !DIExpression()), !dbg !2346
  %_160 = load i32, i32* %ek, align 4, !dbg !2313
  %_159 = icmp eq i32 %_160, 31, !dbg !2313
  br i1 %_159, label %bb63, label %bb64, !dbg !2313

bb61:                                             ; preds = %bb60
  store i8 30, i8* %1, align 1, !dbg !2345
  br label %bb83, !dbg !2313

bb64:                                             ; preds = %bb62
  store i32* %ek, i32** %v.dbg.spill32, align 8, !dbg !2313
  call void @llvm.dbg.declare(metadata i32** %v.dbg.spill32, metadata !2287, metadata !DIExpression()), !dbg !2347
  %_165 = load i32, i32* %ek, align 4, !dbg !2313
  %_164 = icmp eq i32 %_165, 32, !dbg !2313
  br i1 %_164, label %bb65, label %bb66, !dbg !2313

bb63:                                             ; preds = %bb62
  store i8 31, i8* %1, align 1, !dbg !2346
  br label %bb83, !dbg !2313

bb66:                                             ; preds = %bb64
  store i32* %ek, i32** %v.dbg.spill33, align 8, !dbg !2313
  call void @llvm.dbg.declare(metadata i32** %v.dbg.spill33, metadata !2290, metadata !DIExpression()), !dbg !2348
  %_170 = load i32, i32* %ek, align 4, !dbg !2313
  %_169 = icmp eq i32 %_170, 33, !dbg !2313
  br i1 %_169, label %bb67, label %bb68, !dbg !2313

bb65:                                             ; preds = %bb64
  store i8 32, i8* %1, align 1, !dbg !2347
  br label %bb83, !dbg !2313

bb68:                                             ; preds = %bb66
  store i32* %ek, i32** %v.dbg.spill34, align 8, !dbg !2313
  call void @llvm.dbg.declare(metadata i32** %v.dbg.spill34, metadata !2293, metadata !DIExpression()), !dbg !2349
  %_175 = load i32, i32* %ek, align 4, !dbg !2313
  %_174 = icmp eq i32 %_175, 34, !dbg !2313
  br i1 %_174, label %bb69, label %bb70, !dbg !2313

bb67:                                             ; preds = %bb66
  store i8 33, i8* %1, align 1, !dbg !2348
  br label %bb83, !dbg !2313

bb70:                                             ; preds = %bb68
  store i32* %ek, i32** %v.dbg.spill35, align 8, !dbg !2313
  call void @llvm.dbg.declare(metadata i32** %v.dbg.spill35, metadata !2296, metadata !DIExpression()), !dbg !2350
  %_180 = load i32, i32* %ek, align 4, !dbg !2313
  %_179 = icmp eq i32 %_180, 35, !dbg !2313
  br i1 %_179, label %bb71, label %bb72, !dbg !2313

bb69:                                             ; preds = %bb68
  store i8 34, i8* %1, align 1, !dbg !2349
  br label %bb83, !dbg !2313

bb72:                                             ; preds = %bb70
  store i32* %ek, i32** %v.dbg.spill36, align 8, !dbg !2313
  call void @llvm.dbg.declare(metadata i32** %v.dbg.spill36, metadata !2299, metadata !DIExpression()), !dbg !2351
  %_185 = load i32, i32* %ek, align 4, !dbg !2313
  %_184 = icmp eq i32 %_185, 39, !dbg !2313
  br i1 %_184, label %bb73, label %bb74, !dbg !2313

bb71:                                             ; preds = %bb70
  store i8 35, i8* %1, align 1, !dbg !2350
  br label %bb83, !dbg !2313

bb74:                                             ; preds = %bb72
  store i32* %ek, i32** %v.dbg.spill37, align 8, !dbg !2313
  call void @llvm.dbg.declare(metadata i32** %v.dbg.spill37, metadata !2302, metadata !DIExpression()), !dbg !2352
  %_190 = load i32, i32* %ek, align 4, !dbg !2313
  %_189 = icmp eq i32 %_190, 37, !dbg !2313
  br i1 %_189, label %bb75, label %bb76, !dbg !2313

bb73:                                             ; preds = %bb72
  store i8 39, i8* %1, align 1, !dbg !2351
  br label %bb83, !dbg !2313

bb76:                                             ; preds = %bb74
  store i32* %ek, i32** %v.dbg.spill38, align 8, !dbg !2313
  call void @llvm.dbg.declare(metadata i32** %v.dbg.spill38, metadata !2305, metadata !DIExpression()), !dbg !2353
  %_195 = load i32, i32* %ek, align 4, !dbg !2313
  %_194 = icmp eq i32 %_195, 36, !dbg !2313
  br i1 %_194, label %bb77, label %bb78, !dbg !2313

bb75:                                             ; preds = %bb74
  store i8 37, i8* %1, align 1, !dbg !2352
  br label %bb83, !dbg !2313

bb78:                                             ; preds = %bb76
  store i32* %ek, i32** %v.dbg.spill39, align 8, !dbg !2313
  call void @llvm.dbg.declare(metadata i32** %v.dbg.spill39, metadata !2308, metadata !DIExpression()), !dbg !2354
  %_200 = load i32, i32* %ek, align 4, !dbg !2313
  %_199 = icmp eq i32 %_200, 38, !dbg !2313
  br i1 %_199, label %bb79, label %bb80, !dbg !2313

bb77:                                             ; preds = %bb76
  store i8 36, i8* %1, align 1, !dbg !2353
  br label %bb83, !dbg !2313

bb80:                                             ; preds = %bb78
  store i32* %ek, i32** %v.dbg.spill40, align 8, !dbg !2313
  call void @llvm.dbg.declare(metadata i32** %v.dbg.spill40, metadata !2311, metadata !DIExpression()), !dbg !2355
  %_205 = load i32, i32* %ek, align 4, !dbg !2313
  %_204 = icmp eq i32 %_205, 40, !dbg !2313
  br i1 %_204, label %bb81, label %bb82, !dbg !2313

bb79:                                             ; preds = %bb78
  store i8 38, i8* %1, align 1, !dbg !2354
  br label %bb83, !dbg !2313

bb82:                                             ; preds = %bb80
  store i8 41, i8* %1, align 1, !dbg !2313
  br label %bb83, !dbg !2313

bb81:                                             ; preds = %bb80
  store i8 40, i8* %1, align 1, !dbg !2355
  br label %bb83, !dbg !2313
}

; std::rt::lang_start
; Function Attrs: nonlazybind uwtable
define hidden i64 @_ZN3std2rt10lang_start17h29b804ca370f3f45E(void ()* %main, i64 %argc, i8** %argv) unnamed_addr #1 !dbg !2356 {
start:
  %v.dbg.spill = alloca i64, align 8
  %argv.dbg.spill = alloca i8**, align 8
  %argc.dbg.spill = alloca i64, align 8
  %main.dbg.spill = alloca void ()*, align 8
  %_8 = alloca i64*, align 8
  %_4 = alloca i64, align 8
  store void ()* %main, void ()** %main.dbg.spill, align 8
  call void @llvm.dbg.declare(metadata void ()** %main.dbg.spill, metadata !2362, metadata !DIExpression()), !dbg !2367
  store i64 %argc, i64* %argc.dbg.spill, align 8
  call void @llvm.dbg.declare(metadata i64* %argc.dbg.spill, metadata !2363, metadata !DIExpression()), !dbg !2368
  store i8** %argv, i8*** %argv.dbg.spill, align 8
  call void @llvm.dbg.declare(metadata i8*** %argv.dbg.spill, metadata !2364, metadata !DIExpression()), !dbg !2369
  %0 = bitcast i64** %_8 to void ()**, !dbg !2370
  store void ()* %main, void ()** %0, align 8, !dbg !2370
  %_5.0 = bitcast i64** %_8 to {}*, !dbg !2371
; call std::rt::lang_start_internal
  %1 = call i64 @_ZN3std2rt19lang_start_internal17h498f9556b87c8e5fE({}* align 1 %_5.0, [3 x i64]* align 8 bitcast (<{ i8*, [16 x i8], i8*, i8*, i8* }>* @vtable.0 to [3 x i64]*), i64 %argc, i8** %argv), !dbg !2372
  store i64 %1, i64* %_4, align 8, !dbg !2372
  br label %bb1, !dbg !2372

bb1:                                              ; preds = %start
  %v = load i64, i64* %_4, align 8, !dbg !2373
  store i64 %v, i64* %v.dbg.spill, align 8, !dbg !2373
  call void @llvm.dbg.declare(metadata i64* %v.dbg.spill, metadata !2365, metadata !DIExpression()), !dbg !2374
  ret i64 %v, !dbg !2375
}

; std::rt::lang_start::{{closure}}
; Function Attrs: inlinehint nonlazybind uwtable
define internal i32 @"_ZN3std2rt10lang_start28_$u7b$$u7b$closure$u7d$$u7d$17ha250cad3a78ce847E"(i64** align 8 %_1) unnamed_addr #0 !dbg !2376 {
start:
  %self.dbg.spill = alloca i8*, align 8
  %_1.dbg.spill = alloca i64**, align 8
  %self = alloca i8, align 1
  store i64** %_1, i64*** %_1.dbg.spill, align 8
  %0 = load i64**, i64*** %_1.dbg.spill, align 8, !nonnull !23, !align !584, !noundef !23
  %1 = bitcast i64** %0 to void ()**
  call void @llvm.dbg.declare(metadata i64*** %_1.dbg.spill, metadata !2381, metadata !DIExpression(DW_OP_deref)), !dbg !2382
  call void @llvm.dbg.declare(metadata i8* %self, metadata !2383, metadata !DIExpression()), !dbg !2399
  %2 = bitcast i64** %_1 to void ()**, !dbg !2401
  %_4 = load void ()*, void ()** %2, align 8, !dbg !2401, !nonnull !23, !noundef !23
; call std::sys_common::backtrace::__rust_begin_short_backtrace
  call void @_ZN3std10sys_common9backtrace28__rust_begin_short_backtrace17h2a99f7a5eba12a9bE(void ()* %_4), !dbg !2400
  br label %bb1, !dbg !2400

bb1:                                              ; preds = %start
; call <() as std::process::Termination>::report
  %3 = call i8 @"_ZN54_$LT$$LP$$RP$$u20$as$u20$std..process..Termination$GT$6report17h9670bdbbde5b6d51E"(), !dbg !2400
  store i8 %3, i8* %self, align 1, !dbg !2400
  br label %bb2, !dbg !2400

bb2:                                              ; preds = %bb1
  store i8* %self, i8** %self.dbg.spill, align 8, !dbg !2399
  call void @llvm.dbg.declare(metadata i8** %self.dbg.spill, metadata !2402, metadata !DIExpression()), !dbg !2410
  %_6 = load i8, i8* %self, align 1, !dbg !2410
  %4 = zext i8 %_6 to i32, !dbg !2410
  ret i32 %4, !dbg !2412
}

; std::env::var
; Function Attrs: nonlazybind uwtable
define internal void @_ZN3std3env3var17h2dff9daebbbe2e5bE(%"core::result::Result<alloc::string::String, std::env::VarError>"* sret(%"core::result::Result<alloc::string::String, std::env::VarError>") %0, [0 x i8]* align 1 %1, i64 %2) unnamed_addr #1 personality i32 (i32, i32, i64, %"unwind::libunwind::_Unwind_Exception"*, %"unwind::libunwind::_Unwind_Context"*)* @rust_eh_personality !dbg !2413 {
start:
  %3 = alloca { i8*, i32 }, align 8
  %key = alloca { [0 x i8]*, i64 }, align 8
  %4 = getelementptr inbounds { [0 x i8]*, i64 }, { [0 x i8]*, i64 }* %key, i32 0, i32 0
  store [0 x i8]* %1, [0 x i8]** %4, align 8
  %5 = getelementptr inbounds { [0 x i8]*, i64 }, { [0 x i8]*, i64 }* %key, i32 0, i32 1
  store i64 %2, i64* %5, align 8
  call void @llvm.dbg.declare(metadata { [0 x i8]*, i64 }* %key, metadata !2446, metadata !DIExpression()), !dbg !2449
; invoke <&T as core::convert::AsRef<U>>::as_ref
  %6 = invoke { %"std::ffi::os_str::OsStr"*, i64 } @"_ZN55_$LT$$RF$T$u20$as$u20$core..convert..AsRef$LT$U$GT$$GT$6as_ref17h8095b91f3bd8cf5dE"({ [0 x i8]*, i64 }* align 8 %key)
          to label %bb1 unwind label %cleanup, !dbg !2450

bb4:                                              ; preds = %cleanup
  br label %bb5, !dbg !2451

cleanup:                                          ; preds = %bb1, %start
  %7 = landingpad { i8*, i32 }
          cleanup
  %8 = extractvalue { i8*, i32 } %7, 0
  %9 = extractvalue { i8*, i32 } %7, 1
  %10 = getelementptr inbounds { i8*, i32 }, { i8*, i32 }* %3, i32 0, i32 0
  store i8* %8, i8** %10, align 8
  %11 = getelementptr inbounds { i8*, i32 }, { i8*, i32 }* %3, i32 0, i32 1
  store i32 %9, i32* %11, align 8
  br label %bb4

bb1:                                              ; preds = %start
  %_3.0 = extractvalue { %"std::ffi::os_str::OsStr"*, i64 } %6, 0, !dbg !2450
  %_3.1 = extractvalue { %"std::ffi::os_str::OsStr"*, i64 } %6, 1, !dbg !2450
; invoke std::env::_var
  invoke void @_ZN3std3env4_var17h48effbaa8b2613b5E(%"core::result::Result<alloc::string::String, std::env::VarError>"* sret(%"core::result::Result<alloc::string::String, std::env::VarError>") %0, %"std::ffi::os_str::OsStr"* align 1 %_3.0, i64 %_3.1)
          to label %bb2 unwind label %cleanup, !dbg !2452

bb2:                                              ; preds = %bb1
  br label %bb3, !dbg !2451

bb5:                                              ; preds = %bb4
  %12 = bitcast { i8*, i32 }* %3 to i8**, !dbg !2453
  %13 = load i8*, i8** %12, align 8, !dbg !2453
  %14 = getelementptr inbounds { i8*, i32 }, { i8*, i32 }* %3, i32 0, i32 1, !dbg !2453
  %15 = load i32, i32* %14, align 8, !dbg !2453
  %16 = insertvalue { i8*, i32 } undef, i8* %13, 0, !dbg !2453
  %17 = insertvalue { i8*, i32 } %16, i32 %15, 1, !dbg !2453
  resume { i8*, i32 } %17, !dbg !2453

bb3:                                              ; preds = %bb2
  ret void, !dbg !2454
}

; std::env::var_os
; Function Attrs: nonlazybind uwtable
define internal void @_ZN3std3env6var_os17h9497c5a252de7612E(%"core::option::Option<std::ffi::os_str::OsString>"* sret(%"core::option::Option<std::ffi::os_str::OsString>") %0, [0 x i8]* align 1 %1, i64 %2) unnamed_addr #1 personality i32 (i32, i32, i64, %"unwind::libunwind::_Unwind_Exception"*, %"unwind::libunwind::_Unwind_Context"*)* @rust_eh_personality !dbg !2455 {
start:
  %3 = alloca { i8*, i32 }, align 8
  %key = alloca { [0 x i8]*, i64 }, align 8
  %4 = getelementptr inbounds { [0 x i8]*, i64 }, { [0 x i8]*, i64 }* %key, i32 0, i32 0
  store [0 x i8]* %1, [0 x i8]** %4, align 8
  %5 = getelementptr inbounds { [0 x i8]*, i64 }, { [0 x i8]*, i64 }* %key, i32 0, i32 1
  store i64 %2, i64* %5, align 8
  call void @llvm.dbg.declare(metadata { [0 x i8]*, i64 }* %key, metadata !2459, metadata !DIExpression()), !dbg !2460
; invoke <&T as core::convert::AsRef<U>>::as_ref
  %6 = invoke { %"std::ffi::os_str::OsStr"*, i64 } @"_ZN55_$LT$$RF$T$u20$as$u20$core..convert..AsRef$LT$U$GT$$GT$6as_ref17h8095b91f3bd8cf5dE"({ [0 x i8]*, i64 }* align 8 %key)
          to label %bb1 unwind label %cleanup, !dbg !2461

bb4:                                              ; preds = %cleanup
  br label %bb5, !dbg !2462

cleanup:                                          ; preds = %bb1, %start
  %7 = landingpad { i8*, i32 }
          cleanup
  %8 = extractvalue { i8*, i32 } %7, 0
  %9 = extractvalue { i8*, i32 } %7, 1
  %10 = getelementptr inbounds { i8*, i32 }, { i8*, i32 }* %3, i32 0, i32 0
  store i8* %8, i8** %10, align 8
  %11 = getelementptr inbounds { i8*, i32 }, { i8*, i32 }* %3, i32 0, i32 1
  store i32 %9, i32* %11, align 8
  br label %bb4

bb1:                                              ; preds = %start
  %_3.0 = extractvalue { %"std::ffi::os_str::OsStr"*, i64 } %6, 0, !dbg !2461
  %_3.1 = extractvalue { %"std::ffi::os_str::OsStr"*, i64 } %6, 1, !dbg !2461
; invoke std::env::_var_os
  invoke void @_ZN3std3env7_var_os17h2f2f6465d9e6a0ebE(%"core::option::Option<std::ffi::os_str::OsString>"* sret(%"core::option::Option<std::ffi::os_str::OsString>") %0, %"std::ffi::os_str::OsStr"* align 1 %_3.0, i64 %_3.1)
          to label %bb2 unwind label %cleanup, !dbg !2463

bb2:                                              ; preds = %bb1
  br label %bb3, !dbg !2462

bb5:                                              ; preds = %bb4
  %12 = bitcast { i8*, i32 }* %3 to i8**, !dbg !2464
  %13 = load i8*, i8** %12, align 8, !dbg !2464
  %14 = getelementptr inbounds { i8*, i32 }, { i8*, i32 }* %3, i32 0, i32 1, !dbg !2464
  %15 = load i32, i32* %14, align 8, !dbg !2464
  %16 = insertvalue { i8*, i32 } undef, i8* %13, 0, !dbg !2464
  %17 = insertvalue { i8*, i32 } %16, i32 %15, 1, !dbg !2464
  resume { i8*, i32 } %17, !dbg !2464

bb3:                                              ; preds = %bb2
  ret void, !dbg !2465
}

; std::ffi::os_str::OsStr::is_empty
; Function Attrs: inlinehint nonlazybind uwtable
define internal zeroext i1 @_ZN3std3ffi6os_str5OsStr8is_empty17h6fb2cce940f29d11E(%"std::ffi::os_str::OsStr"* align 1 %self.0, i64 %self.1) unnamed_addr #0 !dbg !2466 {
start:
  %self.dbg.spill2 = alloca { [0 x i8]*, i64 }, align 8
  %self.dbg.spill = alloca { %"std::ffi::os_str::OsStr"*, i64 }, align 8
  %0 = getelementptr inbounds { %"std::ffi::os_str::OsStr"*, i64 }, { %"std::ffi::os_str::OsStr"*, i64 }* %self.dbg.spill, i32 0, i32 0
  store %"std::ffi::os_str::OsStr"* %self.0, %"std::ffi::os_str::OsStr"** %0, align 8
  %1 = getelementptr inbounds { %"std::ffi::os_str::OsStr"*, i64 }, { %"std::ffi::os_str::OsStr"*, i64 }* %self.dbg.spill, i32 0, i32 1
  store i64 %self.1, i64* %1, align 8
  call void @llvm.dbg.declare(metadata { %"std::ffi::os_str::OsStr"*, i64 }* %self.dbg.spill, metadata !2482, metadata !DIExpression()), !dbg !2483
  %2 = mul nsw i64 %self.1, 1, !dbg !2484
  %3 = add i64 0, %2, !dbg !2484
  %4 = add i64 %3, 0, !dbg !2484
  %5 = and i64 %4, -1, !dbg !2484
  %6 = bitcast %"std::ffi::os_str::OsStr"* %self.0 to i8*, !dbg !2484
  %7 = getelementptr i8, i8* %6, i64 0, !dbg !2484
  %8 = bitcast i8* %7 to %"std::sys::unix::os_str::Slice"*, !dbg !2484
  %self.01 = bitcast %"std::sys::unix::os_str::Slice"* %8 to [0 x i8]*, !dbg !2484
  %9 = getelementptr inbounds { [0 x i8]*, i64 }, { [0 x i8]*, i64 }* %self.dbg.spill2, i32 0, i32 0, !dbg !2484
  store [0 x i8]* %self.01, [0 x i8]** %9, align 8, !dbg !2484
  %10 = getelementptr inbounds { [0 x i8]*, i64 }, { [0 x i8]*, i64 }* %self.dbg.spill2, i32 0, i32 1, !dbg !2484
  store i64 %self.1, i64* %10, align 8, !dbg !2484
  call void @llvm.dbg.declare(metadata { [0 x i8]*, i64 }* %self.dbg.spill2, metadata !2485, metadata !DIExpression()), !dbg !2493
  %11 = icmp eq i64 %self.1, 0, !dbg !2493
  ret i1 %11, !dbg !2494
}

; std::ffi::os_str::<impl core::convert::AsRef<std::ffi::os_str::OsStr> for str>::as_ref
; Function Attrs: inlinehint nonlazybind uwtable
define internal { %"std::ffi::os_str::OsStr"*, i64 } @"_ZN3std3ffi6os_str85_$LT$impl$u20$core..convert..AsRef$LT$std..ffi..os_str..OsStr$GT$$u20$for$u20$str$GT$6as_ref17h710673d6632e9c0eE"([0 x i8]* align 1 %self.0, i64 %self.1) unnamed_addr #0 !dbg !2495 {
start:
  %inner.dbg.spill = alloca { %"std::sys::unix::os_str::Slice"*, i64 }, align 8
  %0 = alloca { %"std::sys::unix::os_str::Slice"*, i64 }, align 8
  %s.dbg.spill2 = alloca { [0 x i8]*, i64 }, align 8
  %1 = alloca { [0 x i8]*, i64 }, align 8
  %self.dbg.spill1 = alloca { [0 x i8]*, i64 }, align 8
  %s.dbg.spill = alloca { [0 x i8]*, i64 }, align 8
  %self.dbg.spill = alloca { [0 x i8]*, i64 }, align 8
  %2 = getelementptr inbounds { [0 x i8]*, i64 }, { [0 x i8]*, i64 }* %self.dbg.spill, i32 0, i32 0
  store [0 x i8]* %self.0, [0 x i8]** %2, align 8
  %3 = getelementptr inbounds { [0 x i8]*, i64 }, { [0 x i8]*, i64 }* %self.dbg.spill, i32 0, i32 1
  store i64 %self.1, i64* %3, align 8
  call void @llvm.dbg.declare(metadata { [0 x i8]*, i64 }* %self.dbg.spill, metadata !2500, metadata !DIExpression()), !dbg !2501
  %4 = getelementptr inbounds { [0 x i8]*, i64 }, { [0 x i8]*, i64 }* %s.dbg.spill, i32 0, i32 0, !dbg !2502
  store [0 x i8]* %self.0, [0 x i8]** %4, align 8, !dbg !2502
  %5 = getelementptr inbounds { [0 x i8]*, i64 }, { [0 x i8]*, i64 }* %s.dbg.spill, i32 0, i32 1, !dbg !2502
  store i64 %self.1, i64* %5, align 8, !dbg !2502
  call void @llvm.dbg.declare(metadata { [0 x i8]*, i64 }* %s.dbg.spill, metadata !2503, metadata !DIExpression()), !dbg !2515
  %6 = getelementptr inbounds { [0 x i8]*, i64 }, { [0 x i8]*, i64 }* %self.dbg.spill1, i32 0, i32 0, !dbg !2515
  store [0 x i8]* %self.0, [0 x i8]** %6, align 8, !dbg !2515
  %7 = getelementptr inbounds { [0 x i8]*, i64 }, { [0 x i8]*, i64 }* %self.dbg.spill1, i32 0, i32 1, !dbg !2515
  store i64 %self.1, i64* %7, align 8, !dbg !2515
  call void @llvm.dbg.declare(metadata { [0 x i8]*, i64 }* %self.dbg.spill1, metadata !2517, metadata !DIExpression()), !dbg !2524
  %8 = getelementptr inbounds { [0 x i8]*, i64 }, { [0 x i8]*, i64 }* %1, i32 0, i32 0, !dbg !2524
  store [0 x i8]* %self.0, [0 x i8]** %8, align 8, !dbg !2524
  %9 = getelementptr inbounds { [0 x i8]*, i64 }, { [0 x i8]*, i64 }* %1, i32 0, i32 1, !dbg !2524
  store i64 %self.1, i64* %9, align 8, !dbg !2524
  %10 = getelementptr inbounds { [0 x i8]*, i64 }, { [0 x i8]*, i64 }* %1, i32 0, i32 0, !dbg !2524
  %_6.0 = load [0 x i8]*, [0 x i8]** %10, align 8, !dbg !2524, !nonnull !23, !align !445, !noundef !23
  %11 = getelementptr inbounds { [0 x i8]*, i64 }, { [0 x i8]*, i64 }* %1, i32 0, i32 1, !dbg !2524
  %_6.1 = load i64, i64* %11, align 8, !dbg !2524
  br label %bb1, !dbg !2524

bb1:                                              ; preds = %start
  %12 = getelementptr inbounds { [0 x i8]*, i64 }, { [0 x i8]*, i64 }* %s.dbg.spill2, i32 0, i32 0, !dbg !2515
  store [0 x i8]* %_6.0, [0 x i8]** %12, align 8, !dbg !2515
  %13 = getelementptr inbounds { [0 x i8]*, i64 }, { [0 x i8]*, i64 }* %s.dbg.spill2, i32 0, i32 1, !dbg !2515
  store i64 %_6.1, i64* %13, align 8, !dbg !2515
  call void @llvm.dbg.declare(metadata { [0 x i8]*, i64 }* %s.dbg.spill2, metadata !2526, metadata !DIExpression()), !dbg !2532
  %14 = bitcast { %"std::sys::unix::os_str::Slice"*, i64 }* %0 to { [0 x i8]*, i64 }*, !dbg !2532
  %15 = getelementptr inbounds { [0 x i8]*, i64 }, { [0 x i8]*, i64 }* %14, i32 0, i32 0, !dbg !2532
  store [0 x i8]* %_6.0, [0 x i8]** %15, align 8, !dbg !2532
  %16 = getelementptr inbounds { [0 x i8]*, i64 }, { [0 x i8]*, i64 }* %14, i32 0, i32 1, !dbg !2532
  store i64 %_6.1, i64* %16, align 8, !dbg !2532
  %17 = getelementptr inbounds { %"std::sys::unix::os_str::Slice"*, i64 }, { %"std::sys::unix::os_str::Slice"*, i64 }* %0, i32 0, i32 0, !dbg !2532
  %_3.0 = load %"std::sys::unix::os_str::Slice"*, %"std::sys::unix::os_str::Slice"** %17, align 8, !dbg !2532, !nonnull !23, !align !445, !noundef !23
  %18 = getelementptr inbounds { %"std::sys::unix::os_str::Slice"*, i64 }, { %"std::sys::unix::os_str::Slice"*, i64 }* %0, i32 0, i32 1, !dbg !2532
  %_3.1 = load i64, i64* %18, align 8, !dbg !2532
  br label %bb2, !dbg !2532

bb2:                                              ; preds = %bb1
  %19 = getelementptr inbounds { %"std::sys::unix::os_str::Slice"*, i64 }, { %"std::sys::unix::os_str::Slice"*, i64 }* %inner.dbg.spill, i32 0, i32 0, !dbg !2516
  store %"std::sys::unix::os_str::Slice"* %_3.0, %"std::sys::unix::os_str::Slice"** %19, align 8, !dbg !2516
  %20 = getelementptr inbounds { %"std::sys::unix::os_str::Slice"*, i64 }, { %"std::sys::unix::os_str::Slice"*, i64 }* %inner.dbg.spill, i32 0, i32 1, !dbg !2516
  store i64 %_3.1, i64* %20, align 8, !dbg !2516
  call void @llvm.dbg.declare(metadata { %"std::sys::unix::os_str::Slice"*, i64 }* %inner.dbg.spill, metadata !2534, metadata !DIExpression()), !dbg !2539
  %_10.0 = bitcast %"std::sys::unix::os_str::Slice"* %_3.0 to %"std::ffi::os_str::OsStr"*, !dbg !2539
  %21 = insertvalue { %"std::ffi::os_str::OsStr"*, i64 } undef, %"std::ffi::os_str::OsStr"* %_10.0, 0, !dbg !2541
  %22 = insertvalue { %"std::ffi::os_str::OsStr"*, i64 } %21, i64 %_3.1, 1, !dbg !2541
  ret { %"std::ffi::os_str::OsStr"*, i64 } %22, !dbg !2541
}

; std::sys::unix::os_str::Buf::as_slice
; Function Attrs: inlinehint nonlazybind uwtable
define internal { %"std::sys::unix::os_str::Slice"*, i64 } @_ZN3std3sys4unix6os_str3Buf8as_slice17h577f94a0cba317dcE(%"std::sys::unix::os_str::Buf"* align 8 %self) unnamed_addr #0 !dbg !2542 {
start:
  %0 = alloca { %"std::sys::unix::os_str::Slice"*, i64 }, align 8
  %metadata.dbg.spill = alloca i64, align 8
  %data_address.dbg.spill = alloca {}*, align 8
  %self.dbg.spill5 = alloca i8*, align 8
  %len.dbg.spill4 = alloca i64, align 8
  %data.dbg.spill3 = alloca i8*, align 8
  %len.dbg.spill = alloca i64, align 8
  %data.dbg.spill = alloca i8*, align 8
  %self.dbg.spill2 = alloca %"alloc::vec::Vec<u8>"*, align 8
  %self.dbg.spill = alloca %"std::sys::unix::os_str::Buf"*, align 8
  %_17 = alloca { i8*, i64 }, align 8
  %_16 = alloca %"core::ptr::metadata::PtrRepr<[u8]>", align 8
  store %"std::sys::unix::os_str::Buf"* %self, %"std::sys::unix::os_str::Buf"** %self.dbg.spill, align 8
  call void @llvm.dbg.declare(metadata %"std::sys::unix::os_str::Buf"** %self.dbg.spill, metadata !2547, metadata !DIExpression()), !dbg !2548
  %self1 = bitcast %"std::sys::unix::os_str::Buf"* %self to %"alloc::vec::Vec<u8>"*, !dbg !2549
  store %"alloc::vec::Vec<u8>"* %self1, %"alloc::vec::Vec<u8>"** %self.dbg.spill2, align 8, !dbg !2549
  call void @llvm.dbg.declare(metadata %"alloc::vec::Vec<u8>"** %self.dbg.spill2, metadata !2550, metadata !DIExpression()), !dbg !2554
; call alloc::vec::Vec<T,A>::as_ptr
  %data = call i8* @"_ZN5alloc3vec16Vec$LT$T$C$A$GT$6as_ptr17hcda8ebe428aaf363E"(%"alloc::vec::Vec<u8>"* align 8 %self1), !dbg !2554
  store i8* %data, i8** %data.dbg.spill, align 8, !dbg !2554
  call void @llvm.dbg.declare(metadata i8** %data.dbg.spill, metadata !2556, metadata !DIExpression()), !dbg !2564
  br label %bb2, !dbg !2554

bb2:                                              ; preds = %start
  %1 = getelementptr inbounds %"alloc::vec::Vec<u8>", %"alloc::vec::Vec<u8>"* %self1, i32 0, i32 1, !dbg !2554
  %len = load i64, i64* %1, align 8, !dbg !2554
  store i64 %len, i64* %len.dbg.spill, align 8, !dbg !2554
  call void @llvm.dbg.declare(metadata i64* %len.dbg.spill, metadata !2560, metadata !DIExpression()), !dbg !2564
  store i8* %data, i8** %data.dbg.spill3, align 8, !dbg !2564
  call void @llvm.dbg.declare(metadata i8** %data.dbg.spill3, metadata !2566, metadata !DIExpression()), !dbg !2571
  store i64 %len, i64* %len.dbg.spill4, align 8, !dbg !2564
  call void @llvm.dbg.declare(metadata i64* %len.dbg.spill4, metadata !2570, metadata !DIExpression()), !dbg !2571
  store i8* %data, i8** %self.dbg.spill5, align 8, !dbg !2571
  call void @llvm.dbg.declare(metadata i8** %self.dbg.spill5, metadata !2573, metadata !DIExpression()), !dbg !2577
  %data_address = bitcast i8* %data to {}*, !dbg !2577
  store {}* %data_address, {}** %data_address.dbg.spill, align 8, !dbg !2577
  call void @llvm.dbg.declare(metadata {}** %data_address.dbg.spill, metadata !2579, metadata !DIExpression()), !dbg !2584
  store i64 %len, i64* %metadata.dbg.spill, align 8, !dbg !2571
  call void @llvm.dbg.declare(metadata i64* %metadata.dbg.spill, metadata !2583, metadata !DIExpression()), !dbg !2584
  %2 = bitcast { i8*, i64 }* %_17 to {}**, !dbg !2584
  store {}* %data_address, {}** %2, align 8, !dbg !2584
