; ModuleID = 'e58tyxovi14hay4'
source_filename = "e58tyxovi14hay4"
target datalayout = "e-m:e-p270:32:32-p271:32:32-p272:64:64-i64:64-f80:128-n8:16:32:64-S128"
target triple = "x86_64-unknown-linux-gnu"

%"std_detect::detect::cache::Cache" = type { %"core::sync::atomic::AtomicUsize" }
%"core::sync::atomic::AtomicUsize" = type { i64 }
%"core::panic::location::Location" = type { { [0 x i8]*, i64 }, i32, i32 }
%"core::fmt::Formatter" = type { { i64, i64 }, { i64, i64 }, { {}*, [3 x i64]* }, i32, i32, i8, [7 x i8] }
%"x86::VectorInitLists" = type { <4 x float>, [2 x i64], <8 x float>, <2 x double>, [2 x i64], <4 x double>, <2 x i64>, [2 x i64], <4 x i64> }
%"x86::ShuffleVectors" = type { <4 x float>, <2 x double>, <8 x float>, <4 x double>, <4 x double>, <2 x i64>, <2 x i64>, <2 x i64>, <2 x i64>, <4 x i64>, <4 x i64>, <4 x i64>, <2 x i64>, [2 x i64], <4 x i64>, <4 x i64>, <4 x i64>, <2 x i64>, [2 x i64] }
%"core::fmt::Opaque" = type {}
%"core::fmt::Arguments" = type { { [0 x { [0 x i8]*, i64 }]*, i64 }, { i64*, i64 }, { [0 x { i8*, i64* }]*, i64 } }
%"[closure@src/test_x86.rs:206:1: 235:2]" = type {}
%"[closure@src/test_x86.rs:144:1: 153:2]" = type {}
%"[closure@src/test_x86.rs:113:1: 141:2]" = type {}
%"[closure@src/test_x86.rs:191:1: 203:2]" = type {}
%"[closure@src/test_x86.rs:156:1: 167:2]" = type {}
%"core::option::Option<core::fmt::Arguments>" = type { {}*, [5 x i64] }
%"core::option::Option<core::fmt::Arguments>::Some" = type { %"core::fmt::Arguments" }
%"core::fmt::builders::DebugTuple" = type { %"core::fmt::Formatter"*, i64, i8, i8, [6 x i8] }
%"test::types::TestDescAndFn" = type { %"test::types::TestDesc", %"test::types::TestFn" }
%"test::types::TestDesc" = type { %"test::types::TestName", { i8*, i64 }, %"test::options::ShouldPanic", i8, i8, i8, i8, [4 x i8] }
%"test::types::TestName" = type { i8, [39 x i8] }
%"test::options::ShouldPanic" = type { i64, [2 x i64] }
%"test::types::TestFn" = type { i64, [2 x i64] }
%"unwind::libunwind::_Unwind_Exception" = type { i64, void (i32, %"unwind::libunwind::_Unwind_Exception"*)*, [6 x i64] }
%"unwind::libunwind::_Unwind_Context" = type { [0 x i8] }

@_ZN10std_detect6detect5cache5CACHE17h38d35a2bfe474544E = external global [2 x %"std_detect::detect::cache::Cache"]
@alloc688 = private unnamed_addr constant <{ [101 x i8] }> <{ [101 x i8] c"/rustc/d394408fb38c4de61f765a3ed5189d2731a1da91/library/stdarch/crates/std_detect/src/detect/cache.rs" }>, align 1
@alloc689 = private unnamed_addr constant <{ i8*, [16 x i8] }> <{ i8* getelementptr inbounds (<{ [101 x i8] }>, <{ [101 x i8] }>* @alloc688, i32 0, i32 0, i32 0), [16 x i8] c"e\00\00\00\00\00\00\00\BF\00\00\00\05\00\00\00" }>, align 8
@vtable.0 = private unnamed_addr constant <{ i8*, [16 x i8], i8*, i8*, i8* }> <{ i8* bitcast (void (i64**)* @"_ZN4core3ptr85drop_in_place$LT$std..rt..lang_start$LT$$LP$$RP$$GT$..$u7b$$u7b$closure$u7d$$u7d$$GT$17h08ba8269b4fc63f8E" to i8*), [16 x i8] c"\08\00\00\00\00\00\00\00\08\00\00\00\00\00\00\00", i8* bitcast (i32 (i64**)* @"_ZN4core3ops8function6FnOnce40call_once$u7b$$u7b$vtable.shim$u7d$$u7d$17h14dd25d379fe625dE" to i8*), i8* bitcast (i32 (i64**)* @"_ZN3std2rt10lang_start28_$u7b$$u7b$closure$u7d$$u7d$17h0d40ca36b0899dfeE" to i8*), i8* bitcast (i32 (i64**)* @"_ZN3std2rt10lang_start28_$u7b$$u7b$closure$u7d$$u7d$17h0d40ca36b0899dfeE" to i8*) }>, align 8, !dbg !0
@alloc249 = private unnamed_addr constant <{ [12 x i8] }> <{ [12 x i8] c"invalid args" }>, align 1
@alloc250 = private unnamed_addr constant <{ i8*, [8 x i8] }> <{ i8* getelementptr inbounds (<{ [12 x i8] }>, <{ [12 x i8] }>* @alloc249, i32 0, i32 0, i32 0), [8 x i8] c"\0C\00\00\00\00\00\00\00" }>, align 8
@alloc653 = private unnamed_addr constant <{}> zeroinitializer, align 8
@alloc712 = private unnamed_addr constant <{ [75 x i8] }> <{ [75 x i8] c"/rustc/d394408fb38c4de61f765a3ed5189d2731a1da91/library/core/src/fmt/mod.rs" }>, align 1
@alloc713 = private unnamed_addr constant <{ i8*, [16 x i8] }> <{ i8* getelementptr inbounds (<{ [75 x i8] }>, <{ [75 x i8] }>* @alloc712, i32 0, i32 0, i32 0), [16 x i8] c"K\00\00\00\00\00\00\00\88\01\00\00\0D\00\00\00" }>, align 8
@alloc260 = private unnamed_addr constant <{ [49 x i8] }> <{ [49 x i8] c"there is no such thing as an acquire-release load" }>, align 1
@alloc261 = private unnamed_addr constant <{ i8*, [8 x i8] }> <{ i8* getelementptr inbounds (<{ [49 x i8] }>, <{ [49 x i8] }>* @alloc260, i32 0, i32 0, i32 0), [8 x i8] c"1\00\00\00\00\00\00\00" }>, align 8
@alloc716 = private unnamed_addr constant <{ [79 x i8] }> <{ [79 x i8] c"/rustc/d394408fb38c4de61f765a3ed5189d2731a1da91/library/core/src/sync/atomic.rs" }>, align 1
@alloc715 = private unnamed_addr constant <{ i8*, [16 x i8] }> <{ i8* getelementptr inbounds (<{ [79 x i8] }>, <{ [79 x i8] }>* @alloc716, i32 0, i32 0, i32 0), [16 x i8] c"O\00\00\00\00\00\00\00\BF\0B\00\00\17\00\00\00" }>, align 8
@alloc265 = private unnamed_addr constant <{ [40 x i8] }> <{ [40 x i8] c"there is no such thing as a release load" }>, align 1
@alloc266 = private unnamed_addr constant <{ i8*, [8 x i8] }> <{ i8* getelementptr inbounds (<{ [40 x i8] }>, <{ [40 x i8] }>* @alloc265, i32 0, i32 0, i32 0), [8 x i8] c"(\00\00\00\00\00\00\00" }>, align 8
@alloc717 = private unnamed_addr constant <{ i8*, [16 x i8] }> <{ i8* getelementptr inbounds (<{ [79 x i8] }>, <{ [79 x i8] }>* @alloc716, i32 0, i32 0, i32 0), [16 x i8] c"O\00\00\00\00\00\00\00\BE\0B\00\00\18\00\00\00" }>, align 8
@vtable.1 = private unnamed_addr constant <{ i8*, [16 x i8], i8* }> <{ i8* bitcast (void (%"x86::ShuffleVectors"**)* @"_ZN4core3ptr56drop_in_place$LT$$RF$simd_tests..x86..ShuffleVectors$GT$17h3845e6ca523244e8E" to i8*), [16 x i8] c"\08\00\00\00\00\00\00\00\08\00\00\00\00\00\00\00", i8* bitcast (i1 (%"x86::ShuffleVectors"**, %"core::fmt::Formatter"*)* @"_ZN42_$LT$$RF$T$u20$as$u20$core..fmt..Debug$GT$3fmt17hbaec50028433fafbE" to i8*) }>, align 8, !dbg !24
@vtable.2 = private unnamed_addr constant <{ i8*, [16 x i8], i8* }> <{ i8* bitcast (void (i32**)* @"_ZN4core3ptr28drop_in_place$LT$$RF$u32$GT$17h61c2ee688ce64242E" to i8*), [16 x i8] c"\08\00\00\00\00\00\00\00\08\00\00\00\00\00\00\00", i8* bitcast (i1 (i32**, %"core::fmt::Formatter"*)* @"_ZN42_$LT$$RF$T$u20$as$u20$core..fmt..Debug$GT$3fmt17h72c2fa97d2991440E" to i8*) }>, align 8, !dbg !96
@vtable.3 = private unnamed_addr constant <{ i8*, [16 x i8], i8* }> <{ i8* bitcast (void (%"x86::VectorInitLists"**)* @"_ZN4core3ptr57drop_in_place$LT$$RF$simd_tests..x86..VectorInitLists$GT$17h040701d3bf3a873bE" to i8*), [16 x i8] c"\08\00\00\00\00\00\00\00\08\00\00\00\00\00\00\00", i8* bitcast (i1 (%"x86::VectorInitLists"**, %"core::fmt::Formatter"*)* @"_ZN42_$LT$$RF$T$u20$as$u20$core..fmt..Debug$GT$3fmt17h2e6dab0646ce75e0E" to i8*) }>, align 8, !dbg !106
@vtable.4 = private unnamed_addr constant <{ i8*, [16 x i8], i8* }> <{ i8* bitcast (void (i32**)* @"_ZN4core3ptr28drop_in_place$LT$$RF$i32$GT$17h4d4105f1a38644dfE" to i8*), [16 x i8] c"\08\00\00\00\00\00\00\00\08\00\00\00\00\00\00\00", i8* bitcast (i1 (i32**, %"core::fmt::Formatter"*)* @"_ZN42_$LT$$RF$T$u20$as$u20$core..fmt..Debug$GT$3fmt17he6d40749726e6eb9E" to i8*) }>, align 8, !dbg !123
@alloc272 = private unnamed_addr constant <{ i8*, [8 x i8] }> <{ i8* bitcast (<{}>* @alloc653 to i8*), [8 x i8] zeroinitializer }>, align 8
@alloc238 = private unnamed_addr constant <{ [4 x i8] }> zeroinitializer, align 4
@alloc240 = private unnamed_addr constant <{ [67 x i8] }> <{ [67 x i8] c"the test returned a termination value with a non-zero status code (" }>, align 1
@alloc242 = private unnamed_addr constant <{ [27 x i8] }> <{ [27 x i8] c") which indicates a failure" }>, align 1
@alloc241 = private unnamed_addr constant <{ i8*, [8 x i8], i8*, [8 x i8] }> <{ i8* getelementptr inbounds (<{ [67 x i8] }>, <{ [67 x i8] }>* @alloc240, i32 0, i32 0, i32 0), [8 x i8] c"C\00\00\00\00\00\00\00", i8* getelementptr inbounds (<{ [27 x i8] }>, <{ [27 x i8] }>* @alloc242, i32 0, i32 0, i32 0), [8 x i8] c"\1B\00\00\00\00\00\00\00" }>, align 8
@alloc760 = private unnamed_addr constant <{ [71 x i8] }> <{ [71 x i8] c"/rustc/d394408fb38c4de61f765a3ed5189d2731a1da91/library/test/src/lib.rs" }>, align 1
@alloc761 = private unnamed_addr constant <{ i8*, [16 x i8] }> <{ i8* getelementptr inbounds (<{ [71 x i8] }>, <{ [71 x i8] }>* @alloc760, i32 0, i32 0, i32 0), [16 x i8] c"G\00\00\00\00\00\00\00\B8\00\00\00\05\00\00\00" }>, align 8
@vtable.5 = private unnamed_addr constant <{ i8*, [16 x i8], i8* }> <{ i8* bitcast (void (i64**)* @"_ZN4core3ptr28drop_in_place$LT$$RF$i64$GT$17h83fc3127822632ebE" to i8*), [16 x i8] c"\08\00\00\00\00\00\00\00\08\00\00\00\00\00\00\00", i8* bitcast (i1 (i64**, %"core::fmt::Formatter"*)* @"_ZN42_$LT$$RF$T$u20$as$u20$core..fmt..Debug$GT$3fmt17hd2371bb6227f481eE" to i8*) }>, align 8, !dbg !133
@vtable.6 = private unnamed_addr constant <{ i8*, [16 x i8], i8* }> <{ i8* bitcast (void (i128**)* @"_ZN4core3ptr29drop_in_place$LT$$RF$u128$GT$17haa439b908a580dddE" to i8*), [16 x i8] c"\08\00\00\00\00\00\00\00\08\00\00\00\00\00\00\00", i8* bitcast (i1 (i128**, %"core::fmt::Formatter"*)* @"_ZN42_$LT$$RF$T$u20$as$u20$core..fmt..Debug$GT$3fmt17ha1f3ca14dd5ae5a7E" to i8*) }>, align 8, !dbg !142
@vtable.7 = private unnamed_addr constant <{ i8*, [16 x i8], i8* }> <{ i8* bitcast (void (double**)* @"_ZN4core3ptr28drop_in_place$LT$$RF$f64$GT$17h169d8afff0f47f96E" to i8*), [16 x i8] c"\08\00\00\00\00\00\00\00\08\00\00\00\00\00\00\00", i8* bitcast (i1 (double**, %"core::fmt::Formatter"*)* @"_ZN42_$LT$$RF$T$u20$as$u20$core..fmt..Debug$GT$3fmt17h251ef969b9d20694E" to i8*) }>, align 8, !dbg !152
@vtable.8 = private unnamed_addr constant <{ i8*, [16 x i8], i8* }> <{ i8* bitcast (void (float**)* @"_ZN4core3ptr28drop_in_place$LT$$RF$f32$GT$17hee28d2f23f0df298E" to i8*), [16 x i8] c"\08\00\00\00\00\00\00\00\08\00\00\00\00\00\00\00", i8* bitcast (i1 (float**, %"core::fmt::Formatter"*)* @"_ZN42_$LT$$RF$T$u20$as$u20$core..fmt..Debug$GT$3fmt17h575cb61ea75ae143E" to i8*) }>, align 8, !dbg !161
@alloc76 = private unnamed_addr constant <{ [82 x i8] }> <{ [82 x i8] c"Prevented unsafe calling of SIMD functions when architecture support doesn't exist" }>, align 1
@_ZN10simd_tests8test_x8614UNSAFETY_ERROR17hbfe48eeaf2df37bcE = internal constant <{ i8*, [8 x i8] }> <{ i8* getelementptr inbounds (<{ [82 x i8] }>, <{ [82 x i8] }>* @alloc76, i32 0, i32 0, i32 0), [8 x i8] c"R\00\00\00\00\00\00\00" }>, align 8, !dbg !170
@alloc639 = private unnamed_addr constant <{ [7 x i8] }> <{ [7 x i8] c"fields " }>, align 1
@alloc641 = private unnamed_addr constant <{ [3 x i8] }> <{ [3 x i8] c": (" }>, align 1
@alloc642 = private unnamed_addr constant <{ [6 x i8] }> <{ [6 x i8] c") != (" }>, align 1
@alloc643 = private unnamed_addr constant <{ [2 x i8] }> <{ [2 x i8] c")\0A" }>, align 1
@alloc640 = private unnamed_addr constant <{ i8*, [8 x i8], i8*, [8 x i8], i8*, [8 x i8], i8*, [8 x i8] }> <{ i8* getelementptr inbounds (<{ [7 x i8] }>, <{ [7 x i8] }>* @alloc639, i32 0, i32 0, i32 0), [8 x i8] c"\07\00\00\00\00\00\00\00", i8* getelementptr inbounds (<{ [3 x i8] }>, <{ [3 x i8] }>* @alloc641, i32 0, i32 0, i32 0), [8 x i8] c"\03\00\00\00\00\00\00\00", i8* getelementptr inbounds (<{ [6 x i8] }>, <{ [6 x i8] }>* @alloc642, i32 0, i32 0, i32 0), [8 x i8] c"\06\00\00\00\00\00\00\00", i8* getelementptr inbounds (<{ [2 x i8] }>, <{ [2 x i8] }>* @alloc643, i32 0, i32 0, i32 0), [8 x i8] c"\02\00\00\00\00\00\00\00" }>, align 8
@alloc609 = private unnamed_addr constant <{ [1 x i8] }> <{ [1 x i8] c"b" }>, align 1
@alloc610 = private unnamed_addr constant <{ i8*, [8 x i8] }> <{ i8* getelementptr inbounds (<{ [1 x i8] }>, <{ [1 x i8] }>* @alloc609, i32 0, i32 0, i32 0), [8 x i8] c"\01\00\00\00\00\00\00\00" }>, align 8
@alloc618 = private unnamed_addr constant <{ [1 x i8] }> <{ [1 x i8] c"c" }>, align 1
@alloc619 = private unnamed_addr constant <{ i8*, [8 x i8] }> <{ i8* getelementptr inbounds (<{ [1 x i8] }>, <{ [1 x i8] }>* @alloc618, i32 0, i32 0, i32 0), [8 x i8] c"\01\00\00\00\00\00\00\00" }>, align 8
@alloc627 = private unnamed_addr constant <{ [1 x i8] }> <{ [1 x i8] c"d" }>, align 1
@alloc628 = private unnamed_addr constant <{ i8*, [8 x i8] }> <{ i8* getelementptr inbounds (<{ [1 x i8] }>, <{ [1 x i8] }>* @alloc627, i32 0, i32 0, i32 0), [8 x i8] c"\01\00\00\00\00\00\00\00" }>, align 8
@alloc471 = private unnamed_addr constant <{ [2 x i8] }> <{ [2 x i8] c"ep" }>, align 1
@alloc472 = private unnamed_addr constant <{ i8*, [8 x i8] }> <{ i8* getelementptr inbounds (<{ [2 x i8] }>, <{ [2 x i8] }>* @alloc471, i32 0, i32 0, i32 0), [8 x i8] c"\02\00\00\00\00\00\00\00" }>, align 8
@alloc636 = private unnamed_addr constant <{ [1 x i8] }> <{ [1 x i8] c"e" }>, align 1
@alloc637 = private unnamed_addr constant <{ i8*, [8 x i8] }> <{ i8* getelementptr inbounds (<{ [1 x i8] }>, <{ [1 x i8] }>* @alloc636, i32 0, i32 0, i32 0), [8 x i8] c"\01\00\00\00\00\00\00\00" }>, align 8
@alloc645 = private unnamed_addr constant <{ [1 x i8] }> <{ [1 x i8] c"f" }>, align 1
@alloc646 = private unnamed_addr constant <{ i8*, [8 x i8] }> <{ i8* getelementptr inbounds (<{ [1 x i8] }>, <{ [1 x i8] }>* @alloc645, i32 0, i32 0, i32 0), [8 x i8] c"\01\00\00\00\00\00\00\00" }>, align 8
@alloc498 = private unnamed_addr constant <{ [1 x i8] }> <{ [1 x i8] c"g" }>, align 1
@alloc499 = private unnamed_addr constant <{ i8*, [8 x i8] }> <{ i8* getelementptr inbounds (<{ [1 x i8] }>, <{ [1 x i8] }>* @alloc498, i32 0, i32 0, i32 0), [8 x i8] c"\01\00\00\00\00\00\00\00" }>, align 8
@alloc507 = private unnamed_addr constant <{ [1 x i8] }> <{ [1 x i8] c"h" }>, align 1
@alloc508 = private unnamed_addr constant <{ i8*, [8 x i8] }> <{ i8* getelementptr inbounds (<{ [1 x i8] }>, <{ [1 x i8] }>* @alloc507, i32 0, i32 0, i32 0), [8 x i8] c"\01\00\00\00\00\00\00\00" }>, align 8
@alloc516 = private unnamed_addr constant <{ [1 x i8] }> <{ [1 x i8] c"m" }>, align 1
@alloc517 = private unnamed_addr constant <{ i8*, [8 x i8] }> <{ i8* getelementptr inbounds (<{ [1 x i8] }>, <{ [1 x i8] }>* @alloc516, i32 0, i32 0, i32 0), [8 x i8] c"\01\00\00\00\00\00\00\00" }>, align 8
@alloc525 = private unnamed_addr constant <{ [1 x i8] }> <{ [1 x i8] c"o" }>, align 1
@alloc526 = private unnamed_addr constant <{ i8*, [8 x i8] }> <{ i8* getelementptr inbounds (<{ [1 x i8] }>, <{ [1 x i8] }>* @alloc525, i32 0, i32 0, i32 0), [8 x i8] c"\01\00\00\00\00\00\00\00" }>, align 8
@alloc534 = private unnamed_addr constant <{ [1 x i8] }> <{ [1 x i8] c"r" }>, align 1
@alloc535 = private unnamed_addr constant <{ i8*, [8 x i8] }> <{ i8* getelementptr inbounds (<{ [1 x i8] }>, <{ [1 x i8] }>* @alloc534, i32 0, i32 0, i32 0), [8 x i8] c"\01\00\00\00\00\00\00\00" }>, align 8
@alloc539 = private unnamed_addr constant <{ [20 x i8] }> <{ [20 x i8] c"ShuffleVector { .. }" }>, align 1
@alloc540 = private unnamed_addr constant <{ i8*, [8 x i8] }> <{ i8* getelementptr inbounds (<{ [20 x i8] }>, <{ [20 x i8] }>* @alloc539, i32 0, i32 0, i32 0), [8 x i8] c"\14\00\00\00\00\00\00\00" }>, align 8
@alloc600 = private unnamed_addr constant <{ [1 x i8] }> <{ [1 x i8] c"a" }>, align 1
@alloc601 = private unnamed_addr constant <{ i8*, [8 x i8] }> <{ i8* getelementptr inbounds (<{ [1 x i8] }>, <{ [1 x i8] }>* @alloc600, i32 0, i32 0, i32 0), [8 x i8] c"\01\00\00\00\00\00\00\00" }>, align 8
@alloc650 = private unnamed_addr constant <{ [22 x i8] }> <{ [22 x i8] c"VectorInitLists { .. }" }>, align 1
@alloc651 = private unnamed_addr constant <{ i8*, [8 x i8] }> <{ i8* getelementptr inbounds (<{ [22 x i8] }>, <{ [22 x i8] }>* @alloc650, i32 0, i32 0, i32 0), [8 x i8] c"\16\00\00\00\00\00\00\00" }>, align 8
@rust_static_m128 = global <{ [16 x i8] }> <{ [16 x i8] c"ff\A6?33\13@\9A\99Y@\CD\CC\8C@" }>, align 16, !dbg !180
@rust_static_m256 = global <{ [32 x i8] }> <{ [32 x i8] c"\CD\CC\0C@\CD\CC\8C@33\B3@\9A\99\89@ff\D6@33\D3@\00\00\B0@\CD\CC\0CA" }>, align 32, !dbg !183
@rust_static_m128d = global <{ [16 x i8] }> <{ [16 x i8] c"\9A\99\99\99\99\99\01@\9A\99\99\99\99\99\11@" }>, align 16, !dbg !185
@rust_static_m256d = global <{ [32 x i8] }> <{ [32 x i8] c"\9A\99\99\99\99\99\01@ffffff\0A@\9A\99\99\99\99\99\11@\00\00\00\00\00\00\16@" }>, align 32, !dbg !187
@rust_static_m128i = global <{ [16 x i8] }> <{ [16 x i8] c"-\00\00\00\00\00\00\00 \00\00\00\00\00\00\00" }>, align 16, !dbg !189
@rust_static_m256i = global <{ [32 x i8] }> <{ [32 x i8] c"\0C\00\00\00\00\00\00\00\22\00\00\00\00\00\00\008\00\00\00\00\00\00\00N\00\00\00\00\00\00\00" }>, align 32, !dbg !191
@rust_static_uninit_m128 = global <{ [16 x i8] }> zeroinitializer, align 16, !dbg !193
@rust_static_uninit_m256 = global <{ [32 x i8] }> zeroinitializer, align 32, !dbg !195
@rust_static_uninit_m128d = global <{ [16 x i8] }> zeroinitializer, align 16, !dbg !197
@rust_static_uninit_m256d = global <{ [32 x i8] }> zeroinitializer, align 32, !dbg !199
@rust_static_uninit_m128i = global <{ [16 x i8] }> zeroinitializer, align 16, !dbg !201
@rust_static_uninit_m256i = global <{ [32 x i8] }> zeroinitializer, align 32, !dbg !203
@alloc817 = private unnamed_addr constant <{ [15 x i8] }> <{ [15 x i8] c"src/test_x86.rs" }>, align 1
@alloc782 = private unnamed_addr constant <{ i8*, [16 x i8] }> <{ i8* getelementptr inbounds (<{ [15 x i8] }>, <{ [15 x i8] }>* @alloc817, i32 0, i32 0, i32 0), [16 x i8] c"\0F\00\00\00\00\00\00\00\84\00\00\00\09\00\00\00" }>, align 8
@alloc784 = private unnamed_addr constant <{ i8*, [16 x i8] }> <{ i8* getelementptr inbounds (<{ [15 x i8] }>, <{ [15 x i8] }>* @alloc817, i32 0, i32 0, i32 0), [16 x i8] c"\0F\00\00\00\00\00\00\00\85\00\00\00\09\00\00\00" }>, align 8
@alloc786 = private unnamed_addr constant <{ i8*, [16 x i8] }> <{ i8* getelementptr inbounds (<{ [15 x i8] }>, <{ [15 x i8] }>* @alloc817, i32 0, i32 0, i32 0), [16 x i8] c"\0F\00\00\00\00\00\00\00\86\00\00\00\09\00\00\00" }>, align 8
@alloc788 = private unnamed_addr constant <{ i8*, [16 x i8] }> <{ i8* getelementptr inbounds (<{ [15 x i8] }>, <{ [15 x i8] }>* @alloc817, i32 0, i32 0, i32 0), [16 x i8] c"\0F\00\00\00\00\00\00\00\87\00\00\00\09\00\00\00" }>, align 8
@alloc790 = private unnamed_addr constant <{ i8*, [16 x i8] }> <{ i8* getelementptr inbounds (<{ [15 x i8] }>, <{ [15 x i8] }>* @alloc817, i32 0, i32 0, i32 0), [16 x i8] c"\0F\00\00\00\00\00\00\00\88\00\00\00\09\00\00\00" }>, align 8
@alloc792 = private unnamed_addr constant <{ i8*, [16 x i8] }> <{ i8* getelementptr inbounds (<{ [15 x i8] }>, <{ [15 x i8] }>* @alloc817, i32 0, i32 0, i32 0), [16 x i8] c"\0F\00\00\00\00\00\00\00\89\00\00\00\09\00\00\00" }>, align 8
@alloc794 = private unnamed_addr constant <{ i8*, [16 x i8] }> <{ i8* getelementptr inbounds (<{ [15 x i8] }>, <{ [15 x i8] }>* @alloc817, i32 0, i32 0, i32 0), [16 x i8] c"\0F\00\00\00\00\00\00\00\8A\00\00\00\09\00\00\00" }>, align 8
@alloc796 = private unnamed_addr constant <{ i8*, [16 x i8] }> <{ i8* getelementptr inbounds (<{ [15 x i8] }>, <{ [15 x i8] }>* @alloc817, i32 0, i32 0, i32 0), [16 x i8] c"\0F\00\00\00\00\00\00\00\8B\00\00\00\09\00\00\00" }>, align 8
@alloc798 = private unnamed_addr constant <{ i8*, [16 x i8] }> <{ i8* getelementptr inbounds (<{ [15 x i8] }>, <{ [15 x i8] }>* @alloc817, i32 0, i32 0, i32 0), [16 x i8] c"\0F\00\00\00\00\00\00\00\93\00\00\00\05\00\00\00" }>, align 8
@alloc800 = private unnamed_addr constant <{ i8*, [16 x i8] }> <{ i8* getelementptr inbounds (<{ [15 x i8] }>, <{ [15 x i8] }>* @alloc817, i32 0, i32 0, i32 0), [16 x i8] c"\0F\00\00\00\00\00\00\00\94\00\00\00\05\00\00\00" }>, align 8
@alloc802 = private unnamed_addr constant <{ i8*, [16 x i8] }> <{ i8* getelementptr inbounds (<{ [15 x i8] }>, <{ [15 x i8] }>* @alloc817, i32 0, i32 0, i32 0), [16 x i8] c"\0F\00\00\00\00\00\00\00\9D\00\00\00\05\00\00\00" }>, align 8
@alloc804 = private unnamed_addr constant <{ i8*, [16 x i8] }> <{ i8* getelementptr inbounds (<{ [15 x i8] }>, <{ [15 x i8] }>* @alloc817, i32 0, i32 0, i32 0), [16 x i8] c"\0F\00\00\00\00\00\00\00\9E\00\00\00\05\00\00\00" }>, align 8
@alloc806 = private unnamed_addr constant <{ i8*, [16 x i8] }> <{ i8* getelementptr inbounds (<{ [15 x i8] }>, <{ [15 x i8] }>* @alloc817, i32 0, i32 0, i32 0), [16 x i8] c"\0F\00\00\00\00\00\00\00\A5\00\00\00\05\00\00\00" }>, align 8
@alloc808 = private unnamed_addr constant <{ i8*, [16 x i8] }> <{ i8* getelementptr inbounds (<{ [15 x i8] }>, <{ [15 x i8] }>* @alloc817, i32 0, i32 0, i32 0), [16 x i8] c"\0F\00\00\00\00\00\00\00\A6\00\00\00\05\00\00\00" }>, align 8
@alloc810 = private unnamed_addr constant <{ i8*, [16 x i8] }> <{ i8* getelementptr inbounds (<{ [15 x i8] }>, <{ [15 x i8] }>* @alloc817, i32 0, i32 0, i32 0), [16 x i8] c"\0F\00\00\00\00\00\00\00\C2\00\00\00\05\00\00\00" }>, align 8
@alloc812 = private unnamed_addr constant <{ i8*, [16 x i8] }> <{ i8* getelementptr inbounds (<{ [15 x i8] }>, <{ [15 x i8] }>* @alloc817, i32 0, i32 0, i32 0), [16 x i8] c"\0F\00\00\00\00\00\00\00\C9\00\00\00\05\00\00\00" }>, align 8
@alloc814 = private unnamed_addr constant <{ i8*, [16 x i8] }> <{ i8* getelementptr inbounds (<{ [15 x i8] }>, <{ [15 x i8] }>* @alloc817, i32 0, i32 0, i32 0), [16 x i8] c"\0F\00\00\00\00\00\00\00\CA\00\00\00\05\00\00\00" }>, align 8
@alloc816 = private unnamed_addr constant <{ i8*, [16 x i8] }> <{ i8* getelementptr inbounds (<{ [15 x i8] }>, <{ [15 x i8] }>* @alloc817, i32 0, i32 0, i32 0), [16 x i8] c"\0F\00\00\00\00\00\00\00\D1\00\00\00\05\00\00\00" }>, align 8
@static_m128 = external global <4 x float>
@static_m256 = external global <8 x float>
@static_m128d = external global <2 x double>
@static_m256d = external global <4 x double>
@static_m128i = external global <2 x i64>
@static_m256i = external global <4 x i64>
@alloc818 = private unnamed_addr constant <{ i8*, [16 x i8] }> <{ i8* getelementptr inbounds (<{ [15 x i8] }>, <{ [15 x i8] }>* @alloc817, i32 0, i32 0, i32 0), [16 x i8] c"\0F\00\00\00\00\00\00\00\EA\00\00\00\05\00\00\00" }>, align 8
@alloc79 = private unnamed_addr constant <{ [31 x i8] }> <{ [31 x i8] c"test_x86::test_unpack_128_2x128" }>, align 1
@alloc681 = private unnamed_addr constant <{ [1 x i8], [7 x i8], i8*, [8 x i8], [16 x i8], [8 x i8], [8 x i8], [8 x i8], [16 x i8], [4 x i8], [4 x i8], [8 x i8], i8*, [8 x i8] }> <{ [1 x i8] zeroinitializer, [7 x i8] undef, i8* getelementptr inbounds (<{ [31 x i8] }>, <{ [31 x i8] }>* @alloc79, i32 0, i32 0, i32 0), [8 x i8] c"\1F\00\00\00\00\00\00\00", [16 x i8] undef, [8 x i8] zeroinitializer, [8 x i8] undef, [8 x i8] zeroinitializer, [16 x i8] undef, [4 x i8] zeroinitializer, [4 x i8] undef, [8 x i8] zeroinitializer, i8* bitcast (void ()* @_ZN4core3ops8function6FnOnce9call_once17hc63af24d7f765014E to i8*), [8 x i8] undef }>, align 8
@alloc89 = private unnamed_addr constant <{ [32 x i8] }> <{ [32 x i8] c"test_x86::test_zero_initializers" }>, align 1
@alloc682 = private unnamed_addr constant <{ [1 x i8], [7 x i8], i8*, [8 x i8], [16 x i8], [8 x i8], [8 x i8], [8 x i8], [16 x i8], [4 x i8], [4 x i8], [8 x i8], i8*, [8 x i8] }> <{ [1 x i8] zeroinitializer, [7 x i8] undef, i8* getelementptr inbounds (<{ [32 x i8] }>, <{ [32 x i8] }>* @alloc89, i32 0, i32 0, i32 0), [8 x i8] c" \00\00\00\00\00\00\00", [16 x i8] undef, [8 x i8] zeroinitializer, [8 x i8] undef, [8 x i8] zeroinitializer, [16 x i8] undef, [4 x i8] zeroinitializer, [4 x i8] undef, [8 x i8] zeroinitializer, i8* bitcast (void ()* @_ZN4core3ops8function6FnOnce9call_once17h311336e3531c943aE to i8*), [8 x i8] undef }>, align 8
@alloc99 = private unnamed_addr constant <{ [30 x i8] }> <{ [30 x i8] c"test_x86::test_shuffle_vectors" }>, align 1
@alloc683 = private unnamed_addr constant <{ [1 x i8], [7 x i8], i8*, [8 x i8], [16 x i8], [8 x i8], [8 x i8], [8 x i8], [16 x i8], [4 x i8], [4 x i8], [8 x i8], i8*, [8 x i8] }> <{ [1 x i8] zeroinitializer, [7 x i8] undef, i8* getelementptr inbounds (<{ [30 x i8] }>, <{ [30 x i8] }>* @alloc99, i32 0, i32 0, i32 0), [8 x i8] c"\1E\00\00\00\00\00\00\00", [16 x i8] undef, [8 x i8] zeroinitializer, [8 x i8] undef, [8 x i8] zeroinitializer, [16 x i8] undef, [4 x i8] zeroinitializer, [4 x i8] undef, [8 x i8] zeroinitializer, i8* bitcast (void ()* @_ZN4core3ops8function6FnOnce9call_once17he939019cdd326028E to i8*), [8 x i8] undef }>, align 8
@alloc109 = private unnamed_addr constant <{ [32 x i8] }> <{ [32 x i8] c"test_x86::test_vector_init_lists" }>, align 1
@alloc684 = private unnamed_addr constant <{ [1 x i8], [7 x i8], i8*, [8 x i8], [16 x i8], [8 x i8], [8 x i8], [8 x i8], [16 x i8], [4 x i8], [4 x i8], [8 x i8], i8*, [8 x i8] }> <{ [1 x i8] zeroinitializer, [7 x i8] undef, i8* getelementptr inbounds (<{ [32 x i8] }>, <{ [32 x i8] }>* @alloc109, i32 0, i32 0, i32 0), [8 x i8] c" \00\00\00\00\00\00\00", [16 x i8] undef, [8 x i8] zeroinitializer, [8 x i8] undef, [8 x i8] zeroinitializer, [16 x i8] undef, [4 x i8] zeroinitializer, [4 x i8] undef, [8 x i8] zeroinitializer, i8* bitcast (void ()* @_ZN4core3ops8function6FnOnce9call_once17hdc500165b4ef1e17E to i8*), [8 x i8] undef }>, align 8
@alloc119 = private unnamed_addr constant <{ [32 x i8] }> <{ [32 x i8] c"test_x86::test_static_init_lists" }>, align 1
@alloc685 = private unnamed_addr constant <{ [1 x i8], [7 x i8], i8*, [8 x i8], [16 x i8], [8 x i8], [8 x i8], [8 x i8], [16 x i8], [4 x i8], [4 x i8], [8 x i8], i8*, [8 x i8] }> <{ [1 x i8] zeroinitializer, [7 x i8] undef, i8* getelementptr inbounds (<{ [32 x i8] }>, <{ [32 x i8] }>* @alloc119, i32 0, i32 0, i32 0), [8 x i8] c" \00\00\00\00\00\00\00", [16 x i8] undef, [8 x i8] zeroinitializer, [8 x i8] undef, [8 x i8] zeroinitializer, [16 x i8] undef, [4 x i8] zeroinitializer, [4 x i8] undef, [8 x i8] zeroinitializer, i8* bitcast (void ()* @_ZN4core3ops8function6FnOnce9call_once17h1a6e2451140d4314E to i8*), [8 x i8] undef }>, align 8
@alloc686 = private unnamed_addr constant <{ i8*, i8*, i8*, i8*, i8* }> <{ i8* getelementptr inbounds (<{ [1 x i8], [7 x i8], i8*, [8 x i8], [16 x i8], [8 x i8], [8 x i8], [8 x i8], [16 x i8], [4 x i8], [4 x i8], [8 x i8], i8*, [8 x i8] }>, <{ [1 x i8], [7 x i8], i8*, [8 x i8], [16 x i8], [8 x i8], [8 x i8], [8 x i8], [16 x i8], [4 x i8], [4 x i8], [8 x i8], i8*, [8 x i8] }>* @alloc681, i32 0, i32 0, i32 0), i8* getelementptr inbounds (<{ [1 x i8], [7 x i8], i8*, [8 x i8], [16 x i8], [8 x i8], [8 x i8], [8 x i8], [16 x i8], [4 x i8], [4 x i8], [8 x i8], i8*, [8 x i8] }>, <{ [1 x i8], [7 x i8], i8*, [8 x i8], [16 x i8], [8 x i8], [8 x i8], [8 x i8], [16 x i8], [4 x i8], [4 x i8], [8 x i8], i8*, [8 x i8] }>* @alloc682, i32 0, i32 0, i32 0), i8* getelementptr inbounds (<{ [1 x i8], [7 x i8], i8*, [8 x i8], [16 x i8], [8 x i8], [8 x i8], [8 x i8], [16 x i8], [4 x i8], [4 x i8], [8 x i8], i8*, [8 x i8] }>, <{ [1 x i8], [7 x i8], i8*, [8 x i8], [16 x i8], [8 x i8], [8 x i8], [8 x i8], [16 x i8], [4 x i8], [4 x i8], [8 x i8], i8*, [8 x i8] }>* @alloc683, i32 0, i32 0, i32 0), i8* getelementptr inbounds (<{ [1 x i8], [7 x i8], i8*, [8 x i8], [16 x i8], [8 x i8], [8 x i8], [8 x i8], [16 x i8], [4 x i8], [4 x i8], [8 x i8], i8*, [8 x i8] }>, <{ [1 x i8], [7 x i8], i8*, [8 x i8], [16 x i8], [8 x i8], [8 x i8], [8 x i8], [16 x i8], [4 x i8], [4 x i8], [8 x i8], i8*, [8 x i8] }>* @alloc684, i32 0, i32 0, i32 0), i8* getelementptr inbounds (<{ [1 x i8], [7 x i8], i8*, [8 x i8], [16 x i8], [8 x i8], [8 x i8], [8 x i8], [16 x i8], [4 x i8], [4 x i8], [8 x i8], i8*, [8 x i8] }>, <{ [1 x i8], [7 x i8], i8*, [8 x i8], [16 x i8], [8 x i8], [8 x i8], [8 x i8], [16 x i8], [4 x i8], [4 x i8], [8 x i8], i8*, [8 x i8] }>* @alloc685, i32 0, i32 0, i32 0) }>, align 8
@__rustc_debug_gdb_scripts_section__ = linkonce_odr unnamed_addr constant [34 x i8] c"\01gdb_load_rust_pretty_printers.py\00", section ".debug_gdb_scripts", align 1

; std_detect::detect::arch::x86::__is_feature_detected::avx
; Function Attrs: inlinehint nonlazybind uwtable
define internal zeroext i1 @_ZN10std_detect6detect4arch3x8621__is_feature_detected3avx17h6fef41e5e181697cE() unnamed_addr #0 !dbg !294 {
start:
; call std_detect::detect::cache::test
  %0 = call zeroext i1 @_ZN10std_detect6detect5cache4test17hca4712075c628faeE(i32 14), !dbg !300
  br label %bb1, !dbg !300

bb1:                                              ; preds = %start
  ret i1 %0, !dbg !309
}

; std_detect::detect::arch::x86::__is_feature_detected::mmx
; Function Attrs: inlinehint nonlazybind uwtable
define internal zeroext i1 @_ZN10std_detect6detect4arch3x8621__is_feature_detected3mmx17h3ca72275528eb664E() unnamed_addr #0 !dbg !310 {
start:
; call std_detect::detect::cache::test
  %0 = call zeroext i1 @_ZN10std_detect6detect5cache4test17hca4712075c628faeE(i32 5), !dbg !311
  br label %bb1, !dbg !311

bb1:                                              ; preds = %start
  ret i1 %0, !dbg !317
}

; std_detect::detect::arch::x86::__is_feature_detected::ssse3
; Function Attrs: inlinehint nonlazybind uwtable
define internal zeroext i1 @_ZN10std_detect6detect4arch3x8621__is_feature_detected5ssse317h62ad16f9a0fbca19E() unnamed_addr #0 !dbg !318 {
start:
; call std_detect::detect::cache::test
  %0 = call zeroext i1 @_ZN10std_detect6detect5cache4test17hca4712075c628faeE(i32 9), !dbg !319
  br label %bb1, !dbg !319

bb1:                                              ; preds = %start
  ret i1 %0, !dbg !325
}

; std_detect::detect::arch::x86::__is_feature_detected::sse4_2
; Function Attrs: inlinehint nonlazybind uwtable
define internal zeroext i1 @_ZN10std_detect6detect4arch3x8621__is_feature_detected6sse4_217h493fc77a3accb8dcE() unnamed_addr #0 !dbg !326 {
start:
; call std_detect::detect::cache::test
  %0 = call zeroext i1 @_ZN10std_detect6detect5cache4test17hca4712075c628faeE(i32 11), !dbg !327
  br label %bb1, !dbg !327

bb1:                                              ; preds = %start
  ret i1 %0, !dbg !333
}

; std_detect::detect::cache::test
; Function Attrs: inlinehint nonlazybind uwtable
define internal zeroext i1 @_ZN10std_detect6detect5cache4test17hca4712075c628faeE(i32 %0) unnamed_addr #0 !dbg !334 {
start:
  %x.dbg.spill = alloca i8, align 1
  %idx.dbg.spill = alloca i64, align 8
  %relative_bit.dbg.spill = alloca i32, align 4
  %f = alloca i32*, align 8
  %self = alloca i8, align 1
  %_4 = alloca { i32, i64 }, align 8
  %1 = alloca i8, align 1
  %bit = alloca i32, align 4
  store i32 %0, i32* %bit, align 4
  call void @llvm.dbg.declare(metadata i32* %bit, metadata !340, metadata !DIExpression()), !dbg !344
  call void @llvm.dbg.declare(metadata i8* %self, metadata !345, metadata !DIExpression()), !dbg !376
  call void @llvm.dbg.declare(metadata i32** %f, metadata !370, metadata !DIExpression()), !dbg !376
  %_6 = load i32, i32* %bit, align 4, !dbg !378
  %_5 = icmp ult i32 %_6, 63, !dbg !378
  br i1 %_5, label %bb1, label %bb2, !dbg !378

bb2:                                              ; preds = %start
  %_9 = load i32, i32* %bit, align 4, !dbg !379
  %_8 = sub i32 %_9, 63, !dbg !379
  %2 = bitcast { i32, i64 }* %_4 to i32*, !dbg !380
  store i32 %_8, i32* %2, align 8, !dbg !380
  %3 = getelementptr inbounds { i32, i64 }, { i32, i64 }* %_4, i32 0, i32 1, !dbg !380
  store i64 1, i64* %3, align 8, !dbg !380
  br label %bb3, !dbg !381

bb1:                                              ; preds = %start
  %_7 = load i32, i32* %bit, align 4, !dbg !382
  %4 = bitcast { i32, i64 }* %_4 to i32*, !dbg !383
  store i32 %_7, i32* %4, align 8, !dbg !383
  %5 = getelementptr inbounds { i32, i64 }, { i32, i64 }* %_4, i32 0, i32 1, !dbg !383
  store i64 0, i64* %5, align 8, !dbg !383
  br label %bb3, !dbg !381

bb3:                                              ; preds = %bb2, %bb1
  %6 = bitcast { i32, i64 }* %_4 to i32*, !dbg !384
  %relative_bit = load i32, i32* %6, align 8, !dbg !384
  store i32 %relative_bit, i32* %relative_bit.dbg.spill, align 4, !dbg !384
  call void @llvm.dbg.declare(metadata i32* %relative_bit.dbg.spill, metadata !341, metadata !DIExpression()), !dbg !385
  %7 = getelementptr inbounds { i32, i64 }, { i32, i64 }* %_4, i32 0, i32 1, !dbg !386
  %idx = load i64, i64* %7, align 8, !dbg !386
  store i64 %idx, i64* %idx.dbg.spill, align 8, !dbg !386
  call void @llvm.dbg.declare(metadata i64* %idx.dbg.spill, metadata !343, metadata !DIExpression()), !dbg !387
  %_15 = icmp ult i64 %idx, 2, !dbg !377
  %8 = call i1 @llvm.expect.i1(i1 %_15, i1 true), !dbg !377
  br i1 %8, label %bb4, label %panic, !dbg !377

bb4:                                              ; preds = %bb3
  %_11 = getelementptr inbounds [2 x %"std_detect::detect::cache::Cache"], [2 x %"std_detect::detect::cache::Cache"]* @_ZN10std_detect6detect5cache5CACHE17h38d35a2bfe474544E, i64 0, i64 %idx, !dbg !377
; call std_detect::detect::cache::Cache::test
  %9 = call i8 @_ZN10std_detect6detect5cache5Cache4test17h941abdb7528aa6d2E(%"std_detect::detect::cache::Cache"* align 8 %_11, i32 %relative_bit), !dbg !377, !range !388
  store i8 %9, i8* %self, align 1, !dbg !377
  br label %bb5, !dbg !377

panic:                                            ; preds = %bb3
; call core::panicking::panic_bounds_check
  call void @_ZN4core9panicking18panic_bounds_check17h66852fee8138fdc4E(i64 %idx, i64 2, %"core::panic::location::Location"* align 8 bitcast (<{ i8*, [16 x i8] }>* @alloc689 to %"core::panic::location::Location"*)) #21, !dbg !377
  unreachable, !dbg !377

bb5:                                              ; preds = %bb4
  store i32* %bit, i32** %f, align 8, !dbg !389
  %10 = load i8, i8* %self, align 1, !dbg !376, !range !388, !noundef !23
  %11 = sub i8 %10, 2, !dbg !376
  %12 = icmp eq i8 %11, 0, !dbg !376
  %_19 = select i1 %12, i64 0, i64 1, !dbg !376
  switch i64 %_19, label %bb7 [
    i64 0, label %bb6
    i64 1, label %bb8
  ], !dbg !376

bb7:                                              ; preds = %bb5
  unreachable, !dbg !376

bb6:                                              ; preds = %bb5
  %_21 = load i32*, i32** %f, align 8, !dbg !376, !nonnull !23, !align !390, !noundef !23
; call std_detect::detect::cache::test::{{closure}}
  %13 = call zeroext i1 @"_ZN10std_detect6detect5cache4test28_$u7b$$u7b$closure$u7d$$u7d$17hcc91021c1856c20cE"(i32* align 4 %_21), !dbg !376
  %14 = zext i1 %13 to i8, !dbg !376
  store i8 %14, i8* %1, align 1, !dbg !376
  br label %bb9, !dbg !376

bb8:                                              ; preds = %bb5
  %15 = load i8, i8* %self, align 1, !dbg !376, !range !391, !noundef !23
  %x = trunc i8 %15 to i1, !dbg !376
  %16 = zext i1 %x to i8, !dbg !376
  store i8 %16, i8* %x.dbg.spill, align 1, !dbg !376
  call void @llvm.dbg.declare(metadata i8* %x.dbg.spill, metadata !371, metadata !DIExpression()), !dbg !392
  %17 = zext i1 %x to i8, !dbg !392
  store i8 %17, i8* %1, align 1, !dbg !392
  br label %bb10, !dbg !376

bb10:                                             ; preds = %bb9, %bb8
  %18 = load i8, i8* %1, align 1, !dbg !393, !range !391, !noundef !23
  %19 = trunc i8 %18 to i1, !dbg !393
  ret i1 %19, !dbg !393

bb9:                                              ; preds = %bb6
  br label %bb10, !dbg !376
}

; std_detect::detect::cache::test::{{closure}}
; Function Attrs: inlinehint nonlazybind uwtable
define internal zeroext i1 @"_ZN10std_detect6detect5cache4test28_$u7b$$u7b$closure$u7d$$u7d$17hcc91021c1856c20cE"(i32* align 4 %0) unnamed_addr #0 !dbg !394 {
start:
  %bit.dbg.spill1 = alloca i32, align 4
  %x.dbg.spill = alloca i64, align 8
  %bit.dbg.spill = alloca i32, align 4
  %self.dbg.spill = alloca i64, align 8
  %_1 = alloca i32*, align 8
  store i32* %0, i32** %_1, align 8
  %1 = load i32*, i32** %_1, align 8, !nonnull !23, !align !390, !noundef !23
  call void @llvm.dbg.declare(metadata i32** %_1, metadata !398, metadata !DIExpression(DW_OP_deref)), !dbg !399
; call std_detect::detect::cache::detect_and_initialize
  %self = call i64 @_ZN10std_detect6detect5cache21detect_and_initialize17hc9674df6a170011dE(), !dbg !400
  store i64 %self, i64* %self.dbg.spill, align 8, !dbg !400
  call void @llvm.dbg.declare(metadata i64* %self.dbg.spill, metadata !401, metadata !DIExpression()), !dbg !411
  br label %bb1, !dbg !400

bb1:                                              ; preds = %start
  %_4 = load i32*, i32** %_1, align 8, !dbg !412, !nonnull !23, !align !390, !noundef !23
  %bit = load i32, i32* %_4, align 4, !dbg !412
  store i32 %bit, i32* %bit.dbg.spill, align 4, !dbg !412
  call void @llvm.dbg.declare(metadata i32* %bit.dbg.spill, metadata !410, metadata !DIExpression()), !dbg !411
  store i64 %self, i64* %x.dbg.spill, align 8, !dbg !411
  call void @llvm.dbg.declare(metadata i64* %x.dbg.spill, metadata !413, metadata !DIExpression()), !dbg !419
  store i32 %bit, i32* %bit.dbg.spill1, align 4, !dbg !411
  call void @llvm.dbg.declare(metadata i32* %bit.dbg.spill1, metadata !418, metadata !DIExpression()), !dbg !419
  %2 = zext i32 %bit to i64, !dbg !419
  %3 = and i64 %2, 63, !dbg !419
  %_9 = shl i64 1, %3, !dbg !419
  %_7 = and i64 %self, %_9, !dbg !419
  %4 = icmp ne i64 %_7, 0, !dbg !419
  ret i1 %4, !dbg !421
}

; std_detect::detect::cache::Cache::test
; Function Attrs: inlinehint nonlazybind uwtable
define internal i8 @_ZN10std_detect6detect5cache5Cache4test17h941abdb7528aa6d2E(%"std_detect::detect::cache::Cache"* align 8 %self, i32 %bit) unnamed_addr #0 !dbg !422 {
start:
  %bit.dbg.spill5 = alloca i32, align 4
  %x.dbg.spill = alloca i64, align 8
  %cached.dbg.spill = alloca i64, align 8
  %self.dbg.spill4 = alloca i64*, align 8
  %self.dbg.spill2 = alloca %"core::sync::atomic::AtomicUsize"*, align 8
  %bit.dbg.spill = alloca i32, align 4
  %self.dbg.spill = alloca %"std_detect::detect::cache::Cache"*, align 8
  %0 = alloca i8, align 1
  store %"std_detect::detect::cache::Cache"* %self, %"std_detect::detect::cache::Cache"** %self.dbg.spill, align 8
  call void @llvm.dbg.declare(metadata %"std_detect::detect::cache::Cache"** %self.dbg.spill, metadata !439, metadata !DIExpression()), !dbg !443
  store i32 %bit, i32* %bit.dbg.spill, align 4
  call void @llvm.dbg.declare(metadata i32* %bit.dbg.spill, metadata !440, metadata !DIExpression()), !dbg !444
  %self1 = bitcast %"std_detect::detect::cache::Cache"* %self to %"core::sync::atomic::AtomicUsize"*, !dbg !445
  store %"core::sync::atomic::AtomicUsize"* %self1, %"core::sync::atomic::AtomicUsize"** %self.dbg.spill2, align 8, !dbg !445
  call void @llvm.dbg.declare(metadata %"core::sync::atomic::AtomicUsize"** %self.dbg.spill2, metadata !446, metadata !DIExpression()), !dbg !455
  %self3 = bitcast %"core::sync::atomic::AtomicUsize"* %self1 to i64*, !dbg !455
  store i64* %self3, i64** %self.dbg.spill4, align 8, !dbg !455
  call void @llvm.dbg.declare(metadata i64** %self.dbg.spill4, metadata !456, metadata !DIExpression()), !dbg !465
; call core::sync::atomic::atomic_load
  %cached = call i64 @_ZN4core4sync6atomic11atomic_load17h9dec71d96cdc95cdE(i64* %self3, i8 0), !dbg !455
  store i64 %cached, i64* %cached.dbg.spill, align 8, !dbg !455
  call void @llvm.dbg.declare(metadata i64* %cached.dbg.spill, metadata !441, metadata !DIExpression()), !dbg !467
  br label %bb4, !dbg !455

bb4:                                              ; preds = %start
  %1 = icmp eq i64 %cached, 0, !dbg !468
  br i1 %1, label %bb1, label %bb2, !dbg !468

bb1:                                              ; preds = %bb4
  store i8 2, i8* %0, align 1, !dbg !469
  br label %bb3, !dbg !470

bb2:                                              ; preds = %bb4
  store i64 %cached, i64* %x.dbg.spill, align 8, !dbg !471
  call void @llvm.dbg.declare(metadata i64* %x.dbg.spill, metadata !472, metadata !DIExpression()), !dbg !476
  store i32 %bit, i32* %bit.dbg.spill5, align 4, !dbg !478
  call void @llvm.dbg.declare(metadata i32* %bit.dbg.spill5, metadata !475, metadata !DIExpression()), !dbg !476
  %2 = zext i32 %bit to i64, !dbg !476
  %3 = and i64 %2, 63, !dbg !476
  %_19 = shl i64 1, %3, !dbg !476
  %_17 = and i64 %cached, %_19, !dbg !476
  %_7 = icmp ne i64 %_17, 0, !dbg !476
  %4 = zext i1 %_7 to i8, !dbg !479
  store i8 %4, i8* %0, align 1, !dbg !479
  br label %bb3, !dbg !470

bb3:                                              ; preds = %bb1, %bb2
  %5 = load i8, i8* %0, align 1, !dbg !480, !range !388, !noundef !23
  ret i8 %5, !dbg !480
}

; std::sys_common::backtrace::__rust_begin_short_backtrace
; Function Attrs: noinline nonlazybind uwtable
define internal void @_ZN3std10sys_common9backtrace28__rust_begin_short_backtrace17hf7d1b9f924e5b925E(void ()* %f) unnamed_addr #1 personality i32 (i32, i32, i64, %"unwind::libunwind::_Unwind_Exception"*, %"unwind::libunwind::_Unwind_Context"*)* @rust_eh_personality !dbg !481 {
start:
  %0 = alloca { i8*, i32 }, align 8
  %dummy.dbg.spill = alloca {}, align 1
  %f.dbg.spill = alloca void ()*, align 8
  %result.dbg.spill = alloca {}, align 1
  call void @llvm.dbg.declare(metadata {}* %result.dbg.spill, metadata !489, metadata !DIExpression()), !dbg !494
  store void ()* %f, void ()** %f.dbg.spill, align 8
  call void @llvm.dbg.declare(metadata void ()** %f.dbg.spill, metadata !488, metadata !DIExpression()), !dbg !495
  call void @llvm.dbg.declare(metadata {}* %dummy.dbg.spill, metadata !496, metadata !DIExpression()), !dbg !505
; call core::ops::function::FnOnce::call_once
  call void @_ZN4core3ops8function6FnOnce9call_once17h1d85da662b85fb23E(void ()* %f), !dbg !507
  br label %bb1, !dbg !507

bb1:                                              ; preds = %start
  call void asm sideeffect "", "r,~{memory}"({}* undef), !dbg !505, !srcloc !508
  br label %bb4, !dbg !505

bb4:                                              ; preds = %bb1
  ret void, !dbg !509

bb2:                                              ; No predecessors!
  br label %bb3, !dbg !510

bb3:                                              ; preds = %bb2
  %1 = bitcast { i8*, i32 }* %0 to i8**, !dbg !511
  %2 = load i8*, i8** %1, align 8, !dbg !511
  %3 = getelementptr inbounds { i8*, i32 }, { i8*, i32 }* %0, i32 0, i32 1, !dbg !511
  %4 = load i32, i32* %3, align 8, !dbg !511
  %5 = insertvalue { i8*, i32 } undef, i8* %2, 0, !dbg !511
  %6 = insertvalue { i8*, i32 } %5, i32 %4, 1, !dbg !511
  resume { i8*, i32 } %6, !dbg !511
}

; std::rt::lang_start
; Function Attrs: nonlazybind uwtable
define hidden i64 @_ZN3std2rt10lang_start17hcfa360f9d80a37d4E(void ()* %main, i64 %argc, i8** %argv) unnamed_addr #2 !dbg !512 {
start:
  %v.dbg.spill = alloca i64, align 8
  %argv.dbg.spill = alloca i8**, align 8
  %argc.dbg.spill = alloca i64, align 8
  %main.dbg.spill = alloca void ()*, align 8
  %_8 = alloca i64*, align 8
  %_4 = alloca i64, align 8
  store void ()* %main, void ()** %main.dbg.spill, align 8
  call void @llvm.dbg.declare(metadata void ()** %main.dbg.spill, metadata !520, metadata !DIExpression()), !dbg !525
  store i64 %argc, i64* %argc.dbg.spill, align 8
  call void @llvm.dbg.declare(metadata i64* %argc.dbg.spill, metadata !521, metadata !DIExpression()), !dbg !526
  store i8** %argv, i8*** %argv.dbg.spill, align 8
  call void @llvm.dbg.declare(metadata i8*** %argv.dbg.spill, metadata !522, metadata !DIExpression()), !dbg !527
  %0 = bitcast i64** %_8 to void ()**, !dbg !528
  store void ()* %main, void ()** %0, align 8, !dbg !528
  %_5.0 = bitcast i64** %_8 to {}*, !dbg !529
; call std::rt::lang_start_internal
  %1 = call i64 @_ZN3std2rt19lang_start_internal17h498f9556b87c8e5fE({}* align 1 %_5.0, [3 x i64]* align 8 bitcast (<{ i8*, [16 x i8], i8*, i8*, i8* }>* @vtable.0 to [3 x i64]*), i64 %argc, i8** %argv), !dbg !530
  store i64 %1, i64* %_4, align 8, !dbg !530
  br label %bb1, !dbg !530

bb1:                                              ; preds = %start
  %v = load i64, i64* %_4, align 8, !dbg !531
  store i64 %v, i64* %v.dbg.spill, align 8, !dbg !531
  call void @llvm.dbg.declare(metadata i64* %v.dbg.spill, metadata !523, metadata !DIExpression()), !dbg !532
  ret i64 %v, !dbg !533
}

; std::rt::lang_start::{{closure}}
; Function Attrs: inlinehint nonlazybind uwtable
define internal i32 @"_ZN3std2rt10lang_start28_$u7b$$u7b$closure$u7d$$u7d$17h0d40ca36b0899dfeE"(i64** align 8 %_1) unnamed_addr #0 !dbg !534 {
start:
  %self.dbg.spill = alloca i8*, align 8
  %_1.dbg.spill = alloca i64**, align 8
  %self = alloca i8, align 1
  store i64** %_1, i64*** %_1.dbg.spill, align 8
  %0 = load i64**, i64*** %_1.dbg.spill, align 8, !nonnull !23, !align !540, !noundef !23
  %1 = bitcast i64** %0 to void ()**
  call void @llvm.dbg.declare(metadata i64*** %_1.dbg.spill, metadata !539, metadata !DIExpression(DW_OP_deref)), !dbg !541
  call void @llvm.dbg.declare(metadata i8* %self, metadata !542, metadata !DIExpression()), !dbg !560
  %2 = bitcast i64** %_1 to void ()**, !dbg !562
  %_4 = load void ()*, void ()** %2, align 8, !dbg !562, !nonnull !23, !noundef !23
; call std::sys_common::backtrace::__rust_begin_short_backtrace
  call void @_ZN3std10sys_common9backtrace28__rust_begin_short_backtrace17hf7d1b9f924e5b925E(void ()* %_4), !dbg !561
  br label %bb1, !dbg !561

bb1:                                              ; preds = %start
; call <() as std::process::Termination>::report
  %3 = call i8 @"_ZN54_$LT$$LP$$RP$$u20$as$u20$std..process..Termination$GT$6report17h129ad5e002f50f77E"(), !dbg !561
  store i8 %3, i8* %self, align 1, !dbg !561
  br label %bb2, !dbg !561

bb2:                                              ; preds = %bb1
  store i8* %self, i8** %self.dbg.spill, align 8, !dbg !560
  call void @llvm.dbg.declare(metadata i8** %self.dbg.spill, metadata !563, metadata !DIExpression()), !dbg !571
  %_6 = load i8, i8* %self, align 1, !dbg !571
  %4 = zext i8 %_6 to i32, !dbg !571
  ret i32 %4, !dbg !573
}

; <&T as core::fmt::Debug>::fmt
; Function Attrs: nonlazybind uwtable
define internal zeroext i1 @"_ZN42_$LT$$RF$T$u20$as$u20$core..fmt..Debug$GT$3fmt17h251ef969b9d20694E"(double** align 8 %self, %"core::fmt::Formatter"* align 8 %f) unnamed_addr #2 !dbg !574 {
start:
  %f.dbg.spill = alloca %"core::fmt::Formatter"*, align 8
  %self.dbg.spill = alloca double**, align 8
  store double** %self, double*** %self.dbg.spill, align 8
  call void @llvm.dbg.declare(metadata double*** %self.dbg.spill, metadata !629, metadata !DIExpression()), !dbg !633
  store %"core::fmt::Formatter"* %f, %"core::fmt::Formatter"** %f.dbg.spill, align 8
  call void @llvm.dbg.declare(metadata %"core::fmt::Formatter"** %f.dbg.spill, metadata !630, metadata !DIExpression()), !dbg !634
  %_6 = load double*, double** %self, align 8, !dbg !635, !nonnull !23, !align !540, !noundef !23
; call core::fmt::float::<impl core::fmt::Debug for f64>::fmt
  %0 = call zeroext i1 @"_ZN4core3fmt5float50_$LT$impl$u20$core..fmt..Debug$u20$for$u20$f64$GT$3fmt17hd598d3675624ef64E"(double* align 8 %_6, %"core::fmt::Formatter"* align 8 %f), !dbg !636
  br label %bb1, !dbg !636

bb1:                                              ; preds = %start
  ret i1 %0, !dbg !637
}

; <&T as core::fmt::Debug>::fmt
; Function Attrs: nonlazybind uwtable
define internal zeroext i1 @"_ZN42_$LT$$RF$T$u20$as$u20$core..fmt..Debug$GT$3fmt17h2e6dab0646ce75e0E"(%"x86::VectorInitLists"** align 8 %self, %"core::fmt::Formatter"* align 8 %f) unnamed_addr #2 !dbg !638 {
start:
  %f.dbg.spill = alloca %"core::fmt::Formatter"*, align 8
  %self.dbg.spill = alloca %"x86::VectorInitLists"**, align 8
  store %"x86::VectorInitLists"** %self, %"x86::VectorInitLists"*** %self.dbg.spill, align 8
  call void @llvm.dbg.declare(metadata %"x86::VectorInitLists"*** %self.dbg.spill, metadata !643, metadata !DIExpression()), !dbg !647
  store %"core::fmt::Formatter"* %f, %"core::fmt::Formatter"** %f.dbg.spill, align 8
  call void @llvm.dbg.declare(metadata %"core::fmt::Formatter"** %f.dbg.spill, metadata !644, metadata !DIExpression()), !dbg !648
  %_6 = load %"x86::VectorInitLists"*, %"x86::VectorInitLists"** %self, align 8, !dbg !649, !nonnull !23, !align !650, !noundef !23
; call simd_tests::test_x86::<impl core::fmt::Debug for simd_tests::x86::VectorInitLists>::fmt
  %0 = call zeroext i1 @"_ZN10simd_tests8test_x8679_$LT$impl$u20$core..fmt..Debug$u20$for$u20$simd_tests..x86..VectorInitLists$GT$3fmt17h785c65549b439448E"(%"x86::VectorInitLists"* align 32 %_6, %"core::fmt::Formatter"* align 8 %f), !dbg !651
  br label %bb1, !dbg !651

bb1:                                              ; preds = %start
  ret i1 %0, !dbg !652
}

; <&T as core::fmt::Debug>::fmt
; Function Attrs: nonlazybind uwtable
define internal zeroext i1 @"_ZN42_$LT$$RF$T$u20$as$u20$core..fmt..Debug$GT$3fmt17h575cb61ea75ae143E"(float** align 8 %self, %"core::fmt::Formatter"* align 8 %f) unnamed_addr #2 !dbg !653 {
start:
  %f.dbg.spill = alloca %"core::fmt::Formatter"*, align 8
  %self.dbg.spill = alloca float**, align 8
  store float** %self, float*** %self.dbg.spill, align 8
  call void @llvm.dbg.declare(metadata float*** %self.dbg.spill, metadata !658, metadata !DIExpression()), !dbg !662
  store %"core::fmt::Formatter"* %f, %"core::fmt::Formatter"** %f.dbg.spill, align 8
  call void @llvm.dbg.declare(metadata %"core::fmt::Formatter"** %f.dbg.spill, metadata !659, metadata !DIExpression()), !dbg !663
  %_6 = load float*, float** %self, align 8, !dbg !664, !nonnull !23, !align !390, !noundef !23
; call core::fmt::float::<impl core::fmt::Debug for f32>::fmt
  %0 = call zeroext i1 @"_ZN4core3fmt5float50_$LT$impl$u20$core..fmt..Debug$u20$for$u20$f32$GT$3fmt17h53df062cf1414aedE"(float* align 4 %_6, %"core::fmt::Formatter"* align 8 %f), !dbg !665
  br label %bb1, !dbg !665

bb1:                                              ; preds = %start
  ret i1 %0, !dbg !666
}

; <&T as core::fmt::Debug>::fmt
; Function Attrs: nonlazybind uwtable
define internal zeroext i1 @"_ZN42_$LT$$RF$T$u20$as$u20$core..fmt..Debug$GT$3fmt17h72c2fa97d2991440E"(i32** align 8 %self, %"core::fmt::Formatter"* align 8 %f) unnamed_addr #2 !dbg !667 {
start:
  %f.dbg.spill = alloca %"core::fmt::Formatter"*, align 8
  %self.dbg.spill = alloca i32**, align 8
  store i32** %self, i32*** %self.dbg.spill, align 8
  call void @llvm.dbg.declare(metadata i32*** %self.dbg.spill, metadata !672, metadata !DIExpression()), !dbg !676
  store %"core::fmt::Formatter"* %f, %"core::fmt::Formatter"** %f.dbg.spill, align 8
  call void @llvm.dbg.declare(metadata %"core::fmt::Formatter"** %f.dbg.spill, metadata !673, metadata !DIExpression()), !dbg !677
  %_6 = load i32*, i32** %self, align 8, !dbg !678, !nonnull !23, !align !390, !noundef !23
; call core::fmt::num::<impl core::fmt::Debug for u32>::fmt
  %0 = call zeroext i1 @"_ZN4core3fmt3num50_$LT$impl$u20$core..fmt..Debug$u20$for$u20$u32$GT$3fmt17h928f4fd0b128722fE"(i32* align 4 %_6, %"core::fmt::Formatter"* align 8 %f), !dbg !679
  br label %bb1, !dbg !679

bb1:                                              ; preds = %start
  ret i1 %0, !dbg !680
}

; <&T as core::fmt::Debug>::fmt
; Function Attrs: nonlazybind uwtable
define internal zeroext i1 @"_ZN42_$LT$$RF$T$u20$as$u20$core..fmt..Debug$GT$3fmt17ha1f3ca14dd5ae5a7E"(i128** align 8 %self, %"core::fmt::Formatter"* align 8 %f) unnamed_addr #2 !dbg !681 {
start:
  %f.dbg.spill = alloca %"core::fmt::Formatter"*, align 8
  %self.dbg.spill = alloca i128**, align 8
  store i128** %self, i128*** %self.dbg.spill, align 8
  call void @llvm.dbg.declare(metadata i128*** %self.dbg.spill, metadata !686, metadata !DIExpression()), !dbg !690
  store %"core::fmt::Formatter"* %f, %"core::fmt::Formatter"** %f.dbg.spill, align 8
  call void @llvm.dbg.declare(metadata %"core::fmt::Formatter"** %f.dbg.spill, metadata !687, metadata !DIExpression()), !dbg !691
  %_6 = load i128*, i128** %self, align 8, !dbg !692, !nonnull !23, !align !540, !noundef !23
; call core::fmt::num::<impl core::fmt::Debug for u128>::fmt
  %0 = call zeroext i1 @"_ZN4core3fmt3num51_$LT$impl$u20$core..fmt..Debug$u20$for$u20$u128$GT$3fmt17h840a576b027b7d65E"(i128* align 8 %_6, %"core::fmt::Formatter"* align 8 %f), !dbg !693
  br label %bb1, !dbg !693

bb1:                                              ; preds = %start
  ret i1 %0, !dbg !694
}

; <&T as core::fmt::Debug>::fmt
; Function Attrs: nonlazybind uwtable
define internal zeroext i1 @"_ZN42_$LT$$RF$T$u20$as$u20$core..fmt..Debug$GT$3fmt17hbaec50028433fafbE"(%"x86::ShuffleVectors"** align 8 %self, %"core::fmt::Formatter"* align 8 %f) unnamed_addr #2 !dbg !695 {
start:
  %f.dbg.spill = alloca %"core::fmt::Formatter"*, align 8
  %self.dbg.spill = alloca %"x86::ShuffleVectors"**, align 8
  store %"x86::ShuffleVectors"** %self, %"x86::ShuffleVectors"*** %self.dbg.spill, align 8
  call void @llvm.dbg.declare(metadata %"x86::ShuffleVectors"*** %self.dbg.spill, metadata !700, metadata !DIExpression()), !dbg !704
  store %"core::fmt::Formatter"* %f, %"core::fmt::Formatter"** %f.dbg.spill, align 8
  call void @llvm.dbg.declare(metadata %"core::fmt::Formatter"** %f.dbg.spill, metadata !701, metadata !DIExpression()), !dbg !705
  %_6 = load %"x86::ShuffleVectors"*, %"x86::ShuffleVectors"** %self, align 8, !dbg !706, !nonnull !23, !align !650, !noundef !23
; call simd_tests::test_x86::<impl core::fmt::Debug for simd_tests::x86::ShuffleVectors>::fmt
  %0 = call zeroext i1 @"_ZN10simd_tests8test_x8678_$LT$impl$u20$core..fmt..Debug$u20$for$u20$simd_tests..x86..ShuffleVectors$GT$3fmt17h8bd64463db07f7dfE"(%"x86::ShuffleVectors"* align 32 %_6, %"core::fmt::Formatter"* align 8 %f), !dbg !707
  br label %bb1, !dbg !707

bb1:                                              ; preds = %start
  ret i1 %0, !dbg !708
}

; <&T as core::fmt::Debug>::fmt
; Function Attrs: nonlazybind uwtable
define internal zeroext i1 @"_ZN42_$LT$$RF$T$u20$as$u20$core..fmt..Debug$GT$3fmt17hd2371bb6227f481eE"(i64** align 8 %self, %"core::fmt::Formatter"* align 8 %f) unnamed_addr #2 !dbg !709 {
start:
  %f.dbg.spill = alloca %"core::fmt::Formatter"*, align 8
  %self.dbg.spill = alloca i64**, align 8
  store i64** %self, i64*** %self.dbg.spill, align 8
  call void @llvm.dbg.declare(metadata i64*** %self.dbg.spill, metadata !714, metadata !DIExpression()), !dbg !718
  store %"core::fmt::Formatter"* %f, %"core::fmt::Formatter"** %f.dbg.spill, align 8
  call void @llvm.dbg.declare(metadata %"core::fmt::Formatter"** %f.dbg.spill, metadata !715, metadata !DIExpression()), !dbg !719
  %_6 = load i64*, i64** %self, align 8, !dbg !720, !nonnull !23, !align !540, !noundef !23
; call core::fmt::num::<impl core::fmt::Debug for i64>::fmt
  %0 = call zeroext i1 @"_ZN4core3fmt3num50_$LT$impl$u20$core..fmt..Debug$u20$for$u20$i64$GT$3fmt17heecb31b9da3f6b7eE"(i64* align 8 %_6, %"core::fmt::Formatter"* align 8 %f), !dbg !721
  br label %bb1, !dbg !721

bb1:                                              ; preds = %start
  ret i1 %0, !dbg !722
}

; <&T as core::fmt::Debug>::fmt
; Function Attrs: nonlazybind uwtable
define internal zeroext i1 @"_ZN42_$LT$$RF$T$u20$as$u20$core..fmt..Debug$GT$3fmt17he6d40749726e6eb9E"(i32** align 8 %self, %"core::fmt::Formatter"* align 8 %f) unnamed_addr #2 !dbg !723 {
start:
  %f.dbg.spill = alloca %"core::fmt::Formatter"*, align 8
  %self.dbg.spill = alloca i32**, align 8
  store i32** %self, i32*** %self.dbg.spill, align 8
  call void @llvm.dbg.declare(metadata i32*** %self.dbg.spill, metadata !728, metadata !DIExpression()), !dbg !732
  store %"core::fmt::Formatter"* %f, %"core::fmt::Formatter"** %f.dbg.spill, align 8
  call void @llvm.dbg.declare(metadata %"core::fmt::Formatter"** %f.dbg.spill, metadata !729, metadata !DIExpression()), !dbg !733
  %_6 = load i32*, i32** %self, align 8, !dbg !734, !nonnull !23, !align !390, !noundef !23
; call core::fmt::num::<impl core::fmt::Debug for i32>::fmt
  %0 = call zeroext i1 @"_ZN4core3fmt3num50_$LT$impl$u20$core..fmt..Debug$u20$for$u20$i32$GT$3fmt17hf79bfc2e3c9b2eb6E"(i32* align 4 %_6, %"core::fmt::Formatter"* align 8 %f), !dbg !735
  br label %bb1, !dbg !735

bb1:                                              ; preds = %start
  ret i1 %0, !dbg !736
}

; <&T as core::fmt::Display>::fmt
; Function Attrs: nonlazybind uwtable
define internal zeroext i1 @"_ZN44_$LT$$RF$T$u20$as$u20$core..fmt..Display$GT$3fmt17h425b5a9f415eeb65E"({ [0 x i8]*, i64 }* align 8 %self, %"core::fmt::Formatter"* align 8 %f) unnamed_addr #2 !dbg !737 {
start:
  %f.dbg.spill = alloca %"core::fmt::Formatter"*, align 8
  %self.dbg.spill = alloca { [0 x i8]*, i64 }*, align 8
  store { [0 x i8]*, i64 }* %self, { [0 x i8]*, i64 }** %self.dbg.spill, align 8
  call void @llvm.dbg.declare(metadata { [0 x i8]*, i64 }** %self.dbg.spill, metadata !743, metadata !DIExpression()), !dbg !747
  store %"core::fmt::Formatter"* %f, %"core::fmt::Formatter"** %f.dbg.spill, align 8
  call void @llvm.dbg.declare(metadata %"core::fmt::Formatter"** %f.dbg.spill, metadata !744, metadata !DIExpression()), !dbg !748
  %0 = getelementptr inbounds { [0 x i8]*, i64 }, { [0 x i8]*, i64 }* %self, i32 0, i32 0, !dbg !749
  %_6.0 = load [0 x i8]*, [0 x i8]** %0, align 8, !dbg !749, !nonnull !23, !align !750, !noundef !23
  %1 = getelementptr inbounds { [0 x i8]*, i64 }, { [0 x i8]*, i64 }* %self, i32 0, i32 1, !dbg !749
  %_6.1 = load i64, i64* %1, align 8, !dbg !749
; call <str as core::fmt::Display>::fmt
  %2 = call zeroext i1 @"_ZN42_$LT$str$u20$as$u20$core..fmt..Display$GT$3fmt17hde81f4d22eef4d42E"([0 x i8]* align 1 %_6.0, i64 %_6.1, %"core::fmt::Formatter"* align 8 %f), !dbg !751
  br label %bb1, !dbg !751

bb1:                                              ; preds = %start
  ret i1 %2, !dbg !752
}

; core::cmp::impls::<impl core::cmp::PartialEq for f32>::ne
; Function Attrs: inlinehint nonlazybind uwtable
define internal zeroext i1 @"_ZN4core3cmp5impls54_$LT$impl$u20$core..cmp..PartialEq$u20$for$u20$f32$GT$2ne17hb8144ed937eabccaE"(float* align 4 %self, float* align 4 %other) unnamed_addr #0 !dbg !753 {
start:
  %other.dbg.spill = alloca float*, align 8
  %self.dbg.spill = alloca float*, align 8
  store float* %self, float** %self.dbg.spill, align 8
  call void @llvm.dbg.declare(metadata float** %self.dbg.spill, metadata !761, metadata !DIExpression()), !dbg !763
  store float* %other, float** %other.dbg.spill, align 8
  call void @llvm.dbg.declare(metadata float** %other.dbg.spill, metadata !762, metadata !DIExpression()), !dbg !764
  %_3 = load float, float* %self, align 4, !dbg !765
  %_4 = load float, float* %other, align 4, !dbg !766
  %0 = fcmp une float %_3, %_4, !dbg !765
  ret i1 %0, !dbg !767
}

; core::cmp::impls::<impl core::cmp::PartialEq for f64>::ne
; Function Attrs: inlinehint nonlazybind uwtable
define internal zeroext i1 @"_ZN4core3cmp5impls54_$LT$impl$u20$core..cmp..PartialEq$u20$for$u20$f64$GT$2ne17h83220a700b1818eeE"(double* align 8 %self, double* align 8 %other) unnamed_addr #0 !dbg !768 {
start:
  %other.dbg.spill = alloca double*, align 8
  %self.dbg.spill = alloca double*, align 8
  store double* %self, double** %self.dbg.spill, align 8
  call void @llvm.dbg.declare(metadata double** %self.dbg.spill, metadata !773, metadata !DIExpression()), !dbg !775
  store double* %other, double** %other.dbg.spill, align 8
  call void @llvm.dbg.declare(metadata double** %other.dbg.spill, metadata !774, metadata !DIExpression()), !dbg !776
  %_3 = load double, double* %self, align 8, !dbg !777
  %_4 = load double, double* %other, align 8, !dbg !778
  %0 = fcmp une double %_3, %_4, !dbg !777
  ret i1 %0, !dbg !779
}

; core::cmp::impls::<impl core::cmp::PartialEq for i64>::ne
; Function Attrs: inlinehint nonlazybind uwtable
define internal zeroext i1 @"_ZN4core3cmp5impls54_$LT$impl$u20$core..cmp..PartialEq$u20$for$u20$i64$GT$2ne17hc7de2b767815b83dE"(i64* align 8 %self, i64* align 8 %other) unnamed_addr #0 !dbg !780 {
start:
  %other.dbg.spill = alloca i64*, align 8
  %self.dbg.spill = alloca i64*, align 8
  store i64* %self, i64** %self.dbg.spill, align 8
  call void @llvm.dbg.declare(metadata i64** %self.dbg.spill, metadata !785, metadata !DIExpression()), !dbg !787
  store i64* %other, i64** %other.dbg.spill, align 8
  call void @llvm.dbg.declare(metadata i64** %other.dbg.spill, metadata !786, metadata !DIExpression()), !dbg !788
  %_3 = load i64, i64* %self, align 8, !dbg !789
  %_4 = load i64, i64* %other, align 8, !dbg !790
  %0 = icmp ne i64 %_3, %_4, !dbg !789
  ret i1 %0, !dbg !791
}

; core::cmp::impls::<impl core::cmp::PartialEq for u128>::ne
; Function Attrs: inlinehint nonlazybind uwtable
define internal zeroext i1 @"_ZN4core3cmp5impls55_$LT$impl$u20$core..cmp..PartialEq$u20$for$u20$u128$GT$2ne17hc9b32d5b4a6e27feE"(i128* align 8 %self, i128* align 8 %other) unnamed_addr #0 !dbg !792 {
start:
  %other.dbg.spill = alloca i128*, align 8
  %self.dbg.spill = alloca i128*, align 8
  store i128* %self, i128** %self.dbg.spill, align 8
  call void @llvm.dbg.declare(metadata i128** %self.dbg.spill, metadata !797, metadata !DIExpression()), !dbg !799
  store i128* %other, i128** %other.dbg.spill, align 8
  call void @llvm.dbg.declare(metadata i128** %other.dbg.spill, metadata !798, metadata !DIExpression()), !dbg !800
  %_3 = load i128, i128* %self, align 8, !dbg !801
  %_4 = load i128, i128* %other, align 8, !dbg !802
  %0 = icmp ne i128 %_3, %_4, !dbg !801
  ret i1 %0, !dbg !803
}

; core::fmt::ArgumentV1::new_display
; Function Attrs: inlinehint nonlazybind uwtable
define internal { i8*, i64* } @_ZN4core3fmt10ArgumentV111new_display17ha45a7654fea7bc2dE({ [0 x i8]*, i64 }* align 8 %x) unnamed_addr #0 !dbg !804 {
start:
  %0 = alloca %"core::fmt::Opaque"*, align 8
  %1 = alloca i1 (%"core::fmt::Opaque"*, %"core::fmt::Formatter"*)*, align 8
  %f.dbg.spill = alloca i1 ({ [0 x i8]*, i64 }*, %"core::fmt::Formatter"*)*, align 8
  %x.dbg.spill1 = alloca { [0 x i8]*, i64 }*, align 8
  %x.dbg.spill = alloca { [0 x i8]*, i64 }*, align 8
  %2 = alloca { i8*, i64* }, align 8
  store { [0 x i8]*, i64 }* %x, { [0 x i8]*, i64 }** %x.dbg.spill, align 8
  call void @llvm.dbg.declare(metadata { [0 x i8]*, i64 }** %x.dbg.spill, metadata !818, metadata !DIExpression()), !dbg !821
  store { [0 x i8]*, i64 }* %x, { [0 x i8]*, i64 }** %x.dbg.spill1, align 8, !dbg !822
  call void @llvm.dbg.declare(metadata { [0 x i8]*, i64 }** %x.dbg.spill1, metadata !823, metadata !DIExpression()), !dbg !830
  store i1 ({ [0 x i8]*, i64 }*, %"core::fmt::Formatter"*)* @"_ZN44_$LT$$RF$T$u20$as$u20$core..fmt..Display$GT$3fmt17h425b5a9f415eeb65E", i1 ({ [0 x i8]*, i64 }*, %"core::fmt::Formatter"*)** %f.dbg.spill, align 8, !dbg !832
  call void @llvm.dbg.declare(metadata i1 ({ [0 x i8]*, i64 }*, %"core::fmt::Formatter"*)** %f.dbg.spill, metadata !829, metadata !DIExpression()), !dbg !830
  store i1 (%"core::fmt::Opaque"*, %"core::fmt::Formatter"*)* bitcast (i1 ({ [0 x i8]*, i64 }*, %"core::fmt::Formatter"*)* @"_ZN44_$LT$$RF$T$u20$as$u20$core..fmt..Display$GT$3fmt17h425b5a9f415eeb65E" to i1 (%"core::fmt::Opaque"*, %"core::fmt::Formatter"*)*), i1 (%"core::fmt::Opaque"*, %"core::fmt::Formatter"*)** %1, align 8, !dbg !830
  %_4 = load i1 (%"core::fmt::Opaque"*, %"core::fmt::Formatter"*)*, i1 (%"core::fmt::Opaque"*, %"core::fmt::Formatter"*)** %1, align 8, !dbg !830, !nonnull !23, !noundef !23
  br label %bb1, !dbg !830

bb1:                                              ; preds = %start
  %3 = bitcast { [0 x i8]*, i64 }* %x to %"core::fmt::Opaque"*, !dbg !830
  store %"core::fmt::Opaque"* %3, %"core::fmt::Opaque"** %0, align 8, !dbg !830
  %_6 = load %"core::fmt::Opaque"*, %"core::fmt::Opaque"** %0, align 8, !dbg !830, !nonnull !23, !align !750, !noundef !23
  br label %bb2, !dbg !830

bb2:                                              ; preds = %bb1
  %4 = bitcast { i8*, i64* }* %2 to %"core::fmt::Opaque"**, !dbg !830
  store %"core::fmt::Opaque"* %_6, %"core::fmt::Opaque"** %4, align 8, !dbg !830
  %5 = getelementptr inbounds { i8*, i64* }, { i8*, i64* }* %2, i32 0, i32 1, !dbg !830
  %6 = bitcast i64** %5 to i1 (%"core::fmt::Opaque"*, %"core::fmt::Formatter"*)**, !dbg !830
  store i1 (%"core::fmt::Opaque"*, %"core::fmt::Formatter"*)* %_4, i1 (%"core::fmt::Opaque"*, %"core::fmt::Formatter"*)** %6, align 8, !dbg !830
  %7 = getelementptr inbounds { i8*, i64* }, { i8*, i64* }* %2, i32 0, i32 0, !dbg !833
  %8 = load i8*, i8** %7, align 8, !dbg !833, !nonnull !23, !align !750, !noundef !23
  %9 = getelementptr inbounds { i8*, i64* }, { i8*, i64* }* %2, i32 0, i32 1, !dbg !833
  %10 = load i64*, i64** %9, align 8, !dbg !833, !nonnull !23, !noundef !23
  %11 = insertvalue { i8*, i64* } undef, i8* %8, 0, !dbg !833
  %12 = insertvalue { i8*, i64* } %11, i64* %10, 1, !dbg !833
  ret { i8*, i64* } %12, !dbg !833
}

; core::fmt::ArgumentV1::new_debug
; Function Attrs: inlinehint nonlazybind uwtable
define internal { i8*, i64* } @_ZN4core3fmt10ArgumentV19new_debug17h1ce2788ad385f3e0E(i128* align 8 %x) unnamed_addr #0 !dbg !834 {
start:
  %0 = alloca %"core::fmt::Opaque"*, align 8
  %1 = alloca i1 (%"core::fmt::Opaque"*, %"core::fmt::Formatter"*)*, align 8
  %f.dbg.spill = alloca i1 (i128*, %"core::fmt::Formatter"*)*, align 8
  %x.dbg.spill1 = alloca i128*, align 8
  %x.dbg.spill = alloca i128*, align 8
  %2 = alloca { i8*, i64* }, align 8
  store i128* %x, i128** %x.dbg.spill, align 8
  call void @llvm.dbg.declare(metadata i128** %x.dbg.spill, metadata !838, metadata !DIExpression()), !dbg !839
  store i128* %x, i128** %x.dbg.spill1, align 8, !dbg !840
  call void @llvm.dbg.declare(metadata i128** %x.dbg.spill1, metadata !841, metadata !DIExpression()), !dbg !850
  store i1 (i128*, %"core::fmt::Formatter"*)* @"_ZN4core3fmt3num51_$LT$impl$u20$core..fmt..Debug$u20$for$u20$u128$GT$3fmt17h840a576b027b7d65E", i1 (i128*, %"core::fmt::Formatter"*)** %f.dbg.spill, align 8, !dbg !852
  call void @llvm.dbg.declare(metadata i1 (i128*, %"core::fmt::Formatter"*)** %f.dbg.spill, metadata !849, metadata !DIExpression()), !dbg !850
  store i1 (%"core::fmt::Opaque"*, %"core::fmt::Formatter"*)* bitcast (i1 (i128*, %"core::fmt::Formatter"*)* @"_ZN4core3fmt3num51_$LT$impl$u20$core..fmt..Debug$u20$for$u20$u128$GT$3fmt17h840a576b027b7d65E" to i1 (%"core::fmt::Opaque"*, %"core::fmt::Formatter"*)*), i1 (%"core::fmt::Opaque"*, %"core::fmt::Formatter"*)** %1, align 8, !dbg !850
  %_4 = load i1 (%"core::fmt::Opaque"*, %"core::fmt::Formatter"*)*, i1 (%"core::fmt::Opaque"*, %"core::fmt::Formatter"*)** %1, align 8, !dbg !850, !nonnull !23, !noundef !23
  br label %bb1, !dbg !850

bb1:                                              ; preds = %start
  %3 = bitcast i128* %x to %"core::fmt::Opaque"*, !dbg !850
  store %"core::fmt::Opaque"* %3, %"core::fmt::Opaque"** %0, align 8, !dbg !850
  %_6 = load %"core::fmt::Opaque"*, %"core::fmt::Opaque"** %0, align 8, !dbg !850, !nonnull !23, !align !750, !noundef !23
  br label %bb2, !dbg !850

bb2:                                              ; preds = %bb1
  %4 = bitcast { i8*, i64* }* %2 to %"core::fmt::Opaque"**, !dbg !850
  store %"core::fmt::Opaque"* %_6, %"core::fmt::Opaque"** %4, align 8, !dbg !850
  %5 = getelementptr inbounds { i8*, i64* }, { i8*, i64* }* %2, i32 0, i32 1, !dbg !850
  %6 = bitcast i64** %5 to i1 (%"core::fmt::Opaque"*, %"core::fmt::Formatter"*)**, !dbg !850
  store i1 (%"core::fmt::Opaque"*, %"core::fmt::Formatter"*)* %_4, i1 (%"core::fmt::Opaque"*, %"core::fmt::Formatter"*)** %6, align 8, !dbg !850
  %7 = getelementptr inbounds { i8*, i64* }, { i8*, i64* }* %2, i32 0, i32 0, !dbg !853
  %8 = load i8*, i8** %7, align 8, !dbg !853, !nonnull !23, !align !750, !noundef !23
  %9 = getelementptr inbounds { i8*, i64* }, { i8*, i64* }* %2, i32 0, i32 1, !dbg !853
  %10 = load i64*, i64** %9, align 8, !dbg !853, !nonnull !23, !noundef !23
  %11 = insertvalue { i8*, i64* } undef, i8* %8, 0, !dbg !853
  %12 = insertvalue { i8*, i64* } %11, i64* %10, 1, !dbg !853
  ret { i8*, i64* } %12, !dbg !853
}

; core::fmt::ArgumentV1::new_debug
; Function Attrs: inlinehint nonlazybind uwtable
define internal { i8*, i64* } @_ZN4core3fmt10ArgumentV19new_debug17h43f9f76f95ea75bbE({ float, float, float, float }* align 4 %x) unnamed_addr #0 !dbg !854 {
start:
  %0 = alloca %"core::fmt::Opaque"*, align 8
  %1 = alloca i1 (%"core::fmt::Opaque"*, %"core::fmt::Formatter"*)*, align 8
  %f.dbg.spill = alloca i1 ({ float, float, float, float }*, %"core::fmt::Formatter"*)*, align 8
  %x.dbg.spill1 = alloca { float, float, float, float }*, align 8
  %x.dbg.spill = alloca { float, float, float, float }*, align 8
  %2 = alloca { i8*, i64* }, align 8
  store { float, float, float, float }* %x, { float, float, float, float }** %x.dbg.spill, align 8
  call void @llvm.dbg.declare(metadata { float, float, float, float }** %x.dbg.spill, metadata !865, metadata !DIExpression()), !dbg !868
  store { float, float, float, float }* %x, { float, float, float, float }** %x.dbg.spill1, align 8, !dbg !869
  call void @llvm.dbg.declare(metadata { float, float, float, float }** %x.dbg.spill1, metadata !870, metadata !DIExpression()), !dbg !879
  store i1 ({ float, float, float, float }*, %"core::fmt::Formatter"*)* @"_ZN58_$LT$$LP$W$C$V$C$U$C$T$RP$$u20$as$u20$core..fmt..Debug$GT$3fmt17h887df0b18ccd32b5E", i1 ({ float, float, float, float }*, %"core::fmt::Formatter"*)** %f.dbg.spill, align 8, !dbg !881
  call void @llvm.dbg.declare(metadata i1 ({ float, float, float, float }*, %"core::fmt::Formatter"*)** %f.dbg.spill, metadata !878, metadata !DIExpression()), !dbg !879
  store i1 (%"core::fmt::Opaque"*, %"core::fmt::Formatter"*)* bitcast (i1 ({ float, float, float, float }*, %"core::fmt::Formatter"*)* @"_ZN58_$LT$$LP$W$C$V$C$U$C$T$RP$$u20$as$u20$core..fmt..Debug$GT$3fmt17h887df0b18ccd32b5E" to i1 (%"core::fmt::Opaque"*, %"core::fmt::Formatter"*)*), i1 (%"core::fmt::Opaque"*, %"core::fmt::Formatter"*)** %1, align 8, !dbg !879
  %_4 = load i1 (%"core::fmt::Opaque"*, %"core::fmt::Formatter"*)*, i1 (%"core::fmt::Opaque"*, %"core::fmt::Formatter"*)** %1, align 8, !dbg !879, !nonnull !23, !noundef !23
  br label %bb1, !dbg !879

bb1:                                              ; preds = %start
  %3 = bitcast { float, float, float, float }* %x to %"core::fmt::Opaque"*, !dbg !879
  store %"core::fmt::Opaque"* %3, %"core::fmt::Opaque"** %0, align 8, !dbg !879
  %_6 = load %"core::fmt::Opaque"*, %"core::fmt::Opaque"** %0, align 8, !dbg !879, !nonnull !23, !align !750, !noundef !23
  br label %bb2, !dbg !879

bb2:                                              ; preds = %bb1
  %4 = bitcast { i8*, i64* }* %2 to %"core::fmt::Opaque"**, !dbg !879
  store %"core::fmt::Opaque"* %_6, %"core::fmt::Opaque"** %4, align 8, !dbg !879
  %5 = getelementptr inbounds { i8*, i64* }, { i8*, i64* }* %2, i32 0, i32 1, !dbg !879
  %6 = bitcast i64** %5 to i1 (%"core::fmt::Opaque"*, %"core::fmt::Formatter"*)**, !dbg !879
  store i1 (%"core::fmt::Opaque"*, %"core::fmt::Formatter"*)* %_4, i1 (%"core::fmt::Opaque"*, %"core::fmt::Formatter"*)** %6, align 8, !dbg !879
  %7 = getelementptr inbounds { i8*, i64* }, { i8*, i64* }* %2, i32 0, i32 0, !dbg !882
  %8 = load i8*, i8** %7, align 8, !dbg !882, !nonnull !23, !align !750, !noundef !23
  %9 = getelementptr inbounds { i8*, i64* }, { i8*, i64* }* %2, i32 0, i32 1, !dbg !882
  %10 = load i64*, i64** %9, align 8, !dbg !882, !nonnull !23, !noundef !23
  %11 = insertvalue { i8*, i64* } undef, i8* %8, 0, !dbg !882
  %12 = insertvalue { i8*, i64* } %11, i64* %10, 1, !dbg !882
  ret { i8*, i64* } %12, !dbg !882
}

; core::fmt::ArgumentV1::new_debug
; Function Attrs: inlinehint nonlazybind uwtable
define internal { i8*, i64* } @_ZN4core3fmt10ArgumentV19new_debug17h60ca90ee08418d6eE({ i64, i64 }* align 8 %x) unnamed_addr #0 !dbg !883 {
start:
  %0 = alloca %"core::fmt::Opaque"*, align 8
  %1 = alloca i1 (%"core::fmt::Opaque"*, %"core::fmt::Formatter"*)*, align 8
  %f.dbg.spill = alloca i1 ({ i64, i64 }*, %"core::fmt::Formatter"*)*, align 8
  %x.dbg.spill1 = alloca { i64, i64 }*, align 8
  %x.dbg.spill = alloca { i64, i64 }*, align 8
  %2 = alloca { i8*, i64* }, align 8
  store { i64, i64 }* %x, { i64, i64 }** %x.dbg.spill, align 8
  call void @llvm.dbg.declare(metadata { i64, i64 }** %x.dbg.spill, metadata !892, metadata !DIExpression()), !dbg !895
  store { i64, i64 }* %x, { i64, i64 }** %x.dbg.spill1, align 8, !dbg !896
  call void @llvm.dbg.declare(metadata { i64, i64 }** %x.dbg.spill1, metadata !897, metadata !DIExpression()), !dbg !906
  store i1 ({ i64, i64 }*, %"core::fmt::Formatter"*)* @"_ZN50_$LT$$LP$U$C$T$RP$$u20$as$u20$core..fmt..Debug$GT$3fmt17h5d8c4067a415c6adE", i1 ({ i64, i64 }*, %"core::fmt::Formatter"*)** %f.dbg.spill, align 8, !dbg !908
  call void @llvm.dbg.declare(metadata i1 ({ i64, i64 }*, %"core::fmt::Formatter"*)** %f.dbg.spill, metadata !905, metadata !DIExpression()), !dbg !906
  store i1 (%"core::fmt::Opaque"*, %"core::fmt::Formatter"*)* bitcast (i1 ({ i64, i64 }*, %"core::fmt::Formatter"*)* @"_ZN50_$LT$$LP$U$C$T$RP$$u20$as$u20$core..fmt..Debug$GT$3fmt17h5d8c4067a415c6adE" to i1 (%"core::fmt::Opaque"*, %"core::fmt::Formatter"*)*), i1 (%"core::fmt::Opaque"*, %"core::fmt::Formatter"*)** %1, align 8, !dbg !906
  %_4 = load i1 (%"core::fmt::Opaque"*, %"core::fmt::Formatter"*)*, i1 (%"core::fmt::Opaque"*, %"core::fmt::Formatter"*)** %1, align 8, !dbg !906, !nonnull !23, !noundef !23
  br label %bb1, !dbg !906

bb1:                                              ; preds = %start
  %3 = bitcast { i64, i64 }* %x to %"core::fmt::Opaque"*, !dbg !906
  store %"core::fmt::Opaque"* %3, %"core::fmt::Opaque"** %0, align 8, !dbg !906
  %_6 = load %"core::fmt::Opaque"*, %"core::fmt::Opaque"** %0, align 8, !dbg !906, !nonnull !23, !align !750, !noundef !23
  br label %bb2, !dbg !906

bb2:                                              ; preds = %bb1
  %4 = bitcast { i8*, i64* }* %2 to %"core::fmt::Opaque"**, !dbg !906
  store %"core::fmt::Opaque"* %_6, %"core::fmt::Opaque"** %4, align 8, !dbg !906
  %5 = getelementptr inbounds { i8*, i64* }, { i8*, i64* }* %2, i32 0, i32 1, !dbg !906
  %6 = bitcast i64** %5 to i1 (%"core::fmt::Opaque"*, %"core::fmt::Formatter"*)**, !dbg !906
  store i1 (%"core::fmt::Opaque"*, %"core::fmt::Formatter"*)* %_4, i1 (%"core::fmt::Opaque"*, %"core::fmt::Formatter"*)** %6, align 8, !dbg !906
  %7 = getelementptr inbounds { i8*, i64* }, { i8*, i64* }* %2, i32 0, i32 0, !dbg !909
  %8 = load i8*, i8** %7, align 8, !dbg !909, !nonnull !23, !align !750, !noundef !23
  %9 = getelementptr inbounds { i8*, i64* }, { i8*, i64* }* %2, i32 0, i32 1, !dbg !909
  %10 = load i64*, i64** %9, align 8, !dbg !909, !nonnull !23, !noundef !23
  %11 = insertvalue { i8*, i64* } undef, i8* %8, 0, !dbg !909
  %12 = insertvalue { i8*, i64* } %11, i64* %10, 1, !dbg !909
  ret { i8*, i64* } %12, !dbg !909
}

; core::fmt::ArgumentV1::new_debug
; Function Attrs: inlinehint nonlazybind uwtable
define internal { i8*, i64* } @_ZN4core3fmt10ArgumentV19new_debug17h716795f47091129dE({ i128, i128 }* align 8 %x) unnamed_addr #0 !dbg !910 {
start:
  %0 = alloca %"core::fmt::Opaque"*, align 8
  %1 = alloca i1 (%"core::fmt::Opaque"*, %"core::fmt::Formatter"*)*, align 8
  %f.dbg.spill = alloca i1 ({ i128, i128 }*, %"core::fmt::Formatter"*)*, align 8
  %x.dbg.spill1 = alloca { i128, i128 }*, align 8
  %x.dbg.spill = alloca { i128, i128 }*, align 8
  %2 = alloca { i8*, i64* }, align 8
  store { i128, i128 }* %x, { i128, i128 }** %x.dbg.spill, align 8
  call void @llvm.dbg.declare(metadata { i128, i128 }** %x.dbg.spill, metadata !919, metadata !DIExpression()), !dbg !922
  store { i128, i128 }* %x, { i128, i128 }** %x.dbg.spill1, align 8, !dbg !923
  call void @llvm.dbg.declare(metadata { i128, i128 }** %x.dbg.spill1, metadata !924, metadata !DIExpression()), !dbg !933
  store i1 ({ i128, i128 }*, %"core::fmt::Formatter"*)* @"_ZN50_$LT$$LP$U$C$T$RP$$u20$as$u20$core..fmt..Debug$GT$3fmt17h63868eaf07cb1eeeE", i1 ({ i128, i128 }*, %"core::fmt::Formatter"*)** %f.dbg.spill, align 8, !dbg !935
  call void @llvm.dbg.declare(metadata i1 ({ i128, i128 }*, %"core::fmt::Formatter"*)** %f.dbg.spill, metadata !932, metadata !DIExpression()), !dbg !933
  store i1 (%"core::fmt::Opaque"*, %"core::fmt::Formatter"*)* bitcast (i1 ({ i128, i128 }*, %"core::fmt::Formatter"*)* @"_ZN50_$LT$$LP$U$C$T$RP$$u20$as$u20$core..fmt..Debug$GT$3fmt17h63868eaf07cb1eeeE" to i1 (%"core::fmt::Opaque"*, %"core::fmt::Formatter"*)*), i1 (%"core::fmt::Opaque"*, %"core::fmt::Formatter"*)** %1, align 8, !dbg !933
  %_4 = load i1 (%"core::fmt::Opaque"*, %"core::fmt::Formatter"*)*, i1 (%"core::fmt::Opaque"*, %"core::fmt::Formatter"*)** %1, align 8, !dbg !933, !nonnull !23, !noundef !23
  br label %bb1, !dbg !933

bb1:                                              ; preds = %start
  %3 = bitcast { i128, i128 }* %x to %"core::fmt::Opaque"*, !dbg !933
  store %"core::fmt::Opaque"* %3, %"core::fmt::Opaque"** %0, align 8, !dbg !933
  %_6 = load %"core::fmt::Opaque"*, %"core::fmt::Opaque"** %0, align 8, !dbg !933, !nonnull !23, !align !750, !noundef !23
  br label %bb2, !dbg !933

bb2:                                              ; preds = %bb1
  %4 = bitcast { i8*, i64* }* %2 to %"core::fmt::Opaque"**, !dbg !933
  store %"core::fmt::Opaque"* %_6, %"core::fmt::Opaque"** %4, align 8, !dbg !933
  %5 = getelementptr inbounds { i8*, i64* }, { i8*, i64* }* %2, i32 0, i32 1, !dbg !933
  %6 = bitcast i64** %5 to i1 (%"core::fmt::Opaque"*, %"core::fmt::Formatter"*)**, !dbg !933
  store i1 (%"core::fmt::Opaque"*, %"core::fmt::Formatter"*)* %_4, i1 (%"core::fmt::Opaque"*, %"core::fmt::Formatter"*)** %6, align 8, !dbg !933
  %7 = getelementptr inbounds { i8*, i64* }, { i8*, i64* }* %2, i32 0, i32 0, !dbg !936
  %8 = load i8*, i8** %7, align 8, !dbg !936, !nonnull !23, !align !750, !noundef !23
  %9 = getelementptr inbounds { i8*, i64* }, { i8*, i64* }* %2, i32 0, i32 1, !dbg !936
  %10 = load i64*, i64** %9, align 8, !dbg !936, !nonnull !23, !noundef !23
  %11 = insertvalue { i8*, i64* } undef, i8* %8, 0, !dbg !936
  %12 = insertvalue { i8*, i64* } %11, i64* %10, 1, !dbg !936
  ret { i8*, i64* } %12, !dbg !936
}

; core::fmt::ArgumentV1::new_debug
; Function Attrs: inlinehint nonlazybind uwtable
define internal { i8*, i64* } @_ZN4core3fmt10ArgumentV19new_debug17h78c7b143b8da556cE({ float, float, float, float, float, float, float, float }* align 4 %x) unnamed_addr #0 !dbg !937 {
start:
  %0 = alloca %"core::fmt::Opaque"*, align 8
  %1 = alloca i1 (%"core::fmt::Opaque"*, %"core::fmt::Formatter"*)*, align 8
  %f.dbg.spill = alloca i1 ({ float, float, float, float, float, float, float, float }*, %"core::fmt::Formatter"*)*, align 8
  %x.dbg.spill1 = alloca { float, float, float, float, float, float, float, float }*, align 8
  %x.dbg.spill = alloca { float, float, float, float, float, float, float, float }*, align 8
  %2 = alloca { i8*, i64* }, align 8
  store { float, float, float, float, float, float, float, float }* %x, { float, float, float, float, float, float, float, float }** %x.dbg.spill, align 8
  call void @llvm.dbg.declare(metadata { float, float, float, float, float, float, float, float }** %x.dbg.spill, metadata !952, metadata !DIExpression()), !dbg !955
  store { float, float, float, float, float, float, float, float }* %x, { float, float, float, float, float, float, float, float }** %x.dbg.spill1, align 8, !dbg !956
  call void @llvm.dbg.declare(metadata { float, float, float, float, float, float, float, float }** %x.dbg.spill1, metadata !957, metadata !DIExpression()), !dbg !966
  store i1 ({ float, float, float, float, float, float, float, float }*, %"core::fmt::Formatter"*)* @"_ZN74_$LT$$LP$A$C$Z$C$Y$C$X$C$W$C$V$C$U$C$T$RP$$u20$as$u20$core..fmt..Debug$GT$3fmt17hecbaae8d7eade5b5E", i1 ({ float, float, float, float, float, float, float, float }*, %"core::fmt::Formatter"*)** %f.dbg.spill, align 8, !dbg !968
  call void @llvm.dbg.declare(metadata i1 ({ float, float, float, float, float, float, float, float }*, %"core::fmt::Formatter"*)** %f.dbg.spill, metadata !965, metadata !DIExpression()), !dbg !966
  store i1 (%"core::fmt::Opaque"*, %"core::fmt::Formatter"*)* bitcast (i1 ({ float, float, float, float, float, float, float, float }*, %"core::fmt::Formatter"*)* @"_ZN74_$LT$$LP$A$C$Z$C$Y$C$X$C$W$C$V$C$U$C$T$RP$$u20$as$u20$core..fmt..Debug$GT$3fmt17hecbaae8d7eade5b5E" to i1 (%"core::fmt::Opaque"*, %"core::fmt::Formatter"*)*), i1 (%"core::fmt::Opaque"*, %"core::fmt::Formatter"*)** %1, align 8, !dbg !966
  %_4 = load i1 (%"core::fmt::Opaque"*, %"core::fmt::Formatter"*)*, i1 (%"core::fmt::Opaque"*, %"core::fmt::Formatter"*)** %1, align 8, !dbg !966, !nonnull !23, !noundef !23
  br label %bb1, !dbg !966

bb1:                                              ; preds = %start
  %3 = bitcast { float, float, float, float, float, float, float, float }* %x to %"core::fmt::Opaque"*, !dbg !966
  store %"core::fmt::Opaque"* %3, %"core::fmt::Opaque"** %0, align 8, !dbg !966
  %_6 = load %"core::fmt::Opaque"*, %"core::fmt::Opaque"** %0, align 8, !dbg !966, !nonnull !23, !align !750, !noundef !23
  br label %bb2, !dbg !966

bb2:                                              ; preds = %bb1
  %4 = bitcast { i8*, i64* }* %2 to %"core::fmt::Opaque"**, !dbg !966
  store %"core::fmt::Opaque"* %_6, %"core::fmt::Opaque"** %4, align 8, !dbg !966
  %5 = getelementptr inbounds { i8*, i64* }, { i8*, i64* }* %2, i32 0, i32 1, !dbg !966
  %6 = bitcast i64** %5 to i1 (%"core::fmt::Opaque"*, %"core::fmt::Formatter"*)**, !dbg !966
  store i1 (%"core::fmt::Opaque"*, %"core::fmt::Formatter"*)* %_4, i1 (%"core::fmt::Opaque"*, %"core::fmt::Formatter"*)** %6, align 8, !dbg !966
  %7 = getelementptr inbounds { i8*, i64* }, { i8*, i64* }* %2, i32 0, i32 0, !dbg !969
  %8 = load i8*, i8** %7, align 8, !dbg !969, !nonnull !23, !align !750, !noundef !23
  %9 = getelementptr inbounds { i8*, i64* }, { i8*, i64* }* %2, i32 0, i32 1, !dbg !969
  %10 = load i64*, i64** %9, align 8, !dbg !969, !nonnull !23, !noundef !23
  %11 = insertvalue { i8*, i64* } undef, i8* %8, 0, !dbg !969
  %12 = insertvalue { i8*, i64* } %11, i64* %10, 1, !dbg !969
  ret { i8*, i64* } %12, !dbg !969
}

; core::fmt::ArgumentV1::new_debug
; Function Attrs: inlinehint nonlazybind uwtable
define internal { i8*, i64* } @_ZN4core3fmt10ArgumentV19new_debug17h86daa514f707743eE({ i64, i64, i64, i64 }* align 8 %x) unnamed_addr #0 !dbg !970 {
start:
  %0 = alloca %"core::fmt::Opaque"*, align 8
  %1 = alloca i1 (%"core::fmt::Opaque"*, %"core::fmt::Formatter"*)*, align 8
  %f.dbg.spill = alloca i1 ({ i64, i64, i64, i64 }*, %"core::fmt::Formatter"*)*, align 8
  %x.dbg.spill1 = alloca { i64, i64, i64, i64 }*, align 8
  %x.dbg.spill = alloca { i64, i64, i64, i64 }*, align 8
  %2 = alloca { i8*, i64* }, align 8
  store { i64, i64, i64, i64 }* %x, { i64, i64, i64, i64 }** %x.dbg.spill, align 8
  call void @llvm.dbg.declare(metadata { i64, i64, i64, i64 }** %x.dbg.spill, metadata !981, metadata !DIExpression()), !dbg !984
  store { i64, i64, i64, i64 }* %x, { i64, i64, i64, i64 }** %x.dbg.spill1, align 8, !dbg !985
  call void @llvm.dbg.declare(metadata { i64, i64, i64, i64 }** %x.dbg.spill1, metadata !986, metadata !DIExpression()), !dbg !995
  store i1 ({ i64, i64, i64, i64 }*, %"core::fmt::Formatter"*)* @"_ZN58_$LT$$LP$W$C$V$C$U$C$T$RP$$u20$as$u20$core..fmt..Debug$GT$3fmt17hff5eaccf476eab1bE", i1 ({ i64, i64, i64, i64 }*, %"core::fmt::Formatter"*)** %f.dbg.spill, align 8, !dbg !997
  call void @llvm.dbg.declare(metadata i1 ({ i64, i64, i64, i64 }*, %"core::fmt::Formatter"*)** %f.dbg.spill, metadata !994, metadata !DIExpression()), !dbg !995
  store i1 (%"core::fmt::Opaque"*, %"core::fmt::Formatter"*)* bitcast (i1 ({ i64, i64, i64, i64 }*, %"core::fmt::Formatter"*)* @"_ZN58_$LT$$LP$W$C$V$C$U$C$T$RP$$u20$as$u20$core..fmt..Debug$GT$3fmt17hff5eaccf476eab1bE" to i1 (%"core::fmt::Opaque"*, %"core::fmt::Formatter"*)*), i1 (%"core::fmt::Opaque"*, %"core::fmt::Formatter"*)** %1, align 8, !dbg !995
  %_4 = load i1 (%"core::fmt::Opaque"*, %"core::fmt::Formatter"*)*, i1 (%"core::fmt::Opaque"*, %"core::fmt::Formatter"*)** %1, align 8, !dbg !995, !nonnull !23, !noundef !23
  br label %bb1, !dbg !995

bb1:                                              ; preds = %start
  %3 = bitcast { i64, i64, i64, i64 }* %x to %"core::fmt::Opaque"*, !dbg !995
  store %"core::fmt::Opaque"* %3, %"core::fmt::Opaque"** %0, align 8, !dbg !995
  %_6 = load %"core::fmt::Opaque"*, %"core::fmt::Opaque"** %0, align 8, !dbg !995, !nonnull !23, !align !750, !noundef !23
  br label %bb2, !dbg !995

bb2:                                              ; preds = %bb1
  %4 = bitcast { i8*, i64* }* %2 to %"core::fmt::Opaque"**, !dbg !995
  store %"core::fmt::Opaque"* %_6, %"core::fmt::Opaque"** %4, align 8, !dbg !995
  %5 = getelementptr inbounds { i8*, i64* }, { i8*, i64* }* %2, i32 0, i32 1, !dbg !995
  %6 = bitcast i64** %5 to i1 (%"core::fmt::Opaque"*, %"core::fmt::Formatter"*)**, !dbg !995
  store i1 (%"core::fmt::Opaque"*, %"core::fmt::Formatter"*)* %_4, i1 (%"core::fmt::Opaque"*, %"core::fmt::Formatter"*)** %6, align 8, !dbg !995
  %7 = getelementptr inbounds { i8*, i64* }, { i8*, i64* }* %2, i32 0, i32 0, !dbg !998
  %8 = load i8*, i8** %7, align 8, !dbg !998, !nonnull !23, !align !750, !noundef !23
  %9 = getelementptr inbounds { i8*, i64* }, { i8*, i64* }* %2, i32 0, i32 1, !dbg !998
  %10 = load i64*, i64** %9, align 8, !dbg !998, !nonnull !23, !noundef !23
  %11 = insertvalue { i8*, i64* } undef, i8* %8, 0, !dbg !998
  %12 = insertvalue { i8*, i64* } %11, i64* %10, 1, !dbg !998
  ret { i8*, i64* } %12, !dbg !998
}

; core::fmt::ArgumentV1::new_debug
; Function Attrs: inlinehint nonlazybind uwtable
define internal { i8*, i64* } @_ZN4core3fmt10ArgumentV19new_debug17ha4c637eb5823e7b1E({ double, double, double, double }* align 8 %x) unnamed_addr #0 !dbg !999 {
start:
  %0 = alloca %"core::fmt::Opaque"*, align 8
  %1 = alloca i1 (%"core::fmt::Opaque"*, %"core::fmt::Formatter"*)*, align 8
  %f.dbg.spill = alloca i1 ({ double, double, double, double }*, %"core::fmt::Formatter"*)*, align 8
  %x.dbg.spill1 = alloca { double, double, double, double }*, align 8
  %x.dbg.spill = alloca { double, double, double, double }*, align 8
  %2 = alloca { i8*, i64* }, align 8
  store { double, double, double, double }* %x, { double, double, double, double }** %x.dbg.spill, align 8
  call void @llvm.dbg.declare(metadata { double, double, double, double }** %x.dbg.spill, metadata !1010, metadata !DIExpression()), !dbg !1013
  store { double, double, double, double }* %x, { double, double, double, double }** %x.dbg.spill1, align 8, !dbg !1014
  call void @llvm.dbg.declare(metadata { double, double, double, double }** %x.dbg.spill1, metadata !1015, metadata !DIExpression()), !dbg !1024
  store i1 ({ double, double, double, double }*, %"core::fmt::Formatter"*)* @"_ZN58_$LT$$LP$W$C$V$C$U$C$T$RP$$u20$as$u20$core..fmt..Debug$GT$3fmt17he15098cb01273e42E", i1 ({ double, double, double, double }*, %"core::fmt::Formatter"*)** %f.dbg.spill, align 8, !dbg !1026
  call void @llvm.dbg.declare(metadata i1 ({ double, double, double, double }*, %"core::fmt::Formatter"*)** %f.dbg.spill, metadata !1023, metadata !DIExpression()), !dbg !1024
  store i1 (%"core::fmt::Opaque"*, %"core::fmt::Formatter"*)* bitcast (i1 ({ double, double, double, double }*, %"core::fmt::Formatter"*)* @"_ZN58_$LT$$LP$W$C$V$C$U$C$T$RP$$u20$as$u20$core..fmt..Debug$GT$3fmt17he15098cb01273e42E" to i1 (%"core::fmt::Opaque"*, %"core::fmt::Formatter"*)*), i1 (%"core::fmt::Opaque"*, %"core::fmt::Formatter"*)** %1, align 8, !dbg !1024
  %_4 = load i1 (%"core::fmt::Opaque"*, %"core::fmt::Formatter"*)*, i1 (%"core::fmt::Opaque"*, %"core::fmt::Formatter"*)** %1, align 8, !dbg !1024, !nonnull !23, !noundef !23
  br label %bb1, !dbg !1024

bb1:                                              ; preds = %start
  %3 = bitcast { double, double, double, double }* %x to %"core::fmt::Opaque"*, !dbg !1024
  store %"core::fmt::Opaque"* %3, %"core::fmt::Opaque"** %0, align 8, !dbg !1024
  %_6 = load %"core::fmt::Opaque"*, %"core::fmt::Opaque"** %0, align 8, !dbg !1024, !nonnull !23, !align !750, !noundef !23
  br label %bb2, !dbg !1024

bb2:                                              ; preds = %bb1
  %4 = bitcast { i8*, i64* }* %2 to %"core::fmt::Opaque"**, !dbg !1024
  store %"core::fmt::Opaque"* %_6, %"core::fmt::Opaque"** %4, align 8, !dbg !1024
  %5 = getelementptr inbounds { i8*, i64* }, { i8*, i64* }* %2, i32 0, i32 1, !dbg !1024
  %6 = bitcast i64** %5 to i1 (%"core::fmt::Opaque"*, %"core::fmt::Formatter"*)**, !dbg !1024
  store i1 (%"core::fmt::Opaque"*, %"core::fmt::Formatter"*)* %_4, i1 (%"core::fmt::Opaque"*, %"core::fmt::Formatter"*)** %6, align 8, !dbg !1024
  %7 = getelementptr inbounds { i8*, i64* }, { i8*, i64* }* %2, i32 0, i32 0, !dbg !1027
  %8 = load i8*, i8** %7, align 8, !dbg !1027, !nonnull !23, !align !750, !noundef !23
  %9 = getelementptr inbounds { i8*, i64* }, { i8*, i64* }* %2, i32 0, i32 1, !dbg !1027
  %10 = load i64*, i64** %9, align 8, !dbg !1027, !nonnull !23, !noundef !23
  %11 = insertvalue { i8*, i64* } undef, i8* %8, 0, !dbg !1027
  %12 = insertvalue { i8*, i64* } %11, i64* %10, 1, !dbg !1027
  ret { i8*, i64* } %12, !dbg !1027
}

; core::fmt::ArgumentV1::new_debug
; Function Attrs: inlinehint nonlazybind uwtable
define internal { i8*, i64* } @_ZN4core3fmt10ArgumentV19new_debug17ha5b0cb4c01b7a658E({ double, double }* align 8 %x) unnamed_addr #0 !dbg !1028 {
start:
  %0 = alloca %"core::fmt::Opaque"*, align 8
  %1 = alloca i1 (%"core::fmt::Opaque"*, %"core::fmt::Formatter"*)*, align 8
  %f.dbg.spill = alloca i1 ({ double, double }*, %"core::fmt::Formatter"*)*, align 8
  %x.dbg.spill1 = alloca { double, double }*, align 8
  %x.dbg.spill = alloca { double, double }*, align 8
  %2 = alloca { i8*, i64* }, align 8
  store { double, double }* %x, { double, double }** %x.dbg.spill, align 8
  call void @llvm.dbg.declare(metadata { double, double }** %x.dbg.spill, metadata !1037, metadata !DIExpression()), !dbg !1040
  store { double, double }* %x, { double, double }** %x.dbg.spill1, align 8, !dbg !1041
  call void @llvm.dbg.declare(metadata { double, double }** %x.dbg.spill1, metadata !1042, metadata !DIExpression()), !dbg !1051
  store i1 ({ double, double }*, %"core::fmt::Formatter"*)* @"_ZN50_$LT$$LP$U$C$T$RP$$u20$as$u20$core..fmt..Debug$GT$3fmt17hfa0363035cd3e98cE", i1 ({ double, double }*, %"core::fmt::Formatter"*)** %f.dbg.spill, align 8, !dbg !1053
  call void @llvm.dbg.declare(metadata i1 ({ double, double }*, %"core::fmt::Formatter"*)** %f.dbg.spill, metadata !1050, metadata !DIExpression()), !dbg !1051
  store i1 (%"core::fmt::Opaque"*, %"core::fmt::Formatter"*)* bitcast (i1 ({ double, double }*, %"core::fmt::Formatter"*)* @"_ZN50_$LT$$LP$U$C$T$RP$$u20$as$u20$core..fmt..Debug$GT$3fmt17hfa0363035cd3e98cE" to i1 (%"core::fmt::Opaque"*, %"core::fmt::Formatter"*)*), i1 (%"core::fmt::Opaque"*, %"core::fmt::Formatter"*)** %1, align 8, !dbg !1051
  %_4 = load i1 (%"core::fmt::Opaque"*, %"core::fmt::Formatter"*)*, i1 (%"core::fmt::Opaque"*, %"core::fmt::Formatter"*)** %1, align 8, !dbg !1051, !nonnull !23, !noundef !23
  br label %bb1, !dbg !1051

bb1:                                              ; preds = %start
  %3 = bitcast { double, double }* %x to %"core::fmt::Opaque"*, !dbg !1051
  store %"core::fmt::Opaque"* %3, %"core::fmt::Opaque"** %0, align 8, !dbg !1051
  %_6 = load %"core::fmt::Opaque"*, %"core::fmt::Opaque"** %0, align 8, !dbg !1051, !nonnull !23, !align !750, !noundef !23
  br label %bb2, !dbg !1051

bb2:                                              ; preds = %bb1
  %4 = bitcast { i8*, i64* }* %2 to %"core::fmt::Opaque"**, !dbg !1051
  store %"core::fmt::Opaque"* %_6, %"core::fmt::Opaque"** %4, align 8, !dbg !1051
  %5 = getelementptr inbounds { i8*, i64* }, { i8*, i64* }* %2, i32 0, i32 1, !dbg !1051
  %6 = bitcast i64** %5 to i1 (%"core::fmt::Opaque"*, %"core::fmt::Formatter"*)**, !dbg !1051
  store i1 (%"core::fmt::Opaque"*, %"core::fmt::Formatter"*)* %_4, i1 (%"core::fmt::Opaque"*, %"core::fmt::Formatter"*)** %6, align 8, !dbg !1051
  %7 = getelementptr inbounds { i8*, i64* }, { i8*, i64* }* %2, i32 0, i32 0, !dbg !1054
  %8 = load i8*, i8** %7, align 8, !dbg !1054, !nonnull !23, !align !750, !noundef !23
  %9 = getelementptr inbounds { i8*, i64* }, { i8*, i64* }* %2, i32 0, i32 1, !dbg !1054
  %10 = load i64*, i64** %9, align 8, !dbg !1054, !nonnull !23, !noundef !23
  %11 = insertvalue { i8*, i64* } undef, i8* %8, 0, !dbg !1054
  %12 = insertvalue { i8*, i64* } %11, i64* %10, 1, !dbg !1054
  ret { i8*, i64* } %12, !dbg !1054
}

; core::fmt::num::<impl core::fmt::Debug for i32>::fmt
; Function Attrs: inlinehint nonlazybind uwtable
define internal zeroext i1 @"_ZN4core3fmt3num50_$LT$impl$u20$core..fmt..Debug$u20$for$u20$i32$GT$3fmt17hf79bfc2e3c9b2eb6E"(i32* align 4 %self, %"core::fmt::Formatter"* align 8 %f) unnamed_addr #0 !dbg !1055 {
start:
  %f.dbg.spill = alloca %"core::fmt::Formatter"*, align 8
  %self.dbg.spill = alloca i32*, align 8
  %0 = alloca i8, align 1
  store i32* %self, i32** %self.dbg.spill, align 8
  call void @llvm.dbg.declare(metadata i32** %self.dbg.spill, metadata !1062, metadata !DIExpression()), !dbg !1064
  store %"core::fmt::Formatter"* %f, %"core::fmt::Formatter"** %f.dbg.spill, align 8
  call void @llvm.dbg.declare(metadata %"core::fmt::Formatter"** %f.dbg.spill, metadata !1063, metadata !DIExpression()), !dbg !1065
; call core::fmt::Formatter::debug_lower_hex
  %_3 = call zeroext i1 @_ZN4core3fmt9Formatter15debug_lower_hex17h861f5ddbf758e4f9E(%"core::fmt::Formatter"* align 8 %f), !dbg !1066
  br label %bb1, !dbg !1066

bb1:                                              ; preds = %start
  br i1 %_3, label %bb2, label %bb4, !dbg !1066

bb4:                                              ; preds = %bb1
; call core::fmt::Formatter::debug_upper_hex
  %_7 = call zeroext i1 @_ZN4core3fmt9Formatter15debug_upper_hex17h21ddf2be2e6a0fd5E(%"core::fmt::Formatter"* align 8 %f), !dbg !1067
  br label %bb5, !dbg !1067

bb2:                                              ; preds = %bb1
; call core::fmt::num::<impl core::fmt::LowerHex for i32>::fmt
  %1 = call zeroext i1 @"_ZN4core3fmt3num53_$LT$impl$u20$core..fmt..LowerHex$u20$for$u20$i32$GT$3fmt17h46ab6094afed2354E"(i32* align 4 %self, %"core::fmt::Formatter"* align 8 %f), !dbg !1068
  %2 = zext i1 %1 to i8, !dbg !1068
  store i8 %2, i8* %0, align 1, !dbg !1068
  br label %bb3, !dbg !1068

bb3:                                              ; preds = %bb2
  br label %bb11, !dbg !1069

bb11:                                             ; preds = %bb10, %bb3
  %3 = load i8, i8* %0, align 1, !dbg !1070, !range !391, !noundef !23
  %4 = trunc i8 %3 to i1, !dbg !1070
  ret i1 %4, !dbg !1070

bb5:                                              ; preds = %bb4
  br i1 %_7, label %bb6, label %bb8, !dbg !1067

bb8:                                              ; preds = %bb5
; call core::fmt::num::imp::<impl core::fmt::Display for i32>::fmt
  %5 = call zeroext i1 @"_ZN4core3fmt3num3imp52_$LT$impl$u20$core..fmt..Display$u20$for$u20$i32$GT$3fmt17h52a4838d0eaa2babE"(i32* align 4 %self, %"core::fmt::Formatter"* align 8 %f), !dbg !1071
  %6 = zext i1 %5 to i8, !dbg !1071
  store i8 %6, i8* %0, align 1, !dbg !1071
  br label %bb9, !dbg !1071

bb6:                                              ; preds = %bb5
; call core::fmt::num::<impl core::fmt::UpperHex for i32>::fmt
  %7 = call zeroext i1 @"_ZN4core3fmt3num53_$LT$impl$u20$core..fmt..UpperHex$u20$for$u20$i32$GT$3fmt17h827553a54a7e037dE"(i32* align 4 %self, %"core::fmt::Formatter"* align 8 %f), !dbg !1072
  %8 = zext i1 %7 to i8, !dbg !1072
  store i8 %8, i8* %0, align 1, !dbg !1072
  br label %bb7, !dbg !1072

bb7:                                              ; preds = %bb6
  br label %bb10, !dbg !1073

bb10:                                             ; preds = %bb9, %bb7
  br label %bb11, !dbg !1069

bb9:                                              ; preds = %bb8
  br label %bb10, !dbg !1073
}

; core::fmt::num::<impl core::fmt::Debug for i64>::fmt
; Function Attrs: inlinehint nonlazybind uwtable
define internal zeroext i1 @"_ZN4core3fmt3num50_$LT$impl$u20$core..fmt..Debug$u20$for$u20$i64$GT$3fmt17heecb31b9da3f6b7eE"(i64* align 8 %self, %"core::fmt::Formatter"* align 8 %f) unnamed_addr #0 !dbg !1074 {
start:
  %f.dbg.spill = alloca %"core::fmt::Formatter"*, align 8
  %self.dbg.spill = alloca i64*, align 8
  %0 = alloca i8, align 1
  store i64* %self, i64** %self.dbg.spill, align 8
  call void @llvm.dbg.declare(metadata i64** %self.dbg.spill, metadata !1079, metadata !DIExpression()), !dbg !1081
  store %"core::fmt::Formatter"* %f, %"core::fmt::Formatter"** %f.dbg.spill, align 8
  call void @llvm.dbg.declare(metadata %"core::fmt::Formatter"** %f.dbg.spill, metadata !1080, metadata !DIExpression()), !dbg !1082
; call core::fmt::Formatter::debug_lower_hex
  %_3 = call zeroext i1 @_ZN4core3fmt9Formatter15debug_lower_hex17h861f5ddbf758e4f9E(%"core::fmt::Formatter"* align 8 %f), !dbg !1083
  br label %bb1, !dbg !1083

bb1:                                              ; preds = %start
  br i1 %_3, label %bb2, label %bb4, !dbg !1083

bb4:                                              ; preds = %bb1
; call core::fmt::Formatter::debug_upper_hex
  %_7 = call zeroext i1 @_ZN4core3fmt9Formatter15debug_upper_hex17h21ddf2be2e6a0fd5E(%"core::fmt::Formatter"* align 8 %f), !dbg !1084
  br label %bb5, !dbg !1084

bb2:                                              ; preds = %bb1
; call core::fmt::num::<impl core::fmt::LowerHex for i64>::fmt
  %1 = call zeroext i1 @"_ZN4core3fmt3num53_$LT$impl$u20$core..fmt..LowerHex$u20$for$u20$i64$GT$3fmt17h00f16aa1a3434247E"(i64* align 8 %self, %"core::fmt::Formatter"* align 8 %f), !dbg !1085
  %2 = zext i1 %1 to i8, !dbg !1085
  store i8 %2, i8* %0, align 1, !dbg !1085
  br label %bb3, !dbg !1085

bb3:                                              ; preds = %bb2
  br label %bb11, !dbg !1086

bb11:                                             ; preds = %bb10, %bb3
  %3 = load i8, i8* %0, align 1, !dbg !1087, !range !391, !noundef !23
  %4 = trunc i8 %3 to i1, !dbg !1087
  ret i1 %4, !dbg !1087

bb5:                                              ; preds = %bb4
  br i1 %_7, label %bb6, label %bb8, !dbg !1084

bb8:                                              ; preds = %bb5
; call core::fmt::num::imp::<impl core::fmt::Display for i64>::fmt
  %5 = call zeroext i1 @"_ZN4core3fmt3num3imp52_$LT$impl$u20$core..fmt..Display$u20$for$u20$i64$GT$3fmt17hadc6e0721fb44ba3E"(i64* align 8 %self, %"core::fmt::Formatter"* align 8 %f), !dbg !1088
  %6 = zext i1 %5 to i8, !dbg !1088
  store i8 %6, i8* %0, align 1, !dbg !1088
  br label %bb9, !dbg !1088

bb6:                                              ; preds = %bb5
; call core::fmt::num::<impl core::fmt::UpperHex for i64>::fmt
  %7 = call zeroext i1 @"_ZN4core3fmt3num53_$LT$impl$u20$core..fmt..UpperHex$u20$for$u20$i64$GT$3fmt17h633cc137e31b9503E"(i64* align 8 %self, %"core::fmt::Formatter"* align 8 %f), !dbg !1089
  %8 = zext i1 %7 to i8, !dbg !1089
  store i8 %8, i8* %0, align 1, !dbg !1089
  br label %bb7, !dbg !1089

bb7:                                              ; preds = %bb6
  br label %bb10, !dbg !1090

bb10:                                             ; preds = %bb9, %bb7
  br label %bb11, !dbg !1086

bb9:                                              ; preds = %bb8
  br label %bb10, !dbg !1090
}

; core::fmt::num::<impl core::fmt::Debug for u32>::fmt
; Function Attrs: inlinehint nonlazybind uwtable
define internal zeroext i1 @"_ZN4core3fmt3num50_$LT$impl$u20$core..fmt..Debug$u20$for$u20$u32$GT$3fmt17h928f4fd0b128722fE"(i32* align 4 %self, %"core::fmt::Formatter"* align 8 %f) unnamed_addr #0 !dbg !1091 {
start:
  %f.dbg.spill = alloca %"core::fmt::Formatter"*, align 8
  %self.dbg.spill = alloca i32*, align 8
  %0 = alloca i8, align 1
  store i32* %self, i32** %self.dbg.spill, align 8
  call void @llvm.dbg.declare(metadata i32** %self.dbg.spill, metadata !1096, metadata !DIExpression()), !dbg !1098
  store %"core::fmt::Formatter"* %f, %"core::fmt::Formatter"** %f.dbg.spill, align 8
  call void @llvm.dbg.declare(metadata %"core::fmt::Formatter"** %f.dbg.spill, metadata !1097, metadata !DIExpression()), !dbg !1099
; call core::fmt::Formatter::debug_lower_hex
  %_3 = call zeroext i1 @_ZN4core3fmt9Formatter15debug_lower_hex17h861f5ddbf758e4f9E(%"core::fmt::Formatter"* align 8 %f), !dbg !1100
  br label %bb1, !dbg !1100

bb1:                                              ; preds = %start
  br i1 %_3, label %bb2, label %bb4, !dbg !1100

bb4:                                              ; preds = %bb1
; call core::fmt::Formatter::debug_upper_hex
  %_7 = call zeroext i1 @_ZN4core3fmt9Formatter15debug_upper_hex17h21ddf2be2e6a0fd5E(%"core::fmt::Formatter"* align 8 %f), !dbg !1101
  br label %bb5, !dbg !1101

bb2:                                              ; preds = %bb1
; call core::fmt::num::<impl core::fmt::LowerHex for u32>::fmt
  %1 = call zeroext i1 @"_ZN4core3fmt3num53_$LT$impl$u20$core..fmt..LowerHex$u20$for$u20$u32$GT$3fmt17h4598978fc11d0a5fE"(i32* align 4 %self, %"core::fmt::Formatter"* align 8 %f), !dbg !1102
  %2 = zext i1 %1 to i8, !dbg !1102
  store i8 %2, i8* %0, align 1, !dbg !1102
  br label %bb3, !dbg !1102

bb3:                                              ; preds = %bb2
  br label %bb11, !dbg !1103

bb11:                                             ; preds = %bb10, %bb3
  %3 = load i8, i8* %0, align 1, !dbg !1104, !range !391, !noundef !23
  %4 = trunc i8 %3 to i1, !dbg !1104
  ret i1 %4, !dbg !1104

bb5:                                              ; preds = %bb4
  br i1 %_7, label %bb6, label %bb8, !dbg !1101

bb8:                                              ; preds = %bb5
; call core::fmt::num::imp::<impl core::fmt::Display for u32>::fmt
  %5 = call zeroext i1 @"_ZN4core3fmt3num3imp52_$LT$impl$u20$core..fmt..Display$u20$for$u20$u32$GT$3fmt17h518f5e83165fbe37E"(i32* align 4 %self, %"core::fmt::Formatter"* align 8 %f), !dbg !1105
  %6 = zext i1 %5 to i8, !dbg !1105
  store i8 %6, i8* %0, align 1, !dbg !1105
  br label %bb9, !dbg !1105

bb6:                                              ; preds = %bb5
; call core::fmt::num::<impl core::fmt::UpperHex for u32>::fmt
  %7 = call zeroext i1 @"_ZN4core3fmt3num53_$LT$impl$u20$core..fmt..UpperHex$u20$for$u20$u32$GT$3fmt17h1d19ab97b54bf162E"(i32* align 4 %self, %"core::fmt::Formatter"* align 8 %f), !dbg !1106
  %8 = zext i1 %7 to i8, !dbg !1106
  store i8 %8, i8* %0, align 1, !dbg !1106
  br label %bb7, !dbg !1106

bb7:                                              ; preds = %bb6
  br label %bb10, !dbg !1107

bb10:                                             ; preds = %bb9, %bb7
  br label %bb11, !dbg !1103

bb9:                                              ; preds = %bb8
  br label %bb10, !dbg !1107
}

; core::fmt::num::<impl core::fmt::Debug for u128>::fmt
; Function Attrs: inlinehint nonlazybind uwtable
define internal zeroext i1 @"_ZN4core3fmt3num51_$LT$impl$u20$core..fmt..Debug$u20$for$u20$u128$GT$3fmt17h840a576b027b7d65E"(i128* align 8 %self, %"core::fmt::Formatter"* align 8 %f) unnamed_addr #0 !dbg !1108 {
start:
  %f.dbg.spill = alloca %"core::fmt::Formatter"*, align 8
  %self.dbg.spill = alloca i128*, align 8
  %0 = alloca i8, align 1
  store i128* %self, i128** %self.dbg.spill, align 8
  call void @llvm.dbg.declare(metadata i128** %self.dbg.spill, metadata !1111, metadata !DIExpression()), !dbg !1113
  store %"core::fmt::Formatter"* %f, %"core::fmt::Formatter"** %f.dbg.spill, align 8
  call void @llvm.dbg.declare(metadata %"core::fmt::Formatter"** %f.dbg.spill, metadata !1112, metadata !DIExpression()), !dbg !1114
; call core::fmt::Formatter::debug_lower_hex
  %_3 = call zeroext i1 @_ZN4core3fmt9Formatter15debug_lower_hex17h861f5ddbf758e4f9E(%"core::fmt::Formatter"* align 8 %f), !dbg !1115
  br label %bb1, !dbg !1115

bb1:                                              ; preds = %start
  br i1 %_3, label %bb2, label %bb4, !dbg !1115

bb4:                                              ; preds = %bb1
; call core::fmt::Formatter::debug_upper_hex
  %_7 = call zeroext i1 @_ZN4core3fmt9Formatter15debug_upper_hex17h21ddf2be2e6a0fd5E(%"core::fmt::Formatter"* align 8 %f), !dbg !1116
  br label %bb5, !dbg !1116

bb2:                                              ; preds = %bb1
; call core::fmt::num::<impl core::fmt::LowerHex for u128>::fmt
  %1 = call zeroext i1 @"_ZN4core3fmt3num54_$LT$impl$u20$core..fmt..LowerHex$u20$for$u20$u128$GT$3fmt17hd340bc2f2b0be7daE"(i128* align 8 %self, %"core::fmt::Formatter"* align 8 %f), !dbg !1117
  %2 = zext i1 %1 to i8, !dbg !1117
  store i8 %2, i8* %0, align 1, !dbg !1117
  br label %bb3, !dbg !1117

bb3:                                              ; preds = %bb2
  br label %bb11, !dbg !1118

bb11:                                             ; preds = %bb10, %bb3
  %3 = load i8, i8* %0, align 1, !dbg !1119, !range !391, !noundef !23
  %4 = trunc i8 %3 to i1, !dbg !1119
  ret i1 %4, !dbg !1119

bb5:                                              ; preds = %bb4
  br i1 %_7, label %bb6, label %bb8, !dbg !1116

bb8:                                              ; preds = %bb5
; call core::fmt::num::<impl core::fmt::Display for u128>::fmt
  %5 = call zeroext i1 @"_ZN4core3fmt3num53_$LT$impl$u20$core..fmt..Display$u20$for$u20$u128$GT$3fmt17h5fb9dbe219016f5aE"(i128* align 8 %self, %"core::fmt::Formatter"* align 8 %f), !dbg !1120
  %6 = zext i1 %5 to i8, !dbg !1120
  store i8 %6, i8* %0, align 1, !dbg !1120
  br label %bb9, !dbg !1120

bb6:                                              ; preds = %bb5
; call core::fmt::num::<impl core::fmt::UpperHex for u128>::fmt
  %7 = call zeroext i1 @"_ZN4core3fmt3num54_$LT$impl$u20$core..fmt..UpperHex$u20$for$u20$u128$GT$3fmt17h3b8a702afde007ecE"(i128* align 8 %self, %"core::fmt::Formatter"* align 8 %f), !dbg !1121
  %8 = zext i1 %7 to i8, !dbg !1121
  store i8 %8, i8* %0, align 1, !dbg !1121
  br label %bb7, !dbg !1121

bb7:                                              ; preds = %bb6
  br label %bb10, !dbg !1122

bb10:                                             ; preds = %bb9, %bb7
  br label %bb11, !dbg !1118

bb9:                                              ; preds = %bb8
  br label %bb10, !dbg !1122
}

; core::fmt::Arguments::new_v1
; Function Attrs: inlinehint nonlazybind uwtable
define internal void @_ZN4core3fmt9Arguments6new_v117h457ea6cd90cb6153E(%"core::fmt::Arguments"* sret(%"core::fmt::Arguments") %0, [0 x { [0 x i8]*, i64 }]* align 8 %pieces.0, i64 %pieces.1, [0 x { i8*, i64* }]* align 8 %args.0, i64 %args.1) unnamed_addr #0 !dbg !1123 {
start:
  %args.dbg.spill = alloca { [0 x { i8*, i64* }]*, i64 }, align 8
  %pieces.dbg.spill = alloca { [0 x { [0 x i8]*, i64 }]*, i64 }, align 8
  %_24 = alloca { i64*, i64 }, align 8
  %_16 = alloca %"core::fmt::Arguments", align 8
  %_3 = alloca i8, align 1
  %1 = getelementptr inbounds { [0 x { [0 x i8]*, i64 }]*, i64 }, { [0 x { [0 x i8]*, i64 }]*, i64 }* %pieces.dbg.spill, i32 0, i32 0
  store [0 x { [0 x i8]*, i64 }]* %pieces.0, [0 x { [0 x i8]*, i64 }]** %1, align 8
  %2 = getelementptr inbounds { [0 x { [0 x i8]*, i64 }]*, i64 }, { [0 x { [0 x i8]*, i64 }]*, i64 }* %pieces.dbg.spill, i32 0, i32 1
  store i64 %pieces.1, i64* %2, align 8
  call void @llvm.dbg.declare(metadata { [0 x { [0 x i8]*, i64 }]*, i64 }* %pieces.dbg.spill, metadata !1186, metadata !DIExpression()), !dbg !1188
  %3 = getelementptr inbounds { [0 x { i8*, i64* }]*, i64 }, { [0 x { i8*, i64* }]*, i64 }* %args.dbg.spill, i32 0, i32 0
  store [0 x { i8*, i64* }]* %args.0, [0 x { i8*, i64* }]** %3, align 8
  %4 = getelementptr inbounds { [0 x { i8*, i64* }]*, i64 }, { [0 x { i8*, i64* }]*, i64 }* %args.dbg.spill, i32 0, i32 1
  store i64 %args.1, i64* %4, align 8
  call void @llvm.dbg.declare(metadata { [0 x { i8*, i64* }]*, i64 }* %args.dbg.spill, metadata !1187, metadata !DIExpression()), !dbg !1189
  %_4 = icmp ult i64 %pieces.1, %args.1, !dbg !1190
  br i1 %_4, label %bb1, label %bb2, !dbg !1190

bb2:                                              ; preds = %start
  %_12 = add i64 %args.1, 1, !dbg !1191
  %_9 = icmp ugt i64 %pieces.1, %_12, !dbg !1192
  %5 = zext i1 %_9 to i8, !dbg !1190
  store i8 %5, i8* %_3, align 1, !dbg !1190
  br label %bb3, !dbg !1190

bb1:                                              ; preds = %start
  store i8 1, i8* %_3, align 1, !dbg !1190
  br label %bb3, !dbg !1190

bb3:                                              ; preds = %bb2, %bb1
  %6 = load i8, i8* %_3, align 1, !dbg !1190, !range !391, !noundef !23
  %7 = trunc i8 %6 to i1, !dbg !1190
  br i1 %7, label %bb4, label %bb6, !dbg !1190

bb6:                                              ; preds = %bb3
  %8 = bitcast { i64*, i64 }* %_24 to {}**, !dbg !1193
  store {}* null, {}** %8, align 8, !dbg !1193
  %9 = bitcast %"core::fmt::Arguments"* %0 to { [0 x { [0 x i8]*, i64 }]*, i64 }*, !dbg !1194
  %10 = getelementptr inbounds { [0 x { [0 x i8]*, i64 }]*, i64 }, { [0 x { [0 x i8]*, i64 }]*, i64 }* %9, i32 0, i32 0, !dbg !1194
  store [0 x { [0 x i8]*, i64 }]* %pieces.0, [0 x { [0 x i8]*, i64 }]** %10, align 8, !dbg !1194
  %11 = getelementptr inbounds { [0 x { [0 x i8]*, i64 }]*, i64 }, { [0 x { [0 x i8]*, i64 }]*, i64 }* %9, i32 0, i32 1, !dbg !1194
  store i64 %pieces.1, i64* %11, align 8, !dbg !1194
  %12 = getelementptr inbounds %"core::fmt::Arguments", %"core::fmt::Arguments"* %0, i32 0, i32 1, !dbg !1194
  %13 = getelementptr inbounds { i64*, i64 }, { i64*, i64 }* %_24, i32 0, i32 0, !dbg !1194
  %14 = load i64*, i64** %13, align 8, !dbg !1194, !align !540
  %15 = getelementptr inbounds { i64*, i64 }, { i64*, i64 }* %_24, i32 0, i32 1, !dbg !1194
  %16 = load i64, i64* %15, align 8, !dbg !1194
  %17 = getelementptr inbounds { i64*, i64 }, { i64*, i64 }* %12, i32 0, i32 0, !dbg !1194
  store i64* %14, i64** %17, align 8, !dbg !1194
  %18 = getelementptr inbounds { i64*, i64 }, { i64*, i64 }* %12, i32 0, i32 1, !dbg !1194
  store i64 %16, i64* %18, align 8, !dbg !1194
  %19 = getelementptr inbounds %"core::fmt::Arguments", %"core::fmt::Arguments"* %0, i32 0, i32 2, !dbg !1194
  %20 = getelementptr inbounds { [0 x { i8*, i64* }]*, i64 }, { [0 x { i8*, i64* }]*, i64 }* %19, i32 0, i32 0, !dbg !1194
  store [0 x { i8*, i64* }]* %args.0, [0 x { i8*, i64* }]** %20, align 8, !dbg !1194
  %21 = getelementptr inbounds { [0 x { i8*, i64* }]*, i64 }, { [0 x { i8*, i64* }]*, i64 }* %19, i32 0, i32 1, !dbg !1194
  store i64 %args.1, i64* %21, align 8, !dbg !1194
  ret void, !dbg !1195

bb4:                                              ; preds = %bb3
; call core::fmt::Arguments::new_v1
  call void @_ZN4core3fmt9Arguments6new_v117h457ea6cd90cb6153E(%"core::fmt::Arguments"* sret(%"core::fmt::Arguments") %_16, [0 x { [0 x i8]*, i64 }]* align 8 bitcast (<{ i8*, [8 x i8] }>* @alloc250 to [0 x { [0 x i8]*, i64 }]*), i64 1, [0 x { i8*, i64* }]* align 8 bitcast (<{}>* @alloc653 to [0 x { i8*, i64* }]*), i64 0), !dbg !1196
  br label %bb5, !dbg !1196

bb5:                                              ; preds = %bb4
; call core::panicking::panic_fmt
  call void @_ZN4core9panicking9panic_fmt17h62ccf03c8a8a51b5E(%"core::fmt::Arguments"* %_16, %"core::panic::location::Location"* align 8 bitcast (<{ i8*, [16 x i8] }>* @alloc713 to %"core::panic::location::Location"*)) #21, !dbg !1196
  unreachable, !dbg !1196
}

; core::ops::function::FnOnce::call_once{{vtable.shim}}
; Function Attrs: inlinehint nonlazybind uwtable
define internal i32 @"_ZN4core3ops8function6FnOnce40call_once$u7b$$u7b$vtable.shim$u7d$$u7d$17h14dd25d379fe625dE"(i64** %_1) unnamed_addr #0 !dbg !1197 {
start:
  %_1.dbg.spill = alloca i64**, align 8
  %_2 = alloca {}, align 1
  store i64** %_1, i64*** %_1.dbg.spill, align 8
  call void @llvm.dbg.declare(metadata i64*** %_1.dbg.spill, metadata !1206, metadata !DIExpression()), !dbg !1211
  call void @llvm.dbg.declare(metadata {}* %_2, metadata !1207, metadata !DIExpression()), !dbg !1211
  %0 = load i64*, i64** %_1, align 8, !dbg !1211, !nonnull !23, !noundef !23
; call core::ops::function::FnOnce::call_once
  %1 = call i32 @_ZN4core3ops8function6FnOnce9call_once17hb677732d547d747fE(i64* %0), !dbg !1211
  br label %bb1, !dbg !1211

bb1:                                              ; preds = %start
  ret i32 %1, !dbg !1211
}

; core::ops::function::FnOnce::call_once
; Function Attrs: inlinehint nonlazybind uwtable
define internal void @_ZN4core3ops8function6FnOnce9call_once17h1a6e2451140d4314E() unnamed_addr #0 personality i32 (i32, i32, i64, %"unwind::libunwind::_Unwind_Exception"*, %"unwind::libunwind::_Unwind_Context"*)* @rust_eh_personality !dbg !1212 {
start:
  %0 = alloca { i8*, i32 }, align 8
  %_2 = alloca {}, align 1
  %_1 = alloca %"[closure@src/test_x86.rs:206:1: 235:2]", align 1
  call void @llvm.dbg.declare(metadata %"[closure@src/test_x86.rs:206:1: 235:2]"* %_1, metadata !1218, metadata !DIExpression()), !dbg !1222
  call void @llvm.dbg.declare(metadata {}* %_2, metadata !1219, metadata !DIExpression()), !dbg !1222
; invoke simd_tests::test_x86::test_static_init_lists::{{closure}}
  invoke void @"_ZN10simd_tests8test_x8622test_static_init_lists28_$u7b$$u7b$closure$u7d$$u7d$17h9fa656a0f5353e27E"(%"[closure@src/test_x86.rs:206:1: 235:2]"* align 1 %_1)
          to label %bb1 unwind label %cleanup, !dbg !1222

bb3:                                              ; preds = %cleanup
  br label %bb4, !dbg !1222

cleanup:                                          ; preds = %start
  %1 = landingpad { i8*, i32 }
          cleanup
  %2 = extractvalue { i8*, i32 } %1, 0
  %3 = extractvalue { i8*, i32 } %1, 1
  %4 = getelementptr inbounds { i8*, i32 }, { i8*, i32 }* %0, i32 0, i32 0
  store i8* %2, i8** %4, align 8
  %5 = getelementptr inbounds { i8*, i32 }, { i8*, i32 }* %0, i32 0, i32 1
  store i32 %3, i32* %5, align 8
  br label %bb3

bb1:                                              ; preds = %start
  br label %bb2, !dbg !1222

bb4:                                              ; preds = %bb3
  %6 = bitcast { i8*, i32 }* %0 to i8**, !dbg !1222
  %7 = load i8*, i8** %6, align 8, !dbg !1222
  %8 = getelementptr inbounds { i8*, i32 }, { i8*, i32 }* %0, i32 0, i32 1, !dbg !1222
  %9 = load i32, i32* %8, align 8, !dbg !1222
  %10 = insertvalue { i8*, i32 } undef, i8* %7, 0, !dbg !1222
  %11 = insertvalue { i8*, i32 } %10, i32 %9, 1, !dbg !1222
  resume { i8*, i32 } %11, !dbg !1222

bb2:                                              ; preds = %bb1
  ret void, !dbg !1222
}

; core::ops::function::FnOnce::call_once
; Function Attrs: inlinehint nonlazybind uwtable
define internal void @_ZN4core3ops8function6FnOnce9call_once17h1d85da662b85fb23E(void ()* %_1) unnamed_addr #0 !dbg !1223 {
start:
  %_1.dbg.spill = alloca void ()*, align 8
  %_2 = alloca {}, align 1
  store void ()* %_1, void ()** %_1.dbg.spill, align 8
  call void @llvm.dbg.declare(metadata void ()** %_1.dbg.spill, metadata !1225, metadata !DIExpression()), !dbg !1229
  call void @llvm.dbg.declare(metadata {}* %_2, metadata !1226, metadata !DIExpression()), !dbg !1229
  call void %_1(), !dbg !1229
  br label %bb1, !dbg !1229

bb1:                                              ; preds = %start
  ret void, !dbg !1229
}

; core::ops::function::FnOnce::call_once
; Function Attrs: inlinehint nonlazybind uwtable
define internal void @_ZN4core3ops8function6FnOnce9call_once17h311336e3531c943aE() unnamed_addr #0 personality i32 (i32, i32, i64, %"unwind::libunwind::_Unwind_Exception"*, %"unwind::libunwind::_Unwind_Context"*)* @rust_eh_personality !dbg !1230 {
start:
  %0 = alloca { i8*, i32 }, align 8
  %_2 = alloca {}, align 1
  %_1 = alloca %"[closure@src/test_x86.rs:144:1: 153:2]", align 1
  call void @llvm.dbg.declare(metadata %"[closure@src/test_x86.rs:144:1: 153:2]"* %_1, metadata !1236, metadata !DIExpression()), !dbg !1240
  call void @llvm.dbg.declare(metadata {}* %_2, metadata !1237, metadata !DIExpression()), !dbg !1240
; invoke simd_tests::test_x86::test_zero_initializers::{{closure}}
  invoke void @"_ZN10simd_tests8test_x8622test_zero_initializers28_$u7b$$u7b$closure$u7d$$u7d$17he3d9d87d313acac8E"(%"[closure@src/test_x86.rs:144:1: 153:2]"* align 1 %_1)
          to label %bb1 unwind label %cleanup, !dbg !1240

bb3:                                              ; preds = %cleanup
  br label %bb4, !dbg !1240

cleanup:                                          ; preds = %start
  %1 = landingpad { i8*, i32 }
          cleanup
  %2 = extractvalue { i8*, i32 } %1, 0
  %3 = extractvalue { i8*, i32 } %1, 1
  %4 = getelementptr inbounds { i8*, i32 }, { i8*, i32 }* %0, i32 0, i32 0
  store i8* %2, i8** %4, align 8
  %5 = getelementptr inbounds { i8*, i32 }, { i8*, i32 }* %0, i32 0, i32 1
  store i32 %3, i32* %5, align 8
  br label %bb3

bb1:                                              ; preds = %start
  br label %bb2, !dbg !1240

bb4:                                              ; preds = %bb3
  %6 = bitcast { i8*, i32 }* %0 to i8**, !dbg !1240
  %7 = load i8*, i8** %6, align 8, !dbg !1240
  %8 = getelementptr inbounds { i8*, i32 }, { i8*, i32 }* %0, i32 0, i32 1, !dbg !1240
  %9 = load i32, i32* %8, align 8, !dbg !1240
  %10 = insertvalue { i8*, i32 } undef, i8* %7, 0, !dbg !1240
  %11 = insertvalue { i8*, i32 } %10, i32 %9, 1, !dbg !1240
  resume { i8*, i32 } %11, !dbg !1240

bb2:                                              ; preds = %bb1
  ret void, !dbg !1240
}

; core::ops::function::FnOnce::call_once
; Function Attrs: inlinehint nonlazybind uwtable
define internal i32 @_ZN4core3ops8function6FnOnce9call_once17hb677732d547d747fE(i64* %0) unnamed_addr #0 personality i32 (i32, i32, i64, %"unwind::libunwind::_Unwind_Exception"*, %"unwind::libunwind::_Unwind_Context"*)* @rust_eh_personality !dbg !1241 {
start:
  %1 = alloca { i8*, i32 }, align 8
  %_2 = alloca {}, align 1
  %_1 = alloca i64*, align 8
  store i64* %0, i64** %_1, align 8
  call void @llvm.dbg.declare(metadata i64** %_1, metadata !1245, metadata !DIExpression()), !dbg !1247
  call void @llvm.dbg.declare(metadata {}* %_2, metadata !1246, metadata !DIExpression()), !dbg !1247
; invoke std::rt::lang_start::{{closure}}
  %2 = invoke i32 @"_ZN3std2rt10lang_start28_$u7b$$u7b$closure$u7d$$u7d$17h0d40ca36b0899dfeE"(i64** align 8 %_1)
          to label %bb1 unwind label %cleanup, !dbg !1247

bb3:                                              ; preds = %cleanup
  br label %bb4, !dbg !1247

cleanup:                                          ; preds = %start
  %3 = landingpad { i8*, i32 }
          cleanup
  %4 = extractvalue { i8*, i32 } %3, 0
  %5 = extractvalue { i8*, i32 } %3, 1
  %6 = getelementptr inbounds { i8*, i32 }, { i8*, i32 }* %1, i32 0, i32 0
  store i8* %4, i8** %6, align 8
  %7 = getelementptr inbounds { i8*, i32 }, { i8*, i32 }* %1, i32 0, i32 1
  store i32 %5, i32* %7, align 8
  br label %bb3

bb1:                                              ; preds = %start
  br label %bb2, !dbg !1247

bb4:                                              ; preds = %bb3
  %8 = bitcast { i8*, i32 }* %1 to i8**, !dbg !1247
  %9 = load i8*, i8** %8, align 8, !dbg !1247
  %10 = getelementptr inbounds { i8*, i32 }, { i8*, i32 }* %1, i32 0, i32 1, !dbg !1247
  %11 = load i32, i32* %10, align 8, !dbg !1247
  %12 = insertvalue { i8*, i32 } undef, i8* %9, 0, !dbg !1247
  %13 = insertvalue { i8*, i32 } %12, i32 %11, 1, !dbg !1247
  resume { i8*, i32 } %13, !dbg !1247

bb2:                                              ; preds = %bb1
  ret i32 %2, !dbg !1247
}

; core::ops::function::FnOnce::call_once
; Function Attrs: inlinehint nonlazybind uwtable
define internal void @_ZN4core3ops8function6FnOnce9call_once17hc63af24d7f765014E() unnamed_addr #0 personality i32 (i32, i32, i64, %"unwind::libunwind::_Unwind_Exception"*, %"unwind::libunwind::_Unwind_Context"*)* @rust_eh_personality !dbg !1248 {
start:
  %0 = alloca { i8*, i32 }, align 8
  %_2 = alloca {}, align 1
  %_1 = alloca %"[closure@src/test_x86.rs:113:1: 141:2]", align 1
  call void @llvm.dbg.declare(metadata %"[closure@src/test_x86.rs:113:1: 141:2]"* %_1, metadata !1254, metadata !DIExpression()), !dbg !1258
  call void @llvm.dbg.declare(metadata {}* %_2, metadata !1255, metadata !DIExpression()), !dbg !1258
; invoke simd_tests::test_x86::test_unpack_128_2x128::{{closure}}
  invoke void @"_ZN10simd_tests8test_x8621test_unpack_128_2x12828_$u7b$$u7b$closure$u7d$$u7d$17h6a5cb5404d3e87acE"(%"[closure@src/test_x86.rs:113:1: 141:2]"* align 1 %_1)
          to label %bb1 unwind label %cleanup, !dbg !1258

bb3:                                              ; preds = %cleanup
  br label %bb4, !dbg !1258

cleanup:                                          ; preds = %start
  %1 = landingpad { i8*, i32 }
          cleanup
  %2 = extractvalue { i8*, i32 } %1, 0
  %3 = extractvalue { i8*, i32 } %1, 1
  %4 = getelementptr inbounds { i8*, i32 }, { i8*, i32 }* %0, i32 0, i32 0
  store i8* %2, i8** %4, align 8
  %5 = getelementptr inbounds { i8*, i32 }, { i8*, i32 }* %0, i32 0, i32 1
  store i32 %3, i32* %5, align 8
  br label %bb3

bb1:                                              ; preds = %start
  br label %bb2, !dbg !1258

bb4:                                              ; preds = %bb3
  %6 = bitcast { i8*, i32 }* %0 to i8**, !dbg !1258
  %7 = load i8*, i8** %6, align 8, !dbg !1258
  %8 = getelementptr inbounds { i8*, i32 }, { i8*, i32 }* %0, i32 0, i32 1, !dbg !1258
  %9 = load i32, i32* %8, align 8, !dbg !1258
  %10 = insertvalue { i8*, i32 } undef, i8* %7, 0, !dbg !1258
  %11 = insertvalue { i8*, i32 } %10, i32 %9, 1, !dbg !1258
  resume { i8*, i32 } %11, !dbg !1258

bb2:                                              ; preds = %bb1
  ret void, !dbg !1258
}

; core::ops::function::FnOnce::call_once
; Function Attrs: inlinehint nonlazybind uwtable
define internal void @_ZN4core3ops8function6FnOnce9call_once17hdc500165b4ef1e17E() unnamed_addr #0 personality i32 (i32, i32, i64, %"unwind::libunwind::_Unwind_Exception"*, %"unwind::libunwind::_Unwind_Context"*)* @rust_eh_personality !dbg !1259 {
start:
  %0 = alloca { i8*, i32 }, align 8
  %_2 = alloca {}, align 1
  %_1 = alloca %"[closure@src/test_x86.rs:191:1: 203:2]", align 1
  call void @llvm.dbg.declare(metadata %"[closure@src/test_x86.rs:191:1: 203:2]"* %_1, metadata !1265, metadata !DIExpression()), !dbg !1269
  call void @llvm.dbg.declare(metadata {}* %_2, metadata !1266, metadata !DIExpression()), !dbg !1269
; invoke simd_tests::test_x86::test_vector_init_lists::{{closure}}
  invoke void @"_ZN10simd_tests8test_x8622test_vector_init_lists28_$u7b$$u7b$closure$u7d$$u7d$17h1898a8a62b4919f1E"(%"[closure@src/test_x86.rs:191:1: 203:2]"* align 1 %_1)
          to label %bb1 unwind label %cleanup, !dbg !1269

bb3:                                              ; preds = %cleanup
  br label %bb4, !dbg !1269

cleanup:                                          ; preds = %start
  %1 = landingpad { i8*, i32 }
          cleanup
  %2 = extractvalue { i8*, i32 } %1, 0
  %3 = extractvalue { i8*, i32 } %1, 1
  %4 = getelementptr inbounds { i8*, i32 }, { i8*, i32 }* %0, i32 0, i32 0
  store i8* %2, i8** %4, align 8
  %5 = getelementptr inbounds { i8*, i32 }, { i8*, i32 }* %0, i32 0, i32 1
  store i32 %3, i32* %5, align 8
  br label %bb3

bb1:                                              ; preds = %start
  br label %bb2, !dbg !1269

bb4:                                              ; preds = %bb3
  %6 = bitcast { i8*, i32 }* %0 to i8**, !dbg !1269
  %7 = load i8*, i8** %6, align 8, !dbg !1269
  %8 = getelementptr inbounds { i8*, i32 }, { i8*, i32 }* %0, i32 0, i32 1, !dbg !1269
  %9 = load i32, i32* %8, align 8, !dbg !1269
  %10 = insertvalue { i8*, i32 } undef, i8* %7, 0, !dbg !1269
  %11 = insertvalue { i8*, i32 } %10, i32 %9, 1, !dbg !1269
  resume { i8*, i32 } %11, !dbg !1269

bb2:                                              ; preds = %bb1
  ret void, !dbg !1269
}

; core::ops::function::FnOnce::call_once
; Function Attrs: inlinehint nonlazybind uwtable
define internal void @_ZN4core3ops8function6FnOnce9call_once17he939019cdd326028E() unnamed_addr #0 personality i32 (i32, i32, i64, %"unwind::libunwind::_Unwind_Exception"*, %"unwind::libunwind::_Unwind_Context"*)* @rust_eh_personality !dbg !1270 {
start:
  %0 = alloca { i8*, i32 }, align 8
  %_2 = alloca {}, align 1
  %_1 = alloca %"[closure@src/test_x86.rs:156:1: 167:2]", align 1
  call void @llvm.dbg.declare(metadata %"[closure@src/test_x86.rs:156:1: 167:2]"* %_1, metadata !1276, metadata !DIExpression()), !dbg !1280
  call void @llvm.dbg.declare(metadata {}* %_2, metadata !1277, metadata !DIExpression()), !dbg !1280
; invoke simd_tests::test_x86::test_shuffle_vectors::{{closure}}
  invoke void @"_ZN10simd_tests8test_x8620test_shuffle_vectors28_$u7b$$u7b$closure$u7d$$u7d$17hef15c69b01fe8b0eE"(%"[closure@src/test_x86.rs:156:1: 167:2]"* align 1 %_1)
          to label %bb1 unwind label %cleanup, !dbg !1280

bb3:                                              ; preds = %cleanup
  br label %bb4, !dbg !1280

cleanup:                                          ; preds = %start
  %1 = landingpad { i8*, i32 }
          cleanup
  %2 = extractvalue { i8*, i32 } %1, 0
  %3 = extractvalue { i8*, i32 } %1, 1
  %4 = getelementptr inbounds { i8*, i32 }, { i8*, i32 }* %0, i32 0, i32 0
  store i8* %2, i8** %4, align 8
  %5 = getelementptr inbounds { i8*, i32 }, { i8*, i32 }* %0, i32 0, i32 1
  store i32 %3, i32* %5, align 8
  br label %bb3

bb1:                                              ; preds = %start
  br label %bb2, !dbg !1280

bb4:                                              ; preds = %bb3
  %6 = bitcast { i8*, i32 }* %0 to i8**, !dbg !1280
  %7 = load i8*, i8** %6, align 8, !dbg !1280
  %8 = getelementptr inbounds { i8*, i32 }, { i8*, i32 }* %0, i32 0, i32 1, !dbg !1280
  %9 = load i32, i32* %8, align 8, !dbg !1280
  %10 = insertvalue { i8*, i32 } undef, i8* %7, 0, !dbg !1280
  %11 = insertvalue { i8*, i32 } %10, i32 %9, 1, !dbg !1280
  resume { i8*, i32 } %11, !dbg !1280

bb2:                                              ; preds = %bb1
  ret void, !dbg !1280
}

; core::ptr::drop_in_place<&f32>
; Function Attrs: inlinehint nonlazybind uwtable
define internal void @"_ZN4core3ptr28drop_in_place$LT$$RF$f32$GT$17hee28d2f23f0df298E"(float** %_1) unnamed_addr #0 !dbg !1281 {
start:
  %_1.dbg.spill = alloca float**, align 8
  store float** %_1, float*** %_1.dbg.spill, align 8
  call void @llvm.dbg.declare(metadata float*** %_1.dbg.spill, metadata !1288, metadata !DIExpression()), !dbg !1291
  ret void, !dbg !1291
}

; core::ptr::drop_in_place<&f64>
; Function Attrs: inlinehint nonlazybind uwtable
define internal void @"_ZN4core3ptr28drop_in_place$LT$$RF$f64$GT$17h169d8afff0f47f96E"(double** %_1) unnamed_addr #0 !dbg !1292 {
start:
  %_1.dbg.spill = alloca double**, align 8
  store double** %_1, double*** %_1.dbg.spill, align 8
  call void @llvm.dbg.declare(metadata double*** %_1.dbg.spill, metadata !1297, metadata !DIExpression()), !dbg !1300
  ret void, !dbg !1300
}

; core::ptr::drop_in_place<&i32>
; Function Attrs: inlinehint nonlazybind uwtable
define internal void @"_ZN4core3ptr28drop_in_place$LT$$RF$i32$GT$17h4d4105f1a38644dfE"(i32** %_1) unnamed_addr #0 !dbg !1301 {
start:
  %_1.dbg.spill = alloca i32**, align 8
  store i32** %_1, i32*** %_1.dbg.spill, align 8
  call void @llvm.dbg.declare(metadata i32*** %_1.dbg.spill, metadata !1306, metadata !DIExpression()), !dbg !1309
  ret void, !dbg !1309
}

; core::ptr::drop_in_place<&i64>
; Function Attrs: inlinehint nonlazybind uwtable
define internal void @"_ZN4core3ptr28drop_in_place$LT$$RF$i64$GT$17h83fc3127822632ebE"(i64** %_1) unnamed_addr #0 !dbg !1310 {
start:
  %_1.dbg.spill = alloca i64**, align 8
  store i64** %_1, i64*** %_1.dbg.spill, align 8
  call void @llvm.dbg.declare(metadata i64*** %_1.dbg.spill, metadata !1315, metadata !DIExpression()), !dbg !1318
  ret void, !dbg !1318
}

; core::ptr::drop_in_place<&u32>
; Function Attrs: inlinehint nonlazybind uwtable
define internal void @"_ZN4core3ptr28drop_in_place$LT$$RF$u32$GT$17h61c2ee688ce64242E"(i32** %_1) unnamed_addr #0 !dbg !1319 {
start:
  %_1.dbg.spill = alloca i32**, align 8
  store i32** %_1, i32*** %_1.dbg.spill, align 8
  call void @llvm.dbg.declare(metadata i32*** %_1.dbg.spill, metadata !1324, metadata !DIExpression()), !dbg !1327
  ret void, !dbg !1327
}

; core::ptr::drop_in_place<&u128>
; Function Attrs: inlinehint nonlazybind uwtable
define internal void @"_ZN4core3ptr29drop_in_place$LT$$RF$u128$GT$17haa439b908a580dddE"(i128** %_1) unnamed_addr #0 !dbg !1328 {
start:
  %_1.dbg.spill = alloca i128**, align 8
  store i128** %_1, i128*** %_1.dbg.spill, align 8
  call void @llvm.dbg.declare(metadata i128*** %_1.dbg.spill, metadata !1333, metadata !DIExpression()), !dbg !1336
  ret void, !dbg !1336
}

; core::ptr::drop_in_place<&simd_tests::x86::ShuffleVectors>
; Function Attrs: inlinehint nonlazybind uwtable
define internal void @"_ZN4core3ptr56drop_in_place$LT$$RF$simd_tests..x86..ShuffleVectors$GT$17h3845e6ca523244e8E"(%"x86::ShuffleVectors"** %_1) unnamed_addr #0 !dbg !1337 {
start:
  %_1.dbg.spill = alloca %"x86::ShuffleVectors"**, align 8
  store %"x86::ShuffleVectors"** %_1, %"x86::ShuffleVectors"*** %_1.dbg.spill, align 8
  call void @llvm.dbg.declare(metadata %"x86::ShuffleVectors"*** %_1.dbg.spill, metadata !1342, metadata !DIExpression()), !dbg !1345
  ret void, !dbg !1345
}

; core::ptr::drop_in_place<&simd_tests::x86::VectorInitLists>
; Function Attrs: inlinehint nonlazybind uwtable
define internal void @"_ZN4core3ptr57drop_in_place$LT$$RF$simd_tests..x86..VectorInitLists$GT$17h040701d3bf3a873bE"(%"x86::VectorInitLists"** %_1) unnamed_addr #0 !dbg !1346 {
start:
  %_1.dbg.spill = alloca %"x86::VectorInitLists"**, align 8
  store %"x86::VectorInitLists"** %_1, %"x86::VectorInitLists"*** %_1.dbg.spill, align 8
  call void @llvm.dbg.declare(metadata %"x86::VectorInitLists"*** %_1.dbg.spill, metadata !1351, metadata !DIExpression()), !dbg !1354
  ret void, !dbg !1354
}

; core::ptr::drop_in_place<std::rt::lang_start<()>::{{closure}}>
; Function Attrs: inlinehint nonlazybind uwtable
define internal void @"_ZN4core3ptr85drop_in_place$LT$std..rt..lang_start$LT$$LP$$RP$$GT$..$u7b$$u7b$closure$u7d$$u7d$$GT$17h08ba8269b4fc63f8E"(i64** %_1) unnamed_addr #0 !dbg !1355 {
start:
  %_1.dbg.spill = alloca i64**, align 8
  store i64** %_1, i64*** %_1.dbg.spill, align 8
  call void @llvm.dbg.declare(metadata i64*** %_1.dbg.spill, metadata !1359, metadata !DIExpression()), !dbg !1362
  ret void, !dbg !1362
}

; core::sync::atomic::atomic_load
; Function Attrs: inlinehint nonlazybind uwtable
define internal i64 @_ZN4core4sync6atomic11atomic_load17h9dec71d96cdc95cdE(i64* %dst, i8 %0) unnamed_addr #0 !dbg !1363 {
start:
  %dst.dbg.spill = alloca i64*, align 8
  %_16 = alloca %"core::fmt::Arguments", align 8
  %_8 = alloca %"core::fmt::Arguments", align 8
  %1 = alloca i64, align 8
  %order = alloca i8, align 1
  store i8 %0, i8* %order, align 1
  store i64* %dst, i64** %dst.dbg.spill, align 8
  call void @llvm.dbg.declare(metadata i64** %dst.dbg.spill, metadata !1368, metadata !DIExpression()), !dbg !1370
  call void @llvm.dbg.declare(metadata i8* %order, metadata !1369, metadata !DIExpression()), !dbg !1371
  %2 = load i8, i8* %order, align 1, !dbg !1372, !range !1373, !noundef !23
  %_3 = zext i8 %2 to i64, !dbg !1372
  switch i64 %_3, label %bb2 [
    i64 0, label %bb3
    i64 1, label %bb9
    i64 2, label %bb5
    i64 3, label %bb1
    i64 4, label %bb7
  ], !dbg !1374

bb2:                                              ; preds = %start
  unreachable, !dbg !1372

bb3:                                              ; preds = %start
  %3 = load atomic i64, i64* %dst monotonic, align 8, !dbg !1375
  store i64 %3, i64* %1, align 8, !dbg !1375
  br label %bb4, !dbg !1375

bb9:                                              ; preds = %start
; call core::fmt::Arguments::new_v1
  call void @_ZN4core3fmt9Arguments6new_v117h457ea6cd90cb6153E(%"core::fmt::Arguments"* sret(%"core::fmt::Arguments") %_8, [0 x { [0 x i8]*, i64 }]* align 8 bitcast (<{ i8*, [8 x i8] }>* @alloc266 to [0 x { [0 x i8]*, i64 }]*), i64 1, [0 x { i8*, i64* }]* align 8 bitcast (<{}>* @alloc653 to [0 x { i8*, i64* }]*), i64 0), !dbg !1376
  br label %bb10, !dbg !1376

bb5:                                              ; preds = %start
  %4 = load atomic i64, i64* %dst acquire, align 8, !dbg !1377
  store i64 %4, i64* %1, align 8, !dbg !1377
  br label %bb6, !dbg !1377

bb1:                                              ; preds = %start
; call core::fmt::Arguments::new_v1
  call void @_ZN4core3fmt9Arguments6new_v117h457ea6cd90cb6153E(%"core::fmt::Arguments"* sret(%"core::fmt::Arguments") %_16, [0 x { [0 x i8]*, i64 }]* align 8 bitcast (<{ i8*, [8 x i8] }>* @alloc261 to [0 x { [0 x i8]*, i64 }]*), i64 1, [0 x { i8*, i64* }]* align 8 bitcast (<{}>* @alloc653 to [0 x { i8*, i64* }]*), i64 0), !dbg !1378
  br label %bb11, !dbg !1378

bb7:                                              ; preds = %start
  %5 = load atomic i64, i64* %dst seq_cst, align 8, !dbg !1379
  store i64 %5, i64* %1, align 8, !dbg !1379
  br label %bb8, !dbg !1379

bb8:                                              ; preds = %bb7
  br label %bb12, !dbg !1380

bb12:                                             ; preds = %bb4, %bb6, %bb8
  %6 = load i64, i64* %1, align 8, !dbg !1381
  ret i64 %6, !dbg !1381

bb11:                                             ; preds = %bb1
; call core::panicking::panic_fmt
  call void @_ZN4core9panicking9panic_fmt17h62ccf03c8a8a51b5E(%"core::fmt::Arguments"* %_16, %"core::panic::location::Location"* align 8 bitcast (<{ i8*, [16 x i8] }>* @alloc715 to %"core::panic::location::Location"*)) #21, !dbg !1378
  unreachable, !dbg !1378

bb6:                                              ; preds = %bb5
  br label %bb12, !dbg !1382

bb10:                                             ; preds = %bb9
; call core::panicking::panic_fmt
  call void @_ZN4core9panicking9panic_fmt17h62ccf03c8a8a51b5E(%"core::fmt::Arguments"* %_8, %"core::panic::location::Location"* align 8 bitcast (<{ i8*, [16 x i8] }>* @alloc717 to %"core::panic::location::Location"*)) #21, !dbg !1376
  unreachable, !dbg !1376

bb4:                                              ; preds = %bb3
  br label %bb12, !dbg !1383
}

; core::tuple::<impl core::cmp::PartialEq for (U,T)>::ne
; Function Attrs: inlinehint nonlazybind uwtable
define internal zeroext i1 @"_ZN4core5tuple64_$LT$impl$u20$core..cmp..PartialEq$u20$for$u20$$LP$U$C$T$RP$$GT$2ne17h10540318ecc3d4f4E"({ double, double }* align 8 %self, { double, double }* align 8 %other) unnamed_addr #0 !dbg !1384 {
start:
  %other.dbg.spill = alloca { double, double }*, align 8
  %self.dbg.spill = alloca { double, double }*, align 8
  %0 = alloca i8, align 1
  store { double, double }* %self, { double, double }** %self.dbg.spill, align 8
  call void @llvm.dbg.declare(metadata { double, double }** %self.dbg.spill, metadata !1391, metadata !DIExpression()), !dbg !1395
  store { double, double }* %other, { double, double }** %other.dbg.spill, align 8
  call void @llvm.dbg.declare(metadata { double, double }** %other.dbg.spill, metadata !1392, metadata !DIExpression()), !dbg !1396
  %_4 = bitcast { double, double }* %self to double*, !dbg !1397
  %_5 = bitcast { double, double }* %other to double*, !dbg !1398
; call core::cmp::impls::<impl core::cmp::PartialEq for f64>::ne
  %_3 = call zeroext i1 @"_ZN4core3cmp5impls54_$LT$impl$u20$core..cmp..PartialEq$u20$for$u20$f64$GT$2ne17h83220a700b1818eeE"(double* align 8 %_4, double* align 8 %_5), !dbg !1397
  br label %bb4, !dbg !1397

bb4:                                              ; preds = %start
  br i1 %_3, label %bb1, label %bb2, !dbg !1397

bb2:                                              ; preds = %bb4
  %_7 = getelementptr inbounds { double, double }, { double, double }* %self, i32 0, i32 1, !dbg !1397
  %_8 = getelementptr inbounds { double, double }, { double, double }* %other, i32 0, i32 1, !dbg !1398
; call core::cmp::impls::<impl core::cmp::PartialEq for f64>::ne
  %_6 = call zeroext i1 @"_ZN4core3cmp5impls54_$LT$impl$u20$core..cmp..PartialEq$u20$for$u20$f64$GT$2ne17h83220a700b1818eeE"(double* align 8 %_7, double* align 8 %_8), !dbg !1397
  br label %bb5, !dbg !1397

bb1:                                              ; preds = %bb4
  store i8 1, i8* %0, align 1, !dbg !1397
  br label %bb3, !dbg !1397

bb3:                                              ; preds = %bb5, %bb1
  %1 = load i8, i8* %0, align 1, !dbg !1399, !range !391, !noundef !23
  %2 = trunc i8 %1 to i1, !dbg !1399
  ret i1 %2, !dbg !1399

bb5:                                              ; preds = %bb2
  %3 = zext i1 %_6 to i8, !dbg !1397
  store i8 %3, i8* %0, align 1, !dbg !1397
  br label %bb3, !dbg !1397
}

; core::tuple::<impl core::cmp::PartialEq for (U,T)>::ne
; Function Attrs: inlinehint nonlazybind uwtable
define internal zeroext i1 @"_ZN4core5tuple64_$LT$impl$u20$core..cmp..PartialEq$u20$for$u20$$LP$U$C$T$RP$$GT$2ne17h92ae89d079bb09f6E"({ i64, i64 }* align 8 %self, { i64, i64 }* align 8 %other) unnamed_addr #0 !dbg !1400 {
start:
  %other.dbg.spill = alloca { i64, i64 }*, align 8
  %self.dbg.spill = alloca { i64, i64 }*, align 8
  %0 = alloca i8, align 1
  store { i64, i64 }* %self, { i64, i64 }** %self.dbg.spill, align 8
  call void @llvm.dbg.declare(metadata { i64, i64 }** %self.dbg.spill, metadata !1404, metadata !DIExpression()), !dbg !1408
  store { i64, i64 }* %other, { i64, i64 }** %other.dbg.spill, align 8
  call void @llvm.dbg.declare(metadata { i64, i64 }** %other.dbg.spill, metadata !1405, metadata !DIExpression()), !dbg !1409
  %_4 = bitcast { i64, i64 }* %self to i64*, !dbg !1410
  %_5 = bitcast { i64, i64 }* %other to i64*, !dbg !1411
; call core::cmp::impls::<impl core::cmp::PartialEq for i64>::ne
  %_3 = call zeroext i1 @"_ZN4core3cmp5impls54_$LT$impl$u20$core..cmp..PartialEq$u20$for$u20$i64$GT$2ne17hc7de2b767815b83dE"(i64* align 8 %_4, i64* align 8 %_5), !dbg !1410
  br label %bb4, !dbg !1410

bb4:                                              ; preds = %start
  br i1 %_3, label %bb1, label %bb2, !dbg !1410

bb2:                                              ; preds = %bb4
  %_7 = getelementptr inbounds { i64, i64 }, { i64, i64 }* %self, i32 0, i32 1, !dbg !1410
  %_8 = getelementptr inbounds { i64, i64 }, { i64, i64 }* %other, i32 0, i32 1, !dbg !1411
; call core::cmp::impls::<impl core::cmp::PartialEq for i64>::ne
  %_6 = call zeroext i1 @"_ZN4core3cmp5impls54_$LT$impl$u20$core..cmp..PartialEq$u20$for$u20$i64$GT$2ne17hc7de2b767815b83dE"(i64* align 8 %_7, i64* align 8 %_8), !dbg !1410
  br label %bb5, !dbg !1410

bb1:                                              ; preds = %bb4
  store i8 1, i8* %0, align 1, !dbg !1410
  br label %bb3, !dbg !1410

bb3:                                              ; preds = %bb5, %bb1
  %1 = load i8, i8* %0, align 1, !dbg !1412, !range !391, !noundef !23
  %2 = trunc i8 %1 to i1, !dbg !1412
  ret i1 %2, !dbg !1412

bb5:                                              ; preds = %bb2
  %3 = zext i1 %_6 to i8, !dbg !1410
  store i8 %3, i8* %0, align 1, !dbg !1410
  br label %bb3, !dbg !1410
}

; core::tuple::<impl core::cmp::PartialEq for (U,T)>::ne
; Function Attrs: inlinehint nonlazybind uwtable
define internal zeroext i1 @"_ZN4core5tuple64_$LT$impl$u20$core..cmp..PartialEq$u20$for$u20$$LP$U$C$T$RP$$GT$2ne17haf64f489cc690aa6E"({ i128, i128 }* align 8 %self, { i128, i128 }* align 8 %other) unnamed_addr #0 !dbg !1413 {
start:
  %other.dbg.spill = alloca { i128, i128 }*, align 8
  %self.dbg.spill = alloca { i128, i128 }*, align 8
  %0 = alloca i8, align 1
  store { i128, i128 }* %self, { i128, i128 }** %self.dbg.spill, align 8
  call void @llvm.dbg.declare(metadata { i128, i128 }** %self.dbg.spill, metadata !1417, metadata !DIExpression()), !dbg !1421
  store { i128, i128 }* %other, { i128, i128 }** %other.dbg.spill, align 8
  call void @llvm.dbg.declare(metadata { i128, i128 }** %other.dbg.spill, metadata !1418, metadata !DIExpression()), !dbg !1422
  %_4 = bitcast { i128, i128 }* %self to i128*, !dbg !1423
  %_5 = bitcast { i128, i128 }* %other to i128*, !dbg !1424
; call core::cmp::impls::<impl core::cmp::PartialEq for u128>::ne
  %_3 = call zeroext i1 @"_ZN4core3cmp5impls55_$LT$impl$u20$core..cmp..PartialEq$u20$for$u20$u128$GT$2ne17hc9b32d5b4a6e27feE"(i128* align 8 %_4, i128* align 8 %_5), !dbg !1423
  br label %bb4, !dbg !1423

bb4:                                              ; preds = %start
  br i1 %_3, label %bb1, label %bb2, !dbg !1423

bb2:                                              ; preds = %bb4
  %_7 = getelementptr inbounds { i128, i128 }, { i128, i128 }* %self, i32 0, i32 1, !dbg !1423
  %_8 = getelementptr inbounds { i128, i128 }, { i128, i128 }* %other, i32 0, i32 1, !dbg !1424
; call core::cmp::impls::<impl core::cmp::PartialEq for u128>::ne
  %_6 = call zeroext i1 @"_ZN4core3cmp5impls55_$LT$impl$u20$core..cmp..PartialEq$u20$for$u20$u128$GT$2ne17hc9b32d5b4a6e27feE"(i128* align 8 %_7, i128* align 8 %_8), !dbg !1423
  br label %bb5, !dbg !1423

bb1:                                              ; preds = %bb4
  store i8 1, i8* %0, align 1, !dbg !1423
  br label %bb3, !dbg !1423

bb3:                                              ; preds = %bb5, %bb1
  %1 = load i8, i8* %0, align 1, !dbg !1425, !range !391, !noundef !23
  %2 = trunc i8 %1 to i1, !dbg !1425
  ret i1 %2, !dbg !1425

bb5:                                              ; preds = %bb2
  %3 = zext i1 %_6 to i8, !dbg !1423
  store i8 %3, i8* %0, align 1, !dbg !1423
  br label %bb3, !dbg !1423
}

; core::tuple::<impl core::cmp::PartialEq for (W,V,U,T)>::ne
; Function Attrs: inlinehint nonlazybind uwtable
define internal zeroext i1 @"_ZN4core5tuple72_$LT$impl$u20$core..cmp..PartialEq$u20$for$u20$$LP$W$C$V$C$U$C$T$RP$$GT$2ne17h057968e9f676d5d7E"({ i64, i64, i64, i64 }* align 8 %self, { i64, i64, i64, i64 }* align 8 %other) unnamed_addr #0 !dbg !1426 {
start:
  %other.dbg.spill = alloca { i64, i64, i64, i64 }*, align 8
  %self.dbg.spill = alloca { i64, i64, i64, i64 }*, align 8
  %_4 = alloca i8, align 1
  %_3 = alloca i8, align 1
  %0 = alloca i8, align 1
  store { i64, i64, i64, i64 }* %self, { i64, i64, i64, i64 }** %self.dbg.spill, align 8
  call void @llvm.dbg.declare(metadata { i64, i64, i64, i64 }** %self.dbg.spill, metadata !1431, metadata !DIExpression()), !dbg !1436
  store { i64, i64, i64, i64 }* %other, { i64, i64, i64, i64 }** %other.dbg.spill, align 8
  call void @llvm.dbg.declare(metadata { i64, i64, i64, i64 }** %other.dbg.spill, metadata !1432, metadata !DIExpression()), !dbg !1437
  %_6 = bitcast { i64, i64, i64, i64 }* %self to i64*, !dbg !1438
  %_7 = bitcast { i64, i64, i64, i64 }* %other to i64*, !dbg !1439
; call core::cmp::impls::<impl core::cmp::PartialEq for i64>::ne
  %_5 = call zeroext i1 @"_ZN4core3cmp5impls54_$LT$impl$u20$core..cmp..PartialEq$u20$for$u20$i64$GT$2ne17hc7de2b767815b83dE"(i64* align 8 %_6, i64* align 8 %_7), !dbg !1438
  br label %bb10, !dbg !1438

bb10:                                             ; preds = %start
  br i1 %_5, label %bb7, label %bb8, !dbg !1438

bb8:                                              ; preds = %bb10
  %_9 = getelementptr inbounds { i64, i64, i64, i64 }, { i64, i64, i64, i64 }* %self, i32 0, i32 1, !dbg !1438
  %_10 = getelementptr inbounds { i64, i64, i64, i64 }, { i64, i64, i64, i64 }* %other, i32 0, i32 1, !dbg !1439
; call core::cmp::impls::<impl core::cmp::PartialEq for i64>::ne
  %_8 = call zeroext i1 @"_ZN4core3cmp5impls54_$LT$impl$u20$core..cmp..PartialEq$u20$for$u20$i64$GT$2ne17hc7de2b767815b83dE"(i64* align 8 %_9, i64* align 8 %_10), !dbg !1438
  br label %bb11, !dbg !1438

bb7:                                              ; preds = %bb10
  store i8 1, i8* %_4, align 1, !dbg !1438
  br label %bb9, !dbg !1438

bb9:                                              ; preds = %bb11, %bb7
  %1 = load i8, i8* %_4, align 1, !dbg !1438, !range !391, !noundef !23
  %2 = trunc i8 %1 to i1, !dbg !1438
  br i1 %2, label %bb4, label %bb5, !dbg !1438

bb11:                                             ; preds = %bb8
  %3 = zext i1 %_8 to i8, !dbg !1438
  store i8 %3, i8* %_4, align 1, !dbg !1438
  br label %bb9, !dbg !1438

bb5:                                              ; preds = %bb9
  %_12 = getelementptr inbounds { i64, i64, i64, i64 }, { i64, i64, i64, i64 }* %self, i32 0, i32 2, !dbg !1438
  %_13 = getelementptr inbounds { i64, i64, i64, i64 }, { i64, i64, i64, i64 }* %other, i32 0, i32 2, !dbg !1439
; call core::cmp::impls::<impl core::cmp::PartialEq for i64>::ne
  %_11 = call zeroext i1 @"_ZN4core3cmp5impls54_$LT$impl$u20$core..cmp..PartialEq$u20$for$u20$i64$GT$2ne17hc7de2b767815b83dE"(i64* align 8 %_12, i64* align 8 %_13), !dbg !1438
  br label %bb12, !dbg !1438

bb4:                                              ; preds = %bb9
  store i8 1, i8* %_3, align 1, !dbg !1438
  br label %bb6, !dbg !1438

bb6:                                              ; preds = %bb12, %bb4
  %4 = load i8, i8* %_3, align 1, !dbg !1438, !range !391, !noundef !23
  %5 = trunc i8 %4 to i1, !dbg !1438
  br i1 %5, label %bb1, label %bb2, !dbg !1438

bb12:                                             ; preds = %bb5
  %6 = zext i1 %_11 to i8, !dbg !1438
  store i8 %6, i8* %_3, align 1, !dbg !1438
  br label %bb6, !dbg !1438

bb2:                                              ; preds = %bb6
  %_15 = getelementptr inbounds { i64, i64, i64, i64 }, { i64, i64, i64, i64 }* %self, i32 0, i32 3, !dbg !1438
  %_16 = getelementptr inbounds { i64, i64, i64, i64 }, { i64, i64, i64, i64 }* %other, i32 0, i32 3, !dbg !1439
; call core::cmp::impls::<impl core::cmp::PartialEq for i64>::ne
  %_14 = call zeroext i1 @"_ZN4core3cmp5impls54_$LT$impl$u20$core..cmp..PartialEq$u20$for$u20$i64$GT$2ne17hc7de2b767815b83dE"(i64* align 8 %_15, i64* align 8 %_16), !dbg !1438
  br label %bb13, !dbg !1438

bb1:                                              ; preds = %bb6
  store i8 1, i8* %0, align 1, !dbg !1438
  br label %bb3, !dbg !1438

bb3:                                              ; preds = %bb13, %bb1
  %7 = load i8, i8* %0, align 1, !dbg !1440, !range !391, !noundef !23
  %8 = trunc i8 %7 to i1, !dbg !1440
  ret i1 %8, !dbg !1440

bb13:                                             ; preds = %bb2
  %9 = zext i1 %_14 to i8, !dbg !1438
  store i8 %9, i8* %0, align 1, !dbg !1438
  br label %bb3, !dbg !1438
}

; core::tuple::<impl core::cmp::PartialEq for (W,V,U,T)>::ne
; Function Attrs: inlinehint nonlazybind uwtable
define internal zeroext i1 @"_ZN4core5tuple72_$LT$impl$u20$core..cmp..PartialEq$u20$for$u20$$LP$W$C$V$C$U$C$T$RP$$GT$2ne17h66b52a589ba47b21E"({ float, float, float, float }* align 4 %self, { float, float, float, float }* align 4 %other) unnamed_addr #0 !dbg !1441 {
start:
  %other.dbg.spill = alloca { float, float, float, float }*, align 8
  %self.dbg.spill = alloca { float, float, float, float }*, align 8
  %_4 = alloca i8, align 1
  %_3 = alloca i8, align 1
  %0 = alloca i8, align 1
  store { float, float, float, float }* %self, { float, float, float, float }** %self.dbg.spill, align 8
  call void @llvm.dbg.declare(metadata { float, float, float, float }** %self.dbg.spill, metadata !1445, metadata !DIExpression()), !dbg !1451
  store { float, float, float, float }* %other, { float, float, float, float }** %other.dbg.spill, align 8
  call void @llvm.dbg.declare(metadata { float, float, float, float }** %other.dbg.spill, metadata !1446, metadata !DIExpression()), !dbg !1452
  %_6 = bitcast { float, float, float, float }* %self to float*, !dbg !1453
  %_7 = bitcast { float, float, float, float }* %other to float*, !dbg !1454
; call core::cmp::impls::<impl core::cmp::PartialEq for f32>::ne
  %_5 = call zeroext i1 @"_ZN4core3cmp5impls54_$LT$impl$u20$core..cmp..PartialEq$u20$for$u20$f32$GT$2ne17hb8144ed937eabccaE"(float* align 4 %_6, float* align 4 %_7), !dbg !1453
  br label %bb10, !dbg !1453

bb10:                                             ; preds = %start
  br i1 %_5, label %bb7, label %bb8, !dbg !1453

bb8:                                              ; preds = %bb10
  %_9 = getelementptr inbounds { float, float, float, float }, { float, float, float, float }* %self, i32 0, i32 1, !dbg !1453
  %_10 = getelementptr inbounds { float, float, float, float }, { float, float, float, float }* %other, i32 0, i32 1, !dbg !1454
; call core::cmp::impls::<impl core::cmp::PartialEq for f32>::ne
  %_8 = call zeroext i1 @"_ZN4core3cmp5impls54_$LT$impl$u20$core..cmp..PartialEq$u20$for$u20$f32$GT$2ne17hb8144ed937eabccaE"(float* align 4 %_9, float* align 4 %_10), !dbg !1453
  br label %bb11, !dbg !1453

bb7:                                              ; preds = %bb10
  store i8 1, i8* %_4, align 1, !dbg !1453
  br label %bb9, !dbg !1453

bb9:                                              ; preds = %bb11, %bb7
  %1 = load i8, i8* %_4, align 1, !dbg !1453, !range !391, !noundef !23
  %2 = trunc i8 %1 to i1, !dbg !1453
  br i1 %2, label %bb4, label %bb5, !dbg !1453

bb11:                                             ; preds = %bb8
  %3 = zext i1 %_8 to i8, !dbg !1453
  store i8 %3, i8* %_4, align 1, !dbg !1453
  br label %bb9, !dbg !1453

bb5:                                              ; preds = %bb9
  %_12 = getelementptr inbounds { float, float, float, float }, { float, float, float, float }* %self, i32 0, i32 2, !dbg !1453
  %_13 = getelementptr inbounds { float, float, float, float }, { float, float, float, float }* %other, i32 0, i32 2, !dbg !1454
; call core::cmp::impls::<impl core::cmp::PartialEq for f32>::ne
  %_11 = call zeroext i1 @"_ZN4core3cmp5impls54_$LT$impl$u20$core..cmp..PartialEq$u20$for$u20$f32$GT$2ne17hb8144ed937eabccaE"(float* align 4 %_12, float* align 4 %_13), !dbg !1453
  br label %bb12, !dbg !1453

bb4:                                              ; preds = %bb9
  store i8 1, i8* %_3, align 1, !dbg !1453
  br label %bb6, !dbg !1453

bb6:                                              ; preds = %bb12, %bb4
  %4 = load i8, i8* %_3, align 1, !dbg !1453, !range !391, !noundef !23
  %5 = trunc i8 %4 to i1, !dbg !1453
  br i1 %5, label %bb1, label %bb2, !dbg !1453

bb12:                                             ; preds = %bb5
  %6 = zext i1 %_11 to i8, !dbg !1453
  store i8 %6, i8* %_3, align 1, !dbg !1453
  br label %bb6, !dbg !1453

bb2:                                              ; preds = %bb6
  %_15 = getelementptr inbounds { float, float, float, float }, { float, float, float, float }* %self, i32 0, i32 3, !dbg !1453
  %_16 = getelementptr inbounds { float, float, float, float }, { float, float, float, float }* %other, i32 0, i32 3, !dbg !1454
; call core::cmp::impls::<impl core::cmp::PartialEq for f32>::ne
  %_14 = call zeroext i1 @"_ZN4core3cmp5impls54_$LT$impl$u20$core..cmp..PartialEq$u20$for$u20$f32$GT$2ne17hb8144ed937eabccaE"(float* align 4 %_15, float* align 4 %_16), !dbg !1453
  br label %bb13, !dbg !1453

bb1:                                              ; preds = %bb6
  store i8 1, i8* %0, align 1, !dbg !1453
  br label %bb3, !dbg !1453

bb3:                                              ; preds = %bb13, %bb1
  %7 = load i8, i8* %0, align 1, !dbg !1455, !range !391, !noundef !23
  %8 = trunc i8 %7 to i1, !dbg !1455
  ret i1 %8, !dbg !1455

bb13:                                             ; preds = %bb2
  %9 = zext i1 %_14 to i8, !dbg !1453
  store i8 %9, i8* %0, align 1, !dbg !1453
  br label %bb3, !dbg !1453
}

; core::tuple::<impl core::cmp::PartialEq for (W,V,U,T)>::ne
; Function Attrs: inlinehint nonlazybind uwtable
define internal zeroext i1 @"_ZN4core5tuple72_$LT$impl$u20$core..cmp..PartialEq$u20$for$u20$$LP$W$C$V$C$U$C$T$RP$$GT$2ne17h9e2e3da8d4e0ea23E"({ double, double, double, double }* align 8 %self, { double, double, double, double }* align 8 %other) unnamed_addr #0 !dbg !1456 {
start:
  %other.dbg.spill = alloca { double, double, double, double }*, align 8
  %self.dbg.spill = alloca { double, double, double, double }*, align 8
  %_4 = alloca i8, align 1
  %_3 = alloca i8, align 1
  %0 = alloca i8, align 1
  store { double, double, double, double }* %self, { double, double, double, double }** %self.dbg.spill, align 8
  call void @llvm.dbg.declare(metadata { double, double, double, double }** %self.dbg.spill, metadata !1460, metadata !DIExpression()), !dbg !1465
  store { double, double, double, double }* %other, { double, double, double, double }** %other.dbg.spill, align 8
  call void @llvm.dbg.declare(metadata { double, double, double, double }** %other.dbg.spill, metadata !1461, metadata !DIExpression()), !dbg !1466
  %_6 = bitcast { double, double, double, double }* %self to double*, !dbg !1467
  %_7 = bitcast { double, double, double, double }* %other to double*, !dbg !1468
; call core::cmp::impls::<impl core::cmp::PartialEq for f64>::ne
  %_5 = call zeroext i1 @"_ZN4core3cmp5impls54_$LT$impl$u20$core..cmp..PartialEq$u20$for$u20$f64$GT$2ne17h83220a700b1818eeE"(double* align 8 %_6, double* align 8 %_7), !dbg !1467
  br label %bb10, !dbg !1467

bb10:                                             ; preds = %start
  br i1 %_5, label %bb7, label %bb8, !dbg !1467

bb8:                                              ; preds = %bb10
  %_9 = getelementptr inbounds { double, double, double, double }, { double, double, double, double }* %self, i32 0, i32 1, !dbg !1467
  %_10 = getelementptr inbounds { double, double, double, double }, { double, double, double, double }* %other, i32 0, i32 1, !dbg !1468
; call core::cmp::impls::<impl core::cmp::PartialEq for f64>::ne
  %_8 = call zeroext i1 @"_ZN4core3cmp5impls54_$LT$impl$u20$core..cmp..PartialEq$u20$for$u20$f64$GT$2ne17h83220a700b1818eeE"(double* align 8 %_9, double* align 8 %_10), !dbg !1467
  br label %bb11, !dbg !1467

bb7:                                              ; preds = %bb10
  store i8 1, i8* %_4, align 1, !dbg !1467
  br label %bb9, !dbg !1467

bb9:                                              ; preds = %bb11, %bb7
  %1 = load i8, i8* %_4, align 1, !dbg !1467, !range !391, !noundef !23
  %2 = trunc i8 %1 to i1, !dbg !1467
  br i1 %2, label %bb4, label %bb5, !dbg !1467

bb11:                                             ; preds = %bb8
  %3 = zext i1 %_8 to i8, !dbg !1467
  store i8 %3, i8* %_4, align 1, !dbg !1467
  br label %bb9, !dbg !1467

bb5:                                              ; preds = %bb9
  %_12 = getelementptr inbounds { double, double, double, double }, { double, double, double, double }* %self, i32 0, i32 2, !dbg !1467
  %_13 = getelementptr inbounds { double, double, double, double }, { double, double, double, double }* %other, i32 0, i32 2, !dbg !1468
; call core::cmp::impls::<impl core::cmp::PartialEq for f64>::ne
  %_11 = call zeroext i1 @"_ZN4core3cmp5impls54_$LT$impl$u20$core..cmp..PartialEq$u20$for$u20$f64$GT$2ne17h83220a700b1818eeE"(double* align 8 %_12, double* align 8 %_13), !dbg !1467
  br label %bb12, !dbg !1467

bb4:                                              ; preds = %bb9
  store i8 1, i8* %_3, align 1, !dbg !1467
  br label %bb6, !dbg !1467

bb6:                                              ; preds = %bb12, %bb4
  %4 = load i8, i8* %_3, align 1, !dbg !1467, !range !391, !noundef !23
  %5 = trunc i8 %4 to i1, !dbg !1467
  br i1 %5, label %bb1, label %bb2, !dbg !1467

bb12:                                             ; preds = %bb5
  %6 = zext i1 %_11 to i8, !dbg !1467
  store i8 %6, i8* %_3, align 1, !dbg !1467
  br label %bb6, !dbg !1467

bb2:                                              ; preds = %bb6
  %_15 = getelementptr inbounds { double, double, double, double }, { double, double, double, double }* %self, i32 0, i32 3, !dbg !1467
  %_16 = getelementptr inbounds { double, double, double, double }, { double, double, double, double }* %other, i32 0, i32 3, !dbg !1468
; call core::cmp::impls::<impl core::cmp::PartialEq for f64>::ne
  %_14 = call zeroext i1 @"_ZN4core3cmp5impls54_$LT$impl$u20$core..cmp..PartialEq$u20$for$u20$f64$GT$2ne17h83220a700b1818eeE"(double* align 8 %_15, double* align 8 %_16), !dbg !1467
  br label %bb13, !dbg !1467

bb1:                                              ; preds = %bb6
  store i8 1, i8* %0, align 1, !dbg !1467
  br label %bb3, !dbg !1467

bb3:                                              ; preds = %bb13, %bb1
  %7 = load i8, i8* %0, align 1, !dbg !1469, !range !391, !noundef !23
  %8 = trunc i8 %7 to i1, !dbg !1469
  ret i1 %8, !dbg !1469

bb13:                                             ; preds = %bb2
  %9 = zext i1 %_14 to i8, !dbg !1467
  store i8 %9, i8* %0, align 1, !dbg !1467
  br label %bb3, !dbg !1467
}

; core::tuple::<impl core::cmp::PartialEq for (A,Z,Y,X,W,V,U,T)>::ne
; Function Attrs: inlinehint nonlazybind uwtable
define internal zeroext i1 @"_ZN4core5tuple88_$LT$impl$u20$core..cmp..PartialEq$u20$for$u20$$LP$A$C$Z$C$Y$C$X$C$W$C$V$C$U$C$T$RP$$GT$2ne17h9bcdf4dc794d3299E"({ float, float, float, float, float, float, float, float }* align 4 %self, { float, float, float, float, float, float, float, float }* align 4 %other) unnamed_addr #0 !dbg !1470 {
start:
  %other.dbg.spill = alloca { float, float, float, float, float, float, float, float }*, align 8
  %self.dbg.spill = alloca { float, float, float, float, float, float, float, float }*, align 8
  %_8 = alloca i8, align 1
  %_7 = alloca i8, align 1
  %_6 = alloca i8, align 1
  %_5 = alloca i8, align 1
  %_4 = alloca i8, align 1
  %_3 = alloca i8, align 1
  %0 = alloca i8, align 1
  store { float, float, float, float, float, float, float, float }* %self, { float, float, float, float, float, float, float, float }** %self.dbg.spill, align 8
  call void @llvm.dbg.declare(metadata { float, float, float, float, float, float, float, float }** %self.dbg.spill, metadata !1475, metadata !DIExpression()), !dbg !1482
  store { float, float, float, float, float, float, float, float }* %other, { float, float, float, float, float, float, float, float }** %other.dbg.spill, align 8
  call void @llvm.dbg.declare(metadata { float, float, float, float, float, float, float, float }** %other.dbg.spill, metadata !1476, metadata !DIExpression()), !dbg !1483
  %_10 = bitcast { float, float, float, float, float, float, float, float }* %self to float*, !dbg !1484
  %_11 = bitcast { float, float, float, float, float, float, float, float }* %other to float*, !dbg !1485
; call core::cmp::impls::<impl core::cmp::PartialEq for f32>::ne
  %_9 = call zeroext i1 @"_ZN4core3cmp5impls54_$LT$impl$u20$core..cmp..PartialEq$u20$for$u20$f32$GT$2ne17hb8144ed937eabccaE"(float* align 4 %_10, float* align 4 %_11), !dbg !1484
  br label %bb22, !dbg !1484

bb22:                                             ; preds = %start
  br i1 %_9, label %bb19, label %bb20, !dbg !1484

bb20:                                             ; preds = %bb22
  %_13 = getelementptr inbounds { float, float, float, float, float, float, float, float }, { float, float, float, float, float, float, float, float }* %self, i32 0, i32 1, !dbg !1484
  %_14 = getelementptr inbounds { float, float, float, float, float, float, float, float }, { float, float, float, float, float, float, float, float }* %other, i32 0, i32 1, !dbg !1485
; call core::cmp::impls::<impl core::cmp::PartialEq for f32>::ne
  %_12 = call zeroext i1 @"_ZN4core3cmp5impls54_$LT$impl$u20$core..cmp..PartialEq$u20$for$u20$f32$GT$2ne17hb8144ed937eabccaE"(float* align 4 %_13, float* align 4 %_14), !dbg !1484
  br label %bb23, !dbg !1484

bb19:                                             ; preds = %bb22
  store i8 1, i8* %_8, align 1, !dbg !1484
  br label %bb21, !dbg !1484

bb21:                                             ; preds = %bb23, %bb19
  %1 = load i8, i8* %_8, align 1, !dbg !1484, !range !391, !noundef !23
  %2 = trunc i8 %1 to i1, !dbg !1484
  br i1 %2, label %bb16, label %bb17, !dbg !1484

bb23:                                             ; preds = %bb20
  %3 = zext i1 %_12 to i8, !dbg !1484
  store i8 %3, i8* %_8, align 1, !dbg !1484
  br label %bb21, !dbg !1484

bb17:                                             ; preds = %bb21
  %_16 = getelementptr inbounds { float, float, float, float, float, float, float, float }, { float, float, float, float, float, float, float, float }* %self, i32 0, i32 2, !dbg !1484
  %_17 = getelementptr inbounds { float, float, float, float, float, float, float, float }, { float, float, float, float, float, float, float, float }* %other, i32 0, i32 2, !dbg !1485
; call core::cmp::impls::<impl core::cmp::PartialEq for f32>::ne
  %_15 = call zeroext i1 @"_ZN4core3cmp5impls54_$LT$impl$u20$core..cmp..PartialEq$u20$for$u20$f32$GT$2ne17hb8144ed937eabccaE"(float* align 4 %_16, float* align 4 %_17), !dbg !1484
  br label %bb24, !dbg !1484

bb16:                                             ; preds = %bb21
  store i8 1, i8* %_7, align 1, !dbg !1484
  br label %bb18, !dbg !1484

bb18:                                             ; preds = %bb24, %bb16
  %4 = load i8, i8* %_7, align 1, !dbg !1484, !range !391, !noundef !23
  %5 = trunc i8 %4 to i1, !dbg !1484
  br i1 %5, label %bb13, label %bb14, !dbg !1484

bb24:                                             ; preds = %bb17
  %6 = zext i1 %_15 to i8, !dbg !1484
  store i8 %6, i8* %_7, align 1, !dbg !1484
  br label %bb18, !dbg !1484

bb14:                                             ; preds = %bb18
  %_19 = getelementptr inbounds { float, float, float, float, float, float, float, float }, { float, float, float, float, float, float, float, float }* %self, i32 0, i32 3, !dbg !1484
  %_20 = getelementptr inbounds { float, float, float, float, float, float, float, float }, { float, float, float, float, float, float, float, float }* %other, i32 0, i32 3, !dbg !1485
; call core::cmp::impls::<impl core::cmp::PartialEq for f32>::ne
  %_18 = call zeroext i1 @"_ZN4core3cmp5impls54_$LT$impl$u20$core..cmp..PartialEq$u20$for$u20$f32$GT$2ne17hb8144ed937eabccaE"(float* align 4 %_19, float* align 4 %_20), !dbg !1484
  br label %bb25, !dbg !1484

bb13:                                             ; preds = %bb18
  store i8 1, i8* %_6, align 1, !dbg !1484
  br label %bb15, !dbg !1484

bb15:                                             ; preds = %bb25, %bb13
  %7 = load i8, i8* %_6, align 1, !dbg !1484, !range !391, !noundef !23
  %8 = trunc i8 %7 to i1, !dbg !1484
  br i1 %8, label %bb10, label %bb11, !dbg !1484

bb25:                                             ; preds = %bb14
  %9 = zext i1 %_18 to i8, !dbg !1484
  store i8 %9, i8* %_6, align 1, !dbg !1484
  br label %bb15, !dbg !1484

bb11:                                             ; preds = %bb15
  %_22 = getelementptr inbounds { float, float, float, float, float, float, float, float }, { float, float, float, float, float, float, float, float }* %self, i32 0, i32 4, !dbg !1484
  %_23 = getelementptr inbounds { float, float, float, float, float, float, float, float }, { float, float, float, float, float, float, float, float }* %other, i32 0, i32 4, !dbg !1485
; call core::cmp::impls::<impl core::cmp::PartialEq for f32>::ne
  %_21 = call zeroext i1 @"_ZN4core3cmp5impls54_$LT$impl$u20$core..cmp..PartialEq$u20$for$u20$f32$GT$2ne17hb8144ed937eabccaE"(float* align 4 %_22, float* align 4 %_23), !dbg !1484
  br label %bb26, !dbg !1484

bb10:                                             ; preds = %bb15
  store i8 1, i8* %_5, align 1, !dbg !1484
  br label %bb12, !dbg !1484

bb12:                                             ; preds = %bb26, %bb10
  %10 = load i8, i8* %_5, align 1, !dbg !1484, !range !391, !noundef !23
  %11 = trunc i8 %10 to i1, !dbg !1484
  br i1 %11, label %bb7, label %bb8, !dbg !1484

bb26:                                             ; preds = %bb11
  %12 = zext i1 %_21 to i8, !dbg !1484
  store i8 %12, i8* %_5, align 1, !dbg !1484
  br label %bb12, !dbg !1484

bb8:                                              ; preds = %bb12
  %_25 = getelementptr inbounds { float, float, float, float, float, float, float, float }, { float, float, float, float, float, float, float, float }* %self, i32 0, i32 5, !dbg !1484
  %_26 = getelementptr inbounds { float, float, float, float, float, float, float, float }, { float, float, float, float, float, float, float, float }* %other, i32 0, i32 5, !dbg !1485
; call core::cmp::impls::<impl core::cmp::PartialEq for f32>::ne
  %_24 = call zeroext i1 @"_ZN4core3cmp5impls54_$LT$impl$u20$core..cmp..PartialEq$u20$for$u20$f32$GT$2ne17hb8144ed937eabccaE"(float* align 4 %_25, float* align 4 %_26), !dbg !1484
  br label %bb27, !dbg !1484

bb7:                                              ; preds = %bb12
  store i8 1, i8* %_4, align 1, !dbg !1484
  br label %bb9, !dbg !1484

bb9:                                              ; preds = %bb27, %bb7
  %13 = load i8, i8* %_4, align 1, !dbg !1484, !range !391, !noundef !23
  %14 = trunc i8 %13 to i1, !dbg !1484
  br i1 %14, label %bb4, label %bb5, !dbg !1484

bb27:                                             ; preds = %bb8
  %15 = zext i1 %_24 to i8, !dbg !1484
  store i8 %15, i8* %_4, align 1, !dbg !1484
  br label %bb9, !dbg !1484

bb5:                                              ; preds = %bb9
  %_28 = getelementptr inbounds { float, float, float, float, float, float, float, float }, { float, float, float, float, float, float, float, float }* %self, i32 0, i32 6, !dbg !1484
  %_29 = getelementptr inbounds { float, float, float, float, float, float, float, float }, { float, float, float, float, float, float, float, float }* %other, i32 0, i32 6, !dbg !1485
; call core::cmp::impls::<impl core::cmp::PartialEq for f32>::ne
  %_27 = call zeroext i1 @"_ZN4core3cmp5impls54_$LT$impl$u20$core..cmp..PartialEq$u20$for$u20$f32$GT$2ne17hb8144ed937eabccaE"(float* align 4 %_28, float* align 4 %_29), !dbg !1484
  br label %bb28, !dbg !1484

bb4:                                              ; preds = %bb9
  store i8 1, i8* %_3, align 1, !dbg !1484
  br label %bb6, !dbg !1484

bb6:                                              ; preds = %bb28, %bb4
  %16 = load i8, i8* %_3, align 1, !dbg !1484, !range !391, !noundef !23
  %17 = trunc i8 %16 to i1, !dbg !1484
  br i1 %17, label %bb1, label %bb2, !dbg !1484

bb28:                                             ; preds = %bb5
  %18 = zext i1 %_27 to i8, !dbg !1484
  store i8 %18, i8* %_3, align 1, !dbg !1484
  br label %bb6, !dbg !1484

bb2:                                              ; preds = %bb6
  %_31 = getelementptr inbounds { float, float, float, float, float, float, float, float }, { float, float, float, float, float, float, float, float }* %self, i32 0, i32 7, !dbg !1484
  %_32 = getelementptr inbounds { float, float, float, float, float, float, float, float }, { float, float, float, float, float, float, float, float }* %other, i32 0, i32 7, !dbg !1485
; call core::cmp::impls::<impl core::cmp::PartialEq for f32>::ne
  %_30 = call zeroext i1 @"_ZN4core3cmp5impls54_$LT$impl$u20$core..cmp..PartialEq$u20$for$u20$f32$GT$2ne17hb8144ed937eabccaE"(float* align 4 %_31, float* align 4 %_32), !dbg !1484
  br label %bb29, !dbg !1484

bb1:                                              ; preds = %bb6
  store i8 1, i8* %0, align 1, !dbg !1484
  br label %bb3, !dbg !1484

bb3:                                              ; preds = %bb29, %bb1
  %19 = load i8, i8* %0, align 1, !dbg !1486, !range !391, !noundef !23
  %20 = trunc i8 %19 to i1, !dbg !1486
  ret i1 %20, !dbg !1486

bb29:                                             ; preds = %bb2
  %21 = zext i1 %_30 to i8, !dbg !1484
  store i8 %21, i8* %0, align 1, !dbg !1484
  br label %bb3, !dbg !1484
}

; core::core_arch::x86::aes::_mm_aesdec_si128
; Function Attrs: inlinehint nonlazybind uwtable
define internal void @_ZN4core9core_arch3x863aes16_mm_aesdec_si12817h15ee8d3e3b69bbdaE(<2 x i64>* sret(<2 x i64>) %0, <2 x i64>* %a, <2 x i64>* %round_key) unnamed_addr #3 !dbg !1487 {
start:
  call void @llvm.dbg.declare(metadata <2 x i64>* %a, metadata !1493, metadata !DIExpression()), !dbg !1495
  call void @llvm.dbg.declare(metadata <2 x i64>* %round_key, metadata !1494, metadata !DIExpression()), !dbg !1496
  %_3 = load <2 x i64>, <2 x i64>* %a, align 16, !dbg !1497
  %_4 = load <2 x i64>, <2 x i64>* %round_key, align 16, !dbg !1498
  %1 = call <2 x i64> @llvm.x86.aesni.aesdec(<2 x i64> %_3, <2 x i64> %_4) #22, !dbg !1499
  store <2 x i64> %1, <2 x i64>* %0, align 16, !dbg !1499
  br label %bb1, !dbg !1499

bb1:                                              ; preds = %start
  ret void, !dbg !1500
}

; core::core_arch::x86::aes::_mm_aesenc_si128
; Function Attrs: inlinehint nonlazybind uwtable
define internal void @_ZN4core9core_arch3x863aes16_mm_aesenc_si12817hb16edcd4ae4d1396E(<2 x i64>* sret(<2 x i64>) %0, <2 x i64>* %a, <2 x i64>* %round_key) unnamed_addr #3 !dbg !1501 {
start:
  call void @llvm.dbg.declare(metadata <2 x i64>* %a, metadata !1503, metadata !DIExpression()), !dbg !1505
  call void @llvm.dbg.declare(metadata <2 x i64>* %round_key, metadata !1504, metadata !DIExpression()), !dbg !1506
  %_3 = load <2 x i64>, <2 x i64>* %a, align 16, !dbg !1507
  %_4 = load <2 x i64>, <2 x i64>* %round_key, align 16, !dbg !1508
  %1 = call <2 x i64> @llvm.x86.aesni.aesenc(<2 x i64> %_3, <2 x i64> %_4) #22, !dbg !1509
  store <2 x i64> %1, <2 x i64>* %0, align 16, !dbg !1509
  br label %bb1, !dbg !1509

bb1:                                              ; preds = %start
  ret void, !dbg !1510
}

; core::core_arch::x86::aes::_mm_aesimc_si128
; Function Attrs: inlinehint nonlazybind uwtable
define internal void @_ZN4core9core_arch3x863aes16_mm_aesimc_si12817h16371b6826b3f331E(<2 x i64>* sret(<2 x i64>) %0, <2 x i64>* %a) unnamed_addr #3 !dbg !1511 {
start:
  call void @llvm.dbg.declare(metadata <2 x i64>* %a, metadata !1515, metadata !DIExpression()), !dbg !1516
  %_2 = load <2 x i64>, <2 x i64>* %a, align 16, !dbg !1517
  %1 = call <2 x i64> @llvm.x86.aesni.aesimc(<2 x i64> %_2) #22, !dbg !1518
  store <2 x i64> %1, <2 x i64>* %0, align 16, !dbg !1518
  br label %bb1, !dbg !1518

bb1:                                              ; preds = %start
  ret void, !dbg !1519
}

; core::core_arch::x86::aes::_mm_aesdeclast_si128
; Function Attrs: inlinehint nonlazybind uwtable
define internal void @_ZN4core9core_arch3x863aes20_mm_aesdeclast_si12817h005cc16c13d691f3E(<2 x i64>* sret(<2 x i64>) %0, <2 x i64>* %a, <2 x i64>* %round_key) unnamed_addr #3 !dbg !1520 {
start:
  call void @llvm.dbg.declare(metadata <2 x i64>* %a, metadata !1522, metadata !DIExpression()), !dbg !1524
  call void @llvm.dbg.declare(metadata <2 x i64>* %round_key, metadata !1523, metadata !DIExpression()), !dbg !1525
  %_3 = load <2 x i64>, <2 x i64>* %a, align 16, !dbg !1526
  %_4 = load <2 x i64>, <2 x i64>* %round_key, align 16, !dbg !1527
  %1 = call <2 x i64> @llvm.x86.aesni.aesdeclast(<2 x i64> %_3, <2 x i64> %_4) #22, !dbg !1528
  store <2 x i64> %1, <2 x i64>* %0, align 16, !dbg !1528
  br label %bb1, !dbg !1528

bb1:                                              ; preds = %start
  ret void, !dbg !1529
}

; core::core_arch::x86::aes::_mm_aesenclast_si128
; Function Attrs: inlinehint nonlazybind uwtable
define internal void @_ZN4core9core_arch3x863aes20_mm_aesenclast_si12817h84479bd8e0cb268bE(<2 x i64>* sret(<2 x i64>) %0, <2 x i64>* %a, <2 x i64>* %round_key) unnamed_addr #3 !dbg !1530 {
start:
  call void @llvm.dbg.declare(metadata <2 x i64>* %a, metadata !1532, metadata !DIExpression()), !dbg !1534
  call void @llvm.dbg.declare(metadata <2 x i64>* %round_key, metadata !1533, metadata !DIExpression()), !dbg !1535
  %_3 = load <2 x i64>, <2 x i64>* %a, align 16, !dbg !1536
  %_4 = load <2 x i64>, <2 x i64>* %round_key, align 16, !dbg !1537
  %1 = call <2 x i64> @llvm.x86.aesni.aesenclast(<2 x i64> %_3, <2 x i64> %_4) #22, !dbg !1538
  store <2 x i64> %1, <2 x i64>* %0, align 16, !dbg !1538
  br label %bb1, !dbg !1538

bb1:                                              ; preds = %start
  ret void, !dbg !1539
}

; core::core_arch::x86::aes::_mm_aeskeygenassist_si128
; Function Attrs: inlinehint nonlazybind uwtable
define internal void @_ZN4core9core_arch3x863aes25_mm_aeskeygenassist_si12817h37236866b7180540E(<2 x i64>* sret(<2 x i64>) %0, <2 x i64>* %a) unnamed_addr #3 !dbg !1540 {
start:
  call void @llvm.dbg.declare(metadata <2 x i64>* %a, metadata !1542, metadata !DIExpression()), !dbg !1543
  %_2 = load <2 x i64>, <2 x i64>* %a, align 16, !dbg !1544
  %1 = call <2 x i64> @llvm.x86.aesni.aeskeygenassist(<2 x i64> %_2, i8 zeroext 2) #22, !dbg !1545
  store <2 x i64> %1, <2 x i64>* %0, align 16, !dbg !1545
  br label %bb1, !dbg !1545

bb1:                                              ; preds = %start
  ret void, !dbg !1546
}

; core::core_arch::x86::avx::_mm256_set_pd
; Function Attrs: inlinehint nonlazybind uwtable
define internal void @_ZN4core9core_arch3x863avx13_mm256_set_pd17h13c850e92d93d88cE(<4 x double>* sret(<4 x double>) %0, double %a, double %b, double %c, double %d) unnamed_addr #4 !dbg !1547 {
start:
  %d.dbg.spill4 = alloca double, align 8
  %c.dbg.spill3 = alloca double, align 8
  %b.dbg.spill2 = alloca double, align 8
  %a.dbg.spill1 = alloca double, align 8
  %d.dbg.spill = alloca double, align 8
  %c.dbg.spill = alloca double, align 8
  %b.dbg.spill = alloca double, align 8
  %a.dbg.spill = alloca double, align 8
  store double %a, double* %a.dbg.spill, align 8
  call void @llvm.dbg.declare(metadata double* %a.dbg.spill, metadata !1553, metadata !DIExpression()), !dbg !1557
  store double %b, double* %b.dbg.spill, align 8
  call void @llvm.dbg.declare(metadata double* %b.dbg.spill, metadata !1554, metadata !DIExpression()), !dbg !1558
  store double %c, double* %c.dbg.spill, align 8
  call void @llvm.dbg.declare(metadata double* %c.dbg.spill, metadata !1555, metadata !DIExpression()), !dbg !1559
  store double %d, double* %d.dbg.spill, align 8
  call void @llvm.dbg.declare(metadata double* %d.dbg.spill, metadata !1556, metadata !DIExpression()), !dbg !1560
  store double %d, double* %a.dbg.spill1, align 8, !dbg !1561
  call void @llvm.dbg.declare(metadata double* %a.dbg.spill1, metadata !1562, metadata !DIExpression()), !dbg !1568
  store double %c, double* %b.dbg.spill2, align 8, !dbg !1570
  call void @llvm.dbg.declare(metadata double* %b.dbg.spill2, metadata !1565, metadata !DIExpression()), !dbg !1568
  store double %b, double* %c.dbg.spill3, align 8, !dbg !1571
  call void @llvm.dbg.declare(metadata double* %c.dbg.spill3, metadata !1566, metadata !DIExpression()), !dbg !1568
  store double %a, double* %d.dbg.spill4, align 8, !dbg !1572
  call void @llvm.dbg.declare(metadata double* %d.dbg.spill4, metadata !1567, metadata !DIExpression()), !dbg !1568
  %1 = bitcast <4 x double>* %0 to double*, !dbg !1568
  store double %d, double* %1, align 32, !dbg !1568
  %2 = getelementptr inbounds <4 x double>, <4 x double>* %0, i32 0, i32 1, !dbg !1568
  store double %c, double* %2, align 8, !dbg !1568
  %3 = getelementptr inbounds <4 x double>, <4 x double>* %0, i32 0, i32 2, !dbg !1568
  store double %b, double* %3, align 16, !dbg !1568
  %4 = getelementptr inbounds <4 x double>, <4 x double>* %0, i32 0, i32 3, !dbg !1568
  store double %a, double* %4, align 8, !dbg !1568
  ret void, !dbg !1573
}

; core::core_arch::x86::avx::_mm256_set1_ps
; Function Attrs: inlinehint nonlazybind uwtable
define internal void @_ZN4core9core_arch3x863avx14_mm256_set1_ps17h654896b6489e70c0E(<8 x float>* sret(<8 x float>) %0, float %a) unnamed_addr #4 !dbg !1574 {
start:
  %h.dbg.spill = alloca float, align 4
  %g.dbg.spill = alloca float, align 4
  %f.dbg.spill = alloca float, align 4
  %e.dbg.spill = alloca float, align 4
  %d.dbg.spill = alloca float, align 4
  %c.dbg.spill = alloca float, align 4
  %b.dbg.spill = alloca float, align 4
  %a.dbg.spill1 = alloca float, align 4
  %a.dbg.spill = alloca float, align 4
  store float %a, float* %a.dbg.spill, align 4
  call void @llvm.dbg.declare(metadata float* %a.dbg.spill, metadata !1578, metadata !DIExpression()), !dbg !1579
  store float %a, float* %a.dbg.spill1, align 4, !dbg !1580
  call void @llvm.dbg.declare(metadata float* %a.dbg.spill1, metadata !1581, metadata !DIExpression()), !dbg !1593
  store float %a, float* %b.dbg.spill, align 4, !dbg !1595
  call void @llvm.dbg.declare(metadata float* %b.dbg.spill, metadata !1586, metadata !DIExpression()), !dbg !1593
  store float %a, float* %c.dbg.spill, align 4, !dbg !1596
  call void @llvm.dbg.declare(metadata float* %c.dbg.spill, metadata !1587, metadata !DIExpression()), !dbg !1593
  store float %a, float* %d.dbg.spill, align 4, !dbg !1597
  call void @llvm.dbg.declare(metadata float* %d.dbg.spill, metadata !1588, metadata !DIExpression()), !dbg !1593
  store float %a, float* %e.dbg.spill, align 4, !dbg !1598
  call void @llvm.dbg.declare(metadata float* %e.dbg.spill, metadata !1589, metadata !DIExpression()), !dbg !1593
  store float %a, float* %f.dbg.spill, align 4, !dbg !1599
  call void @llvm.dbg.declare(metadata float* %f.dbg.spill, metadata !1590, metadata !DIExpression()), !dbg !1593
  store float %a, float* %g.dbg.spill, align 4, !dbg !1600
  call void @llvm.dbg.declare(metadata float* %g.dbg.spill, metadata !1591, metadata !DIExpression()), !dbg !1593
  store float %a, float* %h.dbg.spill, align 4, !dbg !1601
  call void @llvm.dbg.declare(metadata float* %h.dbg.spill, metadata !1592, metadata !DIExpression()), !dbg !1593
  %1 = bitcast <8 x float>* %0 to float*, !dbg !1593
  store float %a, float* %1, align 32, !dbg !1593
  %2 = getelementptr inbounds <8 x float>, <8 x float>* %0, i32 0, i32 1, !dbg !1593
  store float %a, float* %2, align 4, !dbg !1593
  %3 = getelementptr inbounds <8 x float>, <8 x float>* %0, i32 0, i32 2, !dbg !1593
  store float %a, float* %3, align 8, !dbg !1593
  %4 = getelementptr inbounds <8 x float>, <8 x float>* %0, i32 0, i32 3, !dbg !1593
  store float %a, float* %4, align 4, !dbg !1593
  %5 = getelementptr inbounds <8 x float>, <8 x float>* %0, i32 0, i32 4, !dbg !1593
  store float %a, float* %5, align 16, !dbg !1593
  %6 = getelementptr inbounds <8 x float>, <8 x float>* %0, i32 0, i32 5, !dbg !1593
  store float %a, float* %6, align 4, !dbg !1593
  %7 = getelementptr inbounds <8 x float>, <8 x float>* %0, i32 0, i32 6, !dbg !1593
  store float %a, float* %7, align 8, !dbg !1593
  %8 = getelementptr inbounds <8 x float>, <8 x float>* %0, i32 0, i32 7, !dbg !1593
  store float %a, float* %8, align 4, !dbg !1593
  ret void, !dbg !1602
}

; core::core_arch::x86::avx::_mm256_setr_pd
; Function Attrs: inlinehint nonlazybind uwtable
define internal void @_ZN4core9core_arch3x863avx14_mm256_setr_pd17he40394d629024967E(<4 x double>* sret(<4 x double>) %0, double %a, double %b, double %c, double %d) unnamed_addr #4 !dbg !1603 {
start:
  %d.dbg.spill = alloca double, align 8
  %c.dbg.spill = alloca double, align 8
  %b.dbg.spill = alloca double, align 8
  %a.dbg.spill = alloca double, align 8
  store double %a, double* %a.dbg.spill, align 8
  call void @llvm.dbg.declare(metadata double* %a.dbg.spill, metadata !1605, metadata !DIExpression()), !dbg !1609
  store double %b, double* %b.dbg.spill, align 8
  call void @llvm.dbg.declare(metadata double* %b.dbg.spill, metadata !1606, metadata !DIExpression()), !dbg !1610
  store double %c, double* %c.dbg.spill, align 8
  call void @llvm.dbg.declare(metadata double* %c.dbg.spill, metadata !1607, metadata !DIExpression()), !dbg !1611
  store double %d, double* %d.dbg.spill, align 8
  call void @llvm.dbg.declare(metadata double* %d.dbg.spill, metadata !1608, metadata !DIExpression()), !dbg !1612
  %1 = bitcast <4 x double>* %0 to double*, !dbg !1613
  store double %a, double* %1, align 32, !dbg !1613
  %2 = getelementptr inbounds <4 x double>, <4 x double>* %0, i32 0, i32 1, !dbg !1613
  store double %b, double* %2, align 8, !dbg !1613
  %3 = getelementptr inbounds <4 x double>, <4 x double>* %0, i32 0, i32 2, !dbg !1613
  store double %c, double* %3, align 16, !dbg !1613
  %4 = getelementptr inbounds <4 x double>, <4 x double>* %0, i32 0, i32 3, !dbg !1613
  store double %d, double* %4, align 8, !dbg !1613
  ret void, !dbg !1614
}

; core::core_arch::x86::avx::_mm256_setr_ps
; Function Attrs: inlinehint nonlazybind uwtable
define internal void @_ZN4core9core_arch3x863avx14_mm256_setr_ps17h82ef9c8c2102534eE(<8 x float>* sret(<8 x float>) %0, float %a, float %b, float %c, float %d, float %e, float %f, float %g, float %h) unnamed_addr #4 !dbg !1615 {
start:
  %h.dbg.spill = alloca float, align 4
  %g.dbg.spill = alloca float, align 4
  %f.dbg.spill = alloca float, align 4
  %e.dbg.spill = alloca float, align 4
  %d.dbg.spill = alloca float, align 4
  %c.dbg.spill = alloca float, align 4
  %b.dbg.spill = alloca float, align 4
  %a.dbg.spill = alloca float, align 4
  store float %a, float* %a.dbg.spill, align 4
  call void @llvm.dbg.declare(metadata float* %a.dbg.spill, metadata !1617, metadata !DIExpression()), !dbg !1625
  store float %b, float* %b.dbg.spill, align 4
  call void @llvm.dbg.declare(metadata float* %b.dbg.spill, metadata !1618, metadata !DIExpression()), !dbg !1626
  store float %c, float* %c.dbg.spill, align 4
  call void @llvm.dbg.declare(metadata float* %c.dbg.spill, metadata !1619, metadata !DIExpression()), !dbg !1627
  store float %d, float* %d.dbg.spill, align 4
  call void @llvm.dbg.declare(metadata float* %d.dbg.spill, metadata !1620, metadata !DIExpression()), !dbg !1628
  store float %e, float* %e.dbg.spill, align 4
  call void @llvm.dbg.declare(metadata float* %e.dbg.spill, metadata !1621, metadata !DIExpression()), !dbg !1629
  store float %f, float* %f.dbg.spill, align 4
  call void @llvm.dbg.declare(metadata float* %f.dbg.spill, metadata !1622, metadata !DIExpression()), !dbg !1630
  store float %g, float* %g.dbg.spill, align 4
  call void @llvm.dbg.declare(metadata float* %g.dbg.spill, metadata !1623, metadata !DIExpression()), !dbg !1631
  store float %h, float* %h.dbg.spill, align 4
  call void @llvm.dbg.declare(metadata float* %h.dbg.spill, metadata !1624, metadata !DIExpression()), !dbg !1632
  %1 = bitcast <8 x float>* %0 to float*, !dbg !1633
  store float %a, float* %1, align 32, !dbg !1633
  %2 = getelementptr inbounds <8 x float>, <8 x float>* %0, i32 0, i32 1, !dbg !1633
  store float %b, float* %2, align 4, !dbg !1633
  %3 = getelementptr inbounds <8 x float>, <8 x float>* %0, i32 0, i32 2, !dbg !1633
  store float %c, float* %3, align 8, !dbg !1633
  %4 = getelementptr inbounds <8 x float>, <8 x float>* %0, i32 0, i32 3, !dbg !1633
  store float %d, float* %4, align 4, !dbg !1633
  %5 = getelementptr inbounds <8 x float>, <8 x float>* %0, i32 0, i32 4, !dbg !1633
  store float %e, float* %5, align 16, !dbg !1633
  %6 = getelementptr inbounds <8 x float>, <8 x float>* %0, i32 0, i32 5, !dbg !1633
  store float %f, float* %6, align 4, !dbg !1633
  %7 = getelementptr inbounds <8 x float>, <8 x float>* %0, i32 0, i32 6, !dbg !1633
  store float %g, float* %7, align 8, !dbg !1633
  %8 = getelementptr inbounds <8 x float>, <8 x float>* %0, i32 0, i32 7, !dbg !1633
  store float %h, float* %8, align 4, !dbg !1633
  ret void, !dbg !1634
}

; core::core_arch::x86::avx::_mm256_set1_epi8
; Function Attrs: inlinehint nonlazybind uwtable
define internal void @_ZN4core9core_arch3x863avx16_mm256_set1_epi817he5ff20420aa13483E(<4 x i64>* sret(<4 x i64>) %0, i8 %a) unnamed_addr #4 !dbg !1635 {
start:
  %a.dbg.spill = alloca i8, align 1
  store i8 %a, i8* %a.dbg.spill, align 1
  call void @llvm.dbg.declare(metadata i8* %a.dbg.spill, metadata !1640, metadata !DIExpression()), !dbg !1641
; call core::core_arch::x86::avx::_mm256_setr_epi8
  call void @_ZN4core9core_arch3x863avx16_mm256_setr_epi817h86b44edca5ae0435E(<4 x i64>* sret(<4 x i64>) %0, i8 %a, i8 %a, i8 %a, i8 %a, i8 %a, i8 %a, i8 %a, i8 %a, i8 %a, i8 %a, i8 %a, i8 %a, i8 %a, i8 %a, i8 %a, i8 %a, i8 %a, i8 %a, i8 %a, i8 %a, i8 %a, i8 %a, i8 %a, i8 %a, i8 %a, i8 %a, i8 %a, i8 %a, i8 %a, i8 %a, i8 %a, i8 %a), !dbg !1642
  br label %bb1, !dbg !1642

bb1:                                              ; preds = %start
  ret void, !dbg !1643
}

; core::core_arch::x86::avx::_mm256_set_epi32
; Function Attrs: inlinehint nonlazybind uwtable
define internal void @_ZN4core9core_arch3x863avx16_mm256_set_epi3217h82b468568baf2906E(<4 x i64>* sret(<4 x i64>) %0, i32 %e0, i32 %e1, i32 %e2, i32 %e3, i32 %e4, i32 %e5, i32 %e6, i32 %e7) unnamed_addr #4 !dbg !1644 {
start:
  %e7.dbg.spill = alloca i32, align 4
  %e6.dbg.spill = alloca i32, align 4
  %e5.dbg.spill = alloca i32, align 4
  %e4.dbg.spill = alloca i32, align 4
  %e3.dbg.spill = alloca i32, align 4
  %e2.dbg.spill = alloca i32, align 4
  %e1.dbg.spill = alloca i32, align 4
  %e0.dbg.spill = alloca i32, align 4
  store i32 %e0, i32* %e0.dbg.spill, align 4
  call void @llvm.dbg.declare(metadata i32* %e0.dbg.spill, metadata !1648, metadata !DIExpression()), !dbg !1656
  store i32 %e1, i32* %e1.dbg.spill, align 4
  call void @llvm.dbg.declare(metadata i32* %e1.dbg.spill, metadata !1649, metadata !DIExpression()), !dbg !1657
  store i32 %e2, i32* %e2.dbg.spill, align 4
  call void @llvm.dbg.declare(metadata i32* %e2.dbg.spill, metadata !1650, metadata !DIExpression()), !dbg !1658
  store i32 %e3, i32* %e3.dbg.spill, align 4
  call void @llvm.dbg.declare(metadata i32* %e3.dbg.spill, metadata !1651, metadata !DIExpression()), !dbg !1659
  store i32 %e4, i32* %e4.dbg.spill, align 4
  call void @llvm.dbg.declare(metadata i32* %e4.dbg.spill, metadata !1652, metadata !DIExpression()), !dbg !1660
  store i32 %e5, i32* %e5.dbg.spill, align 4
  call void @llvm.dbg.declare(metadata i32* %e5.dbg.spill, metadata !1653, metadata !DIExpression()), !dbg !1661
  store i32 %e6, i32* %e6.dbg.spill, align 4
  call void @llvm.dbg.declare(metadata i32* %e6.dbg.spill, metadata !1654, metadata !DIExpression()), !dbg !1662
  store i32 %e7, i32* %e7.dbg.spill, align 4
  call void @llvm.dbg.declare(metadata i32* %e7.dbg.spill, metadata !1655, metadata !DIExpression()), !dbg !1663
; call core::core_arch::x86::avx::_mm256_setr_epi32
  call void @_ZN4core9core_arch3x863avx17_mm256_setr_epi3217h5d6cb23a9b452856E(<4 x i64>* sret(<4 x i64>) %0, i32 %e7, i32 %e6, i32 %e5, i32 %e4, i32 %e3, i32 %e2, i32 %e1, i32 %e0), !dbg !1664
  br label %bb1, !dbg !1664

bb1:                                              ; preds = %start
  ret void, !dbg !1665
}

; core::core_arch::x86::avx::_mm256_setr_epi8
; Function Attrs: inlinehint nonlazybind uwtable
define internal void @_ZN4core9core_arch3x863avx16_mm256_setr_epi817h86b44edca5ae0435E(<4 x i64>* sret(<4 x i64>) %0, i8 %e00, i8 %e01, i8 %e02, i8 %e03, i8 %e04, i8 %e05, i8 %e06, i8 %e07, i8 %e08, i8 %e09, i8 %e10, i8 %e11, i8 %e12, i8 %e13, i8 %e14, i8 %e15, i8 %e16, i8 %e17, i8 %e18, i8 %e19, i8 %e20, i8 %e21, i8 %e22, i8 %e23, i8 %e24, i8 %e25, i8 %e26, i8 %e27, i8 %e28, i8 %e29, i8 %e30, i8 %e31) unnamed_addr #4 !dbg !1666 {
start:
  %x31.dbg.spill = alloca i8, align 1
  %x30.dbg.spill = alloca i8, align 1
  %x29.dbg.spill = alloca i8, align 1
  %x28.dbg.spill = alloca i8, align 1
  %x27.dbg.spill = alloca i8, align 1
  %x26.dbg.spill = alloca i8, align 1
  %x25.dbg.spill = alloca i8, align 1
  %x24.dbg.spill = alloca i8, align 1
  %x23.dbg.spill = alloca i8, align 1
  %x22.dbg.spill = alloca i8, align 1
  %x21.dbg.spill = alloca i8, align 1
  %x20.dbg.spill = alloca i8, align 1
  %x19.dbg.spill = alloca i8, align 1
  %x18.dbg.spill = alloca i8, align 1
  %x17.dbg.spill = alloca i8, align 1
  %x16.dbg.spill = alloca i8, align 1
  %x15.dbg.spill = alloca i8, align 1
  %x14.dbg.spill = alloca i8, align 1
  %x13.dbg.spill = alloca i8, align 1
  %x12.dbg.spill = alloca i8, align 1
  %x11.dbg.spill = alloca i8, align 1
  %x10.dbg.spill = alloca i8, align 1
  %x9.dbg.spill = alloca i8, align 1
  %x8.dbg.spill = alloca i8, align 1
  %x7.dbg.spill = alloca i8, align 1
  %x6.dbg.spill = alloca i8, align 1
  %x5.dbg.spill = alloca i8, align 1
  %x4.dbg.spill = alloca i8, align 1
  %x3.dbg.spill = alloca i8, align 1
  %x2.dbg.spill = alloca i8, align 1
  %x1.dbg.spill = alloca i8, align 1
  %x0.dbg.spill = alloca i8, align 1
  %e31.dbg.spill = alloca i8, align 1
  %e30.dbg.spill = alloca i8, align 1
  %e29.dbg.spill = alloca i8, align 1
  %e28.dbg.spill = alloca i8, align 1
  %e27.dbg.spill = alloca i8, align 1
  %e26.dbg.spill = alloca i8, align 1
  %e25.dbg.spill = alloca i8, align 1
  %e24.dbg.spill = alloca i8, align 1
  %e23.dbg.spill = alloca i8, align 1
  %e22.dbg.spill = alloca i8, align 1
  %e21.dbg.spill = alloca i8, align 1
  %e20.dbg.spill = alloca i8, align 1
  %e19.dbg.spill = alloca i8, align 1
  %e18.dbg.spill = alloca i8, align 1
  %e17.dbg.spill = alloca i8, align 1
  %e16.dbg.spill = alloca i8, align 1
  %e15.dbg.spill = alloca i8, align 1
  %e14.dbg.spill = alloca i8, align 1
  %e13.dbg.spill = alloca i8, align 1
  %e12.dbg.spill = alloca i8, align 1
  %e11.dbg.spill = alloca i8, align 1
  %e10.dbg.spill = alloca i8, align 1
  %e09.dbg.spill = alloca i8, align 1
  %e08.dbg.spill = alloca i8, align 1
  %e07.dbg.spill = alloca i8, align 1
  %e06.dbg.spill = alloca i8, align 1
  %e05.dbg.spill = alloca i8, align 1
  %e04.dbg.spill = alloca i8, align 1
  %e03.dbg.spill = alloca i8, align 1
  %e02.dbg.spill = alloca i8, align 1
  %e01.dbg.spill = alloca i8, align 1
  %e00.dbg.spill = alloca i8, align 1
  %_33 = alloca <32 x i8>, align 32
  store i8 %e00, i8* %e00.dbg.spill, align 1
  call void @llvm.dbg.declare(metadata i8* %e00.dbg.spill, metadata !1670, metadata !DIExpression()), !dbg !1702
  store i8 %e01, i8* %e01.dbg.spill, align 1
  call void @llvm.dbg.declare(metadata i8* %e01.dbg.spill, metadata !1671, metadata !DIExpression()), !dbg !1703
  store i8 %e02, i8* %e02.dbg.spill, align 1
  call void @llvm.dbg.declare(metadata i8* %e02.dbg.spill, metadata !1672, metadata !DIExpression()), !dbg !1704
  store i8 %e03, i8* %e03.dbg.spill, align 1
  call void @llvm.dbg.declare(metadata i8* %e03.dbg.spill, metadata !1673, metadata !DIExpression()), !dbg !1705
  store i8 %e04, i8* %e04.dbg.spill, align 1
  call void @llvm.dbg.declare(metadata i8* %e04.dbg.spill, metadata !1674, metadata !DIExpression()), !dbg !1706
  store i8 %e05, i8* %e05.dbg.spill, align 1
  call void @llvm.dbg.declare(metadata i8* %e05.dbg.spill, metadata !1675, metadata !DIExpression()), !dbg !1707
  store i8 %e06, i8* %e06.dbg.spill, align 1
  call void @llvm.dbg.declare(metadata i8* %e06.dbg.spill, metadata !1676, metadata !DIExpression()), !dbg !1708
  store i8 %e07, i8* %e07.dbg.spill, align 1
  call void @llvm.dbg.declare(metadata i8* %e07.dbg.spill, metadata !1677, metadata !DIExpression()), !dbg !1709
  store i8 %e08, i8* %e08.dbg.spill, align 1
  call void @llvm.dbg.declare(metadata i8* %e08.dbg.spill, metadata !1678, metadata !DIExpression()), !dbg !1710
  store i8 %e09, i8* %e09.dbg.spill, align 1
  call void @llvm.dbg.declare(metadata i8* %e09.dbg.spill, metadata !1679, metadata !DIExpression()), !dbg !1711
  store i8 %e10, i8* %e10.dbg.spill, align 1
  call void @llvm.dbg.declare(metadata i8* %e10.dbg.spill, metadata !1680, metadata !DIExpression()), !dbg !1712
  store i8 %e11, i8* %e11.dbg.spill, align 1
  call void @llvm.dbg.declare(metadata i8* %e11.dbg.spill, metadata !1681, metadata !DIExpression()), !dbg !1713
  store i8 %e12, i8* %e12.dbg.spill, align 1
  call void @llvm.dbg.declare(metadata i8* %e12.dbg.spill, metadata !1682, metadata !DIExpression()), !dbg !1714
  store i8 %e13, i8* %e13.dbg.spill, align 1
  call void @llvm.dbg.declare(metadata i8* %e13.dbg.spill, metadata !1683, metadata !DIExpression()), !dbg !1715
  store i8 %e14, i8* %e14.dbg.spill, align 1
  call void @llvm.dbg.declare(metadata i8* %e14.dbg.spill, metadata !1684, metadata !DIExpression()), !dbg !1716
  store i8 %e15, i8* %e15.dbg.spill, align 1
  call void @llvm.dbg.declare(metadata i8* %e15.dbg.spill, metadata !1685, metadata !DIExpression()), !dbg !1717
  store i8 %e16, i8* %e16.dbg.spill, align 1
  call void @llvm.dbg.declare(metadata i8* %e16.dbg.spill, metadata !1686, metadata !DIExpression()), !dbg !1718
  store i8 %e17, i8* %e17.dbg.spill, align 1
  call void @llvm.dbg.declare(metadata i8* %e17.dbg.spill, metadata !1687, metadata !DIExpression()), !dbg !1719
  store i8 %e18, i8* %e18.dbg.spill, align 1
  call void @llvm.dbg.declare(metadata i8* %e18.dbg.spill, metadata !1688, metadata !DIExpression()), !dbg !1720
  store i8 %e19, i8* %e19.dbg.spill, align 1
  call void @llvm.dbg.declare(metadata i8* %e19.dbg.spill, metadata !1689, metadata !DIExpression()), !dbg !1721
  store i8 %e20, i8* %e20.dbg.spill, align 1
  call void @llvm.dbg.declare(metadata i8* %e20.dbg.spill, metadata !1690, metadata !DIExpression()), !dbg !1722
  store i8 %e21, i8* %e21.dbg.spill, align 1
  call void @llvm.dbg.declare(metadata i8* %e21.dbg.spill, metadata !1691, metadata !DIExpression()), !dbg !1723
  store i8 %e22, i8* %e22.dbg.spill, align 1
  call void @llvm.dbg.declare(metadata i8* %e22.dbg.spill, metadata !1692, metadata !DIExpression()), !dbg !1724
  store i8 %e23, i8* %e23.dbg.spill, align 1
  call void @llvm.dbg.declare(metadata i8* %e23.dbg.spill, metadata !1693, metadata !DIExpression()), !dbg !1725
  store i8 %e24, i8* %e24.dbg.spill, align 1
  call void @llvm.dbg.declare(metadata i8* %e24.dbg.spill, metadata !1694, metadata !DIExpression()), !dbg !1726
  store i8 %e25, i8* %e25.dbg.spill, align 1
  call void @llvm.dbg.declare(metadata i8* %e25.dbg.spill, metadata !1695, metadata !DIExpression()), !dbg !1727
  store i8 %e26, i8* %e26.dbg.spill, align 1
  call void @llvm.dbg.declare(metadata i8* %e26.dbg.spill, metadata !1696, metadata !DIExpression()), !dbg !1728
  store i8 %e27, i8* %e27.dbg.spill, align 1
  call void @llvm.dbg.declare(metadata i8* %e27.dbg.spill, metadata !1697, metadata !DIExpression()), !dbg !1729
  store i8 %e28, i8* %e28.dbg.spill, align 1
  call void @llvm.dbg.declare(metadata i8* %e28.dbg.spill, metadata !1698, metadata !DIExpression()), !dbg !1730
  store i8 %e29, i8* %e29.dbg.spill, align 1
  call void @llvm.dbg.declare(metadata i8* %e29.dbg.spill, metadata !1699, metadata !DIExpression()), !dbg !1731
  store i8 %e30, i8* %e30.dbg.spill, align 1
  call void @llvm.dbg.declare(metadata i8* %e30.dbg.spill, metadata !1700, metadata !DIExpression()), !dbg !1732
  store i8 %e31, i8* %e31.dbg.spill, align 1
  call void @llvm.dbg.declare(metadata i8* %e31.dbg.spill, metadata !1701, metadata !DIExpression()), !dbg !1733
  store i8 %e00, i8* %x0.dbg.spill, align 1, !dbg !1734
  call void @llvm.dbg.declare(metadata i8* %x0.dbg.spill, metadata !1735, metadata !DIExpression()), !dbg !1808
  store i8 %e01, i8* %x1.dbg.spill, align 1, !dbg !1810
  call void @llvm.dbg.declare(metadata i8* %x1.dbg.spill, metadata !1777, metadata !DIExpression()), !dbg !1808
  store i8 %e02, i8* %x2.dbg.spill, align 1, !dbg !1811
  call void @llvm.dbg.declare(metadata i8* %x2.dbg.spill, metadata !1778, metadata !DIExpression()), !dbg !1808
  store i8 %e03, i8* %x3.dbg.spill, align 1, !dbg !1812
  call void @llvm.dbg.declare(metadata i8* %x3.dbg.spill, metadata !1779, metadata !DIExpression()), !dbg !1808
  store i8 %e04, i8* %x4.dbg.spill, align 1, !dbg !1813
  call void @llvm.dbg.declare(metadata i8* %x4.dbg.spill, metadata !1780, metadata !DIExpression()), !dbg !1808
  store i8 %e05, i8* %x5.dbg.spill, align 1, !dbg !1814
  call void @llvm.dbg.declare(metadata i8* %x5.dbg.spill, metadata !1781, metadata !DIExpression()), !dbg !1808
  store i8 %e06, i8* %x6.dbg.spill, align 1, !dbg !1815
  call void @llvm.dbg.declare(metadata i8* %x6.dbg.spill, metadata !1782, metadata !DIExpression()), !dbg !1808
  store i8 %e07, i8* %x7.dbg.spill, align 1, !dbg !1816
  call void @llvm.dbg.declare(metadata i8* %x7.dbg.spill, metadata !1783, metadata !DIExpression()), !dbg !1808
  store i8 %e08, i8* %x8.dbg.spill, align 1, !dbg !1817
  call void @llvm.dbg.declare(metadata i8* %x8.dbg.spill, metadata !1784, metadata !DIExpression()), !dbg !1808
  store i8 %e09, i8* %x9.dbg.spill, align 1, !dbg !1818
  call void @llvm.dbg.declare(metadata i8* %x9.dbg.spill, metadata !1785, metadata !DIExpression()), !dbg !1808
  store i8 %e10, i8* %x10.dbg.spill, align 1, !dbg !1819
  call void @llvm.dbg.declare(metadata i8* %x10.dbg.spill, metadata !1786, metadata !DIExpression()), !dbg !1808
  store i8 %e11, i8* %x11.dbg.spill, align 1, !dbg !1820
  call void @llvm.dbg.declare(metadata i8* %x11.dbg.spill, metadata !1787, metadata !DIExpression()), !dbg !1808
  store i8 %e12, i8* %x12.dbg.spill, align 1, !dbg !1821
  call void @llvm.dbg.declare(metadata i8* %x12.dbg.spill, metadata !1788, metadata !DIExpression()), !dbg !1808
  store i8 %e13, i8* %x13.dbg.spill, align 1, !dbg !1822
  call void @llvm.dbg.declare(metadata i8* %x13.dbg.spill, metadata !1789, metadata !DIExpression()), !dbg !1808
  store i8 %e14, i8* %x14.dbg.spill, align 1, !dbg !1823
  call void @llvm.dbg.declare(metadata i8* %x14.dbg.spill, metadata !1790, metadata !DIExpression()), !dbg !1808
  store i8 %e15, i8* %x15.dbg.spill, align 1, !dbg !1824
  call void @llvm.dbg.declare(metadata i8* %x15.dbg.spill, metadata !1791, metadata !DIExpression()), !dbg !1808
  store i8 %e16, i8* %x16.dbg.spill, align 1, !dbg !1825
  call void @llvm.dbg.declare(metadata i8* %x16.dbg.spill, metadata !1792, metadata !DIExpression()), !dbg !1808
  store i8 %e17, i8* %x17.dbg.spill, align 1, !dbg !1826
  call void @llvm.dbg.declare(metadata i8* %x17.dbg.spill, metadata !1793, metadata !DIExpression()), !dbg !1808
  store i8 %e18, i8* %x18.dbg.spill, align 1, !dbg !1827
  call void @llvm.dbg.declare(metadata i8* %x18.dbg.spill, metadata !1794, metadata !DIExpression()), !dbg !1808
  store i8 %e19, i8* %x19.dbg.spill, align 1, !dbg !1828
  call void @llvm.dbg.declare(metadata i8* %x19.dbg.spill, metadata !1795, metadata !DIExpression()), !dbg !1808
  store i8 %e20, i8* %x20.dbg.spill, align 1, !dbg !1829
  call void @llvm.dbg.declare(metadata i8* %x20.dbg.spill, metadata !1796, metadata !DIExpression()), !dbg !1808
  store i8 %e21, i8* %x21.dbg.spill, align 1, !dbg !1830
  call void @llvm.dbg.declare(metadata i8* %x21.dbg.spill, metadata !1797, metadata !DIExpression()), !dbg !1808
  store i8 %e22, i8* %x22.dbg.spill, align 1, !dbg !1831
  call void @llvm.dbg.declare(metadata i8* %x22.dbg.spill, metadata !1798, metadata !DIExpression()), !dbg !1808
  store i8 %e23, i8* %x23.dbg.spill, align 1, !dbg !1832
  call void @llvm.dbg.declare(metadata i8* %x23.dbg.spill, metadata !1799, metadata !DIExpression()), !dbg !1808
  store i8 %e24, i8* %x24.dbg.spill, align 1, !dbg !1833
  call void @llvm.dbg.declare(metadata i8* %x24.dbg.spill, metadata !1800, metadata !DIExpression()), !dbg !1808
  store i8 %e25, i8* %x25.dbg.spill, align 1, !dbg !1834
  call void @llvm.dbg.declare(metadata i8* %x25.dbg.spill, metadata !1801, metadata !DIExpression()), !dbg !1808
  store i8 %e26, i8* %x26.dbg.spill, align 1, !dbg !1835
  call void @llvm.dbg.declare(metadata i8* %x26.dbg.spill, metadata !1802, metadata !DIExpression()), !dbg !1808
  store i8 %e27, i8* %x27.dbg.spill, align 1, !dbg !1836
  call void @llvm.dbg.declare(metadata i8* %x27.dbg.spill, metadata !1803, metadata !DIExpression()), !dbg !1808
  store i8 %e28, i8* %x28.dbg.spill, align 1, !dbg !1837
  call void @llvm.dbg.declare(metadata i8* %x28.dbg.spill, metadata !1804, metadata !DIExpression()), !dbg !1808
  store i8 %e29, i8* %x29.dbg.spill, align 1, !dbg !1838
  call void @llvm.dbg.declare(metadata i8* %x29.dbg.spill, metadata !1805, metadata !DIExpression()), !dbg !1808
  store i8 %e30, i8* %x30.dbg.spill, align 1, !dbg !1839
  call void @llvm.dbg.declare(metadata i8* %x30.dbg.spill, metadata !1806, metadata !DIExpression()), !dbg !1808
  store i8 %e31, i8* %x31.dbg.spill, align 1, !dbg !1840
  call void @llvm.dbg.declare(metadata i8* %x31.dbg.spill, metadata !1807, metadata !DIExpression()), !dbg !1808
  %1 = bitcast <32 x i8>* %_33 to i8*, !dbg !1808
  store i8 %e00, i8* %1, align 32, !dbg !1808
  %2 = getelementptr inbounds <32 x i8>, <32 x i8>* %_33, i32 0, i32 1, !dbg !1808
  store i8 %e01, i8* %2, align 1, !dbg !1808
  %3 = getelementptr inbounds <32 x i8>, <32 x i8>* %_33, i32 0, i32 2, !dbg !1808
  store i8 %e02, i8* %3, align 2, !dbg !1808
  %4 = getelementptr inbounds <32 x i8>, <32 x i8>* %_33, i32 0, i32 3, !dbg !1808
  store i8 %e03, i8* %4, align 1, !dbg !1808
  %5 = getelementptr inbounds <32 x i8>, <32 x i8>* %_33, i32 0, i32 4, !dbg !1808
  store i8 %e04, i8* %5, align 4, !dbg !1808
  %6 = getelementptr inbounds <32 x i8>, <32 x i8>* %_33, i32 0, i32 5, !dbg !1808
  store i8 %e05, i8* %6, align 1, !dbg !1808
  %7 = getelementptr inbounds <32 x i8>, <32 x i8>* %_33, i32 0, i32 6, !dbg !1808
  store i8 %e06, i8* %7, align 2, !dbg !1808
  %8 = getelementptr inbounds <32 x i8>, <32 x i8>* %_33, i32 0, i32 7, !dbg !1808
  store i8 %e07, i8* %8, align 1, !dbg !1808
  %9 = getelementptr inbounds <32 x i8>, <32 x i8>* %_33, i32 0, i32 8, !dbg !1808
  store i8 %e08, i8* %9, align 8, !dbg !1808
  %10 = getelementptr inbounds <32 x i8>, <32 x i8>* %_33, i32 0, i32 9, !dbg !1808
  store i8 %e09, i8* %10, align 1, !dbg !1808
  %11 = getelementptr inbounds <32 x i8>, <32 x i8>* %_33, i32 0, i32 10, !dbg !1808
  store i8 %e10, i8* %11, align 2, !dbg !1808
  %12 = getelementptr inbounds <32 x i8>, <32 x i8>* %_33, i32 0, i32 11, !dbg !1808
  store i8 %e11, i8* %12, align 1, !dbg !1808
  %13 = getelementptr inbounds <32 x i8>, <32 x i8>* %_33, i32 0, i32 12, !dbg !1808
  store i8 %e12, i8* %13, align 4, !dbg !1808
  %14 = getelementptr inbounds <32 x i8>, <32 x i8>* %_33, i32 0, i32 13, !dbg !1808
  store i8 %e13, i8* %14, align 1, !dbg !1808
  %15 = getelementptr inbounds <32 x i8>, <32 x i8>* %_33, i32 0, i32 14, !dbg !1808
  store i8 %e14, i8* %15, align 2, !dbg !1808
  %16 = getelementptr inbounds <32 x i8>, <32 x i8>* %_33, i32 0, i32 15, !dbg !1808
  store i8 %e15, i8* %16, align 1, !dbg !1808
  %17 = getelementptr inbounds <32 x i8>, <32 x i8>* %_33, i32 0, i32 16, !dbg !1808
  store i8 %e16, i8* %17, align 16, !dbg !1808
  %18 = getelementptr inbounds <32 x i8>, <32 x i8>* %_33, i32 0, i32 17, !dbg !1808
  store i8 %e17, i8* %18, align 1, !dbg !1808
  %19 = getelementptr inbounds <32 x i8>, <32 x i8>* %_33, i32 0, i32 18, !dbg !1808
  store i8 %e18, i8* %19, align 2, !dbg !1808
  %20 = getelementptr inbounds <32 x i8>, <32 x i8>* %_33, i32 0, i32 19, !dbg !1808
  store i8 %e19, i8* %20, align 1, !dbg !1808
  %21 = getelementptr inbounds <32 x i8>, <32 x i8>* %_33, i32 0, i32 20, !dbg !1808
  store i8 %e20, i8* %21, align 4, !dbg !1808
  %22 = getelementptr inbounds <32 x i8>, <32 x i8>* %_33, i32 0, i32 21, !dbg !1808
  store i8 %e21, i8* %22, align 1, !dbg !1808
  %23 = getelementptr inbounds <32 x i8>, <32 x i8>* %_33, i32 0, i32 22, !dbg !1808
  store i8 %e22, i8* %23, align 2, !dbg !1808
  %24 = getelementptr inbounds <32 x i8>, <32 x i8>* %_33, i32 0, i32 23, !dbg !1808
  store i8 %e23, i8* %24, align 1, !dbg !1808
  %25 = getelementptr inbounds <32 x i8>, <32 x i8>* %_33, i32 0, i32 24, !dbg !1808
  store i8 %e24, i8* %25, align 8, !dbg !1808
  %26 = getelementptr inbounds <32 x i8>, <32 x i8>* %_33, i32 0, i32 25, !dbg !1808
  store i8 %e25, i8* %26, align 1, !dbg !1808
  %27 = getelementptr inbounds <32 x i8>, <32 x i8>* %_33, i32 0, i32 26, !dbg !1808
  store i8 %e26, i8* %27, align 2, !dbg !1808
  %28 = getelementptr inbounds <32 x i8>, <32 x i8>* %_33, i32 0, i32 27, !dbg !1808
  store i8 %e27, i8* %28, align 1, !dbg !1808
  %29 = getelementptr inbounds <32 x i8>, <32 x i8>* %_33, i32 0, i32 28, !dbg !1808
  store i8 %e28, i8* %29, align 4, !dbg !1808
  %30 = getelementptr inbounds <32 x i8>, <32 x i8>* %_33, i32 0, i32 29, !dbg !1808
  store i8 %e29, i8* %30, align 1, !dbg !1808
  %31 = getelementptr inbounds <32 x i8>, <32 x i8>* %_33, i32 0, i32 30, !dbg !1808
  store i8 %e30, i8* %31, align 2, !dbg !1808
  %32 = getelementptr inbounds <32 x i8>, <32 x i8>* %_33, i32 0, i32 31, !dbg !1808
  store i8 %e31, i8* %32, align 1, !dbg !1808
  %33 = load <32 x i8>, <32 x i8>* %_33, align 32, !dbg !1841
  %34 = bitcast <4 x i64>* %0 to <32 x i8>*, !dbg !1841
  store <32 x i8> %33, <32 x i8>* %34, align 32, !dbg !1841
  br label %bb1, !dbg !1841

bb1:                                              ; preds = %start
  ret void, !dbg !1842
}

; core::core_arch::x86::avx::_mm256_setr_epi32
; Function Attrs: inlinehint nonlazybind uwtable
define internal void @_ZN4core9core_arch3x863avx17_mm256_setr_epi3217h5d6cb23a9b452856E(<4 x i64>* sret(<4 x i64>) %0, i32 %e0, i32 %e1, i32 %e2, i32 %e3, i32 %e4, i32 %e5, i32 %e6, i32 %e7) unnamed_addr #4 !dbg !1843 {
start:
  %x7.dbg.spill = alloca i32, align 4
  %x6.dbg.spill = alloca i32, align 4
  %x5.dbg.spill = alloca i32, align 4
  %x4.dbg.spill = alloca i32, align 4
  %x3.dbg.spill = alloca i32, align 4
  %x2.dbg.spill = alloca i32, align 4
  %x1.dbg.spill = alloca i32, align 4
  %x0.dbg.spill = alloca i32, align 4
  %e7.dbg.spill = alloca i32, align 4
  %e6.dbg.spill = alloca i32, align 4
  %e5.dbg.spill = alloca i32, align 4
  %e4.dbg.spill = alloca i32, align 4
  %e3.dbg.spill = alloca i32, align 4
  %e2.dbg.spill = alloca i32, align 4
  %e1.dbg.spill = alloca i32, align 4
  %e0.dbg.spill = alloca i32, align 4
  %_9 = alloca <8 x i32>, align 32
  store i32 %e0, i32* %e0.dbg.spill, align 4
  call void @llvm.dbg.declare(metadata i32* %e0.dbg.spill, metadata !1845, metadata !DIExpression()), !dbg !1853
  store i32 %e1, i32* %e1.dbg.spill, align 4
  call void @llvm.dbg.declare(metadata i32* %e1.dbg.spill, metadata !1846, metadata !DIExpression()), !dbg !1854
  store i32 %e2, i32* %e2.dbg.spill, align 4
  call void @llvm.dbg.declare(metadata i32* %e2.dbg.spill, metadata !1847, metadata !DIExpression()), !dbg !1855
  store i32 %e3, i32* %e3.dbg.spill, align 4
  call void @llvm.dbg.declare(metadata i32* %e3.dbg.spill, metadata !1848, metadata !DIExpression()), !dbg !1856
  store i32 %e4, i32* %e4.dbg.spill, align 4
  call void @llvm.dbg.declare(metadata i32* %e4.dbg.spill, metadata !1849, metadata !DIExpression()), !dbg !1857
  store i32 %e5, i32* %e5.dbg.spill, align 4
  call void @llvm.dbg.declare(metadata i32* %e5.dbg.spill, metadata !1850, metadata !DIExpression()), !dbg !1858
  store i32 %e6, i32* %e6.dbg.spill, align 4
  call void @llvm.dbg.declare(metadata i32* %e6.dbg.spill, metadata !1851, metadata !DIExpression()), !dbg !1859
  store i32 %e7, i32* %e7.dbg.spill, align 4
  call void @llvm.dbg.declare(metadata i32* %e7.dbg.spill, metadata !1852, metadata !DIExpression()), !dbg !1860
  store i32 %e0, i32* %x0.dbg.spill, align 4, !dbg !1861
  call void @llvm.dbg.declare(metadata i32* %x0.dbg.spill, metadata !1862, metadata !DIExpression()), !dbg !1885
  store i32 %e1, i32* %x1.dbg.spill, align 4, !dbg !1887
  call void @llvm.dbg.declare(metadata i32* %x1.dbg.spill, metadata !1878, metadata !DIExpression()), !dbg !1885
  store i32 %e2, i32* %x2.dbg.spill, align 4, !dbg !1888
  call void @llvm.dbg.declare(metadata i32* %x2.dbg.spill, metadata !1879, metadata !DIExpression()), !dbg !1885
  store i32 %e3, i32* %x3.dbg.spill, align 4, !dbg !1889
  call void @llvm.dbg.declare(metadata i32* %x3.dbg.spill, metadata !1880, metadata !DIExpression()), !dbg !1885
  store i32 %e4, i32* %x4.dbg.spill, align 4, !dbg !1890
  call void @llvm.dbg.declare(metadata i32* %x4.dbg.spill, metadata !1881, metadata !DIExpression()), !dbg !1885
  store i32 %e5, i32* %x5.dbg.spill, align 4, !dbg !1891
  call void @llvm.dbg.declare(metadata i32* %x5.dbg.spill, metadata !1882, metadata !DIExpression()), !dbg !1885
  store i32 %e6, i32* %x6.dbg.spill, align 4, !dbg !1892
  call void @llvm.dbg.declare(metadata i32* %x6.dbg.spill, metadata !1883, metadata !DIExpression()), !dbg !1885
  store i32 %e7, i32* %x7.dbg.spill, align 4, !dbg !1893
  call void @llvm.dbg.declare(metadata i32* %x7.dbg.spill, metadata !1884, metadata !DIExpression()), !dbg !1885
  %1 = bitcast <8 x i32>* %_9 to i32*, !dbg !1885
  store i32 %e0, i32* %1, align 32, !dbg !1885
  %2 = getelementptr inbounds <8 x i32>, <8 x i32>* %_9, i32 0, i32 1, !dbg !1885
  store i32 %e1, i32* %2, align 4, !dbg !1885
  %3 = getelementptr inbounds <8 x i32>, <8 x i32>* %_9, i32 0, i32 2, !dbg !1885
  store i32 %e2, i32* %3, align 8, !dbg !1885
  %4 = getelementptr inbounds <8 x i32>, <8 x i32>* %_9, i32 0, i32 3, !dbg !1885
  store i32 %e3, i32* %4, align 4, !dbg !1885
  %5 = getelementptr inbounds <8 x i32>, <8 x i32>* %_9, i32 0, i32 4, !dbg !1885
  store i32 %e4, i32* %5, align 16, !dbg !1885
  %6 = getelementptr inbounds <8 x i32>, <8 x i32>* %_9, i32 0, i32 5, !dbg !1885
  store i32 %e5, i32* %6, align 4, !dbg !1885
  %7 = getelementptr inbounds <8 x i32>, <8 x i32>* %_9, i32 0, i32 6, !dbg !1885
  store i32 %e6, i32* %7, align 8, !dbg !1885
  %8 = getelementptr inbounds <8 x i32>, <8 x i32>* %_9, i32 0, i32 7, !dbg !1885
  store i32 %e7, i32* %8, align 4, !dbg !1885
  %9 = load <8 x i32>, <8 x i32>* %_9, align 32, !dbg !1894
  %10 = bitcast <4 x i64>* %0 to <8 x i32>*, !dbg !1894
  store <8 x i32> %9, <8 x i32>* %10, align 32, !dbg !1894
  br label %bb1, !dbg !1894

bb1:                                              ; preds = %start
  ret void, !dbg !1895
}

; core::core_arch::x86::avx::_mm256_setzero_pd
; Function Attrs: inlinehint nonlazybind uwtable
define internal void @_ZN4core9core_arch3x863avx17_mm256_setzero_pd17he7b9f37198825aa0E(<4 x double>* sret(<4 x double>) %0) unnamed_addr #4 !dbg !1896 {
start:
  %1 = bitcast <4 x double>* %0 to double*, !dbg !1899
  store double 0.000000e+00, double* %1, align 32, !dbg !1899
  %2 = getelementptr inbounds <4 x double>, <4 x double>* %0, i32 0, i32 1, !dbg !1899
  store double 0.000000e+00, double* %2, align 8, !dbg !1899
  %3 = getelementptr inbounds <4 x double>, <4 x double>* %0, i32 0, i32 2, !dbg !1899
  store double 0.000000e+00, double* %3, align 16, !dbg !1899
  %4 = getelementptr inbounds <4 x double>, <4 x double>* %0, i32 0, i32 3, !dbg !1899
  store double 0.000000e+00, double* %4, align 8, !dbg !1899
  ret void, !dbg !1913
}

; core::core_arch::x86::avx::_mm256_setzero_ps
; Function Attrs: inlinehint nonlazybind uwtable
define internal void @_ZN4core9core_arch3x863avx17_mm256_setzero_ps17he953461eeaeeb4aeE(<8 x float>* sret(<8 x float>) %0) unnamed_addr #4 !dbg !1914 {
start:
; call core::core_arch::x86::avx::_mm256_set1_ps
  call void @_ZN4core9core_arch3x863avx14_mm256_set1_ps17h654896b6489e70c0E(<8 x float>* sret(<8 x float>) %0, float 0.000000e+00), !dbg !1917
  br label %bb1, !dbg !1917

bb1:                                              ; preds = %start
  ret void, !dbg !1918
}

; core::core_arch::x86::avx::_mm256_shuffle_pd
; Function Attrs: inlinehint nonlazybind uwtable
define internal void @_ZN4core9core_arch3x863avx17_mm256_shuffle_pd17h169130c1a480a379E(<4 x double>* sret(<4 x double>) %0, <4 x double>* %a, <4 x double>* %b) unnamed_addr #4 !dbg !1919 {
start:
  call void @llvm.dbg.declare(metadata <4 x double>* %a, metadata !1923, metadata !DIExpression()), !dbg !1925
  call void @llvm.dbg.declare(metadata <4 x double>* %b, metadata !1924, metadata !DIExpression()), !dbg !1926
  %_3 = load <4 x double>, <4 x double>* %a, align 32, !dbg !1927
  %_4 = load <4 x double>, <4 x double>* %b, align 32, !dbg !1928
  %1 = shufflevector <4 x double> %_3, <4 x double> %_4, <4 x i32> <i32 0, i32 4, i32 3, i32 7>, !dbg !1929
  store <4 x double> %1, <4 x double>* %0, align 32, !dbg !1929
  br label %bb1, !dbg !1929

bb1:                                              ; preds = %start
  ret void, !dbg !1930
}

; core::core_arch::x86::avx::_mm256_shuffle_ps
; Function Attrs: inlinehint nonlazybind uwtable
define internal void @_ZN4core9core_arch3x863avx17_mm256_shuffle_ps17hdafd14fceda8d82eE(<8 x float>* sret(<8 x float>) %0, <8 x float>* %a, <8 x float>* %b) unnamed_addr #4 !dbg !1931 {
start:
  call void @llvm.dbg.declare(metadata <8 x float>* %a, metadata !1935, metadata !DIExpression()), !dbg !1937
  call void @llvm.dbg.declare(metadata <8 x float>* %b, metadata !1936, metadata !DIExpression()), !dbg !1938
  %_3 = load <8 x float>, <8 x float>* %a, align 32, !dbg !1939
  %_4 = load <8 x float>, <8 x float>* %b, align 32, !dbg !1940
  %1 = shufflevector <8 x float> %_3, <8 x float> %_4, <8 x i32> <i32 1, i32 2, i32 10, i32 9, i32 5, i32 6, i32 14, i32 13>, !dbg !1941
  store <8 x float> %1, <8 x float>* %0, align 32, !dbg !1941
  br label %bb1, !dbg !1941

bb1:                                              ; preds = %start
  ret void, !dbg !1942
}

; core::core_arch::x86::avx::_mm256_setr_epi64x
; Function Attrs: inlinehint nonlazybind uwtable
define internal void @_ZN4core9core_arch3x863avx18_mm256_setr_epi64x17h5432ad102c9e6d0dE(<4 x i64>* sret(<4 x i64>) %0, i64 %a, i64 %b, i64 %c, i64 %d) unnamed_addr #4 !dbg !1943 {
start:
  %x3.dbg.spill = alloca i64, align 8
  %x2.dbg.spill = alloca i64, align 8
  %x1.dbg.spill = alloca i64, align 8
  %x0.dbg.spill = alloca i64, align 8
  %d.dbg.spill = alloca i64, align 8
  %c.dbg.spill = alloca i64, align 8
  %b.dbg.spill = alloca i64, align 8
  %a.dbg.spill = alloca i64, align 8
  %_5 = alloca <4 x i64>, align 32
  store i64 %a, i64* %a.dbg.spill, align 8
  call void @llvm.dbg.declare(metadata i64* %a.dbg.spill, metadata !1947, metadata !DIExpression()), !dbg !1951
  store i64 %b, i64* %b.dbg.spill, align 8
  call void @llvm.dbg.declare(metadata i64* %b.dbg.spill, metadata !1948, metadata !DIExpression()), !dbg !1952
  store i64 %c, i64* %c.dbg.spill, align 8
  call void @llvm.dbg.declare(metadata i64* %c.dbg.spill, metadata !1949, metadata !DIExpression()), !dbg !1953
  store i64 %d, i64* %d.dbg.spill, align 8
  call void @llvm.dbg.declare(metadata i64* %d.dbg.spill, metadata !1950, metadata !DIExpression()), !dbg !1954
  store i64 %a, i64* %x0.dbg.spill, align 8, !dbg !1955
  call void @llvm.dbg.declare(metadata i64* %x0.dbg.spill, metadata !1956, metadata !DIExpression()), !dbg !1971
  store i64 %b, i64* %x1.dbg.spill, align 8, !dbg !1973
  call void @llvm.dbg.declare(metadata i64* %x1.dbg.spill, metadata !1968, metadata !DIExpression()), !dbg !1971
  store i64 %c, i64* %x2.dbg.spill, align 8, !dbg !1974
  call void @llvm.dbg.declare(metadata i64* %x2.dbg.spill, metadata !1969, metadata !DIExpression()), !dbg !1971
  store i64 %d, i64* %x3.dbg.spill, align 8, !dbg !1975
  call void @llvm.dbg.declare(metadata i64* %x3.dbg.spill, metadata !1970, metadata !DIExpression()), !dbg !1971
  %1 = bitcast <4 x i64>* %_5 to i64*, !dbg !1971
  store i64 %a, i64* %1, align 32, !dbg !1971
  %2 = getelementptr inbounds <4 x i64>, <4 x i64>* %_5, i32 0, i32 1, !dbg !1971
  store i64 %b, i64* %2, align 8, !dbg !1971
  %3 = getelementptr inbounds <4 x i64>, <4 x i64>* %_5, i32 0, i32 2, !dbg !1971
  store i64 %c, i64* %3, align 16, !dbg !1971
  %4 = getelementptr inbounds <4 x i64>, <4 x i64>* %_5, i32 0, i32 3, !dbg !1971
  store i64 %d, i64* %4, align 8, !dbg !1971
  %5 = load <4 x i64>, <4 x i64>* %_5, align 32, !dbg !1976
  store <4 x i64> %5, <4 x i64>* %0, align 32, !dbg !1976
  br label %bb1, !dbg !1976

bb1:                                              ; preds = %start
  ret void, !dbg !1977
}

; core::core_arch::x86::avx::_mm256_setzero_si256
; Function Attrs: inlinehint nonlazybind uwtable
define internal void @_ZN4core9core_arch3x863avx20_mm256_setzero_si25617hd33a6f951686401aE(<4 x i64>* sret(<4 x i64>) %0) unnamed_addr #4 !dbg !1978 {
start:
; call core::core_arch::x86::avx::_mm256_set1_epi8
  call void @_ZN4core9core_arch3x863avx16_mm256_set1_epi817he5ff20420aa13483E(<4 x i64>* sret(<4 x i64>) %0, i8 0), !dbg !1981
  br label %bb1, !dbg !1981

bb1:                                              ; preds = %start
  ret void, !dbg !1982
}

; core::core_arch::x86::avx::_mm256_permute2f128_pd
; Function Attrs: inlinehint nonlazybind uwtable
define internal void @_ZN4core9core_arch3x863avx22_mm256_permute2f128_pd17hc60b8b411a85d748E(<4 x double>* sret(<4 x double>) %0, <4 x double>* %a, <4 x double>* %b) unnamed_addr #4 !dbg !1983 {
start:
  call void @llvm.dbg.declare(metadata <4 x double>* %a, metadata !1985, metadata !DIExpression()), !dbg !1987
  call void @llvm.dbg.declare(metadata <4 x double>* %b, metadata !1986, metadata !DIExpression()), !dbg !1988
  %_3 = load <4 x double>, <4 x double>* %a, align 32, !dbg !1989
  %_4 = load <4 x double>, <4 x double>* %b, align 32, !dbg !1990
  %1 = shufflevector <4 x double> %_3, <4 x double> %_4, <4 x i32> <i32 2, i32 3, i32 6, i32 7>, !dbg !1991
  store <4 x double> %1, <4 x double>* %0, align 32, !dbg !1991
  br label %bb1, !dbg !1991

bb1:                                              ; preds = %start
  ret void, !dbg !1992
}

; core::core_arch::x86::sse::_mm_setr_ps
; Function Attrs: inlinehint nonlazybind uwtable
define internal void @_ZN4core9core_arch3x863sse11_mm_setr_ps17he094f37fce6915d0E(<4 x float>* sret(<4 x float>) %0, float %a, float %b, float %c, float %d) unnamed_addr #5 !dbg !1993 {
start:
  %d.dbg.spill = alloca float, align 4
  %c.dbg.spill = alloca float, align 4
  %b.dbg.spill = alloca float, align 4
  %a.dbg.spill = alloca float, align 4
  store float %a, float* %a.dbg.spill, align 4
  call void @llvm.dbg.declare(metadata float* %a.dbg.spill, metadata !1999, metadata !DIExpression()), !dbg !2003
  store float %b, float* %b.dbg.spill, align 4
  call void @llvm.dbg.declare(metadata float* %b.dbg.spill, metadata !2000, metadata !DIExpression()), !dbg !2004
  store float %c, float* %c.dbg.spill, align 4
  call void @llvm.dbg.declare(metadata float* %c.dbg.spill, metadata !2001, metadata !DIExpression()), !dbg !2005
  store float %d, float* %d.dbg.spill, align 4
  call void @llvm.dbg.declare(metadata float* %d.dbg.spill, metadata !2002, metadata !DIExpression()), !dbg !2006
  %1 = bitcast <4 x float>* %0 to float*, !dbg !2007
  store float %a, float* %1, align 16, !dbg !2007
  %2 = getelementptr inbounds <4 x float>, <4 x float>* %0, i32 0, i32 1, !dbg !2007
  store float %b, float* %2, align 4, !dbg !2007
  %3 = getelementptr inbounds <4 x float>, <4 x float>* %0, i32 0, i32 2, !dbg !2007
  store float %c, float* %3, align 8, !dbg !2007
  %4 = getelementptr inbounds <4 x float>, <4 x float>* %0, i32 0, i32 3, !dbg !2007
  store float %d, float* %4, align 4, !dbg !2007
  ret void, !dbg !2008
}

; core::core_arch::x86::sse::_mm_setzero_ps
; Function Attrs: inlinehint nonlazybind uwtable
define internal void @_ZN4core9core_arch3x863sse14_mm_setzero_ps17h1da48a200d0713d9E(<4 x float>* sret(<4 x float>) %0) unnamed_addr #5 !dbg !2009 {
start:
  %1 = bitcast <4 x float>* %0 to float*, !dbg !2012
  store float 0.000000e+00, float* %1, align 16, !dbg !2012
  %2 = getelementptr inbounds <4 x float>, <4 x float>* %0, i32 0, i32 1, !dbg !2012
  store float 0.000000e+00, float* %2, align 4, !dbg !2012
  %3 = getelementptr inbounds <4 x float>, <4 x float>* %0, i32 0, i32 2, !dbg !2012
  store float 0.000000e+00, float* %3, align 8, !dbg !2012
  %4 = getelementptr inbounds <4 x float>, <4 x float>* %0, i32 0, i32 3, !dbg !2012
  store float 0.000000e+00, float* %4, align 4, !dbg !2012
  ret void, !dbg !2013
}

; core::core_arch::x86::sse::_mm_shuffle_ps
; Function Attrs: inlinehint nonlazybind uwtable
define internal void @_ZN4core9core_arch3x863sse14_mm_shuffle_ps17h6122dac733c2b02aE(<4 x float>* sret(<4 x float>) %0, <4 x float>* %a, <4 x float>* %b) unnamed_addr #5 !dbg !2014 {
start:
  call void @llvm.dbg.declare(metadata <4 x float>* %a, metadata !2018, metadata !DIExpression()), !dbg !2020
  call void @llvm.dbg.declare(metadata <4 x float>* %b, metadata !2019, metadata !DIExpression()), !dbg !2021
  %_3 = load <4 x float>, <4 x float>* %a, align 16, !dbg !2022
  %_4 = load <4 x float>, <4 x float>* %b, align 16, !dbg !2023
  %1 = shufflevector <4 x float> %_3, <4 x float> %_4, <4 x i32> <i32 0, i32 1, i32 6, i32 7>, !dbg !2024
  store <4 x float> %1, <4 x float>* %0, align 16, !dbg !2024
  br label %bb1, !dbg !2024

bb1:                                              ; preds = %start
  ret void, !dbg !2025
}

; core::core_arch::x86::avx2::_mm256_alignr_epi8
; Function Attrs: inlinehint nonlazybind uwtable
define internal void @_ZN4core9core_arch3x864avx218_mm256_alignr_epi817h1a1167208ec5dd66E(<4 x i64>* sret(<4 x i64>) %0, <4 x i64>* %a, <4 x i64>* %b) unnamed_addr #6 !dbg !2026 {
start:
  %b.dbg.spill9 = alloca <32 x i8>, align 32
  %1 = alloca <32 x i8>, align 32
  %self.dbg.spill7 = alloca <4 x i64>, align 32
  %self.dbg.spill6 = alloca <4 x i64>, align 32
  %a.dbg.spill5 = alloca <32 x i8>, align 32
  %2 = alloca <32 x i8>, align 32
  %self.dbg.spill3 = alloca <4 x i64>, align 32
  %self.dbg.spill = alloca <4 x i64>, align 32
  %b.dbg.spill = alloca <4 x i64>, align 32
  %a.dbg.spill = alloca <4 x i64>, align 32
  %3 = alloca <4 x i64>, align 32
  %r = alloca <32 x i8>, align 32
  %_6 = alloca { <4 x i64>, <4 x i64> }, align 32
  call void @llvm.dbg.declare(metadata <4 x i64>* %a, metadata !2032, metadata !DIExpression()), !dbg !2043
  call void @llvm.dbg.declare(metadata <4 x i64>* %b, metadata !2033, metadata !DIExpression()), !dbg !2044
  call void @llvm.dbg.declare(metadata <32 x i8>* %r, metadata !2041, metadata !DIExpression()), !dbg !2045
  br i1 false, label %bb1, label %bb2, !dbg !2046

bb2:                                              ; preds = %start
  br i1 false, label %bb3, label %bb4, !dbg !2047

bb1:                                              ; preds = %start
; call core::core_arch::x86::avx::_mm256_set1_epi8
  call void @_ZN4core9core_arch3x863avx16_mm256_set1_epi817he5ff20420aa13483E(<4 x i64>* sret(<4 x i64>) %0, i8 0), !dbg !2048
  br label %bb43, !dbg !2048

bb43:                                             ; preds = %bb1
  br label %bb44, !dbg !2049

bb44:                                             ; preds = %bb42, %bb43
  ret void, !dbg !2049

bb4:                                              ; preds = %bb2
  %_10 = load <4 x i64>, <4 x i64>* %a, align 32, !dbg !2050
  %_11 = load <4 x i64>, <4 x i64>* %b, align 32, !dbg !2051
  %4 = bitcast { <4 x i64>, <4 x i64> }* %_6 to <4 x i64>*, !dbg !2052
  store <4 x i64> %_10, <4 x i64>* %4, align 32, !dbg !2052
  %5 = getelementptr inbounds { <4 x i64>, <4 x i64> }, { <4 x i64>, <4 x i64> }* %_6, i32 0, i32 1, !dbg !2052
  store <4 x i64> %_11, <4 x i64>* %5, align 32, !dbg !2052
  br label %bb6, !dbg !2053

bb3:                                              ; preds = %bb2
; call core::core_arch::x86::avx::_mm256_set1_epi8
  call void @_ZN4core9core_arch3x863avx16_mm256_set1_epi817he5ff20420aa13483E(<4 x i64>* sret(<4 x i64>) %3, i8 0), !dbg !2054
  %_8 = load <4 x i64>, <4 x i64>* %3, align 32, !dbg !2054
  br label %bb5, !dbg !2054

bb5:                                              ; preds = %bb3
  %_9 = load <4 x i64>, <4 x i64>* %a, align 32, !dbg !2055
  %6 = bitcast { <4 x i64>, <4 x i64> }* %_6 to <4 x i64>*, !dbg !2056
  store <4 x i64> %_8, <4 x i64>* %6, align 32, !dbg !2056
  %7 = getelementptr inbounds { <4 x i64>, <4 x i64> }, { <4 x i64>, <4 x i64> }* %_6, i32 0, i32 1, !dbg !2056
  store <4 x i64> %_9, <4 x i64>* %7, align 32, !dbg !2056
  br label %bb6, !dbg !2053

bb6:                                              ; preds = %bb4, %bb5
  %8 = bitcast { <4 x i64>, <4 x i64> }* %_6 to <4 x i64>*, !dbg !2057
  %a1 = load <4 x i64>, <4 x i64>* %8, align 32, !dbg !2057
  store <4 x i64> %a1, <4 x i64>* %a.dbg.spill, align 32, !dbg !2057
  call void @llvm.dbg.declare(metadata <4 x i64>* %a.dbg.spill, metadata !2034, metadata !DIExpression()), !dbg !2058
  %9 = getelementptr inbounds { <4 x i64>, <4 x i64> }, { <4 x i64>, <4 x i64> }* %_6, i32 0, i32 1, !dbg !2059
  %b2 = load <4 x i64>, <4 x i64>* %9, align 32, !dbg !2059
  store <4 x i64> %b2, <4 x i64>* %b.dbg.spill, align 32, !dbg !2059
  call void @llvm.dbg.declare(metadata <4 x i64>* %b.dbg.spill, metadata !2036, metadata !DIExpression()), !dbg !2060
  store <4 x i64> %a1, <4 x i64>* %self.dbg.spill, align 32, !dbg !2061
  call void @llvm.dbg.declare(metadata <4 x i64>* %self.dbg.spill, metadata !2062, metadata !DIExpression()), !dbg !2072
  store <4 x i64> %a1, <4 x i64>* %self.dbg.spill3, align 32, !dbg !2072
  call void @llvm.dbg.declare(metadata <4 x i64>* %self.dbg.spill3, metadata !2073, metadata !DIExpression()), !dbg !2080
  %10 = bitcast <32 x i8>* %2 to <4 x i64>*, !dbg !2072
  store <4 x i64> %a1, <4 x i64>* %10, align 32, !dbg !2072
  %a4 = load <32 x i8>, <32 x i8>* %2, align 32, !dbg !2072
  store <32 x i8> %a4, <32 x i8>* %a.dbg.spill5, align 32, !dbg !2072
  call void @llvm.dbg.declare(metadata <32 x i8>* %a.dbg.spill5, metadata !2037, metadata !DIExpression()), !dbg !2082
  br label %bb45, !dbg !2072

bb45:                                             ; preds = %bb6
  store <4 x i64> %b2, <4 x i64>* %self.dbg.spill6, align 32, !dbg !2083
  call void @llvm.dbg.declare(metadata <4 x i64>* %self.dbg.spill6, metadata !2084, metadata !DIExpression()), !dbg !2088
  store <4 x i64> %b2, <4 x i64>* %self.dbg.spill7, align 32, !dbg !2088
  call void @llvm.dbg.declare(metadata <4 x i64>* %self.dbg.spill7, metadata !2089, metadata !DIExpression()), !dbg !2093
  %11 = bitcast <32 x i8>* %1 to <4 x i64>*, !dbg !2088
  store <4 x i64> %b2, <4 x i64>* %11, align 32, !dbg !2088
  %b8 = load <32 x i8>, <32 x i8>* %1, align 32, !dbg !2088
  store <32 x i8> %b8, <32 x i8>* %b.dbg.spill9, align 32, !dbg !2088
  call void @llvm.dbg.declare(metadata <32 x i8>* %b.dbg.spill9, metadata !2039, metadata !DIExpression()), !dbg !2095
  br label %bb46, !dbg !2088

bb46:                                             ; preds = %bb45
  br label %bb7, !dbg !2096

bb7:                                              ; preds = %bb46
  switch i32 2, label %bb8 [
    i32 0, label %bb9
    i32 1, label %bb11
    i32 2, label %bb13
    i32 3, label %bb15
    i32 4, label %bb17
    i32 5, label %bb19
    i32 6, label %bb21
    i32 7, label %bb23
    i32 8, label %bb25
    i32 9, label %bb27
    i32 10, label %bb29
    i32 11, label %bb31
    i32 12, label %bb33
    i32 13, label %bb35
    i32 14, label %bb37
    i32 15, label %bb39
  ], !dbg !2097

bb8:                                              ; preds = %bb7
  store <32 x i8> %b8, <32 x i8>* %r, align 32, !dbg !2098
  br label %bb41, !dbg !2098

bb9:                                              ; preds = %bb7
  %12 = shufflevector <32 x i8> %b8, <32 x i8> %a4, <32 x i32> <i32 0, i32 1, i32 2, i32 3, i32 4, i32 5, i32 6, i32 7, i32 8, i32 9, i32 10, i32 11, i32 12, i32 13, i32 14, i32 15, i32 16, i32 17, i32 18, i32 19, i32 20, i32 21, i32 22, i32 23, i32 24, i32 25, i32 26, i32 27, i32 28, i32 29, i32 30, i32 31>, !dbg !2099
  store <32 x i8> %12, <32 x i8>* %r, align 32, !dbg !2099
  br label %bb10, !dbg !2099

bb11:                                             ; preds = %bb7
  %13 = shufflevector <32 x i8> %b8, <32 x i8> %a4, <32 x i32> <i32 1, i32 2, i32 3, i32 4, i32 5, i32 6, i32 7, i32 8, i32 9, i32 10, i32 11, i32 12, i32 13, i32 14, i32 15, i32 32, i32 17, i32 18, i32 19, i32 20, i32 21, i32 22, i32 23, i32 24, i32 25, i32 26, i32 27, i32 28, i32 29, i32 30, i32 31, i32 48>, !dbg !2100
  store <32 x i8> %13, <32 x i8>* %r, align 32, !dbg !2100
  br label %bb12, !dbg !2100

bb13:                                             ; preds = %bb7
  %14 = shufflevector <32 x i8> %b8, <32 x i8> %a4, <32 x i32> <i32 2, i32 3, i32 4, i32 5, i32 6, i32 7, i32 8, i32 9, i32 10, i32 11, i32 12, i32 13, i32 14, i32 15, i32 32, i32 33, i32 18, i32 19, i32 20, i32 21, i32 22, i32 23, i32 24, i32 25, i32 26, i32 27, i32 28, i32 29, i32 30, i32 31, i32 48, i32 49>, !dbg !2101
  store <32 x i8> %14, <32 x i8>* %r, align 32, !dbg !2101
  br label %bb14, !dbg !2101

bb15:                                             ; preds = %bb7
  %15 = shufflevector <32 x i8> %b8, <32 x i8> %a4, <32 x i32> <i32 3, i32 4, i32 5, i32 6, i32 7, i32 8, i32 9, i32 10, i32 11, i32 12, i32 13, i32 14, i32 15, i32 32, i32 33, i32 34, i32 19, i32 20, i32 21, i32 22, i32 23, i32 24, i32 25, i32 26, i32 27, i32 28, i32 29, i32 30, i32 31, i32 48, i32 49, i32 50>, !dbg !2102
  store <32 x i8> %15, <32 x i8>* %r, align 32, !dbg !2102
  br label %bb16, !dbg !2102

bb17:                                             ; preds = %bb7
  %16 = shufflevector <32 x i8> %b8, <32 x i8> %a4, <32 x i32> <i32 4, i32 5, i32 6, i32 7, i32 8, i32 9, i32 10, i32 11, i32 12, i32 13, i32 14, i32 15, i32 32, i32 33, i32 34, i32 35, i32 20, i32 21, i32 22, i32 23, i32 24, i32 25, i32 26, i32 27, i32 28, i32 29, i32 30, i32 31, i32 48, i32 49, i32 50, i32 51>, !dbg !2103
  store <32 x i8> %16, <32 x i8>* %r, align 32, !dbg !2103
  br label %bb18, !dbg !2103

bb19:                                             ; preds = %bb7
  %17 = shufflevector <32 x i8> %b8, <32 x i8> %a4, <32 x i32> <i32 5, i32 6, i32 7, i32 8, i32 9, i32 10, i32 11, i32 12, i32 13, i32 14, i32 15, i32 32, i32 33, i32 34, i32 35, i32 36, i32 21, i32 22, i32 23, i32 24, i32 25, i32 26, i32 27, i32 28, i32 29, i32 30, i32 31, i32 48, i32 49, i32 50, i32 51, i32 52>, !dbg !2104
  store <32 x i8> %17, <32 x i8>* %r, align 32, !dbg !2104
  br label %bb20, !dbg !2104

bb21:                                             ; preds = %bb7
  %18 = shufflevector <32 x i8> %b8, <32 x i8> %a4, <32 x i32> <i32 6, i32 7, i32 8, i32 9, i32 10, i32 11, i32 12, i32 13, i32 14, i32 15, i32 32, i32 33, i32 34, i32 35, i32 36, i32 37, i32 22, i32 23, i32 24, i32 25, i32 26, i32 27, i32 28, i32 29, i32 30, i32 31, i32 48, i32 49, i32 50, i32 51, i32 52, i32 53>, !dbg !2105
  store <32 x i8> %18, <32 x i8>* %r, align 32, !dbg !2105
  br label %bb22, !dbg !2105

bb23:                                             ; preds = %bb7
  %19 = shufflevector <32 x i8> %b8, <32 x i8> %a4, <32 x i32> <i32 7, i32 8, i32 9, i32 10, i32 11, i32 12, i32 13, i32 14, i32 15, i32 32, i32 33, i32 34, i32 35, i32 36, i32 37, i32 38, i32 23, i32 24, i32 25, i32 26, i32 27, i32 28, i32 29, i32 30, i32 31, i32 48, i32 49, i32 50, i32 51, i32 52, i32 53, i32 54>, !dbg !2106
  store <32 x i8> %19, <32 x i8>* %r, align 32, !dbg !2106
  br label %bb24, !dbg !2106

bb25:                                             ; preds = %bb7
  %20 = shufflevector <32 x i8> %b8, <32 x i8> %a4, <32 x i32> <i32 8, i32 9, i32 10, i32 11, i32 12, i32 13, i32 14, i32 15, i32 32, i32 33, i32 34, i32 35, i32 36, i32 37, i32 38, i32 39, i32 24, i32 25, i32 26, i32 27, i32 28, i32 29, i32 30, i32 31, i32 48, i32 49, i32 50, i32 51, i32 52, i32 53, i32 54, i32 55>, !dbg !2107
  store <32 x i8> %20, <32 x i8>* %r, align 32, !dbg !2107
  br label %bb26, !dbg !2107

bb27:                                             ; preds = %bb7
  %21 = shufflevector <32 x i8> %b8, <32 x i8> %a4, <32 x i32> <i32 9, i32 10, i32 11, i32 12, i32 13, i32 14, i32 15, i32 32, i32 33, i32 34, i32 35, i32 36, i32 37, i32 38, i32 39, i32 40, i32 25, i32 26, i32 27, i32 28, i32 29, i32 30, i32 31, i32 48, i32 49, i32 50, i32 51, i32 52, i32 53, i32 54, i32 55, i32 56>, !dbg !2108
  store <32 x i8> %21, <32 x i8>* %r, align 32, !dbg !2108
  br label %bb28, !dbg !2108

bb29:                                             ; preds = %bb7
  %22 = shufflevector <32 x i8> %b8, <32 x i8> %a4, <32 x i32> <i32 10, i32 11, i32 12, i32 13, i32 14, i32 15, i32 32, i32 33, i32 34, i32 35, i32 36, i32 37, i32 38, i32 39, i32 40, i32 41, i32 26, i32 27, i32 28, i32 29, i32 30, i32 31, i32 48, i32 49, i32 50, i32 51, i32 52, i32 53, i32 54, i32 55, i32 56, i32 57>, !dbg !2109
  store <32 x i8> %22, <32 x i8>* %r, align 32, !dbg !2109
  br label %bb30, !dbg !2109

bb31:                                             ; preds = %bb7
  %23 = shufflevector <32 x i8> %b8, <32 x i8> %a4, <32 x i32> <i32 11, i32 12, i32 13, i32 14, i32 15, i32 32, i32 33, i32 34, i32 35, i32 36, i32 37, i32 38, i32 39, i32 40, i32 41, i32 42, i32 27, i32 28, i32 29, i32 30, i32 31, i32 48, i32 49, i32 50, i32 51, i32 52, i32 53, i32 54, i32 55, i32 56, i32 57, i32 58>, !dbg !2110
  store <32 x i8> %23, <32 x i8>* %r, align 32, !dbg !2110
  br label %bb32, !dbg !2110

bb33:                                             ; preds = %bb7
  %24 = shufflevector <32 x i8> %b8, <32 x i8> %a4, <32 x i32> <i32 12, i32 13, i32 14, i32 15, i32 32, i32 33, i32 34, i32 35, i32 36, i32 37, i32 38, i32 39, i32 40, i32 41, i32 42, i32 43, i32 28, i32 29, i32 30, i32 31, i32 48, i32 49, i32 50, i32 51, i32 52, i32 53, i32 54, i32 55, i32 56, i32 57, i32 58, i32 59>, !dbg !2111
  store <32 x i8> %24, <32 x i8>* %r, align 32, !dbg !2111
  br label %bb34, !dbg !2111

bb35:                                             ; preds = %bb7
  %25 = shufflevector <32 x i8> %b8, <32 x i8> %a4, <32 x i32> <i32 13, i32 14, i32 15, i32 32, i32 33, i32 34, i32 35, i32 36, i32 37, i32 38, i32 39, i32 40, i32 41, i32 42, i32 43, i32 44, i32 29, i32 30, i32 31, i32 48, i32 49, i32 50, i32 51, i32 52, i32 53, i32 54, i32 55, i32 56, i32 57, i32 58, i32 59, i32 60>, !dbg !2112
  store <32 x i8> %25, <32 x i8>* %r, align 32, !dbg !2112
  br label %bb36, !dbg !2112

bb37:                                             ; preds = %bb7
  %26 = shufflevector <32 x i8> %b8, <32 x i8> %a4, <32 x i32> <i32 14, i32 15, i32 32, i32 33, i32 34, i32 35, i32 36, i32 37, i32 38, i32 39, i32 40, i32 41, i32 42, i32 43, i32 44, i32 45, i32 30, i32 31, i32 48, i32 49, i32 50, i32 51, i32 52, i32 53, i32 54, i32 55, i32 56, i32 57, i32 58, i32 59, i32 60, i32 61>, !dbg !2113
  store <32 x i8> %26, <32 x i8>* %r, align 32, !dbg !2113
  br label %bb38, !dbg !2113

bb39:                                             ; preds = %bb7
  %27 = shufflevector <32 x i8> %b8, <32 x i8> %a4, <32 x i32> <i32 15, i32 32, i32 33, i32 34, i32 35, i32 36, i32 37, i32 38, i32 39, i32 40, i32 41, i32 42, i32 43, i32 44, i32 45, i32 46, i32 31, i32 48, i32 49, i32 50, i32 51, i32 52, i32 53, i32 54, i32 55, i32 56, i32 57, i32 58, i32 59, i32 60, i32 61, i32 62>, !dbg !2114
  store <32 x i8> %27, <32 x i8>* %r, align 32, !dbg !2114
  br label %bb40, !dbg !2114

bb41:                                             ; preds = %bb10, %bb12, %bb14, %bb16, %bb18, %bb20, %bb22, %bb24, %bb26, %bb28, %bb30, %bb32, %bb34, %bb36, %bb38, %bb40, %bb8
  %_53 = load <32 x i8>, <32 x i8>* %r, align 32, !dbg !2115
  %28 = bitcast <4 x i64>* %0 to <32 x i8>*, !dbg !2116
  store <32 x i8> %_53, <32 x i8>* %28, align 32, !dbg !2116
  br label %bb42, !dbg !2116

bb40:                                             ; preds = %bb39
  br label %bb41, !dbg !2114

bb38:                                             ; preds = %bb37
  br label %bb41, !dbg !2113

bb36:                                             ; preds = %bb35
  br label %bb41, !dbg !2112

bb34:                                             ; preds = %bb33
  br label %bb41, !dbg !2111

bb32:                                             ; preds = %bb31
  br label %bb41, !dbg !2110

bb30:                                             ; preds = %bb29
  br label %bb41, !dbg !2109

bb28:                                             ; preds = %bb27
  br label %bb41, !dbg !2108

bb26:                                             ; preds = %bb25
  br label %bb41, !dbg !2107

bb24:                                             ; preds = %bb23
  br label %bb41, !dbg !2106

bb22:                                             ; preds = %bb21
  br label %bb41, !dbg !2105

bb20:                                             ; preds = %bb19
  br label %bb41, !dbg !2104

bb18:                                             ; preds = %bb17
  br label %bb41, !dbg !2103

bb16:                                             ; preds = %bb15
  br label %bb41, !dbg !2102

bb14:                                             ; preds = %bb13
  br label %bb41, !dbg !2101

bb12:                                             ; preds = %bb11
  br label %bb41, !dbg !2100

bb10:                                             ; preds = %bb9
  br label %bb41, !dbg !2099

bb42:                                             ; preds = %bb41
  br label %bb44, !dbg !2049
}

; core::core_arch::x86::avx2::_mm256_shuffle_epi8
; Function Attrs: inlinehint nonlazybind uwtable
define internal void @_ZN4core9core_arch3x864avx219_mm256_shuffle_epi817h189d997175c9a0d7E(<4 x i64>* sret(<4 x i64>) %0, <4 x i64>* %a, <4 x i64>* %b) unnamed_addr #6 !dbg !2117 {
start:
  %1 = alloca <32 x i8>, align 32, !dbg !2121
  %self.dbg.spill4 = alloca <4 x i64>, align 32, !dbg !2121
  %self.dbg.spill3 = alloca <4 x i64>, align 32, !dbg !2121
  %2 = alloca <32 x i8>, align 32, !dbg !2121
  %self.dbg.spill1 = alloca <4 x i64>, align 32, !dbg !2121
  %self.dbg.spill = alloca <4 x i64>, align 32, !dbg !2121
  call void @llvm.dbg.declare(metadata <4 x i64>* %a, metadata !2119, metadata !DIExpression()), !dbg !2121
  call void @llvm.dbg.declare(metadata <4 x i64>* %b, metadata !2120, metadata !DIExpression()), !dbg !2122
  %self = load <4 x i64>, <4 x i64>* %a, align 32, !dbg !2123
  store <4 x i64> %self, <4 x i64>* %self.dbg.spill, align 32, !dbg !2123
  call void @llvm.dbg.declare(metadata <4 x i64>* %self.dbg.spill, metadata !2124, metadata !DIExpression()), !dbg !2164
  store <4 x i64> %self, <4 x i64>* %self.dbg.spill1, align 32, !dbg !2164
  call void @llvm.dbg.declare(metadata <4 x i64>* %self.dbg.spill1, metadata !2165, metadata !DIExpression()), !dbg !2169
  %3 = bitcast <32 x i8>* %2 to <4 x i64>*, !dbg !2164
  store <4 x i64> %self, <4 x i64>* %3, align 32, !dbg !2164
  %_4 = load <32 x i8>, <32 x i8>* %2, align 32, !dbg !2164
  br label %bb3, !dbg !2164

bb3:                                              ; preds = %start
  %self2 = load <4 x i64>, <4 x i64>* %b, align 32, !dbg !2171
  store <4 x i64> %self2, <4 x i64>* %self.dbg.spill3, align 32, !dbg !2171
  call void @llvm.dbg.declare(metadata <4 x i64>* %self.dbg.spill3, metadata !2172, metadata !DIExpression()), !dbg !2176
  store <4 x i64> %self2, <4 x i64>* %self.dbg.spill4, align 32, !dbg !2176
  call void @llvm.dbg.declare(metadata <4 x i64>* %self.dbg.spill4, metadata !2177, metadata !DIExpression()), !dbg !2181
  %4 = bitcast <32 x i8>* %1 to <4 x i64>*, !dbg !2176
  store <4 x i64> %self2, <4 x i64>* %4, align 32, !dbg !2176
  %_6 = load <32 x i8>, <32 x i8>* %1, align 32, !dbg !2176
  br label %bb4, !dbg !2176

bb4:                                              ; preds = %bb3
  %_3 = call <32 x i8> @llvm.x86.avx2.pshuf.b(<32 x i8> %_4, <32 x i8> %_6) #22, !dbg !2183
  br label %bb1, !dbg !2183

bb1:                                              ; preds = %bb4
  %5 = bitcast <4 x i64>* %0 to <32 x i8>*, !dbg !2184
  store <32 x i8> %_3, <32 x i8>* %5, align 32, !dbg !2184
  br label %bb2, !dbg !2184

bb2:                                              ; preds = %bb1
  ret void, !dbg !2185
}

; core::core_arch::x86::avx2::_mm256_extract_epi32
; Function Attrs: inlinehint nonlazybind uwtable
define internal i32 @_ZN4core9core_arch3x864avx220_mm256_extract_epi3217h64ddd79fefb3d6aaE(<4 x i64>* %a) unnamed_addr #6 !dbg !2186 {
start:
  %0 = alloca i32, align 4, !dbg !2191
  %1 = alloca <8 x i32>, align 32, !dbg !2191
  %self.dbg.spill1 = alloca <4 x i64>, align 32, !dbg !2191
  %self.dbg.spill = alloca <4 x i64>, align 32, !dbg !2191
  call void @llvm.dbg.declare(metadata <4 x i64>* %a, metadata !2190, metadata !DIExpression()), !dbg !2191
  %self = load <4 x i64>, <4 x i64>* %a, align 32, !dbg !2192
  store <4 x i64> %self, <4 x i64>* %self.dbg.spill, align 32, !dbg !2192
  call void @llvm.dbg.declare(metadata <4 x i64>* %self.dbg.spill, metadata !2193, metadata !DIExpression()), !dbg !2199
  store <4 x i64> %self, <4 x i64>* %self.dbg.spill1, align 32, !dbg !2199
  call void @llvm.dbg.declare(metadata <4 x i64>* %self.dbg.spill1, metadata !2200, metadata !DIExpression()), !dbg !2204
  %2 = bitcast <8 x i32>* %1 to <4 x i64>*, !dbg !2199
  store <4 x i64> %self, <4 x i64>* %2, align 32, !dbg !2199
  %_2 = load <8 x i32>, <8 x i32>* %1, align 32, !dbg !2199
  br label %bb2, !dbg !2199

bb2:                                              ; preds = %start
  %3 = extractelement <8 x i32> %_2, i32 2, !dbg !2206
  store i32 %3, i32* %0, align 4, !dbg !2206
  %4 = load i32, i32* %0, align 4, !dbg !2206
  br label %bb1, !dbg !2206

bb1:                                              ; preds = %bb2
  ret i32 %4, !dbg !2207
}

; core::core_arch::x86::avx2::_mm256_shuffle_epi32
; Function Attrs: inlinehint nonlazybind uwtable
define internal void @_ZN4core9core_arch3x864avx220_mm256_shuffle_epi3217h052c12329cad8cb1E(<4 x i64>* sret(<4 x i64>) %0, <4 x i64>* %a) unnamed_addr #6 !dbg !2208 {
start:
  %r.dbg.spill = alloca <8 x i32>, align 32, !dbg !2213
  %1 = alloca <8 x i32>, align 32, !dbg !2213
  %2 = alloca <8 x i32>, align 32, !dbg !2213
  %self.dbg.spill4 = alloca <4 x i64>, align 32, !dbg !2213
  %self.dbg.spill3 = alloca <4 x i64>, align 32, !dbg !2213
  %3 = alloca <8 x i32>, align 32, !dbg !2213
  %self.dbg.spill1 = alloca <4 x i64>, align 32, !dbg !2213
  %self.dbg.spill = alloca <4 x i64>, align 32, !dbg !2213
  call void @llvm.dbg.declare(metadata <4 x i64>* %a, metadata !2210, metadata !DIExpression()), !dbg !2213
  %self = load <4 x i64>, <4 x i64>* %a, align 32, !dbg !2214
  store <4 x i64> %self, <4 x i64>* %self.dbg.spill, align 32, !dbg !2214
  call void @llvm.dbg.declare(metadata <4 x i64>* %self.dbg.spill, metadata !2215, metadata !DIExpression()), !dbg !2219
  store <4 x i64> %self, <4 x i64>* %self.dbg.spill1, align 32, !dbg !2219
  call void @llvm.dbg.declare(metadata <4 x i64>* %self.dbg.spill1, metadata !2220, metadata !DIExpression()), !dbg !2224
  %4 = bitcast <8 x i32>* %3 to <4 x i64>*, !dbg !2219
  store <4 x i64> %self, <4 x i64>* %4, align 32, !dbg !2219
  %_3 = load <8 x i32>, <8 x i32>* %3, align 32, !dbg !2219
  br label %bb3, !dbg !2219

bb3:                                              ; preds = %start
  %self2 = load <4 x i64>, <4 x i64>* %a, align 32, !dbg !2226
  store <4 x i64> %self2, <4 x i64>* %self.dbg.spill3, align 32, !dbg !2226
  call void @llvm.dbg.declare(metadata <4 x i64>* %self.dbg.spill3, metadata !2227, metadata !DIExpression()), !dbg !2231
  store <4 x i64> %self2, <4 x i64>* %self.dbg.spill4, align 32, !dbg !2231
  call void @llvm.dbg.declare(metadata <4 x i64>* %self.dbg.spill4, metadata !2232, metadata !DIExpression()), !dbg !2236
  %5 = bitcast <8 x i32>* %2 to <4 x i64>*, !dbg !2231
  store <4 x i64> %self2, <4 x i64>* %5, align 32, !dbg !2231
  %_5 = load <8 x i32>, <8 x i32>* %2, align 32, !dbg !2231
  br label %bb4, !dbg !2231

bb4:                                              ; preds = %bb3
  %6 = shufflevector <8 x i32> %_3, <8 x i32> %_5, <8 x i32> <i32 0, i32 2, i32 3, i32 0, i32 4, i32 6, i32 7, i32 4>, !dbg !2238
  store <8 x i32> %6, <8 x i32>* %1, align 32, !dbg !2238
  %r = load <8 x i32>, <8 x i32>* %1, align 32, !dbg !2238
  store <8 x i32> %r, <8 x i32>* %r.dbg.spill, align 32, !dbg !2238
  call void @llvm.dbg.declare(metadata <8 x i32>* %r.dbg.spill, metadata !2211, metadata !DIExpression()), !dbg !2239
  br label %bb1, !dbg !2238

bb1:                                              ; preds = %bb4
  %7 = bitcast <4 x i64>* %0 to <8 x i32>*, !dbg !2240
  store <8 x i32> %r, <8 x i32>* %7, align 32, !dbg !2240
  br label %bb2, !dbg !2240

bb2:                                              ; preds = %bb1
  ret void, !dbg !2241
}

; core::core_arch::x86::avx2::_mm256_shufflehi_epi16
; Function Attrs: inlinehint nonlazybind uwtable
define internal void @_ZN4core9core_arch3x864avx222_mm256_shufflehi_epi1617he240b616cc32e74dE(<4 x i64>* sret(<4 x i64>) %0, <4 x i64>* %a) unnamed_addr #6 !dbg !2242 {
start:
  %r.dbg.spill = alloca <16 x i16>, align 32, !dbg !2268
  %1 = alloca <16 x i16>, align 32, !dbg !2268
  %a.dbg.spill = alloca <16 x i16>, align 32, !dbg !2268
  %2 = alloca <16 x i16>, align 32, !dbg !2268
  %self.dbg.spill1 = alloca <4 x i64>, align 32, !dbg !2268
  %self.dbg.spill = alloca <4 x i64>, align 32, !dbg !2268
  call void @llvm.dbg.declare(metadata <4 x i64>* %a, metadata !2244, metadata !DIExpression()), !dbg !2268
  %self = load <4 x i64>, <4 x i64>* %a, align 32, !dbg !2269
  store <4 x i64> %self, <4 x i64>* %self.dbg.spill, align 32, !dbg !2269
  call void @llvm.dbg.declare(metadata <4 x i64>* %self.dbg.spill, metadata !2270, metadata !DIExpression()), !dbg !2276
  store <4 x i64> %self, <4 x i64>* %self.dbg.spill1, align 32, !dbg !2276
  call void @llvm.dbg.declare(metadata <4 x i64>* %self.dbg.spill1, metadata !2277, metadata !DIExpression()), !dbg !2281
  %3 = bitcast <16 x i16>* %2 to <4 x i64>*, !dbg !2276
  store <4 x i64> %self, <4 x i64>* %3, align 32, !dbg !2276
  %a2 = load <16 x i16>, <16 x i16>* %2, align 32, !dbg !2276
  store <16 x i16> %a2, <16 x i16>* %a.dbg.spill, align 32, !dbg !2276
  call void @llvm.dbg.declare(metadata <16 x i16>* %a.dbg.spill, metadata !2245, metadata !DIExpression()), !dbg !2283
  br label %bb3, !dbg !2276

bb3:                                              ; preds = %start
  %4 = shufflevector <16 x i16> %a2, <16 x i16> %a2, <16 x i32> <i32 0, i32 1, i32 2, i32 3, i32 7, i32 7, i32 6, i32 5, i32 8, i32 9, i32 10, i32 11, i32 15, i32 15, i32 14, i32 13>, !dbg !2284
  store <16 x i16> %4, <16 x i16>* %1, align 32, !dbg !2284
  %r = load <16 x i16>, <16 x i16>* %1, align 32, !dbg !2284
  store <16 x i16> %r, <16 x i16>* %r.dbg.spill, align 32, !dbg !2284
  call void @llvm.dbg.declare(metadata <16 x i16>* %r.dbg.spill, metadata !2266, metadata !DIExpression()), !dbg !2285
  br label %bb1, !dbg !2284

bb1:                                              ; preds = %bb3
  %5 = bitcast <4 x i64>* %0 to <16 x i16>*, !dbg !2286
  store <16 x i16> %r, <16 x i16>* %5, align 32, !dbg !2286
  br label %bb2, !dbg !2286

bb2:                                              ; preds = %bb1
  ret void, !dbg !2287
}

; core::core_arch::x86::avx2::_mm256_shufflelo_epi16
; Function Attrs: inlinehint nonlazybind uwtable
define internal void @_ZN4core9core_arch3x864avx222_mm256_shufflelo_epi1617hf2e5603312dc5d55E(<4 x i64>* sret(<4 x i64>) %0, <4 x i64>* %a) unnamed_addr #6 !dbg !2288 {
start:
  %r.dbg.spill = alloca <16 x i16>, align 32, !dbg !2295
  %1 = alloca <16 x i16>, align 32, !dbg !2295
  %a.dbg.spill = alloca <16 x i16>, align 32, !dbg !2295
  %2 = alloca <16 x i16>, align 32, !dbg !2295
  %self.dbg.spill1 = alloca <4 x i64>, align 32, !dbg !2295
  %self.dbg.spill = alloca <4 x i64>, align 32, !dbg !2295
  call void @llvm.dbg.declare(metadata <4 x i64>* %a, metadata !2290, metadata !DIExpression()), !dbg !2295
  %self = load <4 x i64>, <4 x i64>* %a, align 32, !dbg !2296
  store <4 x i64> %self, <4 x i64>* %self.dbg.spill, align 32, !dbg !2296
  call void @llvm.dbg.declare(metadata <4 x i64>* %self.dbg.spill, metadata !2297, metadata !DIExpression()), !dbg !2301
  store <4 x i64> %self, <4 x i64>* %self.dbg.spill1, align 32, !dbg !2301
  call void @llvm.dbg.declare(metadata <4 x i64>* %self.dbg.spill1, metadata !2302, metadata !DIExpression()), !dbg !2306
  %3 = bitcast <16 x i16>* %2 to <4 x i64>*, !dbg !2301
  store <4 x i64> %self, <4 x i64>* %3, align 32, !dbg !2301
  %a2 = load <16 x i16>, <16 x i16>* %2, align 32, !dbg !2301
  store <16 x i16> %a2, <16 x i16>* %a.dbg.spill, align 32, !dbg !2301
  call void @llvm.dbg.declare(metadata <16 x i16>* %a.dbg.spill, metadata !2291, metadata !DIExpression()), !dbg !2308
  br label %bb3, !dbg !2301

bb3:                                              ; preds = %start
  %4 = shufflevector <16 x i16> %a2, <16 x i16> %a2, <16 x i32> <i32 3, i32 2, i32 3, i32 2, i32 4, i32 5, i32 6, i32 7, i32 11, i32 10, i32 11, i32 10, i32 12, i32 13, i32 14, i32 15>, !dbg !2309
  store <16 x i16> %4, <16 x i16>* %1, align 32, !dbg !2309
  %r = load <16 x i16>, <16 x i16>* %1, align 32, !dbg !2309
  store <16 x i16> %r, <16 x i16>* %r.dbg.spill, align 32, !dbg !2309
  call void @llvm.dbg.declare(metadata <16 x i16>* %r.dbg.spill, metadata !2293, metadata !DIExpression()), !dbg !2310
  br label %bb1, !dbg !2309

bb1:                                              ; preds = %bb3
  %5 = bitcast <4 x i64>* %0 to <16 x i16>*, !dbg !2311
  store <16 x i16> %r, <16 x i16>* %5, align 32, !dbg !2311
  br label %bb2, !dbg !2311

bb2:                                              ; preds = %bb1
  ret void, !dbg !2312
}

; core::core_arch::x86::avx2::_mm256_permute2x128_si256
; Function Attrs: inlinehint nonlazybind uwtable
define internal void @_ZN4core9core_arch3x864avx225_mm256_permute2x128_si25617h13583cbf189a0387E(<4 x i64>* sret(<4 x i64>) %0, <4 x i64>* %a, <4 x i64>* %b) unnamed_addr #6 !dbg !2313 {
start:
  %1 = alloca <4 x i64>, align 32, !dbg !2317
  %self.dbg.spill4 = alloca <4 x i64>, align 32, !dbg !2317
  %self.dbg.spill3 = alloca <4 x i64>, align 32, !dbg !2317
  %2 = alloca <4 x i64>, align 32, !dbg !2317
  %self.dbg.spill1 = alloca <4 x i64>, align 32, !dbg !2317
  %self.dbg.spill = alloca <4 x i64>, align 32, !dbg !2317
  call void @llvm.dbg.declare(metadata <4 x i64>* %a, metadata !2315, metadata !DIExpression()), !dbg !2317
  call void @llvm.dbg.declare(metadata <4 x i64>* %b, metadata !2316, metadata !DIExpression()), !dbg !2318
  %self = load <4 x i64>, <4 x i64>* %a, align 32, !dbg !2319
  store <4 x i64> %self, <4 x i64>* %self.dbg.spill, align 32, !dbg !2319
  call void @llvm.dbg.declare(metadata <4 x i64>* %self.dbg.spill, metadata !2320, metadata !DIExpression()), !dbg !2326
  store <4 x i64> %self, <4 x i64>* %self.dbg.spill1, align 32, !dbg !2326
  call void @llvm.dbg.declare(metadata <4 x i64>* %self.dbg.spill1, metadata !2327, metadata !DIExpression()), !dbg !2331
  store <4 x i64> %self, <4 x i64>* %2, align 32, !dbg !2326
  %_4 = load <4 x i64>, <4 x i64>* %2, align 32, !dbg !2326
  br label %bb3, !dbg !2326

bb3:                                              ; preds = %start
  %self2 = load <4 x i64>, <4 x i64>* %b, align 32, !dbg !2333
  store <4 x i64> %self2, <4 x i64>* %self.dbg.spill3, align 32, !dbg !2333
  call void @llvm.dbg.declare(metadata <4 x i64>* %self.dbg.spill3, metadata !2334, metadata !DIExpression()), !dbg !2338
  store <4 x i64> %self2, <4 x i64>* %self.dbg.spill4, align 32, !dbg !2338
  call void @llvm.dbg.declare(metadata <4 x i64>* %self.dbg.spill4, metadata !2339, metadata !DIExpression()), !dbg !2343
  store <4 x i64> %self2, <4 x i64>* %1, align 32, !dbg !2338
  %_6 = load <4 x i64>, <4 x i64>* %1, align 32, !dbg !2338
  br label %bb4, !dbg !2338

bb4:                                              ; preds = %bb3
  %3 = shufflevector <4 x i64> zeroinitializer, <4 x i64> %_6, <4 x i32> <i32 0, i32 1, i32 4, i32 5>, !dbg !2345
  br label %bb1, !dbg !2345

bb1:                                              ; preds = %bb4
  store <4 x i64> %3, <4 x i64>* %0, align 32, !dbg !2346
  br label %bb2, !dbg !2346

bb2:                                              ; preds = %bb1
  ret void, !dbg !2347
}

; core::core_arch::x86::sse2::_mm_set1_pd
; Function Attrs: inlinehint nonlazybind uwtable
define internal void @_ZN4core9core_arch3x864sse211_mm_set1_pd17h915c0f1af2fc0ed5E(<2 x double>* sret(<2 x double>) %0, double %a) unnamed_addr #7 !dbg !2348 {
start:
  %b.dbg.spill = alloca double, align 8
  %a.dbg.spill1 = alloca double, align 8
  %a.dbg.spill = alloca double, align 8
