; ModuleID = '265e8e3tgsp6q2e5'
source_filename = "265e8e3tgsp6q2e5"
target datalayout = "e-m:e-p270:32:32-p271:32:32-p272:64:64-i64:64-f80:128-n8:16:32:64-S128"
target triple = "x86_64-unknown-linux-gnu"

%"core::fmt::Formatter" = type { { i64, i64 }, { i64, i64 }, { {}*, [3 x i64]* }, i32, i32, i8, [7 x i8] }
%"core::fmt::Opaque" = type {}
%"core::fmt::Arguments" = type { { [0 x { [0 x i8]*, i64 }]*, i64 }, { i64*, i64 }, { [0 x { i8*, i64* }]*, i64 } }
%"core::panic::location::Location" = type { { [0 x i8]*, i64 }, i32, i32 }
%"core::fmt::builders::DebugTuple" = type { %"core::fmt::Formatter"*, i64, i8, i8, [6 x i8] }
%"x86::ShuffleVectors" = type { <4 x float>, <2 x double>, <8 x float>, <4 x double>, <4 x double>, <2 x i64>, <2 x i64>, <2 x i64>, <2 x i64>, <4 x i64>, <4 x i64>, <4 x i64>, <2 x i64>, [2 x i64], <4 x i64>, <4 x i64>, <4 x i64>, <2 x i64>, [2 x i64] }
%"x86::VectorInitLists" = type { <4 x float>, [2 x i64], <8 x float>, <2 x double>, [2 x i64], <4 x double>, <2 x i64>, [2 x i64], <4 x i64> }

@alloc395 = private unnamed_addr constant <{ [12 x i8] }> <{ [12 x i8] c"invalid args" }>, align 1
@alloc396 = private unnamed_addr constant <{ i8*, [8 x i8] }> <{ i8* getelementptr inbounds (<{ [12 x i8] }>, <{ [12 x i8] }>* @alloc395, i32 0, i32 0, i32 0), [8 x i8] c"\0C\00\00\00\00\00\00\00" }>, align 8
@alloc467 = private unnamed_addr constant <{}> zeroinitializer, align 8
@alloc469 = private unnamed_addr constant <{ [75 x i8] }> <{ [75 x i8] c"/rustc/d394408fb38c4de61f765a3ed5189d2731a1da91/library/core/src/fmt/mod.rs" }>, align 1
@alloc470 = private unnamed_addr constant <{ i8*, [16 x i8] }> <{ i8* getelementptr inbounds (<{ [75 x i8] }>, <{ [75 x i8] }>* @alloc469, i32 0, i32 0, i32 0), [16 x i8] c"K\00\00\00\00\00\00\00\88\01\00\00\0D\00\00\00" }>, align 8
@vtable.0 = private unnamed_addr constant <{ i8*, [16 x i8], i8* }> <{ i8* bitcast (void (double**)* @"_ZN4core3ptr28drop_in_place$LT$$RF$f64$GT$17h4435ee5e2d199fbaE" to i8*), [16 x i8] c"\08\00\00\00\00\00\00\00\08\00\00\00\00\00\00\00", i8* bitcast (i1 (double**, %"core::fmt::Formatter"*)* @"_ZN42_$LT$$RF$T$u20$as$u20$core..fmt..Debug$GT$3fmt17h6ebfe055a148e83fE" to i8*) }>, align 8, !dbg !0
@vtable.1 = private unnamed_addr constant <{ i8*, [16 x i8], i8* }> <{ i8* bitcast (void (i64**)* @"_ZN4core3ptr28drop_in_place$LT$$RF$i64$GT$17h9534fe69a8cf4317E" to i8*), [16 x i8] c"\08\00\00\00\00\00\00\00\08\00\00\00\00\00\00\00", i8* bitcast (i1 (i64**, %"core::fmt::Formatter"*)* @"_ZN42_$LT$$RF$T$u20$as$u20$core..fmt..Debug$GT$3fmt17h46b8b7755cf246d4E" to i8*) }>, align 8, !dbg !15
@vtable.2 = private unnamed_addr constant <{ i8*, [16 x i8], i8* }> <{ i8* bitcast (void (i128**)* @"_ZN4core3ptr29drop_in_place$LT$$RF$u128$GT$17h2b2352fd69062125E" to i8*), [16 x i8] c"\08\00\00\00\00\00\00\00\08\00\00\00\00\00\00\00", i8* bitcast (i1 (i128**, %"core::fmt::Formatter"*)* @"_ZN42_$LT$$RF$T$u20$as$u20$core..fmt..Debug$GT$3fmt17h06b157fad8db2c76E" to i8*) }>, align 8, !dbg !25
@vtable.3 = private unnamed_addr constant <{ i8*, [16 x i8], i8* }> <{ i8* bitcast (void (float**)* @"_ZN4core3ptr28drop_in_place$LT$$RF$f32$GT$17h1e40ec344be553afE" to i8*), [16 x i8] c"\08\00\00\00\00\00\00\00\08\00\00\00\00\00\00\00", i8* bitcast (i1 (float**, %"core::fmt::Formatter"*)* @"_ZN42_$LT$$RF$T$u20$as$u20$core..fmt..Debug$GT$3fmt17h58c923d00a268bebE" to i8*) }>, align 8, !dbg !35
@alloc63 = private unnamed_addr constant <{ [82 x i8] }> <{ [82 x i8] c"Prevented unsafe calling of SIMD functions when architecture support doesn't exist" }>, align 1
@_ZN10simd_tests8test_x8614UNSAFETY_ERROR17h00745e0557a49564E = internal constant <{ i8*, [8 x i8] }> <{ i8* getelementptr inbounds (<{ [82 x i8] }>, <{ [82 x i8] }>* @alloc63, i32 0, i32 0, i32 0), [8 x i8] c"R\00\00\00\00\00\00\00" }>, align 8, !dbg !45
@alloc453 = private unnamed_addr constant <{ [7 x i8] }> <{ [7 x i8] c"fields " }>, align 1
@alloc455 = private unnamed_addr constant <{ [3 x i8] }> <{ [3 x i8] c": (" }>, align 1
@alloc456 = private unnamed_addr constant <{ [6 x i8] }> <{ [6 x i8] c") != (" }>, align 1
@alloc457 = private unnamed_addr constant <{ [2 x i8] }> <{ [2 x i8] c")\0A" }>, align 1
@alloc454 = private unnamed_addr constant <{ i8*, [8 x i8], i8*, [8 x i8], i8*, [8 x i8], i8*, [8 x i8] }> <{ i8* getelementptr inbounds (<{ [7 x i8] }>, <{ [7 x i8] }>* @alloc453, i32 0, i32 0, i32 0), [8 x i8] c"\07\00\00\00\00\00\00\00", i8* getelementptr inbounds (<{ [3 x i8] }>, <{ [3 x i8] }>* @alloc455, i32 0, i32 0, i32 0), [8 x i8] c"\03\00\00\00\00\00\00\00", i8* getelementptr inbounds (<{ [6 x i8] }>, <{ [6 x i8] }>* @alloc456, i32 0, i32 0, i32 0), [8 x i8] c"\06\00\00\00\00\00\00\00", i8* getelementptr inbounds (<{ [2 x i8] }>, <{ [2 x i8] }>* @alloc457, i32 0, i32 0, i32 0), [8 x i8] c"\02\00\00\00\00\00\00\00" }>, align 8
@alloc423 = private unnamed_addr constant <{ [1 x i8] }> <{ [1 x i8] c"b" }>, align 1
@alloc424 = private unnamed_addr constant <{ i8*, [8 x i8] }> <{ i8* getelementptr inbounds (<{ [1 x i8] }>, <{ [1 x i8] }>* @alloc423, i32 0, i32 0, i32 0), [8 x i8] c"\01\00\00\00\00\00\00\00" }>, align 8
@alloc432 = private unnamed_addr constant <{ [1 x i8] }> <{ [1 x i8] c"c" }>, align 1
@alloc433 = private unnamed_addr constant <{ i8*, [8 x i8] }> <{ i8* getelementptr inbounds (<{ [1 x i8] }>, <{ [1 x i8] }>* @alloc432, i32 0, i32 0, i32 0), [8 x i8] c"\01\00\00\00\00\00\00\00" }>, align 8
@alloc441 = private unnamed_addr constant <{ [1 x i8] }> <{ [1 x i8] c"d" }>, align 1
@alloc442 = private unnamed_addr constant <{ i8*, [8 x i8] }> <{ i8* getelementptr inbounds (<{ [1 x i8] }>, <{ [1 x i8] }>* @alloc441, i32 0, i32 0, i32 0), [8 x i8] c"\01\00\00\00\00\00\00\00" }>, align 8
@alloc328 = private unnamed_addr constant <{ [2 x i8] }> <{ [2 x i8] c"ep" }>, align 1
@alloc329 = private unnamed_addr constant <{ i8*, [8 x i8] }> <{ i8* getelementptr inbounds (<{ [2 x i8] }>, <{ [2 x i8] }>* @alloc328, i32 0, i32 0, i32 0), [8 x i8] c"\02\00\00\00\00\00\00\00" }>, align 8
@alloc450 = private unnamed_addr constant <{ [1 x i8] }> <{ [1 x i8] c"e" }>, align 1
@alloc451 = private unnamed_addr constant <{ i8*, [8 x i8] }> <{ i8* getelementptr inbounds (<{ [1 x i8] }>, <{ [1 x i8] }>* @alloc450, i32 0, i32 0, i32 0), [8 x i8] c"\01\00\00\00\00\00\00\00" }>, align 8
@alloc459 = private unnamed_addr constant <{ [1 x i8] }> <{ [1 x i8] c"f" }>, align 1
@alloc460 = private unnamed_addr constant <{ i8*, [8 x i8] }> <{ i8* getelementptr inbounds (<{ [1 x i8] }>, <{ [1 x i8] }>* @alloc459, i32 0, i32 0, i32 0), [8 x i8] c"\01\00\00\00\00\00\00\00" }>, align 8
@alloc355 = private unnamed_addr constant <{ [1 x i8] }> <{ [1 x i8] c"g" }>, align 1
@alloc356 = private unnamed_addr constant <{ i8*, [8 x i8] }> <{ i8* getelementptr inbounds (<{ [1 x i8] }>, <{ [1 x i8] }>* @alloc355, i32 0, i32 0, i32 0), [8 x i8] c"\01\00\00\00\00\00\00\00" }>, align 8
@alloc364 = private unnamed_addr constant <{ [1 x i8] }> <{ [1 x i8] c"h" }>, align 1
@alloc365 = private unnamed_addr constant <{ i8*, [8 x i8] }> <{ i8* getelementptr inbounds (<{ [1 x i8] }>, <{ [1 x i8] }>* @alloc364, i32 0, i32 0, i32 0), [8 x i8] c"\01\00\00\00\00\00\00\00" }>, align 8
@alloc373 = private unnamed_addr constant <{ [1 x i8] }> <{ [1 x i8] c"m" }>, align 1
@alloc374 = private unnamed_addr constant <{ i8*, [8 x i8] }> <{ i8* getelementptr inbounds (<{ [1 x i8] }>, <{ [1 x i8] }>* @alloc373, i32 0, i32 0, i32 0), [8 x i8] c"\01\00\00\00\00\00\00\00" }>, align 8
@alloc382 = private unnamed_addr constant <{ [1 x i8] }> <{ [1 x i8] c"o" }>, align 1
@alloc383 = private unnamed_addr constant <{ i8*, [8 x i8] }> <{ i8* getelementptr inbounds (<{ [1 x i8] }>, <{ [1 x i8] }>* @alloc382, i32 0, i32 0, i32 0), [8 x i8] c"\01\00\00\00\00\00\00\00" }>, align 8
@alloc391 = private unnamed_addr constant <{ [1 x i8] }> <{ [1 x i8] c"r" }>, align 1
@alloc392 = private unnamed_addr constant <{ i8*, [8 x i8] }> <{ i8* getelementptr inbounds (<{ [1 x i8] }>, <{ [1 x i8] }>* @alloc391, i32 0, i32 0, i32 0), [8 x i8] c"\01\00\00\00\00\00\00\00" }>, align 8
@alloc401 = private unnamed_addr constant <{ [20 x i8] }> <{ [20 x i8] c"ShuffleVector { .. }" }>, align 1
@alloc402 = private unnamed_addr constant <{ i8*, [8 x i8] }> <{ i8* getelementptr inbounds (<{ [20 x i8] }>, <{ [20 x i8] }>* @alloc401, i32 0, i32 0, i32 0), [8 x i8] c"\14\00\00\00\00\00\00\00" }>, align 8
@alloc414 = private unnamed_addr constant <{ [1 x i8] }> <{ [1 x i8] c"a" }>, align 1
@alloc415 = private unnamed_addr constant <{ i8*, [8 x i8] }> <{ i8* getelementptr inbounds (<{ [1 x i8] }>, <{ [1 x i8] }>* @alloc414, i32 0, i32 0, i32 0), [8 x i8] c"\01\00\00\00\00\00\00\00" }>, align 8
@alloc464 = private unnamed_addr constant <{ [22 x i8] }> <{ [22 x i8] c"VectorInitLists { .. }" }>, align 1
@alloc465 = private unnamed_addr constant <{ i8*, [8 x i8] }> <{ i8* getelementptr inbounds (<{ [22 x i8] }>, <{ [22 x i8] }>* @alloc464, i32 0, i32 0, i32 0), [8 x i8] c"\16\00\00\00\00\00\00\00" }>, align 8
@rust_static_m128 = global <{ [16 x i8] }> <{ [16 x i8] c"ff\A6?33\13@\9A\99Y@\CD\CC\8C@" }>, align 16, !dbg !56
@rust_static_m256 = global <{ [32 x i8] }> <{ [32 x i8] c"\CD\CC\0C@\CD\CC\8C@33\B3@\9A\99\89@ff\D6@33\D3@\00\00\B0@\CD\CC\0CA" }>, align 32, !dbg !69
@rust_static_m128d = global <{ [16 x i8] }> <{ [16 x i8] c"\9A\99\99\99\99\99\01@\9A\99\99\99\99\99\11@" }>, align 16, !dbg !81
@rust_static_m256d = global <{ [32 x i8] }> <{ [32 x i8] c"\9A\99\99\99\99\99\01@ffffff\0A@\9A\99\99\99\99\99\11@\00\00\00\00\00\00\16@" }>, align 32, !dbg !87
@rust_static_m128i = global <{ [16 x i8] }> <{ [16 x i8] c"-\00\00\00\00\00\00\00 \00\00\00\00\00\00\00" }>, align 16, !dbg !95
@rust_static_m256i = global <{ [32 x i8] }> <{ [32 x i8] c"\0C\00\00\00\00\00\00\00\22\00\00\00\00\00\00\008\00\00\00\00\00\00\00N\00\00\00\00\00\00\00" }>, align 32, !dbg !101
@rust_static_uninit_m128 = global <{ [16 x i8] }> zeroinitializer, align 16, !dbg !109
@rust_static_uninit_m256 = global <{ [32 x i8] }> zeroinitializer, align 32, !dbg !111
@rust_static_uninit_m128d = global <{ [16 x i8] }> zeroinitializer, align 16, !dbg !113
@rust_static_uninit_m256d = global <{ [32 x i8] }> zeroinitializer, align 32, !dbg !115
@rust_static_uninit_m128i = global <{ [16 x i8] }> zeroinitializer, align 16, !dbg !117
@rust_static_uninit_m256i = global <{ [32 x i8] }> zeroinitializer, align 32, !dbg !119

; <&T as core::fmt::Debug>::fmt
; Function Attrs: nonlazybind uwtable
define zeroext i1 @"_ZN42_$LT$$RF$T$u20$as$u20$core..fmt..Debug$GT$3fmt17h06b157fad8db2c76E"(i128** align 8 %self, %"core::fmt::Formatter"* align 8 %f) unnamed_addr #0 !dbg !138 {
start:
  %f.dbg.spill = alloca %"core::fmt::Formatter"*, align 8
  %self.dbg.spill = alloca i128**, align 8
  store i128** %self, i128*** %self.dbg.spill, align 8
  call void @llvm.dbg.declare(metadata i128*** %self.dbg.spill, metadata !199, metadata !DIExpression()), !dbg !203
  store %"core::fmt::Formatter"* %f, %"core::fmt::Formatter"** %f.dbg.spill, align 8
  call void @llvm.dbg.declare(metadata %"core::fmt::Formatter"** %f.dbg.spill, metadata !200, metadata !DIExpression()), !dbg !204
  %_6 = load i128*, i128** %self, align 8, !dbg !205, !nonnull !14, !align !206, !noundef !14
; call core::fmt::num::<impl core::fmt::Debug for u128>::fmt
  %0 = call zeroext i1 @"_ZN4core3fmt3num51_$LT$impl$u20$core..fmt..Debug$u20$for$u20$u128$GT$3fmt17h6880ec86e4807939E"(i128* align 8 %_6, %"core::fmt::Formatter"* align 8 %f), !dbg !207
  br label %bb1, !dbg !207

bb1:                                              ; preds = %start
  ret i1 %0, !dbg !208
}

; <&T as core::fmt::Debug>::fmt
; Function Attrs: nonlazybind uwtable
define zeroext i1 @"_ZN42_$LT$$RF$T$u20$as$u20$core..fmt..Debug$GT$3fmt17h46b8b7755cf246d4E"(i64** align 8 %self, %"core::fmt::Formatter"* align 8 %f) unnamed_addr #0 !dbg !209 {
start:
  %f.dbg.spill = alloca %"core::fmt::Formatter"*, align 8
  %self.dbg.spill = alloca i64**, align 8
  store i64** %self, i64*** %self.dbg.spill, align 8
  call void @llvm.dbg.declare(metadata i64*** %self.dbg.spill, metadata !214, metadata !DIExpression()), !dbg !218
  store %"core::fmt::Formatter"* %f, %"core::fmt::Formatter"** %f.dbg.spill, align 8
  call void @llvm.dbg.declare(metadata %"core::fmt::Formatter"** %f.dbg.spill, metadata !215, metadata !DIExpression()), !dbg !219
  %_6 = load i64*, i64** %self, align 8, !dbg !220, !nonnull !14, !align !206, !noundef !14
; call core::fmt::num::<impl core::fmt::Debug for i64>::fmt
  %0 = call zeroext i1 @"_ZN4core3fmt3num50_$LT$impl$u20$core..fmt..Debug$u20$for$u20$i64$GT$3fmt17h8156d69d464ddc09E"(i64* align 8 %_6, %"core::fmt::Formatter"* align 8 %f), !dbg !221
  br label %bb1, !dbg !221

bb1:                                              ; preds = %start
  ret i1 %0, !dbg !222
}

; <&T as core::fmt::Debug>::fmt
; Function Attrs: nonlazybind uwtable
define zeroext i1 @"_ZN42_$LT$$RF$T$u20$as$u20$core..fmt..Debug$GT$3fmt17h58c923d00a268bebE"(float** align 8 %self, %"core::fmt::Formatter"* align 8 %f) unnamed_addr #0 !dbg !223 {
start:
  %f.dbg.spill = alloca %"core::fmt::Formatter"*, align 8
  %self.dbg.spill = alloca float**, align 8
  store float** %self, float*** %self.dbg.spill, align 8
  call void @llvm.dbg.declare(metadata float*** %self.dbg.spill, metadata !228, metadata !DIExpression()), !dbg !232
  store %"core::fmt::Formatter"* %f, %"core::fmt::Formatter"** %f.dbg.spill, align 8
  call void @llvm.dbg.declare(metadata %"core::fmt::Formatter"** %f.dbg.spill, metadata !229, metadata !DIExpression()), !dbg !233
  %_6 = load float*, float** %self, align 8, !dbg !234, !nonnull !14, !align !235, !noundef !14
; call core::fmt::float::<impl core::fmt::Debug for f32>::fmt
  %0 = call zeroext i1 @"_ZN4core3fmt5float50_$LT$impl$u20$core..fmt..Debug$u20$for$u20$f32$GT$3fmt17h53df062cf1414aedE"(float* align 4 %_6, %"core::fmt::Formatter"* align 8 %f), !dbg !236
  br label %bb1, !dbg !236

bb1:                                              ; preds = %start
  ret i1 %0, !dbg !237
}

; <&T as core::fmt::Debug>::fmt
; Function Attrs: nonlazybind uwtable
define zeroext i1 @"_ZN42_$LT$$RF$T$u20$as$u20$core..fmt..Debug$GT$3fmt17h6ebfe055a148e83fE"(double** align 8 %self, %"core::fmt::Formatter"* align 8 %f) unnamed_addr #0 !dbg !238 {
start:
  %f.dbg.spill = alloca %"core::fmt::Formatter"*, align 8
  %self.dbg.spill = alloca double**, align 8
  store double** %self, double*** %self.dbg.spill, align 8
  call void @llvm.dbg.declare(metadata double*** %self.dbg.spill, metadata !243, metadata !DIExpression()), !dbg !247
  store %"core::fmt::Formatter"* %f, %"core::fmt::Formatter"** %f.dbg.spill, align 8
  call void @llvm.dbg.declare(metadata %"core::fmt::Formatter"** %f.dbg.spill, metadata !244, metadata !DIExpression()), !dbg !248
  %_6 = load double*, double** %self, align 8, !dbg !249, !nonnull !14, !align !206, !noundef !14
; call core::fmt::float::<impl core::fmt::Debug for f64>::fmt
  %0 = call zeroext i1 @"_ZN4core3fmt5float50_$LT$impl$u20$core..fmt..Debug$u20$for$u20$f64$GT$3fmt17hd598d3675624ef64E"(double* align 8 %_6, %"core::fmt::Formatter"* align 8 %f), !dbg !250
  br label %bb1, !dbg !250

bb1:                                              ; preds = %start
  ret i1 %0, !dbg !251
}

; <&T as core::fmt::Display>::fmt
; Function Attrs: nonlazybind uwtable
define zeroext i1 @"_ZN44_$LT$$RF$T$u20$as$u20$core..fmt..Display$GT$3fmt17h79000859ac9be2d0E"({ [0 x i8]*, i64 }* align 8 %self, %"core::fmt::Formatter"* align 8 %f) unnamed_addr #0 !dbg !252 {
start:
  %f.dbg.spill = alloca %"core::fmt::Formatter"*, align 8
  %self.dbg.spill = alloca { [0 x i8]*, i64 }*, align 8
  store { [0 x i8]*, i64 }* %self, { [0 x i8]*, i64 }** %self.dbg.spill, align 8
  call void @llvm.dbg.declare(metadata { [0 x i8]*, i64 }** %self.dbg.spill, metadata !258, metadata !DIExpression()), !dbg !262
  store %"core::fmt::Formatter"* %f, %"core::fmt::Formatter"** %f.dbg.spill, align 8
  call void @llvm.dbg.declare(metadata %"core::fmt::Formatter"** %f.dbg.spill, metadata !259, metadata !DIExpression()), !dbg !263
  %0 = getelementptr inbounds { [0 x i8]*, i64 }, { [0 x i8]*, i64 }* %self, i32 0, i32 0, !dbg !264
  %_6.0 = load [0 x i8]*, [0 x i8]** %0, align 8, !dbg !264, !nonnull !14, !align !265, !noundef !14
  %1 = getelementptr inbounds { [0 x i8]*, i64 }, { [0 x i8]*, i64 }* %self, i32 0, i32 1, !dbg !264
  %_6.1 = load i64, i64* %1, align 8, !dbg !264
; call <str as core::fmt::Display>::fmt
  %2 = call zeroext i1 @"_ZN42_$LT$str$u20$as$u20$core..fmt..Display$GT$3fmt17hde81f4d22eef4d42E"([0 x i8]* align 1 %_6.0, i64 %_6.1, %"core::fmt::Formatter"* align 8 %f), !dbg !266
  br label %bb1, !dbg !266

bb1:                                              ; preds = %start
  ret i1 %2, !dbg !267
}

; core::cmp::impls::<impl core::cmp::PartialEq for f32>::ne
; Function Attrs: inlinehint nonlazybind uwtable
define internal zeroext i1 @"_ZN4core3cmp5impls54_$LT$impl$u20$core..cmp..PartialEq$u20$for$u20$f32$GT$2ne17hea15636ecbfb2d41E"(float* align 4 %self, float* align 4 %other) unnamed_addr #1 !dbg !268 {
start:
  %other.dbg.spill = alloca float*, align 8
  %self.dbg.spill = alloca float*, align 8
  store float* %self, float** %self.dbg.spill, align 8
  call void @llvm.dbg.declare(metadata float** %self.dbg.spill, metadata !277, metadata !DIExpression()), !dbg !279
  store float* %other, float** %other.dbg.spill, align 8
  call void @llvm.dbg.declare(metadata float** %other.dbg.spill, metadata !278, metadata !DIExpression()), !dbg !280
  %_3 = load float, float* %self, align 4, !dbg !281
  %_4 = load float, float* %other, align 4, !dbg !282
  %0 = fcmp une float %_3, %_4, !dbg !281
  ret i1 %0, !dbg !283
}

; core::cmp::impls::<impl core::cmp::PartialEq for f64>::ne
; Function Attrs: inlinehint nonlazybind uwtable
define internal zeroext i1 @"_ZN4core3cmp5impls54_$LT$impl$u20$core..cmp..PartialEq$u20$for$u20$f64$GT$2ne17h9f2c8e84b758be43E"(double* align 8 %self, double* align 8 %other) unnamed_addr #1 !dbg !284 {
start:
  %other.dbg.spill = alloca double*, align 8
  %self.dbg.spill = alloca double*, align 8
  store double* %self, double** %self.dbg.spill, align 8
  call void @llvm.dbg.declare(metadata double** %self.dbg.spill, metadata !289, metadata !DIExpression()), !dbg !291
  store double* %other, double** %other.dbg.spill, align 8
  call void @llvm.dbg.declare(metadata double** %other.dbg.spill, metadata !290, metadata !DIExpression()), !dbg !292
  %_3 = load double, double* %self, align 8, !dbg !293
  %_4 = load double, double* %other, align 8, !dbg !294
  %0 = fcmp une double %_3, %_4, !dbg !293
  ret i1 %0, !dbg !295
}

; core::cmp::impls::<impl core::cmp::PartialEq for i64>::ne
; Function Attrs: inlinehint nonlazybind uwtable
define internal zeroext i1 @"_ZN4core3cmp5impls54_$LT$impl$u20$core..cmp..PartialEq$u20$for$u20$i64$GT$2ne17h20ae9c25332afb02E"(i64* align 8 %self, i64* align 8 %other) unnamed_addr #1 !dbg !296 {
start:
  %other.dbg.spill = alloca i64*, align 8
  %self.dbg.spill = alloca i64*, align 8
  store i64* %self, i64** %self.dbg.spill, align 8
  call void @llvm.dbg.declare(metadata i64** %self.dbg.spill, metadata !301, metadata !DIExpression()), !dbg !303
  store i64* %other, i64** %other.dbg.spill, align 8
  call void @llvm.dbg.declare(metadata i64** %other.dbg.spill, metadata !302, metadata !DIExpression()), !dbg !304
  %_3 = load i64, i64* %self, align 8, !dbg !305
  %_4 = load i64, i64* %other, align 8, !dbg !306
  %0 = icmp ne i64 %_3, %_4, !dbg !305
  ret i1 %0, !dbg !307
}

; core::cmp::impls::<impl core::cmp::PartialEq for u128>::ne
; Function Attrs: inlinehint nonlazybind uwtable
define internal zeroext i1 @"_ZN4core3cmp5impls55_$LT$impl$u20$core..cmp..PartialEq$u20$for$u20$u128$GT$2ne17hea11bfc600ff2ff7E"(i128* align 8 %self, i128* align 8 %other) unnamed_addr #1 !dbg !308 {
start:
  %other.dbg.spill = alloca i128*, align 8
  %self.dbg.spill = alloca i128*, align 8
  store i128* %self, i128** %self.dbg.spill, align 8
  call void @llvm.dbg.declare(metadata i128** %self.dbg.spill, metadata !313, metadata !DIExpression()), !dbg !315
  store i128* %other, i128** %other.dbg.spill, align 8
  call void @llvm.dbg.declare(metadata i128** %other.dbg.spill, metadata !314, metadata !DIExpression()), !dbg !316
  %_3 = load i128, i128* %self, align 8, !dbg !317
  %_4 = load i128, i128* %other, align 8, !dbg !318
  %0 = icmp ne i128 %_3, %_4, !dbg !317
  ret i1 %0, !dbg !319
}

; core::fmt::ArgumentV1::new_display
; Function Attrs: inlinehint nonlazybind uwtable
define { i8*, i64* } @_ZN4core3fmt10ArgumentV111new_display17h7bc58b1c67ca01dbE({ [0 x i8]*, i64 }* align 8 %x) unnamed_addr #1 !dbg !320 {
start:
  %0 = alloca %"core::fmt::Opaque"*, align 8
  %1 = alloca i1 (%"core::fmt::Opaque"*, %"core::fmt::Formatter"*)*, align 8
  %f.dbg.spill = alloca i1 ({ [0 x i8]*, i64 }*, %"core::fmt::Formatter"*)*, align 8
  %x.dbg.spill1 = alloca { [0 x i8]*, i64 }*, align 8
  %x.dbg.spill = alloca { [0 x i8]*, i64 }*, align 8
  %2 = alloca { i8*, i64* }, align 8
  store { [0 x i8]*, i64 }* %x, { [0 x i8]*, i64 }** %x.dbg.spill, align 8
  call void @llvm.dbg.declare(metadata { [0 x i8]*, i64 }** %x.dbg.spill, metadata !334, metadata !DIExpression()), !dbg !337
  store { [0 x i8]*, i64 }* %x, { [0 x i8]*, i64 }** %x.dbg.spill1, align 8, !dbg !338
  call void @llvm.dbg.declare(metadata { [0 x i8]*, i64 }** %x.dbg.spill1, metadata !339, metadata !DIExpression()), !dbg !346
  store i1 ({ [0 x i8]*, i64 }*, %"core::fmt::Formatter"*)* @"_ZN44_$LT$$RF$T$u20$as$u20$core..fmt..Display$GT$3fmt17h79000859ac9be2d0E", i1 ({ [0 x i8]*, i64 }*, %"core::fmt::Formatter"*)** %f.dbg.spill, align 8, !dbg !348
  call void @llvm.dbg.declare(metadata i1 ({ [0 x i8]*, i64 }*, %"core::fmt::Formatter"*)** %f.dbg.spill, metadata !345, metadata !DIExpression()), !dbg !346
  store i1 (%"core::fmt::Opaque"*, %"core::fmt::Formatter"*)* bitcast (i1 ({ [0 x i8]*, i64 }*, %"core::fmt::Formatter"*)* @"_ZN44_$LT$$RF$T$u20$as$u20$core..fmt..Display$GT$3fmt17h79000859ac9be2d0E" to i1 (%"core::fmt::Opaque"*, %"core::fmt::Formatter"*)*), i1 (%"core::fmt::Opaque"*, %"core::fmt::Formatter"*)** %1, align 8, !dbg !346
  %_4 = load i1 (%"core::fmt::Opaque"*, %"core::fmt::Formatter"*)*, i1 (%"core::fmt::Opaque"*, %"core::fmt::Formatter"*)** %1, align 8, !dbg !346, !nonnull !14, !noundef !14
  br label %bb1, !dbg !346

bb1:                                              ; preds = %start
  %3 = bitcast { [0 x i8]*, i64 }* %x to %"core::fmt::Opaque"*, !dbg !346
  store %"core::fmt::Opaque"* %3, %"core::fmt::Opaque"** %0, align 8, !dbg !346
  %_6 = load %"core::fmt::Opaque"*, %"core::fmt::Opaque"** %0, align 8, !dbg !346, !nonnull !14, !align !265, !noundef !14
  br label %bb2, !dbg !346

bb2:                                              ; preds = %bb1
  %4 = bitcast { i8*, i64* }* %2 to %"core::fmt::Opaque"**, !dbg !346
  store %"core::fmt::Opaque"* %_6, %"core::fmt::Opaque"** %4, align 8, !dbg !346
  %5 = getelementptr inbounds { i8*, i64* }, { i8*, i64* }* %2, i32 0, i32 1, !dbg !346
  %6 = bitcast i64** %5 to i1 (%"core::fmt::Opaque"*, %"core::fmt::Formatter"*)**, !dbg !346
  store i1 (%"core::fmt::Opaque"*, %"core::fmt::Formatter"*)* %_4, i1 (%"core::fmt::Opaque"*, %"core::fmt::Formatter"*)** %6, align 8, !dbg !346
  %7 = getelementptr inbounds { i8*, i64* }, { i8*, i64* }* %2, i32 0, i32 0, !dbg !349
  %8 = load i8*, i8** %7, align 8, !dbg !349, !nonnull !14, !align !265, !noundef !14
  %9 = getelementptr inbounds { i8*, i64* }, { i8*, i64* }* %2, i32 0, i32 1, !dbg !349
  %10 = load i64*, i64** %9, align 8, !dbg !349, !nonnull !14, !noundef !14
  %11 = insertvalue { i8*, i64* } undef, i8* %8, 0, !dbg !349
  %12 = insertvalue { i8*, i64* } %11, i64* %10, 1, !dbg !349
  ret { i8*, i64* } %12, !dbg !349
}

; core::fmt::ArgumentV1::new_debug
; Function Attrs: inlinehint nonlazybind uwtable
define { i8*, i64* } @_ZN4core3fmt10ArgumentV19new_debug17h05172bf50805cfe3E({ i64, i64, i64, i64 }* align 8 %x) unnamed_addr #1 !dbg !350 {
start:
  %0 = alloca %"core::fmt::Opaque"*, align 8
  %1 = alloca i1 (%"core::fmt::Opaque"*, %"core::fmt::Formatter"*)*, align 8
  %f.dbg.spill = alloca i1 ({ i64, i64, i64, i64 }*, %"core::fmt::Formatter"*)*, align 8
  %x.dbg.spill1 = alloca { i64, i64, i64, i64 }*, align 8
  %x.dbg.spill = alloca { i64, i64, i64, i64 }*, align 8
  %2 = alloca { i8*, i64* }, align 8
  store { i64, i64, i64, i64 }* %x, { i64, i64, i64, i64 }** %x.dbg.spill, align 8
  call void @llvm.dbg.declare(metadata { i64, i64, i64, i64 }** %x.dbg.spill, metadata !361, metadata !DIExpression()), !dbg !364
  store { i64, i64, i64, i64 }* %x, { i64, i64, i64, i64 }** %x.dbg.spill1, align 8, !dbg !365
  call void @llvm.dbg.declare(metadata { i64, i64, i64, i64 }** %x.dbg.spill1, metadata !366, metadata !DIExpression()), !dbg !375
  store i1 ({ i64, i64, i64, i64 }*, %"core::fmt::Formatter"*)* @"_ZN58_$LT$$LP$W$C$V$C$U$C$T$RP$$u20$as$u20$core..fmt..Debug$GT$3fmt17h52e973b509b82ad6E", i1 ({ i64, i64, i64, i64 }*, %"core::fmt::Formatter"*)** %f.dbg.spill, align 8, !dbg !377
  call void @llvm.dbg.declare(metadata i1 ({ i64, i64, i64, i64 }*, %"core::fmt::Formatter"*)** %f.dbg.spill, metadata !374, metadata !DIExpression()), !dbg !375
  store i1 (%"core::fmt::Opaque"*, %"core::fmt::Formatter"*)* bitcast (i1 ({ i64, i64, i64, i64 }*, %"core::fmt::Formatter"*)* @"_ZN58_$LT$$LP$W$C$V$C$U$C$T$RP$$u20$as$u20$core..fmt..Debug$GT$3fmt17h52e973b509b82ad6E" to i1 (%"core::fmt::Opaque"*, %"core::fmt::Formatter"*)*), i1 (%"core::fmt::Opaque"*, %"core::fmt::Formatter"*)** %1, align 8, !dbg !375
  %_4 = load i1 (%"core::fmt::Opaque"*, %"core::fmt::Formatter"*)*, i1 (%"core::fmt::Opaque"*, %"core::fmt::Formatter"*)** %1, align 8, !dbg !375, !nonnull !14, !noundef !14
  br label %bb1, !dbg !375

bb1:                                              ; preds = %start
  %3 = bitcast { i64, i64, i64, i64 }* %x to %"core::fmt::Opaque"*, !dbg !375
  store %"core::fmt::Opaque"* %3, %"core::fmt::Opaque"** %0, align 8, !dbg !375
  %_6 = load %"core::fmt::Opaque"*, %"core::fmt::Opaque"** %0, align 8, !dbg !375, !nonnull !14, !align !265, !noundef !14
  br label %bb2, !dbg !375

bb2:                                              ; preds = %bb1
  %4 = bitcast { i8*, i64* }* %2 to %"core::fmt::Opaque"**, !dbg !375
  store %"core::fmt::Opaque"* %_6, %"core::fmt::Opaque"** %4, align 8, !dbg !375
  %5 = getelementptr inbounds { i8*, i64* }, { i8*, i64* }* %2, i32 0, i32 1, !dbg !375
  %6 = bitcast i64** %5 to i1 (%"core::fmt::Opaque"*, %"core::fmt::Formatter"*)**, !dbg !375
  store i1 (%"core::fmt::Opaque"*, %"core::fmt::Formatter"*)* %_4, i1 (%"core::fmt::Opaque"*, %"core::fmt::Formatter"*)** %6, align 8, !dbg !375
  %7 = getelementptr inbounds { i8*, i64* }, { i8*, i64* }* %2, i32 0, i32 0, !dbg !378
  %8 = load i8*, i8** %7, align 8, !dbg !378, !nonnull !14, !align !265, !noundef !14
  %9 = getelementptr inbounds { i8*, i64* }, { i8*, i64* }* %2, i32 0, i32 1, !dbg !378
  %10 = load i64*, i64** %9, align 8, !dbg !378, !nonnull !14, !noundef !14
  %11 = insertvalue { i8*, i64* } undef, i8* %8, 0, !dbg !378
  %12 = insertvalue { i8*, i64* } %11, i64* %10, 1, !dbg !378
  ret { i8*, i64* } %12, !dbg !378
}

; core::fmt::ArgumentV1::new_debug
; Function Attrs: inlinehint nonlazybind uwtable
define { i8*, i64* } @_ZN4core3fmt10ArgumentV19new_debug17h0e3129153508b829E({ double, double }* align 8 %x) unnamed_addr #1 !dbg !379 {
start:
  %0 = alloca %"core::fmt::Opaque"*, align 8
  %1 = alloca i1 (%"core::fmt::Opaque"*, %"core::fmt::Formatter"*)*, align 8
  %f.dbg.spill = alloca i1 ({ double, double }*, %"core::fmt::Formatter"*)*, align 8
  %x.dbg.spill1 = alloca { double, double }*, align 8
  %x.dbg.spill = alloca { double, double }*, align 8
  %2 = alloca { i8*, i64* }, align 8
  store { double, double }* %x, { double, double }** %x.dbg.spill, align 8
  call void @llvm.dbg.declare(metadata { double, double }** %x.dbg.spill, metadata !388, metadata !DIExpression()), !dbg !391
  store { double, double }* %x, { double, double }** %x.dbg.spill1, align 8, !dbg !392
  call void @llvm.dbg.declare(metadata { double, double }** %x.dbg.spill1, metadata !393, metadata !DIExpression()), !dbg !402
  store i1 ({ double, double }*, %"core::fmt::Formatter"*)* @"_ZN50_$LT$$LP$U$C$T$RP$$u20$as$u20$core..fmt..Debug$GT$3fmt17h3de6d990d0d77ef1E", i1 ({ double, double }*, %"core::fmt::Formatter"*)** %f.dbg.spill, align 8, !dbg !404
  call void @llvm.dbg.declare(metadata i1 ({ double, double }*, %"core::fmt::Formatter"*)** %f.dbg.spill, metadata !401, metadata !DIExpression()), !dbg !402
  store i1 (%"core::fmt::Opaque"*, %"core::fmt::Formatter"*)* bitcast (i1 ({ double, double }*, %"core::fmt::Formatter"*)* @"_ZN50_$LT$$LP$U$C$T$RP$$u20$as$u20$core..fmt..Debug$GT$3fmt17h3de6d990d0d77ef1E" to i1 (%"core::fmt::Opaque"*, %"core::fmt::Formatter"*)*), i1 (%"core::fmt::Opaque"*, %"core::fmt::Formatter"*)** %1, align 8, !dbg !402
  %_4 = load i1 (%"core::fmt::Opaque"*, %"core::fmt::Formatter"*)*, i1 (%"core::fmt::Opaque"*, %"core::fmt::Formatter"*)** %1, align 8, !dbg !402, !nonnull !14, !noundef !14
  br label %bb1, !dbg !402

bb1:                                              ; preds = %start
  %3 = bitcast { double, double }* %x to %"core::fmt::Opaque"*, !dbg !402
  store %"core::fmt::Opaque"* %3, %"core::fmt::Opaque"** %0, align 8, !dbg !402
  %_6 = load %"core::fmt::Opaque"*, %"core::fmt::Opaque"** %0, align 8, !dbg !402, !nonnull !14, !align !265, !noundef !14
  br label %bb2, !dbg !402

bb2:                                              ; preds = %bb1
  %4 = bitcast { i8*, i64* }* %2 to %"core::fmt::Opaque"**, !dbg !402
  store %"core::fmt::Opaque"* %_6, %"core::fmt::Opaque"** %4, align 8, !dbg !402
  %5 = getelementptr inbounds { i8*, i64* }, { i8*, i64* }* %2, i32 0, i32 1, !dbg !402
  %6 = bitcast i64** %5 to i1 (%"core::fmt::Opaque"*, %"core::fmt::Formatter"*)**, !dbg !402
  store i1 (%"core::fmt::Opaque"*, %"core::fmt::Formatter"*)* %_4, i1 (%"core::fmt::Opaque"*, %"core::fmt::Formatter"*)** %6, align 8, !dbg !402
  %7 = getelementptr inbounds { i8*, i64* }, { i8*, i64* }* %2, i32 0, i32 0, !dbg !405
  %8 = load i8*, i8** %7, align 8, !dbg !405, !nonnull !14, !align !265, !noundef !14
  %9 = getelementptr inbounds { i8*, i64* }, { i8*, i64* }* %2, i32 0, i32 1, !dbg !405
  %10 = load i64*, i64** %9, align 8, !dbg !405, !nonnull !14, !noundef !14
  %11 = insertvalue { i8*, i64* } undef, i8* %8, 0, !dbg !405
  %12 = insertvalue { i8*, i64* } %11, i64* %10, 1, !dbg !405
  ret { i8*, i64* } %12, !dbg !405
}

; core::fmt::ArgumentV1::new_debug
; Function Attrs: inlinehint nonlazybind uwtable
define { i8*, i64* } @_ZN4core3fmt10ArgumentV19new_debug17h1687d6d16f1bf525E({ i64, i64 }* align 8 %x) unnamed_addr #1 !dbg !406 {
start:
  %0 = alloca %"core::fmt::Opaque"*, align 8
  %1 = alloca i1 (%"core::fmt::Opaque"*, %"core::fmt::Formatter"*)*, align 8
  %f.dbg.spill = alloca i1 ({ i64, i64 }*, %"core::fmt::Formatter"*)*, align 8
  %x.dbg.spill1 = alloca { i64, i64 }*, align 8
  %x.dbg.spill = alloca { i64, i64 }*, align 8
  %2 = alloca { i8*, i64* }, align 8
  store { i64, i64 }* %x, { i64, i64 }** %x.dbg.spill, align 8
  call void @llvm.dbg.declare(metadata { i64, i64 }** %x.dbg.spill, metadata !415, metadata !DIExpression()), !dbg !418
  store { i64, i64 }* %x, { i64, i64 }** %x.dbg.spill1, align 8, !dbg !419
  call void @llvm.dbg.declare(metadata { i64, i64 }** %x.dbg.spill1, metadata !420, metadata !DIExpression()), !dbg !429
  store i1 ({ i64, i64 }*, %"core::fmt::Formatter"*)* @"_ZN50_$LT$$LP$U$C$T$RP$$u20$as$u20$core..fmt..Debug$GT$3fmt17h4d0a56fe0d73bf15E", i1 ({ i64, i64 }*, %"core::fmt::Formatter"*)** %f.dbg.spill, align 8, !dbg !431
  call void @llvm.dbg.declare(metadata i1 ({ i64, i64 }*, %"core::fmt::Formatter"*)** %f.dbg.spill, metadata !428, metadata !DIExpression()), !dbg !429
  store i1 (%"core::fmt::Opaque"*, %"core::fmt::Formatter"*)* bitcast (i1 ({ i64, i64 }*, %"core::fmt::Formatter"*)* @"_ZN50_$LT$$LP$U$C$T$RP$$u20$as$u20$core..fmt..Debug$GT$3fmt17h4d0a56fe0d73bf15E" to i1 (%"core::fmt::Opaque"*, %"core::fmt::Formatter"*)*), i1 (%"core::fmt::Opaque"*, %"core::fmt::Formatter"*)** %1, align 8, !dbg !429
  %_4 = load i1 (%"core::fmt::Opaque"*, %"core::fmt::Formatter"*)*, i1 (%"core::fmt::Opaque"*, %"core::fmt::Formatter"*)** %1, align 8, !dbg !429, !nonnull !14, !noundef !14
  br label %bb1, !dbg !429

bb1:                                              ; preds = %start
  %3 = bitcast { i64, i64 }* %x to %"core::fmt::Opaque"*, !dbg !429
  store %"core::fmt::Opaque"* %3, %"core::fmt::Opaque"** %0, align 8, !dbg !429
  %_6 = load %"core::fmt::Opaque"*, %"core::fmt::Opaque"** %0, align 8, !dbg !429, !nonnull !14, !align !265, !noundef !14
  br label %bb2, !dbg !429

bb2:                                              ; preds = %bb1
  %4 = bitcast { i8*, i64* }* %2 to %"core::fmt::Opaque"**, !dbg !429
  store %"core::fmt::Opaque"* %_6, %"core::fmt::Opaque"** %4, align 8, !dbg !429
  %5 = getelementptr inbounds { i8*, i64* }, { i8*, i64* }* %2, i32 0, i32 1, !dbg !429
  %6 = bitcast i64** %5 to i1 (%"core::fmt::Opaque"*, %"core::fmt::Formatter"*)**, !dbg !429
  store i1 (%"core::fmt::Opaque"*, %"core::fmt::Formatter"*)* %_4, i1 (%"core::fmt::Opaque"*, %"core::fmt::Formatter"*)** %6, align 8, !dbg !429
  %7 = getelementptr inbounds { i8*, i64* }, { i8*, i64* }* %2, i32 0, i32 0, !dbg !432
  %8 = load i8*, i8** %7, align 8, !dbg !432, !nonnull !14, !align !265, !noundef !14
  %9 = getelementptr inbounds { i8*, i64* }, { i8*, i64* }* %2, i32 0, i32 1, !dbg !432
  %10 = load i64*, i64** %9, align 8, !dbg !432, !nonnull !14, !noundef !14
  %11 = insertvalue { i8*, i64* } undef, i8* %8, 0, !dbg !432
  %12 = insertvalue { i8*, i64* } %11, i64* %10, 1, !dbg !432
  ret { i8*, i64* } %12, !dbg !432
}

; core::fmt::ArgumentV1::new_debug
; Function Attrs: inlinehint nonlazybind uwtable
define { i8*, i64* } @_ZN4core3fmt10ArgumentV19new_debug17h5529c044314b5e4dE({ double, double, double, double }* align 8 %x) unnamed_addr #1 !dbg !433 {
start:
  %0 = alloca %"core::fmt::Opaque"*, align 8
  %1 = alloca i1 (%"core::fmt::Opaque"*, %"core::fmt::Formatter"*)*, align 8
  %f.dbg.spill = alloca i1 ({ double, double, double, double }*, %"core::fmt::Formatter"*)*, align 8
  %x.dbg.spill1 = alloca { double, double, double, double }*, align 8
  %x.dbg.spill = alloca { double, double, double, double }*, align 8
  %2 = alloca { i8*, i64* }, align 8
  store { double, double, double, double }* %x, { double, double, double, double }** %x.dbg.spill, align 8
  call void @llvm.dbg.declare(metadata { double, double, double, double }** %x.dbg.spill, metadata !444, metadata !DIExpression()), !dbg !447
  store { double, double, double, double }* %x, { double, double, double, double }** %x.dbg.spill1, align 8, !dbg !448
  call void @llvm.dbg.declare(metadata { double, double, double, double }** %x.dbg.spill1, metadata !449, metadata !DIExpression()), !dbg !458
  store i1 ({ double, double, double, double }*, %"core::fmt::Formatter"*)* @"_ZN58_$LT$$LP$W$C$V$C$U$C$T$RP$$u20$as$u20$core..fmt..Debug$GT$3fmt17hab6a51b2fd531484E", i1 ({ double, double, double, double }*, %"core::fmt::Formatter"*)** %f.dbg.spill, align 8, !dbg !460
  call void @llvm.dbg.declare(metadata i1 ({ double, double, double, double }*, %"core::fmt::Formatter"*)** %f.dbg.spill, metadata !457, metadata !DIExpression()), !dbg !458
  store i1 (%"core::fmt::Opaque"*, %"core::fmt::Formatter"*)* bitcast (i1 ({ double, double, double, double }*, %"core::fmt::Formatter"*)* @"_ZN58_$LT$$LP$W$C$V$C$U$C$T$RP$$u20$as$u20$core..fmt..Debug$GT$3fmt17hab6a51b2fd531484E" to i1 (%"core::fmt::Opaque"*, %"core::fmt::Formatter"*)*), i1 (%"core::fmt::Opaque"*, %"core::fmt::Formatter"*)** %1, align 8, !dbg !458
  %_4 = load i1 (%"core::fmt::Opaque"*, %"core::fmt::Formatter"*)*, i1 (%"core::fmt::Opaque"*, %"core::fmt::Formatter"*)** %1, align 8, !dbg !458, !nonnull !14, !noundef !14
  br label %bb1, !dbg !458

bb1:                                              ; preds = %start
  %3 = bitcast { double, double, double, double }* %x to %"core::fmt::Opaque"*, !dbg !458
  store %"core::fmt::Opaque"* %3, %"core::fmt::Opaque"** %0, align 8, !dbg !458
  %_6 = load %"core::fmt::Opaque"*, %"core::fmt::Opaque"** %0, align 8, !dbg !458, !nonnull !14, !align !265, !noundef !14
  br label %bb2, !dbg !458

bb2:                                              ; preds = %bb1
  %4 = bitcast { i8*, i64* }* %2 to %"core::fmt::Opaque"**, !dbg !458
  store %"core::fmt::Opaque"* %_6, %"core::fmt::Opaque"** %4, align 8, !dbg !458
  %5 = getelementptr inbounds { i8*, i64* }, { i8*, i64* }* %2, i32 0, i32 1, !dbg !458
  %6 = bitcast i64** %5 to i1 (%"core::fmt::Opaque"*, %"core::fmt::Formatter"*)**, !dbg !458
  store i1 (%"core::fmt::Opaque"*, %"core::fmt::Formatter"*)* %_4, i1 (%"core::fmt::Opaque"*, %"core::fmt::Formatter"*)** %6, align 8, !dbg !458
  %7 = getelementptr inbounds { i8*, i64* }, { i8*, i64* }* %2, i32 0, i32 0, !dbg !461
  %8 = load i8*, i8** %7, align 8, !dbg !461, !nonnull !14, !align !265, !noundef !14
  %9 = getelementptr inbounds { i8*, i64* }, { i8*, i64* }* %2, i32 0, i32 1, !dbg !461
  %10 = load i64*, i64** %9, align 8, !dbg !461, !nonnull !14, !noundef !14
  %11 = insertvalue { i8*, i64* } undef, i8* %8, 0, !dbg !461
  %12 = insertvalue { i8*, i64* } %11, i64* %10, 1, !dbg !461
  ret { i8*, i64* } %12, !dbg !461
}

; core::fmt::ArgumentV1::new_debug
; Function Attrs: inlinehint nonlazybind uwtable
define { i8*, i64* } @_ZN4core3fmt10ArgumentV19new_debug17h751e0cafa0113f42E({ float, float, float, float, float, float, float, float }* align 4 %x) unnamed_addr #1 !dbg !462 {
start:
  %0 = alloca %"core::fmt::Opaque"*, align 8
  %1 = alloca i1 (%"core::fmt::Opaque"*, %"core::fmt::Formatter"*)*, align 8
  %f.dbg.spill = alloca i1 ({ float, float, float, float, float, float, float, float }*, %"core::fmt::Formatter"*)*, align 8
  %x.dbg.spill1 = alloca { float, float, float, float, float, float, float, float }*, align 8
  %x.dbg.spill = alloca { float, float, float, float, float, float, float, float }*, align 8
  %2 = alloca { i8*, i64* }, align 8
  store { float, float, float, float, float, float, float, float }* %x, { float, float, float, float, float, float, float, float }** %x.dbg.spill, align 8
  call void @llvm.dbg.declare(metadata { float, float, float, float, float, float, float, float }** %x.dbg.spill, metadata !477, metadata !DIExpression()), !dbg !480
  store { float, float, float, float, float, float, float, float }* %x, { float, float, float, float, float, float, float, float }** %x.dbg.spill1, align 8, !dbg !481
  call void @llvm.dbg.declare(metadata { float, float, float, float, float, float, float, float }** %x.dbg.spill1, metadata !482, metadata !DIExpression()), !dbg !491
  store i1 ({ float, float, float, float, float, float, float, float }*, %"core::fmt::Formatter"*)* @"_ZN74_$LT$$LP$A$C$Z$C$Y$C$X$C$W$C$V$C$U$C$T$RP$$u20$as$u20$core..fmt..Debug$GT$3fmt17he88c39d295cd9eb7E", i1 ({ float, float, float, float, float, float, float, float }*, %"core::fmt::Formatter"*)** %f.dbg.spill, align 8, !dbg !493
  call void @llvm.dbg.declare(metadata i1 ({ float, float, float, float, float, float, float, float }*, %"core::fmt::Formatter"*)** %f.dbg.spill, metadata !490, metadata !DIExpression()), !dbg !491
  store i1 (%"core::fmt::Opaque"*, %"core::fmt::Formatter"*)* bitcast (i1 ({ float, float, float, float, float, float, float, float }*, %"core::fmt::Formatter"*)* @"_ZN74_$LT$$LP$A$C$Z$C$Y$C$X$C$W$C$V$C$U$C$T$RP$$u20$as$u20$core..fmt..Debug$GT$3fmt17he88c39d295cd9eb7E" to i1 (%"core::fmt::Opaque"*, %"core::fmt::Formatter"*)*), i1 (%"core::fmt::Opaque"*, %"core::fmt::Formatter"*)** %1, align 8, !dbg !491
  %_4 = load i1 (%"core::fmt::Opaque"*, %"core::fmt::Formatter"*)*, i1 (%"core::fmt::Opaque"*, %"core::fmt::Formatter"*)** %1, align 8, !dbg !491, !nonnull !14, !noundef !14
  br label %bb1, !dbg !491

bb1:                                              ; preds = %start
  %3 = bitcast { float, float, float, float, float, float, float, float }* %x to %"core::fmt::Opaque"*, !dbg !491
  store %"core::fmt::Opaque"* %3, %"core::fmt::Opaque"** %0, align 8, !dbg !491
  %_6 = load %"core::fmt::Opaque"*, %"core::fmt::Opaque"** %0, align 8, !dbg !491, !nonnull !14, !align !265, !noundef !14
  br label %bb2, !dbg !491

bb2:                                              ; preds = %bb1
  %4 = bitcast { i8*, i64* }* %2 to %"core::fmt::Opaque"**, !dbg !491
  store %"core::fmt::Opaque"* %_6, %"core::fmt::Opaque"** %4, align 8, !dbg !491
  %5 = getelementptr inbounds { i8*, i64* }, { i8*, i64* }* %2, i32 0, i32 1, !dbg !491
  %6 = bitcast i64** %5 to i1 (%"core::fmt::Opaque"*, %"core::fmt::Formatter"*)**, !dbg !491
  store i1 (%"core::fmt::Opaque"*, %"core::fmt::Formatter"*)* %_4, i1 (%"core::fmt::Opaque"*, %"core::fmt::Formatter"*)** %6, align 8, !dbg !491
  %7 = getelementptr inbounds { i8*, i64* }, { i8*, i64* }* %2, i32 0, i32 0, !dbg !494
  %8 = load i8*, i8** %7, align 8, !dbg !494, !nonnull !14, !align !265, !noundef !14
  %9 = getelementptr inbounds { i8*, i64* }, { i8*, i64* }* %2, i32 0, i32 1, !dbg !494
  %10 = load i64*, i64** %9, align 8, !dbg !494, !nonnull !14, !noundef !14
  %11 = insertvalue { i8*, i64* } undef, i8* %8, 0, !dbg !494
  %12 = insertvalue { i8*, i64* } %11, i64* %10, 1, !dbg !494
  ret { i8*, i64* } %12, !dbg !494
}

; core::fmt::ArgumentV1::new_debug
; Function Attrs: inlinehint nonlazybind uwtable
define { i8*, i64* } @_ZN4core3fmt10ArgumentV19new_debug17h7e2350f88654cc5cE({ i128, i128 }* align 8 %x) unnamed_addr #1 !dbg !495 {
start:
  %0 = alloca %"core::fmt::Opaque"*, align 8
  %1 = alloca i1 (%"core::fmt::Opaque"*, %"core::fmt::Formatter"*)*, align 8
  %f.dbg.spill = alloca i1 ({ i128, i128 }*, %"core::fmt::Formatter"*)*, align 8
  %x.dbg.spill1 = alloca { i128, i128 }*, align 8
  %x.dbg.spill = alloca { i128, i128 }*, align 8
  %2 = alloca { i8*, i64* }, align 8
  store { i128, i128 }* %x, { i128, i128 }** %x.dbg.spill, align 8
  call void @llvm.dbg.declare(metadata { i128, i128 }** %x.dbg.spill, metadata !504, metadata !DIExpression()), !dbg !507
  store { i128, i128 }* %x, { i128, i128 }** %x.dbg.spill1, align 8, !dbg !508
  call void @llvm.dbg.declare(metadata { i128, i128 }** %x.dbg.spill1, metadata !509, metadata !DIExpression()), !dbg !518
  store i1 ({ i128, i128 }*, %"core::fmt::Formatter"*)* @"_ZN50_$LT$$LP$U$C$T$RP$$u20$as$u20$core..fmt..Debug$GT$3fmt17hc6541d84befe6f72E", i1 ({ i128, i128 }*, %"core::fmt::Formatter"*)** %f.dbg.spill, align 8, !dbg !520
  call void @llvm.dbg.declare(metadata i1 ({ i128, i128 }*, %"core::fmt::Formatter"*)** %f.dbg.spill, metadata !517, metadata !DIExpression()), !dbg !518
  store i1 (%"core::fmt::Opaque"*, %"core::fmt::Formatter"*)* bitcast (i1 ({ i128, i128 }*, %"core::fmt::Formatter"*)* @"_ZN50_$LT$$LP$U$C$T$RP$$u20$as$u20$core..fmt..Debug$GT$3fmt17hc6541d84befe6f72E" to i1 (%"core::fmt::Opaque"*, %"core::fmt::Formatter"*)*), i1 (%"core::fmt::Opaque"*, %"core::fmt::Formatter"*)** %1, align 8, !dbg !518
  %_4 = load i1 (%"core::fmt::Opaque"*, %"core::fmt::Formatter"*)*, i1 (%"core::fmt::Opaque"*, %"core::fmt::Formatter"*)** %1, align 8, !dbg !518, !nonnull !14, !noundef !14
  br label %bb1, !dbg !518

bb1:                                              ; preds = %start
  %3 = bitcast { i128, i128 }* %x to %"core::fmt::Opaque"*, !dbg !518
  store %"core::fmt::Opaque"* %3, %"core::fmt::Opaque"** %0, align 8, !dbg !518
  %_6 = load %"core::fmt::Opaque"*, %"core::fmt::Opaque"** %0, align 8, !dbg !518, !nonnull !14, !align !265, !noundef !14
  br label %bb2, !dbg !518

bb2:                                              ; preds = %bb1
  %4 = bitcast { i8*, i64* }* %2 to %"core::fmt::Opaque"**, !dbg !518
  store %"core::fmt::Opaque"* %_6, %"core::fmt::Opaque"** %4, align 8, !dbg !518
  %5 = getelementptr inbounds { i8*, i64* }, { i8*, i64* }* %2, i32 0, i32 1, !dbg !518
  %6 = bitcast i64** %5 to i1 (%"core::fmt::Opaque"*, %"core::fmt::Formatter"*)**, !dbg !518
  store i1 (%"core::fmt::Opaque"*, %"core::fmt::Formatter"*)* %_4, i1 (%"core::fmt::Opaque"*, %"core::fmt::Formatter"*)** %6, align 8, !dbg !518
  %7 = getelementptr inbounds { i8*, i64* }, { i8*, i64* }* %2, i32 0, i32 0, !dbg !521
  %8 = load i8*, i8** %7, align 8, !dbg !521, !nonnull !14, !align !265, !noundef !14
  %9 = getelementptr inbounds { i8*, i64* }, { i8*, i64* }* %2, i32 0, i32 1, !dbg !521
  %10 = load i64*, i64** %9, align 8, !dbg !521, !nonnull !14, !noundef !14
  %11 = insertvalue { i8*, i64* } undef, i8* %8, 0, !dbg !521
  %12 = insertvalue { i8*, i64* } %11, i64* %10, 1, !dbg !521
  ret { i8*, i64* } %12, !dbg !521
}

; core::fmt::ArgumentV1::new_debug
; Function Attrs: inlinehint nonlazybind uwtable
define { i8*, i64* } @_ZN4core3fmt10ArgumentV19new_debug17h7e9d6f4ce9875ff4E({ float, float, float, float }* align 4 %x) unnamed_addr #1 !dbg !522 {
start:
  %0 = alloca %"core::fmt::Opaque"*, align 8
  %1 = alloca i1 (%"core::fmt::Opaque"*, %"core::fmt::Formatter"*)*, align 8
  %f.dbg.spill = alloca i1 ({ float, float, float, float }*, %"core::fmt::Formatter"*)*, align 8
  %x.dbg.spill1 = alloca { float, float, float, float }*, align 8
  %x.dbg.spill = alloca { float, float, float, float }*, align 8
  %2 = alloca { i8*, i64* }, align 8
  store { float, float, float, float }* %x, { float, float, float, float }** %x.dbg.spill, align 8
  call void @llvm.dbg.declare(metadata { float, float, float, float }** %x.dbg.spill, metadata !533, metadata !DIExpression()), !dbg !536
  store { float, float, float, float }* %x, { float, float, float, float }** %x.dbg.spill1, align 8, !dbg !537
  call void @llvm.dbg.declare(metadata { float, float, float, float }** %x.dbg.spill1, metadata !538, metadata !DIExpression()), !dbg !547
  store i1 ({ float, float, float, float }*, %"core::fmt::Formatter"*)* @"_ZN58_$LT$$LP$W$C$V$C$U$C$T$RP$$u20$as$u20$core..fmt..Debug$GT$3fmt17hb7b9ad555402fbfaE", i1 ({ float, float, float, float }*, %"core::fmt::Formatter"*)** %f.dbg.spill, align 8, !dbg !549
  call void @llvm.dbg.declare(metadata i1 ({ float, float, float, float }*, %"core::fmt::Formatter"*)** %f.dbg.spill, metadata !546, metadata !DIExpression()), !dbg !547
  store i1 (%"core::fmt::Opaque"*, %"core::fmt::Formatter"*)* bitcast (i1 ({ float, float, float, float }*, %"core::fmt::Formatter"*)* @"_ZN58_$LT$$LP$W$C$V$C$U$C$T$RP$$u20$as$u20$core..fmt..Debug$GT$3fmt17hb7b9ad555402fbfaE" to i1 (%"core::fmt::Opaque"*, %"core::fmt::Formatter"*)*), i1 (%"core::fmt::Opaque"*, %"core::fmt::Formatter"*)** %1, align 8, !dbg !547
  %_4 = load i1 (%"core::fmt::Opaque"*, %"core::fmt::Formatter"*)*, i1 (%"core::fmt::Opaque"*, %"core::fmt::Formatter"*)** %1, align 8, !dbg !547, !nonnull !14, !noundef !14
  br label %bb1, !dbg !547

bb1:                                              ; preds = %start
  %3 = bitcast { float, float, float, float }* %x to %"core::fmt::Opaque"*, !dbg !547
  store %"core::fmt::Opaque"* %3, %"core::fmt::Opaque"** %0, align 8, !dbg !547
  %_6 = load %"core::fmt::Opaque"*, %"core::fmt::Opaque"** %0, align 8, !dbg !547, !nonnull !14, !align !265, !noundef !14
  br label %bb2, !dbg !547

bb2:                                              ; preds = %bb1
  %4 = bitcast { i8*, i64* }* %2 to %"core::fmt::Opaque"**, !dbg !547
  store %"core::fmt::Opaque"* %_6, %"core::fmt::Opaque"** %4, align 8, !dbg !547
  %5 = getelementptr inbounds { i8*, i64* }, { i8*, i64* }* %2, i32 0, i32 1, !dbg !547
  %6 = bitcast i64** %5 to i1 (%"core::fmt::Opaque"*, %"core::fmt::Formatter"*)**, !dbg !547
  store i1 (%"core::fmt::Opaque"*, %"core::fmt::Formatter"*)* %_4, i1 (%"core::fmt::Opaque"*, %"core::fmt::Formatter"*)** %6, align 8, !dbg !547
  %7 = getelementptr inbounds { i8*, i64* }, { i8*, i64* }* %2, i32 0, i32 0, !dbg !550
  %8 = load i8*, i8** %7, align 8, !dbg !550, !nonnull !14, !align !265, !noundef !14
  %9 = getelementptr inbounds { i8*, i64* }, { i8*, i64* }* %2, i32 0, i32 1, !dbg !550
  %10 = load i64*, i64** %9, align 8, !dbg !550, !nonnull !14, !noundef !14
  %11 = insertvalue { i8*, i64* } undef, i8* %8, 0, !dbg !550
  %12 = insertvalue { i8*, i64* } %11, i64* %10, 1, !dbg !550
  ret { i8*, i64* } %12, !dbg !550
}

; core::fmt::ArgumentV1::new_debug
; Function Attrs: inlinehint nonlazybind uwtable
define { i8*, i64* } @_ZN4core3fmt10ArgumentV19new_debug17hbeed54c99c1218dfE(i128* align 8 %x) unnamed_addr #1 !dbg !551 {
start:
  %0 = alloca %"core::fmt::Opaque"*, align 8
  %1 = alloca i1 (%"core::fmt::Opaque"*, %"core::fmt::Formatter"*)*, align 8
  %f.dbg.spill = alloca i1 (i128*, %"core::fmt::Formatter"*)*, align 8
  %x.dbg.spill1 = alloca i128*, align 8
  %x.dbg.spill = alloca i128*, align 8
  %2 = alloca { i8*, i64* }, align 8
  store i128* %x, i128** %x.dbg.spill, align 8
  call void @llvm.dbg.declare(metadata i128** %x.dbg.spill, metadata !555, metadata !DIExpression()), !dbg !556
  store i128* %x, i128** %x.dbg.spill1, align 8, !dbg !557
  call void @llvm.dbg.declare(metadata i128** %x.dbg.spill1, metadata !558, metadata !DIExpression()), !dbg !567
  store i1 (i128*, %"core::fmt::Formatter"*)* @"_ZN4core3fmt3num51_$LT$impl$u20$core..fmt..Debug$u20$for$u20$u128$GT$3fmt17h6880ec86e4807939E", i1 (i128*, %"core::fmt::Formatter"*)** %f.dbg.spill, align 8, !dbg !569
  call void @llvm.dbg.declare(metadata i1 (i128*, %"core::fmt::Formatter"*)** %f.dbg.spill, metadata !566, metadata !DIExpression()), !dbg !567
  store i1 (%"core::fmt::Opaque"*, %"core::fmt::Formatter"*)* bitcast (i1 (i128*, %"core::fmt::Formatter"*)* @"_ZN4core3fmt3num51_$LT$impl$u20$core..fmt..Debug$u20$for$u20$u128$GT$3fmt17h6880ec86e4807939E" to i1 (%"core::fmt::Opaque"*, %"core::fmt::Formatter"*)*), i1 (%"core::fmt::Opaque"*, %"core::fmt::Formatter"*)** %1, align 8, !dbg !567
  %_4 = load i1 (%"core::fmt::Opaque"*, %"core::fmt::Formatter"*)*, i1 (%"core::fmt::Opaque"*, %"core::fmt::Formatter"*)** %1, align 8, !dbg !567, !nonnull !14, !noundef !14
  br label %bb1, !dbg !567

bb1:                                              ; preds = %start
  %3 = bitcast i128* %x to %"core::fmt::Opaque"*, !dbg !567
  store %"core::fmt::Opaque"* %3, %"core::fmt::Opaque"** %0, align 8, !dbg !567
  %_6 = load %"core::fmt::Opaque"*, %"core::fmt::Opaque"** %0, align 8, !dbg !567, !nonnull !14, !align !265, !noundef !14
  br label %bb2, !dbg !567

bb2:                                              ; preds = %bb1
  %4 = bitcast { i8*, i64* }* %2 to %"core::fmt::Opaque"**, !dbg !567
  store %"core::fmt::Opaque"* %_6, %"core::fmt::Opaque"** %4, align 8, !dbg !567
  %5 = getelementptr inbounds { i8*, i64* }, { i8*, i64* }* %2, i32 0, i32 1, !dbg !567
  %6 = bitcast i64** %5 to i1 (%"core::fmt::Opaque"*, %"core::fmt::Formatter"*)**, !dbg !567
  store i1 (%"core::fmt::Opaque"*, %"core::fmt::Formatter"*)* %_4, i1 (%"core::fmt::Opaque"*, %"core::fmt::Formatter"*)** %6, align 8, !dbg !567
  %7 = getelementptr inbounds { i8*, i64* }, { i8*, i64* }* %2, i32 0, i32 0, !dbg !570
  %8 = load i8*, i8** %7, align 8, !dbg !570, !nonnull !14, !align !265, !noundef !14
  %9 = getelementptr inbounds { i8*, i64* }, { i8*, i64* }* %2, i32 0, i32 1, !dbg !570
  %10 = load i64*, i64** %9, align 8, !dbg !570, !nonnull !14, !noundef !14
  %11 = insertvalue { i8*, i64* } undef, i8* %8, 0, !dbg !570
  %12 = insertvalue { i8*, i64* } %11, i64* %10, 1, !dbg !570
  ret { i8*, i64* } %12, !dbg !570
}

; core::fmt::num::<impl core::fmt::Debug for i64>::fmt
; Function Attrs: inlinehint nonlazybind uwtable
define internal zeroext i1 @"_ZN4core3fmt3num50_$LT$impl$u20$core..fmt..Debug$u20$for$u20$i64$GT$3fmt17h8156d69d464ddc09E"(i64* align 8 %self, %"core::fmt::Formatter"* align 8 %f) unnamed_addr #1 !dbg !571 {
start:
  %f.dbg.spill = alloca %"core::fmt::Formatter"*, align 8
  %self.dbg.spill = alloca i64*, align 8
  %0 = alloca i8, align 1
  store i64* %self, i64** %self.dbg.spill, align 8
  call void @llvm.dbg.declare(metadata i64** %self.dbg.spill, metadata !578, metadata !DIExpression()), !dbg !580
  store %"core::fmt::Formatter"* %f, %"core::fmt::Formatter"** %f.dbg.spill, align 8
  call void @llvm.dbg.declare(metadata %"core::fmt::Formatter"** %f.dbg.spill, metadata !579, metadata !DIExpression()), !dbg !581
; call core::fmt::Formatter::debug_lower_hex
  %_3 = call zeroext i1 @_ZN4core3fmt9Formatter15debug_lower_hex17h861f5ddbf758e4f9E(%"core::fmt::Formatter"* align 8 %f), !dbg !582
  br label %bb1, !dbg !582

bb1:                                              ; preds = %start
  br i1 %_3, label %bb2, label %bb4, !dbg !582

bb4:                                              ; preds = %bb1
; call core::fmt::Formatter::debug_upper_hex
  %_7 = call zeroext i1 @_ZN4core3fmt9Formatter15debug_upper_hex17h21ddf2be2e6a0fd5E(%"core::fmt::Formatter"* align 8 %f), !dbg !583
  br label %bb5, !dbg !583

bb2:                                              ; preds = %bb1
; call core::fmt::num::<impl core::fmt::LowerHex for i64>::fmt
  %1 = call zeroext i1 @"_ZN4core3fmt3num53_$LT$impl$u20$core..fmt..LowerHex$u20$for$u20$i64$GT$3fmt17h00f16aa1a3434247E"(i64* align 8 %self, %"core::fmt::Formatter"* align 8 %f), !dbg !584
  %2 = zext i1 %1 to i8, !dbg !584
  store i8 %2, i8* %0, align 1, !dbg !584
  br label %bb3, !dbg !584

bb3:                                              ; preds = %bb2
  br label %bb11, !dbg !585

bb11:                                             ; preds = %bb10, %bb3
  %3 = load i8, i8* %0, align 1, !dbg !586, !range !587, !noundef !14
  %4 = trunc i8 %3 to i1, !dbg !586
  ret i1 %4, !dbg !586

bb5:                                              ; preds = %bb4
  br i1 %_7, label %bb6, label %bb8, !dbg !583

bb8:                                              ; preds = %bb5
; call core::fmt::num::imp::<impl core::fmt::Display for i64>::fmt
  %5 = call zeroext i1 @"_ZN4core3fmt3num3imp52_$LT$impl$u20$core..fmt..Display$u20$for$u20$i64$GT$3fmt17hadc6e0721fb44ba3E"(i64* align 8 %self, %"core::fmt::Formatter"* align 8 %f), !dbg !588
  %6 = zext i1 %5 to i8, !dbg !588
  store i8 %6, i8* %0, align 1, !dbg !588
  br label %bb9, !dbg !588

bb6:                                              ; preds = %bb5
; call core::fmt::num::<impl core::fmt::UpperHex for i64>::fmt
  %7 = call zeroext i1 @"_ZN4core3fmt3num53_$LT$impl$u20$core..fmt..UpperHex$u20$for$u20$i64$GT$3fmt17h633cc137e31b9503E"(i64* align 8 %self, %"core::fmt::Formatter"* align 8 %f), !dbg !589
  %8 = zext i1 %7 to i8, !dbg !589
  store i8 %8, i8* %0, align 1, !dbg !589
  br label %bb7, !dbg !589

bb7:                                              ; preds = %bb6
  br label %bb10, !dbg !590

bb10:                                             ; preds = %bb9, %bb7
  br label %bb11, !dbg !585

bb9:                                              ; preds = %bb8
  br label %bb10, !dbg !590
}

; core::fmt::num::<impl core::fmt::Debug for u128>::fmt
; Function Attrs: inlinehint nonlazybind uwtable
define internal zeroext i1 @"_ZN4core3fmt3num51_$LT$impl$u20$core..fmt..Debug$u20$for$u20$u128$GT$3fmt17h6880ec86e4807939E"(i128* align 8 %self, %"core::fmt::Formatter"* align 8 %f) unnamed_addr #1 !dbg !591 {
start:
  %f.dbg.spill = alloca %"core::fmt::Formatter"*, align 8
  %self.dbg.spill = alloca i128*, align 8
  %0 = alloca i8, align 1
  store i128* %self, i128** %self.dbg.spill, align 8
  call void @llvm.dbg.declare(metadata i128** %self.dbg.spill, metadata !594, metadata !DIExpression()), !dbg !596
  store %"core::fmt::Formatter"* %f, %"core::fmt::Formatter"** %f.dbg.spill, align 8
  call void @llvm.dbg.declare(metadata %"core::fmt::Formatter"** %f.dbg.spill, metadata !595, metadata !DIExpression()), !dbg !597
; call core::fmt::Formatter::debug_lower_hex
  %_3 = call zeroext i1 @_ZN4core3fmt9Formatter15debug_lower_hex17h861f5ddbf758e4f9E(%"core::fmt::Formatter"* align 8 %f), !dbg !598
  br label %bb1, !dbg !598

bb1:                                              ; preds = %start
  br i1 %_3, label %bb2, label %bb4, !dbg !598

bb4:                                              ; preds = %bb1
; call core::fmt::Formatter::debug_upper_hex
  %_7 = call zeroext i1 @_ZN4core3fmt9Formatter15debug_upper_hex17h21ddf2be2e6a0fd5E(%"core::fmt::Formatter"* align 8 %f), !dbg !599
  br label %bb5, !dbg !599

bb2:                                              ; preds = %bb1
; call core::fmt::num::<impl core::fmt::LowerHex for u128>::fmt
  %1 = call zeroext i1 @"_ZN4core3fmt3num54_$LT$impl$u20$core..fmt..LowerHex$u20$for$u20$u128$GT$3fmt17hd340bc2f2b0be7daE"(i128* align 8 %self, %"core::fmt::Formatter"* align 8 %f), !dbg !600
  %2 = zext i1 %1 to i8, !dbg !600
  store i8 %2, i8* %0, align 1, !dbg !600
  br label %bb3, !dbg !600

bb3:                                              ; preds = %bb2
  br label %bb11, !dbg !601

bb11:                                             ; preds = %bb10, %bb3
  %3 = load i8, i8* %0, align 1, !dbg !602, !range !587, !noundef !14
  %4 = trunc i8 %3 to i1, !dbg !602
  ret i1 %4, !dbg !602

bb5:                                              ; preds = %bb4
  br i1 %_7, label %bb6, label %bb8, !dbg !599

bb8:                                              ; preds = %bb5
; call core::fmt::num::<impl core::fmt::Display for u128>::fmt
  %5 = call zeroext i1 @"_ZN4core3fmt3num53_$LT$impl$u20$core..fmt..Display$u20$for$u20$u128$GT$3fmt17h5fb9dbe219016f5aE"(i128* align 8 %self, %"core::fmt::Formatter"* align 8 %f), !dbg !603
  %6 = zext i1 %5 to i8, !dbg !603
  store i8 %6, i8* %0, align 1, !dbg !603
  br label %bb9, !dbg !603

bb6:                                              ; preds = %bb5
; call core::fmt::num::<impl core::fmt::UpperHex for u128>::fmt
  %7 = call zeroext i1 @"_ZN4core3fmt3num54_$LT$impl$u20$core..fmt..UpperHex$u20$for$u20$u128$GT$3fmt17h3b8a702afde007ecE"(i128* align 8 %self, %"core::fmt::Formatter"* align 8 %f), !dbg !604
  %8 = zext i1 %7 to i8, !dbg !604
  store i8 %8, i8* %0, align 1, !dbg !604
  br label %bb7, !dbg !604

bb7:                                              ; preds = %bb6
  br label %bb10, !dbg !605

bb10:                                             ; preds = %bb9, %bb7
  br label %bb11, !dbg !601

bb9:                                              ; preds = %bb8
  br label %bb10, !dbg !605
}

; core::fmt::Arguments::new_v1
; Function Attrs: inlinehint nonlazybind uwtable
define internal void @_ZN4core3fmt9Arguments6new_v117h3da1799ff79867bbE(%"core::fmt::Arguments"* sret(%"core::fmt::Arguments") %0, [0 x { [0 x i8]*, i64 }]* align 8 %pieces.0, i64 %pieces.1, [0 x { i8*, i64* }]* align 8 %args.0, i64 %args.1) unnamed_addr #1 !dbg !606 {
start:
  %args.dbg.spill = alloca { [0 x { i8*, i64* }]*, i64 }, align 8
  %pieces.dbg.spill = alloca { [0 x { [0 x i8]*, i64 }]*, i64 }, align 8
  %_24 = alloca { i64*, i64 }, align 8
  %_16 = alloca %"core::fmt::Arguments", align 8
  %_3 = alloca i8, align 1
  %1 = getelementptr inbounds { [0 x { [0 x i8]*, i64 }]*, i64 }, { [0 x { [0 x i8]*, i64 }]*, i64 }* %pieces.dbg.spill, i32 0, i32 0
  store [0 x { [0 x i8]*, i64 }]* %pieces.0, [0 x { [0 x i8]*, i64 }]** %1, align 8
  %2 = getelementptr inbounds { [0 x { [0 x i8]*, i64 }]*, i64 }, { [0 x { [0 x i8]*, i64 }]*, i64 }* %pieces.dbg.spill, i32 0, i32 1
  store i64 %pieces.1, i64* %2, align 8
  call void @llvm.dbg.declare(metadata { [0 x { [0 x i8]*, i64 }]*, i64 }* %pieces.dbg.spill, metadata !669, metadata !DIExpression()), !dbg !671
  %3 = getelementptr inbounds { [0 x { i8*, i64* }]*, i64 }, { [0 x { i8*, i64* }]*, i64 }* %args.dbg.spill, i32 0, i32 0
  store [0 x { i8*, i64* }]* %args.0, [0 x { i8*, i64* }]** %3, align 8
  %4 = getelementptr inbounds { [0 x { i8*, i64* }]*, i64 }, { [0 x { i8*, i64* }]*, i64 }* %args.dbg.spill, i32 0, i32 1
  store i64 %args.1, i64* %4, align 8
  call void @llvm.dbg.declare(metadata { [0 x { i8*, i64* }]*, i64 }* %args.dbg.spill, metadata !670, metadata !DIExpression()), !dbg !672
  %_4 = icmp ult i64 %pieces.1, %args.1, !dbg !673
  br i1 %_4, label %bb1, label %bb2, !dbg !673

bb2:                                              ; preds = %start
  %_12 = add i64 %args.1, 1, !dbg !674
  %_9 = icmp ugt i64 %pieces.1, %_12, !dbg !675
  %5 = zext i1 %_9 to i8, !dbg !673
  store i8 %5, i8* %_3, align 1, !dbg !673
  br label %bb3, !dbg !673

bb1:                                              ; preds = %start
  store i8 1, i8* %_3, align 1, !dbg !673
  br label %bb3, !dbg !673

bb3:                                              ; preds = %bb2, %bb1
  %6 = load i8, i8* %_3, align 1, !dbg !673, !range !587, !noundef !14
  %7 = trunc i8 %6 to i1, !dbg !673
  br i1 %7, label %bb4, label %bb6, !dbg !673

bb6:                                              ; preds = %bb3
  %8 = bitcast { i64*, i64 }* %_24 to {}**, !dbg !676
  store {}* null, {}** %8, align 8, !dbg !676
  %9 = bitcast %"core::fmt::Arguments"* %0 to { [0 x { [0 x i8]*, i64 }]*, i64 }*, !dbg !677
  %10 = getelementptr inbounds { [0 x { [0 x i8]*, i64 }]*, i64 }, { [0 x { [0 x i8]*, i64 }]*, i64 }* %9, i32 0, i32 0, !dbg !677
  store [0 x { [0 x i8]*, i64 }]* %pieces.0, [0 x { [0 x i8]*, i64 }]** %10, align 8, !dbg !677
  %11 = getelementptr inbounds { [0 x { [0 x i8]*, i64 }]*, i64 }, { [0 x { [0 x i8]*, i64 }]*, i64 }* %9, i32 0, i32 1, !dbg !677
  store i64 %pieces.1, i64* %11, align 8, !dbg !677
  %12 = getelementptr inbounds %"core::fmt::Arguments", %"core::fmt::Arguments"* %0, i32 0, i32 1, !dbg !677
  %13 = getelementptr inbounds { i64*, i64 }, { i64*, i64 }* %_24, i32 0, i32 0, !dbg !677
  %14 = load i64*, i64** %13, align 8, !dbg !677, !align !206
  %15 = getelementptr inbounds { i64*, i64 }, { i64*, i64 }* %_24, i32 0, i32 1, !dbg !677
  %16 = load i64, i64* %15, align 8, !dbg !677
  %17 = getelementptr inbounds { i64*, i64 }, { i64*, i64 }* %12, i32 0, i32 0, !dbg !677
  store i64* %14, i64** %17, align 8, !dbg !677
  %18 = getelementptr inbounds { i64*, i64 }, { i64*, i64 }* %12, i32 0, i32 1, !dbg !677
  store i64 %16, i64* %18, align 8, !dbg !677
  %19 = getelementptr inbounds %"core::fmt::Arguments", %"core::fmt::Arguments"* %0, i32 0, i32 2, !dbg !677
  %20 = getelementptr inbounds { [0 x { i8*, i64* }]*, i64 }, { [0 x { i8*, i64* }]*, i64 }* %19, i32 0, i32 0, !dbg !677
  store [0 x { i8*, i64* }]* %args.0, [0 x { i8*, i64* }]** %20, align 8, !dbg !677
  %21 = getelementptr inbounds { [0 x { i8*, i64* }]*, i64 }, { [0 x { i8*, i64* }]*, i64 }* %19, i32 0, i32 1, !dbg !677
  store i64 %args.1, i64* %21, align 8, !dbg !677
  ret void, !dbg !678

bb4:                                              ; preds = %bb3
; call core::fmt::Arguments::new_v1
  call void @_ZN4core3fmt9Arguments6new_v117h3da1799ff79867bbE(%"core::fmt::Arguments"* sret(%"core::fmt::Arguments") %_16, [0 x { [0 x i8]*, i64 }]* align 8 bitcast (<{ i8*, [8 x i8] }>* @alloc396 to [0 x { [0 x i8]*, i64 }]*), i64 1, [0 x { i8*, i64* }]* align 8 bitcast (<{}>* @alloc467 to [0 x { i8*, i64* }]*), i64 0), !dbg !679
  br label %bb5, !dbg !679

bb5:                                              ; preds = %bb4
; call core::panicking::panic_fmt
  call void @_ZN4core9panicking9panic_fmt17h62ccf03c8a8a51b5E(%"core::fmt::Arguments"* %_16, %"core::panic::location::Location"* align 8 bitcast (<{ i8*, [16 x i8] }>* @alloc470 to %"core::panic::location::Location"*)) #14, !dbg !679
  unreachable, !dbg !679
}

; core::ptr::drop_in_place<&f32>
; Function Attrs: inlinehint nonlazybind uwtable
define internal void @"_ZN4core3ptr28drop_in_place$LT$$RF$f32$GT$17h1e40ec344be553afE"(float** %_1) unnamed_addr #1 !dbg !680 {
start:
  %_1.dbg.spill = alloca float**, align 8
  store float** %_1, float*** %_1.dbg.spill, align 8
  call void @llvm.dbg.declare(metadata float*** %_1.dbg.spill, metadata !687, metadata !DIExpression()), !dbg !690
  ret void, !dbg !690
}

; core::ptr::drop_in_place<&f64>
; Function Attrs: inlinehint nonlazybind uwtable
define internal void @"_ZN4core3ptr28drop_in_place$LT$$RF$f64$GT$17h4435ee5e2d199fbaE"(double** %_1) unnamed_addr #1 !dbg !691 {
start:
  %_1.dbg.spill = alloca double**, align 8
  store double** %_1, double*** %_1.dbg.spill, align 8
  call void @llvm.dbg.declare(metadata double*** %_1.dbg.spill, metadata !696, metadata !DIExpression()), !dbg !699
  ret void, !dbg !699
}

; core::ptr::drop_in_place<&i64>
; Function Attrs: inlinehint nonlazybind uwtable
define internal void @"_ZN4core3ptr28drop_in_place$LT$$RF$i64$GT$17h9534fe69a8cf4317E"(i64** %_1) unnamed_addr #1 !dbg !700 {
start:
  %_1.dbg.spill = alloca i64**, align 8
  store i64** %_1, i64*** %_1.dbg.spill, align 8
  call void @llvm.dbg.declare(metadata i64*** %_1.dbg.spill, metadata !705, metadata !DIExpression()), !dbg !708
  ret void, !dbg !708
}

; core::ptr::drop_in_place<&u128>
; Function Attrs: inlinehint nonlazybind uwtable
define internal void @"_ZN4core3ptr29drop_in_place$LT$$RF$u128$GT$17h2b2352fd69062125E"(i128** %_1) unnamed_addr #1 !dbg !709 {
start:
  %_1.dbg.spill = alloca i128**, align 8
  store i128** %_1, i128*** %_1.dbg.spill, align 8
  call void @llvm.dbg.declare(metadata i128*** %_1.dbg.spill, metadata !714, metadata !DIExpression()), !dbg !717
  ret void, !dbg !717
}

; core::tuple::<impl core::cmp::PartialEq for (U,T)>::ne
; Function Attrs: inlinehint nonlazybind uwtable
define zeroext i1 @"_ZN4core5tuple64_$LT$impl$u20$core..cmp..PartialEq$u20$for$u20$$LP$U$C$T$RP$$GT$2ne17h6c0076d97134f3ddE"({ i128, i128 }* align 8 %self, { i128, i128 }* align 8 %other) unnamed_addr #1 !dbg !718 {
start:
  %other.dbg.spill = alloca { i128, i128 }*, align 8
  %self.dbg.spill = alloca { i128, i128 }*, align 8
  %0 = alloca i8, align 1
  store { i128, i128 }* %self, { i128, i128 }** %self.dbg.spill, align 8
  call void @llvm.dbg.declare(metadata { i128, i128 }** %self.dbg.spill, metadata !725, metadata !DIExpression()), !dbg !729
  store { i128, i128 }* %other, { i128, i128 }** %other.dbg.spill, align 8
  call void @llvm.dbg.declare(metadata { i128, i128 }** %other.dbg.spill, metadata !726, metadata !DIExpression()), !dbg !730
  %_4 = bitcast { i128, i128 }* %self to i128*, !dbg !731
  %_5 = bitcast { i128, i128 }* %other to i128*, !dbg !732
; call core::cmp::impls::<impl core::cmp::PartialEq for u128>::ne
  %_3 = call zeroext i1 @"_ZN4core3cmp5impls55_$LT$impl$u20$core..cmp..PartialEq$u20$for$u20$u128$GT$2ne17hea11bfc600ff2ff7E"(i128* align 8 %_4, i128* align 8 %_5), !dbg !731
  br label %bb4, !dbg !731

bb4:                                              ; preds = %start
  br i1 %_3, label %bb1, label %bb2, !dbg !731

bb2:                                              ; preds = %bb4
  %_7 = getelementptr inbounds { i128, i128 }, { i128, i128 }* %self, i32 0, i32 1, !dbg !731
  %_8 = getelementptr inbounds { i128, i128 }, { i128, i128 }* %other, i32 0, i32 1, !dbg !732
; call core::cmp::impls::<impl core::cmp::PartialEq for u128>::ne
  %_6 = call zeroext i1 @"_ZN4core3cmp5impls55_$LT$impl$u20$core..cmp..PartialEq$u20$for$u20$u128$GT$2ne17hea11bfc600ff2ff7E"(i128* align 8 %_7, i128* align 8 %_8), !dbg !731
  br label %bb5, !dbg !731

bb1:                                              ; preds = %bb4
  store i8 1, i8* %0, align 1, !dbg !731
  br label %bb3, !dbg !731

bb3:                                              ; preds = %bb5, %bb1
  %1 = load i8, i8* %0, align 1, !dbg !733, !range !587, !noundef !14
  %2 = trunc i8 %1 to i1, !dbg !733
  ret i1 %2, !dbg !733

bb5:                                              ; preds = %bb2
  %3 = zext i1 %_6 to i8, !dbg !731
  store i8 %3, i8* %0, align 1, !dbg !731
  br label %bb3, !dbg !731
}

; core::tuple::<impl core::cmp::PartialEq for (U,T)>::ne
; Function Attrs: inlinehint nonlazybind uwtable
define zeroext i1 @"_ZN4core5tuple64_$LT$impl$u20$core..cmp..PartialEq$u20$for$u20$$LP$U$C$T$RP$$GT$2ne17haf91862955e549c7E"({ double, double }* align 8 %self, { double, double }* align 8 %other) unnamed_addr #1 !dbg !734 {
start:
  %other.dbg.spill = alloca { double, double }*, align 8
  %self.dbg.spill = alloca { double, double }*, align 8
  %0 = alloca i8, align 1
  store { double, double }* %self, { double, double }** %self.dbg.spill, align 8
  call void @llvm.dbg.declare(metadata { double, double }** %self.dbg.spill, metadata !738, metadata !DIExpression()), !dbg !742
  store { double, double }* %other, { double, double }** %other.dbg.spill, align 8
  call void @llvm.dbg.declare(metadata { double, double }** %other.dbg.spill, metadata !739, metadata !DIExpression()), !dbg !743
  %_4 = bitcast { double, double }* %self to double*, !dbg !744
  %_5 = bitcast { double, double }* %other to double*, !dbg !745
; call core::cmp::impls::<impl core::cmp::PartialEq for f64>::ne
  %_3 = call zeroext i1 @"_ZN4core3cmp5impls54_$LT$impl$u20$core..cmp..PartialEq$u20$for$u20$f64$GT$2ne17h9f2c8e84b758be43E"(double* align 8 %_4, double* align 8 %_5), !dbg !744
  br label %bb4, !dbg !744

bb4:                                              ; preds = %start
  br i1 %_3, label %bb1, label %bb2, !dbg !744

bb2:                                              ; preds = %bb4
  %_7 = getelementptr inbounds { double, double }, { double, double }* %self, i32 0, i32 1, !dbg !744
  %_8 = getelementptr inbounds { double, double }, { double, double }* %other, i32 0, i32 1, !dbg !745
; call core::cmp::impls::<impl core::cmp::PartialEq for f64>::ne
  %_6 = call zeroext i1 @"_ZN4core3cmp5impls54_$LT$impl$u20$core..cmp..PartialEq$u20$for$u20$f64$GT$2ne17h9f2c8e84b758be43E"(double* align 8 %_7, double* align 8 %_8), !dbg !744
  br label %bb5, !dbg !744

bb1:                                              ; preds = %bb4
  store i8 1, i8* %0, align 1, !dbg !744
  br label %bb3, !dbg !744

bb3:                                              ; preds = %bb5, %bb1
  %1 = load i8, i8* %0, align 1, !dbg !746, !range !587, !noundef !14
  %2 = trunc i8 %1 to i1, !dbg !746
  ret i1 %2, !dbg !746

bb5:                                              ; preds = %bb2
  %3 = zext i1 %_6 to i8, !dbg !744
  store i8 %3, i8* %0, align 1, !dbg !744
  br label %bb3, !dbg !744
}

; core::tuple::<impl core::cmp::PartialEq for (U,T)>::ne
; Function Attrs: inlinehint nonlazybind uwtable
define zeroext i1 @"_ZN4core5tuple64_$LT$impl$u20$core..cmp..PartialEq$u20$for$u20$$LP$U$C$T$RP$$GT$2ne17hc53553fd430d1780E"({ i64, i64 }* align 8 %self, { i64, i64 }* align 8 %other) unnamed_addr #1 !dbg !747 {
start:
  %other.dbg.spill = alloca { i64, i64 }*, align 8
  %self.dbg.spill = alloca { i64, i64 }*, align 8
  %0 = alloca i8, align 1
  store { i64, i64 }* %self, { i64, i64 }** %self.dbg.spill, align 8
  call void @llvm.dbg.declare(metadata { i64, i64 }** %self.dbg.spill, metadata !751, metadata !DIExpression()), !dbg !755
  store { i64, i64 }* %other, { i64, i64 }** %other.dbg.spill, align 8
  call void @llvm.dbg.declare(metadata { i64, i64 }** %other.dbg.spill, metadata !752, metadata !DIExpression()), !dbg !756
  %_4 = bitcast { i64, i64 }* %self to i64*, !dbg !757
  %_5 = bitcast { i64, i64 }* %other to i64*, !dbg !758
; call core::cmp::impls::<impl core::cmp::PartialEq for i64>::ne
  %_3 = call zeroext i1 @"_ZN4core3cmp5impls54_$LT$impl$u20$core..cmp..PartialEq$u20$for$u20$i64$GT$2ne17h20ae9c25332afb02E"(i64* align 8 %_4, i64* align 8 %_5), !dbg !757
  br label %bb4, !dbg !757

bb4:                                              ; preds = %start
  br i1 %_3, label %bb1, label %bb2, !dbg !757

bb2:                                              ; preds = %bb4
  %_7 = getelementptr inbounds { i64, i64 }, { i64, i64 }* %self, i32 0, i32 1, !dbg !757
  %_8 = getelementptr inbounds { i64, i64 }, { i64, i64 }* %other, i32 0, i32 1, !dbg !758
; call core::cmp::impls::<impl core::cmp::PartialEq for i64>::ne
  %_6 = call zeroext i1 @"_ZN4core3cmp5impls54_$LT$impl$u20$core..cmp..PartialEq$u20$for$u20$i64$GT$2ne17h20ae9c25332afb02E"(i64* align 8 %_7, i64* align 8 %_8), !dbg !757
  br label %bb5, !dbg !757

bb1:                                              ; preds = %bb4
  store i8 1, i8* %0, align 1, !dbg !757
  br label %bb3, !dbg !757

bb3:                                              ; preds = %bb5, %bb1
  %1 = load i8, i8* %0, align 1, !dbg !759, !range !587, !noundef !14
  %2 = trunc i8 %1 to i1, !dbg !759
  ret i1 %2, !dbg !759

bb5:                                              ; preds = %bb2
  %3 = zext i1 %_6 to i8, !dbg !757
  store i8 %3, i8* %0, align 1, !dbg !757
  br label %bb3, !dbg !757
}

; core::tuple::<impl core::cmp::PartialEq for (W,V,U,T)>::ne
; Function Attrs: inlinehint nonlazybind uwtable
define zeroext i1 @"_ZN4core5tuple72_$LT$impl$u20$core..cmp..PartialEq$u20$for$u20$$LP$W$C$V$C$U$C$T$RP$$GT$2ne17h302b833d8e86f458E"({ double, double, double, double }* align 8 %self, { double, double, double, double }* align 8 %other) unnamed_addr #1 !dbg !760 {
start:
  %other.dbg.spill = alloca { double, double, double, double }*, align 8
  %self.dbg.spill = alloca { double, double, double, double }*, align 8
  %_4 = alloca i8, align 1
  %_3 = alloca i8, align 1
  %0 = alloca i8, align 1
  store { double, double, double, double }* %self, { double, double, double, double }** %self.dbg.spill, align 8
  call void @llvm.dbg.declare(metadata { double, double, double, double }** %self.dbg.spill, metadata !765, metadata !DIExpression()), !dbg !770
  store { double, double, double, double }* %other, { double, double, double, double }** %other.dbg.spill, align 8
  call void @llvm.dbg.declare(metadata { double, double, double, double }** %other.dbg.spill, metadata !766, metadata !DIExpression()), !dbg !771
  %_6 = bitcast { double, double, double, double }* %self to double*, !dbg !772
  %_7 = bitcast { double, double, double, double }* %other to double*, !dbg !773
; call core::cmp::impls::<impl core::cmp::PartialEq for f64>::ne
  %_5 = call zeroext i1 @"_ZN4core3cmp5impls54_$LT$impl$u20$core..cmp..PartialEq$u20$for$u20$f64$GT$2ne17h9f2c8e84b758be43E"(double* align 8 %_6, double* align 8 %_7), !dbg !772
  br label %bb10, !dbg !772

bb10:                                             ; preds = %start
  br i1 %_5, label %bb7, label %bb8, !dbg !772

bb8:                                              ; preds = %bb10
  %_9 = getelementptr inbounds { double, double, double, double }, { double, double, double, double }* %self, i32 0, i32 1, !dbg !772
  %_10 = getelementptr inbounds { double, double, double, double }, { double, double, double, double }* %other, i32 0, i32 1, !dbg !773
; call core::cmp::impls::<impl core::cmp::PartialEq for f64>::ne
  %_8 = call zeroext i1 @"_ZN4core3cmp5impls54_$LT$impl$u20$core..cmp..PartialEq$u20$for$u20$f64$GT$2ne17h9f2c8e84b758be43E"(double* align 8 %_9, double* align 8 %_10), !dbg !772
  br label %bb11, !dbg !772

bb7:                                              ; preds = %bb10
  store i8 1, i8* %_4, align 1, !dbg !772
  br label %bb9, !dbg !772

bb9:                                              ; preds = %bb11, %bb7
  %1 = load i8, i8* %_4, align 1, !dbg !772, !range !587, !noundef !14
  %2 = trunc i8 %1 to i1, !dbg !772
  br i1 %2, label %bb4, label %bb5, !dbg !772

bb11:                                             ; preds = %bb8
  %3 = zext i1 %_8 to i8, !dbg !772
  store i8 %3, i8* %_4, align 1, !dbg !772
  br label %bb9, !dbg !772

bb5:                                              ; preds = %bb9
  %_12 = getelementptr inbounds { double, double, double, double }, { double, double, double, double }* %self, i32 0, i32 2, !dbg !772
  %_13 = getelementptr inbounds { double, double, double, double }, { double, double, double, double }* %other, i32 0, i32 2, !dbg !773
; call core::cmp::impls::<impl core::cmp::PartialEq for f64>::ne
  %_11 = call zeroext i1 @"_ZN4core3cmp5impls54_$LT$impl$u20$core..cmp..PartialEq$u20$for$u20$f64$GT$2ne17h9f2c8e84b758be43E"(double* align 8 %_12, double* align 8 %_13), !dbg !772
  br label %bb12, !dbg !772

bb4:                                              ; preds = %bb9
  store i8 1, i8* %_3, align 1, !dbg !772
  br label %bb6, !dbg !772

bb6:                                              ; preds = %bb12, %bb4
  %4 = load i8, i8* %_3, align 1, !dbg !772, !range !587, !noundef !14
  %5 = trunc i8 %4 to i1, !dbg !772
  br i1 %5, label %bb1, label %bb2, !dbg !772

bb12:                                             ; preds = %bb5
  %6 = zext i1 %_11 to i8, !dbg !772
  store i8 %6, i8* %_3, align 1, !dbg !772
  br label %bb6, !dbg !772

bb2:                                              ; preds = %bb6
  %_15 = getelementptr inbounds { double, double, double, double }, { double, double, double, double }* %self, i32 0, i32 3, !dbg !772
  %_16 = getelementptr inbounds { double, double, double, double }, { double, double, double, double }* %other, i32 0, i32 3, !dbg !773
; call core::cmp::impls::<impl core::cmp::PartialEq for f64>::ne
  %_14 = call zeroext i1 @"_ZN4core3cmp5impls54_$LT$impl$u20$core..cmp..PartialEq$u20$for$u20$f64$GT$2ne17h9f2c8e84b758be43E"(double* align 8 %_15, double* align 8 %_16), !dbg !772
  br label %bb13, !dbg !772

bb1:                                              ; preds = %bb6
  store i8 1, i8* %0, align 1, !dbg !772
  br label %bb3, !dbg !772

bb3:                                              ; preds = %bb13, %bb1
  %7 = load i8, i8* %0, align 1, !dbg !774, !range !587, !noundef !14
  %8 = trunc i8 %7 to i1, !dbg !774
  ret i1 %8, !dbg !774

bb13:                                             ; preds = %bb2
  %9 = zext i1 %_14 to i8, !dbg !772
  store i8 %9, i8* %0, align 1, !dbg !772
  br label %bb3, !dbg !772
}

; core::tuple::<impl core::cmp::PartialEq for (W,V,U,T)>::ne
; Function Attrs: inlinehint nonlazybind uwtable
define zeroext i1 @"_ZN4core5tuple72_$LT$impl$u20$core..cmp..PartialEq$u20$for$u20$$LP$W$C$V$C$U$C$T$RP$$GT$2ne17h531ecb6b13f2d89bE"({ float, float, float, float }* align 4 %self, { float, float, float, float }* align 4 %other) unnamed_addr #1 !dbg !775 {
start:
  %other.dbg.spill = alloca { float, float, float, float }*, align 8
  %self.dbg.spill = alloca { float, float, float, float }*, align 8
  %_4 = alloca i8, align 1
  %_3 = alloca i8, align 1
  %0 = alloca i8, align 1
  store { float, float, float, float }* %self, { float, float, float, float }** %self.dbg.spill, align 8
  call void @llvm.dbg.declare(metadata { float, float, float, float }** %self.dbg.spill, metadata !779, metadata !DIExpression()), !dbg !785
  store { float, float, float, float }* %other, { float, float, float, float }** %other.dbg.spill, align 8
  call void @llvm.dbg.declare(metadata { float, float, float, float }** %other.dbg.spill, metadata !780, metadata !DIExpression()), !dbg !786
  %_6 = bitcast { float, float, float, float }* %self to float*, !dbg !787
  %_7 = bitcast { float, float, float, float }* %other to float*, !dbg !788
; call core::cmp::impls::<impl core::cmp::PartialEq for f32>::ne
  %_5 = call zeroext i1 @"_ZN4core3cmp5impls54_$LT$impl$u20$core..cmp..PartialEq$u20$for$u20$f32$GT$2ne17hea15636ecbfb2d41E"(float* align 4 %_6, float* align 4 %_7), !dbg !787
  br label %bb10, !dbg !787

bb10:                                             ; preds = %start
  br i1 %_5, label %bb7, label %bb8, !dbg !787

bb8:                                              ; preds = %bb10
  %_9 = getelementptr inbounds { float, float, float, float }, { float, float, float, float }* %self, i32 0, i32 1, !dbg !787
  %_10 = getelementptr inbounds { float, float, float, float }, { float, float, float, float }* %other, i32 0, i32 1, !dbg !788
; call core::cmp::impls::<impl core::cmp::PartialEq for f32>::ne
  %_8 = call zeroext i1 @"_ZN4core3cmp5impls54_$LT$impl$u20$core..cmp..PartialEq$u20$for$u20$f32$GT$2ne17hea15636ecbfb2d41E"(float* align 4 %_9, float* align 4 %_10), !dbg !787
  br label %bb11, !dbg !787

bb7:                                              ; preds = %bb10
  store i8 1, i8* %_4, align 1, !dbg !787
  br label %bb9, !dbg !787

bb9:                                              ; preds = %bb11, %bb7
  %1 = load i8, i8* %_4, align 1, !dbg !787, !range !587, !noundef !14
  %2 = trunc i8 %1 to i1, !dbg !787
  br i1 %2, label %bb4, label %bb5, !dbg !787

bb11:                                             ; preds = %bb8
  %3 = zext i1 %_8 to i8, !dbg !787
  store i8 %3, i8* %_4, align 1, !dbg !787
  br label %bb9, !dbg !787

bb5:                                              ; preds = %bb9
  %_12 = getelementptr inbounds { float, float, float, float }, { float, float, float, float }* %self, i32 0, i32 2, !dbg !787
  %_13 = getelementptr inbounds { float, float, float, float }, { float, float, float, float }* %other, i32 0, i32 2, !dbg !788
; call core::cmp::impls::<impl core::cmp::PartialEq for f32>::ne
  %_11 = call zeroext i1 @"_ZN4core3cmp5impls54_$LT$impl$u20$core..cmp..PartialEq$u20$for$u20$f32$GT$2ne17hea15636ecbfb2d41E"(float* align 4 %_12, float* align 4 %_13), !dbg !787
  br label %bb12, !dbg !787

bb4:                                              ; preds = %bb9
  store i8 1, i8* %_3, align 1, !dbg !787
  br label %bb6, !dbg !787

bb6:                                              ; preds = %bb12, %bb4
  %4 = load i8, i8* %_3, align 1, !dbg !787, !range !587, !noundef !14
  %5 = trunc i8 %4 to i1, !dbg !787
  br i1 %5, label %bb1, label %bb2, !dbg !787

bb12:                                             ; preds = %bb5
  %6 = zext i1 %_11 to i8, !dbg !787
  store i8 %6, i8* %_3, align 1, !dbg !787
  br label %bb6, !dbg !787

bb2:                                              ; preds = %bb6
  %_15 = getelementptr inbounds { float, float, float, float }, { float, float, float, float }* %self, i32 0, i32 3, !dbg !787
  %_16 = getelementptr inbounds { float, float, float, float }, { float, float, float, float }* %other, i32 0, i32 3, !dbg !788
; call core::cmp::impls::<impl core::cmp::PartialEq for f32>::ne
  %_14 = call zeroext i1 @"_ZN4core3cmp5impls54_$LT$impl$u20$core..cmp..PartialEq$u20$for$u20$f32$GT$2ne17hea15636ecbfb2d41E"(float* align 4 %_15, float* align 4 %_16), !dbg !787
  br label %bb13, !dbg !787

bb1:                                              ; preds = %bb6
  store i8 1, i8* %0, align 1, !dbg !787
  br label %bb3, !dbg !787

bb3:                                              ; preds = %bb13, %bb1
  %7 = load i8, i8* %0, align 1, !dbg !789, !range !587, !noundef !14
  %8 = trunc i8 %7 to i1, !dbg !789
  ret i1 %8, !dbg !789

bb13:                                             ; preds = %bb2
  %9 = zext i1 %_14 to i8, !dbg !787
  store i8 %9, i8* %0, align 1, !dbg !787
  br label %bb3, !dbg !787
}

; core::tuple::<impl core::cmp::PartialEq for (W,V,U,T)>::ne
; Function Attrs: inlinehint nonlazybind uwtable
define zeroext i1 @"_ZN4core5tuple72_$LT$impl$u20$core..cmp..PartialEq$u20$for$u20$$LP$W$C$V$C$U$C$T$RP$$GT$2ne17h5e6b4d9fa4f3c0c4E"({ i64, i64, i64, i64 }* align 8 %self, { i64, i64, i64, i64 }* align 8 %other) unnamed_addr #1 !dbg !790 {
start:
  %other.dbg.spill = alloca { i64, i64, i64, i64 }*, align 8
  %self.dbg.spill = alloca { i64, i64, i64, i64 }*, align 8
  %_4 = alloca i8, align 1
  %_3 = alloca i8, align 1
  %0 = alloca i8, align 1
  store { i64, i64, i64, i64 }* %self, { i64, i64, i64, i64 }** %self.dbg.spill, align 8
  call void @llvm.dbg.declare(metadata { i64, i64, i64, i64 }** %self.dbg.spill, metadata !794, metadata !DIExpression()), !dbg !799
  store { i64, i64, i64, i64 }* %other, { i64, i64, i64, i64 }** %other.dbg.spill, align 8
  call void @llvm.dbg.declare(metadata { i64, i64, i64, i64 }** %other.dbg.spill, metadata !795, metadata !DIExpression()), !dbg !800
  %_6 = bitcast { i64, i64, i64, i64 }* %self to i64*, !dbg !801
  %_7 = bitcast { i64, i64, i64, i64 }* %other to i64*, !dbg !802
; call core::cmp::impls::<impl core::cmp::PartialEq for i64>::ne
  %_5 = call zeroext i1 @"_ZN4core3cmp5impls54_$LT$impl$u20$core..cmp..PartialEq$u20$for$u20$i64$GT$2ne17h20ae9c25332afb02E"(i64* align 8 %_6, i64* align 8 %_7), !dbg !801
  br label %bb10, !dbg !801

bb10:                                             ; preds = %start
  br i1 %_5, label %bb7, label %bb8, !dbg !801

bb8:                                              ; preds = %bb10
  %_9 = getelementptr inbounds { i64, i64, i64, i64 }, { i64, i64, i64, i64 }* %self, i32 0, i32 1, !dbg !801
  %_10 = getelementptr inbounds { i64, i64, i64, i64 }, { i64, i64, i64, i64 }* %other, i32 0, i32 1, !dbg !802
; call core::cmp::impls::<impl core::cmp::PartialEq for i64>::ne
  %_8 = call zeroext i1 @"_ZN4core3cmp5impls54_$LT$impl$u20$core..cmp..PartialEq$u20$for$u20$i64$GT$2ne17h20ae9c25332afb02E"(i64* align 8 %_9, i64* align 8 %_10), !dbg !801
  br label %bb11, !dbg !801

bb7:                                              ; preds = %bb10
  store i8 1, i8* %_4, align 1, !dbg !801
  br label %bb9, !dbg !801

bb9:                                              ; preds = %bb11, %bb7
  %1 = load i8, i8* %_4, align 1, !dbg !801, !range !587, !noundef !14
  %2 = trunc i8 %1 to i1, !dbg !801
  br i1 %2, label %bb4, label %bb5, !dbg !801

bb11:                                             ; preds = %bb8
  %3 = zext i1 %_8 to i8, !dbg !801
  store i8 %3, i8* %_4, align 1, !dbg !801
  br label %bb9, !dbg !801

bb5:                                              ; preds = %bb9
  %_12 = getelementptr inbounds { i64, i64, i64, i64 }, { i64, i64, i64, i64 }* %self, i32 0, i32 2, !dbg !801
  %_13 = getelementptr inbounds { i64, i64, i64, i64 }, { i64, i64, i64, i64 }* %other, i32 0, i32 2, !dbg !802
; call core::cmp::impls::<impl core::cmp::PartialEq for i64>::ne
  %_11 = call zeroext i1 @"_ZN4core3cmp5impls54_$LT$impl$u20$core..cmp..PartialEq$u20$for$u20$i64$GT$2ne17h20ae9c25332afb02E"(i64* align 8 %_12, i64* align 8 %_13), !dbg !801
  br label %bb12, !dbg !801

bb4:                                              ; preds = %bb9
  store i8 1, i8* %_3, align 1, !dbg !801
  br label %bb6, !dbg !801

bb6:                                              ; preds = %bb12, %bb4
  %4 = load i8, i8* %_3, align 1, !dbg !801, !range !587, !noundef !14
  %5 = trunc i8 %4 to i1, !dbg !801
  br i1 %5, label %bb1, label %bb2, !dbg !801

bb12:                                             ; preds = %bb5
  %6 = zext i1 %_11 to i8, !dbg !801
  store i8 %6, i8* %_3, align 1, !dbg !801
  br label %bb6, !dbg !801

bb2:                                              ; preds = %bb6
  %_15 = getelementptr inbounds { i64, i64, i64, i64 }, { i64, i64, i64, i64 }* %self, i32 0, i32 3, !dbg !801
  %_16 = getelementptr inbounds { i64, i64, i64, i64 }, { i64, i64, i64, i64 }* %other, i32 0, i32 3, !dbg !802
; call core::cmp::impls::<impl core::cmp::PartialEq for i64>::ne
  %_14 = call zeroext i1 @"_ZN4core3cmp5impls54_$LT$impl$u20$core..cmp..PartialEq$u20$for$u20$i64$GT$2ne17h20ae9c25332afb02E"(i64* align 8 %_15, i64* align 8 %_16), !dbg !801
  br label %bb13, !dbg !801

bb1:                                              ; preds = %bb6
  store i8 1, i8* %0, align 1, !dbg !801
  br label %bb3, !dbg !801

bb3:                                              ; preds = %bb13, %bb1
  %7 = load i8, i8* %0, align 1, !dbg !803, !range !587, !noundef !14
  %8 = trunc i8 %7 to i1, !dbg !803
  ret i1 %8, !dbg !803

bb13:                                             ; preds = %bb2
  %9 = zext i1 %_14 to i8, !dbg !801
  store i8 %9, i8* %0, align 1, !dbg !801
  br label %bb3, !dbg !801
}

; core::tuple::<impl core::cmp::PartialEq for (A,Z,Y,X,W,V,U,T)>::ne
; Function Attrs: inlinehint nonlazybind uwtable
define zeroext i1 @"_ZN4core5tuple88_$LT$impl$u20$core..cmp..PartialEq$u20$for$u20$$LP$A$C$Z$C$Y$C$X$C$W$C$V$C$U$C$T$RP$$GT$2ne17h2c88287f64132576E"({ float, float, float, float, float, float, float, float }* align 4 %self, { float, float, float, float, float, float, float, float }* align 4 %other) unnamed_addr #1 !dbg !804 {
start:
  %other.dbg.spill = alloca { float, float, float, float, float, float, float, float }*, align 8
  %self.dbg.spill = alloca { float, float, float, float, float, float, float, float }*, align 8
  %_8 = alloca i8, align 1
  %_7 = alloca i8, align 1
  %_6 = alloca i8, align 1
  %_5 = alloca i8, align 1
  %_4 = alloca i8, align 1
  %_3 = alloca i8, align 1
  %0 = alloca i8, align 1
  store { float, float, float, float, float, float, float, float }* %self, { float, float, float, float, float, float, float, float }** %self.dbg.spill, align 8
  call void @llvm.dbg.declare(metadata { float, float, float, float, float, float, float, float }** %self.dbg.spill, metadata !809, metadata !DIExpression()), !dbg !816
  store { float, float, float, float, float, float, float, float }* %other, { float, float, float, float, float, float, float, float }** %other.dbg.spill, align 8
  call void @llvm.dbg.declare(metadata { float, float, float, float, float, float, float, float }** %other.dbg.spill, metadata !810, metadata !DIExpression()), !dbg !817
  %_10 = bitcast { float, float, float, float, float, float, float, float }* %self to float*, !dbg !818
  %_11 = bitcast { float, float, float, float, float, float, float, float }* %other to float*, !dbg !819
; call core::cmp::impls::<impl core::cmp::PartialEq for f32>::ne
  %_9 = call zeroext i1 @"_ZN4core3cmp5impls54_$LT$impl$u20$core..cmp..PartialEq$u20$for$u20$f32$GT$2ne17hea15636ecbfb2d41E"(float* align 4 %_10, float* align 4 %_11), !dbg !818
  br label %bb22, !dbg !818

bb22:                                             ; preds = %start
  br i1 %_9, label %bb19, label %bb20, !dbg !818

bb20:                                             ; preds = %bb22
  %_13 = getelementptr inbounds { float, float, float, float, float, float, float, float }, { float, float, float, float, float, float, float, float }* %self, i32 0, i32 1, !dbg !818
  %_14 = getelementptr inbounds { float, float, float, float, float, float, float, float }, { float, float, float, float, float, float, float, float }* %other, i32 0, i32 1, !dbg !819
; call core::cmp::impls::<impl core::cmp::PartialEq for f32>::ne
  %_12 = call zeroext i1 @"_ZN4core3cmp5impls54_$LT$impl$u20$core..cmp..PartialEq$u20$for$u20$f32$GT$2ne17hea15636ecbfb2d41E"(float* align 4 %_13, float* align 4 %_14), !dbg !818
  br label %bb23, !dbg !818

bb19:                                             ; preds = %bb22
  store i8 1, i8* %_8, align 1, !dbg !818
  br label %bb21, !dbg !818

bb21:                                             ; preds = %bb23, %bb19
  %1 = load i8, i8* %_8, align 1, !dbg !818, !range !587, !noundef !14
  %2 = trunc i8 %1 to i1, !dbg !818
  br i1 %2, label %bb16, label %bb17, !dbg !818

bb23:                                             ; preds = %bb20
  %3 = zext i1 %_12 to i8, !dbg !818
  store i8 %3, i8* %_8, align 1, !dbg !818
  br label %bb21, !dbg !818

bb17:                                             ; preds = %bb21
  %_16 = getelementptr inbounds { float, float, float, float, float, float, float, float }, { float, float, float, float, float, float, float, float }* %self, i32 0, i32 2, !dbg !818
  %_17 = getelementptr inbounds { float, float, float, float, float, float, float, float }, { float, float, float, float, float, float, float, float }* %other, i32 0, i32 2, !dbg !819
; call core::cmp::impls::<impl core::cmp::PartialEq for f32>::ne
  %_15 = call zeroext i1 @"_ZN4core3cmp5impls54_$LT$impl$u20$core..cmp..PartialEq$u20$for$u20$f32$GT$2ne17hea15636ecbfb2d41E"(float* align 4 %_16, float* align 4 %_17), !dbg !818
  br label %bb24, !dbg !818

bb16:                                             ; preds = %bb21
  store i8 1, i8* %_7, align 1, !dbg !818
  br label %bb18, !dbg !818

bb18:                                             ; preds = %bb24, %bb16
  %4 = load i8, i8* %_7, align 1, !dbg !818, !range !587, !noundef !14
  %5 = trunc i8 %4 to i1, !dbg !818
  br i1 %5, label %bb13, label %bb14, !dbg !818

bb24:                                             ; preds = %bb17
  %6 = zext i1 %_15 to i8, !dbg !818
  store i8 %6, i8* %_7, align 1, !dbg !818
  br label %bb18, !dbg !818

bb14:                                             ; preds = %bb18
  %_19 = getelementptr inbounds { float, float, float, float, float, float, float, float }, { float, float, float, float, float, float, float, float }* %self, i32 0, i32 3, !dbg !818
  %_20 = getelementptr inbounds { float, float, float, float, float, float, float, float }, { float, float, float, float, float, float, float, float }* %other, i32 0, i32 3, !dbg !819
; call core::cmp::impls::<impl core::cmp::PartialEq for f32>::ne
  %_18 = call zeroext i1 @"_ZN4core3cmp5impls54_$LT$impl$u20$core..cmp..PartialEq$u20$for$u20$f32$GT$2ne17hea15636ecbfb2d41E"(float* align 4 %_19, float* align 4 %_20), !dbg !818
  br label %bb25, !dbg !818

bb13:                                             ; preds = %bb18
  store i8 1, i8* %_6, align 1, !dbg !818
  br label %bb15, !dbg !818

bb15:                                             ; preds = %bb25, %bb13
  %7 = load i8, i8* %_6, align 1, !dbg !818, !range !587, !noundef !14
  %8 = trunc i8 %7 to i1, !dbg !818
  br i1 %8, label %bb10, label %bb11, !dbg !818

bb25:                                             ; preds = %bb14
  %9 = zext i1 %_18 to i8, !dbg !818
  store i8 %9, i8* %_6, align 1, !dbg !818
  br label %bb15, !dbg !818

bb11:                                             ; preds = %bb15
  %_22 = getelementptr inbounds { float, float, float, float, float, float, float, float }, { float, float, float, float, float, float, float, float }* %self, i32 0, i32 4, !dbg !818
  %_23 = getelementptr inbounds { float, float, float, float, float, float, float, float }, { float, float, float, float, float, float, float, float }* %other, i32 0, i32 4, !dbg !819
; call core::cmp::impls::<impl core::cmp::PartialEq for f32>::ne
  %_21 = call zeroext i1 @"_ZN4core3cmp5impls54_$LT$impl$u20$core..cmp..PartialEq$u20$for$u20$f32$GT$2ne17hea15636ecbfb2d41E"(float* align 4 %_22, float* align 4 %_23), !dbg !818
  br label %bb26, !dbg !818

bb10:                                             ; preds = %bb15
  store i8 1, i8* %_5, align 1, !dbg !818
  br label %bb12, !dbg !818

bb12:                                             ; preds = %bb26, %bb10
  %10 = load i8, i8* %_5, align 1, !dbg !818, !range !587, !noundef !14
  %11 = trunc i8 %10 to i1, !dbg !818
  br i1 %11, label %bb7, label %bb8, !dbg !818

bb26:                                             ; preds = %bb11
  %12 = zext i1 %_21 to i8, !dbg !818
  store i8 %12, i8* %_5, align 1, !dbg !818
  br label %bb12, !dbg !818

bb8:                                              ; preds = %bb12
  %_25 = getelementptr inbounds { float, float, float, float, float, float, float, float }, { float, float, float, float, float, float, float, float }* %self, i32 0, i32 5, !dbg !818
  %_26 = getelementptr inbounds { float, float, float, float, float, float, float, float }, { float, float, float, float, float, float, float, float }* %other, i32 0, i32 5, !dbg !819
; call core::cmp::impls::<impl core::cmp::PartialEq for f32>::ne
  %_24 = call zeroext i1 @"_ZN4core3cmp5impls54_$LT$impl$u20$core..cmp..PartialEq$u20$for$u20$f32$GT$2ne17hea15636ecbfb2d41E"(float* align 4 %_25, float* align 4 %_26), !dbg !818
  br label %bb27, !dbg !818

bb7:                                              ; preds = %bb12
  store i8 1, i8* %_4, align 1, !dbg !818
  br label %bb9, !dbg !818

bb9:                                              ; preds = %bb27, %bb7
  %13 = load i8, i8* %_4, align 1, !dbg !818, !range !587, !noundef !14
  %14 = trunc i8 %13 to i1, !dbg !818
  br i1 %14, label %bb4, label %bb5, !dbg !818

bb27:                                             ; preds = %bb8
  %15 = zext i1 %_24 to i8, !dbg !818
  store i8 %15, i8* %_4, align 1, !dbg !818
  br label %bb9, !dbg !818

bb5:                                              ; preds = %bb9
  %_28 = getelementptr inbounds { float, float, float, float, float, float, float, float }, { float, float, float, float, float, float, float, float }* %self, i32 0, i32 6, !dbg !818
  %_29 = getelementptr inbounds { float, float, float, float, float, float, float, float }, { float, float, float, float, float, float, float, float }* %other, i32 0, i32 6, !dbg !819
; call core::cmp::impls::<impl core::cmp::PartialEq for f32>::ne
  %_27 = call zeroext i1 @"_ZN4core3cmp5impls54_$LT$impl$u20$core..cmp..PartialEq$u20$for$u20$f32$GT$2ne17hea15636ecbfb2d41E"(float* align 4 %_28, float* align 4 %_29), !dbg !818
  br label %bb28, !dbg !818

bb4:                                              ; preds = %bb9
  store i8 1, i8* %_3, align 1, !dbg !818
  br label %bb6, !dbg !818

bb6:                                              ; preds = %bb28, %bb4
  %16 = load i8, i8* %_3, align 1, !dbg !818, !range !587, !noundef !14
  %17 = trunc i8 %16 to i1, !dbg !818
  br i1 %17, label %bb1, label %bb2, !dbg !818

bb28:                                             ; preds = %bb5
  %18 = zext i1 %_27 to i8, !dbg !818
  store i8 %18, i8* %_3, align 1, !dbg !818
  br label %bb6, !dbg !818

bb2:                                              ; preds = %bb6
  %_31 = getelementptr inbounds { float, float, float, float, float, float, float, float }, { float, float, float, float, float, float, float, float }* %self, i32 0, i32 7, !dbg !818
  %_32 = getelementptr inbounds { float, float, float, float, float, float, float, float }, { float, float, float, float, float, float, float, float }* %other, i32 0, i32 7, !dbg !819
; call core::cmp::impls::<impl core::cmp::PartialEq for f32>::ne
  %_30 = call zeroext i1 @"_ZN4core3cmp5impls54_$LT$impl$u20$core..cmp..PartialEq$u20$for$u20$f32$GT$2ne17hea15636ecbfb2d41E"(float* align 4 %_31, float* align 4 %_32), !dbg !818
  br label %bb29, !dbg !818

bb1:                                              ; preds = %bb6
  store i8 1, i8* %0, align 1, !dbg !818
  br label %bb3, !dbg !818

bb3:                                              ; preds = %bb29, %bb1
  %19 = load i8, i8* %0, align 1, !dbg !820, !range !587, !noundef !14
  %20 = trunc i8 %19 to i1, !dbg !820
  ret i1 %20, !dbg !820

bb29:                                             ; preds = %bb2
  %21 = zext i1 %_30 to i8, !dbg !818
  store i8 %21, i8* %0, align 1, !dbg !818
  br label %bb3, !dbg !818
}

; core::core_arch::x86::aes::_mm_aesdec_si128
; Function Attrs: inlinehint nonlazybind uwtable
define internal void @_ZN4core9core_arch3x863aes16_mm_aesdec_si12817h07191aebc4503e22E(<2 x i64>* sret(<2 x i64>) %0, <2 x i64>* %a, <2 x i64>* %round_key) unnamed_addr #2 !dbg !821 {
start:
  call void @llvm.dbg.declare(metadata <2 x i64>* %a, metadata !827, metadata !DIExpression()), !dbg !829
  call void @llvm.dbg.declare(metadata <2 x i64>* %round_key, metadata !828, metadata !DIExpression()), !dbg !830
  %_3 = load <2 x i64>, <2 x i64>* %a, align 16, !dbg !831
  %_4 = load <2 x i64>, <2 x i64>* %round_key, align 16, !dbg !832
  %1 = call <2 x i64> @llvm.x86.aesni.aesdec(<2 x i64> %_3, <2 x i64> %_4) #15, !dbg !833
  store <2 x i64> %1, <2 x i64>* %0, align 16, !dbg !833
  br label %bb1, !dbg !833

bb1:                                              ; preds = %start
  ret void, !dbg !834
}

; core::core_arch::x86::aes::_mm_aesenc_si128
; Function Attrs: inlinehint nonlazybind uwtable
define internal void @_ZN4core9core_arch3x863aes16_mm_aesenc_si12817hace07bd2987bc135E(<2 x i64>* sret(<2 x i64>) %0, <2 x i64>* %a, <2 x i64>* %round_key) unnamed_addr #2 !dbg !835 {
start:
  call void @llvm.dbg.declare(metadata <2 x i64>* %a, metadata !837, metadata !DIExpression()), !dbg !839
  call void @llvm.dbg.declare(metadata <2 x i64>* %round_key, metadata !838, metadata !DIExpression()), !dbg !840
  %_3 = load <2 x i64>, <2 x i64>* %a, align 16, !dbg !841
  %_4 = load <2 x i64>, <2 x i64>* %round_key, align 16, !dbg !842
  %1 = call <2 x i64> @llvm.x86.aesni.aesenc(<2 x i64> %_3, <2 x i64> %_4) #15, !dbg !843
  store <2 x i64> %1, <2 x i64>* %0, align 16, !dbg !843
  br label %bb1, !dbg !843

bb1:                                              ; preds = %start
  ret void, !dbg !844
}

; core::core_arch::x86::aes::_mm_aesimc_si128
; Function Attrs: inlinehint nonlazybind uwtable
define internal void @_ZN4core9core_arch3x863aes16_mm_aesimc_si12817h0d02d753caba3ff9E(<2 x i64>* sret(<2 x i64>) %0, <2 x i64>* %a) unnamed_addr #2 !dbg !845 {
start:
  call void @llvm.dbg.declare(metadata <2 x i64>* %a, metadata !849, metadata !DIExpression()), !dbg !850
  %_2 = load <2 x i64>, <2 x i64>* %a, align 16, !dbg !851
  %1 = call <2 x i64> @llvm.x86.aesni.aesimc(<2 x i64> %_2) #15, !dbg !852
  store <2 x i64> %1, <2 x i64>* %0, align 16, !dbg !852
  br label %bb1, !dbg !852

bb1:                                              ; preds = %start
  ret void, !dbg !853
}

; core::core_arch::x86::aes::_mm_aesdeclast_si128
; Function Attrs: inlinehint nonlazybind uwtable
define internal void @_ZN4core9core_arch3x863aes20_mm_aesdeclast_si12817hcc53bb5ee4223ab2E(<2 x i64>* sret(<2 x i64>) %0, <2 x i64>* %a, <2 x i64>* %round_key) unnamed_addr #2 !dbg !854 {
start:
  call void @llvm.dbg.declare(metadata <2 x i64>* %a, metadata !856, metadata !DIExpression()), !dbg !858
  call void @llvm.dbg.declare(metadata <2 x i64>* %round_key, metadata !857, metadata !DIExpression()), !dbg !859
  %_3 = load <2 x i64>, <2 x i64>* %a, align 16, !dbg !860
  %_4 = load <2 x i64>, <2 x i64>* %round_key, align 16, !dbg !861
  %1 = call <2 x i64> @llvm.x86.aesni.aesdeclast(<2 x i64> %_3, <2 x i64> %_4) #15, !dbg !862
  store <2 x i64> %1, <2 x i64>* %0, align 16, !dbg !862
  br label %bb1, !dbg !862

bb1:                                              ; preds = %start
  ret void, !dbg !863
}

; core::core_arch::x86::aes::_mm_aesenclast_si128
; Function Attrs: inlinehint nonlazybind uwtable
define internal void @_ZN4core9core_arch3x863aes20_mm_aesenclast_si12817h32bb38915e87440cE(<2 x i64>* sret(<2 x i64>) %0, <2 x i64>* %a, <2 x i64>* %round_key) unnamed_addr #2 !dbg !864 {
start:
  call void @llvm.dbg.declare(metadata <2 x i64>* %a, metadata !866, metadata !DIExpression()), !dbg !868
  call void @llvm.dbg.declare(metadata <2 x i64>* %round_key, metadata !867, metadata !DIExpression()), !dbg !869
  %_3 = load <2 x i64>, <2 x i64>* %a, align 16, !dbg !870
  %_4 = load <2 x i64>, <2 x i64>* %round_key, align 16, !dbg !871
  %1 = call <2 x i64> @llvm.x86.aesni.aesenclast(<2 x i64> %_3, <2 x i64> %_4) #15, !dbg !872
  store <2 x i64> %1, <2 x i64>* %0, align 16, !dbg !872
  br label %bb1, !dbg !872

bb1:                                              ; preds = %start
  ret void, !dbg !873
}

; core::core_arch::x86::aes::_mm_aeskeygenassist_si128
; Function Attrs: inlinehint nonlazybind uwtable
define void @_ZN4core9core_arch3x863aes25_mm_aeskeygenassist_si12817h455a59a6cad806c7E(<2 x i64>* sret(<2 x i64>) %0, <2 x i64>* %a) unnamed_addr #2 !dbg !874 {
start:
  call void @llvm.dbg.declare(metadata <2 x i64>* %a, metadata !876, metadata !DIExpression()), !dbg !877
  %_2 = load <2 x i64>, <2 x i64>* %a, align 16, !dbg !878
  %1 = call <2 x i64> @llvm.x86.aesni.aeskeygenassist(<2 x i64> %_2, i8 zeroext 2) #15, !dbg !879
  store <2 x i64> %1, <2 x i64>* %0, align 16, !dbg !879
  br label %bb1, !dbg !879

bb1:                                              ; preds = %start
  ret void, !dbg !880
}

; core::core_arch::x86::avx::_mm256_set_pd
; Function Attrs: inlinehint nonlazybind uwtable
define internal void @_ZN4core9core_arch3x863avx13_mm256_set_pd17h679b06ed4b8e4f79E(<4 x double>* sret(<4 x double>) %0, double %a, double %b, double %c, double %d) unnamed_addr #3 !dbg !881 {
start:
  %d.dbg.spill4 = alloca double, align 8
  %c.dbg.spill3 = alloca double, align 8
  %b.dbg.spill2 = alloca double, align 8
  %a.dbg.spill1 = alloca double, align 8
  %d.dbg.spill = alloca double, align 8
  %c.dbg.spill = alloca double, align 8
  %b.dbg.spill = alloca double, align 8
  %a.dbg.spill = alloca double, align 8
  store double %a, double* %a.dbg.spill, align 8
  call void @llvm.dbg.declare(metadata double* %a.dbg.spill, metadata !887, metadata !DIExpression()), !dbg !891
  store double %b, double* %b.dbg.spill, align 8
  call void @llvm.dbg.declare(metadata double* %b.dbg.spill, metadata !888, metadata !DIExpression()), !dbg !892
  store double %c, double* %c.dbg.spill, align 8
  call void @llvm.dbg.declare(metadata double* %c.dbg.spill, metadata !889, metadata !DIExpression()), !dbg !893
  store double %d, double* %d.dbg.spill, align 8
  call void @llvm.dbg.declare(metadata double* %d.dbg.spill, metadata !890, metadata !DIExpression()), !dbg !894
  store double %d, double* %a.dbg.spill1, align 8, !dbg !895
  call void @llvm.dbg.declare(metadata double* %a.dbg.spill1, metadata !896, metadata !DIExpression()), !dbg !902
  store double %c, double* %b.dbg.spill2, align 8, !dbg !904
  call void @llvm.dbg.declare(metadata double* %b.dbg.spill2, metadata !899, metadata !DIExpression()), !dbg !902
  store double %b, double* %c.dbg.spill3, align 8, !dbg !905
  call void @llvm.dbg.declare(metadata double* %c.dbg.spill3, metadata !900, metadata !DIExpression()), !dbg !902
  store double %a, double* %d.dbg.spill4, align 8, !dbg !906
  call void @llvm.dbg.declare(metadata double* %d.dbg.spill4, metadata !901, metadata !DIExpression()), !dbg !902
  %1 = bitcast <4 x double>* %0 to double*, !dbg !902
  store double %d, double* %1, align 32, !dbg !902
  %2 = getelementptr inbounds <4 x double>, <4 x double>* %0, i32 0, i32 1, !dbg !902
  store double %c, double* %2, align 8, !dbg !902
  %3 = getelementptr inbounds <4 x double>, <4 x double>* %0, i32 0, i32 2, !dbg !902
  store double %b, double* %3, align 16, !dbg !902
  %4 = getelementptr inbounds <4 x double>, <4 x double>* %0, i32 0, i32 3, !dbg !902
  store double %a, double* %4, align 8, !dbg !902
  ret void, !dbg !907
}

; core::core_arch::x86::avx::_mm256_set1_ps
; Function Attrs: inlinehint nonlazybind uwtable
define internal void @_ZN4core9core_arch3x863avx14_mm256_set1_ps17hc256d779309cfed1E(<8 x float>* sret(<8 x float>) %0, float %a) unnamed_addr #3 !dbg !908 {
start:
  %h.dbg.spill = alloca float, align 4
  %g.dbg.spill = alloca float, align 4
  %f.dbg.spill = alloca float, align 4
  %e.dbg.spill = alloca float, align 4
  %d.dbg.spill = alloca float, align 4
  %c.dbg.spill = alloca float, align 4
  %b.dbg.spill = alloca float, align 4
  %a.dbg.spill1 = alloca float, align 4
  %a.dbg.spill = alloca float, align 4
  store float %a, float* %a.dbg.spill, align 4
  call void @llvm.dbg.declare(metadata float* %a.dbg.spill, metadata !912, metadata !DIExpression()), !dbg !913
  store float %a, float* %a.dbg.spill1, align 4, !dbg !914
  call void @llvm.dbg.declare(metadata float* %a.dbg.spill1, metadata !915, metadata !DIExpression()), !dbg !927
  store float %a, float* %b.dbg.spill, align 4, !dbg !929
  call void @llvm.dbg.declare(metadata float* %b.dbg.spill, metadata !920, metadata !DIExpression()), !dbg !927
  store float %a, float* %c.dbg.spill, align 4, !dbg !930
  call void @llvm.dbg.declare(metadata float* %c.dbg.spill, metadata !921, metadata !DIExpression()), !dbg !927
  store float %a, float* %d.dbg.spill, align 4, !dbg !931
  call void @llvm.dbg.declare(metadata float* %d.dbg.spill, metadata !922, metadata !DIExpression()), !dbg !927
  store float %a, float* %e.dbg.spill, align 4, !dbg !932
  call void @llvm.dbg.declare(metadata float* %e.dbg.spill, metadata !923, metadata !DIExpression()), !dbg !927
  store float %a, float* %f.dbg.spill, align 4, !dbg !933
  call void @llvm.dbg.declare(metadata float* %f.dbg.spill, metadata !924, metadata !DIExpression()), !dbg !927
  store float %a, float* %g.dbg.spill, align 4, !dbg !934
  call void @llvm.dbg.declare(metadata float* %g.dbg.spill, metadata !925, metadata !DIExpression()), !dbg !927
  store float %a, float* %h.dbg.spill, align 4, !dbg !935
  call void @llvm.dbg.declare(metadata float* %h.dbg.spill, metadata !926, metadata !DIExpression()), !dbg !927
  %1 = bitcast <8 x float>* %0 to float*, !dbg !927
  store float %a, float* %1, align 32, !dbg !927
  %2 = getelementptr inbounds <8 x float>, <8 x float>* %0, i32 0, i32 1, !dbg !927
  store float %a, float* %2, align 4, !dbg !927
  %3 = getelementptr inbounds <8 x float>, <8 x float>* %0, i32 0, i32 2, !dbg !927
  store float %a, float* %3, align 8, !dbg !927
  %4 = getelementptr inbounds <8 x float>, <8 x float>* %0, i32 0, i32 3, !dbg !927
  store float %a, float* %4, align 4, !dbg !927
  %5 = getelementptr inbounds <8 x float>, <8 x float>* %0, i32 0, i32 4, !dbg !927
  store float %a, float* %5, align 16, !dbg !927
  %6 = getelementptr inbounds <8 x float>, <8 x float>* %0, i32 0, i32 5, !dbg !927
  store float %a, float* %6, align 4, !dbg !927
  %7 = getelementptr inbounds <8 x float>, <8 x float>* %0, i32 0, i32 6, !dbg !927
  store float %a, float* %7, align 8, !dbg !927
  %8 = getelementptr inbounds <8 x float>, <8 x float>* %0, i32 0, i32 7, !dbg !927
  store float %a, float* %8, align 4, !dbg !927
  ret void, !dbg !936
}

; core::core_arch::x86::avx::_mm256_setr_pd
; Function Attrs: inlinehint nonlazybind uwtable
define internal void @_ZN4core9core_arch3x863avx14_mm256_setr_pd17h5528cfb7683f61c7E(<4 x double>* sret(<4 x double>) %0, double %a, double %b, double %c, double %d) unnamed_addr #3 !dbg !937 {
start:
  %d.dbg.spill = alloca double, align 8
  %c.dbg.spill = alloca double, align 8
  %b.dbg.spill = alloca double, align 8
  %a.dbg.spill = alloca double, align 8
  store double %a, double* %a.dbg.spill, align 8
  call void @llvm.dbg.declare(metadata double* %a.dbg.spill, metadata !939, metadata !DIExpression()), !dbg !943
  store double %b, double* %b.dbg.spill, align 8
  call void @llvm.dbg.declare(metadata double* %b.dbg.spill, metadata !940, metadata !DIExpression()), !dbg !944
  store double %c, double* %c.dbg.spill, align 8
  call void @llvm.dbg.declare(metadata double* %c.dbg.spill, metadata !941, metadata !DIExpression()), !dbg !945
  store double %d, double* %d.dbg.spill, align 8
  call void @llvm.dbg.declare(metadata double* %d.dbg.spill, metadata !942, metadata !DIExpression()), !dbg !946
  %1 = bitcast <4 x double>* %0 to double*, !dbg !947
  store double %a, double* %1, align 32, !dbg !947
  %2 = getelementptr inbounds <4 x double>, <4 x double>* %0, i32 0, i32 1, !dbg !947
  store double %b, double* %2, align 8, !dbg !947
  %3 = getelementptr inbounds <4 x double>, <4 x double>* %0, i32 0, i32 2, !dbg !947
  store double %c, double* %3, align 16, !dbg !947
  %4 = getelementptr inbounds <4 x double>, <4 x double>* %0, i32 0, i32 3, !dbg !947
  store double %d, double* %4, align 8, !dbg !947
  ret void, !dbg !948
}

; core::core_arch::x86::avx::_mm256_setr_ps
; Function Attrs: inlinehint nonlazybind uwtable
define internal void @_ZN4core9core_arch3x863avx14_mm256_setr_ps17h58dba69b9bc5e04cE(<8 x float>* sret(<8 x float>) %0, float %a, float %b, float %c, float %d, float %e, float %f, float %g, float %h) unnamed_addr #3 !dbg !949 {
start:
  %h.dbg.spill = alloca float, align 4
  %g.dbg.spill = alloca float, align 4
  %f.dbg.spill = alloca float, align 4
  %e.dbg.spill = alloca float, align 4
  %d.dbg.spill = alloca float, align 4
  %c.dbg.spill = alloca float, align 4
  %b.dbg.spill = alloca float, align 4
  %a.dbg.spill = alloca float, align 4
  store float %a, float* %a.dbg.spill, align 4
  call void @llvm.dbg.declare(metadata float* %a.dbg.spill, metadata !951, metadata !DIExpression()), !dbg !959
  store float %b, float* %b.dbg.spill, align 4
  call void @llvm.dbg.declare(metadata float* %b.dbg.spill, metadata !952, metadata !DIExpression()), !dbg !960
  store float %c, float* %c.dbg.spill, align 4
  call void @llvm.dbg.declare(metadata float* %c.dbg.spill, metadata !953, metadata !DIExpression()), !dbg !961
  store float %d, float* %d.dbg.spill, align 4
  call void @llvm.dbg.declare(metadata float* %d.dbg.spill, metadata !954, metadata !DIExpression()), !dbg !962
  store float %e, float* %e.dbg.spill, align 4
  call void @llvm.dbg.declare(metadata float* %e.dbg.spill, metadata !955, metadata !DIExpression()), !dbg !963
  store float %f, float* %f.dbg.spill, align 4
  call void @llvm.dbg.declare(metadata float* %f.dbg.spill, metadata !956, metadata !DIExpression()), !dbg !964
  store float %g, float* %g.dbg.spill, align 4
  call void @llvm.dbg.declare(metadata float* %g.dbg.spill, metadata !957, metadata !DIExpression()), !dbg !965
  store float %h, float* %h.dbg.spill, align 4
  call void @llvm.dbg.declare(metadata float* %h.dbg.spill, metadata !958, metadata !DIExpression()), !dbg !966
  %1 = bitcast <8 x float>* %0 to float*, !dbg !967
  store float %a, float* %1, align 32, !dbg !967
  %2 = getelementptr inbounds <8 x float>, <8 x float>* %0, i32 0, i32 1, !dbg !967
  store float %b, float* %2, align 4, !dbg !967
  %3 = getelementptr inbounds <8 x float>, <8 x float>* %0, i32 0, i32 2, !dbg !967
  store float %c, float* %3, align 8, !dbg !967
  %4 = getelementptr inbounds <8 x float>, <8 x float>* %0, i32 0, i32 3, !dbg !967
  store float %d, float* %4, align 4, !dbg !967
  %5 = getelementptr inbounds <8 x float>, <8 x float>* %0, i32 0, i32 4, !dbg !967
  store float %e, float* %5, align 16, !dbg !967
  %6 = getelementptr inbounds <8 x float>, <8 x float>* %0, i32 0, i32 5, !dbg !967
  store float %f, float* %6, align 4, !dbg !967
  %7 = getelementptr inbounds <8 x float>, <8 x float>* %0, i32 0, i32 6, !dbg !967
  store float %g, float* %7, align 8, !dbg !967
  %8 = getelementptr inbounds <8 x float>, <8 x float>* %0, i32 0, i32 7, !dbg !967
  store float %h, float* %8, align 4, !dbg !967
  ret void, !dbg !968
}

; core::core_arch::x86::avx::_mm256_set1_epi8
; Function Attrs: inlinehint nonlazybind uwtable
define internal void @_ZN4core9core_arch3x863avx16_mm256_set1_epi817hb44977f57f87386dE(<4 x i64>* sret(<4 x i64>) %0, i8 %a) unnamed_addr #3 !dbg !969 {
start:
  %a.dbg.spill = alloca i8, align 1
  store i8 %a, i8* %a.dbg.spill, align 1
  call void @llvm.dbg.declare(metadata i8* %a.dbg.spill, metadata !974, metadata !DIExpression()), !dbg !975
; call core::core_arch::x86::avx::_mm256_setr_epi8
  call void @_ZN4core9core_arch3x863avx16_mm256_setr_epi817h0c2720d211c2ddc0E(<4 x i64>* sret(<4 x i64>) %0, i8 %a, i8 %a, i8 %a, i8 %a, i8 %a, i8 %a, i8 %a, i8 %a, i8 %a, i8 %a, i8 %a, i8 %a, i8 %a, i8 %a, i8 %a, i8 %a, i8 %a, i8 %a, i8 %a, i8 %a, i8 %a, i8 %a, i8 %a, i8 %a, i8 %a, i8 %a, i8 %a, i8 %a, i8 %a, i8 %a, i8 %a, i8 %a), !dbg !976
  br label %bb1, !dbg !976

bb1:                                              ; preds = %start
  ret void, !dbg !977
}

; core::core_arch::x86::avx::_mm256_set_epi32
; Function Attrs: inlinehint nonlazybind uwtable
define internal void @_ZN4core9core_arch3x863avx16_mm256_set_epi3217hdea7835f5c6d2b35E(<4 x i64>* sret(<4 x i64>) %0, i32 %e0, i32 %e1, i32 %e2, i32 %e3, i32 %e4, i32 %e5, i32 %e6, i32 %e7) unnamed_addr #3 !dbg !978 {
start:
  %e7.dbg.spill = alloca i32, align 4
  %e6.dbg.spill = alloca i32, align 4
  %e5.dbg.spill = alloca i32, align 4
  %e4.dbg.spill = alloca i32, align 4
  %e3.dbg.spill = alloca i32, align 4
  %e2.dbg.spill = alloca i32, align 4
  %e1.dbg.spill = alloca i32, align 4
  %e0.dbg.spill = alloca i32, align 4
  store i32 %e0, i32* %e0.dbg.spill, align 4
  call void @llvm.dbg.declare(metadata i32* %e0.dbg.spill, metadata !983, metadata !DIExpression()), !dbg !991
  store i32 %e1, i32* %e1.dbg.spill, align 4
  call void @llvm.dbg.declare(metadata i32* %e1.dbg.spill, metadata !984, metadata !DIExpression()), !dbg !992
  store i32 %e2, i32* %e2.dbg.spill, align 4
  call void @llvm.dbg.declare(metadata i32* %e2.dbg.spill, metadata !985, metadata !DIExpression()), !dbg !993
  store i32 %e3, i32* %e3.dbg.spill, align 4
  call void @llvm.dbg.declare(metadata i32* %e3.dbg.spill, metadata !986, metadata !DIExpression()), !dbg !994
  store i32 %e4, i32* %e4.dbg.spill, align 4
  call void @llvm.dbg.declare(metadata i32* %e4.dbg.spill, metadata !987, metadata !DIExpression()), !dbg !995
  store i32 %e5, i32* %e5.dbg.spill, align 4
  call void @llvm.dbg.declare(metadata i32* %e5.dbg.spill, metadata !988, metadata !DIExpression()), !dbg !996
  store i32 %e6, i32* %e6.dbg.spill, align 4
  call void @llvm.dbg.declare(metadata i32* %e6.dbg.spill, metadata !989, metadata !DIExpression()), !dbg !997
  store i32 %e7, i32* %e7.dbg.spill, align 4
  call void @llvm.dbg.declare(metadata i32* %e7.dbg.spill, metadata !990, metadata !DIExpression()), !dbg !998
; call core::core_arch::x86::avx::_mm256_setr_epi32
  call void @_ZN4core9core_arch3x863avx17_mm256_setr_epi3217h079c5a2874b46c7aE(<4 x i64>* sret(<4 x i64>) %0, i32 %e7, i32 %e6, i32 %e5, i32 %e4, i32 %e3, i32 %e2, i32 %e1, i32 %e0), !dbg !999
  br label %bb1, !dbg !999

bb1:                                              ; preds = %start
  ret void, !dbg !1000
}

; core::core_arch::x86::avx::_mm256_setr_epi8
; Function Attrs: inlinehint nonlazybind uwtable
define internal void @_ZN4core9core_arch3x863avx16_mm256_setr_epi817h0c2720d211c2ddc0E(<4 x i64>* sret(<4 x i64>) %0, i8 %e00, i8 %e01, i8 %e02, i8 %e03, i8 %e04, i8 %e05, i8 %e06, i8 %e07, i8 %e08, i8 %e09, i8 %e10, i8 %e11, i8 %e12, i8 %e13, i8 %e14, i8 %e15, i8 %e16, i8 %e17, i8 %e18, i8 %e19, i8 %e20, i8 %e21, i8 %e22, i8 %e23, i8 %e24, i8 %e25, i8 %e26, i8 %e27, i8 %e28, i8 %e29, i8 %e30, i8 %e31) unnamed_addr #3 !dbg !1001 {
start:
  %x31.dbg.spill = alloca i8, align 1
  %x30.dbg.spill = alloca i8, align 1
  %x29.dbg.spill = alloca i8, align 1
  %x28.dbg.spill = alloca i8, align 1
  %x27.dbg.spill = alloca i8, align 1
  %x26.dbg.spill = alloca i8, align 1
  %x25.dbg.spill = alloca i8, align 1
  %x24.dbg.spill = alloca i8, align 1
  %x23.dbg.spill = alloca i8, align 1
  %x22.dbg.spill = alloca i8, align 1
  %x21.dbg.spill = alloca i8, align 1
  %x20.dbg.spill = alloca i8, align 1
  %x19.dbg.spill = alloca i8, align 1
  %x18.dbg.spill = alloca i8, align 1
  %x17.dbg.spill = alloca i8, align 1
  %x16.dbg.spill = alloca i8, align 1
  %x15.dbg.spill = alloca i8, align 1
  %x14.dbg.spill = alloca i8, align 1
  %x13.dbg.spill = alloca i8, align 1
  %x12.dbg.spill = alloca i8, align 1
  %x11.dbg.spill = alloca i8, align 1
  %x10.dbg.spill = alloca i8, align 1
  %x9.dbg.spill = alloca i8, align 1
  %x8.dbg.spill = alloca i8, align 1
  %x7.dbg.spill = alloca i8, align 1
  %x6.dbg.spill = alloca i8, align 1
  %x5.dbg.spill = alloca i8, align 1
  %x4.dbg.spill = alloca i8, align 1
  %x3.dbg.spill = alloca i8, align 1
  %x2.dbg.spill = alloca i8, align 1
  %x1.dbg.spill = alloca i8, align 1
  %x0.dbg.spill = alloca i8, align 1
  %e31.dbg.spill = alloca i8, align 1
  %e30.dbg.spill = alloca i8, align 1
  %e29.dbg.spill = alloca i8, align 1
  %e28.dbg.spill = alloca i8, align 1
  %e27.dbg.spill = alloca i8, align 1
  %e26.dbg.spill = alloca i8, align 1
  %e25.dbg.spill = alloca i8, align 1
  %e24.dbg.spill = alloca i8, align 1
  %e23.dbg.spill = alloca i8, align 1
  %e22.dbg.spill = alloca i8, align 1
  %e21.dbg.spill = alloca i8, align 1
  %e20.dbg.spill = alloca i8, align 1
  %e19.dbg.spill = alloca i8, align 1
  %e18.dbg.spill = alloca i8, align 1
  %e17.dbg.spill = alloca i8, align 1
  %e16.dbg.spill = alloca i8, align 1
  %e15.dbg.spill = alloca i8, align 1
  %e14.dbg.spill = alloca i8, align 1
  %e13.dbg.spill = alloca i8, align 1
  %e12.dbg.spill = alloca i8, align 1
  %e11.dbg.spill = alloca i8, align 1
  %e10.dbg.spill = alloca i8, align 1
  %e09.dbg.spill = alloca i8, align 1
  %e08.dbg.spill = alloca i8, align 1
  %e07.dbg.spill = alloca i8, align 1
  %e06.dbg.spill = alloca i8, align 1
  %e05.dbg.spill = alloca i8, align 1
  %e04.dbg.spill = alloca i8, align 1
  %e03.dbg.spill = alloca i8, align 1
  %e02.dbg.spill = alloca i8, align 1
  %e01.dbg.spill = alloca i8, align 1
  %e00.dbg.spill = alloca i8, align 1
  %_33 = alloca <32 x i8>, align 32
  store i8 %e00, i8* %e00.dbg.spill, align 1
  call void @llvm.dbg.declare(metadata i8* %e00.dbg.spill, metadata !1005, metadata !DIExpression()), !dbg !1037
  store i8 %e01, i8* %e01.dbg.spill, align 1
  call void @llvm.dbg.declare(metadata i8* %e01.dbg.spill, metadata !1006, metadata !DIExpression()), !dbg !1038
  store i8 %e02, i8* %e02.dbg.spill, align 1
  call void @llvm.dbg.declare(metadata i8* %e02.dbg.spill, metadata !1007, metadata !DIExpression()), !dbg !1039
  store i8 %e03, i8* %e03.dbg.spill, align 1
  call void @llvm.dbg.declare(metadata i8* %e03.dbg.spill, metadata !1008, metadata !DIExpression()), !dbg !1040
  store i8 %e04, i8* %e04.dbg.spill, align 1
  call void @llvm.dbg.declare(metadata i8* %e04.dbg.spill, metadata !1009, metadata !DIExpression()), !dbg !1041
  store i8 %e05, i8* %e05.dbg.spill, align 1
  call void @llvm.dbg.declare(metadata i8* %e05.dbg.spill, metadata !1010, metadata !DIExpression()), !dbg !1042
  store i8 %e06, i8* %e06.dbg.spill, align 1
  call void @llvm.dbg.declare(metadata i8* %e06.dbg.spill, metadata !1011, metadata !DIExpression()), !dbg !1043
  store i8 %e07, i8* %e07.dbg.spill, align 1
  call void @llvm.dbg.declare(metadata i8* %e07.dbg.spill, metadata !1012, metadata !DIExpression()), !dbg !1044
  store i8 %e08, i8* %e08.dbg.spill, align 1
  call void @llvm.dbg.declare(metadata i8* %e08.dbg.spill, metadata !1013, metadata !DIExpression()), !dbg !1045
  store i8 %e09, i8* %e09.dbg.spill, align 1
  call void @llvm.dbg.declare(metadata i8* %e09.dbg.spill, metadata !1014, metadata !DIExpression()), !dbg !1046
  store i8 %e10, i8* %e10.dbg.spill, align 1
  call void @llvm.dbg.declare(metadata i8* %e10.dbg.spill, metadata !1015, metadata !DIExpression()), !dbg !1047
  store i8 %e11, i8* %e11.dbg.spill, align 1
  call void @llvm.dbg.declare(metadata i8* %e11.dbg.spill, metadata !1016, metadata !DIExpression()), !dbg !1048
  store i8 %e12, i8* %e12.dbg.spill, align 1
  call void @llvm.dbg.declare(metadata i8* %e12.dbg.spill, metadata !1017, metadata !DIExpression()), !dbg !1049
  store i8 %e13, i8* %e13.dbg.spill, align 1
  call void @llvm.dbg.declare(metadata i8* %e13.dbg.spill, metadata !1018, metadata !DIExpression()), !dbg !1050
  store i8 %e14, i8* %e14.dbg.spill, align 1
  call void @llvm.dbg.declare(metadata i8* %e14.dbg.spill, metadata !1019, metadata !DIExpression()), !dbg !1051
  store i8 %e15, i8* %e15.dbg.spill, align 1
  call void @llvm.dbg.declare(metadata i8* %e15.dbg.spill, metadata !1020, metadata !DIExpression()), !dbg !1052
  store i8 %e16, i8* %e16.dbg.spill, align 1
  call void @llvm.dbg.declare(metadata i8* %e16.dbg.spill, metadata !1021, metadata !DIExpression()), !dbg !1053
  store i8 %e17, i8* %e17.dbg.spill, align 1
  call void @llvm.dbg.declare(metadata i8* %e17.dbg.spill, metadata !1022, metadata !DIExpression()), !dbg !1054
  store i8 %e18, i8* %e18.dbg.spill, align 1
  call void @llvm.dbg.declare(metadata i8* %e18.dbg.spill, metadata !1023, metadata !DIExpression()), !dbg !1055
  store i8 %e19, i8* %e19.dbg.spill, align 1
  call void @llvm.dbg.declare(metadata i8* %e19.dbg.spill, metadata !1024, metadata !DIExpression()), !dbg !1056
  store i8 %e20, i8* %e20.dbg.spill, align 1
  call void @llvm.dbg.declare(metadata i8* %e20.dbg.spill, metadata !1025, metadata !DIExpression()), !dbg !1057
  store i8 %e21, i8* %e21.dbg.spill, align 1
  call void @llvm.dbg.declare(metadata i8* %e21.dbg.spill, metadata !1026, metadata !DIExpression()), !dbg !1058
  store i8 %e22, i8* %e22.dbg.spill, align 1
  call void @llvm.dbg.declare(metadata i8* %e22.dbg.spill, metadata !1027, metadata !DIExpression()), !dbg !1059
  store i8 %e23, i8* %e23.dbg.spill, align 1
  call void @llvm.dbg.declare(metadata i8* %e23.dbg.spill, metadata !1028, metadata !DIExpression()), !dbg !1060
  store i8 %e24, i8* %e24.dbg.spill, align 1
  call void @llvm.dbg.declare(metadata i8* %e24.dbg.spill, metadata !1029, metadata !DIExpression()), !dbg !1061
  store i8 %e25, i8* %e25.dbg.spill, align 1
  call void @llvm.dbg.declare(metadata i8* %e25.dbg.spill, metadata !1030, metadata !DIExpression()), !dbg !1062
  store i8 %e26, i8* %e26.dbg.spill, align 1
  call void @llvm.dbg.declare(metadata i8* %e26.dbg.spill, metadata !1031, metadata !DIExpression()), !dbg !1063
  store i8 %e27, i8* %e27.dbg.spill, align 1
  call void @llvm.dbg.declare(metadata i8* %e27.dbg.spill, metadata !1032, metadata !DIExpression()), !dbg !1064
  store i8 %e28, i8* %e28.dbg.spill, align 1
  call void @llvm.dbg.declare(metadata i8* %e28.dbg.spill, metadata !1033, metadata !DIExpression()), !dbg !1065
  store i8 %e29, i8* %e29.dbg.spill, align 1
  call void @llvm.dbg.declare(metadata i8* %e29.dbg.spill, metadata !1034, metadata !DIExpression()), !dbg !1066
  store i8 %e30, i8* %e30.dbg.spill, align 1
  call void @llvm.dbg.declare(metadata i8* %e30.dbg.spill, metadata !1035, metadata !DIExpression()), !dbg !1067
  store i8 %e31, i8* %e31.dbg.spill, align 1
  call void @llvm.dbg.declare(metadata i8* %e31.dbg.spill, metadata !1036, metadata !DIExpression()), !dbg !1068
  store i8 %e00, i8* %x0.dbg.spill, align 1, !dbg !1069
  call void @llvm.dbg.declare(metadata i8* %x0.dbg.spill, metadata !1070, metadata !DIExpression()), !dbg !1143
  store i8 %e01, i8* %x1.dbg.spill, align 1, !dbg !1145
  call void @llvm.dbg.declare(metadata i8* %x1.dbg.spill, metadata !1112, metadata !DIExpression()), !dbg !1143
  store i8 %e02, i8* %x2.dbg.spill, align 1, !dbg !1146
  call void @llvm.dbg.declare(metadata i8* %x2.dbg.spill, metadata !1113, metadata !DIExpression()), !dbg !1143
  store i8 %e03, i8* %x3.dbg.spill, align 1, !dbg !1147
  call void @llvm.dbg.declare(metadata i8* %x3.dbg.spill, metadata !1114, metadata !DIExpression()), !dbg !1143
  store i8 %e04, i8* %x4.dbg.spill, align 1, !dbg !1148
  call void @llvm.dbg.declare(metadata i8* %x4.dbg.spill, metadata !1115, metadata !DIExpression()), !dbg !1143
  store i8 %e05, i8* %x5.dbg.spill, align 1, !dbg !1149
  call void @llvm.dbg.declare(metadata i8* %x5.dbg.spill, metadata !1116, metadata !DIExpression()), !dbg !1143
  store i8 %e06, i8* %x6.dbg.spill, align 1, !dbg !1150
  call void @llvm.dbg.declare(metadata i8* %x6.dbg.spill, metadata !1117, metadata !DIExpression()), !dbg !1143
  store i8 %e07, i8* %x7.dbg.spill, align 1, !dbg !1151
  call void @llvm.dbg.declare(metadata i8* %x7.dbg.spill, metadata !1118, metadata !DIExpression()), !dbg !1143
  store i8 %e08, i8* %x8.dbg.spill, align 1, !dbg !1152
  call void @llvm.dbg.declare(metadata i8* %x8.dbg.spill, metadata !1119, metadata !DIExpression()), !dbg !1143
  store i8 %e09, i8* %x9.dbg.spill, align 1, !dbg !1153
  call void @llvm.dbg.declare(metadata i8* %x9.dbg.spill, metadata !1120, metadata !DIExpression()), !dbg !1143
  store i8 %e10, i8* %x10.dbg.spill, align 1, !dbg !1154
  call void @llvm.dbg.declare(metadata i8* %x10.dbg.spill, metadata !1121, metadata !DIExpression()), !dbg !1143
  store i8 %e11, i8* %x11.dbg.spill, align 1, !dbg !1155
  call void @llvm.dbg.declare(metadata i8* %x11.dbg.spill, metadata !1122, metadata !DIExpression()), !dbg !1143
  store i8 %e12, i8* %x12.dbg.spill, align 1, !dbg !1156
  call void @llvm.dbg.declare(metadata i8* %x12.dbg.spill, metadata !1123, metadata !DIExpression()), !dbg !1143
  store i8 %e13, i8* %x13.dbg.spill, align 1, !dbg !1157
  call void @llvm.dbg.declare(metadata i8* %x13.dbg.spill, metadata !1124, metadata !DIExpression()), !dbg !1143
  store i8 %e14, i8* %x14.dbg.spill, align 1, !dbg !1158
  call void @llvm.dbg.declare(metadata i8* %x14.dbg.spill, metadata !1125, metadata !DIExpression()), !dbg !1143
  store i8 %e15, i8* %x15.dbg.spill, align 1, !dbg !1159
  call void @llvm.dbg.declare(metadata i8* %x15.dbg.spill, metadata !1126, metadata !DIExpression()), !dbg !1143
  store i8 %e16, i8* %x16.dbg.spill, align 1, !dbg !1160
  call void @llvm.dbg.declare(metadata i8* %x16.dbg.spill, metadata !1127, metadata !DIExpression()), !dbg !1143
  store i8 %e17, i8* %x17.dbg.spill, align 1, !dbg !1161
  call void @llvm.dbg.declare(metadata i8* %x17.dbg.spill, metadata !1128, metadata !DIExpression()), !dbg !1143
  store i8 %e18, i8* %x18.dbg.spill, align 1, !dbg !1162
  call void @llvm.dbg.declare(metadata i8* %x18.dbg.spill, metadata !1129, metadata !DIExpression()), !dbg !1143
  store i8 %e19, i8* %x19.dbg.spill, align 1, !dbg !1163
  call void @llvm.dbg.declare(metadata i8* %x19.dbg.spill, metadata !1130, metadata !DIExpression()), !dbg !1143
  store i8 %e20, i8* %x20.dbg.spill, align 1, !dbg !1164
  call void @llvm.dbg.declare(metadata i8* %x20.dbg.spill, metadata !1131, metadata !DIExpression()), !dbg !1143
  store i8 %e21, i8* %x21.dbg.spill, align 1, !dbg !1165
  call void @llvm.dbg.declare(metadata i8* %x21.dbg.spill, metadata !1132, metadata !DIExpression()), !dbg !1143
  store i8 %e22, i8* %x22.dbg.spill, align 1, !dbg !1166
  call void @llvm.dbg.declare(metadata i8* %x22.dbg.spill, metadata !1133, metadata !DIExpression()), !dbg !1143
  store i8 %e23, i8* %x23.dbg.spill, align 1, !dbg !1167
  call void @llvm.dbg.declare(metadata i8* %x23.dbg.spill, metadata !1134, metadata !DIExpression()), !dbg !1143
  store i8 %e24, i8* %x24.dbg.spill, align 1, !dbg !1168
  call void @llvm.dbg.declare(metadata i8* %x24.dbg.spill, metadata !1135, metadata !DIExpression()), !dbg !1143
  store i8 %e25, i8* %x25.dbg.spill, align 1, !dbg !1169
  call void @llvm.dbg.declare(metadata i8* %x25.dbg.spill, metadata !1136, metadata !DIExpression()), !dbg !1143
  store i8 %e26, i8* %x26.dbg.spill, align 1, !dbg !1170
  call void @llvm.dbg.declare(metadata i8* %x26.dbg.spill, metadata !1137, metadata !DIExpression()), !dbg !1143
  store i8 %e27, i8* %x27.dbg.spill, align 1, !dbg !1171
  call void @llvm.dbg.declare(metadata i8* %x27.dbg.spill, metadata !1138, metadata !DIExpression()), !dbg !1143
  store i8 %e28, i8* %x28.dbg.spill, align 1, !dbg !1172
  call void @llvm.dbg.declare(metadata i8* %x28.dbg.spill, metadata !1139, metadata !DIExpression()), !dbg !1143
  store i8 %e29, i8* %x29.dbg.spill, align 1, !dbg !1173
  call void @llvm.dbg.declare(metadata i8* %x29.dbg.spill, metadata !1140, metadata !DIExpression()), !dbg !1143
  store i8 %e30, i8* %x30.dbg.spill, align 1, !dbg !1174
  call void @llvm.dbg.declare(metadata i8* %x30.dbg.spill, metadata !1141, metadata !DIExpression()), !dbg !1143
  store i8 %e31, i8* %x31.dbg.spill, align 1, !dbg !1175
  call void @llvm.dbg.declare(metadata i8* %x31.dbg.spill, metadata !1142, metadata !DIExpression()), !dbg !1143
  %1 = bitcast <32 x i8>* %_33 to i8*, !dbg !1143
  store i8 %e00, i8* %1, align 32, !dbg !1143
  %2 = getelementptr inbounds <32 x i8>, <32 x i8>* %_33, i32 0, i32 1, !dbg !1143
  store i8 %e01, i8* %2, align 1, !dbg !1143
  %3 = getelementptr inbounds <32 x i8>, <32 x i8>* %_33, i32 0, i32 2, !dbg !1143
  store i8 %e02, i8* %3, align 2, !dbg !1143
  %4 = getelementptr inbounds <32 x i8>, <32 x i8>* %_33, i32 0, i32 3, !dbg !1143
  store i8 %e03, i8* %4, align 1, !dbg !1143
  %5 = getelementptr inbounds <32 x i8>, <32 x i8>* %_33, i32 0, i32 4, !dbg !1143
  store i8 %e04, i8* %5, align 4, !dbg !1143
  %6 = getelementptr inbounds <32 x i8>, <32 x i8>* %_33, i32 0, i32 5, !dbg !1143
  store i8 %e05, i8* %6, align 1, !dbg !1143
  %7 = getelementptr inbounds <32 x i8>, <32 x i8>* %_33, i32 0, i32 6, !dbg !1143
  store i8 %e06, i8* %7, align 2, !dbg !1143
  %8 = getelementptr inbounds <32 x i8>, <32 x i8>* %_33, i32 0, i32 7, !dbg !1143
  store i8 %e07, i8* %8, align 1, !dbg !1143
  %9 = getelementptr inbounds <32 x i8>, <32 x i8>* %_33, i32 0, i32 8, !dbg !1143
  store i8 %e08, i8* %9, align 8, !dbg !1143
  %10 = getelementptr inbounds <32 x i8>, <32 x i8>* %_33, i32 0, i32 9, !dbg !1143
  store i8 %e09, i8* %10, align 1, !dbg !1143
  %11 = getelementptr inbounds <32 x i8>, <32 x i8>* %_33, i32 0, i32 10, !dbg !1143
  store i8 %e10, i8* %11, align 2, !dbg !1143
  %12 = getelementptr inbounds <32 x i8>, <32 x i8>* %_33, i32 0, i32 11, !dbg !1143
  store i8 %e11, i8* %12, align 1, !dbg !1143
  %13 = getelementptr inbounds <32 x i8>, <32 x i8>* %_33, i32 0, i32 12, !dbg !1143
  store i8 %e12, i8* %13, align 4, !dbg !1143
  %14 = getelementptr inbounds <32 x i8>, <32 x i8>* %_33, i32 0, i32 13, !dbg !1143
  store i8 %e13, i8* %14, align 1, !dbg !1143
  %15 = getelementptr inbounds <32 x i8>, <32 x i8>* %_33, i32 0, i32 14, !dbg !1143
  store i8 %e14, i8* %15, align 2, !dbg !1143
  %16 = getelementptr inbounds <32 x i8>, <32 x i8>* %_33, i32 0, i32 15, !dbg !1143
  store i8 %e15, i8* %16, align 1, !dbg !1143
  %17 = getelementptr inbounds <32 x i8>, <32 x i8>* %_33, i32 0, i32 16, !dbg !1143
  store i8 %e16, i8* %17, align 16, !dbg !1143
  %18 = getelementptr inbounds <32 x i8>, <32 x i8>* %_33, i32 0, i32 17, !dbg !1143
  store i8 %e17, i8* %18, align 1, !dbg !1143
  %19 = getelementptr inbounds <32 x i8>, <32 x i8>* %_33, i32 0, i32 18, !dbg !1143
  store i8 %e18, i8* %19, align 2, !dbg !1143
  %20 = getelementptr inbounds <32 x i8>, <32 x i8>* %_33, i32 0, i32 19, !dbg !1143
  store i8 %e19, i8* %20, align 1, !dbg !1143
  %21 = getelementptr inbounds <32 x i8>, <32 x i8>* %_33, i32 0, i32 20, !dbg !1143
  store i8 %e20, i8* %21, align 4, !dbg !1143
  %22 = getelementptr inbounds <32 x i8>, <32 x i8>* %_33, i32 0, i32 21, !dbg !1143
  store i8 %e21, i8* %22, align 1, !dbg !1143
  %23 = getelementptr inbounds <32 x i8>, <32 x i8>* %_33, i32 0, i32 22, !dbg !1143
  store i8 %e22, i8* %23, align 2, !dbg !1143
  %24 = getelementptr inbounds <32 x i8>, <32 x i8>* %_33, i32 0, i32 23, !dbg !1143
  store i8 %e23, i8* %24, align 1, !dbg !1143
  %25 = getelementptr inbounds <32 x i8>, <32 x i8>* %_33, i32 0, i32 24, !dbg !1143
  store i8 %e24, i8* %25, align 8, !dbg !1143
  %26 = getelementptr inbounds <32 x i8>, <32 x i8>* %_33, i32 0, i32 25, !dbg !1143
  store i8 %e25, i8* %26, align 1, !dbg !1143
  %27 = getelementptr inbounds <32 x i8>, <32 x i8>* %_33, i32 0, i32 26, !dbg !1143
  store i8 %e26, i8* %27, align 2, !dbg !1143
  %28 = getelementptr inbounds <32 x i8>, <32 x i8>* %_33, i32 0, i32 27, !dbg !1143
  store i8 %e27, i8* %28, align 1, !dbg !1143
  %29 = getelementptr inbounds <32 x i8>, <32 x i8>* %_33, i32 0, i32 28, !dbg !1143
  store i8 %e28, i8* %29, align 4, !dbg !1143
  %30 = getelementptr inbounds <32 x i8>, <32 x i8>* %_33, i32 0, i32 29, !dbg !1143
  store i8 %e29, i8* %30, align 1, !dbg !1143
  %31 = getelementptr inbounds <32 x i8>, <32 x i8>* %_33, i32 0, i32 30, !dbg !1143
  store i8 %e30, i8* %31, align 2, !dbg !1143
  %32 = getelementptr inbounds <32 x i8>, <32 x i8>* %_33, i32 0, i32 31, !dbg !1143
  store i8 %e31, i8* %32, align 1, !dbg !1143
  %33 = load <32 x i8>, <32 x i8>* %_33, align 32, !dbg !1176
  %34 = bitcast <4 x i64>* %0 to <32 x i8>*, !dbg !1176
  store <32 x i8> %33, <32 x i8>* %34, align 32, !dbg !1176
  br label %bb1, !dbg !1176

bb1:                                              ; preds = %start
  ret void, !dbg !1177
}

; core::core_arch::x86::avx::_mm256_setr_epi32
; Function Attrs: inlinehint nonlazybind uwtable
define internal void @_ZN4core9core_arch3x863avx17_mm256_setr_epi3217h079c5a2874b46c7aE(<4 x i64>* sret(<4 x i64>) %0, i32 %e0, i32 %e1, i32 %e2, i32 %e3, i32 %e4, i32 %e5, i32 %e6, i32 %e7) unnamed_addr #3 !dbg !1178 {
start:
  %x7.dbg.spill = alloca i32, align 4
  %x6.dbg.spill = alloca i32, align 4
  %x5.dbg.spill = alloca i32, align 4
  %x4.dbg.spill = alloca i32, align 4
  %x3.dbg.spill = alloca i32, align 4
  %x2.dbg.spill = alloca i32, align 4
  %x1.dbg.spill = alloca i32, align 4
  %x0.dbg.spill = alloca i32, align 4
  %e7.dbg.spill = alloca i32, align 4
  %e6.dbg.spill = alloca i32, align 4
  %e5.dbg.spill = alloca i32, align 4
  %e4.dbg.spill = alloca i32, align 4
  %e3.dbg.spill = alloca i32, align 4
  %e2.dbg.spill = alloca i32, align 4
  %e1.dbg.spill = alloca i32, align 4
  %e0.dbg.spill = alloca i32, align 4
  %_9 = alloca <8 x i32>, align 32
  store i32 %e0, i32* %e0.dbg.spill, align 4
  call void @llvm.dbg.declare(metadata i32* %e0.dbg.spill, metadata !1180, metadata !DIExpression()), !dbg !1188
  store i32 %e1, i32* %e1.dbg.spill, align 4
  call void @llvm.dbg.declare(metadata i32* %e1.dbg.spill, metadata !1181, metadata !DIExpression()), !dbg !1189
  store i32 %e2, i32* %e2.dbg.spill, align 4
  call void @llvm.dbg.declare(metadata i32* %e2.dbg.spill, metadata !1182, metadata !DIExpression()), !dbg !1190
  store i32 %e3, i32* %e3.dbg.spill, align 4
  call void @llvm.dbg.declare(metadata i32* %e3.dbg.spill, metadata !1183, metadata !DIExpression()), !dbg !1191
  store i32 %e4, i32* %e4.dbg.spill, align 4
  call void @llvm.dbg.declare(metadata i32* %e4.dbg.spill, metadata !1184, metadata !DIExpression()), !dbg !1192
  store i32 %e5, i32* %e5.dbg.spill, align 4
  call void @llvm.dbg.declare(metadata i32* %e5.dbg.spill, metadata !1185, metadata !DIExpression()), !dbg !1193
  store i32 %e6, i32* %e6.dbg.spill, align 4
  call void @llvm.dbg.declare(metadata i32* %e6.dbg.spill, metadata !1186, metadata !DIExpression()), !dbg !1194
  store i32 %e7, i32* %e7.dbg.spill, align 4
  call void @llvm.dbg.declare(metadata i32* %e7.dbg.spill, metadata !1187, metadata !DIExpression()), !dbg !1195
  store i32 %e0, i32* %x0.dbg.spill, align 4, !dbg !1196
  call void @llvm.dbg.declare(metadata i32* %x0.dbg.spill, metadata !1197, metadata !DIExpression()), !dbg !1220
  store i32 %e1, i32* %x1.dbg.spill, align 4, !dbg !1222
  call void @llvm.dbg.declare(metadata i32* %x1.dbg.spill, metadata !1213, metadata !DIExpression()), !dbg !1220
  store i32 %e2, i32* %x2.dbg.spill, align 4, !dbg !1223
  call void @llvm.dbg.declare(metadata i32* %x2.dbg.spill, metadata !1214, metadata !DIExpression()), !dbg !1220
  store i32 %e3, i32* %x3.dbg.spill, align 4, !dbg !1224
  call void @llvm.dbg.declare(metadata i32* %x3.dbg.spill, metadata !1215, metadata !DIExpression()), !dbg !1220
  store i32 %e4, i32* %x4.dbg.spill, align 4, !dbg !1225
  call void @llvm.dbg.declare(metadata i32* %x4.dbg.spill, metadata !1216, metadata !DIExpression()), !dbg !1220
  store i32 %e5, i32* %x5.dbg.spill, align 4, !dbg !1226
  call void @llvm.dbg.declare(metadata i32* %x5.dbg.spill, metadata !1217, metadata !DIExpression()), !dbg !1220
  store i32 %e6, i32* %x6.dbg.spill, align 4, !dbg !1227
  call void @llvm.dbg.declare(metadata i32* %x6.dbg.spill, metadata !1218, metadata !DIExpression()), !dbg !1220
  store i32 %e7, i32* %x7.dbg.spill, align 4, !dbg !1228
  call void @llvm.dbg.declare(metadata i32* %x7.dbg.spill, metadata !1219, metadata !DIExpression()), !dbg !1220
  %1 = bitcast <8 x i32>* %_9 to i32*, !dbg !1220
  store i32 %e0, i32* %1, align 32, !dbg !1220
  %2 = getelementptr inbounds <8 x i32>, <8 x i32>* %_9, i32 0, i32 1, !dbg !1220
  store i32 %e1, i32* %2, align 4, !dbg !1220
  %3 = getelementptr inbounds <8 x i32>, <8 x i32>* %_9, i32 0, i32 2, !dbg !1220
  store i32 %e2, i32* %3, align 8, !dbg !1220
  %4 = getelementptr inbounds <8 x i32>, <8 x i32>* %_9, i32 0, i32 3, !dbg !1220
  store i32 %e3, i32* %4, align 4, !dbg !1220
  %5 = getelementptr inbounds <8 x i32>, <8 x i32>* %_9, i32 0, i32 4, !dbg !1220
  store i32 %e4, i32* %5, align 16, !dbg !1220
  %6 = getelementptr inbounds <8 x i32>, <8 x i32>* %_9, i32 0, i32 5, !dbg !1220
  store i32 %e5, i32* %6, align 4, !dbg !1220
  %7 = getelementptr inbounds <8 x i32>, <8 x i32>* %_9, i32 0, i32 6, !dbg !1220
  store i32 %e6, i32* %7, align 8, !dbg !1220
  %8 = getelementptr inbounds <8 x i32>, <8 x i32>* %_9, i32 0, i32 7, !dbg !1220
  store i32 %e7, i32* %8, align 4, !dbg !1220
  %9 = load <8 x i32>, <8 x i32>* %_9, align 32, !dbg !1229
  %10 = bitcast <4 x i64>* %0 to <8 x i32>*, !dbg !1229
  store <8 x i32> %9, <8 x i32>* %10, align 32, !dbg !1229
  br label %bb1, !dbg !1229

bb1:                                              ; preds = %start
  ret void, !dbg !1230
}

; core::core_arch::x86::avx::_mm256_setzero_pd
; Function Attrs: inlinehint nonlazybind uwtable
define internal void @_ZN4core9core_arch3x863avx17_mm256_setzero_pd17hb44c22e942dbc711E(<4 x double>* sret(<4 x double>) %0) unnamed_addr #3 !dbg !1231 {
start:
  %1 = bitcast <4 x double>* %0 to double*, !dbg !1234
  store double 0.000000e+00, double* %1, align 32, !dbg !1234
  %2 = getelementptr inbounds <4 x double>, <4 x double>* %0, i32 0, i32 1, !dbg !1234
  store double 0.000000e+00, double* %2, align 8, !dbg !1234
  %3 = getelementptr inbounds <4 x double>, <4 x double>* %0, i32 0, i32 2, !dbg !1234
  store double 0.000000e+00, double* %3, align 16, !dbg !1234
  %4 = getelementptr inbounds <4 x double>, <4 x double>* %0, i32 0, i32 3, !dbg !1234
  store double 0.000000e+00, double* %4, align 8, !dbg !1234
  ret void, !dbg !1248
}

; core::core_arch::x86::avx::_mm256_setzero_ps
; Function Attrs: inlinehint nonlazybind uwtable
define internal void @_ZN4core9core_arch3x863avx17_mm256_setzero_ps17hb4b004e0c3fe1e78E(<8 x float>* sret(<8 x float>) %0) unnamed_addr #3 !dbg !1249 {
start:
; call core::core_arch::x86::avx::_mm256_set1_ps
  call void @_ZN4core9core_arch3x863avx14_mm256_set1_ps17hc256d779309cfed1E(<8 x float>* sret(<8 x float>) %0, float 0.000000e+00), !dbg !1252
  br label %bb1, !dbg !1252

bb1:                                              ; preds = %start
  ret void, !dbg !1253
}

; core::core_arch::x86::avx::_mm256_shuffle_pd
; Function Attrs: inlinehint nonlazybind uwtable
define void @_ZN4core9core_arch3x863avx17_mm256_shuffle_pd17h466e4c3dd66107c2E(<4 x double>* sret(<4 x double>) %0, <4 x double>* %a, <4 x double>* %b) unnamed_addr #3 !dbg !1254 {
start:
  call void @llvm.dbg.declare(metadata <4 x double>* %a, metadata !1258, metadata !DIExpression()), !dbg !1260
  call void @llvm.dbg.declare(metadata <4 x double>* %b, metadata !1259, metadata !DIExpression()), !dbg !1261
  %_3 = load <4 x double>, <4 x double>* %a, align 32, !dbg !1262
  %_4 = load <4 x double>, <4 x double>* %b, align 32, !dbg !1263
  %1 = shufflevector <4 x double> %_3, <4 x double> %_4, <4 x i32> <i32 0, i32 4, i32 3, i32 7>, !dbg !1264
  store <4 x double> %1, <4 x double>* %0, align 32, !dbg !1264
  br label %bb1, !dbg !1264

bb1:                                              ; preds = %start
  ret void, !dbg !1265
}

; core::core_arch::x86::avx::_mm256_shuffle_ps
; Function Attrs: inlinehint nonlazybind uwtable
define void @_ZN4core9core_arch3x863avx17_mm256_shuffle_ps17hc1a4f0efbc433890E(<8 x float>* sret(<8 x float>) %0, <8 x float>* %a, <8 x float>* %b) unnamed_addr #3 !dbg !1266 {
start:
  call void @llvm.dbg.declare(metadata <8 x float>* %a, metadata !1270, metadata !DIExpression()), !dbg !1272
  call void @llvm.dbg.declare(metadata <8 x float>* %b, metadata !1271, metadata !DIExpression()), !dbg !1273
  %_3 = load <8 x float>, <8 x float>* %a, align 32, !dbg !1274
  %_4 = load <8 x float>, <8 x float>* %b, align 32, !dbg !1275
  %1 = shufflevector <8 x float> %_3, <8 x float> %_4, <8 x i32> <i32 1, i32 2, i32 10, i32 9, i32 5, i32 6, i32 14, i32 13>, !dbg !1276
  store <8 x float> %1, <8 x float>* %0, align 32, !dbg !1276
  br label %bb1, !dbg !1276

bb1:                                              ; preds = %start
  ret void, !dbg !1277
}

; core::core_arch::x86::avx::_mm256_setr_epi64x
; Function Attrs: inlinehint nonlazybind uwtable
define internal void @_ZN4core9core_arch3x863avx18_mm256_setr_epi64x17h7cd0a5471bdf35cdE(<4 x i64>* sret(<4 x i64>) %0, i64 %a, i64 %b, i64 %c, i64 %d) unnamed_addr #3 !dbg !1278 {
start:
  %x3.dbg.spill = alloca i64, align 8
  %x2.dbg.spill = alloca i64, align 8
  %x1.dbg.spill = alloca i64, align 8
  %x0.dbg.spill = alloca i64, align 8
  %d.dbg.spill = alloca i64, align 8
  %c.dbg.spill = alloca i64, align 8
  %b.dbg.spill = alloca i64, align 8
  %a.dbg.spill = alloca i64, align 8
  %_5 = alloca <4 x i64>, align 32
  store i64 %a, i64* %a.dbg.spill, align 8
  call void @llvm.dbg.declare(metadata i64* %a.dbg.spill, metadata !1282, metadata !DIExpression()), !dbg !1286
  store i64 %b, i64* %b.dbg.spill, align 8
  call void @llvm.dbg.declare(metadata i64* %b.dbg.spill, metadata !1283, metadata !DIExpression()), !dbg !1287
  store i64 %c, i64* %c.dbg.spill, align 8
  call void @llvm.dbg.declare(metadata i64* %c.dbg.spill, metadata !1284, metadata !DIExpression()), !dbg !1288
  store i64 %d, i64* %d.dbg.spill, align 8
  call void @llvm.dbg.declare(metadata i64* %d.dbg.spill, metadata !1285, metadata !DIExpression()), !dbg !1289
  store i64 %a, i64* %x0.dbg.spill, align 8, !dbg !1290
  call void @llvm.dbg.declare(metadata i64* %x0.dbg.spill, metadata !1291, metadata !DIExpression()), !dbg !1306
  store i64 %b, i64* %x1.dbg.spill, align 8, !dbg !1308
  call void @llvm.dbg.declare(metadata i64* %x1.dbg.spill, metadata !1303, metadata !DIExpression()), !dbg !1306
  store i64 %c, i64* %x2.dbg.spill, align 8, !dbg !1309
  call void @llvm.dbg.declare(metadata i64* %x2.dbg.spill, metadata !1304, metadata !DIExpression()), !dbg !1306
  store i64 %d, i64* %x3.dbg.spill, align 8, !dbg !1310
  call void @llvm.dbg.declare(metadata i64* %x3.dbg.spill, metadata !1305, metadata !DIExpression()), !dbg !1306
  %1 = bitcast <4 x i64>* %_5 to i64*, !dbg !1306
  store i64 %a, i64* %1, align 32, !dbg !1306
  %2 = getelementptr inbounds <4 x i64>, <4 x i64>* %_5, i32 0, i32 1, !dbg !1306
  store i64 %b, i64* %2, align 8, !dbg !1306
  %3 = getelementptr inbounds <4 x i64>, <4 x i64>* %_5, i32 0, i32 2, !dbg !1306
  store i64 %c, i64* %3, align 16, !dbg !1306
  %4 = getelementptr inbounds <4 x i64>, <4 x i64>* %_5, i32 0, i32 3, !dbg !1306
  store i64 %d, i64* %4, align 8, !dbg !1306
  %5 = load <4 x i64>, <4 x i64>* %_5, align 32, !dbg !1311
  store <4 x i64> %5, <4 x i64>* %0, align 32, !dbg !1311
  br label %bb1, !dbg !1311

bb1:                                              ; preds = %start
  ret void, !dbg !1312
}

; core::core_arch::x86::avx::_mm256_setzero_si256
; Function Attrs: inlinehint nonlazybind uwtable
define internal void @_ZN4core9core_arch3x863avx20_mm256_setzero_si25617h5e55636c758113f4E(<4 x i64>* sret(<4 x i64>) %0) unnamed_addr #3 !dbg !1313 {
start:
; call core::core_arch::x86::avx::_mm256_set1_epi8
  call void @_ZN4core9core_arch3x863avx16_mm256_set1_epi817hb44977f57f87386dE(<4 x i64>* sret(<4 x i64>) %0, i8 0), !dbg !1316
  br label %bb1, !dbg !1316

bb1:                                              ; preds = %start
  ret void, !dbg !1317
}

; core::core_arch::x86::avx::_mm256_permute2f128_pd
; Function Attrs: inlinehint nonlazybind uwtable
define void @_ZN4core9core_arch3x863avx22_mm256_permute2f128_pd17h746192d40325bcbfE(<4 x double>* sret(<4 x double>) %0, <4 x double>* %a, <4 x double>* %b) unnamed_addr #3 !dbg !1318 {
start:
  call void @llvm.dbg.declare(metadata <4 x double>* %a, metadata !1320, metadata !DIExpression()), !dbg !1322
  call void @llvm.dbg.declare(metadata <4 x double>* %b, metadata !1321, metadata !DIExpression()), !dbg !1323
  %_3 = load <4 x double>, <4 x double>* %a, align 32, !dbg !1324
  %_4 = load <4 x double>, <4 x double>* %b, align 32, !dbg !1325
  %1 = shufflevector <4 x double> %_3, <4 x double> %_4, <4 x i32> <i32 2, i32 3, i32 6, i32 7>, !dbg !1326
  store <4 x double> %1, <4 x double>* %0, align 32, !dbg !1326
  br label %bb1, !dbg !1326

bb1:                                              ; preds = %start
  ret void, !dbg !1327
}

; core::core_arch::x86::sse::_mm_setr_ps
; Function Attrs: inlinehint nonlazybind uwtable
define internal void @_ZN4core9core_arch3x863sse11_mm_setr_ps17hc63ceea413d76c7fE(<4 x float>* sret(<4 x float>) %0, float %a, float %b, float %c, float %d) unnamed_addr #4 !dbg !1328 {
start:
  %d.dbg.spill = alloca float, align 4
  %c.dbg.spill = alloca float, align 4
  %b.dbg.spill = alloca float, align 4
  %a.dbg.spill = alloca float, align 4
  store float %a, float* %a.dbg.spill, align 4
  call void @llvm.dbg.declare(metadata float* %a.dbg.spill, metadata !1334, metadata !DIExpression()), !dbg !1338
  store float %b, float* %b.dbg.spill, align 4
  call void @llvm.dbg.declare(metadata float* %b.dbg.spill, metadata !1335, metadata !DIExpression()), !dbg !1339
  store float %c, float* %c.dbg.spill, align 4
  call void @llvm.dbg.declare(metadata float* %c.dbg.spill, metadata !1336, metadata !DIExpression()), !dbg !1340
  store float %d, float* %d.dbg.spill, align 4
  call void @llvm.dbg.declare(metadata float* %d.dbg.spill, metadata !1337, metadata !DIExpression()), !dbg !1341
  %1 = bitcast <4 x float>* %0 to float*, !dbg !1342
  store float %a, float* %1, align 16, !dbg !1342
  %2 = getelementptr inbounds <4 x float>, <4 x float>* %0, i32 0, i32 1, !dbg !1342
  store float %b, float* %2, align 4, !dbg !1342
  %3 = getelementptr inbounds <4 x float>, <4 x float>* %0, i32 0, i32 2, !dbg !1342
  store float %c, float* %3, align 8, !dbg !1342
  %4 = getelementptr inbounds <4 x float>, <4 x float>* %0, i32 0, i32 3, !dbg !1342
  store float %d, float* %4, align 4, !dbg !1342
  ret void, !dbg !1343
}

; core::core_arch::x86::sse::_mm_setzero_ps
; Function Attrs: inlinehint nonlazybind uwtable
define internal void @_ZN4core9core_arch3x863sse14_mm_setzero_ps17h5c63b559505ae675E(<4 x float>* sret(<4 x float>) %0) unnamed_addr #4 !dbg !1344 {
start:
  %1 = bitcast <4 x float>* %0 to float*, !dbg !1347
  store float 0.000000e+00, float* %1, align 16, !dbg !1347
  %2 = getelementptr inbounds <4 x float>, <4 x float>* %0, i32 0, i32 1, !dbg !1347
  store float 0.000000e+00, float* %2, align 4, !dbg !1347
  %3 = getelementptr inbounds <4 x float>, <4 x float>* %0, i32 0, i32 2, !dbg !1347
  store float 0.000000e+00, float* %3, align 8, !dbg !1347
  %4 = getelementptr inbounds <4 x float>, <4 x float>* %0, i32 0, i32 3, !dbg !1347
  store float 0.000000e+00, float* %4, align 4, !dbg !1347
  ret void, !dbg !1348
}

; core::core_arch::x86::sse::_mm_shuffle_ps
; Function Attrs: inlinehint nonlazybind uwtable
define void @_ZN4core9core_arch3x863sse14_mm_shuffle_ps17ha4117e996205da05E(<4 x float>* sret(<4 x float>) %0, <4 x float>* %a, <4 x float>* %b) unnamed_addr #4 !dbg !1349 {
start:
  call void @llvm.dbg.declare(metadata <4 x float>* %a, metadata !1353, metadata !DIExpression()), !dbg !1355
  call void @llvm.dbg.declare(metadata <4 x float>* %b, metadata !1354, metadata !DIExpression()), !dbg !1356
  %_3 = load <4 x float>, <4 x float>* %a, align 16, !dbg !1357
  %_4 = load <4 x float>, <4 x float>* %b, align 16, !dbg !1358
  %1 = shufflevector <4 x float> %_3, <4 x float> %_4, <4 x i32> <i32 0, i32 1, i32 6, i32 7>, !dbg !1359
  store <4 x float> %1, <4 x float>* %0, align 16, !dbg !1359
  br label %bb1, !dbg !1359

bb1:                                              ; preds = %start
  ret void, !dbg !1360
}

; core::core_arch::x86::avx2::_mm256_alignr_epi8
; Function Attrs: inlinehint nonlazybind uwtable
define void @_ZN4core9core_arch3x864avx218_mm256_alignr_epi817ha2511c7510fb483cE(<4 x i64>* sret(<4 x i64>) %0, <4 x i64>* %a, <4 x i64>* %b) unnamed_addr #5 !dbg !1361 {
start:
  %b.dbg.spill9 = alloca <32 x i8>, align 32
  %1 = alloca <32 x i8>, align 32
  %self.dbg.spill7 = alloca <4 x i64>, align 32
  %self.dbg.spill6 = alloca <4 x i64>, align 32
  %a.dbg.spill5 = alloca <32 x i8>, align 32
  %2 = alloca <32 x i8>, align 32
  %self.dbg.spill3 = alloca <4 x i64>, align 32
  %self.dbg.spill = alloca <4 x i64>, align 32
  %b.dbg.spill = alloca <4 x i64>, align 32
  %a.dbg.spill = alloca <4 x i64>, align 32
  %3 = alloca <4 x i64>, align 32
  %r = alloca <32 x i8>, align 32
  %_6 = alloca { <4 x i64>, <4 x i64> }, align 32
  call void @llvm.dbg.declare(metadata <4 x i64>* %a, metadata !1367, metadata !DIExpression()), !dbg !1378
  call void @llvm.dbg.declare(metadata <4 x i64>* %b, metadata !1368, metadata !DIExpression()), !dbg !1379
  call void @llvm.dbg.declare(metadata <32 x i8>* %r, metadata !1376, metadata !DIExpression()), !dbg !1380
  br i1 false, label %bb1, label %bb2, !dbg !1381

bb2:                                              ; preds = %start
  br i1 false, label %bb3, label %bb4, !dbg !1382

bb1:                                              ; preds = %start
; call core::core_arch::x86::avx::_mm256_set1_epi8
  call void @_ZN4core9core_arch3x863avx16_mm256_set1_epi817hb44977f57f87386dE(<4 x i64>* sret(<4 x i64>) %0, i8 0), !dbg !1383
  br label %bb43, !dbg !1383

bb43:                                             ; preds = %bb1
  br label %bb44, !dbg !1384

bb44:                                             ; preds = %bb42, %bb43
  ret void, !dbg !1384

bb4:                                              ; preds = %bb2
  %_10 = load <4 x i64>, <4 x i64>* %a, align 32, !dbg !1385
  %_11 = load <4 x i64>, <4 x i64>* %b, align 32, !dbg !1386
  %4 = bitcast { <4 x i64>, <4 x i64> }* %_6 to <4 x i64>*, !dbg !1387
  store <4 x i64> %_10, <4 x i64>* %4, align 32, !dbg !1387
  %5 = getelementptr inbounds { <4 x i64>, <4 x i64> }, { <4 x i64>, <4 x i64> }* %_6, i32 0, i32 1, !dbg !1387
  store <4 x i64> %_11, <4 x i64>* %5, align 32, !dbg !1387
  br label %bb6, !dbg !1388

bb3:                                              ; preds = %bb2
; call core::core_arch::x86::avx::_mm256_set1_epi8
  call void @_ZN4core9core_arch3x863avx16_mm256_set1_epi817hb44977f57f87386dE(<4 x i64>* sret(<4 x i64>) %3, i8 0), !dbg !1389
  %_8 = load <4 x i64>, <4 x i64>* %3, align 32, !dbg !1389
  br label %bb5, !dbg !1389

bb5:                                              ; preds = %bb3
  %_9 = load <4 x i64>, <4 x i64>* %a, align 32, !dbg !1390
  %6 = bitcast { <4 x i64>, <4 x i64> }* %_6 to <4 x i64>*, !dbg !1391
  store <4 x i64> %_8, <4 x i64>* %6, align 32, !dbg !1391
  %7 = getelementptr inbounds { <4 x i64>, <4 x i64> }, { <4 x i64>, <4 x i64> }* %_6, i32 0, i32 1, !dbg !1391
  store <4 x i64> %_9, <4 x i64>* %7, align 32, !dbg !1391
  br label %bb6, !dbg !1388

bb6:                                              ; preds = %bb4, %bb5
  %8 = bitcast { <4 x i64>, <4 x i64> }* %_6 to <4 x i64>*, !dbg !1392
  %a1 = load <4 x i64>, <4 x i64>* %8, align 32, !dbg !1392
  store <4 x i64> %a1, <4 x i64>* %a.dbg.spill, align 32, !dbg !1392
  call void @llvm.dbg.declare(metadata <4 x i64>* %a.dbg.spill, metadata !1369, metadata !DIExpression()), !dbg !1393
  %9 = getelementptr inbounds { <4 x i64>, <4 x i64> }, { <4 x i64>, <4 x i64> }* %_6, i32 0, i32 1, !dbg !1394
  %b2 = load <4 x i64>, <4 x i64>* %9, align 32, !dbg !1394
  store <4 x i64> %b2, <4 x i64>* %b.dbg.spill, align 32, !dbg !1394
  call void @llvm.dbg.declare(metadata <4 x i64>* %b.dbg.spill, metadata !1371, metadata !DIExpression()), !dbg !1395
  store <4 x i64> %a1, <4 x i64>* %self.dbg.spill, align 32, !dbg !1396
  call void @llvm.dbg.declare(metadata <4 x i64>* %self.dbg.spill, metadata !1397, metadata !DIExpression()), !dbg !1407
  store <4 x i64> %a1, <4 x i64>* %self.dbg.spill3, align 32, !dbg !1407
  call void @llvm.dbg.declare(metadata <4 x i64>* %self.dbg.spill3, metadata !1408, metadata !DIExpression()), !dbg !1415
  %10 = bitcast <32 x i8>* %2 to <4 x i64>*, !dbg !1407
  store <4 x i64> %a1, <4 x i64>* %10, align 32, !dbg !1407
  %a4 = load <32 x i8>, <32 x i8>* %2, align 32, !dbg !1407
  store <32 x i8> %a4, <32 x i8>* %a.dbg.spill5, align 32, !dbg !1407
  call void @llvm.dbg.declare(metadata <32 x i8>* %a.dbg.spill5, metadata !1372, metadata !DIExpression()), !dbg !1417
  br label %bb45, !dbg !1407

bb45:                                             ; preds = %bb6
  store <4 x i64> %b2, <4 x i64>* %self.dbg.spill6, align 32, !dbg !1418
  call void @llvm.dbg.declare(metadata <4 x i64>* %self.dbg.spill6, metadata !1419, metadata !DIExpression()), !dbg !1423
  store <4 x i64> %b2, <4 x i64>* %self.dbg.spill7, align 32, !dbg !1423
  call void @llvm.dbg.declare(metadata <4 x i64>* %self.dbg.spill7, metadata !1424, metadata !DIExpression()), !dbg !1428
  %11 = bitcast <32 x i8>* %1 to <4 x i64>*, !dbg !1423
  store <4 x i64> %b2, <4 x i64>* %11, align 32, !dbg !1423
  %b8 = load <32 x i8>, <32 x i8>* %1, align 32, !dbg !1423
  store <32 x i8> %b8, <32 x i8>* %b.dbg.spill9, align 32, !dbg !1423
  call void @llvm.dbg.declare(metadata <32 x i8>* %b.dbg.spill9, metadata !1374, metadata !DIExpression()), !dbg !1430
  br label %bb46, !dbg !1423

bb46:                                             ; preds = %bb45
  br label %bb7, !dbg !1431

bb7:                                              ; preds = %bb46
  switch i32 2, label %bb8 [
    i32 0, label %bb9
    i32 1, label %bb11
    i32 2, label %bb13
    i32 3, label %bb15
    i32 4, label %bb17
    i32 5, label %bb19
    i32 6, label %bb21
    i32 7, label %bb23
    i32 8, label %bb25
    i32 9, label %bb27
    i32 10, label %bb29
    i32 11, label %bb31
    i32 12, label %bb33
    i32 13, label %bb35
    i32 14, label %bb37
    i32 15, label %bb39
  ], !dbg !1432

bb8:                                              ; preds = %bb7
  store <32 x i8> %b8, <32 x i8>* %r, align 32, !dbg !1433
  br label %bb41, !dbg !1433

bb9:                                              ; preds = %bb7
  %12 = shufflevector <32 x i8> %b8, <32 x i8> %a4, <32 x i32> <i32 0, i32 1, i32 2, i32 3, i32 4, i32 5, i32 6, i32 7, i32 8, i32 9, i32 10, i32 11, i32 12, i32 13, i32 14, i32 15, i32 16, i32 17, i32 18, i32 19, i32 20, i32 21, i32 22, i32 23, i32 24, i32 25, i32 26, i32 27, i32 28, i32 29, i32 30, i32 31>, !dbg !1434
  store <32 x i8> %12, <32 x i8>* %r, align 32, !dbg !1434
  br label %bb10, !dbg !1434

bb11:                                             ; preds = %bb7
  %13 = shufflevector <32 x i8> %b8, <32 x i8> %a4, <32 x i32> <i32 1, i32 2, i32 3, i32 4, i32 5, i32 6, i32 7, i32 8, i32 9, i32 10, i32 11, i32 12, i32 13, i32 14, i32 15, i32 32, i32 17, i32 18, i32 19, i32 20, i32 21, i32 22, i32 23, i32 24, i32 25, i32 26, i32 27, i32 28, i32 29, i32 30, i32 31, i32 48>, !dbg !1435
  store <32 x i8> %13, <32 x i8>* %r, align 32, !dbg !1435
  br label %bb12, !dbg !1435

bb13:                                             ; preds = %bb7
  %14 = shufflevector <32 x i8> %b8, <32 x i8> %a4, <32 x i32> <i32 2, i32 3, i32 4, i32 5, i32 6, i32 7, i32 8, i32 9, i32 10, i32 11, i32 12, i32 13, i32 14, i32 15, i32 32, i32 33, i32 18, i32 19, i32 20, i32 21, i32 22, i32 23, i32 24, i32 25, i32 26, i32 27, i32 28, i32 29, i32 30, i32 31, i32 48, i32 49>, !dbg !1436
  store <32 x i8> %14, <32 x i8>* %r, align 32, !dbg !1436
  br label %bb14, !dbg !1436

bb15:                                             ; preds = %bb7
  %15 = shufflevector <32 x i8> %b8, <32 x i8> %a4, <32 x i32> <i32 3, i32 4, i32 5, i32 6, i32 7, i32 8, i32 9, i32 10, i32 11, i32 12, i32 13, i32 14, i32 15, i32 32, i32 33, i32 34, i32 19, i32 20, i32 21, i32 22, i32 23, i32 24, i32 25, i32 26, i32 27, i32 28, i32 29, i32 30, i32 31, i32 48, i32 49, i32 50>, !dbg !1437
  store <32 x i8> %15, <32 x i8>* %r, align 32, !dbg !1437
  br label %bb16, !dbg !1437

bb17:                                             ; preds = %bb7
  %16 = shufflevector <32 x i8> %b8, <32 x i8> %a4, <32 x i32> <i32 4, i32 5, i32 6, i32 7, i32 8, i32 9, i32 10, i32 11, i32 12, i32 13, i32 14, i32 15, i32 32, i32 33, i32 34, i32 35, i32 20, i32 21, i32 22, i32 23, i32 24, i32 25, i32 26, i32 27, i32 28, i32 29, i32 30, i32 31, i32 48, i32 49, i32 50, i32 51>, !dbg !1438
  store <32 x i8> %16, <32 x i8>* %r, align 32, !dbg !1438
  br label %bb18, !dbg !1438

bb19:                                             ; preds = %bb7
  %17 = shufflevector <32 x i8> %b8, <32 x i8> %a4, <32 x i32> <i32 5, i32 6, i32 7, i32 8, i32 9, i32 10, i32 11, i32 12, i32 13, i32 14, i32 15, i32 32, i32 33, i32 34, i32 35, i32 36, i32 21, i32 22, i32 23, i32 24, i32 25, i32 26, i32 27, i32 28, i32 29, i32 30, i32 31, i32 48, i32 49, i32 50, i32 51, i32 52>, !dbg !1439
  store <32 x i8> %17, <32 x i8>* %r, align 32, !dbg !1439
  br label %bb20, !dbg !1439

bb21:                                             ; preds = %bb7
  %18 = shufflevector <32 x i8> %b8, <32 x i8> %a4, <32 x i32> <i32 6, i32 7, i32 8, i32 9, i32 10, i32 11, i32 12, i32 13, i32 14, i32 15, i32 32, i32 33, i32 34, i32 35, i32 36, i32 37, i32 22, i32 23, i32 24, i32 25, i32 26, i32 27, i32 28, i32 29, i32 30, i32 31, i32 48, i32 49, i32 50, i32 51, i32 52, i32 53>, !dbg !1440
  store <32 x i8> %18, <32 x i8>* %r, align 32, !dbg !1440
  br label %bb22, !dbg !1440

bb23:                                             ; preds = %bb7
  %19 = shufflevector <32 x i8> %b8, <32 x i8> %a4, <32 x i32> <i32 7, i32 8, i32 9, i32 10, i32 11, i32 12, i32 13, i32 14, i32 15, i32 32, i32 33, i32 34, i32 35, i32 36, i32 37, i32 38, i32 23, i32 24, i32 25, i32 26, i32 27, i32 28, i32 29, i32 30, i32 31, i32 48, i32 49, i32 50, i32 51, i32 52, i32 53, i32 54>, !dbg !1441
  store <32 x i8> %19, <32 x i8>* %r, align 32, !dbg !1441
  br label %bb24, !dbg !1441

bb25:                                             ; preds = %bb7
  %20 = shufflevector <32 x i8> %b8, <32 x i8> %a4, <32 x i32> <i32 8, i32 9, i32 10, i32 11, i32 12, i32 13, i32 14, i32 15, i32 32, i32 33, i32 34, i32 35, i32 36, i32 37, i32 38, i32 39, i32 24, i32 25, i32 26, i32 27, i32 28, i32 29, i32 30, i32 31, i32 48, i32 49, i32 50, i32 51, i32 52, i32 53, i32 54, i32 55>, !dbg !1442
  store <32 x i8> %20, <32 x i8>* %r, align 32, !dbg !1442
  br label %bb26, !dbg !1442

bb27:                                             ; preds = %bb7
  %21 = shufflevector <32 x i8> %b8, <32 x i8> %a4, <32 x i32> <i32 9, i32 10, i32 11, i32 12, i32 13, i32 14, i32 15, i32 32, i32 33, i32 34, i32 35, i32 36, i32 37, i32 38, i32 39, i32 40, i32 25, i32 26, i32 27, i32 28, i32 29, i32 30, i32 31, i32 48, i32 49, i32 50, i32 51, i32 52, i32 53, i32 54, i32 55, i32 56>, !dbg !1443
  store <32 x i8> %21, <32 x i8>* %r, align 32, !dbg !1443
  br label %bb28, !dbg !1443

bb29:                                             ; preds = %bb7
  %22 = shufflevector <32 x i8> %b8, <32 x i8> %a4, <32 x i32> <i32 10, i32 11, i32 12, i32 13, i32 14, i32 15, i32 32, i32 33, i32 34, i32 35, i32 36, i32 37, i32 38, i32 39, i32 40, i32 41, i32 26, i32 27, i32 28, i32 29, i32 30, i32 31, i32 48, i32 49, i32 50, i32 51, i32 52, i32 53, i32 54, i32 55, i32 56, i32 57>, !dbg !1444
  store <32 x i8> %22, <32 x i8>* %r, align 32, !dbg !1444
  br label %bb30, !dbg !1444

bb31:                                             ; preds = %bb7
  %23 = shufflevector <32 x i8> %b8, <32 x i8> %a4, <32 x i32> <i32 11, i32 12, i32 13, i32 14, i32 15, i32 32, i32 33, i32 34, i32 35, i32 36, i32 37, i32 38, i32 39, i32 40, i32 41, i32 42, i32 27, i32 28, i32 29, i32 30, i32 31, i32 48, i32 49, i32 50, i32 51, i32 52, i32 53, i32 54, i32 55, i32 56, i32 57, i32 58>, !dbg !1445
  store <32 x i8> %23, <32 x i8>* %r, align 32, !dbg !1445
  br label %bb32, !dbg !1445

bb33:                                             ; preds = %bb7
  %24 = shufflevector <32 x i8> %b8, <32 x i8> %a4, <32 x i32> <i32 12, i32 13, i32 14, i32 15, i32 32, i32 33, i32 34, i32 35, i32 36, i32 37, i32 38, i32 39, i32 40, i32 41, i32 42, i32 43, i32 28, i32 29, i32 30, i32 31, i32 48, i32 49, i32 50, i32 51, i32 52, i32 53, i32 54, i32 55, i32 56, i32 57, i32 58, i32 59>, !dbg !1446
  store <32 x i8> %24, <32 x i8>* %r, align 32, !dbg !1446
  br label %bb34, !dbg !1446

bb35:                                             ; preds = %bb7
  %25 = shufflevector <32 x i8> %b8, <32 x i8> %a4, <32 x i32> <i32 13, i32 14, i32 15, i32 32, i32 33, i32 34, i32 35, i32 36, i32 37, i32 38, i32 39, i32 40, i32 41, i32 42, i32 43, i32 44, i32 29, i32 30, i32 31, i32 48, i32 49, i32 50, i32 51, i32 52, i32 53, i32 54, i32 55, i32 56, i32 57, i32 58, i32 59, i32 60>, !dbg !1447
  store <32 x i8> %25, <32 x i8>* %r, align 32, !dbg !1447
  br label %bb36, !dbg !1447

bb37:                                             ; preds = %bb7
  %26 = shufflevector <32 x i8> %b8, <32 x i8> %a4, <32 x i32> <i32 14, i32 15, i32 32, i32 33, i32 34, i32 35, i32 36, i32 37, i32 38, i32 39, i32 40, i32 41, i32 42, i32 43, i32 44, i32 45, i32 30, i32 31, i32 48, i32 49, i32 50, i32 51, i32 52, i32 53, i32 54, i32 55, i32 56, i32 57, i32 58, i32 59, i32 60, i32 61>, !dbg !1448
  store <32 x i8> %26, <32 x i8>* %r, align 32, !dbg !1448
  br label %bb38, !dbg !1448

bb39:                                             ; preds = %bb7
  %27 = shufflevector <32 x i8> %b8, <32 x i8> %a4, <32 x i32> <i32 15, i32 32, i32 33, i32 34, i32 35, i32 36, i32 37, i32 38, i32 39, i32 40, i32 41, i32 42, i32 43, i32 44, i32 45, i32 46, i32 31, i32 48, i32 49, i32 50, i32 51, i32 52, i32 53, i32 54, i32 55, i32 56, i32 57, i32 58, i32 59, i32 60, i32 61, i32 62>, !dbg !1449
  store <32 x i8> %27, <32 x i8>* %r, align 32, !dbg !1449
  br label %bb40, !dbg !1449

bb41:                                             ; preds = %bb10, %bb12, %bb14, %bb16, %bb18, %bb20, %bb22, %bb24, %bb26, %bb28, %bb30, %bb32, %bb34, %bb36, %bb38, %bb40, %bb8
  %_53 = load <32 x i8>, <32 x i8>* %r, align 32, !dbg !1450
  %28 = bitcast <4 x i64>* %0 to <32 x i8>*, !dbg !1451
  store <32 x i8> %_53, <32 x i8>* %28, align 32, !dbg !1451
  br label %bb42, !dbg !1451

bb40:                                             ; preds = %bb39
  br label %bb41, !dbg !1449

bb38:                                             ; preds = %bb37
  br label %bb41, !dbg !1448

bb36:                                             ; preds = %bb35
  br label %bb41, !dbg !1447

bb34:                                             ; preds = %bb33
  br label %bb41, !dbg !1446

bb32:                                             ; preds = %bb31
  br label %bb41, !dbg !1445

bb30:                                             ; preds = %bb29
  br label %bb41, !dbg !1444

bb28:                                             ; preds = %bb27
  br label %bb41, !dbg !1443

bb26:                                             ; preds = %bb25
  br label %bb41, !dbg !1442

bb24:                                             ; preds = %bb23
  br label %bb41, !dbg !1441

bb22:                                             ; preds = %bb21
  br label %bb41, !dbg !1440

bb20:                                             ; preds = %bb19
  br label %bb41, !dbg !1439

bb18:                                             ; preds = %bb17
  br label %bb41, !dbg !1438

bb16:                                             ; preds = %bb15
  br label %bb41, !dbg !1437

bb14:                                             ; preds = %bb13
  br label %bb41, !dbg !1436

bb12:                                             ; preds = %bb11
  br label %bb41, !dbg !1435

bb10:                                             ; preds = %bb9
  br label %bb41, !dbg !1434

bb42:                                             ; preds = %bb41
  br label %bb44, !dbg !1384
}

; core::core_arch::x86::avx2::_mm256_shuffle_epi8
; Function Attrs: inlinehint nonlazybind uwtable
define internal void @_ZN4core9core_arch3x864avx219_mm256_shuffle_epi817hc48ad4d9e789db11E(<4 x i64>* sret(<4 x i64>) %0, <4 x i64>* %a, <4 x i64>* %b) unnamed_addr #5 !dbg !1452 {
start:
  %1 = alloca <32 x i8>, align 32, !dbg !1456
  %self.dbg.spill4 = alloca <4 x i64>, align 32, !dbg !1456
  %self.dbg.spill3 = alloca <4 x i64>, align 32, !dbg !1456
  %2 = alloca <32 x i8>, align 32, !dbg !1456
  %self.dbg.spill1 = alloca <4 x i64>, align 32, !dbg !1456
  %self.dbg.spill = alloca <4 x i64>, align 32, !dbg !1456
  call void @llvm.dbg.declare(metadata <4 x i64>* %a, metadata !1454, metadata !DIExpression()), !dbg !1456
  call void @llvm.dbg.declare(metadata <4 x i64>* %b, metadata !1455, metadata !DIExpression()), !dbg !1457
  %self = load <4 x i64>, <4 x i64>* %a, align 32, !dbg !1458
  store <4 x i64> %self, <4 x i64>* %self.dbg.spill, align 32, !dbg !1458
  call void @llvm.dbg.declare(metadata <4 x i64>* %self.dbg.spill, metadata !1459, metadata !DIExpression()), !dbg !1499
  store <4 x i64> %self, <4 x i64>* %self.dbg.spill1, align 32, !dbg !1499
  call void @llvm.dbg.declare(metadata <4 x i64>* %self.dbg.spill1, metadata !1500, metadata !DIExpression()), !dbg !1504
  %3 = bitcast <32 x i8>* %2 to <4 x i64>*, !dbg !1499
  store <4 x i64> %self, <4 x i64>* %3, align 32, !dbg !1499
  %_4 = load <32 x i8>, <32 x i8>* %2, align 32, !dbg !1499
  br label %bb3, !dbg !1499

bb3:                                              ; preds = %start
  %self2 = load <4 x i64>, <4 x i64>* %b, align 32, !dbg !1506
  store <4 x i64> %self2, <4 x i64>* %self.dbg.spill3, align 32, !dbg !1506
  call void @llvm.dbg.declare(metadata <4 x i64>* %self.dbg.spill3, metadata !1507, metadata !DIExpression()), !dbg !1511
  store <4 x i64> %self2, <4 x i64>* %self.dbg.spill4, align 32, !dbg !1511
  call void @llvm.dbg.declare(metadata <4 x i64>* %self.dbg.spill4, metadata !1512, metadata !DIExpression()), !dbg !1516
  %4 = bitcast <32 x i8>* %1 to <4 x i64>*, !dbg !1511
  store <4 x i64> %self2, <4 x i64>* %4, align 32, !dbg !1511
  %_6 = load <32 x i8>, <32 x i8>* %1, align 32, !dbg !1511
  br label %bb4, !dbg !1511

bb4:                                              ; preds = %bb3
  %_3 = call <32 x i8> @llvm.x86.avx2.pshuf.b(<32 x i8> %_4, <32 x i8> %_6) #15, !dbg !1518
  br label %bb1, !dbg !1518

bb1:                                              ; preds = %bb4
  %5 = bitcast <4 x i64>* %0 to <32 x i8>*, !dbg !1519
  store <32 x i8> %_3, <32 x i8>* %5, align 32, !dbg !1519
  br label %bb2, !dbg !1519

bb2:                                              ; preds = %bb1
  ret void, !dbg !1520
}

; core::core_arch::x86::avx2::_mm256_extract_epi32
; Function Attrs: inlinehint nonlazybind uwtable
define i32 @_ZN4core9core_arch3x864avx220_mm256_extract_epi3217h2475ebd53d4362dcE(<4 x i64>* %a) unnamed_addr #5 !dbg !1521 {
start:
  %0 = alloca i32, align 4, !dbg !1526
  %1 = alloca <8 x i32>, align 32, !dbg !1526
  %self.dbg.spill1 = alloca <4 x i64>, align 32, !dbg !1526
  %self.dbg.spill = alloca <4 x i64>, align 32, !dbg !1526
  call void @llvm.dbg.declare(metadata <4 x i64>* %a, metadata !1525, metadata !DIExpression()), !dbg !1526
  %self = load <4 x i64>, <4 x i64>* %a, align 32, !dbg !1527
  store <4 x i64> %self, <4 x i64>* %self.dbg.spill, align 32, !dbg !1527
  call void @llvm.dbg.declare(metadata <4 x i64>* %self.dbg.spill, metadata !1528, metadata !DIExpression()), !dbg !1534
  store <4 x i64> %self, <4 x i64>* %self.dbg.spill1, align 32, !dbg !1534
  call void @llvm.dbg.declare(metadata <4 x i64>* %self.dbg.spill1, metadata !1535, metadata !DIExpression()), !dbg !1539
  %2 = bitcast <8 x i32>* %1 to <4 x i64>*, !dbg !1534
  store <4 x i64> %self, <4 x i64>* %2, align 32, !dbg !1534
  %_2 = load <8 x i32>, <8 x i32>* %1, align 32, !dbg !1534
  br label %bb2, !dbg !1534

bb2:                                              ; preds = %start
  %3 = extractelement <8 x i32> %_2, i32 2, !dbg !1541
  store i32 %3, i32* %0, align 4, !dbg !1541
  %4 = load i32, i32* %0, align 4, !dbg !1541
  br label %bb1, !dbg !1541

bb1:                                              ; preds = %bb2
  ret i32 %4, !dbg !1542
}

; core::core_arch::x86::avx2::_mm256_shuffle_epi32
; Function Attrs: inlinehint nonlazybind uwtable
define void @_ZN4core9core_arch3x864avx220_mm256_shuffle_epi3217h9bc6b000c479be2bE(<4 x i64>* sret(<4 x i64>) %0, <4 x i64>* %a) unnamed_addr #5 !dbg !1543 {
start:
  %r.dbg.spill = alloca <8 x i32>, align 32, !dbg !1548
  %1 = alloca <8 x i32>, align 32, !dbg !1548
  %2 = alloca <8 x i32>, align 32, !dbg !1548
  %self.dbg.spill4 = alloca <4 x i64>, align 32, !dbg !1548
  %self.dbg.spill3 = alloca <4 x i64>, align 32, !dbg !1548
  %3 = alloca <8 x i32>, align 32, !dbg !1548
  %self.dbg.spill1 = alloca <4 x i64>, align 32, !dbg !1548
  %self.dbg.spill = alloca <4 x i64>, align 32, !dbg !1548
  call void @llvm.dbg.declare(metadata <4 x i64>* %a, metadata !1545, metadata !DIExpression()), !dbg !1548
  %self = load <4 x i64>, <4 x i64>* %a, align 32, !dbg !1549
  store <4 x i64> %self, <4 x i64>* %self.dbg.spill, align 32, !dbg !1549
  call void @llvm.dbg.declare(metadata <4 x i64>* %self.dbg.spill, metadata !1550, metadata !DIExpression()), !dbg !1554
  store <4 x i64> %self, <4 x i64>* %self.dbg.spill1, align 32, !dbg !1554
  call void @llvm.dbg.declare(metadata <4 x i64>* %self.dbg.spill1, metadata !1555, metadata !DIExpression()), !dbg !1559
  %4 = bitcast <8 x i32>* %3 to <4 x i64>*, !dbg !1554
  store <4 x i64> %self, <4 x i64>* %4, align 32, !dbg !1554
  %_3 = load <8 x i32>, <8 x i32>* %3, align 32, !dbg !1554
  br label %bb3, !dbg !1554

bb3:                                              ; preds = %start
  %self2 = load <4 x i64>, <4 x i64>* %a, align 32, !dbg !1561
  store <4 x i64> %self2, <4 x i64>* %self.dbg.spill3, align 32, !dbg !1561
  call void @llvm.dbg.declare(metadata <4 x i64>* %self.dbg.spill3, metadata !1562, metadata !DIExpression()), !dbg !1566
  store <4 x i64> %self2, <4 x i64>* %self.dbg.spill4, align 32, !dbg !1566
  call void @llvm.dbg.declare(metadata <4 x i64>* %self.dbg.spill4, metadata !1567, metadata !DIExpression()), !dbg !1571
  %5 = bitcast <8 x i32>* %2 to <4 x i64>*, !dbg !1566
  store <4 x i64> %self2, <4 x i64>* %5, align 32, !dbg !1566
  %_5 = load <8 x i32>, <8 x i32>* %2, align 32, !dbg !1566
  br label %bb4, !dbg !1566

bb4:                                              ; preds = %bb3
  %6 = shufflevector <8 x i32> %_3, <8 x i32> %_5, <8 x i32> <i32 0, i32 2, i32 3, i32 0, i32 4, i32 6, i32 7, i32 4>, !dbg !1573
  store <8 x i32> %6, <8 x i32>* %1, align 32, !dbg !1573
  %r = load <8 x i32>, <8 x i32>* %1, align 32, !dbg !1573
  store <8 x i32> %r, <8 x i32>* %r.dbg.spill, align 32, !dbg !1573
  call void @llvm.dbg.declare(metadata <8 x i32>* %r.dbg.spill, metadata !1546, metadata !DIExpression()), !dbg !1574
  br label %bb1, !dbg !1573

bb1:                                              ; preds = %bb4
  %7 = bitcast <4 x i64>* %0 to <8 x i32>*, !dbg !1575
  store <8 x i32> %r, <8 x i32>* %7, align 32, !dbg !1575
  br label %bb2, !dbg !1575

bb2:                                              ; preds = %bb1
  ret void, !dbg !1576
}

; core::core_arch::x86::avx2::_mm256_shufflehi_epi16
; Function Attrs: inlinehint nonlazybind uwtable
define void @_ZN4core9core_arch3x864avx222_mm256_shufflehi_epi1617h37ea21f6d2dd1fa3E(<4 x i64>* sret(<4 x i64>) %0, <4 x i64>* %a) unnamed_addr #5 !dbg !1577 {
start:
  %r.dbg.spill = alloca <16 x i16>, align 32, !dbg !1603
  %1 = alloca <16 x i16>, align 32, !dbg !1603
  %a.dbg.spill = alloca <16 x i16>, align 32, !dbg !1603
  %2 = alloca <16 x i16>, align 32, !dbg !1603
  %self.dbg.spill1 = alloca <4 x i64>, align 32, !dbg !1603
  %self.dbg.spill = alloca <4 x i64>, align 32, !dbg !1603
  call void @llvm.dbg.declare(metadata <4 x i64>* %a, metadata !1579, metadata !DIExpression()), !dbg !1603
  %self = load <4 x i64>, <4 x i64>* %a, align 32, !dbg !1604
  store <4 x i64> %self, <4 x i64>* %self.dbg.spill, align 32, !dbg !1604
  call void @llvm.dbg.declare(metadata <4 x i64>* %self.dbg.spill, metadata !1605, metadata !DIExpression()), !dbg !1611
  store <4 x i64> %self, <4 x i64>* %self.dbg.spill1, align 32, !dbg !1611
  call void @llvm.dbg.declare(metadata <4 x i64>* %self.dbg.spill1, metadata !1612, metadata !DIExpression()), !dbg !1616
  %3 = bitcast <16 x i16>* %2 to <4 x i64>*, !dbg !1611
  store <4 x i64> %self, <4 x i64>* %3, align 32, !dbg !1611
  %a2 = load <16 x i16>, <16 x i16>* %2, align 32, !dbg !1611
  store <16 x i16> %a2, <16 x i16>* %a.dbg.spill, align 32, !dbg !1611
  call void @llvm.dbg.declare(metadata <16 x i16>* %a.dbg.spill, metadata !1580, metadata !DIExpression()), !dbg !1618
  br label %bb3, !dbg !1611

bb3:                                              ; preds = %start
  %4 = shufflevector <16 x i16> %a2, <16 x i16> %a2, <16 x i32> <i32 0, i32 1, i32 2, i32 3, i32 7, i32 7, i32 6, i32 5, i32 8, i32 9, i32 10, i32 11, i32 15, i32 15, i32 14, i32 13>, !dbg !1619
  store <16 x i16> %4, <16 x i16>* %1, align 32, !dbg !1619
  %r = load <16 x i16>, <16 x i16>* %1, align 32, !dbg !1619
  store <16 x i16> %r, <16 x i16>* %r.dbg.spill, align 32, !dbg !1619
  call void @llvm.dbg.declare(metadata <16 x i16>* %r.dbg.spill, metadata !1601, metadata !DIExpression()), !dbg !1620
  br label %bb1, !dbg !1619

bb1:                                              ; preds = %bb3
  %5 = bitcast <4 x i64>* %0 to <16 x i16>*, !dbg !1621
  store <16 x i16> %r, <16 x i16>* %5, align 32, !dbg !1621
  br label %bb2, !dbg !1621

bb2:                                              ; preds = %bb1
  ret void, !dbg !1622
}

; core::core_arch::x86::avx2::_mm256_shufflelo_epi16
; Function Attrs: inlinehint nonlazybind uwtable
define void @_ZN4core9core_arch3x864avx222_mm256_shufflelo_epi1617h5d312a3ae21cf9a5E(<4 x i64>* sret(<4 x i64>) %0, <4 x i64>* %a) unnamed_addr #5 !dbg !1623 {
start:
  %r.dbg.spill = alloca <16 x i16>, align 32, !dbg !1630
  %1 = alloca <16 x i16>, align 32, !dbg !1630
  %a.dbg.spill = alloca <16 x i16>, align 32, !dbg !1630
  %2 = alloca <16 x i16>, align 32, !dbg !1630
  %self.dbg.spill1 = alloca <4 x i64>, align 32, !dbg !1630
  %self.dbg.spill = alloca <4 x i64>, align 32, !dbg !1630
  call void @llvm.dbg.declare(metadata <4 x i64>* %a, metadata !1625, metadata !DIExpression()), !dbg !1630
  %self = load <4 x i64>, <4 x i64>* %a, align 32, !dbg !1631
  store <4 x i64> %self, <4 x i64>* %self.dbg.spill, align 32, !dbg !1631
  call void @llvm.dbg.declare(metadata <4 x i64>* %self.dbg.spill, metadata !1632, metadata !DIExpression()), !dbg !1636
  store <4 x i64> %self, <4 x i64>* %self.dbg.spill1, align 32, !dbg !1636
  call void @llvm.dbg.declare(metadata <4 x i64>* %self.dbg.spill1, metadata !1637, metadata !DIExpression()), !dbg !1641
  %3 = bitcast <16 x i16>* %2 to <4 x i64>*, !dbg !1636
  store <4 x i64> %self, <4 x i64>* %3, align 32, !dbg !1636
  %a2 = load <16 x i16>, <16 x i16>* %2, align 32, !dbg !1636
  store <16 x i16> %a2, <16 x i16>* %a.dbg.spill, align 32, !dbg !1636
  call void @llvm.dbg.declare(metadata <16 x i16>* %a.dbg.spill, metadata !1626, metadata !DIExpression()), !dbg !1643
  br label %bb3, !dbg !1636

bb3:                                              ; preds = %start
  %4 = shufflevector <16 x i16> %a2, <16 x i16> %a2, <16 x i32> <i32 3, i32 2, i32 3, i32 2, i32 4, i32 5, i32 6, i32 7, i32 11, i32 10, i32 11, i32 10, i32 12, i32 13, i32 14, i32 15>, !dbg !1644
  store <16 x i16> %4, <16 x i16>* %1, align 32, !dbg !1644
  %r = load <16 x i16>, <16 x i16>* %1, align 32, !dbg !1644
  store <16 x i16> %r, <16 x i16>* %r.dbg.spill, align 32, !dbg !1644
  call void @llvm.dbg.declare(metadata <16 x i16>* %r.dbg.spill, metadata !1628, metadata !DIExpression()), !dbg !1645
  br label %bb1, !dbg !1644

bb1:                                              ; preds = %bb3
  %5 = bitcast <4 x i64>* %0 to <16 x i16>*, !dbg !1646
  store <16 x i16> %r, <16 x i16>* %5, align 32, !dbg !1646
  br label %bb2, !dbg !1646

bb2:                                              ; preds = %bb1
  ret void, !dbg !1647
}

; core::core_arch::x86::avx2::_mm256_permute2x128_si256
; Function Attrs: inlinehint nonlazybind uwtable
define void @_ZN4core9core_arch3x864avx225_mm256_permute2x128_si25617h649c5a6c67fab286E(<4 x i64>* sret(<4 x i64>) %0, <4 x i64>* %a, <4 x i64>* %b) unnamed_addr #5 !dbg !1648 {
start:
  %1 = alloca <4 x i64>, align 32, !dbg !1652
  %self.dbg.spill4 = alloca <4 x i64>, align 32, !dbg !1652
  %self.dbg.spill3 = alloca <4 x i64>, align 32, !dbg !1652
  %2 = alloca <4 x i64>, align 32, !dbg !1652
  %self.dbg.spill1 = alloca <4 x i64>, align 32, !dbg !1652
  %self.dbg.spill = alloca <4 x i64>, align 32, !dbg !1652
  call void @llvm.dbg.declare(metadata <4 x i64>* %a, metadata !1650, metadata !DIExpression()), !dbg !1652
  call void @llvm.dbg.declare(metadata <4 x i64>* %b, metadata !1651, metadata !DIExpression()), !dbg !1653
  %self = load <4 x i64>, <4 x i64>* %a, align 32, !dbg !1654
  store <4 x i64> %self, <4 x i64>* %self.dbg.spill, align 32, !dbg !1654
  call void @llvm.dbg.declare(metadata <4 x i64>* %self.dbg.spill, metadata !1655, metadata !DIExpression()), !dbg !1661
  store <4 x i64> %self, <4 x i64>* %self.dbg.spill1, align 32, !dbg !1661
  call void @llvm.dbg.declare(metadata <4 x i64>* %self.dbg.spill1, metadata !1662, metadata !DIExpression()), !dbg !1666
  store <4 x i64> %self, <4 x i64>* %2, align 32, !dbg !1661
  %_4 = load <4 x i64>, <4 x i64>* %2, align 32, !dbg !1661
  br label %bb3, !dbg !1661

bb3:                                              ; preds = %start
  %self2 = load <4 x i64>, <4 x i64>* %b, align 32, !dbg !1668
  store <4 x i64> %self2, <4 x i64>* %self.dbg.spill3, align 32, !dbg !1668
  call void @llvm.dbg.declare(metadata <4 x i64>* %self.dbg.spill3, metadata !1669, metadata !DIExpression()), !dbg !1673
  store <4 x i64> %self2, <4 x i64>* %self.dbg.spill4, align 32, !dbg !1673
  call void @llvm.dbg.declare(metadata <4 x i64>* %self.dbg.spill4, metadata !1674, metadata !DIExpression()), !dbg !1678
  store <4 x i64> %self2, <4 x i64>* %1, align 32, !dbg !1673
  %_6 = load <4 x i64>, <4 x i64>* %1, align 32, !dbg !1673
  br label %bb4, !dbg !1673

bb4:                                              ; preds = %bb3
  %3 = shufflevector <4 x i64> zeroinitializer, <4 x i64> %_6, <4 x i32> <i32 0, i32 1, i32 4, i32 5>, !dbg !1680
  br label %bb1, !dbg !1680

bb1:                                              ; preds = %bb4
  store <4 x i64> %3, <4 x i64>* %0, align 32, !dbg !1681
  br label %bb2, !dbg !1681

bb2:                                              ; preds = %bb1
  ret void, !dbg !1682
}

; core::core_arch::x86::sse2::_mm_set1_pd
; Function Attrs: inlinehint nonlazybind uwtable
define internal void @_ZN4core9core_arch3x864sse211_mm_set1_pd17h802ff7dd336f7c47E(<2 x double>* sret(<2 x double>) %0, double %a) unnamed_addr #6 !dbg !1683 {
start:
  %b.dbg.spill = alloca double, align 8
  %a.dbg.spill1 = alloca double, align 8
  %a.dbg.spill = alloca double, align 8
  store double %a, double* %a.dbg.spill, align 8
  call void @llvm.dbg.declare(metadata double* %a.dbg.spill, metadata !1689, metadata !DIExpression()), !dbg !1690
  store double %a, double* %a.dbg.spill1, align 8, !dbg !1691
  call void @llvm.dbg.declare(metadata double* %a.dbg.spill1, metadata !1692, metadata !DIExpression()), !dbg !1698
  store double %a, double* %b.dbg.spill, align 8, !dbg !1700
  call void @llvm.dbg.declare(metadata double* %b.dbg.spill, metadata !1697, metadata !DIExpression()), !dbg !1698
  %1 = bitcast <2 x double>* %0 to double*, !dbg !1698
  store double %a, double* %1, align 16, !dbg !1698
  %2 = getelementptr inbounds <2 x double>, <2 x double>* %0, i32 0, i32 1, !dbg !1698
  store double %a, double* %2, align 8, !dbg !1698
  ret void, !dbg !1701
}

; core::core_arch::x86::sse2::_mm_setr_pd
; Function Attrs: inlinehint nonlazybind uwtable
define internal void @_ZN4core9core_arch3x864sse211_mm_setr_pd17hf2484d24cf9e9449E(<2 x double>* sret(<2 x double>) %0, double %a, double %b) unnamed_addr #6 !dbg !1702 {
start:
  %b.dbg.spill2 = alloca double, align 8
  %a.dbg.spill1 = alloca double, align 8
  %b.dbg.spill = alloca double, align 8
  %a.dbg.spill = alloca double, align 8
  store double %a, double* %a.dbg.spill, align 8
  call void @llvm.dbg.declare(metadata double* %a.dbg.spill, metadata !1704, metadata !DIExpression()), !dbg !1706
  store double %b, double* %b.dbg.spill, align 8
  call void @llvm.dbg.declare(metadata double* %b.dbg.spill, metadata !1705, metadata !DIExpression()), !dbg !1707
  store double %b, double* %a.dbg.spill1, align 8, !dbg !1708
  call void @llvm.dbg.declare(metadata double* %a.dbg.spill1, metadata !1709, metadata !DIExpression()), !dbg !1713
  store double %a, double* %b.dbg.spill2, align 8, !dbg !1715
  call void @llvm.dbg.declare(metadata double* %b.dbg.spill2, metadata !1712, metadata !DIExpression()), !dbg !1713
  %1 = bitcast <2 x double>* %0 to double*, !dbg !1713
  store double %a, double* %1, align 16, !dbg !1713
  %2 = getelementptr inbounds <2 x double>, <2 x double>* %0, i32 0, i32 1, !dbg !1713
  store double %b, double* %2, align 8, !dbg !1713
  ret void, !dbg !1716
}

; core::core_arch::x86::sse2::_mm_set_epi8
; Function Attrs: inlinehint nonlazybind uwtable
define internal void @_ZN4core9core_arch3x864sse212_mm_set_epi817hc8f258d4273947e9E(<2 x i64>* sret(<2 x i64>) %0, i8 %e15, i8 %e14, i8 %e13, i8 %e12, i8 %e11, i8 %e10, i8 %e9, i8 %e8, i8 %e7, i8 %e6, i8 %e5, i8 %e4, i8 %e3, i8 %e2, i8 %e1, i8 %e0) unnamed_addr #6 !dbg !1717 {
start:
  %x15.dbg.spill = alloca i8, align 1
  %x14.dbg.spill = alloca i8, align 1
  %x13.dbg.spill = alloca i8, align 1
  %x12.dbg.spill = alloca i8, align 1
  %x11.dbg.spill = alloca i8, align 1
  %x10.dbg.spill = alloca i8, align 1
  %x9.dbg.spill = alloca i8, align 1
  %x8.dbg.spill = alloca i8, align 1
  %x7.dbg.spill = alloca i8, align 1
  %x6.dbg.spill = alloca i8, align 1
  %x5.dbg.spill = alloca i8, align 1
  %x4.dbg.spill = alloca i8, align 1
  %x3.dbg.spill = alloca i8, align 1
  %x2.dbg.spill = alloca i8, align 1
  %x1.dbg.spill = alloca i8, align 1
  %x0.dbg.spill = alloca i8, align 1
  %e0.dbg.spill = alloca i8, align 1
  %e1.dbg.spill = alloca i8, align 1
  %e2.dbg.spill = alloca i8, align 1
  %e3.dbg.spill = alloca i8, align 1
  %e4.dbg.spill = alloca i8, align 1
  %e5.dbg.spill = alloca i8, align 1
  %e6.dbg.spill = alloca i8, align 1
  %e7.dbg.spill = alloca i8, align 1
  %e8.dbg.spill = alloca i8, align 1
  %e9.dbg.spill = alloca i8, align 1
  %e10.dbg.spill = alloca i8, align 1
  %e11.dbg.spill = alloca i8, align 1
  %e12.dbg.spill = alloca i8, align 1
  %e13.dbg.spill = alloca i8, align 1
  %e14.dbg.spill = alloca i8, align 1
  %e15.dbg.spill = alloca i8, align 1
  %_17 = alloca <16 x i8>, align 16
  store i8 %e15, i8* %e15.dbg.spill, align 1
  call void @llvm.dbg.declare(metadata i8* %e15.dbg.spill, metadata !1721, metadata !DIExpression()), !dbg !1737
  store i8 %e14, i8* %e14.dbg.spill, align 1
  call void @llvm.dbg.declare(metadata i8* %e14.dbg.spill, metadata !1722, metadata !DIExpression()), !dbg !1738
  store i8 %e13, i8* %e13.dbg.spill, align 1
  call void @llvm.dbg.declare(metadata i8* %e13.dbg.spill, metadata !1723, metadata !DIExpression()), !dbg !1739
  store i8 %e12, i8* %e12.dbg.spill, align 1
  call void @llvm.dbg.declare(metadata i8* %e12.dbg.spill, metadata !1724, metadata !DIExpression()), !dbg !1740
  store i8 %e11, i8* %e11.dbg.spill, align 1
  call void @llvm.dbg.declare(metadata i8* %e11.dbg.spill, metadata !1725, metadata !DIExpression()), !dbg !1741
  store i8 %e10, i8* %e10.dbg.spill, align 1
  call void @llvm.dbg.declare(metadata i8* %e10.dbg.spill, metadata !1726, metadata !DIExpression()), !dbg !1742
  store i8 %e9, i8* %e9.dbg.spill, align 1
  call void @llvm.dbg.declare(metadata i8* %e9.dbg.spill, metadata !1727, metadata !DIExpression()), !dbg !1743
  store i8 %e8, i8* %e8.dbg.spill, align 1
  call void @llvm.dbg.declare(metadata i8* %e8.dbg.spill, metadata !1728, metadata !DIExpression()), !dbg !1744
  store i8 %e7, i8* %e7.dbg.spill, align 1
  call void @llvm.dbg.declare(metadata i8* %e7.dbg.spill, metadata !1729, metadata !DIExpression()), !dbg !1745
  store i8 %e6, i8* %e6.dbg.spill, align 1
  call void @llvm.dbg.declare(metadata i8* %e6.dbg.spill, metadata !1730, metadata !DIExpression()), !dbg !1746
  store i8 %e5, i8* %e5.dbg.spill, align 1
  call void @llvm.dbg.declare(metadata i8* %e5.dbg.spill, metadata !1731, metadata !DIExpression()), !dbg !1747
  store i8 %e4, i8* %e4.dbg.spill, align 1
  call void @llvm.dbg.declare(metadata i8* %e4.dbg.spill, metadata !1732, metadata !DIExpression()), !dbg !1748
  store i8 %e3, i8* %e3.dbg.spill, align 1
  call void @llvm.dbg.declare(metadata i8* %e3.dbg.spill, metadata !1733, metadata !DIExpression()), !dbg !1749
  store i8 %e2, i8* %e2.dbg.spill, align 1
  call void @llvm.dbg.declare(metadata i8* %e2.dbg.spill, metadata !1734, metadata !DIExpression()), !dbg !1750
  store i8 %e1, i8* %e1.dbg.spill, align 1
  call void @llvm.dbg.declare(metadata i8* %e1.dbg.spill, metadata !1735, metadata !DIExpression()), !dbg !1751
  store i8 %e0, i8* %e0.dbg.spill, align 1
  call void @llvm.dbg.declare(metadata i8* %e0.dbg.spill, metadata !1736, metadata !DIExpression()), !dbg !1752
  store i8 %e0, i8* %x0.dbg.spill, align 1, !dbg !1753
  call void @llvm.dbg.declare(metadata i8* %x0.dbg.spill, metadata !1754, metadata !DIExpression()), !dbg !1793
  store i8 %e1, i8* %x1.dbg.spill, align 1, !dbg !1795
  call void @llvm.dbg.declare(metadata i8* %x1.dbg.spill, metadata !1778, metadata !DIExpression()), !dbg !1793
  store i8 %e2, i8* %x2.dbg.spill, align 1, !dbg !1796
  call void @llvm.dbg.declare(metadata i8* %x2.dbg.spill, metadata !1779, metadata !DIExpression()), !dbg !1793
  store i8 %e3, i8* %x3.dbg.spill, align 1, !dbg !1797
  call void @llvm.dbg.declare(metadata i8* %x3.dbg.spill, metadata !1780, metadata !DIExpression()), !dbg !1793
  store i8 %e4, i8* %x4.dbg.spill, align 1, !dbg !1798
  call void @llvm.dbg.declare(metadata i8* %x4.dbg.spill, metadata !1781, metadata !DIExpression()), !dbg !1793
  store i8 %e5, i8* %x5.dbg.spill, align 1, !dbg !1799
  call void @llvm.dbg.declare(metadata i8* %x5.dbg.spill, metadata !1782, metadata !DIExpression()), !dbg !1793
  store i8 %e6, i8* %x6.dbg.spill, align 1, !dbg !1800
  call void @llvm.dbg.declare(metadata i8* %x6.dbg.spill, metadata !1783, metadata !DIExpression()), !dbg !1793
  store i8 %e7, i8* %x7.dbg.spill, align 1, !dbg !1801
  call void @llvm.dbg.declare(metadata i8* %x7.dbg.spill, metadata !1784, metadata !DIExpression()), !dbg !1793
  store i8 %e8, i8* %x8.dbg.spill, align 1, !dbg !1802
  call void @llvm.dbg.declare(metadata i8* %x8.dbg.spill, metadata !1785, metadata !DIExpression()), !dbg !1793
  store i8 %e9, i8* %x9.dbg.spill, align 1, !dbg !1803
  call void @llvm.dbg.declare(metadata i8* %x9.dbg.spill, metadata !1786, metadata !DIExpression()), !dbg !1793
  store i8 %e10, i8* %x10.dbg.spill, align 1, !dbg !1804
  call void @llvm.dbg.declare(metadata i8* %x10.dbg.spill, metadata !1787, metadata !DIExpression()), !dbg !1793
  store i8 %e11, i8* %x11.dbg.spill, align 1, !dbg !1805
  call void @llvm.dbg.declare(metadata i8* %x11.dbg.spill, metadata !1788, metadata !DIExpression()), !dbg !1793
  store i8 %e12, i8* %x12.dbg.spill, align 1, !dbg !1806
  call void @llvm.dbg.declare(metadata i8* %x12.dbg.spill, metadata !1789, metadata !DIExpression()), !dbg !1793
  store i8 %e13, i8* %x13.dbg.spill, align 1, !dbg !1807
  call void @llvm.dbg.declare(metadata i8* %x13.dbg.spill, metadata !1790, metadata !DIExpression()), !dbg !1793
  store i8 %e14, i8* %x14.dbg.spill, align 1, !dbg !1808
  call void @llvm.dbg.declare(metadata i8* %x14.dbg.spill, metadata !1791, metadata !DIExpression()), !dbg !1793
  store i8 %e15, i8* %x15.dbg.spill, align 1, !dbg !1809
  call void @llvm.dbg.declare(metadata i8* %x15.dbg.spill, metadata !1792, metadata !DIExpression()), !dbg !1793
  %1 = bitcast <16 x i8>* %_17 to i8*, !dbg !1793
  store i8 %e0, i8* %1, align 16, !dbg !1793
  %2 = getelementptr inbounds <16 x i8>, <16 x i8>* %_17, i32 0, i32 1, !dbg !1793
  store i8 %e1, i8* %2, align 1, !dbg !1793
  %3 = getelementptr inbounds <16 x i8>, <16 x i8>* %_17, i32 0, i32 2, !dbg !1793
  store i8 %e2, i8* %3, align 2, !dbg !1793
  %4 = getelementptr inbounds <16 x i8>, <16 x i8>* %_17, i32 0, i32 3, !dbg !1793
  store i8 %e3, i8* %4, align 1, !dbg !1793
  %5 = getelementptr inbounds <16 x i8>, <16 x i8>* %_17, i32 0, i32 4, !dbg !1793
  store i8 %e4, i8* %5, align 4, !dbg !1793
  %6 = getelementptr inbounds <16 x i8>, <16 x i8>* %_17, i32 0, i32 5, !dbg !1793
  store i8 %e5, i8* %6, align 1, !dbg !1793
  %7 = getelementptr inbounds <16 x i8>, <16 x i8>* %_17, i32 0, i32 6, !dbg !1793
  store i8 %e6, i8* %7, align 2, !dbg !1793
  %8 = getelementptr inbounds <16 x i8>, <16 x i8>* %_17, i32 0, i32 7, !dbg !1793
  store i8 %e7, i8* %8, align 1, !dbg !1793
  %9 = getelementptr inbounds <16 x i8>, <16 x i8>* %_17, i32 0, i32 8, !dbg !1793
  store i8 %e8, i8* %9, align 8, !dbg !1793
  %10 = getelementptr inbounds <16 x i8>, <16 x i8>* %_17, i32 0, i32 9, !dbg !1793
  store i8 %e9, i8* %10, align 1, !dbg !1793
  %11 = getelementptr inbounds <16 x i8>, <16 x i8>* %_17, i32 0, i32 10, !dbg !1793
  store i8 %e10, i8* %11, align 2, !dbg !1793
  %12 = getelementptr inbounds <16 x i8>, <16 x i8>* %_17, i32 0, i32 11, !dbg !1793
  store i8 %e11, i8* %12, align 1, !dbg !1793
  %13 = getelementptr inbounds <16 x i8>, <16 x i8>* %_17, i32 0, i32 12, !dbg !1793
  store i8 %e12, i8* %13, align 4, !dbg !1793
  %14 = getelementptr inbounds <16 x i8>, <16 x i8>* %_17, i32 0, i32 13, !dbg !1793
  store i8 %e13, i8* %14, align 1, !dbg !1793
  %15 = getelementptr inbounds <16 x i8>, <16 x i8>* %_17, i32 0, i32 14, !dbg !1793
  store i8 %e14, i8* %15, align 2, !dbg !1793
  %16 = getelementptr inbounds <16 x i8>, <16 x i8>* %_17, i32 0, i32 15, !dbg !1793
  store i8 %e15, i8* %16, align 1, !dbg !1793
  %17 = load <16 x i8>, <16 x i8>* %_17, align 16, !dbg !1810
  %18 = bitcast <2 x i64>* %0 to <16 x i8>*, !dbg !1810
  store <16 x i8> %17, <16 x i8>* %18, align 16, !dbg !1810
  br label %bb1, !dbg !1810

bb1:                                              ; preds = %start
  ret void, !dbg !1811
}

; core::core_arch::x86::sse2::_mm_set1_epi8
; Function Attrs: inlinehint nonlazybind uwtable
define internal void @_ZN4core9core_arch3x864sse213_mm_set1_epi817h6e96f5ec70ae8760E(<2 x i64>* sret(<2 x i64>) %0, i8 %a) unnamed_addr #6 !dbg !1812 {
start:
  %a.dbg.spill = alloca i8, align 1
  store i8 %a, i8* %a.dbg.spill, align 1
  call void @llvm.dbg.declare(metadata i8* %a.dbg.spill, metadata !1816, metadata !DIExpression()), !dbg !1817
; call core::core_arch::x86::sse2::_mm_set_epi8
  call void @_ZN4core9core_arch3x864sse212_mm_set_epi817hc8f258d4273947e9E(<2 x i64>* sret(<2 x i64>) %0, i8 %a, i8 %a, i8 %a, i8 %a, i8 %a, i8 %a, i8 %a, i8 %a, i8 %a, i8 %a, i8 %a, i8 %a, i8 %a, i8 %a, i8 %a, i8 %a), !dbg !1818
  br label %bb1, !dbg !1818

bb1:                                              ; preds = %start
  ret void, !dbg !1819
}

; core::core_arch::x86::sse2::_mm_set_epi64x
; Function Attrs: inlinehint nonlazybind uwtable
define internal void @_ZN4core9core_arch3x864sse214_mm_set_epi64x17h8f28867166c9ed10E(<2 x i64>* sret(<2 x i64>) %0, i64 %e1, i64 %e0) unnamed_addr #6 !dbg !1820 {
start:
  %x1.dbg.spill = alloca i64, align 8
  %x0.dbg.spill = alloca i64, align 8
  %e0.dbg.spill = alloca i64, align 8
  %e1.dbg.spill = alloca i64, align 8
  %_3 = alloca <2 x i64>, align 16
  store i64 %e1, i64* %e1.dbg.spill, align 8
  call void @llvm.dbg.declare(metadata i64* %e1.dbg.spill, metadata !1824, metadata !DIExpression()), !dbg !1826
  store i64 %e0, i64* %e0.dbg.spill, align 8
  call void @llvm.dbg.declare(metadata i64* %e0.dbg.spill, metadata !1825, metadata !DIExpression()), !dbg !1827
  store i64 %e0, i64* %x0.dbg.spill, align 8, !dbg !1828
  call void @llvm.dbg.declare(metadata i64* %x0.dbg.spill, metadata !1829, metadata !DIExpression()), !dbg !1840
  store i64 %e1, i64* %x1.dbg.spill, align 8, !dbg !1842
  call void @llvm.dbg.declare(metadata i64* %x1.dbg.spill, metadata !1839, metadata !DIExpression()), !dbg !1840
  %1 = bitcast <2 x i64>* %_3 to i64*, !dbg !1840
  store i64 %e0, i64* %1, align 16, !dbg !1840
  %2 = getelementptr inbounds <2 x i64>, <2 x i64>* %_3, i32 0, i32 1, !dbg !1840
  store i64 %e1, i64* %2, align 8, !dbg !1840
  %3 = load <2 x i64>, <2 x i64>* %_3, align 16, !dbg !1843
  store <2 x i64> %3, <2 x i64>* %0, align 16, !dbg !1843
  br label %bb1, !dbg !1843

bb1:                                              ; preds = %start
  ret void, !dbg !1844
}

; core::core_arch::x86::sse2::_mm_setzero_pd
; Function Attrs: inlinehint nonlazybind uwtable
define internal void @_ZN4core9core_arch3x864sse214_mm_setzero_pd17heb3966e5eafe590bE(<2 x double>* sret(<2 x double>) %0) unnamed_addr #6 !dbg !1845 {
start:
  %1 = bitcast <2 x double>* %0 to double*, !dbg !1848
  store double 0.000000e+00, double* %1, align 16, !dbg !1848
  %2 = getelementptr inbounds <2 x double>, <2 x double>* %0, i32 0, i32 1, !dbg !1848
  store double 0.000000e+00, double* %2, align 8, !dbg !1848
  ret void, !dbg !1854
}

; core::core_arch::x86::sse2::_mm_shuffle_pd
; Function Attrs: inlinehint nonlazybind uwtable
define void @_ZN4core9core_arch3x864sse214_mm_shuffle_pd17h1459cc7492a3e77cE(<2 x double>* sret(<2 x double>) %0, <2 x double>* %a, <2 x double>* %b) unnamed_addr #6 !dbg !1855 {
start:
  call void @llvm.dbg.declare(metadata <2 x double>* %a, metadata !1859, metadata !DIExpression()), !dbg !1861
  call void @llvm.dbg.declare(metadata <2 x double>* %b, metadata !1860, metadata !DIExpression()), !dbg !1862
  %_3 = load <2 x double>, <2 x double>* %a, align 16, !dbg !1863
  %_4 = load <2 x double>, <2 x double>* %b, align 16, !dbg !1864
  %1 = shufflevector <2 x double> %_3, <2 x double> %_4, <2 x i32> <i32 1, i32 3>, !dbg !1865
  store <2 x double> %1, <2 x double>* %0, align 16, !dbg !1865
  br label %bb1, !dbg !1865

bb1:                                              ; preds = %start
  ret void, !dbg !1866
}

; core::core_arch::x86::sse2::_mm_slli_si128
; Function Attrs: inlinehint nonlazybind uwtable
define void @_ZN4core9core_arch3x864sse214_mm_slli_si12817h1f7cb04b699274b5E(<2 x i64>* sret(<2 x i64>) %0, <2 x i64>* %a) unnamed_addr #6 !dbg !1867 {
start:
  %1 = alloca <16 x i8>, align 16, !dbg !1870
  %2 = alloca <16 x i8>, align 16, !dbg !1870
  %self.dbg.spill4 = alloca <2 x i64>, align 16, !dbg !1870
  %self.dbg.spill3 = alloca <2 x i64>, align 16, !dbg !1870
  %zero.dbg.spill = alloca <16 x i8>, align 16, !dbg !1870
  %3 = alloca <16 x i8>, align 16, !dbg !1870
  %self.dbg.spill2 = alloca <2 x i64>, align 16, !dbg !1870
  %self.dbg.spill = alloca <2 x i64>, align 16, !dbg !1870
  %4 = alloca <2 x i64>, align 16, !dbg !1870
  %a.dbg.spill = alloca <2 x i64>, align 16, !dbg !1870
  call void @llvm.dbg.declare(metadata <2 x i64>* %a, metadata !1869, metadata !DIExpression()), !dbg !1870
  %a1 = load <2 x i64>, <2 x i64>* %a, align 16, !dbg !1871
  store <2 x i64> %a1, <2 x i64>* %a.dbg.spill, align 16, !dbg !1871
  call void @llvm.dbg.declare(metadata <2 x i64>* %a.dbg.spill, metadata !1872, metadata !DIExpression()), !dbg !1877
; call core::core_arch::x86::sse2::_mm_set1_epi8
  call void @_ZN4core9core_arch3x864sse213_mm_set1_epi817h6e96f5ec70ae8760E(<2 x i64>* sret(<2 x i64>) %4, i8 0), !dbg !1877
  %self = load <2 x i64>, <2 x i64>* %4, align 16, !dbg !1877
  store <2 x i64> %self, <2 x i64>* %self.dbg.spill, align 16, !dbg !1877
  call void @llvm.dbg.declare(metadata <2 x i64>* %self.dbg.spill, metadata !1879, metadata !DIExpression()), !dbg !1888
  br label %bb3, !dbg !1877

bb3:                                              ; preds = %start
  store <2 x i64> %self, <2 x i64>* %self.dbg.spill2, align 16, !dbg !1888
  call void @llvm.dbg.declare(metadata <2 x i64>* %self.dbg.spill2, metadata !1890, metadata !DIExpression()), !dbg !1895
  %5 = bitcast <16 x i8>* %3 to <2 x i64>*, !dbg !1888
  store <2 x i64> %self, <2 x i64>* %5, align 16, !dbg !1888
  %zero = load <16 x i8>, <16 x i8>* %3, align 16, !dbg !1888
  store <16 x i8> %zero, <16 x i8>* %zero.dbg.spill, align 16, !dbg !1888
  call void @llvm.dbg.declare(metadata <16 x i8>* %zero.dbg.spill, metadata !1875, metadata !DIExpression()), !dbg !1897
  br label %bb4, !dbg !1888

bb4:                                              ; preds = %bb3
  store <2 x i64> %a1, <2 x i64>* %self.dbg.spill3, align 16, !dbg !1897
  call void @llvm.dbg.declare(metadata <2 x i64>* %self.dbg.spill3, metadata !1898, metadata !DIExpression()), !dbg !1902
  store <2 x i64> %a1, <2 x i64>* %self.dbg.spill4, align 16, !dbg !1902
  call void @llvm.dbg.declare(metadata <2 x i64>* %self.dbg.spill4, metadata !1904, metadata !DIExpression()), !dbg !1908
  %6 = bitcast <16 x i8>* %2 to <2 x i64>*, !dbg !1902
  store <2 x i64> %a1, <2 x i64>* %6, align 16, !dbg !1902
  %_7 = load <16 x i8>, <16 x i8>* %2, align 16, !dbg !1902
  br label %bb5, !dbg !1902

bb5:                                              ; preds = %bb4
  %7 = shufflevector <16 x i8> %zero, <16 x i8> %_7, <16 x i32> <i32 14, i32 15, i32 16, i32 17, i32 18, i32 19, i32 20, i32 21, i32 22, i32 23, i32 24, i32 25, i32 26, i32 27, i32 28, i32 29>, !dbg !1897
  store <16 x i8> %7, <16 x i8>* %1, align 16, !dbg !1897
  %_5 = load <16 x i8>, <16 x i8>* %1, align 16, !dbg !1897
  br label %bb1, !dbg !1897

bb1:                                              ; preds = %bb5
  %8 = bitcast <2 x i64>* %0 to <16 x i8>*, !dbg !1897
  store <16 x i8> %_5, <16 x i8>* %8, align 16, !dbg !1897
  br label %bb2, !dbg !1897

bb2:                                              ; preds = %bb1
  ret void, !dbg !1910
}

; core::core_arch::x86::sse2::_mm_setzero_si128
; Function Attrs: inlinehint nonlazybind uwtable
define internal void @_ZN4core9core_arch3x864sse217_mm_setzero_si12817h4ee61cb316cc3f73E(<2 x i64>* sret(<2 x i64>) %0) unnamed_addr #6 !dbg !1911 {
start:
  %_4 = alloca <2 x i64>, align 16
  %1 = bitcast <2 x i64>* %_4 to i64*, !dbg !1914
  store i64 0, i64* %1, align 16, !dbg !1914
  %2 = getelementptr inbounds <2 x i64>, <2 x i64>* %_4, i32 0, i32 1, !dbg !1914
  store i64 0, i64* %2, align 8, !dbg !1914
  %3 = load <2 x i64>, <2 x i64>* %_4, align 16, !dbg !1932
  store <2 x i64> %3, <2 x i64>* %0, align 16, !dbg !1932
  br label %bb1, !dbg !1932

bb1:                                              ; preds = %start
  ret void, !dbg !1933
}

; core::core_arch::x86::sse2::_mm_shuffle_epi32
; Function Attrs: inlinehint nonlazybind uwtable
define void @_ZN4core9core_arch3x864sse217_mm_shuffle_epi3217h3e89eabf4d52bbc7E(<2 x i64>* sret(<2 x i64>) %0, <2 x i64>* %a) unnamed_addr #6 !dbg !1934 {
start:
  %x.dbg.spill = alloca <4 x i32>, align 16, !dbg !1947
  %1 = alloca <4 x i32>, align 16, !dbg !1947
  %a.dbg.spill = alloca <4 x i32>, align 16, !dbg !1947
  %2 = alloca <4 x i32>, align 16, !dbg !1947
  %self.dbg.spill1 = alloca <2 x i64>, align 16, !dbg !1947
  %self.dbg.spill = alloca <2 x i64>, align 16, !dbg !1947
  call void @llvm.dbg.declare(metadata <2 x i64>* %a, metadata !1936, metadata !DIExpression()), !dbg !1947
  %self = load <2 x i64>, <2 x i64>* %a, align 16, !dbg !1948
  store <2 x i64> %self, <2 x i64>* %self.dbg.spill, align 16, !dbg !1948
  call void @llvm.dbg.declare(metadata <2 x i64>* %self.dbg.spill, metadata !1949, metadata !DIExpression()), !dbg !1955
  store <2 x i64> %self, <2 x i64>* %self.dbg.spill1, align 16, !dbg !1955
  call void @llvm.dbg.declare(metadata <2 x i64>* %self.dbg.spill1, metadata !1956, metadata !DIExpression()), !dbg !1960
  %3 = bitcast <4 x i32>* %2 to <2 x i64>*, !dbg !1955
  store <2 x i64> %self, <2 x i64>* %3, align 16, !dbg !1955
  %a2 = load <4 x i32>, <4 x i32>* %2, align 16, !dbg !1955
  store <4 x i32> %a2, <4 x i32>* %a.dbg.spill, align 16, !dbg !1955
  call void @llvm.dbg.declare(metadata <4 x i32>* %a.dbg.spill, metadata !1937, metadata !DIExpression()), !dbg !1962
  br label %bb3, !dbg !1955

bb3:                                              ; preds = %start
  %4 = shufflevector <4 x i32> %a2, <4 x i32> %a2, <4 x i32> <i32 1, i32 0, i32 0, i32 1>, !dbg !1963
  store <4 x i32> %4, <4 x i32>* %1, align 16, !dbg !1963
  %x = load <4 x i32>, <4 x i32>* %1, align 16, !dbg !1963
  store <4 x i32> %x, <4 x i32>* %x.dbg.spill, align 16, !dbg !1963
  call void @llvm.dbg.declare(metadata <4 x i32>* %x.dbg.spill, metadata !1945, metadata !DIExpression()), !dbg !1964
  br label %bb1, !dbg !1963

bb1:                                              ; preds = %bb3
  %5 = bitcast <2 x i64>* %0 to <4 x i32>*, !dbg !1965
  store <4 x i32> %x, <4 x i32>* %5, align 16, !dbg !1965
  br label %bb2, !dbg !1965

bb2:                                              ; preds = %bb1
  ret void, !dbg !1966
}

; core::core_arch::x86::sse2::_mm_unpackhi_epi8
; Function Attrs: inlinehint nonlazybind uwtable
define internal void @_ZN4core9core_arch3x864sse217_mm_unpackhi_epi817h70743a7980a6fe01E(<2 x i64>* sret(<2 x i64>) %0, <2 x i64>* %a, <2 x i64>* %b) unnamed_addr #6 !dbg !1967 {
start:
  %1 = alloca <16 x i8>, align 16, !dbg !1971
  %2 = alloca <16 x i8>, align 16, !dbg !1971
  %self.dbg.spill4 = alloca <2 x i64>, align 16, !dbg !1971
  %self.dbg.spill3 = alloca <2 x i64>, align 16, !dbg !1971
  %3 = alloca <16 x i8>, align 16, !dbg !1971
  %self.dbg.spill1 = alloca <2 x i64>, align 16, !dbg !1971
  %self.dbg.spill = alloca <2 x i64>, align 16, !dbg !1971
  call void @llvm.dbg.declare(metadata <2 x i64>* %a, metadata !1969, metadata !DIExpression()), !dbg !1971
  call void @llvm.dbg.declare(metadata <2 x i64>* %b, metadata !1970, metadata !DIExpression()), !dbg !1972
  %self = load <2 x i64>, <2 x i64>* %a, align 16, !dbg !1973
  store <2 x i64> %self, <2 x i64>* %self.dbg.spill, align 16, !dbg !1973
  call void @llvm.dbg.declare(metadata <2 x i64>* %self.dbg.spill, metadata !1974, metadata !DIExpression()), !dbg !1978
  store <2 x i64> %self, <2 x i64>* %self.dbg.spill1, align 16, !dbg !1978
  call void @llvm.dbg.declare(metadata <2 x i64>* %self.dbg.spill1, metadata !1979, metadata !DIExpression()), !dbg !1983
  %4 = bitcast <16 x i8>* %3 to <2 x i64>*, !dbg !1978
  store <2 x i64> %self, <2 x i64>* %4, align 16, !dbg !1978
  %_4 = load <16 x i8>, <16 x i8>* %3, align 16, !dbg !1978
  br label %bb3, !dbg !1978

bb3:                                              ; preds = %start
  %self2 = load <2 x i64>, <2 x i64>* %b, align 16, !dbg !1985
  store <2 x i64> %self2, <2 x i64>* %self.dbg.spill3, align 16, !dbg !1985
  call void @llvm.dbg.declare(metadata <2 x i64>* %self.dbg.spill3, metadata !1986, metadata !DIExpression()), !dbg !1990
  store <2 x i64> %self2, <2 x i64>* %self.dbg.spill4, align 16, !dbg !1990
  call void @llvm.dbg.declare(metadata <2 x i64>* %self.dbg.spill4, metadata !1991, metadata !DIExpression()), !dbg !1995
  %5 = bitcast <16 x i8>* %2 to <2 x i64>*, !dbg !1990
  store <2 x i64> %self2, <2 x i64>* %5, align 16, !dbg !1990
  %_6 = load <16 x i8>, <16 x i8>* %2, align 16, !dbg !1990
  br label %bb4, !dbg !1990

bb4:                                              ; preds = %bb3
  %6 = shufflevector <16 x i8> %_4, <16 x i8> %_6, <16 x i32> <i32 8, i32 24, i32 9, i32 25, i32 10, i32 26, i32 11, i32 27, i32 12, i32 28, i32 13, i32 29, i32 14, i32 30, i32 15, i32 31>, !dbg !1997
  store <16 x i8> %6, <16 x i8>* %1, align 16, !dbg !1997
  %_3 = load <16 x i8>, <16 x i8>* %1, align 16, !dbg !1997
  br label %bb1, !dbg !1997

bb1:                                              ; preds = %bb4
  %7 = bitcast <2 x i64>* %0 to <16 x i8>*, !dbg !1998
  store <16 x i8> %_3, <16 x i8>* %7, align 16, !dbg !1998
  br label %bb2, !dbg !1998

bb2:                                              ; preds = %bb1
  ret void, !dbg !1999
}

; core::core_arch::x86::sse2::_mm_unpacklo_epi8
; Function Attrs: inlinehint nonlazybind uwtable
define internal void @_ZN4core9core_arch3x864sse217_mm_unpacklo_epi817h43f9994c22db7972E(<2 x i64>* sret(<2 x i64>) %0, <2 x i64>* %a, <2 x i64>* %b) unnamed_addr #6 !dbg !2000 {
start:
  %1 = alloca <16 x i8>, align 16, !dbg !2004
  %2 = alloca <16 x i8>, align 16, !dbg !2004
  %self.dbg.spill4 = alloca <2 x i64>, align 16, !dbg !2004
  %self.dbg.spill3 = alloca <2 x i64>, align 16, !dbg !2004
  %3 = alloca <16 x i8>, align 16, !dbg !2004
  %self.dbg.spill1 = alloca <2 x i64>, align 16, !dbg !2004
  %self.dbg.spill = alloca <2 x i64>, align 16, !dbg !2004
  call void @llvm.dbg.declare(metadata <2 x i64>* %a, metadata !2002, metadata !DIExpression()), !dbg !2004
  call void @llvm.dbg.declare(metadata <2 x i64>* %b, metadata !2003, metadata !DIExpression()), !dbg !2005
  %self = load <2 x i64>, <2 x i64>* %a, align 16, !dbg !2006
  store <2 x i64> %self, <2 x i64>* %self.dbg.spill, align 16, !dbg !2006
  call void @llvm.dbg.declare(metadata <2 x i64>* %self.dbg.spill, metadata !2007, metadata !DIExpression()), !dbg !2011
  store <2 x i64> %self, <2 x i64>* %self.dbg.spill1, align 16, !dbg !2011
  call void @llvm.dbg.declare(metadata <2 x i64>* %self.dbg.spill1, metadata !2012, metadata !DIExpression()), !dbg !2016
  %4 = bitcast <16 x i8>* %3 to <2 x i64>*, !dbg !2011
  store <2 x i64> %self, <2 x i64>* %4, align 16, !dbg !2011
  %_4 = load <16 x i8>, <16 x i8>* %3, align 16, !dbg !2011
  br label %bb3, !dbg !2011

bb3:                                              ; preds = %start
  %self2 = load <2 x i64>, <2 x i64>* %b, align 16, !dbg !2018
  store <2 x i64> %self2, <2 x i64>* %self.dbg.spill3, align 16, !dbg !2018
  call void @llvm.dbg.declare(metadata <2 x i64>* %self.dbg.spill3, metadata !2019, metadata !DIExpression()), !dbg !2023
  store <2 x i64> %self2, <2 x i64>* %self.dbg.spill4, align 16, !dbg !2023
  call void @llvm.dbg.declare(metadata <2 x i64>* %self.dbg.spill4, metadata !2024, metadata !DIExpression()), !dbg !2028
  %5 = bitcast <16 x i8>* %2 to <2 x i64>*, !dbg !2023
  store <2 x i64> %self2, <2 x i64>* %5, align 16, !dbg !2023
  %_6 = load <16 x i8>, <16 x i8>* %2, align 16, !dbg !2023
  br label %bb4, !dbg !2023

bb4:                                              ; preds = %bb3
  %6 = shufflevector <16 x i8> %_4, <16 x i8> %_6, <16 x i32> <i32 0, i32 16, i32 1, i32 17, i32 2, i32 18, i32 3, i32 19, i32 4, i32 20, i32 5, i32 21, i32 6, i32 22, i32 7, i32 23>, !dbg !2030
  store <16 x i8> %6, <16 x i8>* %1, align 16, !dbg !2030
  %_3 = load <16 x i8>, <16 x i8>* %1, align 16, !dbg !2030
  br label %bb1, !dbg !2030

bb1:                                              ; preds = %bb4
  %7 = bitcast <2 x i64>* %0 to <16 x i8>*, !dbg !2031
  store <16 x i8> %_3, <16 x i8>* %7, align 16, !dbg !2031
  br label %bb2, !dbg !2031

bb2:                                              ; preds = %bb1
  ret void, !dbg !2032
}

; core::core_arch::x86::sse2::_mm_shufflehi_epi16
; Function Attrs: inlinehint nonlazybind uwtable
define void @_ZN4core9core_arch3x864sse219_mm_shufflehi_epi1617hbef0f33dae7c6040E(<2 x i64>* sret(<2 x i64>) %0, <2 x i64>* %a) unnamed_addr #6 !dbg !2033 {
start:
  %x.dbg.spill = alloca <8 x i16>, align 16, !dbg !2050
  %1 = alloca <8 x i16>, align 16, !dbg !2050
  %a.dbg.spill = alloca <8 x i16>, align 16, !dbg !2050
  %2 = alloca <8 x i16>, align 16, !dbg !2050
  %self.dbg.spill1 = alloca <2 x i64>, align 16, !dbg !2050
  %self.dbg.spill = alloca <2 x i64>, align 16, !dbg !2050
  call void @llvm.dbg.declare(metadata <2 x i64>* %a, metadata !2035, metadata !DIExpression()), !dbg !2050
  %self = load <2 x i64>, <2 x i64>* %a, align 16, !dbg !2051
  store <2 x i64> %self, <2 x i64>* %self.dbg.spill, align 16, !dbg !2051
  call void @llvm.dbg.declare(metadata <2 x i64>* %self.dbg.spill, metadata !2052, metadata !DIExpression()), !dbg !2058
  store <2 x i64> %self, <2 x i64>* %self.dbg.spill1, align 16, !dbg !2058
  call void @llvm.dbg.declare(metadata <2 x i64>* %self.dbg.spill1, metadata !2059, metadata !DIExpression()), !dbg !2063
  %3 = bitcast <8 x i16>* %2 to <2 x i64>*, !dbg !2058
  store <2 x i64> %self, <2 x i64>* %3, align 16, !dbg !2058
  %a2 = load <8 x i16>, <8 x i16>* %2, align 16, !dbg !2058
  store <8 x i16> %a2, <8 x i16>* %a.dbg.spill, align 16, !dbg !2058
  call void @llvm.dbg.declare(metadata <8 x i16>* %a.dbg.spill, metadata !2036, metadata !DIExpression()), !dbg !2065
  br label %bb3, !dbg !2058

bb3:                                              ; preds = %start
  %4 = shufflevector <8 x i16> %a2, <8 x i16> %a2, <8 x i32> <i32 0, i32 1, i32 2, i32 3, i32 7, i32 6, i32 5, i32 4>, !dbg !2066
  store <8 x i16> %4, <8 x i16>* %1, align 16, !dbg !2066
  %x = load <8 x i16>, <8 x i16>* %1, align 16, !dbg !2066
  store <8 x i16> %x, <8 x i16>* %x.dbg.spill, align 16, !dbg !2066
  call void @llvm.dbg.declare(metadata <8 x i16>* %x.dbg.spill, metadata !2048, metadata !DIExpression()), !dbg !2067
  br label %bb1, !dbg !2066

bb1:                                              ; preds = %bb3
  %5 = bitcast <2 x i64>* %0 to <8 x i16>*, !dbg !2068
  store <8 x i16> %x, <8 x i16>* %5, align 16, !dbg !2068
  br label %bb2, !dbg !2068

bb2:                                              ; preds = %bb1
  ret void, !dbg !2069
}

; core::core_arch::x86::sse2::_mm_shufflelo_epi16
; Function Attrs: inlinehint nonlazybind uwtable
define void @_ZN4core9core_arch3x864sse219_mm_shufflelo_epi1617h037afd97007308b7E(<2 x i64>* sret(<2 x i64>) %0, <2 x i64>* %a) unnamed_addr #6 !dbg !2070 {
start:
  %x.dbg.spill = alloca <8 x i16>, align 16, !dbg !2077
  %1 = alloca <8 x i16>, align 16, !dbg !2077
  %a.dbg.spill = alloca <8 x i16>, align 16, !dbg !2077
  %2 = alloca <8 x i16>, align 16, !dbg !2077
  %self.dbg.spill1 = alloca <2 x i64>, align 16, !dbg !2077
  %self.dbg.spill = alloca <2 x i64>, align 16, !dbg !2077
  call void @llvm.dbg.declare(metadata <2 x i64>* %a, metadata !2072, metadata !DIExpression()), !dbg !2077
  %self = load <2 x i64>, <2 x i64>* %a, align 16, !dbg !2078
  store <2 x i64> %self, <2 x i64>* %self.dbg.spill, align 16, !dbg !2078
  call void @llvm.dbg.declare(metadata <2 x i64>* %self.dbg.spill, metadata !2079, metadata !DIExpression()), !dbg !2083
  store <2 x i64> %self, <2 x i64>* %self.dbg.spill1, align 16, !dbg !2083
  call void @llvm.dbg.declare(metadata <2 x i64>* %self.dbg.spill1, metadata !2084, metadata !DIExpression()), !dbg !2088
  %3 = bitcast <8 x i16>* %2 to <2 x i64>*, !dbg !2083
  store <2 x i64> %self, <2 x i64>* %3, align 16, !dbg !2083
  %a2 = load <8 x i16>, <8 x i16>* %2, align 16, !dbg !2083
  store <8 x i16> %a2, <8 x i16>* %a.dbg.spill, align 16, !dbg !2083
  call void @llvm.dbg.declare(metadata <8 x i16>* %a.dbg.spill, metadata !2073, metadata !DIExpression()), !dbg !2090
  br label %bb3, !dbg !2083

bb3:                                              ; preds = %start
  %4 = shufflevector <8 x i16> %a2, <8 x i16> %a2, <8 x i32> <i32 1, i32 3, i32 2, i32 3, i32 4, i32 5, i32 6, i32 7>, !dbg !2091
  store <8 x i16> %4, <8 x i16>* %1, align 16, !dbg !2091
  %x = load <8 x i16>, <8 x i16>* %1, align 16, !dbg !2091
  store <8 x i16> %x, <8 x i16>* %x.dbg.spill, align 16, !dbg !2091
  call void @llvm.dbg.declare(metadata <8 x i16>* %x.dbg.spill, metadata !2075, metadata !DIExpression()), !dbg !2092
  br label %bb1, !dbg !2091

bb1:                                              ; preds = %bb3
  %5 = bitcast <2 x i64>* %0 to <8 x i16>*, !dbg !2093
  store <8 x i16> %x, <8 x i16>* %5, align 16, !dbg !2093
  br label %bb2, !dbg !2093

bb2:                                              ; preds = %bb1
  ret void, !dbg !2094
}

; core::core_arch::x86::sse41::_mm_blend_pd
; Function Attrs: inlinehint nonlazybind uwtable
define void @_ZN4core9core_arch3x865sse4112_mm_blend_pd17h1e54ac534f557b0cE(<2 x double>* sret(<2 x double>) %0, <2 x double>* %a, <2 x double>* %b) unnamed_addr #7 !dbg !2095 {
start:
  call void @llvm.dbg.declare(metadata <2 x double>* %a, metadata !2099, metadata !DIExpression()), !dbg !2101
  call void @llvm.dbg.declare(metadata <2 x double>* %b, metadata !2100, metadata !DIExpression()), !dbg !2102
  %_3 = load <2 x double>, <2 x double>* %a, align 16, !dbg !2103
  %_4 = load <2 x double>, <2 x double>* %b, align 16, !dbg !2104
  %1 = shufflevector <2 x double> %_3, <2 x double> %_4, <2 x i32> <i32 2, i32 3>, !dbg !2105
  store <2 x double> %1, <2 x double>* %0, align 16, !dbg !2105
  br label %bb1, !dbg !2105

bb1:                                              ; preds = %start
  ret void, !dbg !2106
}

; core::core_arch::x86::sse41::_mm_blend_ps
; Function Attrs: inlinehint nonlazybind uwtable
define void @_ZN4core9core_arch3x865sse4112_mm_blend_ps17h5e72c4a3d1c62dddE(<4 x float>* sret(<4 x float>) %0, <4 x float>* %a, <4 x float>* %b) unnamed_addr #7 !dbg !2107 {
start:
  call void @llvm.dbg.declare(metadata <4 x float>* %a, metadata !2109, metadata !DIExpression()), !dbg !2111
  call void @llvm.dbg.declare(metadata <4 x float>* %b, metadata !2110, metadata !DIExpression()), !dbg !2112
  %_3 = load <4 x float>, <4 x float>* %a, align 16, !dbg !2113
  %_4 = load <4 x float>, <4 x float>* %b, align 16, !dbg !2114
  %1 = shufflevector <4 x float> %_3, <4 x float> %_4, <4 x i32> <i32 4, i32 1, i32 2, i32 3>, !dbg !2115
  store <4 x float> %1, <4 x float>* %0, align 16, !dbg !2115
  br label %bb1, !dbg !2115

bb1:                                              ; preds = %start
  ret void, !dbg !2116
}

; core::core_arch::x86::sse41::_mm_max_epi8
; Function Attrs: inlinehint nonlazybind uwtable
define internal void @_ZN4core9core_arch3x865sse4112_mm_max_epi817h73dc0650867ebe06E(<2 x i64>* sret(<2 x i64>) %0, <2 x i64>* %a, <2 x i64>* %b) unnamed_addr #7 !dbg !2117 {
start:
  %1 = alloca <16 x i8>, align 16, !dbg !2121
  %self.dbg.spill4 = alloca <2 x i64>, align 16, !dbg !2121
  %self.dbg.spill3 = alloca <2 x i64>, align 16, !dbg !2121
  %2 = alloca <16 x i8>, align 16, !dbg !2121
  %self.dbg.spill1 = alloca <2 x i64>, align 16, !dbg !2121
  %self.dbg.spill = alloca <2 x i64>, align 16, !dbg !2121
  call void @llvm.dbg.declare(metadata <2 x i64>* %a, metadata !2119, metadata !DIExpression()), !dbg !2121
  call void @llvm.dbg.declare(metadata <2 x i64>* %b, metadata !2120, metadata !DIExpression()), !dbg !2122
  %self = load <2 x i64>, <2 x i64>* %a, align 16, !dbg !2123
  store <2 x i64> %self, <2 x i64>* %self.dbg.spill, align 16, !dbg !2123
  call void @llvm.dbg.declare(metadata <2 x i64>* %self.dbg.spill, metadata !2124, metadata !DIExpression()), !dbg !2128
  store <2 x i64> %self, <2 x i64>* %self.dbg.spill1, align 16, !dbg !2128
  call void @llvm.dbg.declare(metadata <2 x i64>* %self.dbg.spill1, metadata !2129, metadata !DIExpression()), !dbg !2133
  %3 = bitcast <16 x i8>* %2 to <2 x i64>*, !dbg !2128
  store <2 x i64> %self, <2 x i64>* %3, align 16, !dbg !2128
  %_4 = load <16 x i8>, <16 x i8>* %2, align 16, !dbg !2128
  br label %bb3, !dbg !2128

bb3:                                              ; preds = %start
  %self2 = load <2 x i64>, <2 x i64>* %b, align 16, !dbg !2135
  store <2 x i64> %self2, <2 x i64>* %self.dbg.spill3, align 16, !dbg !2135
  call void @llvm.dbg.declare(metadata <2 x i64>* %self.dbg.spill3, metadata !2136, metadata !DIExpression()), !dbg !2140
  store <2 x i64> %self2, <2 x i64>* %self.dbg.spill4, align 16, !dbg !2140
  call void @llvm.dbg.declare(metadata <2 x i64>* %self.dbg.spill4, metadata !2141, metadata !DIExpression()), !dbg !2145
  %4 = bitcast <16 x i8>* %1 to <2 x i64>*, !dbg !2140
  store <2 x i64> %self2, <2 x i64>* %4, align 16, !dbg !2140
  %_6 = load <16 x i8>, <16 x i8>* %1, align 16, !dbg !2140
  br label %bb4, !dbg !2140

bb4:                                              ; preds = %bb3
  %5 = call <16 x i8> @llvm.smax.v16i8(<16 x i8> %_4, <16 x i8> %_6), !dbg !2147
  br label %bb1, !dbg !2147

bb1:                                              ; preds = %bb4
  %6 = bitcast <2 x i64>* %0 to <16 x i8>*, !dbg !2148
  store <16 x i8> %5, <16 x i8>* %6, align 16, !dbg !2148
  br label %bb2, !dbg !2148

bb2:                                              ; preds = %bb1
  ret void, !dbg !2149
}

; core::core_arch::x86::sse41::_mm_min_epi8
; Function Attrs: inlinehint nonlazybind uwtable
define internal void @_ZN4core9core_arch3x865sse4112_mm_min_epi817h651834a268d68248E(<2 x i64>* sret(<2 x i64>) %0, <2 x i64>* %a, <2 x i64>* %b) unnamed_addr #7 !dbg !2150 {
start:
  %1 = alloca <16 x i8>, align 16, !dbg !2154
  %self.dbg.spill4 = alloca <2 x i64>, align 16, !dbg !2154
  %self.dbg.spill3 = alloca <2 x i64>, align 16, !dbg !2154
  %2 = alloca <16 x i8>, align 16, !dbg !2154
  %self.dbg.spill1 = alloca <2 x i64>, align 16, !dbg !2154
  %self.dbg.spill = alloca <2 x i64>, align 16, !dbg !2154
  call void @llvm.dbg.declare(metadata <2 x i64>* %a, metadata !2152, metadata !DIExpression()), !dbg !2154
  call void @llvm.dbg.declare(metadata <2 x i64>* %b, metadata !2153, metadata !DIExpression()), !dbg !2155
  %self = load <2 x i64>, <2 x i64>* %a, align 16, !dbg !2156
  store <2 x i64> %self, <2 x i64>* %self.dbg.spill, align 16, !dbg !2156
  call void @llvm.dbg.declare(metadata <2 x i64>* %self.dbg.spill, metadata !2157, metadata !DIExpression()), !dbg !2161
  store <2 x i64> %self, <2 x i64>* %self.dbg.spill1, align 16, !dbg !2161
  call void @llvm.dbg.declare(metadata <2 x i64>* %self.dbg.spill1, metadata !2162, metadata !DIExpression()), !dbg !2166
  %3 = bitcast <16 x i8>* %2 to <2 x i64>*, !dbg !2161
  store <2 x i64> %self, <2 x i64>* %3, align 16, !dbg !2161
  %_4 = load <16 x i8>, <16 x i8>* %2, align 16, !dbg !2161
  br label %bb3, !dbg !2161

bb3:                                              ; preds = %start
  %self2 = load <2 x i64>, <2 x i64>* %b, align 16, !dbg !2168
  store <2 x i64> %self2, <2 x i64>* %self.dbg.spill3, align 16, !dbg !2168
  call void @llvm.dbg.declare(metadata <2 x i64>* %self.dbg.spill3, metadata !2169, metadata !DIExpression()), !dbg !2173
  store <2 x i64> %self2, <2 x i64>* %self.dbg.spill4, align 16, !dbg !2173
  call void @llvm.dbg.declare(metadata <2 x i64>* %self.dbg.spill4, metadata !2174, metadata !DIExpression()), !dbg !2178
  %4 = bitcast <16 x i8>* %1 to <2 x i64>*, !dbg !2173
  store <2 x i64> %self2, <2 x i64>* %4, align 16, !dbg !2173
  %_6 = load <16 x i8>, <16 x i8>* %1, align 16, !dbg !2173
  br label %bb4, !dbg !2173

bb4:                                              ; preds = %bb3
  %5 = call <16 x i8> @llvm.smin.v16i8(<16 x i8> %_4, <16 x i8> %_6), !dbg !2180
  br label %bb1, !dbg !2180

bb1:                                              ; preds = %bb4
  %6 = bitcast <2 x i64>* %0 to <16 x i8>*, !dbg !2181
  store <16 x i8> %5, <16 x i8>* %6, align 16, !dbg !2181
  br label %bb2, !dbg !2181

bb2:                                              ; preds = %bb1
  ret void, !dbg !2182
}

; core::core_arch::x86::sse41::_mm_round_pd
; Function Attrs: inlinehint nonlazybind uwtable
define void @_ZN4core9core_arch3x865sse4112_mm_round_pd17h55f6671e3f77d5fdE(<2 x double>* sret(<2 x double>) %0, <2 x double>* %a) unnamed_addr #7 !dbg !2183 {
start:
  call void @llvm.dbg.declare(metadata <2 x double>* %a, metadata !2187, metadata !DIExpression()), !dbg !2188
  %_2 = load <2 x double>, <2 x double>* %a, align 16, !dbg !2189
  %1 = call <2 x double> @llvm.x86.sse41.round.pd(<2 x double> %_2, i32 2) #15, !dbg !2190
  store <2 x double> %1, <2 x double>* %0, align 16, !dbg !2190
  br label %bb1, !dbg !2190

bb1:                                              ; preds = %start
  ret void, !dbg !2191
}

; core::core_arch::x86::sse41::_mm_round_ps
; Function Attrs: inlinehint nonlazybind uwtable
define void @_ZN4core9core_arch3x865sse4112_mm_round_ps17hd647316b7a74b373E(<4 x float>* sret(<4 x float>) %0, <4 x float>* %a) unnamed_addr #7 !dbg !2192 {
start:
  call void @llvm.dbg.declare(metadata <4 x float>* %a, metadata !2196, metadata !DIExpression()), !dbg !2197
  %_2 = load <4 x float>, <4 x float>* %a, align 16, !dbg !2198
  %1 = call <4 x float> @llvm.x86.sse41.round.ps(<4 x float> %_2, i32 3) #15, !dbg !2199
  store <4 x float> %1, <4 x float>* %0, align 16, !dbg !2199
  br label %bb1, !dbg !2199

bb1:                                              ; preds = %start
  ret void, !dbg !2200
}

; core::core_arch::x86::sse41::_mm_round_sd
; Function Attrs: inlinehint nonlazybind uwtable
define void @_ZN4core9core_arch3x865sse4112_mm_round_sd17he460f557a7ed9b6fE(<2 x double>* sret(<2 x double>) %0, <2 x double>* %a, <2 x double>* %b) unnamed_addr #7 !dbg !2201 {
start:
  call void @llvm.dbg.declare(metadata <2 x double>* %a, metadata !2203, metadata !DIExpression()), !dbg !2205
  call void @llvm.dbg.declare(metadata <2 x double>* %b, metadata !2204, metadata !DIExpression()), !dbg !2206
  %_3 = load <2 x double>, <2 x double>* %a, align 16, !dbg !2207
  %_4 = load <2 x double>, <2 x double>* %b, align 16, !dbg !2208
  %1 = call <2 x double> @llvm.x86.sse41.round.sd(<2 x double> %_3, <2 x double> %_4, i32 1) #15, !dbg !2209
  store <2 x double> %1, <2 x double>* %0, align 16, !dbg !2209
  br label %bb1, !dbg !2209

bb1:                                              ; preds = %start
  ret void, !dbg !2210
}

; core::core_arch::x86::sse41::_mm_round_ss
; Function Attrs: inlinehint nonlazybind uwtable
define void @_ZN4core9core_arch3x865sse4112_mm_round_ss17hb71ab4cca7b3b25fE(<4 x float>* sret(<4 x float>) %0, <4 x float>* %a, <4 x float>* %b) unnamed_addr #7 !dbg !2211 {
start:
  call void @llvm.dbg.declare(metadata <4 x float>* %a, metadata !2213, metadata !DIExpression()), !dbg !2215
  call void @llvm.dbg.declare(metadata <4 x float>* %b, metadata !2214, metadata !DIExpression()), !dbg !2216
  %_3 = load <4 x float>, <4 x float>* %a, align 16, !dbg !2217
  %_4 = load <4 x float>, <4 x float>* %b, align 16, !dbg !2218
  %1 = call <4 x float> @llvm.x86.sse41.round.ss(<4 x float> %_3, <4 x float> %_4, i32 3) #15, !dbg !2219
  store <4 x float> %1, <4 x float>* %0, align 16, !dbg !2219
  br label %bb1, !dbg !2219

bb1:                                              ; preds = %start
  ret void, !dbg !2220
}

; core::core_arch::x86::sse41::_mm_blendv_pd
; Function Attrs: inlinehint nonlazybind uwtable
define internal void @_ZN4core9core_arch3x865sse4113_mm_blendv_pd17hc8298ffcf0864eb6E(<2 x double>* sret(<2 x double>) %0, <2 x double>* %a, <2 x double>* %b, <2 x double>* %mask) unnamed_addr #7 !dbg !2221 {
start:
  call void @llvm.dbg.declare(metadata <2 x double>* %a, metadata !2225, metadata !DIExpression()), !dbg !2228
  call void @llvm.dbg.declare(metadata <2 x double>* %b, metadata !2226, metadata !DIExpression()), !dbg !2229
  call void @llvm.dbg.declare(metadata <2 x double>* %mask, metadata !2227, metadata !DIExpression()), !dbg !2230
  %_4 = load <2 x double>, <2 x double>* %a, align 16, !dbg !2231
  %_5 = load <2 x double>, <2 x double>* %b, align 16, !dbg !2232
  %_6 = load <2 x double>, <2 x double>* %mask, align 16, !dbg !2233
  %1 = call <2 x double> @llvm.x86.sse41.blendvpd(<2 x double> %_4, <2 x double> %_5, <2 x double> %_6) #15, !dbg !2234
  store <2 x double> %1, <2 x double>* %0, align 16, !dbg !2234
  br label %bb1, !dbg !2234

bb1:                                              ; preds = %start
  ret void, !dbg !2235
}

; core::core_arch::x86::sse41::_mm_blendv_ps
; Function Attrs: inlinehint nonlazybind uwtable
define internal void @_ZN4core9core_arch3x865sse4113_mm_blendv_ps17h0f3888fa2df25cccE(<4 x float>* sret(<4 x float>) %0, <4 x float>* %a, <4 x float>* %b, <4 x float>* %mask) unnamed_addr #7 !dbg !2236 {
start:
  call void @llvm.dbg.declare(metadata <4 x float>* %a, metadata !2240, metadata !DIExpression()), !dbg !2243
  call void @llvm.dbg.declare(metadata <4 x float>* %b, metadata !2241, metadata !DIExpression()), !dbg !2244
  call void @llvm.dbg.declare(metadata <4 x float>* %mask, metadata !2242, metadata !DIExpression()), !dbg !2245
  %_4 = load <4 x float>, <4 x float>* %a, align 16, !dbg !2246
  %_5 = load <4 x float>, <4 x float>* %b, align 16, !dbg !2247
  %_6 = load <4 x float>, <4 x float>* %mask, align 16, !dbg !2248
  %1 = call <4 x float> @llvm.x86.sse41.blendvps(<4 x float> %_4, <4 x float> %_5, <4 x float> %_6) #15, !dbg !2249
  store <4 x float> %1, <4 x float>* %0, align 16, !dbg !2249
  br label %bb1, !dbg !2249

bb1:                                              ; preds = %start
  ret void, !dbg !2250
}

; core::core_arch::x86::sse41::_mm_insert_ps
; Function Attrs: inlinehint nonlazybind uwtable
define void @_ZN4core9core_arch3x865sse4113_mm_insert_ps17h7cde82dee6e60befE(<4 x float>* sret(<4 x float>) %0, <4 x float>* %a, <4 x float>* %b) unnamed_addr #7 !dbg !2251 {
start:
  call void @llvm.dbg.declare(metadata <4 x float>* %a, metadata !2253, metadata !DIExpression()), !dbg !2255
  call void @llvm.dbg.declare(metadata <4 x float>* %b, metadata !2254, metadata !DIExpression()), !dbg !2256
  %_3 = load <4 x float>, <4 x float>* %a, align 16, !dbg !2257
  %_4 = load <4 x float>, <4 x float>* %b, align 16, !dbg !2258
  %1 = call <4 x float> @llvm.x86.sse41.insertps(<4 x float> %_3, <4 x float> %_4, i8 zeroext 1) #15, !dbg !2259
  store <4 x float> %1, <4 x float>* %0, align 16, !dbg !2259
  br label %bb1, !dbg !2259

bb1:                                              ; preds = %start
  ret void, !dbg !2260
}

; core::core_arch::x86::sse41::_mm_max_epi32
; Function Attrs: inlinehint nonlazybind uwtable
define internal void @_ZN4core9core_arch3x865sse4113_mm_max_epi3217h8dd13268e7962c67E(<2 x i64>* sret(<2 x i64>) %0, <2 x i64>* %a, <2 x i64>* %b) unnamed_addr #7 !dbg !2261 {
start:
  %1 = alloca <4 x i32>, align 16, !dbg !2265
  %self.dbg.spill4 = alloca <2 x i64>, align 16, !dbg !2265
  %self.dbg.spill3 = alloca <2 x i64>, align 16, !dbg !2265
  %2 = alloca <4 x i32>, align 16, !dbg !2265
  %self.dbg.spill1 = alloca <2 x i64>, align 16, !dbg !2265
  %self.dbg.spill = alloca <2 x i64>, align 16, !dbg !2265
  call void @llvm.dbg.declare(metadata <2 x i64>* %a, metadata !2263, metadata !DIExpression()), !dbg !2265
  call void @llvm.dbg.declare(metadata <2 x i64>* %b, metadata !2264, metadata !DIExpression()), !dbg !2266
  %self = load <2 x i64>, <2 x i64>* %a, align 16, !dbg !2267
  store <2 x i64> %self, <2 x i64>* %self.dbg.spill, align 16, !dbg !2267
  call void @llvm.dbg.declare(metadata <2 x i64>* %self.dbg.spill, metadata !2268, metadata !DIExpression()), !dbg !2272
  store <2 x i64> %self, <2 x i64>* %self.dbg.spill1, align 16, !dbg !2272
  call void @llvm.dbg.declare(metadata <2 x i64>* %self.dbg.spill1, metadata !2273, metadata !DIExpression()), !dbg !2277
  %3 = bitcast <4 x i32>* %2 to <2 x i64>*, !dbg !2272
  store <2 x i64> %self, <2 x i64>* %3, align 16, !dbg !2272
  %_4 = load <4 x i32>, <4 x i32>* %2, align 16, !dbg !2272
  br label %bb3, !dbg !2272

bb3:                                              ; preds = %start
  %self2 = load <2 x i64>, <2 x i64>* %b, align 16, !dbg !2279
  store <2 x i64> %self2, <2 x i64>* %self.dbg.spill3, align 16, !dbg !2279
  call void @llvm.dbg.declare(metadata <2 x i64>* %self.dbg.spill3, metadata !2280, metadata !DIExpression()), !dbg !2284
  store <2 x i64> %self2, <2 x i64>* %self.dbg.spill4, align 16, !dbg !2284
  call void @llvm.dbg.declare(metadata <2 x i64>* %self.dbg.spill4, metadata !2285, metadata !DIExpression()), !dbg !2289
  %4 = bitcast <4 x i32>* %1 to <2 x i64>*, !dbg !2284
  store <2 x i64> %self2, <2 x i64>* %4, align 16, !dbg !2284
  %_6 = load <4 x i32>, <4 x i32>* %1, align 16, !dbg !2284
  br label %bb4, !dbg !2284

bb4:                                              ; preds = %bb3
  %5 = call <4 x i32> @llvm.smax.v4i32(<4 x i32> %_4, <4 x i32> %_6), !dbg !2291
  br label %bb1, !dbg !2291

bb1:                                              ; preds = %bb4
  %6 = bitcast <2 x i64>* %0 to <4 x i32>*, !dbg !2292
  store <4 x i32> %5, <4 x i32>* %6, align 16, !dbg !2292
  br label %bb2, !dbg !2292

bb2:                                              ; preds = %bb1
  ret void, !dbg !2293
}

; core::core_arch::x86::sse41::_mm_max_epu16
; Function Attrs: inlinehint nonlazybind uwtable
define internal void @_ZN4core9core_arch3x865sse4113_mm_max_epu1617h734dadc6415ef0a3E(<2 x i64>* sret(<2 x i64>) %0, <2 x i64>* %a, <2 x i64>* %b) unnamed_addr #7 !dbg !2294 {
start:
  %1 = alloca <8 x i16>, align 16, !dbg !2298
  %self.dbg.spill4 = alloca <2 x i64>, align 16, !dbg !2298
  %self.dbg.spill3 = alloca <2 x i64>, align 16, !dbg !2298
  %2 = alloca <8 x i16>, align 16, !dbg !2298
  %self.dbg.spill1 = alloca <2 x i64>, align 16, !dbg !2298
  %self.dbg.spill = alloca <2 x i64>, align 16, !dbg !2298
  call void @llvm.dbg.declare(metadata <2 x i64>* %a, metadata !2296, metadata !DIExpression()), !dbg !2298
  call void @llvm.dbg.declare(metadata <2 x i64>* %b, metadata !2297, metadata !DIExpression()), !dbg !2299
  %self = load <2 x i64>, <2 x i64>* %a, align 16, !dbg !2300
  store <2 x i64> %self, <2 x i64>* %self.dbg.spill, align 16, !dbg !2300
  call void @llvm.dbg.declare(metadata <2 x i64>* %self.dbg.spill, metadata !2301, metadata !DIExpression()), !dbg !2318
  store <2 x i64> %self, <2 x i64>* %self.dbg.spill1, align 16, !dbg !2318
  call void @llvm.dbg.declare(metadata <2 x i64>* %self.dbg.spill1, metadata !2319, metadata !DIExpression()), !dbg !2323
  %3 = bitcast <8 x i16>* %2 to <2 x i64>*, !dbg !2318
  store <2 x i64> %self, <2 x i64>* %3, align 16, !dbg !2318
  %_4 = load <8 x i16>, <8 x i16>* %2, align 16, !dbg !2318
  br label %bb3, !dbg !2318

bb3:                                              ; preds = %start
  %self2 = load <2 x i64>, <2 x i64>* %b, align 16, !dbg !2325
  store <2 x i64> %self2, <2 x i64>* %self.dbg.spill3, align 16, !dbg !2325
  call void @llvm.dbg.declare(metadata <2 x i64>* %self.dbg.spill3, metadata !2326, metadata !DIExpression()), !dbg !2330
  store <2 x i64> %self2, <2 x i64>* %self.dbg.spill4, align 16, !dbg !2330
  call void @llvm.dbg.declare(metadata <2 x i64>* %self.dbg.spill4, metadata !2331, metadata !DIExpression()), !dbg !2335
  %4 = bitcast <8 x i16>* %1 to <2 x i64>*, !dbg !2330
  store <2 x i64> %self2, <2 x i64>* %4, align 16, !dbg !2330
  %_6 = load <8 x i16>, <8 x i16>* %1, align 16, !dbg !2330
  br label %bb4, !dbg !2330

bb4:                                              ; preds = %bb3
  %5 = call <8 x i16> @llvm.umax.v8i16(<8 x i16> %_4, <8 x i16> %_6), !dbg !2337
  br label %bb1, !dbg !2337

bb1:                                              ; preds = %bb4
  %6 = bitcast <2 x i64>* %0 to <8 x i16>*, !dbg !2338
  store <8 x i16> %5, <8 x i16>* %6, align 16, !dbg !2338
  br label %bb2, !dbg !2338

bb2:                                              ; preds = %bb1
  ret void, !dbg !2339
}

; core::core_arch::x86::sse41::_mm_max_epu32
; Function Attrs: inlinehint nonlazybind uwtable
define internal void @_ZN4core9core_arch3x865sse4113_mm_max_epu3217h67baa1bb85adc0f0E(<2 x i64>* sret(<2 x i64>) %0, <2 x i64>* %a, <2 x i64>* %b) unnamed_addr #7 !dbg !2340 {
start:
  %1 = alloca <4 x i32>, align 16, !dbg !2344
  %self.dbg.spill4 = alloca <2 x i64>, align 16, !dbg !2344
  %self.dbg.spill3 = alloca <2 x i64>, align 16, !dbg !2344
  %2 = alloca <4 x i32>, align 16, !dbg !2344
  %self.dbg.spill1 = alloca <2 x i64>, align 16, !dbg !2344
  %self.dbg.spill = alloca <2 x i64>, align 16, !dbg !2344
  call void @llvm.dbg.declare(metadata <2 x i64>* %a, metadata !2342, metadata !DIExpression()), !dbg !2344
  call void @llvm.dbg.declare(metadata <2 x i64>* %b, metadata !2343, metadata !DIExpression()), !dbg !2345
  %self = load <2 x i64>, <2 x i64>* %a, align 16, !dbg !2346
  store <2 x i64> %self, <2 x i64>* %self.dbg.spill, align 16, !dbg !2346
  call void @llvm.dbg.declare(metadata <2 x i64>* %self.dbg.spill, metadata !2347, metadata !DIExpression()), !dbg !2359
  store <2 x i64> %self, <2 x i64>* %self.dbg.spill1, align 16, !dbg !2359
  call void @llvm.dbg.declare(metadata <2 x i64>* %self.dbg.spill1, metadata !2360, metadata !DIExpression()), !dbg !2364
  %3 = bitcast <4 x i32>* %2 to <2 x i64>*, !dbg !2359
  store <2 x i64> %self, <2 x i64>* %3, align 16, !dbg !2359
  %_4 = load <4 x i32>, <4 x i32>* %2, align 16, !dbg !2359
  br label %bb3, !dbg !2359

bb3:                                              ; preds = %start
  %self2 = load <2 x i64>, <2 x i64>* %b, align 16, !dbg !2366
  store <2 x i64> %self2, <2 x i64>* %self.dbg.spill3, align 16, !dbg !2366
  call void @llvm.dbg.declare(metadata <2 x i64>* %self.dbg.spill3, metadata !2367, metadata !DIExpression()), !dbg !2371
  store <2 x i64> %self2, <2 x i64>* %self.dbg.spill4, align 16, !dbg !2371
  call void @llvm.dbg.declare(metadata <2 x i64>* %self.dbg.spill4, metadata !2372, metadata !DIExpression()), !dbg !2376
  %4 = bitcast <4 x i32>* %1 to <2 x i64>*, !dbg !2371
  store <2 x i64> %self2, <2 x i64>* %4, align 16, !dbg !2371
  %_6 = load <4 x i32>, <4 x i32>* %1, align 16, !dbg !2371
  br label %bb4, !dbg !2371

bb4:                                              ; preds = %bb3
  %5 = call <4 x i32> @llvm.umax.v4i32(<4 x i32> %_4, <4 x i32> %_6), !dbg !2378
  br label %bb1, !dbg !2378

bb1:                                              ; preds = %bb4
  %6 = bitcast <2 x i64>* %0 to <4 x i32>*, !dbg !2379
  store <4 x i32> %5, <4 x i32>* %6, align 16, !dbg !2379
  br label %bb2, !dbg !2379

bb2:                                              ; preds = %bb1
  ret void, !dbg !2380
}

; core::core_arch::x86::sse41::_mm_min_epi32
; Function Attrs: inlinehint nonlazybind uwtable
define internal void @_ZN4core9core_arch3x865sse4113_mm_min_epi3217h3d811f7d9d4e07aeE(<2 x i64>* sret(<2 x i64>) %0, <2 x i64>* %a, <2 x i64>* %b) unnamed_addr #7 !dbg !2381 {
start:
  %1 = alloca <4 x i32>, align 16, !dbg !2385
  %self.dbg.spill4 = alloca <2 x i64>, align 16, !dbg !2385
  %self.dbg.spill3 = alloca <2 x i64>, align 16, !dbg !2385
  %2 = alloca <4 x i32>, align 16, !dbg !2385
  %self.dbg.spill1 = alloca <2 x i64>, align 16, !dbg !2385
  %self.dbg.spill = alloca <2 x i64>, align 16, !dbg !2385
  call void @llvm.dbg.declare(metadata <2 x i64>* %a, metadata !2383, metadata !DIExpression()), !dbg !2385
  call void @llvm.dbg.declare(metadata <2 x i64>* %b, metadata !2384, metadata !DIExpression()), !dbg !2386
  %self = load <2 x i64>, <2 x i64>* %a, align 16, !dbg !2387
  store <2 x i64> %self, <2 x i64>* %self.dbg.spill, align 16, !dbg !2387
  call void @llvm.dbg.declare(metadata <2 x i64>* %self.dbg.spill, metadata !2388, metadata !DIExpression()), !dbg !2392
  store <2 x i64> %self, <2 x i64>* %self.dbg.spill1, align 16, !dbg !2392
  call void @llvm.dbg.declare(metadata <2 x i64>* %self.dbg.spill1, metadata !2393, metadata !DIExpression()), !dbg !2397
  %3 = bitcast <4 x i32>* %2 to <2 x i64>*, !dbg !2392
  store <2 x i64> %self, <2 x i64>* %3, align 16, !dbg !2392
  %_4 = load <4 x i32>, <4 x i32>* %2, align 16, !dbg !2392
  br label %bb3, !dbg !2392

bb3:                                              ; preds = %start
  %self2 = load <2 x i64>, <2 x i64>* %b, align 16, !dbg !2399
  store <2 x i64> %self2, <2 x i64>* %self.dbg.spill3, align 16, !dbg !2399
  call void @llvm.dbg.declare(metadata <2 x i64>* %self.dbg.spill3, metadata !2400, metadata !DIExpression()), !dbg !2404
  store <2 x i64> %self2, <2 x i64>* %self.dbg.spill4, align 16, !dbg !2404
  call void @llvm.dbg.declare(metadata <2 x i64>* %self.dbg.spill4, metadata !2405, metadata !DIExpression()), !dbg !2409
  %4 = bitcast <4 x i32>* %1 to <2 x i64>*, !dbg !2404
  store <2 x i64> %self2, <2 x i64>* %4, align 16, !dbg !2404
  %_6 = load <4 x i32>, <4 x i32>* %1, align 16, !dbg !2404
  br label %bb4, !dbg !2404

bb4:                                              ; preds = %bb3
  %5 = call <4 x i32> @llvm.smin.v4i32(<4 x i32> %_4, <4 x i32> %_6), !dbg !2411
  br label %bb1, !dbg !2411

bb1:                                              ; preds = %bb4
  %6 = bitcast <2 x i64>* %0 to <4 x i32>*, !dbg !2412
  store <4 x i32> %5, <4 x i32>* %6, align 16, !dbg !2412
  br label %bb2, !dbg !2412

bb2:                                              ; preds = %bb1
  ret void, !dbg !2413
}

; core::core_arch::x86::sse41::_mm_min_epu16
; Function Attrs: inlinehint nonlazybind uwtable
define internal void @_ZN4core9core_arch3x865sse4113_mm_min_epu1617h47ce3cf46db367e8E(<2 x i64>* sret(<2 x i64>) %0, <2 x i64>* %a, <2 x i64>* %b) unnamed_addr #7 !dbg !2414 {
start:
  %1 = alloca <8 x i16>, align 16, !dbg !2418
  %self.dbg.spill4 = alloca <2 x i64>, align 16, !dbg !2418
  %self.dbg.spill3 = alloca <2 x i64>, align 16, !dbg !2418
  %2 = alloca <8 x i16>, align 16, !dbg !2418
  %self.dbg.spill1 = alloca <2 x i64>, align 16, !dbg !2418
  %self.dbg.spill = alloca <2 x i64>, align 16, !dbg !2418
  call void @llvm.dbg.declare(metadata <2 x i64>* %a, metadata !2416, metadata !DIExpression()), !dbg !2418
  call void @llvm.dbg.declare(metadata <2 x i64>* %b, metadata !2417, metadata !DIExpression()), !dbg !2419
  %self = load <2 x i64>, <2 x i64>* %a, align 16, !dbg !2420
  store <2 x i64> %self, <2 x i64>* %self.dbg.spill, align 16, !dbg !2420
  call void @llvm.dbg.declare(metadata <2 x i64>* %self.dbg.spill, metadata !2421, metadata !DIExpression()), !dbg !2425
  store <2 x i64> %self, <2 x i64>* %self.dbg.spill1, align 16, !dbg !2425
  call void @llvm.dbg.declare(metadata <2 x i64>* %self.dbg.spill1, metadata !2426, metadata !DIExpression()), !dbg !2430
  %3 = bitcast <8 x i16>* %2 to <2 x i64>*, !dbg !2425
  store <2 x i64> %self, <2 x i64>* %3, align 16, !dbg !2425
  %_4 = load <8 x i16>, <8 x i16>* %2, align 16, !dbg !2425
  br label %bb3, !dbg !2425

bb3:                                              ; preds = %start
  %self2 = load <2 x i64>, <2 x i64>* %b, align 16, !dbg !2432
  store <2 x i64> %self2, <2 x i64>* %self.dbg.spill3, align 16, !dbg !2432
  call void @llvm.dbg.declare(metadata <2 x i64>* %self.dbg.spill3, metadata !2433, metadata !DIExpression()), !dbg !2437
  store <2 x i64> %self2, <2 x i64>* %self.dbg.spill4, align 16, !dbg !2437
  call void @llvm.dbg.declare(metadata <2 x i64>* %self.dbg.spill4, metadata !2438, metadata !DIExpression()), !dbg !2442
  %4 = bitcast <8 x i16>* %1 to <2 x i64>*, !dbg !2437
  store <2 x i64> %self2, <2 x i64>* %4, align 16, !dbg !2437
  %_6 = load <8 x i16>, <8 x i16>* %1, align 16, !dbg !2437
  br label %bb4, !dbg !2437

bb4:                                              ; preds = %bb3
  %5 = call <8 x i16> @llvm.umin.v8i16(<8 x i16> %_4, <8 x i16> %_6), !dbg !2444
  br label %bb1, !dbg !2444

bb1:                                              ; preds = %bb4
  %6 = bitcast <2 x i64>* %0 to <8 x i16>*, !dbg !2445
  store <8 x i16> %5, <8 x i16>* %6, align 16, !dbg !2445
  br label %bb2, !dbg !2445

bb2:                                              ; preds = %bb1
  ret void, !dbg !2446
}

; core::core_arch::x86::sse41::_mm_min_epu32
; Function Attrs: inlinehint nonlazybind uwtable
define internal void @_ZN4core9core_arch3x865sse4113_mm_min_epu3217h36a551c61fe7f06aE(<2 x i64>* sret(<2 x i64>) %0, <2 x i64>* %a, <2 x i64>* %b) unnamed_addr #7 !dbg !2447 {
start:
  %1 = alloca <4 x i32>, align 16, !dbg !2451
  %self.dbg.spill4 = alloca <2 x i64>, align 16, !dbg !2451
  %self.dbg.spill3 = alloca <2 x i64>, align 16, !dbg !2451
  %2 = alloca <4 x i32>, align 16, !dbg !2451
  %self.dbg.spill1 = alloca <2 x i64>, align 16, !dbg !2451
  %self.dbg.spill = alloca <2 x i64>, align 16, !dbg !2451
  call void @llvm.dbg.declare(metadata <2 x i64>* %a, metadata !2449, metadata !DIExpression()), !dbg !2451
  call void @llvm.dbg.declare(metadata <2 x i64>* %b, metadata !2450, metadata !DIExpression()), !dbg !2452
  %self = load <2 x i64>, <2 x i64>* %a, align 16, !dbg !2453
  store <2 x i64> %self, <2 x i64>* %self.dbg.spill, align 16, !dbg !2453
  call void @llvm.dbg.declare(metadata <2 x i64>* %self.dbg.spill, metadata !2454, metadata !DIExpression()), !dbg !2458
  store <2 x i64> %self, <2 x i64>* %self.dbg.spill1, align 16, !dbg !2458
  call void @llvm.dbg.declare(metadata <2 x i64>* %self.dbg.spill1, metadata !2459, metadata !DIExpression()), !dbg !2463
  %3 = bitcast <4 x i32>* %2 to <2 x i64>*, !dbg !2458
  store <2 x i64> %self, <2 x i64>* %3, align 16, !dbg !2458
  %_4 = load <4 x i32>, <4 x i32>* %2, align 16, !dbg !2458
  br label %bb3, !dbg !2458

bb3:                                              ; preds = %start
  %self2 = load <2 x i64>, <2 x i64>* %b, align 16, !dbg !2465
  store <2 x i64> %self2, <2 x i64>* %self.dbg.spill3, align 16, !dbg !2465
  call void @llvm.dbg.declare(metadata <2 x i64>* %self.dbg.spill3, metadata !2466, metadata !DIExpression()), !dbg !2470
  store <2 x i64> %self2, <2 x i64>* %self.dbg.spill4, align 16, !dbg !2470
  call void @llvm.dbg.declare(metadata <2 x i64>* %self.dbg.spill4, metadata !2471, metadata !DIExpression()), !dbg !2475
  %4 = bitcast <4 x i32>* %1 to <2 x i64>*, !dbg !2470
  store <2 x i64> %self2, <2 x i64>* %4, align 16, !dbg !2470
  %_6 = load <4 x i32>, <4 x i32>* %1, align 16, !dbg !2470
  br label %bb4, !dbg !2470

bb4:                                              ; preds = %bb3
  %5 = call <4 x i32> @llvm.umin.v4i32(<4 x i32> %_4, <4 x i32> %_6), !dbg !2477
  br label %bb1, !dbg !2477

bb1:                                              ; preds = %bb4
  %6 = bitcast <2 x i64>* %0 to <4 x i32>*, !dbg !2478
  store <4 x i32> %5, <4 x i32>* %6, align 16, !dbg !2478
  br label %bb2, !dbg !2478

bb2:                                              ; preds = %bb1
  ret void, !dbg !2479
}

; core::core_arch::x86::sse41::_mm_mul_epi32
; Function Attrs: inlinehint nonlazybind uwtable
define internal void @_ZN4core9core_arch3x865sse4113_mm_mul_epi3217hf9532e0cf87896a4E(<2 x i64>* sret(<2 x i64>) %0, <2 x i64>* %a, <2 x i64>* %b) unnamed_addr #7 !dbg !2480 {
start:
  %1 = alloca <4 x i32>, align 16, !dbg !2484
  %self.dbg.spill4 = alloca <2 x i64>, align 16, !dbg !2484
  %self.dbg.spill3 = alloca <2 x i64>, align 16, !dbg !2484
  %2 = alloca <4 x i32>, align 16, !dbg !2484
  %self.dbg.spill1 = alloca <2 x i64>, align 16, !dbg !2484
  %self.dbg.spill = alloca <2 x i64>, align 16, !dbg !2484
  call void @llvm.dbg.declare(metadata <2 x i64>* %a, metadata !2482, metadata !DIExpression()), !dbg !2484
  call void @llvm.dbg.declare(metadata <2 x i64>* %b, metadata !2483, metadata !DIExpression()), !dbg !2485
  %self = load <2 x i64>, <2 x i64>* %a, align 16, !dbg !2486
  store <2 x i64> %self, <2 x i64>* %self.dbg.spill, align 16, !dbg !2486
  call void @llvm.dbg.declare(metadata <2 x i64>* %self.dbg.spill, metadata !2487, metadata !DIExpression()), !dbg !2491
  store <2 x i64> %self, <2 x i64>* %self.dbg.spill1, align 16, !dbg !2491
  call void @llvm.dbg.declare(metadata <2 x i64>* %self.dbg.spill1, metadata !2492, metadata !DIExpression()), !dbg !2496
  %3 = bitcast <4 x i32>* %2 to <2 x i64>*, !dbg !2491
  store <2 x i64> %self, <2 x i64>* %3, align 16, !dbg !2491
  %_4 = load <4 x i32>, <4 x i32>* %2, align 16, !dbg !2491
  br label %bb3, !dbg !2491

bb3:                                              ; preds = %start
  %self2 = load <2 x i64>, <2 x i64>* %b, align 16, !dbg !2498
  store <2 x i64> %self2, <2 x i64>* %self.dbg.spill3, align 16, !dbg !2498
  call void @llvm.dbg.declare(metadata <2 x i64>* %self.dbg.spill3, metadata !2499, metadata !DIExpression()), !dbg !2503
  store <2 x i64> %self2, <2 x i64>* %self.dbg.spill4, align 16, !dbg !2503
  call void @llvm.dbg.declare(metadata <2 x i64>* %self.dbg.spill4, metadata !2504, metadata !DIExpression()), !dbg !2508
  %4 = bitcast <4 x i32>* %1 to <2 x i64>*, !dbg !2503
  store <2 x i64> %self2, <2 x i64>* %4, align 16, !dbg !2503
  %_6 = load <4 x i32>, <4 x i32>* %1, align 16, !dbg !2503
  br label %bb4, !dbg !2503

bb4:                                              ; preds = %bb3
  %5 = bitcast <4 x i32> %_4 to <2 x i64>, !dbg !2510
  %6 = bitcast <4 x i32> %_6 to <2 x i64>, !dbg !2510
  %7 = shl <2 x i64> %5, <i64 32, i64 32>, !dbg !2510
  %8 = ashr <2 x i64> %7, <i64 32, i64 32>, !dbg !2510
  %9 = shl <2 x i64> %6, <i64 32, i64 32>, !dbg !2510
  %10 = ashr <2 x i64> %9, <i64 32, i64 32>, !dbg !2510
  %11 = mul <2 x i64> %8, %10, !dbg !2510
  br label %bb1, !dbg !2510

bb1:                                              ; preds = %bb4
  store <2 x i64> %11, <2 x i64>* %0, align 16, !dbg !2511
  br label %bb2, !dbg !2511

bb2:                                              ; preds = %bb1
  ret void, !dbg !2512
}

; core::core_arch::x86::sse41::_mm_blend_epi16
; Function Attrs: inlinehint nonlazybind uwtable
define void @_ZN4core9core_arch3x865sse4115_mm_blend_epi1617hd22318782a8ef6e0E(<2 x i64>* sret(<2 x i64>) %0, <2 x i64>* %a, <2 x i64>* %b) unnamed_addr #7 !dbg !2513 {
start:
  %1 = alloca <8 x i16>, align 16, !dbg !2517
  %self.dbg.spill4 = alloca <2 x i64>, align 16, !dbg !2517
  %self.dbg.spill3 = alloca <2 x i64>, align 16, !dbg !2517
  %2 = alloca <8 x i16>, align 16, !dbg !2517
  %self.dbg.spill1 = alloca <2 x i64>, align 16, !dbg !2517
  %self.dbg.spill = alloca <2 x i64>, align 16, !dbg !2517
  call void @llvm.dbg.declare(metadata <2 x i64>* %a, metadata !2515, metadata !DIExpression()), !dbg !2517
  call void @llvm.dbg.declare(metadata <2 x i64>* %b, metadata !2516, metadata !DIExpression()), !dbg !2518
  %self = load <2 x i64>, <2 x i64>* %a, align 16, !dbg !2519
  store <2 x i64> %self, <2 x i64>* %self.dbg.spill, align 16, !dbg !2519
  call void @llvm.dbg.declare(metadata <2 x i64>* %self.dbg.spill, metadata !2520, metadata !DIExpression()), !dbg !2524
  store <2 x i64> %self, <2 x i64>* %self.dbg.spill1, align 16, !dbg !2524
  call void @llvm.dbg.declare(metadata <2 x i64>* %self.dbg.spill1, metadata !2525, metadata !DIExpression()), !dbg !2529
  %3 = bitcast <8 x i16>* %2 to <2 x i64>*, !dbg !2524
  store <2 x i64> %self, <2 x i64>* %3, align 16, !dbg !2524
  %_4 = load <8 x i16>, <8 x i16>* %2, align 16, !dbg !2524
  br label %bb3, !dbg !2524

bb3:                                              ; preds = %start
  %self2 = load <2 x i64>, <2 x i64>* %b, align 16, !dbg !2531
  store <2 x i64> %self2, <2 x i64>* %self.dbg.spill3, align 16, !dbg !2531
  call void @llvm.dbg.declare(metadata <2 x i64>* %self.dbg.spill3, metadata !2532, metadata !DIExpression()), !dbg !2536
  store <2 x i64> %self2, <2 x i64>* %self.dbg.spill4, align 16, !dbg !2536
  call void @llvm.dbg.declare(metadata <2 x i64>* %self.dbg.spill4, metadata !2537, metadata !DIExpression()), !dbg !2541
  %4 = bitcast <8 x i16>* %1 to <2 x i64>*, !dbg !2536
  store <2 x i64> %self2, <2 x i64>* %4, align 16, !dbg !2536
  %_6 = load <8 x i16>, <8 x i16>* %1, align 16, !dbg !2536
  br label %bb4, !dbg !2536

bb4:                                              ; preds = %bb3
  %5 = shufflevector <8 x i16> %_4, <8 x i16> %_6, <8 x i32> <i32 0, i32 9, i32 2, i32 3, i32 4, i32 5, i32 6, i32 7>, !dbg !2543
  br label %bb1, !dbg !2543

bb1:                                              ; preds = %bb4
  %6 = bitcast <2 x i64>* %0 to <8 x i16>*, !dbg !2544
  store <8 x i16> %5, <8 x i16>* %6, align 16, !dbg !2544
  br label %bb2, !dbg !2544

bb2:                                              ; preds = %bb1
  ret void, !dbg !2545
}

; core::core_arch::x86::sse41::_mm_blendv_epi8
; Function Attrs: inlinehint nonlazybind uwtable
define internal void @_ZN4core9core_arch3x865sse4115_mm_blendv_epi817h68d05686cd623738E(<2 x i64>* sret(<2 x i64>) %0, <2 x i64>* %a, <2 x i64>* %b, <2 x i64>* %mask) unnamed_addr #7 !dbg !2546 {
start:
  %1 = alloca <16 x i8>, align 16, !dbg !2553
  %self.dbg.spill7 = alloca <2 x i64>, align 16, !dbg !2553
  %self.dbg.spill6 = alloca <2 x i64>, align 16, !dbg !2553
  %2 = alloca <16 x i8>, align 16, !dbg !2553
  %self.dbg.spill4 = alloca <2 x i64>, align 16, !dbg !2553
  %self.dbg.spill3 = alloca <2 x i64>, align 16, !dbg !2553
  %3 = alloca <16 x i8>, align 16, !dbg !2553
  %self.dbg.spill1 = alloca <2 x i64>, align 16, !dbg !2553
  %self.dbg.spill = alloca <2 x i64>, align 16, !dbg !2553
  call void @llvm.dbg.declare(metadata <2 x i64>* %a, metadata !2550, metadata !DIExpression()), !dbg !2553
  call void @llvm.dbg.declare(metadata <2 x i64>* %b, metadata !2551, metadata !DIExpression()), !dbg !2554
