; ModuleID = 'build_script_build.6ea5c5ef-cgu.0'
source_filename = "build_script_build.6ea5c5ef-cgu.0"
target datalayout = "e-m:e-p270:32:32-p271:32:32-p272:64:64-i64:64-f80:128-n8:16:32:64-S128"
target triple = "x86_64-unknown-linux-gnu"

%"core::option::Option<std::ffi::os_str::OsString>" = type { {}*, [2 x i64] }
%"core::iter::adapters::chain::Chain<core::option::IntoIter<std::ffi::os_str::OsString>, core::option::IntoIter<std::ffi::os_str::OsString>>" = type { %"core::option::Option<core::option::IntoIter<std::ffi::os_str::OsString>>", %"core::option::Option<core::option::IntoIter<std::ffi::os_str::OsString>>" }
%"core::option::Option<core::option::IntoIter<std::ffi::os_str::OsString>>" = type { i64, [3 x i64] }
%"core::iter::adapters::chain::Chain<core::iter::adapters::chain::Chain<core::option::IntoIter<std::ffi::os_str::OsString>, core::option::IntoIter<std::ffi::os_str::OsString>>, core::iter::sources::once::Once<std::ffi::os_str::OsString>>" = type { %"core::option::Option<core::iter::adapters::chain::Chain<core::option::IntoIter<std::ffi::os_str::OsString>, core::option::IntoIter<std::ffi::os_str::OsString>>>", %"core::option::Option<core::iter::sources::once::Once<std::ffi::os_str::OsString>>" }
%"core::option::Option<core::iter::adapters::chain::Chain<core::option::IntoIter<std::ffi::os_str::OsString>, core::option::IntoIter<std::ffi::os_str::OsString>>>" = type { i64, [7 x i64] }
%"core::option::Option<core::iter::sources::once::Once<std::ffi::os_str::OsString>>" = type { i64, [3 x i64] }
%"core::iter::sources::once::Once<std::ffi::os_str::OsString>" = type { %"core::option::IntoIter<std::ffi::os_str::OsString>" }
%"core::option::IntoIter<std::ffi::os_str::OsString>" = type { %"core::option::Item<std::ffi::os_str::OsString>" }
%"core::option::Item<std::ffi::os_str::OsString>" = type { %"core::option::Option<std::ffi::os_str::OsString>" }
%"core::option::Option<core::convert::Infallible>::None" = type {}
%"core::option::Option<core::iter::sources::once::Once<std::ffi::os_str::OsString>>::Some" = type { [1 x i64], %"core::iter::sources::once::Once<std::ffi::os_str::OsString>" }
%"core::option::Option<core::option::IntoIter<std::ffi::os_str::OsString>>::Some" = type { [1 x i64], %"core::option::IntoIter<std::ffi::os_str::OsString>" }
%"core::ptr::metadata::PtrRepr<[u8]>" = type { [2 x i64] }
%"[closure@<core::ops::range::Range<usize> as core::slice::index::SliceIndex<[u8]>>::get_unchecked::{closure#0}]" = type { i64*, i64*, { [0 x i8]*, i64 }* }
%"[closure@<core::ops::range::Range<usize> as core::slice::index::SliceIndex<[u8]>>::get_unchecked_mut::{closure#0}]" = type { i64*, i64*, { [0 x i8]*, i64 }* }
%"core::panic::location::Location" = type { { [0 x i8]*, i64 }, i32, i32 }
%"alloc::collections::btree::map::IntoIter<std::ffi::os_str::OsString, core::option::Option<std::ffi::os_str::OsString>>" = type { %"alloc::alloc::Global", %"alloc::collections::btree::navigate::LazyLeafRange<alloc::collections::btree::node::marker::Dying, std::ffi::os_str::OsString, core::option::Option<std::ffi::os_str::OsString>>", i64 }
%"alloc::alloc::Global" = type {}
%"alloc::collections::btree::navigate::LazyLeafRange<alloc::collections::btree::node::marker::Dying, std::ffi::os_str::OsString, core::option::Option<std::ffi::os_str::OsString>>" = type { %"core::option::Option<alloc::collections::btree::navigate::LazyLeafHandle<alloc::collections::btree::node::marker::Dying, std::ffi::os_str::OsString, core::option::Option<std::ffi::os_str::OsString>>>", %"core::option::Option<alloc::collections::btree::navigate::LazyLeafHandle<alloc::collections::btree::node::marker::Dying, std::ffi::os_str::OsString, core::option::Option<std::ffi::os_str::OsString>>>" }
%"core::option::Option<alloc::collections::btree::navigate::LazyLeafHandle<alloc::collections::btree::node::marker::Dying, std::ffi::os_str::OsString, core::option::Option<std::ffi::os_str::OsString>>>" = type { i64, [3 x i64] }
%"alloc::collections::btree::map::BTreeMap<std::ffi::os_str::OsString, core::option::Option<std::ffi::os_str::OsString>>" = type { %"core::mem::manually_drop::ManuallyDrop<alloc::alloc::Global>", %"core::marker::PhantomData<alloc::boxed::Box<(std::ffi::os_str::OsString, core::option::Option<std::ffi::os_str::OsString>)>>", { i64, i64* }, i64 }
%"core::mem::manually_drop::ManuallyDrop<alloc::alloc::Global>" = type { %"alloc::alloc::Global" }
%"core::marker::PhantomData<alloc::boxed::Box<(std::ffi::os_str::OsString, core::option::Option<std::ffi::os_str::OsString>)>>" = type {}
%"core::mem::maybe_uninit::MaybeUninit<alloc::alloc::Global>" = type { [0 x i8] }
%"core::mem::manually_drop::ManuallyDrop<alloc::collections::btree::map::BTreeMap<std::ffi::os_str::OsString, core::option::Option<std::ffi::os_str::OsString>>>" = type { %"alloc::collections::btree::map::BTreeMap<std::ffi::os_str::OsString, core::option::Option<std::ffi::os_str::OsString>>" }
%"alloc::collections::btree::node::Handle<alloc::collections::btree::node::NodeRef<alloc::collections::btree::node::marker::Dying, std::ffi::os_str::OsString, core::option::Option<std::ffi::os_str::OsString>, alloc::collections::btree::node::marker::LeafOrInternal>, alloc::collections::btree::node::marker::KV>" = type { %"core::marker::PhantomData<alloc::collections::btree::node::marker::KV>", { i64, i64* }, i64 }
%"core::marker::PhantomData<alloc::collections::btree::node::marker::KV>" = type {}
%"core::option::Option<alloc::collections::btree::node::Handle<alloc::collections::btree::node::NodeRef<alloc::collections::btree::node::marker::Dying, std::ffi::os_str::OsString, core::option::Option<std::ffi::os_str::OsString>, alloc::collections::btree::node::marker::LeafOrInternal>, alloc::collections::btree::node::marker::KV>>" = type { [1 x i64], {}*, [1 x i64] }
%"core::option::Option<alloc::collections::btree::node::Handle<alloc::collections::btree::node::NodeRef<alloc::collections::btree::node::marker::Dying, std::ffi::os_str::OsString, core::option::Option<std::ffi::os_str::OsString>, alloc::collections::btree::node::marker::LeafOrInternal>, alloc::collections::btree::node::marker::KV>>::Some" = type { %"alloc::collections::btree::node::Handle<alloc::collections::btree::node::NodeRef<alloc::collections::btree::node::marker::Dying, std::ffi::os_str::OsString, core::option::Option<std::ffi::os_str::OsString>, alloc::collections::btree::node::marker::LeafOrInternal>, alloc::collections::btree::node::marker::KV>" }
%"std::path::Path" = type { %"std::ffi::os_str::OsStr" }
%"std::ffi::os_str::OsStr" = type { %"std::sys::unix::os_str::Slice" }
%"std::sys::unix::os_str::Slice" = type { [0 x i8] }
%"std::path::PathBuf" = type { %"std::ffi::os_str::OsString" }
%"std::ffi::os_str::OsString" = type { %"std::sys::unix::os_str::Buf" }
%"std::sys::unix::os_str::Buf" = type { %"alloc::vec::Vec<u8>" }
%"alloc::vec::Vec<u8>" = type { { i8*, i64 }, i64 }
%"std::io::error::ErrorData<alloc::boxed::Box<std::io::error::Custom>>" = type { i8, [15 x i8] }
%"std::io::error::SimpleMessage" = type { { [0 x i8]*, i64 }, i8, [7 x i8] }
%"std::io::error::Custom" = type { { {}*, [3 x i64]* }, i8, [7 x i8] }
%"[closure@<std::io::error::repr_bitpacked::Repr as core::ops::drop::Drop>::drop::{closure#0}]" = type {}
%"std::io::error::ErrorData<alloc::boxed::Box<std::io::error::Custom>>::Os" = type { [1 x i32], i32 }
%"std::io::error::ErrorData<alloc::boxed::Box<std::io::error::Custom>>::SimpleMessage" = type { [1 x i64], %"std::io::error::SimpleMessage"* }
%"std::io::error::ErrorData<alloc::boxed::Box<std::io::error::Custom>>::Custom" = type { [1 x i64], %"std::io::error::Custom"* }
%"std::io::error::ErrorData<alloc::boxed::Box<std::io::error::Custom>>::Simple" = type { [1 x i8], i8 }
%"std::io::error::ErrorData<&std::io::error::Custom>" = type { i8, [15 x i8] }
%"[closure@std::io::error::repr_bitpacked::Repr::data::{closure#0}]" = type {}
%"std::io::error::ErrorData<&std::io::error::Custom>::Os" = type { [1 x i32], i32 }
%"std::io::error::ErrorData<&std::io::error::Custom>::SimpleMessage" = type { [1 x i64], %"std::io::error::SimpleMessage"* }
%"std::io::error::ErrorData<&std::io::error::Custom>::Custom" = type { [1 x i64], %"std::io::error::Custom"* }
%"std::io::error::ErrorData<&std::io::error::Custom>::Simple" = type { [1 x i8], i8 }
%"core::fmt::UnsafeArg" = type { {} }
%"core::result::Result<alloc::string::String, std::env::VarError>" = type { i64, [3 x i64] }
%"std::process::Command" = type { %"std::sys::unix::process::process_common::Command" }
%"std::sys::unix::process::process_common::Command" = type { { i8*, i64 }, %"alloc::vec::Vec<alloc::ffi::c_str::CString>", %"std::sys::unix::process::process_common::Argv", %"std::sys_common::process::CommandEnv", { i8*, i64 }, %"alloc::vec::Vec<alloc::boxed::Box<dyn core::ops::function::FnMut() -> core::result::Result<(), std::io::error::Error> + core::marker::Send + core::marker::Sync>>", { i32*, i64 }, { i32, i32 }, { i32, i32 }, { i32, i32 }, { i32, i32 }, { i32, i32 }, { i32, i32 }, i8, i8, [6 x i8] }
%"alloc::vec::Vec<alloc::ffi::c_str::CString>" = type { { i64*, i64 }, i64 }
%"std::sys::unix::process::process_common::Argv" = type { %"alloc::vec::Vec<*const i8>" }
%"alloc::vec::Vec<*const i8>" = type { { i64*, i64 }, i64 }
%"std::sys_common::process::CommandEnv" = type { %"alloc::collections::btree::map::BTreeMap<std::ffi::os_str::OsString, core::option::Option<std::ffi::os_str::OsString>>", i8, i8, [6 x i8] }
%"alloc::vec::Vec<alloc::boxed::Box<dyn core::ops::function::FnMut() -> core::result::Result<(), std::io::error::Error> + core::marker::Send + core::marker::Sync>>" = type { { i64*, i64 }, i64 }
%"core::option::Option<std::ffi::os_str::OsString>::Some" = type { %"std::ffi::os_str::OsString" }
%"core::fmt::Formatter" = type { { i64, i64 }, { i64, i64 }, { {}*, [3 x i64]* }, i32, i32, i8, [7 x i8] }
%"core::fmt::Opaque" = type {}
%"core::fmt::Arguments" = type { { [0 x { [0 x i8]*, i64 }]*, i64 }, { i64*, i64 }, { [0 x { i8*, i64* }]*, i64 } }
%"core::mem::maybe_uninit::MaybeUninit<core::option::Option<std::ffi::os_str::OsString>>" = type { [3 x i64] }
%"core::mem::maybe_uninit::MaybeUninit<std::ffi::os_str::OsString>" = type { [3 x i64] }
%"core::mem::maybe_uninit::MaybeUninit<core::option::Option<alloc::collections::btree::navigate::LazyLeafHandle<alloc::collections::btree::node::marker::Dying, std::ffi::os_str::OsString, core::option::Option<std::ffi::os_str::OsString>>>>" = type { [4 x i64] }
%"core::mem::manually_drop::ManuallyDrop<core::option::Option<alloc::collections::btree::navigate::LazyLeafHandle<alloc::collections::btree::node::marker::Dying, std::ffi::os_str::OsString, core::option::Option<std::ffi::os_str::OsString>>>>" = type { %"core::option::Option<alloc::collections::btree::navigate::LazyLeafHandle<alloc::collections::btree::node::marker::Dying, std::ffi::os_str::OsString, core::option::Option<std::ffi::os_str::OsString>>>" }
%"core::mem::manually_drop::ManuallyDrop<core::option::Option<std::ffi::os_str::OsString>>" = type { %"core::option::Option<std::ffi::os_str::OsString>" }
%"core::option::Option<core::iter::adapters::chain::Chain<core::option::IntoIter<std::ffi::os_str::OsString>, core::option::IntoIter<std::ffi::os_str::OsString>>>::Some" = type { %"core::iter::adapters::chain::Chain<core::option::IntoIter<std::ffi::os_str::OsString>, core::option::IntoIter<std::ffi::os_str::OsString>>" }
%"std::env::VarError" = type { {}*, [2 x i64] }
%"std::env::VarError::NotUnicode" = type { %"std::ffi::os_str::OsString" }
%"std::process::Output" = type { %"alloc::vec::Vec<u8>", %"alloc::vec::Vec<u8>", i32, [1 x i32] }
%"alloc::string::String" = type { %"alloc::vec::Vec<u8>" }
%"alloc::collections::btree::mem::replace::PanicGuard" = type {}
%"core::result::Result<alloc::string::String, std::env::VarError>::Ok" = type { [1 x i64], %"alloc::string::String" }
%"core::result::Result<alloc::string::String, std::env::VarError>::Err" = type { [1 x i64], %"std::env::VarError" }
%"core::result::Result<std::process::ExitStatus, std::io::error::Error>" = type { i32, [3 x i32] }
%"core::result::Result<std::process::ExitStatus, std::io::error::Error>::Err" = type { [1 x i64], i8* }
%"core::result::Result<u32, core::num::error::ParseIntError>" = type { i8, [7 x i8] }
%"core::str::iter::Split<char>" = type { %"core::str::iter::SplitInternal<char>" }
%"core::str::iter::SplitInternal<char>" = type { i64, i64, %"core::str::pattern::CharSearcher", i8, i8, [6 x i8] }
%"core::str::pattern::CharSearcher" = type { { [0 x i8]*, i64 }, i64, i64, i64, i32, [4 x i8] }
%"core::option::Option<(usize, usize)>" = type { i64, [2 x i64] }
%"core::option::Option<(usize, usize)>::Some" = type { [1 x i64], { i64, i64 } }
%"core::ops::range::RangeFull" = type {}
%"core::alloc::layout::LayoutError" = type {}
%"core::result::Result<core::convert::Infallible, core::alloc::layout::LayoutError>::Err" = type { %"core::alloc::layout::LayoutError" }
%"core::ptr::metadata::PtrComponents<u8>" = type { {}*, {} }
%"core::ptr::metadata::PtrRepr<u8>" = type { [1 x i64] }
%"core::option::Option<alloc::collections::btree::node::Handle<alloc::collections::btree::node::NodeRef<alloc::collections::btree::node::marker::Dying, std::ffi::os_str::OsString, core::option::Option<std::ffi::os_str::OsString>, alloc::collections::btree::node::marker::Internal>, alloc::collections::btree::node::marker::Edge>>" = type { [1 x i64], {}*, [1 x i64] }
%"alloc::collections::btree::node::Handle<alloc::collections::btree::node::NodeRef<alloc::collections::btree::node::marker::Dying, std::ffi::os_str::OsString, core::option::Option<std::ffi::os_str::OsString>, alloc::collections::btree::node::marker::Internal>, alloc::collections::btree::node::marker::Edge>" = type { %"core::marker::PhantomData<alloc::collections::btree::node::marker::Edge>", { i64, i64* }, i64 }
%"core::marker::PhantomData<alloc::collections::btree::node::marker::Edge>" = type {}
%"core::option::Option<alloc::collections::btree::node::Handle<alloc::collections::btree::node::NodeRef<alloc::collections::btree::node::marker::Dying, std::ffi::os_str::OsString, core::option::Option<std::ffi::os_str::OsString>, alloc::collections::btree::node::marker::Internal>, alloc::collections::btree::node::marker::Edge>>::Some" = type { %"alloc::collections::btree::node::Handle<alloc::collections::btree::node::NodeRef<alloc::collections::btree::node::marker::Dying, std::ffi::os_str::OsString, core::option::Option<std::ffi::os_str::OsString>, alloc::collections::btree::node::marker::Internal>, alloc::collections::btree::node::marker::Edge>" }
%"[closure@/home/calvin/.cargo/registry/src/github.com-1ecc6299db9ec823/proc-macro2-1.0.97/build.rs:160:61: 160:70]" = type {}
%"[closure@/home/calvin/.cargo/registry/src/github.com-1ecc6299db9ec823/proc-macro2-1.0.97/build.rs:162:55: 162:64]" = type {}
%"core::result::Result<u32, core::num::error::ParseIntError>::Ok" = type { [1 x i32], i32 }
%"core::result::Result<u32, core::num::error::ParseIntError>::Err" = type { [1 x i8], i8 }
%"core::result::Result<&str, core::str::error::Utf8Error>" = type { i64, [2 x i64] }
%"core::str::error::Utf8Error" = type { i64, { i8, i8 }, [6 x i8] }
%"core::result::Result<&str, core::str::error::Utf8Error>::Ok" = type { [1 x i64], { [0 x i8]*, i64 } }
%"core::result::Result<&str, core::str::error::Utf8Error>::Err" = type { [1 x i64], %"core::str::error::Utf8Error" }
%"core::option::Option<std::process::Output>" = type { {}*, [6 x i64] }
%"core::result::Result<std::process::Output, std::io::error::Error>" = type { i64, [7 x i64] }
%"core::result::Result<std::process::Output, std::io::error::Error>::Ok" = type { [1 x i64], %"std::process::Output" }
%"core::option::Option<std::process::Output>::Some" = type { %"std::process::Output" }
%"core::result::Result<std::process::Output, std::io::error::Error>::Err" = type { [1 x i64], i8* }
%"alloc::collections::btree::node::Handle<alloc::collections::btree::node::NodeRef<alloc::collections::btree::node::marker::Dying, std::ffi::os_str::OsString, core::option::Option<std::ffi::os_str::OsString>, alloc::collections::btree::node::marker::Leaf>, alloc::collections::btree::node::marker::Edge>" = type { %"core::marker::PhantomData<alloc::collections::btree::node::marker::Edge>", { i64, i64* }, i64 }
%"core::mem::maybe_uninit::MaybeUninit<alloc::collections::btree::node::Handle<alloc::collections::btree::node::NodeRef<alloc::collections::btree::node::marker::Dying, std::ffi::os_str::OsString, core::option::Option<std::ffi::os_str::OsString>, alloc::collections::btree::node::marker::Leaf>, alloc::collections::btree::node::marker::Edge>>" = type { [3 x i64] }
%"[closure@alloc::collections::btree::navigate::<impl alloc::collections::btree::node::Handle<alloc::collections::btree::node::NodeRef<alloc::collections::btree::node::marker::Dying, std::ffi::os_str::OsString, core::option::Option<std::ffi::os_str::OsString>, alloc::collections::btree::node::marker::Leaf>, alloc::collections::btree::node::marker::Edge>>::deallocating_next_unchecked<alloc::alloc::Global>::{closure#0}]" = type { %"alloc::alloc::Global" }
%"core::mem::manually_drop::ManuallyDrop<alloc::collections::btree::node::Handle<alloc::collections::btree::node::NodeRef<alloc::collections::btree::node::marker::Dying, std::ffi::os_str::OsString, core::option::Option<std::ffi::os_str::OsString>, alloc::collections::btree::node::marker::Leaf>, alloc::collections::btree::node::marker::Edge>>" = type { %"alloc::collections::btree::node::Handle<alloc::collections::btree::node::NodeRef<alloc::collections::btree::node::marker::Dying, std::ffi::os_str::OsString, core::option::Option<std::ffi::os_str::OsString>, alloc::collections::btree::node::marker::Leaf>, alloc::collections::btree::node::marker::Edge>" }
%"core::result::Result<alloc::collections::btree::node::Handle<alloc::collections::btree::node::NodeRef<alloc::collections::btree::node::marker::Dying, std::ffi::os_str::OsString, core::option::Option<std::ffi::os_str::OsString>, alloc::collections::btree::node::marker::Internal>, alloc::collections::btree::node::marker::Edge>, alloc::collections::btree::node::NodeRef<alloc::collections::btree::node::marker::Dying, std::ffi::os_str::OsString, core::option::Option<std::ffi::os_str::OsString>, alloc::collections::btree::node::marker::LeafOrInternal>>" = type { i64, [3 x i64] }
%"core::result::Result<alloc::collections::btree::node::Handle<alloc::collections::btree::node::NodeRef<alloc::collections::btree::node::marker::Dying, std::ffi::os_str::OsString, core::option::Option<std::ffi::os_str::OsString>, alloc::collections::btree::node::marker::Internal>, alloc::collections::btree::node::marker::Edge>, alloc::collections::btree::node::NodeRef<alloc::collections::btree::node::marker::Dying, std::ffi::os_str::OsString, core::option::Option<std::ffi::os_str::OsString>, alloc::collections::btree::node::marker::LeafOrInternal>>::Ok" = type { [1 x i64], %"alloc::collections::btree::node::Handle<alloc::collections::btree::node::NodeRef<alloc::collections::btree::node::marker::Dying, std::ffi::os_str::OsString, core::option::Option<std::ffi::os_str::OsString>, alloc::collections::btree::node::marker::Internal>, alloc::collections::btree::node::marker::Edge>" }
%"alloc::collections::btree::node::LeafNode<std::ffi::os_str::OsString, core::option::Option<std::ffi::os_str::OsString>>" = type { i64*, [11 x %"core::mem::maybe_uninit::MaybeUninit<std::ffi::os_str::OsString>"], [11 x %"core::mem::maybe_uninit::MaybeUninit<core::option::Option<std::ffi::os_str::OsString>>"], i16, i16, [2 x i16] }
%"alloc::collections::btree::node::Handle<alloc::collections::btree::node::NodeRef<alloc::collections::btree::node::marker::Dying, std::ffi::os_str::OsString, core::option::Option<std::ffi::os_str::OsString>, alloc::collections::btree::node::marker::Internal>, alloc::collections::btree::node::marker::KV>" = type { %"core::marker::PhantomData<alloc::collections::btree::node::marker::KV>", { i64, i64* }, i64 }
%"alloc::collections::btree::node::Handle<alloc::collections::btree::node::NodeRef<alloc::collections::btree::node::marker::Dying, std::ffi::os_str::OsString, core::option::Option<std::ffi::os_str::OsString>, alloc::collections::btree::node::marker::Leaf>, alloc::collections::btree::node::marker::KV>" = type { %"core::marker::PhantomData<alloc::collections::btree::node::marker::KV>", { i64, i64* }, i64 }
%"alloc::collections::btree::node::Handle<alloc::collections::btree::node::NodeRef<alloc::collections::btree::node::marker::Dying, std::ffi::os_str::OsString, core::option::Option<std::ffi::os_str::OsString>, alloc::collections::btree::node::marker::LeafOrInternal>, alloc::collections::btree::node::marker::Edge>" = type { %"core::marker::PhantomData<alloc::collections::btree::node::marker::Edge>", { i64, i64* }, i64 }
%"core::result::Result<alloc::collections::btree::node::Handle<alloc::collections::btree::node::NodeRef<alloc::collections::btree::node::marker::Dying, std::ffi::os_str::OsString, core::option::Option<std::ffi::os_str::OsString>, alloc::collections::btree::node::marker::LeafOrInternal>, alloc::collections::btree::node::marker::KV>, alloc::collections::btree::node::Handle<alloc::collections::btree::node::NodeRef<alloc::collections::btree::node::marker::Dying, std::ffi::os_str::OsString, core::option::Option<std::ffi::os_str::OsString>, alloc::collections::btree::node::marker::LeafOrInternal>, alloc::collections::btree::node::marker::Edge>>" = type { i64, [3 x i64] }
%"core::result::Result<alloc::collections::btree::node::Handle<alloc::collections::btree::node::NodeRef<alloc::collections::btree::node::marker::Dying, std::ffi::os_str::OsString, core::option::Option<std::ffi::os_str::OsString>, alloc::collections::btree::node::marker::LeafOrInternal>, alloc::collections::btree::node::marker::KV>, alloc::collections::btree::node::Handle<alloc::collections::btree::node::NodeRef<alloc::collections::btree::node::marker::Dying, std::ffi::os_str::OsString, core::option::Option<std::ffi::os_str::OsString>, alloc::collections::btree::node::marker::LeafOrInternal>, alloc::collections::btree::node::marker::Edge>>::Err" = type { [1 x i64], %"alloc::collections::btree::node::Handle<alloc::collections::btree::node::NodeRef<alloc::collections::btree::node::marker::Dying, std::ffi::os_str::OsString, core::option::Option<std::ffi::os_str::OsString>, alloc::collections::btree::node::marker::LeafOrInternal>, alloc::collections::btree::node::marker::Edge>" }
%"core::result::Result<alloc::collections::btree::node::Handle<alloc::collections::btree::node::NodeRef<alloc::collections::btree::node::marker::Dying, std::ffi::os_str::OsString, core::option::Option<std::ffi::os_str::OsString>, alloc::collections::btree::node::marker::LeafOrInternal>, alloc::collections::btree::node::marker::KV>, alloc::collections::btree::node::Handle<alloc::collections::btree::node::NodeRef<alloc::collections::btree::node::marker::Dying, std::ffi::os_str::OsString, core::option::Option<std::ffi::os_str::OsString>, alloc::collections::btree::node::marker::LeafOrInternal>, alloc::collections::btree::node::marker::Edge>>::Ok" = type { [1 x i64], %"alloc::collections::btree::node::Handle<alloc::collections::btree::node::NodeRef<alloc::collections::btree::node::marker::Dying, std::ffi::os_str::OsString, core::option::Option<std::ffi::os_str::OsString>, alloc::collections::btree::node::marker::LeafOrInternal>, alloc::collections::btree::node::marker::KV>" }
%"alloc::collections::btree::node::ForceResult<alloc::collections::btree::node::Handle<alloc::collections::btree::node::NodeRef<alloc::collections::btree::node::marker::Dying, std::ffi::os_str::OsString, core::option::Option<std::ffi::os_str::OsString>, alloc::collections::btree::node::marker::Leaf>, alloc::collections::btree::node::marker::KV>, alloc::collections::btree::node::Handle<alloc::collections::btree::node::NodeRef<alloc::collections::btree::node::marker::Dying, std::ffi::os_str::OsString, core::option::Option<std::ffi::os_str::OsString>, alloc::collections::btree::node::marker::Internal>, alloc::collections::btree::node::marker::KV>>" = type { i64, [3 x i64] }
%"alloc::collections::btree::node::ForceResult<alloc::collections::btree::node::NodeRef<alloc::collections::btree::node::marker::Dying, std::ffi::os_str::OsString, core::option::Option<std::ffi::os_str::OsString>, alloc::collections::btree::node::marker::Leaf>, alloc::collections::btree::node::NodeRef<alloc::collections::btree::node::marker::Dying, std::ffi::os_str::OsString, core::option::Option<std::ffi::os_str::OsString>, alloc::collections::btree::node::marker::Internal>>" = type { i64, [2 x i64] }
%"alloc::collections::btree::node::ForceResult<alloc::collections::btree::node::NodeRef<alloc::collections::btree::node::marker::Dying, std::ffi::os_str::OsString, core::option::Option<std::ffi::os_str::OsString>, alloc::collections::btree::node::marker::Leaf>, alloc::collections::btree::node::NodeRef<alloc::collections::btree::node::marker::Dying, std::ffi::os_str::OsString, core::option::Option<std::ffi::os_str::OsString>, alloc::collections::btree::node::marker::Internal>>::Leaf" = type { [1 x i64], { i64, i64* } }
%"alloc::collections::btree::node::ForceResult<alloc::collections::btree::node::Handle<alloc::collections::btree::node::NodeRef<alloc::collections::btree::node::marker::Dying, std::ffi::os_str::OsString, core::option::Option<std::ffi::os_str::OsString>, alloc::collections::btree::node::marker::Leaf>, alloc::collections::btree::node::marker::KV>, alloc::collections::btree::node::Handle<alloc::collections::btree::node::NodeRef<alloc::collections::btree::node::marker::Dying, std::ffi::os_str::OsString, core::option::Option<std::ffi::os_str::OsString>, alloc::collections::btree::node::marker::Internal>, alloc::collections::btree::node::marker::KV>>::Leaf" = type { [1 x i64], %"alloc::collections::btree::node::Handle<alloc::collections::btree::node::NodeRef<alloc::collections::btree::node::marker::Dying, std::ffi::os_str::OsString, core::option::Option<std::ffi::os_str::OsString>, alloc::collections::btree::node::marker::Leaf>, alloc::collections::btree::node::marker::KV>" }
%"alloc::collections::btree::node::ForceResult<alloc::collections::btree::node::NodeRef<alloc::collections::btree::node::marker::Dying, std::ffi::os_str::OsString, core::option::Option<std::ffi::os_str::OsString>, alloc::collections::btree::node::marker::Leaf>, alloc::collections::btree::node::NodeRef<alloc::collections::btree::node::marker::Dying, std::ffi::os_str::OsString, core::option::Option<std::ffi::os_str::OsString>, alloc::collections::btree::node::marker::Internal>>::Internal" = type { [1 x i64], { i64, i64* } }
%"alloc::collections::btree::node::ForceResult<alloc::collections::btree::node::Handle<alloc::collections::btree::node::NodeRef<alloc::collections::btree::node::marker::Dying, std::ffi::os_str::OsString, core::option::Option<std::ffi::os_str::OsString>, alloc::collections::btree::node::marker::Leaf>, alloc::collections::btree::node::marker::KV>, alloc::collections::btree::node::Handle<alloc::collections::btree::node::NodeRef<alloc::collections::btree::node::marker::Dying, std::ffi::os_str::OsString, core::option::Option<std::ffi::os_str::OsString>, alloc::collections::btree::node::marker::Internal>, alloc::collections::btree::node::marker::KV>>::Internal" = type { [1 x i64], %"alloc::collections::btree::node::Handle<alloc::collections::btree::node::NodeRef<alloc::collections::btree::node::marker::Dying, std::ffi::os_str::OsString, core::option::Option<std::ffi::os_str::OsString>, alloc::collections::btree::node::marker::Internal>, alloc::collections::btree::node::marker::KV>" }
%"alloc::collections::btree::node::InternalNode<std::ffi::os_str::OsString, core::option::Option<std::ffi::os_str::OsString>>" = type { %"alloc::collections::btree::node::LeafNode<std::ffi::os_str::OsString, core::option::Option<std::ffi::os_str::OsString>>", [12 x i8*] }
%"core::result::Result<alloc::collections::btree::node::Handle<alloc::collections::btree::node::NodeRef<alloc::collections::btree::node::marker::Dying, std::ffi::os_str::OsString, core::option::Option<std::ffi::os_str::OsString>, alloc::collections::btree::node::marker::Internal>, alloc::collections::btree::node::marker::Edge>, alloc::collections::btree::node::NodeRef<alloc::collections::btree::node::marker::Dying, std::ffi::os_str::OsString, core::option::Option<std::ffi::os_str::OsString>, alloc::collections::btree::node::marker::LeafOrInternal>>::Err" = type { [1 x i64], { i64, i64* } }
%"alloc::collections::btree::navigate::LazyLeafHandle<alloc::collections::btree::node::marker::Dying, std::ffi::os_str::OsString, core::option::Option<std::ffi::os_str::OsString>>" = type { i64, [3 x i64] }
%"alloc::collections::btree::navigate::LazyLeafHandle<alloc::collections::btree::node::marker::Dying, std::ffi::os_str::OsString, core::option::Option<std::ffi::os_str::OsString>>::Root" = type { [1 x i64], { i64, i64* } }
%"core::option::Option<alloc::collections::btree::navigate::LazyLeafHandle<alloc::collections::btree::node::marker::Dying, std::ffi::os_str::OsString, core::option::Option<std::ffi::os_str::OsString>>>::Some" = type { %"alloc::collections::btree::navigate::LazyLeafHandle<alloc::collections::btree::node::marker::Dying, std::ffi::os_str::OsString, core::option::Option<std::ffi::os_str::OsString>>" }
%"core::option::Option<(alloc::collections::btree::node::Handle<alloc::collections::btree::node::NodeRef<alloc::collections::btree::node::marker::Dying, std::ffi::os_str::OsString, core::option::Option<std::ffi::os_str::OsString>, alloc::collections::btree::node::marker::Leaf>, alloc::collections::btree::node::marker::Edge>, alloc::collections::btree::node::Handle<alloc::collections::btree::node::NodeRef<alloc::collections::btree::node::marker::Dying, std::ffi::os_str::OsString, core::option::Option<std::ffi::os_str::OsString>, alloc::collections::btree::node::marker::LeafOrInternal>, alloc::collections::btree::node::marker::KV>)>" = type { [1 x i64], {}*, [4 x i64] }
%"core::mem::maybe_uninit::MaybeUninit<alloc::collections::btree::node::Handle<alloc::collections::btree::node::NodeRef<alloc::collections::btree::node::marker::Dying, std::ffi::os_str::OsString, core::option::Option<std::ffi::os_str::OsString>, alloc::collections::btree::node::marker::LeafOrInternal>, alloc::collections::btree::node::marker::KV>>" = type { [3 x i64] }
%"core::mem::manually_drop::ManuallyDrop<alloc::collections::btree::node::Handle<alloc::collections::btree::node::NodeRef<alloc::collections::btree::node::marker::Dying, std::ffi::os_str::OsString, core::option::Option<std::ffi::os_str::OsString>, alloc::collections::btree::node::marker::LeafOrInternal>, alloc::collections::btree::node::marker::KV>>" = type { %"alloc::collections::btree::node::Handle<alloc::collections::btree::node::NodeRef<alloc::collections::btree::node::marker::Dying, std::ffi::os_str::OsString, core::option::Option<std::ffi::os_str::OsString>, alloc::collections::btree::node::marker::LeafOrInternal>, alloc::collections::btree::node::marker::KV>" }
%"core::option::Option<(alloc::collections::btree::node::Handle<alloc::collections::btree::node::NodeRef<alloc::collections::btree::node::marker::Dying, std::ffi::os_str::OsString, core::option::Option<std::ffi::os_str::OsString>, alloc::collections::btree::node::marker::Leaf>, alloc::collections::btree::node::marker::Edge>, alloc::collections::btree::node::Handle<alloc::collections::btree::node::NodeRef<alloc::collections::btree::node::marker::Dying, std::ffi::os_str::OsString, core::option::Option<std::ffi::os_str::OsString>, alloc::collections::btree::node::marker::LeafOrInternal>, alloc::collections::btree::node::marker::KV>)>::Some" = type { { %"alloc::collections::btree::node::Handle<alloc::collections::btree::node::NodeRef<alloc::collections::btree::node::marker::Dying, std::ffi::os_str::OsString, core::option::Option<std::ffi::os_str::OsString>, alloc::collections::btree::node::marker::Leaf>, alloc::collections::btree::node::marker::Edge>", %"alloc::collections::btree::node::Handle<alloc::collections::btree::node::NodeRef<alloc::collections::btree::node::marker::Dying, std::ffi::os_str::OsString, core::option::Option<std::ffi::os_str::OsString>, alloc::collections::btree::node::marker::LeafOrInternal>, alloc::collections::btree::node::marker::KV>" } }
%"alloc::collections::btree::navigate::LazyLeafHandle<alloc::collections::btree::node::marker::Dying, std::ffi::os_str::OsString, core::option::Option<std::ffi::os_str::OsString>>::Edge" = type { [1 x i64], %"alloc::collections::btree::node::Handle<alloc::collections::btree::node::NodeRef<alloc::collections::btree::node::marker::Dying, std::ffi::os_str::OsString, core::option::Option<std::ffi::os_str::OsString>, alloc::collections::btree::node::marker::Leaf>, alloc::collections::btree::node::marker::Edge>" }
%"core::option::Option<alloc::collections::btree::node::Handle<alloc::collections::btree::node::NodeRef<alloc::collections::btree::node::marker::Dying, std::ffi::os_str::OsString, core::option::Option<std::ffi::os_str::OsString>, alloc::collections::btree::node::marker::Leaf>, alloc::collections::btree::node::marker::Edge>>" = type { [1 x i64], {}*, [1 x i64] }
%"core::ops::control_flow::ControlFlow<core::option::Option<core::convert::Infallible>, alloc::collections::btree::navigate::LazyLeafHandle<alloc::collections::btree::node::marker::Dying, std::ffi::os_str::OsString, core::option::Option<std::ffi::os_str::OsString>>>" = type { i64, [3 x i64] }
%"core::ops::control_flow::ControlFlow<core::option::Option<core::convert::Infallible>, alloc::collections::btree::navigate::LazyLeafHandle<alloc::collections::btree::node::marker::Dying, std::ffi::os_str::OsString, core::option::Option<std::ffi::os_str::OsString>>>::Continue" = type { %"alloc::collections::btree::navigate::LazyLeafHandle<alloc::collections::btree::node::marker::Dying, std::ffi::os_str::OsString, core::option::Option<std::ffi::os_str::OsString>>" }
%"core::option::Option<alloc::collections::btree::node::Handle<alloc::collections::btree::node::NodeRef<alloc::collections::btree::node::marker::Dying, std::ffi::os_str::OsString, core::option::Option<std::ffi::os_str::OsString>, alloc::collections::btree::node::marker::Leaf>, alloc::collections::btree::node::marker::Edge>>::Some" = type { %"alloc::collections::btree::node::Handle<alloc::collections::btree::node::NodeRef<alloc::collections::btree::node::marker::Dying, std::ffi::os_str::OsString, core::option::Option<std::ffi::os_str::OsString>, alloc::collections::btree::node::marker::Leaf>, alloc::collections::btree::node::marker::Edge>" }
%"core::option::Option<(core::ptr::non_null::NonNull<u8>, core::alloc::layout::Layout)>" = type { [2 x i64], i64 }
%"core::option::Option<(core::ptr::non_null::NonNull<u8>, core::alloc::layout::Layout)>::Some" = type { { i8*, { i64, i64 } } }
%"core::ptr::metadata::PtrRepr<[alloc::boxed::Box<dyn core::ops::function::FnMut() -> core::result::Result<(), std::io::error::Error> + core::marker::Send + core::marker::Sync>]>" = type { [2 x i64] }
%"core::ptr::metadata::PtrRepr<[alloc::ffi::c_str::CString]>" = type { [2 x i64] }
%"core::ptr::metadata::PtrRepr<[*const i8]>" = type { [2 x i64] }
%"core::ops::control_flow::ControlFlow<core::option::Option<core::convert::Infallible>, std::process::Output>" = type { {}*, [6 x i64] }
%"core::ops::control_flow::ControlFlow<core::option::Option<core::convert::Infallible>, std::process::Output>::Continue" = type { %"std::process::Output" }
%"core::mem::maybe_uninit::MaybeUninit<alloc::collections::btree::map::BTreeMap<std::ffi::os_str::OsString, core::option::Option<std::ffi::os_str::OsString>>>" = type { [3 x i64] }
%"core::result::Result<std::process::ExitStatus, std::io::error::Error>::Ok" = type { [1 x i32], i32 }
%"unwind::libunwind::_Unwind_Exception" = type { i64, void (i32, %"unwind::libunwind::_Unwind_Exception"*)*, [6 x i64] }
%"unwind::libunwind::_Unwind_Context" = type { [0 x i8] }

@alloc340 = private unnamed_addr constant <{ [40 x i8] }> <{ [40 x i8] c"internal error: entered unreachable code" }>, align 1
@alloc338 = private unnamed_addr constant <{ [90 x i8] }> <{ [90 x i8] c"/rustc/d394408fb38c4de61f765a3ed5189d2731a1da91/library/std/src/io/error/repr_bitpacked.rs" }>, align 1
@alloc339 = private unnamed_addr constant <{ i8*, [16 x i8] }> <{ i8* getelementptr inbounds (<{ [90 x i8] }>, <{ [90 x i8] }>* @alloc338, i32 0, i32 0, i32 0), [16 x i8] c"Z\00\00\00\00\00\00\00\18\01\00\00\0D\00\00\00" }>, align 8
@vtable.0 = private unnamed_addr constant <{ i8*, [16 x i8], i8*, i8*, i8* }> <{ i8* bitcast (void (i64**)* @"_ZN4core3ptr85drop_in_place$LT$std..rt..lang_start$LT$$LP$$RP$$GT$..$u7b$$u7b$closure$u7d$$u7d$$GT$17hf4da9b1f8eac8b6cE" to i8*), [16 x i8] c"\08\00\00\00\00\00\00\00\08\00\00\00\00\00\00\00", i8* bitcast (i32 (i64**)* @"_ZN4core3ops8function6FnOnce40call_once$u7b$$u7b$vtable.shim$u7d$$u7d$17h15f44050f981541cE" to i8*), i8* bitcast (i32 (i64**)* @"_ZN3std2rt10lang_start28_$u7b$$u7b$closure$u7d$$u7d$17h6236b43e6f11bf96E" to i8*), i8* bitcast (i32 (i64**)* @"_ZN3std2rt10lang_start28_$u7b$$u7b$closure$u7d$$u7d$17h6236b43e6f11bf96E" to i8*) }>, align 8, !dbg !0
@alloc159 = private unnamed_addr constant <{ [12 x i8] }> <{ [12 x i8] c"invalid args" }>, align 1
@alloc160 = private unnamed_addr constant <{ i8*, [8 x i8] }> <{ i8* getelementptr inbounds (<{ [12 x i8] }>, <{ [12 x i8] }>* @alloc159, i32 0, i32 0, i32 0), [8 x i8] c"\0C\00\00\00\00\00\00\00" }>, align 8
@alloc132 = private unnamed_addr constant <{}> zeroinitializer, align 8
@alloc346 = private unnamed_addr constant <{ [75 x i8] }> <{ [75 x i8] c"/rustc/d394408fb38c4de61f765a3ed5189d2731a1da91/library/core/src/fmt/mod.rs" }>, align 1
@alloc347 = private unnamed_addr constant <{ i8*, [16 x i8] }> <{ i8* getelementptr inbounds (<{ [75 x i8] }>, <{ [75 x i8] }>* @alloc346, i32 0, i32 0, i32 0), [16 x i8] c"K\00\00\00\00\00\00\00\88\01\00\00\0D\00\00\00" }>, align 8
@alloc350 = private unnamed_addr constant <{ [80 x i8] }> <{ [80 x i8] c"/rustc/d394408fb38c4de61f765a3ed5189d2731a1da91/library/core/src/char/methods.rs" }>, align 1
@alloc349 = private unnamed_addr constant <{ i8*, [16 x i8] }> <{ i8* getelementptr inbounds (<{ [80 x i8] }>, <{ [80 x i8] }>* @alloc350, i32 0, i32 0, i32 0), [16 x i8] c"P\00\00\00\00\00\00\00\A7\06\00\00\0A\00\00\00" }>, align 8
@alloc170 = private unnamed_addr constant <{ [18 x i8] }> <{ [18 x i8] c"encode_utf8: need " }>, align 1
@alloc172 = private unnamed_addr constant <{ [19 x i8] }> <{ [19 x i8] c" bytes to encode U+" }>, align 1
@alloc173 = private unnamed_addr constant <{ [21 x i8] }> <{ [21 x i8] c", but the buffer has " }>, align 1
@alloc171 = private unnamed_addr constant <{ i8*, [8 x i8], i8*, [8 x i8], i8*, [8 x i8] }> <{ i8* getelementptr inbounds (<{ [18 x i8] }>, <{ [18 x i8] }>* @alloc170, i32 0, i32 0, i32 0), [8 x i8] c"\12\00\00\00\00\00\00\00", i8* getelementptr inbounds (<{ [19 x i8] }>, <{ [19 x i8] }>* @alloc172, i32 0, i32 0, i32 0), [8 x i8] c"\13\00\00\00\00\00\00\00", i8* getelementptr inbounds (<{ [21 x i8] }>, <{ [21 x i8] }>* @alloc173, i32 0, i32 0, i32 0), [8 x i8] c"\15\00\00\00\00\00\00\00" }>, align 8
@alloc351 = private unnamed_addr constant <{ i8*, [16 x i8] }> <{ i8* getelementptr inbounds (<{ [80 x i8] }>, <{ [80 x i8] }>* @alloc350, i32 0, i32 0, i32 0), [16 x i8] c"P\00\00\00\00\00\00\00\A0\06\00\00\0E\00\00\00" }>, align 8
@alloc362 = private unnamed_addr constant <{ [43 x i8] }> <{ [43 x i8] c"called `Option::unwrap()` on a `None` value" }>, align 1
@alloc356 = private unnamed_addr constant <{ [47 x i8] }> <{ [47 x i8] c"assertion failed: BorrowType::PERMITS_TRAVERSAL" }>, align 1
@alloc357 = private unnamed_addr constant <{ [91 x i8] }> <{ [91 x i8] c"/rustc/d394408fb38c4de61f765a3ed5189d2731a1da91/library/alloc/src/collections/btree/node.rs" }>, align 1
@alloc355 = private unnamed_addr constant <{ i8*, [16 x i8] }> <{ i8* getelementptr inbounds (<{ [91 x i8] }>, <{ [91 x i8] }>* @alloc357, i32 0, i32 0, i32 0), [16 x i8] c"[\00\00\00\00\00\00\00\EE\03\00\00\09\00\00\00" }>, align 8
@alloc358 = private unnamed_addr constant <{ i8*, [16 x i8] }> <{ i8* getelementptr inbounds (<{ [91 x i8] }>, <{ [91 x i8] }>* @alloc357, i32 0, i32 0, i32 0), [16 x i8] c"[\00\00\00\00\00\00\00A\01\00\00\09\00\00\00" }>, align 8
@alloc363 = private unnamed_addr constant <{ [95 x i8] }> <{ [95 x i8] c"/rustc/d394408fb38c4de61f765a3ed5189d2731a1da91/library/alloc/src/collections/btree/navigate.rs" }>, align 1
@alloc361 = private unnamed_addr constant <{ i8*, [16 x i8] }> <{ i8* getelementptr inbounds (<{ [95 x i8] }>, <{ [95 x i8] }>* @alloc363, i32 0, i32 0, i32 0), [16 x i8] c"_\00\00\00\00\00\00\00L\02\00\00\0D\00\00\00" }>, align 8
@alloc364 = private unnamed_addr constant <{ i8*, [16 x i8] }> <{ i8* getelementptr inbounds (<{ [95 x i8] }>, <{ [95 x i8] }>* @alloc363, i32 0, i32 0, i32 0), [16 x i8] c"_\00\00\00\00\00\00\00\BA\00\00\00\15\00\00\00" }>, align 8
@alloc365 = private unnamed_addr constant <{ [79 x i8] }> <{ [79 x i8] c"/rustc/d394408fb38c4de61f765a3ed5189d2731a1da91/library/core/src/str/pattern.rs" }>, align 1
@alloc366 = private unnamed_addr constant <{ i8*, [16 x i8] }> <{ i8* getelementptr inbounds (<{ [79 x i8] }>, <{ [79 x i8] }>* @alloc365, i32 0, i32 0, i32 0), [16 x i8] c"O\00\00\00\00\00\00\00\B7\01\00\00&\00\00\00" }>, align 8
@alloc367 = private unnamed_addr constant <{ [78 x i8] }> <{ [78 x i8] c"/rustc/d394408fb38c4de61f765a3ed5189d2731a1da91/library/core/src/slice/iter.rs" }>, align 1
@alloc368 = private unnamed_addr constant <{ i8*, [16 x i8] }> <{ i8* getelementptr inbounds (<{ [78 x i8] }>, <{ [78 x i8] }>* @alloc367, i32 0, i32 0, i32 0), [16 x i8] c"N\00\00\00\00\00\00\00\87\00\00\00\01\00\00\00" }>, align 8
@str.1 = internal constant [28 x i8] c"attempt to add with overflow"
@alloc5 = private unnamed_addr constant <{ [35 x i8] }> <{ [35 x i8] c"cargo:rustc-check-cfg=cfg(fuzzing)\0A" }>, align 1
@alloc6 = private unnamed_addr constant <{ i8*, [8 x i8] }> <{ i8* getelementptr inbounds (<{ [35 x i8] }>, <{ [35 x i8] }>* @alloc5, i32 0, i32 0, i32 0), [8 x i8] c"#\00\00\00\00\00\00\00" }>, align 8
@alloc10 = private unnamed_addr constant <{ [43 x i8] }> <{ [43 x i8] c"cargo:rustc-check-cfg=cfg(no_is_available)\0A" }>, align 1
@alloc11 = private unnamed_addr constant <{ i8*, [8 x i8] }> <{ i8* getelementptr inbounds (<{ [43 x i8] }>, <{ [43 x i8] }>* @alloc10, i32 0, i32 0, i32 0), [8 x i8] c"+\00\00\00\00\00\00\00" }>, align 8
@alloc15 = private unnamed_addr constant <{ [53 x i8] }> <{ [53 x i8] c"cargo:rustc-check-cfg=cfg(no_literal_byte_character)\0A" }>, align 1
@alloc16 = private unnamed_addr constant <{ i8*, [8 x i8] }> <{ i8* getelementptr inbounds (<{ [53 x i8] }>, <{ [53 x i8] }>* @alloc15, i32 0, i32 0, i32 0), [8 x i8] c"5\00\00\00\00\00\00\00" }>, align 8
@alloc20 = private unnamed_addr constant <{ [47 x i8] }> <{ [47 x i8] c"cargo:rustc-check-cfg=cfg(no_literal_c_string)\0A" }>, align 1
@alloc21 = private unnamed_addr constant <{ i8*, [8 x i8] }> <{ i8* getelementptr inbounds (<{ [47 x i8] }>, <{ [47 x i8] }>* @alloc20, i32 0, i32 0, i32 0), [8 x i8] c"/\00\00\00\00\00\00\00" }>, align 8
@alloc25 = private unnamed_addr constant <{ [42 x i8] }> <{ [42 x i8] c"cargo:rustc-check-cfg=cfg(no_source_text)\0A" }>, align 1
@alloc26 = private unnamed_addr constant <{ i8*, [8 x i8] }> <{ i8* getelementptr inbounds (<{ [42 x i8] }>, <{ [42 x i8] }>* @alloc25, i32 0, i32 0, i32 0), [8 x i8] c"*\00\00\00\00\00\00\00" }>, align 8
@alloc30 = private unnamed_addr constant <{ [43 x i8] }> <{ [43 x i8] c"cargo:rustc-check-cfg=cfg(proc_macro_span)\0A" }>, align 1
@alloc31 = private unnamed_addr constant <{ i8*, [8 x i8] }> <{ i8* getelementptr inbounds (<{ [43 x i8] }>, <{ [43 x i8] }>* @alloc30, i32 0, i32 0, i32 0), [8 x i8] c"+\00\00\00\00\00\00\00" }>, align 8
@alloc35 = private unnamed_addr constant <{ [48 x i8] }> <{ [48 x i8] c"cargo:rustc-check-cfg=cfg(procmacro2_backtrace)\0A" }>, align 1
@alloc36 = private unnamed_addr constant <{ i8*, [8 x i8] }> <{ i8* getelementptr inbounds (<{ [48 x i8] }>, <{ [48 x i8] }>* @alloc35, i32 0, i32 0, i32 0), [8 x i8] c"0\00\00\00\00\00\00\00" }>, align 8
@alloc40 = private unnamed_addr constant <{ [54 x i8] }> <{ [54 x i8] c"cargo:rustc-check-cfg=cfg(procmacro2_nightly_testing)\0A" }>, align 1
@alloc41 = private unnamed_addr constant <{ i8*, [8 x i8] }> <{ i8* getelementptr inbounds (<{ [54 x i8] }>, <{ [54 x i8] }>* @alloc40, i32 0, i32 0, i32 0), [8 x i8] c"6\00\00\00\00\00\00\00" }>, align 8
@alloc45 = private unnamed_addr constant <{ [52 x i8] }> <{ [52 x i8] c"cargo:rustc-check-cfg=cfg(procmacro2_semver_exempt)\0A" }>, align 1
@alloc46 = private unnamed_addr constant <{ i8*, [8 x i8] }> <{ i8* getelementptr inbounds (<{ [52 x i8] }>, <{ [52 x i8] }>* @alloc45, i32 0, i32 0, i32 0), [8 x i8] c"4\00\00\00\00\00\00\00" }>, align 8
@alloc50 = private unnamed_addr constant <{ [44 x i8] }> <{ [44 x i8] c"cargo:rustc-check-cfg=cfg(randomize_layout)\0A" }>, align 1
@alloc51 = private unnamed_addr constant <{ i8*, [8 x i8] }> <{ i8* getelementptr inbounds (<{ [44 x i8] }>, <{ [44 x i8] }>* @alloc50, i32 0, i32 0, i32 0), [8 x i8] c",\00\00\00\00\00\00\00" }>, align 8
@alloc55 = private unnamed_addr constant <{ [42 x i8] }> <{ [42 x i8] c"cargo:rustc-check-cfg=cfg(span_locations)\0A" }>, align 1
@alloc56 = private unnamed_addr constant <{ i8*, [8 x i8] }> <{ i8* getelementptr inbounds (<{ [42 x i8] }>, <{ [42 x i8] }>* @alloc55, i32 0, i32 0, i32 0), [8 x i8] c"*\00\00\00\00\00\00\00" }>, align 8
@alloc60 = private unnamed_addr constant <{ [42 x i8] }> <{ [42 x i8] c"cargo:rustc-check-cfg=cfg(super_unstable)\0A" }>, align 1
@alloc61 = private unnamed_addr constant <{ i8*, [8 x i8] }> <{ i8* getelementptr inbounds (<{ [42 x i8] }>, <{ [42 x i8] }>* @alloc60, i32 0, i32 0, i32 0), [8 x i8] c"*\00\00\00\00\00\00\00" }>, align 8
@alloc65 = private unnamed_addr constant <{ [43 x i8] }> <{ [43 x i8] c"cargo:rustc-check-cfg=cfg(wrap_proc_macro)\0A" }>, align 1
@alloc66 = private unnamed_addr constant <{ i8*, [8 x i8] }> <{ i8* getelementptr inbounds (<{ [43 x i8] }>, <{ [43 x i8] }>* @alloc65, i32 0, i32 0, i32 0), [8 x i8] c"+\00\00\00\00\00\00\00" }>, align 8
@alloc75 = private unnamed_addr constant <{ [31 x i8] }> <{ [31 x i8] c"cargo:rustc-cfg=span_locations\0A" }>, align 1
@alloc76 = private unnamed_addr constant <{ i8*, [8 x i8] }> <{ i8* getelementptr inbounds (<{ [31 x i8] }>, <{ [31 x i8] }>* @alloc75, i32 0, i32 0, i32 0), [8 x i8] c"\1F\00\00\00\00\00\00\00" }>, align 8
@alloc80 = private unnamed_addr constant <{ [32 x i8] }> <{ [32 x i8] c"cargo:rustc-cfg=no_is_available\0A" }>, align 1
@alloc81 = private unnamed_addr constant <{ i8*, [8 x i8] }> <{ i8* getelementptr inbounds (<{ [32 x i8] }>, <{ [32 x i8] }>* @alloc80, i32 0, i32 0, i32 0), [8 x i8] c" \00\00\00\00\00\00\00" }>, align 8
@alloc85 = private unnamed_addr constant <{ [31 x i8] }> <{ [31 x i8] c"cargo:rustc-cfg=no_source_text\0A" }>, align 1
@alloc86 = private unnamed_addr constant <{ i8*, [8 x i8] }> <{ i8* getelementptr inbounds (<{ [31 x i8] }>, <{ [31 x i8] }>* @alloc85, i32 0, i32 0, i32 0), [8 x i8] c"\1F\00\00\00\00\00\00\00" }>, align 8
@alloc90 = private unnamed_addr constant <{ [42 x i8] }> <{ [42 x i8] c"cargo:rustc-cfg=no_literal_byte_character\0A" }>, align 1
@alloc91 = private unnamed_addr constant <{ i8*, [8 x i8] }> <{ i8* getelementptr inbounds (<{ [42 x i8] }>, <{ [42 x i8] }>* @alloc90, i32 0, i32 0, i32 0), [8 x i8] c"*\00\00\00\00\00\00\00" }>, align 8
@alloc95 = private unnamed_addr constant <{ [36 x i8] }> <{ [36 x i8] c"cargo:rustc-cfg=no_literal_c_string\0A" }>, align 1
@alloc96 = private unnamed_addr constant <{ i8*, [8 x i8] }> <{ i8* getelementptr inbounds (<{ [36 x i8] }>, <{ [36 x i8] }>* @alloc95, i32 0, i32 0, i32 0), [8 x i8] c"$\00\00\00\00\00\00\00" }>, align 8
@alloc105 = private unnamed_addr constant <{ [38 x i8] }> <{ [38 x i8] c"cargo:rerun-if-changed=build/probe.rs\0A" }>, align 1
@alloc106 = private unnamed_addr constant <{ i8*, [8 x i8] }> <{ i8* getelementptr inbounds (<{ [38 x i8] }>, <{ [38 x i8] }>* @alloc105, i32 0, i32 0, i32 0), [8 x i8] c"&\00\00\00\00\00\00\00" }>, align 8
@alloc380 = private unnamed_addr constant <{ [15 x i8] }> <{ [15 x i8] c"RUSTC_BOOTSTRAP" }>, align 1
@alloc111 = private unnamed_addr constant <{ [1 x i8] }> <{ [1 x i8] c"1" }>, align 1
@alloc112 = private unnamed_addr constant <{ i8*, [8 x i8] }> <{ i8* getelementptr inbounds (<{ [1 x i8] }>, <{ [1 x i8] }>* @alloc111, i32 0, i32 0, i32 0), [8 x i8] c"\01\00\00\00\00\00\00\00" }>, align 8
@alloc114 = private unnamed_addr constant <{ [32 x i8] }> <{ [32 x i8] c"cargo:rustc-cfg=wrap_proc_macro\0A" }>, align 1
@alloc115 = private unnamed_addr constant <{ i8*, [8 x i8] }> <{ i8* getelementptr inbounds (<{ [32 x i8] }>, <{ [32 x i8] }>* @alloc114, i32 0, i32 0, i32 0), [8 x i8] c" \00\00\00\00\00\00\00" }>, align 8
@alloc119 = private unnamed_addr constant <{ [32 x i8] }> <{ [32 x i8] c"cargo:rustc-cfg=proc_macro_span\0A" }>, align 1
@alloc120 = private unnamed_addr constant <{ i8*, [8 x i8] }> <{ i8* getelementptr inbounds (<{ [32 x i8] }>, <{ [32 x i8] }>* @alloc119, i32 0, i32 0, i32 0), [8 x i8] c" \00\00\00\00\00\00\00" }>, align 8
@alloc124 = private unnamed_addr constant <{ [31 x i8] }> <{ [31 x i8] c"cargo:rustc-cfg=super_unstable\0A" }>, align 1
@alloc125 = private unnamed_addr constant <{ i8*, [8 x i8] }> <{ i8* getelementptr inbounds (<{ [31 x i8] }>, <{ [31 x i8] }>* @alloc124, i32 0, i32 0, i32 0), [8 x i8] c"\1F\00\00\00\00\00\00\00" }>, align 8
@alloc129 = private unnamed_addr constant <{ [43 x i8] }> <{ [43 x i8] c"cargo:rerun-if-env-changed=RUSTC_BOOTSTRAP\0A" }>, align 1
@alloc130 = private unnamed_addr constant <{ i8*, [8 x i8] }> <{ i8* getelementptr inbounds (<{ [43 x i8] }>, <{ [43 x i8] }>* @alloc129, i32 0, i32 0, i32 0), [8 x i8] c"+\00\00\00\00\00\00\00" }>, align 8
@alloc370 = private unnamed_addr constant <{ [11 x i8] }> <{ [11 x i8] c"RUSTC_STAGE" }>, align 1
@alloc390 = private unnamed_addr constant <{ [5 x i8] }> <{ [5 x i8] c"RUSTC" }>, align 1
@alloc372 = private unnamed_addr constant <{ [7 x i8] }> <{ [7 x i8] c"OUT_DIR" }>, align 1
@alloc373 = private unnamed_addr constant <{ [5 x i8] }> <{ [5 x i8] c"probe" }>, align 1
@alloc374 = private unnamed_addr constant <{ [5 x i8] }> <{ [5 x i8] c"build" }>, align 1
@alloc375 = private unnamed_addr constant <{ [8 x i8] }> <{ [8 x i8] c"probe.rs" }>, align 1
@alloc193 = private unnamed_addr constant <{ [1 x i8] }> <{ [1 x i8] c"\0C" }>, align 1
@alloc195 = private unnamed_addr constant <{ [17 x i8] }> <{ [17 x i8] c"Failed to create " }>, align 1
@alloc216 = private unnamed_addr constant <{ [2 x i8] }> <{ [2 x i8] c": " }>, align 1
@alloc217 = private unnamed_addr constant <{ [1 x i8] }> <{ [1 x i8] c"\0A" }>, align 1
@alloc196 = private unnamed_addr constant <{ i8*, [8 x i8], i8*, [8 x i8], i8*, [8 x i8] }> <{ i8* getelementptr inbounds (<{ [17 x i8] }>, <{ [17 x i8] }>* @alloc195, i32 0, i32 0, i32 0), [8 x i8] c"\11\00\00\00\00\00\00\00", i8* getelementptr inbounds (<{ [2 x i8] }>, <{ [2 x i8] }>* @alloc216, i32 0, i32 0, i32 0), [8 x i8] c"\02\00\00\00\00\00\00\00", i8* getelementptr inbounds (<{ [1 x i8] }>, <{ [1 x i8] }>* @alloc217, i32 0, i32 0, i32 0), [8 x i8] c"\01\00\00\00\00\00\00\00" }>, align 8
@alloc376 = private unnamed_addr constant <{ [13 x i8] }> <{ [13 x i8] c"RUSTC_WRAPPER" }>, align 1
@alloc377 = private unnamed_addr constant <{ [23 x i8] }> <{ [23 x i8] c"RUSTC_WORKSPACE_WRAPPER" }>, align 1
@alloc378 = private unnamed_addr constant <{ [88 x i8] }> <{ [88 x i8] c"/home/calvin/.cargo/registry/src/github.com-1ecc6299db9ec823/proc-macro2-1.0.97/build.rs" }>, align 1
@alloc379 = private unnamed_addr constant <{ i8*, [16 x i8] }> <{ i8* getelementptr inbounds (<{ [88 x i8] }>, <{ [88 x i8] }>* @alloc378, i32 0, i32 0, i32 0), [16 x i8] c"X\00\00\00\00\00\00\00\A7\00\00\00-\00\00\00" }>, align 8
@alloc381 = private unnamed_addr constant <{ [14 x i8] }> <{ [14 x i8] c"--edition=2021" }>, align 1
@alloc382 = private unnamed_addr constant <{ [24 x i8] }> <{ [24 x i8] c"--crate-name=proc_macro2" }>, align 1
@alloc383 = private unnamed_addr constant <{ [16 x i8] }> <{ [16 x i8] c"--crate-type=lib" }>, align 1
@alloc384 = private unnamed_addr constant <{ [17 x i8] }> <{ [17 x i8] c"--cap-lints=allow" }>, align 1
@alloc385 = private unnamed_addr constant <{ [24 x i8] }> <{ [24 x i8] c"--emit=dep-info,metadata" }>, align 1
@alloc386 = private unnamed_addr constant <{ [9 x i8] }> <{ [9 x i8] c"--out-dir" }>, align 1
@alloc387 = private unnamed_addr constant <{ [6 x i8] }> <{ [6 x i8] c"TARGET" }>, align 1
@alloc388 = private unnamed_addr constant <{ [8 x i8] }> <{ [8 x i8] c"--target" }>, align 1
@alloc389 = private unnamed_addr constant <{ [23 x i8] }> <{ [23 x i8] c"CARGO_ENCODED_RUSTFLAGS" }>, align 1
@alloc210 = private unnamed_addr constant <{ [1 x i8] }> zeroinitializer, align 1
@alloc212 = private unnamed_addr constant <{ [8 x i8] }> <{ [8 x i8] c"\01\00\00\00'\00\00\00" }>, align 4
@alloc214 = private unnamed_addr constant <{ [19 x i8] }> <{ [19 x i8] c"Failed to clean up " }>, align 1
@alloc215 = private unnamed_addr constant <{ i8*, [8 x i8], i8*, [8 x i8], i8*, [8 x i8] }> <{ i8* getelementptr inbounds (<{ [19 x i8] }>, <{ [19 x i8] }>* @alloc214, i32 0, i32 0, i32 0), [8 x i8] c"\13\00\00\00\00\00\00\00", i8* getelementptr inbounds (<{ [2 x i8] }>, <{ [2 x i8] }>* @alloc216, i32 0, i32 0, i32 0), [8 x i8] c"\02\00\00\00\00\00\00\00", i8* getelementptr inbounds (<{ [1 x i8] }>, <{ [1 x i8] }>* @alloc217, i32 0, i32 0, i32 0), [8 x i8] c"\01\00\00\00\00\00\00\00" }>, align 8
@alloc391 = private unnamed_addr constant <{ [9 x i8] }> <{ [9 x i8] c"--version" }>, align 1
@alloc140 = private unnamed_addr constant <{ [7 x i8] }> <{ [7 x i8] c"rustc 1" }>, align 1
@alloc141 = private unnamed_addr constant <{ i8*, [8 x i8] }> <{ i8* getelementptr inbounds (<{ [7 x i8] }>, <{ [7 x i8] }>* @alloc140, i32 0, i32 0, i32 0), [8 x i8] c"\07\00\00\00\00\00\00\00" }>, align 8
@alloc155 = private unnamed_addr constant <{ [22 x i8] }> <{ [22 x i8] c"Environment variable $" }>, align 1
@alloc157 = private unnamed_addr constant <{ [45 x i8] }> <{ [45 x i8] c" is not set during execution of build script\0A" }>, align 1
@alloc156 = private unnamed_addr constant <{ i8*, [8 x i8], i8*, [8 x i8] }> <{ i8* getelementptr inbounds (<{ [22 x i8] }>, <{ [22 x i8] }>* @alloc155, i32 0, i32 0, i32 0), [8 x i8] c"\16\00\00\00\00\00\00\00", i8* getelementptr inbounds (<{ [45 x i8] }>, <{ [45 x i8] }>* @alloc157, i32 0, i32 0, i32 0), [8 x i8] c"-\00\00\00\00\00\00\00" }>, align 8
@__rustc_debug_gdb_scripts_section__ = linkonce_odr unnamed_addr constant [34 x i8] c"\01gdb_load_rust_pretty_printers.py\00", section ".debug_gdb_scripts", align 1

; <core::iter::adapters::chain::Chain<A,B> as core::iter::traits::iterator::Iterator>::next
; Function Attrs: inlinehint nonlazybind uwtable
define internal void @"_ZN106_$LT$core..iter..adapters..chain..Chain$LT$A$C$B$GT$$u20$as$u20$core..iter..traits..iterator..Iterator$GT$4next17h4837b0f900b40223E"(%"core::option::Option<std::ffi::os_str::OsString>"* sret(%"core::option::Option<std::ffi::os_str::OsString>") %0, %"core::iter::adapters::chain::Chain<core::option::IntoIter<std::ffi::os_str::OsString>, core::option::IntoIter<std::ffi::os_str::OsString>>"* align 8 %self) unnamed_addr #0 !dbg !167 {
start:
  %self.dbg.spill = alloca %"core::iter::adapters::chain::Chain<core::option::IntoIter<std::ffi::os_str::OsString>, core::option::IntoIter<std::ffi::os_str::OsString>>"*, align 8
  %_5 = alloca i64*, align 8
  %_2 = alloca %"core::option::Option<std::ffi::os_str::OsString>", align 8
  store %"core::iter::adapters::chain::Chain<core::option::IntoIter<std::ffi::os_str::OsString>, core::option::IntoIter<std::ffi::os_str::OsString>>"* %self, %"core::iter::adapters::chain::Chain<core::option::IntoIter<std::ffi::os_str::OsString>, core::option::IntoIter<std::ffi::os_str::OsString>>"** %self.dbg.spill, align 8
  call void @llvm.dbg.declare(metadata %"core::iter::adapters::chain::Chain<core::option::IntoIter<std::ffi::os_str::OsString>, core::option::IntoIter<std::ffi::os_str::OsString>>"** %self.dbg.spill, metadata !261, metadata !DIExpression()), !dbg !262
  %_4 = bitcast %"core::iter::adapters::chain::Chain<core::option::IntoIter<std::ffi::os_str::OsString>, core::option::IntoIter<std::ffi::os_str::OsString>>"* %self to %"core::option::Option<core::option::IntoIter<std::ffi::os_str::OsString>>"*, !dbg !263
; call core::iter::adapters::chain::and_then_or_clear
  call void @_ZN4core4iter8adapters5chain17and_then_or_clear17h23192c8edd6a8c30E(%"core::option::Option<std::ffi::os_str::OsString>"* sret(%"core::option::Option<std::ffi::os_str::OsString>") %_2, %"core::option::Option<core::option::IntoIter<std::ffi::os_str::OsString>>"* align 8 %_4), !dbg !264
  br label %bb1, !dbg !264

bb1:                                              ; preds = %start
  %_6 = getelementptr inbounds %"core::iter::adapters::chain::Chain<core::option::IntoIter<std::ffi::os_str::OsString>, core::option::IntoIter<std::ffi::os_str::OsString>>", %"core::iter::adapters::chain::Chain<core::option::IntoIter<std::ffi::os_str::OsString>, core::option::IntoIter<std::ffi::os_str::OsString>>"* %self, i32 0, i32 1, !dbg !265
  %1 = bitcast i64** %_5 to %"core::option::Option<core::option::IntoIter<std::ffi::os_str::OsString>>"**, !dbg !265
  store %"core::option::Option<core::option::IntoIter<std::ffi::os_str::OsString>>"* %_6, %"core::option::Option<core::option::IntoIter<std::ffi::os_str::OsString>>"** %1, align 8, !dbg !265
  %2 = load i64*, i64** %_5, align 8, !dbg !264, !nonnull !23, !align !266, !noundef !23
; call core::option::Option<T>::or_else
  call void @"_ZN4core6option15Option$LT$T$GT$7or_else17h79d87eaa75d1bc5dE"(%"core::option::Option<std::ffi::os_str::OsString>"* sret(%"core::option::Option<std::ffi::os_str::OsString>") %0, %"core::option::Option<std::ffi::os_str::OsString>"* %_2, i64* align 8 %2), !dbg !264
  br label %bb2, !dbg !264

bb2:                                              ; preds = %bb1
  ret void, !dbg !267
}

; <core::iter::adapters::chain::Chain<A,B> as core::iter::traits::iterator::Iterator>::next
; Function Attrs: inlinehint nonlazybind uwtable
define internal void @"_ZN106_$LT$core..iter..adapters..chain..Chain$LT$A$C$B$GT$$u20$as$u20$core..iter..traits..iterator..Iterator$GT$4next17hc871f87407746ccaE"(%"core::option::Option<std::ffi::os_str::OsString>"* sret(%"core::option::Option<std::ffi::os_str::OsString>") %0, %"core::iter::adapters::chain::Chain<core::iter::adapters::chain::Chain<core::option::IntoIter<std::ffi::os_str::OsString>, core::option::IntoIter<std::ffi::os_str::OsString>>, core::iter::sources::once::Once<std::ffi::os_str::OsString>>"* align 8 %self) unnamed_addr #0 !dbg !268 {
start:
  %self.dbg.spill = alloca %"core::iter::adapters::chain::Chain<core::iter::adapters::chain::Chain<core::option::IntoIter<std::ffi::os_str::OsString>, core::option::IntoIter<std::ffi::os_str::OsString>>, core::iter::sources::once::Once<std::ffi::os_str::OsString>>"*, align 8
  %_5 = alloca i64*, align 8
  %_2 = alloca %"core::option::Option<std::ffi::os_str::OsString>", align 8
  store %"core::iter::adapters::chain::Chain<core::iter::adapters::chain::Chain<core::option::IntoIter<std::ffi::os_str::OsString>, core::option::IntoIter<std::ffi::os_str::OsString>>, core::iter::sources::once::Once<std::ffi::os_str::OsString>>"* %self, %"core::iter::adapters::chain::Chain<core::iter::adapters::chain::Chain<core::option::IntoIter<std::ffi::os_str::OsString>, core::option::IntoIter<std::ffi::os_str::OsString>>, core::iter::sources::once::Once<std::ffi::os_str::OsString>>"** %self.dbg.spill, align 8
  call void @llvm.dbg.declare(metadata %"core::iter::adapters::chain::Chain<core::iter::adapters::chain::Chain<core::option::IntoIter<std::ffi::os_str::OsString>, core::option::IntoIter<std::ffi::os_str::OsString>>, core::iter::sources::once::Once<std::ffi::os_str::OsString>>"** %self.dbg.spill, metadata !311, metadata !DIExpression()), !dbg !312
  %_4 = bitcast %"core::iter::adapters::chain::Chain<core::iter::adapters::chain::Chain<core::option::IntoIter<std::ffi::os_str::OsString>, core::option::IntoIter<std::ffi::os_str::OsString>>, core::iter::sources::once::Once<std::ffi::os_str::OsString>>"* %self to %"core::option::Option<core::iter::adapters::chain::Chain<core::option::IntoIter<std::ffi::os_str::OsString>, core::option::IntoIter<std::ffi::os_str::OsString>>>"*, !dbg !313
; call core::iter::adapters::chain::and_then_or_clear
  call void @_ZN4core4iter8adapters5chain17and_then_or_clear17hd90ad484dda82e49E(%"core::option::Option<std::ffi::os_str::OsString>"* sret(%"core::option::Option<std::ffi::os_str::OsString>") %_2, %"core::option::Option<core::iter::adapters::chain::Chain<core::option::IntoIter<std::ffi::os_str::OsString>, core::option::IntoIter<std::ffi::os_str::OsString>>>"* align 8 %_4), !dbg !314
  br label %bb1, !dbg !314

bb1:                                              ; preds = %start
  %_6 = getelementptr inbounds %"core::iter::adapters::chain::Chain<core::iter::adapters::chain::Chain<core::option::IntoIter<std::ffi::os_str::OsString>, core::option::IntoIter<std::ffi::os_str::OsString>>, core::iter::sources::once::Once<std::ffi::os_str::OsString>>", %"core::iter::adapters::chain::Chain<core::iter::adapters::chain::Chain<core::option::IntoIter<std::ffi::os_str::OsString>, core::option::IntoIter<std::ffi::os_str::OsString>>, core::iter::sources::once::Once<std::ffi::os_str::OsString>>"* %self, i32 0, i32 1, !dbg !315
  %1 = bitcast i64** %_5 to %"core::option::Option<core::iter::sources::once::Once<std::ffi::os_str::OsString>>"**, !dbg !315
  store %"core::option::Option<core::iter::sources::once::Once<std::ffi::os_str::OsString>>"* %_6, %"core::option::Option<core::iter::sources::once::Once<std::ffi::os_str::OsString>>"** %1, align 8, !dbg !315
  %2 = load i64*, i64** %_5, align 8, !dbg !314, !nonnull !23, !align !266, !noundef !23
; call core::option::Option<T>::or_else
  call void @"_ZN4core6option15Option$LT$T$GT$7or_else17hfd223f75ff058e27E"(%"core::option::Option<std::ffi::os_str::OsString>"* sret(%"core::option::Option<std::ffi::os_str::OsString>") %0, %"core::option::Option<std::ffi::os_str::OsString>"* %_2, i64* align 8 %2), !dbg !314
  br label %bb2, !dbg !314

bb2:                                              ; preds = %bb1
  ret void, !dbg !316
}

; <core::iter::adapters::chain::Chain<A,B> as core::iter::traits::iterator::Iterator>::next::{{closure}}
; Function Attrs: inlinehint nonlazybind uwtable
define internal void @"_ZN106_$LT$core..iter..adapters..chain..Chain$LT$A$C$B$GT$$u20$as$u20$core..iter..traits..iterator..Iterator$GT$4next28_$u7b$$u7b$closure$u7d$$u7d$17h7586bda50578d272E"(%"core::option::Option<std::ffi::os_str::OsString>"* sret(%"core::option::Option<std::ffi::os_str::OsString>") %0, i64* align 8 %1) unnamed_addr #0 !dbg !317 {
start:
  %val.dbg.spill = alloca %"core::iter::sources::once::Once<std::ffi::os_str::OsString>"*, align 8
  %v.dbg.spill = alloca %"core::iter::sources::once::Once<std::ffi::os_str::OsString>"*, align 8
  %x.dbg.spill = alloca %"core::iter::sources::once::Once<std::ffi::os_str::OsString>"*, align 8
  %self.dbg.spill = alloca %"core::option::Option<core::iter::sources::once::Once<std::ffi::os_str::OsString>>"*, align 8
  %residual.dbg.spill1 = alloca %"core::option::Option<core::convert::Infallible>::None", align 1
  %residual.dbg.spill = alloca %"core::option::Option<core::convert::Infallible>::None", align 1
  %self = alloca i64*, align 8
  %_4 = alloca i64*, align 8
  %_1 = alloca i64*, align 8
  store i64* %1, i64** %_1, align 8
  %2 = bitcast i64** %_1 to %"core::option::Option<core::iter::sources::once::Once<std::ffi::os_str::OsString>>"**
  %3 = load %"core::option::Option<core::iter::sources::once::Once<std::ffi::os_str::OsString>>"*, %"core::option::Option<core::iter::sources::once::Once<std::ffi::os_str::OsString>>"** %2, align 8, !nonnull !23, !align !266, !noundef !23
  call void @llvm.dbg.declare(metadata i64** %_1, metadata !326, metadata !DIExpression(DW_OP_deref)), !dbg !348
  call void @llvm.dbg.declare(metadata i64** %self, metadata !349, metadata !DIExpression()), !dbg !391
  call void @llvm.dbg.declare(metadata %"core::option::Option<core::convert::Infallible>::None"* %residual.dbg.spill, metadata !327, metadata !DIExpression()), !dbg !393
  call void @llvm.dbg.declare(metadata %"core::option::Option<core::convert::Infallible>::None"* %residual.dbg.spill1, metadata !394, metadata !DIExpression()), !dbg !401
  %4 = bitcast i64** %_1 to %"core::option::Option<core::iter::sources::once::Once<std::ffi::os_str::OsString>>"**, !dbg !392
  %_11 = load %"core::option::Option<core::iter::sources::once::Once<std::ffi::os_str::OsString>>"*, %"core::option::Option<core::iter::sources::once::Once<std::ffi::os_str::OsString>>"** %4, align 8, !dbg !392, !nonnull !23, !align !266, !noundef !23
  store %"core::option::Option<core::iter::sources::once::Once<std::ffi::os_str::OsString>>"* %_11, %"core::option::Option<core::iter::sources::once::Once<std::ffi::os_str::OsString>>"** %self.dbg.spill, align 8, !dbg !392
  call void @llvm.dbg.declare(metadata %"core::option::Option<core::iter::sources::once::Once<std::ffi::os_str::OsString>>"** %self.dbg.spill, metadata !403, metadata !DIExpression()), !dbg !412
  %5 = bitcast %"core::option::Option<core::iter::sources::once::Once<std::ffi::os_str::OsString>>"* %_11 to i64*, !dbg !412
  %_12 = load i64, i64* %5, align 8, !dbg !412, !range !413, !noundef !23
  switch i64 %_12, label %bb9 [
    i64 0, label %bb8
    i64 1, label %bb10
  ], !dbg !412

bb9:                                              ; preds = %start
  unreachable, !dbg !412

bb8:                                              ; preds = %start
  %6 = bitcast i64** %self to {}**, !dbg !412
  store {}* null, {}** %6, align 8, !dbg !412
  br label %bb1, !dbg !412

bb10:                                             ; preds = %start
  %7 = bitcast %"core::option::Option<core::iter::sources::once::Once<std::ffi::os_str::OsString>>"* %_11 to %"core::option::Option<core::iter::sources::once::Once<std::ffi::os_str::OsString>>::Some"*, !dbg !412
  %x = getelementptr inbounds %"core::option::Option<core::iter::sources::once::Once<std::ffi::os_str::OsString>>::Some", %"core::option::Option<core::iter::sources::once::Once<std::ffi::os_str::OsString>>::Some"* %7, i32 0, i32 1, !dbg !412
  store %"core::iter::sources::once::Once<std::ffi::os_str::OsString>"* %x, %"core::iter::sources::once::Once<std::ffi::os_str::OsString>"** %x.dbg.spill, align 8, !dbg !412
  call void @llvm.dbg.declare(metadata %"core::iter::sources::once::Once<std::ffi::os_str::OsString>"** %x.dbg.spill, metadata !409, metadata !DIExpression()), !dbg !414
  %8 = bitcast i64** %self to %"core::iter::sources::once::Once<std::ffi::os_str::OsString>"**, !dbg !414
  store %"core::iter::sources::once::Once<std::ffi::os_str::OsString>"* %x, %"core::iter::sources::once::Once<std::ffi::os_str::OsString>"** %8, align 8, !dbg !414
  br label %bb1, !dbg !412

bb1:                                              ; preds = %bb8, %bb10
  %9 = bitcast i64** %self to {}**, !dbg !391
  %10 = load {}*, {}** %9, align 8, !dbg !391
  %11 = icmp eq {}* %10, null, !dbg !391
  %_15 = select i1 %11, i64 0, i64 1, !dbg !391
  switch i64 %_15, label %bb12 [
    i64 0, label %bb11
    i64 1, label %bb13
  ], !dbg !391

bb12:                                             ; preds = %bb1
  unreachable, !dbg !391

bb11:                                             ; preds = %bb1
  %12 = bitcast i64** %_4 to {}**, !dbg !391
  store {}* null, {}** %12, align 8, !dbg !391
  br label %bb2, !dbg !391

bb13:                                             ; preds = %bb1
  %13 = bitcast i64** %self to %"core::iter::sources::once::Once<std::ffi::os_str::OsString>"**, !dbg !391
  %v = load %"core::iter::sources::once::Once<std::ffi::os_str::OsString>"*, %"core::iter::sources::once::Once<std::ffi::os_str::OsString>"** %13, align 8, !dbg !391, !nonnull !23, !align !266, !noundef !23
  store %"core::iter::sources::once::Once<std::ffi::os_str::OsString>"* %v, %"core::iter::sources::once::Once<std::ffi::os_str::OsString>"** %v.dbg.spill, align 8, !dbg !391
  call void @llvm.dbg.declare(metadata %"core::iter::sources::once::Once<std::ffi::os_str::OsString>"** %v.dbg.spill, metadata !388, metadata !DIExpression()), !dbg !415
  %14 = bitcast i64** %_4 to %"core::iter::sources::once::Once<std::ffi::os_str::OsString>"**, !dbg !415
  store %"core::iter::sources::once::Once<std::ffi::os_str::OsString>"* %v, %"core::iter::sources::once::Once<std::ffi::os_str::OsString>"** %14, align 8, !dbg !415
  br label %bb2, !dbg !391

bb2:                                              ; preds = %bb11, %bb13
  %15 = bitcast i64** %_4 to {}**, !dbg !392
  %16 = load {}*, {}** %15, align 8, !dbg !392
  %17 = icmp eq {}* %16, null, !dbg !392
  %_7 = select i1 %17, i64 1, i64 0, !dbg !392
  switch i64 %_7, label %bb4 [
    i64 0, label %bb3
    i64 1, label %bb5
  ], !dbg !392

bb4:                                              ; preds = %bb2
  unreachable, !dbg !392

bb3:                                              ; preds = %bb2
  %18 = bitcast i64** %_4 to %"core::iter::sources::once::Once<std::ffi::os_str::OsString>"**, !dbg !392
  %val = load %"core::iter::sources::once::Once<std::ffi::os_str::OsString>"*, %"core::iter::sources::once::Once<std::ffi::os_str::OsString>"** %18, align 8, !dbg !392, !nonnull !23, !align !266, !noundef !23
  store %"core::iter::sources::once::Once<std::ffi::os_str::OsString>"* %val, %"core::iter::sources::once::Once<std::ffi::os_str::OsString>"** %val.dbg.spill, align 8, !dbg !392
  call void @llvm.dbg.declare(metadata %"core::iter::sources::once::Once<std::ffi::os_str::OsString>"** %val.dbg.spill, metadata !345, metadata !DIExpression()), !dbg !416
; call <core::iter::sources::once::Once<T> as core::iter::traits::iterator::Iterator>::next
  call void @"_ZN99_$LT$core..iter..sources..once..Once$LT$T$GT$$u20$as$u20$core..iter..traits..iterator..Iterator$GT$4next17hf13abd47976197b0E"(%"core::option::Option<std::ffi::os_str::OsString>"* sret(%"core::option::Option<std::ffi::os_str::OsString>") %0, %"core::iter::sources::once::Once<std::ffi::os_str::OsString>"* align 8 %val), !dbg !392
  br label %bb6, !dbg !392

bb5:                                              ; preds = %bb2
  %19 = bitcast %"core::option::Option<std::ffi::os_str::OsString>"* %0 to {}**, !dbg !401
  store {}* null, {}** %19, align 8, !dbg !401
  br label %bb7, !dbg !417

bb7:                                              ; preds = %bb6, %bb5
  ret void, !dbg !417

bb6:                                              ; preds = %bb3
  br label %bb7, !dbg !417
}

; <core::iter::adapters::chain::Chain<A,B> as core::iter::traits::iterator::Iterator>::next::{{closure}}
; Function Attrs: inlinehint nonlazybind uwtable
define internal void @"_ZN106_$LT$core..iter..adapters..chain..Chain$LT$A$C$B$GT$$u20$as$u20$core..iter..traits..iterator..Iterator$GT$4next28_$u7b$$u7b$closure$u7d$$u7d$17hd6dcb211b107fa0bE"(%"core::option::Option<std::ffi::os_str::OsString>"* sret(%"core::option::Option<std::ffi::os_str::OsString>") %0, i64* align 8 %1) unnamed_addr #0 !dbg !418 {
start:
  %val.dbg.spill = alloca %"core::option::IntoIter<std::ffi::os_str::OsString>"*, align 8
  %v.dbg.spill = alloca %"core::option::IntoIter<std::ffi::os_str::OsString>"*, align 8
  %x.dbg.spill = alloca %"core::option::IntoIter<std::ffi::os_str::OsString>"*, align 8
  %self.dbg.spill = alloca %"core::option::Option<core::option::IntoIter<std::ffi::os_str::OsString>>"*, align 8
  %residual.dbg.spill1 = alloca %"core::option::Option<core::convert::Infallible>::None", align 1
  %residual.dbg.spill = alloca %"core::option::Option<core::convert::Infallible>::None", align 1
  %self = alloca i64*, align 8
  %_4 = alloca i64*, align 8
  %_1 = alloca i64*, align 8
  store i64* %1, i64** %_1, align 8
  %2 = bitcast i64** %_1 to %"core::option::Option<core::option::IntoIter<std::ffi::os_str::OsString>>"**
  %3 = load %"core::option::Option<core::option::IntoIter<std::ffi::os_str::OsString>>"*, %"core::option::Option<core::option::IntoIter<std::ffi::os_str::OsString>>"** %2, align 8, !nonnull !23, !align !266, !noundef !23
  call void @llvm.dbg.declare(metadata i64** %_1, metadata !426, metadata !DIExpression(DW_OP_deref)), !dbg !432
  call void @llvm.dbg.declare(metadata i64** %self, metadata !433, metadata !DIExpression()), !dbg !470
  call void @llvm.dbg.declare(metadata %"core::option::Option<core::convert::Infallible>::None"* %residual.dbg.spill, metadata !427, metadata !DIExpression()), !dbg !472
  call void @llvm.dbg.declare(metadata %"core::option::Option<core::convert::Infallible>::None"* %residual.dbg.spill1, metadata !473, metadata !DIExpression()), !dbg !477
  %4 = bitcast i64** %_1 to %"core::option::Option<core::option::IntoIter<std::ffi::os_str::OsString>>"**, !dbg !471
  %_11 = load %"core::option::Option<core::option::IntoIter<std::ffi::os_str::OsString>>"*, %"core::option::Option<core::option::IntoIter<std::ffi::os_str::OsString>>"** %4, align 8, !dbg !471, !nonnull !23, !align !266, !noundef !23
  store %"core::option::Option<core::option::IntoIter<std::ffi::os_str::OsString>>"* %_11, %"core::option::Option<core::option::IntoIter<std::ffi::os_str::OsString>>"** %self.dbg.spill, align 8, !dbg !471
  call void @llvm.dbg.declare(metadata %"core::option::Option<core::option::IntoIter<std::ffi::os_str::OsString>>"** %self.dbg.spill, metadata !479, metadata !DIExpression()), !dbg !488
  %5 = bitcast %"core::option::Option<core::option::IntoIter<std::ffi::os_str::OsString>>"* %_11 to i64*, !dbg !488
  %_12 = load i64, i64* %5, align 8, !dbg !488, !range !413, !noundef !23
  switch i64 %_12, label %bb9 [
    i64 0, label %bb8
    i64 1, label %bb10
  ], !dbg !488

bb9:                                              ; preds = %start
  unreachable, !dbg !488

bb8:                                              ; preds = %start
  %6 = bitcast i64** %self to {}**, !dbg !488
  store {}* null, {}** %6, align 8, !dbg !488
  br label %bb1, !dbg !488

bb10:                                             ; preds = %start
  %7 = bitcast %"core::option::Option<core::option::IntoIter<std::ffi::os_str::OsString>>"* %_11 to %"core::option::Option<core::option::IntoIter<std::ffi::os_str::OsString>>::Some"*, !dbg !488
  %x = getelementptr inbounds %"core::option::Option<core::option::IntoIter<std::ffi::os_str::OsString>>::Some", %"core::option::Option<core::option::IntoIter<std::ffi::os_str::OsString>>::Some"* %7, i32 0, i32 1, !dbg !488
  store %"core::option::IntoIter<std::ffi::os_str::OsString>"* %x, %"core::option::IntoIter<std::ffi::os_str::OsString>"** %x.dbg.spill, align 8, !dbg !488
  call void @llvm.dbg.declare(metadata %"core::option::IntoIter<std::ffi::os_str::OsString>"** %x.dbg.spill, metadata !485, metadata !DIExpression()), !dbg !489
  %8 = bitcast i64** %self to %"core::option::IntoIter<std::ffi::os_str::OsString>"**, !dbg !489
  store %"core::option::IntoIter<std::ffi::os_str::OsString>"* %x, %"core::option::IntoIter<std::ffi::os_str::OsString>"** %8, align 8, !dbg !489
  br label %bb1, !dbg !488

bb1:                                              ; preds = %bb8, %bb10
  %9 = bitcast i64** %self to {}**, !dbg !470
  %10 = load {}*, {}** %9, align 8, !dbg !470
  %11 = icmp eq {}* %10, null, !dbg !470
  %_15 = select i1 %11, i64 0, i64 1, !dbg !470
  switch i64 %_15, label %bb12 [
    i64 0, label %bb11
    i64 1, label %bb13
  ], !dbg !470

bb12:                                             ; preds = %bb1
  unreachable, !dbg !470

bb11:                                             ; preds = %bb1
  %12 = bitcast i64** %_4 to {}**, !dbg !470
  store {}* null, {}** %12, align 8, !dbg !470
  br label %bb2, !dbg !470

bb13:                                             ; preds = %bb1
  %13 = bitcast i64** %self to %"core::option::IntoIter<std::ffi::os_str::OsString>"**, !dbg !470
  %v = load %"core::option::IntoIter<std::ffi::os_str::OsString>"*, %"core::option::IntoIter<std::ffi::os_str::OsString>"** %13, align 8, !dbg !470, !nonnull !23, !align !266, !noundef !23
  store %"core::option::IntoIter<std::ffi::os_str::OsString>"* %v, %"core::option::IntoIter<std::ffi::os_str::OsString>"** %v.dbg.spill, align 8, !dbg !470
  call void @llvm.dbg.declare(metadata %"core::option::IntoIter<std::ffi::os_str::OsString>"** %v.dbg.spill, metadata !467, metadata !DIExpression()), !dbg !490
  %14 = bitcast i64** %_4 to %"core::option::IntoIter<std::ffi::os_str::OsString>"**, !dbg !490
  store %"core::option::IntoIter<std::ffi::os_str::OsString>"* %v, %"core::option::IntoIter<std::ffi::os_str::OsString>"** %14, align 8, !dbg !490
  br label %bb2, !dbg !470

bb2:                                              ; preds = %bb11, %bb13
  %15 = bitcast i64** %_4 to {}**, !dbg !471
  %16 = load {}*, {}** %15, align 8, !dbg !471
  %17 = icmp eq {}* %16, null, !dbg !471
  %_7 = select i1 %17, i64 1, i64 0, !dbg !471
  switch i64 %_7, label %bb4 [
    i64 0, label %bb3
    i64 1, label %bb5
  ], !dbg !471

bb4:                                              ; preds = %bb2
  unreachable, !dbg !471

bb3:                                              ; preds = %bb2
  %18 = bitcast i64** %_4 to %"core::option::IntoIter<std::ffi::os_str::OsString>"**, !dbg !471
  %val = load %"core::option::IntoIter<std::ffi::os_str::OsString>"*, %"core::option::IntoIter<std::ffi::os_str::OsString>"** %18, align 8, !dbg !471, !nonnull !23, !align !266, !noundef !23
  store %"core::option::IntoIter<std::ffi::os_str::OsString>"* %val, %"core::option::IntoIter<std::ffi::os_str::OsString>"** %val.dbg.spill, align 8, !dbg !471
  call void @llvm.dbg.declare(metadata %"core::option::IntoIter<std::ffi::os_str::OsString>"** %val.dbg.spill, metadata !429, metadata !DIExpression()), !dbg !491
; call <core::option::IntoIter<A> as core::iter::traits::iterator::Iterator>::next
  call void @"_ZN90_$LT$core..option..IntoIter$LT$A$GT$$u20$as$u20$core..iter..traits..iterator..Iterator$GT$4next17h84baa81d5c14a028E"(%"core::option::Option<std::ffi::os_str::OsString>"* sret(%"core::option::Option<std::ffi::os_str::OsString>") %0, %"core::option::IntoIter<std::ffi::os_str::OsString>"* align 8 %val), !dbg !471
  br label %bb6, !dbg !471

bb5:                                              ; preds = %bb2
  %19 = bitcast %"core::option::Option<std::ffi::os_str::OsString>"* %0 to {}**, !dbg !477
  store {}* null, {}** %19, align 8, !dbg !477
  br label %bb7, !dbg !492

bb7:                                              ; preds = %bb6, %bb5
  ret void, !dbg !492

bb6:                                              ; preds = %bb3
  br label %bb7, !dbg !492
}

; <core::ops::range::Range<usize> as core::slice::index::SliceIndex<[T]>>::get_unchecked
; Function Attrs: inlinehint nonlazybind uwtable
define internal { [0 x i8]*, i64 } @"_ZN106_$LT$core..ops..range..Range$LT$usize$GT$$u20$as$u20$core..slice..index..SliceIndex$LT$$u5b$T$u5d$$GT$$GT$13get_unchecked17h9d136ce8922c21e5E"(i64 %self.0, i64 %self.1, [0 x i8]* %slice.0, i64 %slice.1) unnamed_addr #0 !dbg !493 {
start:
  %metadata.dbg.spill = alloca i64, align 8
  %data_address.dbg.spill = alloca {}*, align 8
  %self.dbg.spill5 = alloca i8*, align 8
  %len.dbg.spill = alloca i64, align 8
  %data.dbg.spill = alloca i8*, align 8
  %0 = alloca i8*, align 8
  %count.dbg.spill4 = alloca i64, align 8
  %self.dbg.spill3 = alloca i8*, align 8
  %count.dbg.spill = alloca i64, align 8
  %self.dbg.spill2 = alloca i8*, align 8
  %self.dbg.spill1 = alloca { [0 x i8]*, i64 }, align 8
  %slice.dbg.spill = alloca { [0 x i8]*, i64 }, align 8
  %self.dbg.spill = alloca { i64, i64 }, align 8
  %_22 = alloca { i8*, i64 }, align 8
  %_21 = alloca %"core::ptr::metadata::PtrRepr<[u8]>", align 8
  %runtime = alloca %"[closure@<core::ops::range::Range<usize> as core::slice::index::SliceIndex<[u8]>>::get_unchecked::{closure#0}]", align 8
  %1 = getelementptr inbounds { i64, i64 }, { i64, i64 }* %self.dbg.spill, i32 0, i32 0
  store i64 %self.0, i64* %1, align 8
  %2 = getelementptr inbounds { i64, i64 }, { i64, i64 }* %self.dbg.spill, i32 0, i32 1
  store i64 %self.1, i64* %2, align 8
  call void @llvm.dbg.declare(metadata { i64, i64 }* %self.dbg.spill, metadata !513, metadata !DIExpression()), !dbg !527
  %3 = getelementptr inbounds { [0 x i8]*, i64 }, { [0 x i8]*, i64 }* %slice.dbg.spill, i32 0, i32 0
  store [0 x i8]* %slice.0, [0 x i8]** %3, align 8
  %4 = getelementptr inbounds { [0 x i8]*, i64 }, { [0 x i8]*, i64 }* %slice.dbg.spill, i32 0, i32 1
  store i64 %slice.1, i64* %4, align 8
  call void @llvm.dbg.declare(metadata { [0 x i8]*, i64 }* %slice.dbg.spill, metadata !514, metadata !DIExpression()), !dbg !528
  call void @llvm.dbg.declare(metadata %"[closure@<core::ops::range::Range<usize> as core::slice::index::SliceIndex<[u8]>>::get_unchecked::{closure#0}]"* %runtime, metadata !515, metadata !DIExpression()), !dbg !529
  %5 = getelementptr inbounds { [0 x i8]*, i64 }, { [0 x i8]*, i64 }* %self.dbg.spill1, i32 0, i32 0, !dbg !530
  store [0 x i8]* %slice.0, [0 x i8]** %5, align 8, !dbg !530
  %6 = getelementptr inbounds { [0 x i8]*, i64 }, { [0 x i8]*, i64 }* %self.dbg.spill1, i32 0, i32 1, !dbg !530
  store i64 %slice.1, i64* %6, align 8, !dbg !530
  call void @llvm.dbg.declare(metadata { [0 x i8]*, i64 }* %self.dbg.spill1, metadata !531, metadata !DIExpression()), !dbg !540
  %self = bitcast [0 x i8]* %slice.0 to i8*, !dbg !540
  store i8* %self, i8** %self.dbg.spill2, align 8, !dbg !540
  call void @llvm.dbg.declare(metadata i8** %self.dbg.spill2, metadata !541, metadata !DIExpression()), !dbg !549
  store i64 %self.0, i64* %count.dbg.spill, align 8, !dbg !550
  call void @llvm.dbg.declare(metadata i64* %count.dbg.spill, metadata !548, metadata !DIExpression()), !dbg !549
  store i8* %self, i8** %self.dbg.spill3, align 8, !dbg !549
  call void @llvm.dbg.declare(metadata i8** %self.dbg.spill3, metadata !551, metadata !DIExpression()), !dbg !559
  store i64 %self.0, i64* %count.dbg.spill4, align 8, !dbg !549
  call void @llvm.dbg.declare(metadata i64* %count.dbg.spill4, metadata !558, metadata !DIExpression()), !dbg !559
  %7 = getelementptr inbounds i8, i8* %self, i64 %self.0, !dbg !559
  store i8* %7, i8** %0, align 8, !dbg !559
  %data = load i8*, i8** %0, align 8, !dbg !559
  store i8* %data, i8** %data.dbg.spill, align 8, !dbg !559
  call void @llvm.dbg.declare(metadata i8** %data.dbg.spill, metadata !561, metadata !DIExpression()), !dbg !569
  br label %bb1, !dbg !559

bb1:                                              ; preds = %start
  %len = sub i64 %self.1, %self.0, !dbg !571
  store i64 %len, i64* %len.dbg.spill, align 8, !dbg !571
  call void @llvm.dbg.declare(metadata i64* %len.dbg.spill, metadata !568, metadata !DIExpression()), !dbg !569
  store i8* %data, i8** %self.dbg.spill5, align 8, !dbg !569
  call void @llvm.dbg.declare(metadata i8** %self.dbg.spill5, metadata !572, metadata !DIExpression()), !dbg !580
  %data_address = bitcast i8* %data to {}*, !dbg !580
  store {}* %data_address, {}** %data_address.dbg.spill, align 8, !dbg !580
  call void @llvm.dbg.declare(metadata {}** %data_address.dbg.spill, metadata !582, metadata !DIExpression()), !dbg !591
  store i64 %len, i64* %metadata.dbg.spill, align 8, !dbg !569
  call void @llvm.dbg.declare(metadata i64* %metadata.dbg.spill, metadata !590, metadata !DIExpression()), !dbg !591
  %8 = bitcast { i8*, i64 }* %_22 to {}**, !dbg !591
  store {}* %data_address, {}** %8, align 8, !dbg !591
  %9 = getelementptr inbounds { i8*, i64 }, { i8*, i64 }* %_22, i32 0, i32 1, !dbg !591
  store i64 %len, i64* %9, align 8, !dbg !591
  %10 = bitcast %"core::ptr::metadata::PtrRepr<[u8]>"* %_21 to { i8*, i64 }*, !dbg !591
  %11 = getelementptr inbounds { i8*, i64 }, { i8*, i64 }* %_22, i32 0, i32 0, !dbg !591
  %12 = load i8*, i8** %11, align 8, !dbg !591
  %13 = getelementptr inbounds { i8*, i64 }, { i8*, i64 }* %_22, i32 0, i32 1, !dbg !591
  %14 = load i64, i64* %13, align 8, !dbg !591
  %15 = getelementptr inbounds { i8*, i64 }, { i8*, i64 }* %10, i32 0, i32 0, !dbg !591
  store i8* %12, i8** %15, align 8, !dbg !591
  %16 = getelementptr inbounds { i8*, i64 }, { i8*, i64 }* %10, i32 0, i32 1, !dbg !591
  store i64 %14, i64* %16, align 8, !dbg !591
  %17 = bitcast %"core::ptr::metadata::PtrRepr<[u8]>"* %_21 to { [0 x i8]*, i64 }*, !dbg !591
  %18 = getelementptr inbounds { [0 x i8]*, i64 }, { [0 x i8]*, i64 }* %17, i32 0, i32 0, !dbg !591
  %19 = load [0 x i8]*, [0 x i8]** %18, align 8, !dbg !591
  %20 = getelementptr inbounds { [0 x i8]*, i64 }, { [0 x i8]*, i64 }* %17, i32 0, i32 1, !dbg !591
  %21 = load i64, i64* %20, align 8, !dbg !591
  %22 = insertvalue { [0 x i8]*, i64 } undef, [0 x i8]* %19, 0, !dbg !593
  %23 = insertvalue { [0 x i8]*, i64 } %22, i64 %21, 1, !dbg !593
  ret { [0 x i8]*, i64 } %23, !dbg !593
}

; <core::ops::range::Range<usize> as core::slice::index::SliceIndex<[T]>>::get_unchecked_mut
; Function Attrs: inlinehint nonlazybind uwtable
define internal { [0 x i8]*, i64 } @"_ZN106_$LT$core..ops..range..Range$LT$usize$GT$$u20$as$u20$core..slice..index..SliceIndex$LT$$u5b$T$u5d$$GT$$GT$17get_unchecked_mut17h9de8d6dfe2aeb7bdE"(i64 %self.0, i64 %self.1, [0 x i8]* %slice.0, i64 %slice.1) unnamed_addr #0 !dbg !594 {
start:
  %metadata.dbg.spill = alloca i64, align 8
  %data_address.dbg.spill = alloca {}*, align 8
  %self.dbg.spill5 = alloca i8*, align 8
  %len.dbg.spill = alloca i64, align 8
  %data.dbg.spill = alloca i8*, align 8
  %0 = alloca i8*, align 8
  %count.dbg.spill4 = alloca i64, align 8
  %self.dbg.spill3 = alloca i8*, align 8
  %count.dbg.spill = alloca i64, align 8
  %self.dbg.spill2 = alloca i8*, align 8
  %self.dbg.spill1 = alloca { [0 x i8]*, i64 }, align 8
  %slice.dbg.spill = alloca { [0 x i8]*, i64 }, align 8
  %self.dbg.spill = alloca { i64, i64 }, align 8
  %_24 = alloca { i8*, i64 }, align 8
  %_23 = alloca %"core::ptr::metadata::PtrRepr<[u8]>", align 8
  %runtime = alloca %"[closure@<core::ops::range::Range<usize> as core::slice::index::SliceIndex<[u8]>>::get_unchecked_mut::{closure#0}]", align 8
  %1 = getelementptr inbounds { i64, i64 }, { i64, i64 }* %self.dbg.spill, i32 0, i32 0
  store i64 %self.0, i64* %1, align 8
  %2 = getelementptr inbounds { i64, i64 }, { i64, i64 }* %self.dbg.spill, i32 0, i32 1
  store i64 %self.1, i64* %2, align 8
  call void @llvm.dbg.declare(metadata { i64, i64 }* %self.dbg.spill, metadata !602, metadata !DIExpression()), !dbg !614
  %3 = getelementptr inbounds { [0 x i8]*, i64 }, { [0 x i8]*, i64 }* %slice.dbg.spill, i32 0, i32 0
  store [0 x i8]* %slice.0, [0 x i8]** %3, align 8
  %4 = getelementptr inbounds { [0 x i8]*, i64 }, { [0 x i8]*, i64 }* %slice.dbg.spill, i32 0, i32 1
  store i64 %slice.1, i64* %4, align 8
  call void @llvm.dbg.declare(metadata { [0 x i8]*, i64 }* %slice.dbg.spill, metadata !603, metadata !DIExpression()), !dbg !615
  call void @llvm.dbg.declare(metadata %"[closure@<core::ops::range::Range<usize> as core::slice::index::SliceIndex<[u8]>>::get_unchecked_mut::{closure#0}]"* %runtime, metadata !604, metadata !DIExpression()), !dbg !616
  %5 = getelementptr inbounds { [0 x i8]*, i64 }, { [0 x i8]*, i64 }* %self.dbg.spill1, i32 0, i32 0, !dbg !617
  store [0 x i8]* %slice.0, [0 x i8]** %5, align 8, !dbg !617
  %6 = getelementptr inbounds { [0 x i8]*, i64 }, { [0 x i8]*, i64 }* %self.dbg.spill1, i32 0, i32 1, !dbg !617
  store i64 %slice.1, i64* %6, align 8, !dbg !617
  call void @llvm.dbg.declare(metadata { [0 x i8]*, i64 }* %self.dbg.spill1, metadata !618, metadata !DIExpression()), !dbg !628
  %self = bitcast [0 x i8]* %slice.0 to i8*, !dbg !628
  store i8* %self, i8** %self.dbg.spill2, align 8, !dbg !628
  call void @llvm.dbg.declare(metadata i8** %self.dbg.spill2, metadata !629, metadata !DIExpression()), !dbg !637
  store i64 %self.0, i64* %count.dbg.spill, align 8, !dbg !638
  call void @llvm.dbg.declare(metadata i64* %count.dbg.spill, metadata !636, metadata !DIExpression()), !dbg !637
  store i8* %self, i8** %self.dbg.spill3, align 8, !dbg !637
  call void @llvm.dbg.declare(metadata i8** %self.dbg.spill3, metadata !639, metadata !DIExpression()), !dbg !646
  store i64 %self.0, i64* %count.dbg.spill4, align 8, !dbg !637
  call void @llvm.dbg.declare(metadata i64* %count.dbg.spill4, metadata !645, metadata !DIExpression()), !dbg !646
  %7 = getelementptr inbounds i8, i8* %self, i64 %self.0, !dbg !646
  store i8* %7, i8** %0, align 8, !dbg !646
  %_15 = load i8*, i8** %0, align 8, !dbg !646
  br label %bb1, !dbg !646

bb1:                                              ; preds = %start
  store i8* %_15, i8** %data.dbg.spill, align 8, !dbg !646
  call void @llvm.dbg.declare(metadata i8** %data.dbg.spill, metadata !648, metadata !DIExpression()), !dbg !655
  %len = sub i64 %self.1, %self.0, !dbg !657
  store i64 %len, i64* %len.dbg.spill, align 8, !dbg !657
  call void @llvm.dbg.declare(metadata i64* %len.dbg.spill, metadata !654, metadata !DIExpression()), !dbg !655
  store i8* %_15, i8** %self.dbg.spill5, align 8, !dbg !655
  call void @llvm.dbg.declare(metadata i8** %self.dbg.spill5, metadata !658, metadata !DIExpression()), !dbg !665
  %data_address = bitcast i8* %_15 to {}*, !dbg !665
  store {}* %data_address, {}** %data_address.dbg.spill, align 8, !dbg !665
  call void @llvm.dbg.declare(metadata {}** %data_address.dbg.spill, metadata !667, metadata !DIExpression()), !dbg !674
  store i64 %len, i64* %metadata.dbg.spill, align 8, !dbg !655
  call void @llvm.dbg.declare(metadata i64* %metadata.dbg.spill, metadata !673, metadata !DIExpression()), !dbg !674
  %8 = bitcast { i8*, i64 }* %_24 to {}**, !dbg !674
  store {}* %data_address, {}** %8, align 8, !dbg !674
  %9 = getelementptr inbounds { i8*, i64 }, { i8*, i64 }* %_24, i32 0, i32 1, !dbg !674
  store i64 %len, i64* %9, align 8, !dbg !674
  %10 = bitcast %"core::ptr::metadata::PtrRepr<[u8]>"* %_23 to { i8*, i64 }*, !dbg !674
  %11 = getelementptr inbounds { i8*, i64 }, { i8*, i64 }* %_24, i32 0, i32 0, !dbg !674
  %12 = load i8*, i8** %11, align 8, !dbg !674
  %13 = getelementptr inbounds { i8*, i64 }, { i8*, i64 }* %_24, i32 0, i32 1, !dbg !674
  %14 = load i64, i64* %13, align 8, !dbg !674
  %15 = getelementptr inbounds { i8*, i64 }, { i8*, i64 }* %10, i32 0, i32 0, !dbg !674
  store i8* %12, i8** %15, align 8, !dbg !674
  %16 = getelementptr inbounds { i8*, i64 }, { i8*, i64 }* %10, i32 0, i32 1, !dbg !674
  store i64 %14, i64* %16, align 8, !dbg !674
  %17 = bitcast %"core::ptr::metadata::PtrRepr<[u8]>"* %_23 to { [0 x i8]*, i64 }*, !dbg !674
  %18 = getelementptr inbounds { [0 x i8]*, i64 }, { [0 x i8]*, i64 }* %17, i32 0, i32 0, !dbg !674
  %19 = load [0 x i8]*, [0 x i8]** %18, align 8, !dbg !674
  %20 = getelementptr inbounds { [0 x i8]*, i64 }, { [0 x i8]*, i64 }* %17, i32 0, i32 1, !dbg !674
  %21 = load i64, i64* %20, align 8, !dbg !674
  %22 = insertvalue { [0 x i8]*, i64 } undef, [0 x i8]* %19, 0, !dbg !676
  %23 = insertvalue { [0 x i8]*, i64 } %22, i64 %21, 1, !dbg !676
  ret { [0 x i8]*, i64 } %23, !dbg !676
}

; <core::ops::range::Range<usize> as core::slice::index::SliceIndex<[T]>>::get
; Function Attrs: inlinehint nonlazybind uwtable
define internal { i8*, i64 } @"_ZN106_$LT$core..ops..range..Range$LT$usize$GT$$u20$as$u20$core..slice..index..SliceIndex$LT$$u5b$T$u5d$$GT$$GT$3get17he326f37a8e324faeE"(i64 %self.0, i64 %self.1, [0 x i8]* align 1 %slice.0, i64 %slice.1) unnamed_addr #0 !dbg !677 {
start:
  %slice.dbg.spill = alloca { [0 x i8]*, i64 }, align 8
  %self.dbg.spill = alloca { i64, i64 }, align 8
  %_3 = alloca i8, align 1
  %0 = alloca { i8*, i64 }, align 8
  %1 = getelementptr inbounds { i64, i64 }, { i64, i64 }* %self.dbg.spill, i32 0, i32 0
  store i64 %self.0, i64* %1, align 8
  %2 = getelementptr inbounds { i64, i64 }, { i64, i64 }* %self.dbg.spill, i32 0, i32 1
  store i64 %self.1, i64* %2, align 8
  call void @llvm.dbg.declare(metadata { i64, i64 }* %self.dbg.spill, metadata !698, metadata !DIExpression()), !dbg !700
  %3 = getelementptr inbounds { [0 x i8]*, i64 }, { [0 x i8]*, i64 }* %slice.dbg.spill, i32 0, i32 0
  store [0 x i8]* %slice.0, [0 x i8]** %3, align 8
  %4 = getelementptr inbounds { [0 x i8]*, i64 }, { [0 x i8]*, i64 }* %slice.dbg.spill, i32 0, i32 1
  store i64 %slice.1, i64* %4, align 8
  call void @llvm.dbg.declare(metadata { [0 x i8]*, i64 }* %slice.dbg.spill, metadata !699, metadata !DIExpression()), !dbg !701
  %_4 = icmp ugt i64 %self.0, %self.1, !dbg !702
  br i1 %_4, label %bb1, label %bb2, !dbg !702

bb2:                                              ; preds = %start
  %_7 = icmp ugt i64 %self.1, %slice.1, !dbg !703
  %5 = zext i1 %_7 to i8, !dbg !702
  store i8 %5, i8* %_3, align 1, !dbg !702
  br label %bb3, !dbg !702

bb1:                                              ; preds = %start
  store i8 1, i8* %_3, align 1, !dbg !702
  br label %bb3, !dbg !702

bb3:                                              ; preds = %bb2, %bb1
  %6 = load i8, i8* %_3, align 1, !dbg !702, !range !704, !noundef !23
  %7 = trunc i8 %6 to i1, !dbg !702
  br i1 %7, label %bb4, label %bb5, !dbg !702

bb5:                                              ; preds = %bb3
; call <core::ops::range::Range<usize> as core::slice::index::SliceIndex<[T]>>::get_unchecked
  %8 = call { [0 x i8]*, i64 } @"_ZN106_$LT$core..ops..range..Range$LT$usize$GT$$u20$as$u20$core..slice..index..SliceIndex$LT$$u5b$T$u5d$$GT$$GT$13get_unchecked17h9d136ce8922c21e5E"(i64 %self.0, i64 %self.1, [0 x i8]* %slice.0, i64 %slice.1), !dbg !705
  %_13.0 = extractvalue { [0 x i8]*, i64 } %8, 0, !dbg !705
  %_13.1 = extractvalue { [0 x i8]*, i64 } %8, 1, !dbg !705
  br label %bb6, !dbg !705

bb4:                                              ; preds = %bb3
  %9 = bitcast { i8*, i64 }* %0 to {}**, !dbg !706
  store {}* null, {}** %9, align 8, !dbg !706
  br label %bb7, !dbg !707

bb7:                                              ; preds = %bb6, %bb4
  %10 = getelementptr inbounds { i8*, i64 }, { i8*, i64 }* %0, i32 0, i32 0, !dbg !708
  %11 = load i8*, i8** %10, align 8, !dbg !708, !align !709
  %12 = getelementptr inbounds { i8*, i64 }, { i8*, i64 }* %0, i32 0, i32 1, !dbg !708
  %13 = load i64, i64* %12, align 8, !dbg !708
  %14 = insertvalue { i8*, i64 } undef, i8* %11, 0, !dbg !708
  %15 = insertvalue { i8*, i64 } %14, i64 %13, 1, !dbg !708
  ret { i8*, i64 } %15, !dbg !708

bb6:                                              ; preds = %bb5
  %16 = bitcast { i8*, i64 }* %0 to { [0 x i8]*, i64 }*, !dbg !710
  %17 = getelementptr inbounds { [0 x i8]*, i64 }, { [0 x i8]*, i64 }* %16, i32 0, i32 0, !dbg !710
  store [0 x i8]* %_13.0, [0 x i8]** %17, align 8, !dbg !710
  %18 = getelementptr inbounds { [0 x i8]*, i64 }, { [0 x i8]*, i64 }* %16, i32 0, i32 1, !dbg !710
  store i64 %_13.1, i64* %18, align 8, !dbg !710
  br label %bb7, !dbg !707
}

; <core::ops::range::Range<usize> as core::slice::index::SliceIndex<[T]>>::index
; Function Attrs: inlinehint nonlazybind uwtable
define internal { [0 x i8]*, i64 } @"_ZN106_$LT$core..ops..range..Range$LT$usize$GT$$u20$as$u20$core..slice..index..SliceIndex$LT$$u5b$T$u5d$$GT$$GT$5index17he0a1d25bfc27dea5E"(i64 %self.0, i64 %self.1, [0 x i8]* align 1 %slice.0, i64 %slice.1, %"core::panic::location::Location"* align 8 %0) unnamed_addr #0 !dbg !711 {
start:
  %slice.dbg.spill = alloca { [0 x i8]*, i64 }, align 8
  %self.dbg.spill = alloca { i64, i64 }, align 8
  %1 = getelementptr inbounds { i64, i64 }, { i64, i64 }* %self.dbg.spill, i32 0, i32 0
  store i64 %self.0, i64* %1, align 8
  %2 = getelementptr inbounds { i64, i64 }, { i64, i64 }* %self.dbg.spill, i32 0, i32 1
  store i64 %self.1, i64* %2, align 8
  call void @llvm.dbg.declare(metadata { i64, i64 }* %self.dbg.spill, metadata !728, metadata !DIExpression()), !dbg !730
  %3 = getelementptr inbounds { [0 x i8]*, i64 }, { [0 x i8]*, i64 }* %slice.dbg.spill, i32 0, i32 0
  store [0 x i8]* %slice.0, [0 x i8]** %3, align 8
  %4 = getelementptr inbounds { [0 x i8]*, i64 }, { [0 x i8]*, i64 }* %slice.dbg.spill, i32 0, i32 1
  store i64 %slice.1, i64* %4, align 8
  call void @llvm.dbg.declare(metadata { [0 x i8]*, i64 }* %slice.dbg.spill, metadata !729, metadata !DIExpression()), !dbg !731
  %_3 = icmp ugt i64 %self.0, %self.1, !dbg !732
  br i1 %_3, label %bb1, label %bb2, !dbg !732

bb2:                                              ; preds = %start
  %_9 = icmp ugt i64 %self.1, %slice.1, !dbg !733
  br i1 %_9, label %bb3, label %bb4, !dbg !733

bb1:                                              ; preds = %start
; call core::slice::index::slice_index_order_fail
  call void @_ZN4core5slice5index22slice_index_order_fail17ha5ea6a931f940f05E(i64 %self.0, i64 %self.1, %"core::panic::location::Location"* align 8 %0) #13, !dbg !734
  unreachable, !dbg !734

bb4:                                              ; preds = %bb2
; call <core::ops::range::Range<usize> as core::slice::index::SliceIndex<[T]>>::get_unchecked
  %5 = call { [0 x i8]*, i64 } @"_ZN106_$LT$core..ops..range..Range$LT$usize$GT$$u20$as$u20$core..slice..index..SliceIndex$LT$$u5b$T$u5d$$GT$$GT$13get_unchecked17h9d136ce8922c21e5E"(i64 %self.0, i64 %self.1, [0 x i8]* %slice.0, i64 %slice.1), !dbg !735
  %_17.0 = extractvalue { [0 x i8]*, i64 } %5, 0, !dbg !735
  %_17.1 = extractvalue { [0 x i8]*, i64 } %5, 1, !dbg !735
  br label %bb5, !dbg !735

bb3:                                              ; preds = %bb2
; call core::slice::index::slice_end_index_len_fail
  call void @_ZN4core5slice5index24slice_end_index_len_fail17hc132699ea07ad3eeE(i64 %self.1, i64 %slice.1, %"core::panic::location::Location"* align 8 %0) #13, !dbg !736
  unreachable, !dbg !736

bb5:                                              ; preds = %bb4
  %6 = insertvalue { [0 x i8]*, i64 } undef, [0 x i8]* %_17.0, 0, !dbg !737
  %7 = insertvalue { [0 x i8]*, i64 } %6, i64 %_17.1, 1, !dbg !737
  ret { [0 x i8]*, i64 } %7, !dbg !737
}

; <core::ops::range::Range<usize> as core::slice::index::SliceIndex<[T]>>::index_mut
; Function Attrs: inlinehint nonlazybind uwtable
define internal { [0 x i8]*, i64 } @"_ZN106_$LT$core..ops..range..Range$LT$usize$GT$$u20$as$u20$core..slice..index..SliceIndex$LT$$u5b$T$u5d$$GT$$GT$9index_mut17h1b84960ea31d92f6E"(i64 %self.0, i64 %self.1, [0 x i8]* align 1 %slice.0, i64 %slice.1, %"core::panic::location::Location"* align 8 %0) unnamed_addr #0 !dbg !738 {
start:
  %slice.dbg.spill = alloca { [0 x i8]*, i64 }, align 8
  %self.dbg.spill = alloca { i64, i64 }, align 8
  %1 = getelementptr inbounds { i64, i64 }, { i64, i64 }* %self.dbg.spill, i32 0, i32 0
  store i64 %self.0, i64* %1, align 8
  %2 = getelementptr inbounds { i64, i64 }, { i64, i64 }* %self.dbg.spill, i32 0, i32 1
  store i64 %self.1, i64* %2, align 8
  call void @llvm.dbg.declare(metadata { i64, i64 }* %self.dbg.spill, metadata !746, metadata !DIExpression()), !dbg !748
  %3 = getelementptr inbounds { [0 x i8]*, i64 }, { [0 x i8]*, i64 }* %slice.dbg.spill, i32 0, i32 0
  store [0 x i8]* %slice.0, [0 x i8]** %3, align 8
  %4 = getelementptr inbounds { [0 x i8]*, i64 }, { [0 x i8]*, i64 }* %slice.dbg.spill, i32 0, i32 1
  store i64 %slice.1, i64* %4, align 8
  call void @llvm.dbg.declare(metadata { [0 x i8]*, i64 }* %slice.dbg.spill, metadata !747, metadata !DIExpression()), !dbg !749
  %_4 = icmp ugt i64 %self.0, %self.1, !dbg !750
  br i1 %_4, label %bb1, label %bb2, !dbg !750

bb2:                                              ; preds = %start
  %_10 = icmp ugt i64 %self.1, %slice.1, !dbg !751
  br i1 %_10, label %bb3, label %bb4, !dbg !751

bb1:                                              ; preds = %start
; call core::slice::index::slice_index_order_fail
  call void @_ZN4core5slice5index22slice_index_order_fail17ha5ea6a931f940f05E(i64 %self.0, i64 %self.1, %"core::panic::location::Location"* align 8 %0) #13, !dbg !752
  unreachable, !dbg !752

bb4:                                              ; preds = %bb2
; call <core::ops::range::Range<usize> as core::slice::index::SliceIndex<[T]>>::get_unchecked_mut
  %5 = call { [0 x i8]*, i64 } @"_ZN106_$LT$core..ops..range..Range$LT$usize$GT$$u20$as$u20$core..slice..index..SliceIndex$LT$$u5b$T$u5d$$GT$$GT$17get_unchecked_mut17h9de8d6dfe2aeb7bdE"(i64 %self.0, i64 %self.1, [0 x i8]* %slice.0, i64 %slice.1), !dbg !753
  %_20.0 = extractvalue { [0 x i8]*, i64 } %5, 0, !dbg !753
  %_20.1 = extractvalue { [0 x i8]*, i64 } %5, 1, !dbg !753
  br label %bb5, !dbg !753

bb3:                                              ; preds = %bb2
; call core::slice::index::slice_end_index_len_fail
  call void @_ZN4core5slice5index24slice_end_index_len_fail17hc132699ea07ad3eeE(i64 %self.1, i64 %slice.1, %"core::panic::location::Location"* align 8 %0) #13, !dbg !754
  unreachable, !dbg !754

bb5:                                              ; preds = %bb4
  %6 = insertvalue { [0 x i8]*, i64 } undef, [0 x i8]* %_20.0, 0, !dbg !755
  %7 = insertvalue { [0 x i8]*, i64 } %6, i64 %_20.1, 1, !dbg !755
  ret { [0 x i8]*, i64 } %7, !dbg !755
}

; <alloc::collections::btree::map::BTreeMap<K,V,A> as core::iter::traits::collect::IntoIterator>::into_iter
; Function Attrs: nonlazybind uwtable
define internal void @"_ZN119_$LT$alloc..collections..btree..map..BTreeMap$LT$K$C$V$C$A$GT$$u20$as$u20$core..iter..traits..collect..IntoIterator$GT$9into_iter17h63bbbec36ab9d88cE"(%"alloc::collections::btree::map::IntoIter<std::ffi::os_str::OsString, core::option::Option<std::ffi::os_str::OsString>>"* sret(%"alloc::collections::btree::map::IntoIter<std::ffi::os_str::OsString, core::option::Option<std::ffi::os_str::OsString>>") %0, %"alloc::collections::btree::map::BTreeMap<std::ffi::os_str::OsString, core::option::Option<std::ffi::os_str::OsString>>"* %self) unnamed_addr #1 !dbg !756 {
start:
  %self.dbg.spill14 = alloca %"core::mem::maybe_uninit::MaybeUninit<alloc::alloc::Global>"*, align 8
  %src.dbg.spill13 = alloca %"alloc::alloc::Global"*, align 8
  %slot.dbg.spill12 = alloca %"core::mem::manually_drop::ManuallyDrop<alloc::alloc::Global>"*, align 8
  %self.dbg.spill11 = alloca %"core::mem::manually_drop::ManuallyDrop<alloc::collections::btree::map::BTreeMap<std::ffi::os_str::OsString, core::option::Option<std::ffi::os_str::OsString>>>"*, align 8
  %self.dbg.spill10 = alloca %"core::mem::manually_drop::ManuallyDrop<alloc::collections::btree::map::BTreeMap<std::ffi::os_str::OsString, core::option::Option<std::ffi::os_str::OsString>>>"*, align 8
  %root.dbg.spill = alloca { i64, i64* }, align 8
  %self.dbg.spill9 = alloca %"core::mem::maybe_uninit::MaybeUninit<alloc::alloc::Global>"*, align 8
  %src.dbg.spill = alloca %"alloc::alloc::Global"*, align 8
  %slot.dbg.spill8 = alloca %"core::mem::manually_drop::ManuallyDrop<alloc::alloc::Global>"*, align 8
  %self.dbg.spill7 = alloca %"core::mem::manually_drop::ManuallyDrop<alloc::collections::btree::map::BTreeMap<std::ffi::os_str::OsString, core::option::Option<std::ffi::os_str::OsString>>>"*, align 8
  %self.dbg.spill6 = alloca { i64, i64* }*, align 8
  %self.dbg.spill4 = alloca %"core::mem::manually_drop::ManuallyDrop<alloc::collections::btree::map::BTreeMap<std::ffi::os_str::OsString, core::option::Option<std::ffi::os_str::OsString>>>"*, align 8
  %slot.dbg.spill3 = alloca %"core::mem::manually_drop::ManuallyDrop<alloc::alloc::Global>", align 1
  %self.dbg.spill2 = alloca %"core::mem::maybe_uninit::MaybeUninit<alloc::alloc::Global>", align 1
  %slot.dbg.spill = alloca %"core::mem::manually_drop::ManuallyDrop<alloc::alloc::Global>", align 1
  %self.dbg.spill = alloca %"core::mem::maybe_uninit::MaybeUninit<alloc::alloc::Global>", align 1
  %tmp1 = alloca %"core::mem::maybe_uninit::MaybeUninit<alloc::alloc::Global>", align 1
  %tmp = alloca %"core::mem::maybe_uninit::MaybeUninit<alloc::alloc::Global>", align 1
  %_32 = alloca { i64, i64* }, align 8
  %_28 = alloca %"alloc::collections::btree::map::BTreeMap<std::ffi::os_str::OsString, core::option::Option<std::ffi::os_str::OsString>>", align 8
  %_22 = alloca %"alloc::collections::btree::navigate::LazyLeafRange<alloc::collections::btree::node::marker::Dying, std::ffi::os_str::OsString, core::option::Option<std::ffi::os_str::OsString>>", align 8
  %_13 = alloca %"alloc::collections::btree::navigate::LazyLeafRange<alloc::collections::btree::node::marker::Dying, std::ffi::os_str::OsString, core::option::Option<std::ffi::os_str::OsString>>", align 8
  %full_range = alloca %"alloc::collections::btree::navigate::LazyLeafRange<alloc::collections::btree::node::marker::Dying, std::ffi::os_str::OsString, core::option::Option<std::ffi::os_str::OsString>>", align 8
  %_4 = alloca { i64, i64* }, align 8
  %value = alloca %"alloc::collections::btree::map::BTreeMap<std::ffi::os_str::OsString, core::option::Option<std::ffi::os_str::OsString>>", align 8
  %me = alloca %"core::mem::manually_drop::ManuallyDrop<alloc::collections::btree::map::BTreeMap<std::ffi::os_str::OsString, core::option::Option<std::ffi::os_str::OsString>>>", align 8
  call void @llvm.dbg.declare(metadata %"alloc::collections::btree::map::BTreeMap<std::ffi::os_str::OsString, core::option::Option<std::ffi::os_str::OsString>>"* %self, metadata !989, metadata !DIExpression()), !dbg !1001
  call void @llvm.dbg.declare(metadata %"core::mem::manually_drop::ManuallyDrop<alloc::collections::btree::map::BTreeMap<std::ffi::os_str::OsString, core::option::Option<std::ffi::os_str::OsString>>>"* %me, metadata !990, metadata !DIExpression()), !dbg !1002
  call void @llvm.dbg.declare(metadata %"alloc::collections::btree::map::BTreeMap<std::ffi::os_str::OsString, core::option::Option<std::ffi::os_str::OsString>>"* %value, metadata !1003, metadata !DIExpression()), !dbg !1010
  call void @llvm.dbg.declare(metadata %"alloc::collections::btree::navigate::LazyLeafRange<alloc::collections::btree::node::marker::Dying, std::ffi::os_str::OsString, core::option::Option<std::ffi::os_str::OsString>>"* %full_range, metadata !999, metadata !DIExpression()), !dbg !1012
  call void @llvm.dbg.declare(metadata %"core::mem::maybe_uninit::MaybeUninit<alloc::alloc::Global>"* %tmp, metadata !1013, metadata !DIExpression()), !dbg !1027
  call void @llvm.dbg.declare(metadata %"core::mem::maybe_uninit::MaybeUninit<alloc::alloc::Global>"* %self.dbg.spill, metadata !1037, metadata !DIExpression()), !dbg !1044
  call void @llvm.dbg.declare(metadata %"core::mem::manually_drop::ManuallyDrop<alloc::alloc::Global>"* %slot.dbg.spill, metadata !1046, metadata !DIExpression()), !dbg !1052
  call void @llvm.dbg.declare(metadata %"core::mem::maybe_uninit::MaybeUninit<alloc::alloc::Global>"* %tmp1, metadata !1054, metadata !DIExpression()), !dbg !1061
  call void @llvm.dbg.declare(metadata %"core::mem::maybe_uninit::MaybeUninit<alloc::alloc::Global>"* %self.dbg.spill2, metadata !1068, metadata !DIExpression()), !dbg !1072
  call void @llvm.dbg.declare(metadata %"core::mem::manually_drop::ManuallyDrop<alloc::alloc::Global>"* %slot.dbg.spill3, metadata !1074, metadata !DIExpression()), !dbg !1078
  %1 = bitcast %"alloc::collections::btree::map::BTreeMap<std::ffi::os_str::OsString, core::option::Option<std::ffi::os_str::OsString>>"* %value to i8*, !dbg !1080
  %2 = bitcast %"alloc::collections::btree::map::BTreeMap<std::ffi::os_str::OsString, core::option::Option<std::ffi::os_str::OsString>>"* %self to i8*, !dbg !1080
  call void @llvm.memcpy.p0i8.p0i8.i64(i8* align 8 %1, i8* align 8 %2, i64 24, i1 false), !dbg !1080
  %3 = bitcast %"alloc::collections::btree::map::BTreeMap<std::ffi::os_str::OsString, core::option::Option<std::ffi::os_str::OsString>>"* %_28 to i8*, !dbg !1010
  %4 = bitcast %"alloc::collections::btree::map::BTreeMap<std::ffi::os_str::OsString, core::option::Option<std::ffi::os_str::OsString>>"* %value to i8*, !dbg !1010
  call void @llvm.memcpy.p0i8.p0i8.i64(i8* align 8 %3, i8* align 8 %4, i64 24, i1 false), !dbg !1010
  %5 = bitcast %"core::mem::manually_drop::ManuallyDrop<alloc::collections::btree::map::BTreeMap<std::ffi::os_str::OsString, core::option::Option<std::ffi::os_str::OsString>>>"* %me to %"alloc::collections::btree::map::BTreeMap<std::ffi::os_str::OsString, core::option::Option<std::ffi::os_str::OsString>>"*, !dbg !1010
  %6 = bitcast %"alloc::collections::btree::map::BTreeMap<std::ffi::os_str::OsString, core::option::Option<std::ffi::os_str::OsString>>"* %5 to i8*, !dbg !1010
  %7 = bitcast %"alloc::collections::btree::map::BTreeMap<std::ffi::os_str::OsString, core::option::Option<std::ffi::os_str::OsString>>"* %_28 to i8*, !dbg !1010
  call void @llvm.memcpy.p0i8.p0i8.i64(i8* align 8 %6, i8* align 8 %7, i64 24, i1 false), !dbg !1010
  store %"core::mem::manually_drop::ManuallyDrop<alloc::collections::btree::map::BTreeMap<std::ffi::os_str::OsString, core::option::Option<std::ffi::os_str::OsString>>>"* %me, %"core::mem::manually_drop::ManuallyDrop<alloc::collections::btree::map::BTreeMap<std::ffi::os_str::OsString, core::option::Option<std::ffi::os_str::OsString>>>"** %self.dbg.spill4, align 8, !dbg !1081
  call void @llvm.dbg.declare(metadata %"core::mem::manually_drop::ManuallyDrop<alloc::collections::btree::map::BTreeMap<std::ffi::os_str::OsString, core::option::Option<std::ffi::os_str::OsString>>>"** %self.dbg.spill4, metadata !1082, metadata !DIExpression()), !dbg !1091
  %_30 = bitcast %"core::mem::manually_drop::ManuallyDrop<alloc::collections::btree::map::BTreeMap<std::ffi::os_str::OsString, core::option::Option<std::ffi::os_str::OsString>>>"* %me to %"alloc::collections::btree::map::BTreeMap<std::ffi::os_str::OsString, core::option::Option<std::ffi::os_str::OsString>>"*, !dbg !1091
  %self5 = bitcast %"alloc::collections::btree::map::BTreeMap<std::ffi::os_str::OsString, core::option::Option<std::ffi::os_str::OsString>>"* %_30 to { i64, i64* }*, !dbg !1081
  store { i64, i64* }* %self5, { i64, i64* }** %self.dbg.spill6, align 8, !dbg !1081
  call void @llvm.dbg.declare(metadata { i64, i64* }** %self.dbg.spill6, metadata !1092, metadata !DIExpression()), !dbg !1099
  %8 = getelementptr inbounds { i64, i64* }, { i64, i64* }* %_32, i32 0, i32 1, !dbg !1099
  %9 = bitcast i64** %8 to {}**, !dbg !1099
  store {}* null, {}** %9, align 8, !dbg !1099
  %10 = getelementptr inbounds { i64, i64* }, { i64, i64* }* %_32, i32 0, i32 0, !dbg !1099
  %11 = load i64, i64* %10, align 8, !dbg !1099
  %12 = getelementptr inbounds { i64, i64* }, { i64, i64* }* %_32, i32 0, i32 1, !dbg !1099
  %13 = load i64*, i64** %12, align 8, !dbg !1099
; call core::mem::replace
  %14 = call { i64, i64* } @_ZN4core3mem7replace17h7c7659372023f46fE({ i64, i64* }* align 8 %self5, i64 %11, i64* %13), !dbg !1099
  store { i64, i64* } %14, { i64, i64* }* %_4, align 8, !dbg !1099
  br label %bb7, !dbg !1099

bb7:                                              ; preds = %start
  %15 = getelementptr inbounds { i64, i64* }, { i64, i64* }* %_4, i32 0, i32 1, !dbg !1100
  %16 = bitcast i64** %15 to {}**, !dbg !1100
  %17 = load {}*, {}** %16, align 8, !dbg !1100
  %18 = icmp eq {}* %17, null, !dbg !1100
  %_8 = select i1 %18, i64 0, i64 1, !dbg !1100
  %19 = icmp eq i64 %_8, 1, !dbg !1100
  br i1 %19, label %bb1, label %bb4, !dbg !1100

bb1:                                              ; preds = %bb7
  %20 = getelementptr inbounds { i64, i64* }, { i64, i64* }* %_4, i32 0, i32 0, !dbg !1101
  %root.0 = load i64, i64* %20, align 8, !dbg !1101
  %21 = getelementptr inbounds { i64, i64* }, { i64, i64* }* %_4, i32 0, i32 1, !dbg !1101
  %root.1 = load i64*, i64** %21, align 8, !dbg !1101, !nonnull !23, !noundef !23
  %22 = getelementptr inbounds { i64, i64* }, { i64, i64* }* %root.dbg.spill, i32 0, i32 0, !dbg !1101
  store i64 %root.0, i64* %22, align 8, !dbg !1101
  %23 = getelementptr inbounds { i64, i64* }, { i64, i64* }* %root.dbg.spill, i32 0, i32 1, !dbg !1101
  store i64* %root.1, i64** %23, align 8, !dbg !1101
  call void @llvm.dbg.declare(metadata { i64, i64* }* %root.dbg.spill, metadata !997, metadata !DIExpression()), !dbg !1101
; call alloc::collections::btree::node::NodeRef<alloc::collections::btree::node::marker::Owned,K,V,Type>::into_dying
  %24 = call { i64, i64* } @"_ZN5alloc11collections5btree4node76NodeRef$LT$alloc..collections..btree..node..marker..Owned$C$K$C$V$C$Type$GT$10into_dying17hbd337d4bb8f4af54E"(i64 %root.0, i64* %root.1), !dbg !1102
  %_11.0 = extractvalue { i64, i64* } %24, 0, !dbg !1102
  %_11.1 = extractvalue { i64, i64* } %24, 1, !dbg !1102
  br label %bb2, !dbg !1102

bb4:                                              ; preds = %bb7
; call alloc::collections::btree::navigate::LazyLeafRange<BorrowType,K,V>::none
  call void @"_ZN5alloc11collections5btree8navigate39LazyLeafRange$LT$BorrowType$C$K$C$V$GT$4none17hdc81b316ffbdeae7E"(%"alloc::collections::btree::navigate::LazyLeafRange<alloc::collections::btree::node::marker::Dying, std::ffi::os_str::OsString, core::option::Option<std::ffi::os_str::OsString>>"* sret(%"alloc::collections::btree::navigate::LazyLeafRange<alloc::collections::btree::node::marker::Dying, std::ffi::os_str::OsString, core::option::Option<std::ffi::os_str::OsString>>") %_22), !dbg !1103
  br label %bb5, !dbg !1103

bb5:                                              ; preds = %bb4
  store %"core::mem::manually_drop::ManuallyDrop<alloc::collections::btree::map::BTreeMap<std::ffi::os_str::OsString, core::option::Option<std::ffi::os_str::OsString>>>"* %me, %"core::mem::manually_drop::ManuallyDrop<alloc::collections::btree::map::BTreeMap<std::ffi::os_str::OsString, core::option::Option<std::ffi::os_str::OsString>>>"** %self.dbg.spill7, align 8, !dbg !1104
  call void @llvm.dbg.declare(metadata %"core::mem::manually_drop::ManuallyDrop<alloc::collections::btree::map::BTreeMap<std::ffi::os_str::OsString, core::option::Option<std::ffi::os_str::OsString>>>"** %self.dbg.spill7, metadata !1105, metadata !DIExpression()), !dbg !1109
  %_48 = bitcast %"core::mem::manually_drop::ManuallyDrop<alloc::collections::btree::map::BTreeMap<std::ffi::os_str::OsString, core::option::Option<std::ffi::os_str::OsString>>>"* %me to %"alloc::collections::btree::map::BTreeMap<std::ffi::os_str::OsString, core::option::Option<std::ffi::os_str::OsString>>"*, !dbg !1109
  %_25 = bitcast %"alloc::collections::btree::map::BTreeMap<std::ffi::os_str::OsString, core::option::Option<std::ffi::os_str::OsString>>"* %_48 to %"core::mem::manually_drop::ManuallyDrop<alloc::alloc::Global>"*, !dbg !1110
  store %"core::mem::manually_drop::ManuallyDrop<alloc::alloc::Global>"* %_25, %"core::mem::manually_drop::ManuallyDrop<alloc::alloc::Global>"** %slot.dbg.spill8, align 8, !dbg !1110
  call void @llvm.dbg.declare(metadata %"core::mem::manually_drop::ManuallyDrop<alloc::alloc::Global>"** %slot.dbg.spill8, metadata !1065, metadata !DIExpression()), !dbg !1111
  %_50 = bitcast %"core::mem::manually_drop::ManuallyDrop<alloc::alloc::Global>"* %_25 to %"alloc::alloc::Global"*, !dbg !1111
  store %"alloc::alloc::Global"* %_50, %"alloc::alloc::Global"** %src.dbg.spill, align 8, !dbg !1111
  call void @llvm.dbg.declare(metadata %"alloc::alloc::Global"** %src.dbg.spill, metadata !1059, metadata !DIExpression()), !dbg !1112
  %25 = bitcast %"core::mem::maybe_uninit::MaybeUninit<alloc::alloc::Global>"* %tmp1 to {}*, !dbg !1113
  store %"core::mem::maybe_uninit::MaybeUninit<alloc::alloc::Global>"* %tmp1, %"core::mem::maybe_uninit::MaybeUninit<alloc::alloc::Global>"** %self.dbg.spill9, align 8, !dbg !1061
  call void @llvm.dbg.declare(metadata %"core::mem::maybe_uninit::MaybeUninit<alloc::alloc::Global>"** %self.dbg.spill9, metadata !1117, metadata !DIExpression()), !dbg !1125
  %_53 = bitcast %"core::mem::maybe_uninit::MaybeUninit<alloc::alloc::Global>"* %tmp1 to %"alloc::alloc::Global"*, !dbg !1125
  %26 = bitcast %"alloc::alloc::Global"* %_53 to i8*, !dbg !1061
  %27 = bitcast %"alloc::alloc::Global"* %_50 to i8*, !dbg !1061
  call void @llvm.memcpy.p0i8.p0i8.i64(i8* align 1 %26, i8* align 1 %27, i64 0, i1 false), !dbg !1061
  br label %bb9, !dbg !1072

bb9:                                              ; preds = %bb5
  %28 = bitcast %"alloc::collections::btree::map::IntoIter<std::ffi::os_str::OsString, core::option::Option<std::ffi::os_str::OsString>>"* %0 to %"alloc::collections::btree::navigate::LazyLeafRange<alloc::collections::btree::node::marker::Dying, std::ffi::os_str::OsString, core::option::Option<std::ffi::os_str::OsString>>"*, !dbg !1127
  %29 = bitcast %"alloc::collections::btree::navigate::LazyLeafRange<alloc::collections::btree::node::marker::Dying, std::ffi::os_str::OsString, core::option::Option<std::ffi::os_str::OsString>>"* %28 to i8*, !dbg !1127
  %30 = bitcast %"alloc::collections::btree::navigate::LazyLeafRange<alloc::collections::btree::node::marker::Dying, std::ffi::os_str::OsString, core::option::Option<std::ffi::os_str::OsString>>"* %_22 to i8*, !dbg !1127
  call void @llvm.memcpy.p0i8.p0i8.i64(i8* align 8 %29, i8* align 8 %30, i64 64, i1 false), !dbg !1127
  %31 = getelementptr inbounds %"alloc::collections::btree::map::IntoIter<std::ffi::os_str::OsString, core::option::Option<std::ffi::os_str::OsString>>", %"alloc::collections::btree::map::IntoIter<std::ffi::os_str::OsString, core::option::Option<std::ffi::os_str::OsString>>"* %0, i32 0, i32 2, !dbg !1127
  store i64 0, i64* %31, align 8, !dbg !1127
  %32 = bitcast %"alloc::collections::btree::map::IntoIter<std::ffi::os_str::OsString, core::option::Option<std::ffi::os_str::OsString>>"* %0 to %"alloc::alloc::Global"*, !dbg !1127
  br label %bb6, !dbg !1128

bb6:                                              ; preds = %bb8, %bb9
  ret void, !dbg !1129

bb2:                                              ; preds = %bb1
; call alloc::collections::btree::navigate::<impl alloc::collections::btree::node::NodeRef<alloc::collections::btree::node::marker::Dying,K,V,alloc::collections::btree::node::marker::LeafOrInternal>>::full_range
  call void @"_ZN5alloc11collections5btree8navigate178_$LT$impl$u20$alloc..collections..btree..node..NodeRef$LT$alloc..collections..btree..node..marker..Dying$C$K$C$V$C$alloc..collections..btree..node..marker..LeafOrInternal$GT$$GT$10full_range17he03f8479fed0ee14E"(%"alloc::collections::btree::navigate::LazyLeafRange<alloc::collections::btree::node::marker::Dying, std::ffi::os_str::OsString, core::option::Option<std::ffi::os_str::OsString>>"* sret(%"alloc::collections::btree::navigate::LazyLeafRange<alloc::collections::btree::node::marker::Dying, std::ffi::os_str::OsString, core::option::Option<std::ffi::os_str::OsString>>") %full_range, i64 %_11.0, i64* %_11.1), !dbg !1102
  br label %bb3, !dbg !1102

bb3:                                              ; preds = %bb2
  %33 = bitcast %"alloc::collections::btree::navigate::LazyLeafRange<alloc::collections::btree::node::marker::Dying, std::ffi::os_str::OsString, core::option::Option<std::ffi::os_str::OsString>>"* %_13 to i8*, !dbg !1130
  %34 = bitcast %"alloc::collections::btree::navigate::LazyLeafRange<alloc::collections::btree::node::marker::Dying, std::ffi::os_str::OsString, core::option::Option<std::ffi::os_str::OsString>>"* %full_range to i8*, !dbg !1130
  call void @llvm.memcpy.p0i8.p0i8.i64(i8* align 8 %33, i8* align 8 %34, i64 64, i1 false), !dbg !1130
  store %"core::mem::manually_drop::ManuallyDrop<alloc::collections::btree::map::BTreeMap<std::ffi::os_str::OsString, core::option::Option<std::ffi::os_str::OsString>>>"* %me, %"core::mem::manually_drop::ManuallyDrop<alloc::collections::btree::map::BTreeMap<std::ffi::os_str::OsString, core::option::Option<std::ffi::os_str::OsString>>>"** %self.dbg.spill10, align 8, !dbg !1131
  call void @llvm.dbg.declare(metadata %"core::mem::manually_drop::ManuallyDrop<alloc::collections::btree::map::BTreeMap<std::ffi::os_str::OsString, core::option::Option<std::ffi::os_str::OsString>>>"** %self.dbg.spill10, metadata !1132, metadata !DIExpression()), !dbg !1141
  %_15 = bitcast %"core::mem::manually_drop::ManuallyDrop<alloc::collections::btree::map::BTreeMap<std::ffi::os_str::OsString, core::option::Option<std::ffi::os_str::OsString>>>"* %me to %"alloc::collections::btree::map::BTreeMap<std::ffi::os_str::OsString, core::option::Option<std::ffi::os_str::OsString>>"*, !dbg !1141
  %35 = getelementptr inbounds %"alloc::collections::btree::map::BTreeMap<std::ffi::os_str::OsString, core::option::Option<std::ffi::os_str::OsString>>", %"alloc::collections::btree::map::BTreeMap<std::ffi::os_str::OsString, core::option::Option<std::ffi::os_str::OsString>>"* %_15, i32 0, i32 3, !dbg !1131
  %_14 = load i64, i64* %35, align 8, !dbg !1131
  store %"core::mem::manually_drop::ManuallyDrop<alloc::collections::btree::map::BTreeMap<std::ffi::os_str::OsString, core::option::Option<std::ffi::os_str::OsString>>>"* %me, %"core::mem::manually_drop::ManuallyDrop<alloc::collections::btree::map::BTreeMap<std::ffi::os_str::OsString, core::option::Option<std::ffi::os_str::OsString>>>"** %self.dbg.spill11, align 8, !dbg !1142
  call void @llvm.dbg.declare(metadata %"core::mem::manually_drop::ManuallyDrop<alloc::collections::btree::map::BTreeMap<std::ffi::os_str::OsString, core::option::Option<std::ffi::os_str::OsString>>>"** %self.dbg.spill11, metadata !1143, metadata !DIExpression()), !dbg !1147
  %_34 = bitcast %"core::mem::manually_drop::ManuallyDrop<alloc::collections::btree::map::BTreeMap<std::ffi::os_str::OsString, core::option::Option<std::ffi::os_str::OsString>>>"* %me to %"alloc::collections::btree::map::BTreeMap<std::ffi::os_str::OsString, core::option::Option<std::ffi::os_str::OsString>>"*, !dbg !1147
  %_19 = bitcast %"alloc::collections::btree::map::BTreeMap<std::ffi::os_str::OsString, core::option::Option<std::ffi::os_str::OsString>>"* %_34 to %"core::mem::manually_drop::ManuallyDrop<alloc::alloc::Global>"*, !dbg !1148
  store %"core::mem::manually_drop::ManuallyDrop<alloc::alloc::Global>"* %_19, %"core::mem::manually_drop::ManuallyDrop<alloc::alloc::Global>"** %slot.dbg.spill12, align 8, !dbg !1148
  call void @llvm.dbg.declare(metadata %"core::mem::manually_drop::ManuallyDrop<alloc::alloc::Global>"** %slot.dbg.spill12, metadata !1034, metadata !DIExpression()), !dbg !1149
  %_36 = bitcast %"core::mem::manually_drop::ManuallyDrop<alloc::alloc::Global>"* %_19 to %"alloc::alloc::Global"*, !dbg !1149
  store %"alloc::alloc::Global"* %_36, %"alloc::alloc::Global"** %src.dbg.spill13, align 8, !dbg !1149
  call void @llvm.dbg.declare(metadata %"alloc::alloc::Global"** %src.dbg.spill13, metadata !1021, metadata !DIExpression()), !dbg !1150
  %36 = bitcast %"core::mem::maybe_uninit::MaybeUninit<alloc::alloc::Global>"* %tmp to {}*, !dbg !1151
  store %"core::mem::maybe_uninit::MaybeUninit<alloc::alloc::Global>"* %tmp, %"core::mem::maybe_uninit::MaybeUninit<alloc::alloc::Global>"** %self.dbg.spill14, align 8, !dbg !1027
  call void @llvm.dbg.declare(metadata %"core::mem::maybe_uninit::MaybeUninit<alloc::alloc::Global>"** %self.dbg.spill14, metadata !1155, metadata !DIExpression()), !dbg !1159
  %_39 = bitcast %"core::mem::maybe_uninit::MaybeUninit<alloc::alloc::Global>"* %tmp to %"alloc::alloc::Global"*, !dbg !1159
  %37 = bitcast %"alloc::alloc::Global"* %_39 to i8*, !dbg !1027
  %38 = bitcast %"alloc::alloc::Global"* %_36 to i8*, !dbg !1027
  call void @llvm.memcpy.p0i8.p0i8.i64(i8* align 1 %37, i8* align 1 %38, i64 0, i1 false), !dbg !1027
  br label %bb8, !dbg !1044

bb8:                                              ; preds = %bb3
  %39 = bitcast %"alloc::collections::btree::map::IntoIter<std::ffi::os_str::OsString, core::option::Option<std::ffi::os_str::OsString>>"* %0 to %"alloc::collections::btree::navigate::LazyLeafRange<alloc::collections::btree::node::marker::Dying, std::ffi::os_str::OsString, core::option::Option<std::ffi::os_str::OsString>>"*, !dbg !1161
  %40 = bitcast %"alloc::collections::btree::navigate::LazyLeafRange<alloc::collections::btree::node::marker::Dying, std::ffi::os_str::OsString, core::option::Option<std::ffi::os_str::OsString>>"* %39 to i8*, !dbg !1161
  %41 = bitcast %"alloc::collections::btree::navigate::LazyLeafRange<alloc::collections::btree::node::marker::Dying, std::ffi::os_str::OsString, core::option::Option<std::ffi::os_str::OsString>>"* %_13 to i8*, !dbg !1161
  call void @llvm.memcpy.p0i8.p0i8.i64(i8* align 8 %40, i8* align 8 %41, i64 64, i1 false), !dbg !1161
  %42 = getelementptr inbounds %"alloc::collections::btree::map::IntoIter<std::ffi::os_str::OsString, core::option::Option<std::ffi::os_str::OsString>>", %"alloc::collections::btree::map::IntoIter<std::ffi::os_str::OsString, core::option::Option<std::ffi::os_str::OsString>>"* %0, i32 0, i32 2, !dbg !1161
  store i64 %_14, i64* %42, align 8, !dbg !1161
  %43 = bitcast %"alloc::collections::btree::map::IntoIter<std::ffi::os_str::OsString, core::option::Option<std::ffi::os_str::OsString>>"* %0 to %"alloc::alloc::Global"*, !dbg !1161
  br label %bb6, !dbg !1128
}

; <core::ptr::non_null::NonNull<T> as core::convert::From<core::ptr::unique::Unique<T>>>::from
; Function Attrs: inlinehint nonlazybind uwtable
define internal i8* @"_ZN119_$LT$core..ptr..non_null..NonNull$LT$T$GT$$u20$as$u20$core..convert..From$LT$core..ptr..unique..Unique$LT$T$GT$$GT$$GT$4from17h2809d00df9ce7d91E"(i8* %unique) unnamed_addr #0 !dbg !1162 {
start:
  %ptr.dbg.spill = alloca i8*, align 8
  %self.dbg.spill1 = alloca i8*, align 8
  %self.dbg.spill = alloca i8*, align 8
  %unique.dbg.spill = alloca i8*, align 8
  %0 = alloca i8*, align 8
  store i8* %unique, i8** %unique.dbg.spill, align 8
  call void @llvm.dbg.declare(metadata i8** %unique.dbg.spill, metadata !1168, metadata !DIExpression()), !dbg !1169
  store i8* %unique, i8** %self.dbg.spill, align 8, !dbg !1170
  call void @llvm.dbg.declare(metadata i8** %self.dbg.spill, metadata !1171, metadata !DIExpression()), !dbg !1178
  store i8* %unique, i8** %self.dbg.spill1, align 8, !dbg !1178
  call void @llvm.dbg.declare(metadata i8** %self.dbg.spill1, metadata !1179, metadata !DIExpression()), !dbg !1184
  store i8* %unique, i8** %ptr.dbg.spill, align 8, !dbg !1184
  call void @llvm.dbg.declare(metadata i8** %ptr.dbg.spill, metadata !1186, metadata !DIExpression()), !dbg !1191
  store i8* %unique, i8** %0, align 8, !dbg !1191
  %1 = load i8*, i8** %0, align 8, !dbg !1193, !nonnull !23, !noundef !23
  ret i8* %1, !dbg !1193
}

; <<alloc::collections::btree::map::IntoIter<K,V,A> as core::ops::drop::Drop>::drop::DropGuard<K,V,A> as core::ops::drop::Drop>::drop
; Function Attrs: nonlazybind uwtable
define internal void @"_ZN174_$LT$$LT$alloc..collections..btree..map..IntoIter$LT$K$C$V$C$A$GT$$u20$as$u20$core..ops..drop..Drop$GT$..drop..DropGuard$LT$K$C$V$C$A$GT$$u20$as$u20$core..ops..drop..Drop$GT$4drop17hb4b9337863b9157fE"(i64** align 8 %self) unnamed_addr #1 !dbg !1194 {
start:
  %self.dbg.spill = alloca i64**, align 8
  %_7 = alloca %"alloc::collections::btree::node::Handle<alloc::collections::btree::node::NodeRef<alloc::collections::btree::node::marker::Dying, std::ffi::os_str::OsString, core::option::Option<std::ffi::os_str::OsString>, alloc::collections::btree::node::marker::LeafOrInternal>, alloc::collections::btree::node::marker::KV>", align 8
  %kv = alloca %"alloc::collections::btree::node::Handle<alloc::collections::btree::node::NodeRef<alloc::collections::btree::node::marker::Dying, std::ffi::os_str::OsString, core::option::Option<std::ffi::os_str::OsString>, alloc::collections::btree::node::marker::LeafOrInternal>, alloc::collections::btree::node::marker::KV>", align 8
  %_2 = alloca %"core::option::Option<alloc::collections::btree::node::Handle<alloc::collections::btree::node::NodeRef<alloc::collections::btree::node::marker::Dying, std::ffi::os_str::OsString, core::option::Option<std::ffi::os_str::OsString>, alloc::collections::btree::node::marker::LeafOrInternal>, alloc::collections::btree::node::marker::KV>>", align 8
  store i64** %self, i64*** %self.dbg.spill, align 8
  call void @llvm.dbg.declare(metadata i64*** %self.dbg.spill, metadata !1206, metadata !DIExpression()), !dbg !1223
  call void @llvm.dbg.declare(metadata %"alloc::collections::btree::node::Handle<alloc::collections::btree::node::NodeRef<alloc::collections::btree::node::marker::Dying, std::ffi::os_str::OsString, core::option::Option<std::ffi::os_str::OsString>, alloc::collections::btree::node::marker::LeafOrInternal>, alloc::collections::btree::node::marker::KV>"* %kv, metadata !1207, metadata !DIExpression()), !dbg !1224
  br label %bb1, !dbg !1225

bb1:                                              ; preds = %bb4, %start
  %0 = bitcast i64** %self to %"alloc::collections::btree::map::IntoIter<std::ffi::os_str::OsString, core::option::Option<std::ffi::os_str::OsString>>"**, !dbg !1226
  %_8 = load %"alloc::collections::btree::map::IntoIter<std::ffi::os_str::OsString, core::option::Option<std::ffi::os_str::OsString>>"*, %"alloc::collections::btree::map::IntoIter<std::ffi::os_str::OsString, core::option::Option<std::ffi::os_str::OsString>>"** %0, align 8, !dbg !1226, !nonnull !23, !align !266, !noundef !23
; call alloc::collections::btree::map::IntoIter<K,V,A>::dying_next
  call void @"_ZN5alloc11collections5btree3map25IntoIter$LT$K$C$V$C$A$GT$10dying_next17h5edd11815fdeccaaE"(%"core::option::Option<alloc::collections::btree::node::Handle<alloc::collections::btree::node::NodeRef<alloc::collections::btree::node::marker::Dying, std::ffi::os_str::OsString, core::option::Option<std::ffi::os_str::OsString>, alloc::collections::btree::node::marker::LeafOrInternal>, alloc::collections::btree::node::marker::KV>>"* sret(%"core::option::Option<alloc::collections::btree::node::Handle<alloc::collections::btree::node::NodeRef<alloc::collections::btree::node::marker::Dying, std::ffi::os_str::OsString, core::option::Option<std::ffi::os_str::OsString>, alloc::collections::btree::node::marker::LeafOrInternal>, alloc::collections::btree::node::marker::KV>>") %_2, %"alloc::collections::btree::map::IntoIter<std::ffi::os_str::OsString, core::option::Option<std::ffi::os_str::OsString>>"* align 8 %_8), !dbg !1226
  br label %bb2, !dbg !1226

bb2:                                              ; preds = %bb1
  %1 = getelementptr inbounds %"core::option::Option<alloc::collections::btree::node::Handle<alloc::collections::btree::node::NodeRef<alloc::collections::btree::node::marker::Dying, std::ffi::os_str::OsString, core::option::Option<std::ffi::os_str::OsString>, alloc::collections::btree::node::marker::LeafOrInternal>, alloc::collections::btree::node::marker::KV>>", %"core::option::Option<alloc::collections::btree::node::Handle<alloc::collections::btree::node::NodeRef<alloc::collections::btree::node::marker::Dying, std::ffi::os_str::OsString, core::option::Option<std::ffi::os_str::OsString>, alloc::collections::btree::node::marker::LeafOrInternal>, alloc::collections::btree::node::marker::KV>>"* %_2, i32 0, i32 1, !dbg !1227
  %2 = load {}*, {}** %1, align 8, !dbg !1227
  %3 = icmp eq {}* %2, null, !dbg !1227
  %_4 = select i1 %3, i64 0, i64 1, !dbg !1227
  %4 = icmp eq i64 %_4, 1, !dbg !1227
  br i1 %4, label %bb3, label %bb5, !dbg !1227

bb3:                                              ; preds = %bb2
  %5 = bitcast %"core::option::Option<alloc::collections::btree::node::Handle<alloc::collections::btree::node::NodeRef<alloc::collections::btree::node::marker::Dying, std::ffi::os_str::OsString, core::option::Option<std::ffi::os_str::OsString>, alloc::collections::btree::node::marker::LeafOrInternal>, alloc::collections::btree::node::marker::KV>>"* %_2 to %"core::option::Option<alloc::collections::btree::node::Handle<alloc::collections::btree::node::NodeRef<alloc::collections::btree::node::marker::Dying, std::ffi::os_str::OsString, core::option::Option<std::ffi::os_str::OsString>, alloc::collections::btree::node::marker::LeafOrInternal>, alloc::collections::btree::node::marker::KV>>::Some"*, !dbg !1224
  %6 = bitcast %"core::option::Option<alloc::collections::btree::node::Handle<alloc::collections::btree::node::NodeRef<alloc::collections::btree::node::marker::Dying, std::ffi::os_str::OsString, core::option::Option<std::ffi::os_str::OsString>, alloc::collections::btree::node::marker::LeafOrInternal>, alloc::collections::btree::node::marker::KV>>::Some"* %5 to %"alloc::collections::btree::node::Handle<alloc::collections::btree::node::NodeRef<alloc::collections::btree::node::marker::Dying, std::ffi::os_str::OsString, core::option::Option<std::ffi::os_str::OsString>, alloc::collections::btree::node::marker::LeafOrInternal>, alloc::collections::btree::node::marker::KV>"*, !dbg !1224
  %7 = bitcast %"alloc::collections::btree::node::Handle<alloc::collections::btree::node::NodeRef<alloc::collections::btree::node::marker::Dying, std::ffi::os_str::OsString, core::option::Option<std::ffi::os_str::OsString>, alloc::collections::btree::node::marker::LeafOrInternal>, alloc::collections::btree::node::marker::KV>"* %kv to i8*, !dbg !1224
  %8 = bitcast %"alloc::collections::btree::node::Handle<alloc::collections::btree::node::NodeRef<alloc::collections::btree::node::marker::Dying, std::ffi::os_str::OsString, core::option::Option<std::ffi::os_str::OsString>, alloc::collections::btree::node::marker::LeafOrInternal>, alloc::collections::btree::node::marker::KV>"* %6 to i8*, !dbg !1224
  call void @llvm.memcpy.p0i8.p0i8.i64(i8* align 8 %7, i8* align 8 %8, i64 24, i1 false), !dbg !1224
  %9 = bitcast %"alloc::collections::btree::node::Handle<alloc::collections::btree::node::NodeRef<alloc::collections::btree::node::marker::Dying, std::ffi::os_str::OsString, core::option::Option<std::ffi::os_str::OsString>, alloc::collections::btree::node::marker::LeafOrInternal>, alloc::collections::btree::node::marker::KV>"* %_7 to i8*, !dbg !1228
  %10 = bitcast %"alloc::collections::btree::node::Handle<alloc::collections::btree::node::NodeRef<alloc::collections::btree::node::marker::Dying, std::ffi::os_str::OsString, core::option::Option<std::ffi::os_str::OsString>, alloc::collections::btree::node::marker::LeafOrInternal>, alloc::collections::btree::node::marker::KV>"* %kv to i8*, !dbg !1228
  call void @llvm.memcpy.p0i8.p0i8.i64(i8* align 8 %9, i8* align 8 %10, i64 24, i1 false), !dbg !1228
; call alloc::collections::btree::node::Handle<alloc::collections::btree::node::NodeRef<alloc::collections::btree::node::marker::Dying,K,V,NodeType>,alloc::collections::btree::node::marker::KV>::drop_key_val
  call void @"_ZN5alloc11collections5btree4node173Handle$LT$alloc..collections..btree..node..NodeRef$LT$alloc..collections..btree..node..marker..Dying$C$K$C$V$C$NodeType$GT$$C$alloc..collections..btree..node..marker..KV$GT$12drop_key_val17hb6ff95aa140b6c31E"(%"alloc::collections::btree::node::Handle<alloc::collections::btree::node::NodeRef<alloc::collections::btree::node::marker::Dying, std::ffi::os_str::OsString, core::option::Option<std::ffi::os_str::OsString>, alloc::collections::btree::node::marker::LeafOrInternal>, alloc::collections::btree::node::marker::KV>"* %_7), !dbg !1228
  br label %bb4, !dbg !1228

bb5:                                              ; preds = %bb2
  ret void, !dbg !1229

bb4:                                              ; preds = %bb3
  br label %bb1, !dbg !1225
}

; std::sys_common::backtrace::__rust_begin_short_backtrace
; Function Attrs: noinline nonlazybind uwtable
define internal void @_ZN3std10sys_common9backtrace28__rust_begin_short_backtrace17h041132f6fb8d3930E(void ()* %f) unnamed_addr #2 personality i32 (i32, i32, i64, %"unwind::libunwind::_Unwind_Exception"*, %"unwind::libunwind::_Unwind_Context"*)* @rust_eh_personality !dbg !1230 {
start:
  %0 = alloca { i8*, i32 }, align 8
  %dummy.dbg.spill = alloca {}, align 1
  %f.dbg.spill = alloca void ()*, align 8
  %result.dbg.spill = alloca {}, align 1
  call void @llvm.dbg.declare(metadata {}* %result.dbg.spill, metadata !1238, metadata !DIExpression()), !dbg !1243
  store void ()* %f, void ()** %f.dbg.spill, align 8
  call void @llvm.dbg.declare(metadata void ()** %f.dbg.spill, metadata !1237, metadata !DIExpression()), !dbg !1244
  call void @llvm.dbg.declare(metadata {}* %dummy.dbg.spill, metadata !1245, metadata !DIExpression()), !dbg !1254
; call core::ops::function::FnOnce::call_once
  call void @_ZN4core3ops8function6FnOnce9call_once17h1b03168cb9760b3aE(void ()* %f), !dbg !1256
  br label %bb1, !dbg !1256

bb1:                                              ; preds = %start
  call void asm sideeffect "", "r,~{memory}"({}* undef), !dbg !1254, !srcloc !1257
  br label %bb4, !dbg !1254

bb4:                                              ; preds = %bb1
  ret void, !dbg !1258

bb2:                                              ; No predecessors!
  br label %bb3, !dbg !1259

bb3:                                              ; preds = %bb2
  %1 = bitcast { i8*, i32 }* %0 to i8**, !dbg !1260
  %2 = load i8*, i8** %1, align 8, !dbg !1260
  %3 = getelementptr inbounds { i8*, i32 }, { i8*, i32 }* %0, i32 0, i32 1, !dbg !1260
  %4 = load i32, i32* %3, align 8, !dbg !1260
  %5 = insertvalue { i8*, i32 } undef, i8* %2, 0, !dbg !1260
  %6 = insertvalue { i8*, i32 } %5, i32 %4, 1, !dbg !1260
  resume { i8*, i32 } %6, !dbg !1260
}

; std::fs::DirBuilder::create
; Function Attrs: nonlazybind uwtable
define internal i8* @_ZN3std2fs10DirBuilder6create17h5bd843cb81574630E({ i32, i8 }* align 4 %self, %"std::path::Path"* align 1 %0, i64 %1) unnamed_addr #1 personality i32 (i32, i32, i64, %"unwind::libunwind::_Unwind_Exception"*, %"unwind::libunwind::_Unwind_Context"*)* @rust_eh_personality !dbg !1261 {
start:
  %2 = alloca { i8*, i32 }, align 8
  %self.dbg.spill = alloca { i32, i8 }*, align 8
  %path = alloca { %"std::path::Path"*, i64 }, align 8
  %3 = getelementptr inbounds { %"std::path::Path"*, i64 }, { %"std::path::Path"*, i64 }* %path, i32 0, i32 0
  store %"std::path::Path"* %0, %"std::path::Path"** %3, align 8
  %4 = getelementptr inbounds { %"std::path::Path"*, i64 }, { %"std::path::Path"*, i64 }* %path, i32 0, i32 1
  store i64 %1, i64* %4, align 8
  store { i32, i8 }* %self, { i32, i8 }** %self.dbg.spill, align 8
  call void @llvm.dbg.declare(metadata { i32, i8 }** %self.dbg.spill, metadata !1366, metadata !DIExpression()), !dbg !1370
  call void @llvm.dbg.declare(metadata { %"std::path::Path"*, i64 }* %path, metadata !1367, metadata !DIExpression()), !dbg !1371
; invoke <&T as core::convert::AsRef<U>>::as_ref
  %5 = invoke { %"std::path::Path"*, i64 } @"_ZN55_$LT$$RF$T$u20$as$u20$core..convert..AsRef$LT$U$GT$$GT$6as_ref17hacb4abbfc21366e1E"({ %"std::path::Path"*, i64 }* align 8 %path)
          to label %bb1 unwind label %cleanup, !dbg !1372

bb4:                                              ; preds = %cleanup
  br label %bb5, !dbg !1373

cleanup:                                          ; preds = %bb1, %start
  %6 = landingpad { i8*, i32 }
          cleanup
  %7 = extractvalue { i8*, i32 } %6, 0
  %8 = extractvalue { i8*, i32 } %6, 1
  %9 = getelementptr inbounds { i8*, i32 }, { i8*, i32 }* %2, i32 0, i32 0
  store i8* %7, i8** %9, align 8
  %10 = getelementptr inbounds { i8*, i32 }, { i8*, i32 }* %2, i32 0, i32 1
  store i32 %8, i32* %10, align 8
  br label %bb4

bb1:                                              ; preds = %start
  %_5.0 = extractvalue { %"std::path::Path"*, i64 } %5, 0, !dbg !1372
  %_5.1 = extractvalue { %"std::path::Path"*, i64 } %5, 1, !dbg !1372
; invoke std::fs::DirBuilder::_create
  %11 = invoke i8* @_ZN3std2fs10DirBuilder7_create17h8966dddc0e9cf523E({ i32, i8 }* align 4 %self, %"std::path::Path"* align 1 %_5.0, i64 %_5.1)
          to label %bb2 unwind label %cleanup, !dbg !1374

bb2:                                              ; preds = %bb1
  br label %bb3, !dbg !1373

bb5:                                              ; preds = %bb4
  %12 = bitcast { i8*, i32 }* %2 to i8**, !dbg !1375
  %13 = load i8*, i8** %12, align 8, !dbg !1375
  %14 = getelementptr inbounds { i8*, i32 }, { i8*, i32 }* %2, i32 0, i32 1, !dbg !1375
  %15 = load i32, i32* %14, align 8, !dbg !1375
  %16 = insertvalue { i8*, i32 } undef, i8* %13, 0, !dbg !1375
  %17 = insertvalue { i8*, i32 } %16, i32 %15, 1, !dbg !1375
  resume { i8*, i32 } %17, !dbg !1375

bb3:                                              ; preds = %bb2
  ret i8* %11, !dbg !1376
}

; std::fs::create_dir
; Function Attrs: nonlazybind uwtable
define internal i8* @_ZN3std2fs10create_dir17h873981533c4e1b26E(%"std::path::PathBuf"* align 8 %0) unnamed_addr #1 personality i32 (i32, i32, i64, %"unwind::libunwind::_Unwind_Exception"*, %"unwind::libunwind::_Unwind_Context"*)* @rust_eh_personality !dbg !1377 {
start:
  %1 = alloca { i8*, i32 }, align 8
  %_3 = alloca { i32, i8 }, align 4
  %path = alloca %"std::path::PathBuf"*, align 8
  store %"std::path::PathBuf"* %0, %"std::path::PathBuf"** %path, align 8
  call void @llvm.dbg.declare(metadata %"std::path::PathBuf"** %path, metadata !1385, metadata !DIExpression()), !dbg !1388
; invoke std::fs::DirBuilder::new
  %2 = invoke { i32, i8 } @_ZN3std2fs10DirBuilder3new17hf1e28a969b0e6ad4E()
          to label %bb1 unwind label %cleanup, !dbg !1389

bb5:                                              ; preds = %cleanup
  br label %bb6, !dbg !1390

cleanup:                                          ; preds = %bb2, %bb1, %start
  %3 = landingpad { i8*, i32 }
          cleanup
  %4 = extractvalue { i8*, i32 } %3, 0
  %5 = extractvalue { i8*, i32 } %3, 1
  %6 = getelementptr inbounds { i8*, i32 }, { i8*, i32 }* %1, i32 0, i32 0
  store i8* %4, i8** %6, align 8
  %7 = getelementptr inbounds { i8*, i32 }, { i8*, i32 }* %1, i32 0, i32 1
  store i32 %5, i32* %7, align 8
  br label %bb5

bb1:                                              ; preds = %start
  store { i32, i8 } %2, { i32, i8 }* %_3, align 4, !dbg !1389
; invoke <&T as core::convert::AsRef<U>>::as_ref
  %8 = invoke { %"std::path::Path"*, i64 } @"_ZN55_$LT$$RF$T$u20$as$u20$core..convert..AsRef$LT$U$GT$$GT$6as_ref17h93f9ebbee098b704E"(%"std::path::PathBuf"** align 8 %path)
          to label %bb2 unwind label %cleanup, !dbg !1391

bb2:                                              ; preds = %bb1
  %_4.0 = extractvalue { %"std::path::Path"*, i64 } %8, 0, !dbg !1391
  %_4.1 = extractvalue { %"std::path::Path"*, i64 } %8, 1, !dbg !1391
; invoke std::fs::DirBuilder::create
  %9 = invoke i8* @_ZN3std2fs10DirBuilder6create17h5bd843cb81574630E({ i32, i8 }* align 4 %_3, %"std::path::Path"* align 1 %_4.0, i64 %_4.1)
          to label %bb3 unwind label %cleanup, !dbg !1389

bb3:                                              ; preds = %bb2
  br label %bb4, !dbg !1390

bb6:                                              ; preds = %bb5
  %10 = bitcast { i8*, i32 }* %1 to i8**, !dbg !1392
  %11 = load i8*, i8** %10, align 8, !dbg !1392
  %12 = getelementptr inbounds { i8*, i32 }, { i8*, i32 }* %1, i32 0, i32 1, !dbg !1392
  %13 = load i32, i32* %12, align 8, !dbg !1392
  %14 = insertvalue { i8*, i32 } undef, i8* %11, 0, !dbg !1392
  %15 = insertvalue { i8*, i32 } %14, i32 %13, 1, !dbg !1392
  resume { i8*, i32 } %15, !dbg !1392

bb4:                                              ; preds = %bb3
  ret i8* %9, !dbg !1393
}

; std::fs::remove_dir_all
; Function Attrs: nonlazybind uwtable
define internal i8* @_ZN3std2fs14remove_dir_all17h784c58419389a675E(%"std::path::PathBuf"* align 8 %0) unnamed_addr #1 personality i32 (i32, i32, i64, %"unwind::libunwind::_Unwind_Exception"*, %"unwind::libunwind::_Unwind_Context"*)* @rust_eh_personality !dbg !1394 {
start:
  %1 = alloca { i8*, i32 }, align 8
  %path = alloca %"std::path::PathBuf"*, align 8
  store %"std::path::PathBuf"* %0, %"std::path::PathBuf"** %path, align 8
  call void @llvm.dbg.declare(metadata %"std::path::PathBuf"** %path, metadata !1396, metadata !DIExpression()), !dbg !1397
; invoke <&T as core::convert::AsRef<U>>::as_ref
  %2 = invoke { %"std::path::Path"*, i64 } @"_ZN55_$LT$$RF$T$u20$as$u20$core..convert..AsRef$LT$U$GT$$GT$6as_ref17h93f9ebbee098b704E"(%"std::path::PathBuf"** align 8 %path)
          to label %bb1 unwind label %cleanup, !dbg !1398

bb4:                                              ; preds = %cleanup
  br label %bb5, !dbg !1399

cleanup:                                          ; preds = %bb1, %start
  %3 = landingpad { i8*, i32 }
          cleanup
  %4 = extractvalue { i8*, i32 } %3, 0
  %5 = extractvalue { i8*, i32 } %3, 1
  %6 = getelementptr inbounds { i8*, i32 }, { i8*, i32 }* %1, i32 0, i32 0
  store i8* %4, i8** %6, align 8
  %7 = getelementptr inbounds { i8*, i32 }, { i8*, i32 }* %1, i32 0, i32 1
  store i32 %5, i32* %7, align 8
  br label %bb4

bb1:                                              ; preds = %start
  %_3.0 = extractvalue { %"std::path::Path"*, i64 } %2, 0, !dbg !1398
  %_3.1 = extractvalue { %"std::path::Path"*, i64 } %2, 1, !dbg !1398
; invoke std::sys::unix::fs::remove_dir_impl::remove_dir_all
  %8 = invoke i8* @_ZN3std3sys4unix2fs15remove_dir_impl14remove_dir_all17h88a90199e6a50e3dE(%"std::path::Path"* align 1 %_3.0, i64 %_3.1)
          to label %bb2 unwind label %cleanup, !dbg !1400

bb2:                                              ; preds = %bb1
  br label %bb3, !dbg !1399

bb5:                                              ; preds = %bb4
  %9 = bitcast { i8*, i32 }* %1 to i8**, !dbg !1401
  %10 = load i8*, i8** %9, align 8, !dbg !1401
  %11 = getelementptr inbounds { i8*, i32 }, { i8*, i32 }* %1, i32 0, i32 1, !dbg !1401
  %12 = load i32, i32* %11, align 8, !dbg !1401
  %13 = insertvalue { i8*, i32 } undef, i8* %10, 0, !dbg !1401
  %14 = insertvalue { i8*, i32 } %13, i32 %12, 1, !dbg !1401
  resume { i8*, i32 } %14, !dbg !1401

bb3:                                              ; preds = %bb2
  ret i8* %8, !dbg !1402
}

; std::io::error::repr_bitpacked::decode_repr
; Function Attrs: inlinehint nonlazybind uwtable
define internal void @_ZN3std2io5error14repr_bitpacked11decode_repr17h88fba84b0ecb88c7E(%"std::io::error::ErrorData<alloc::boxed::Box<std::io::error::Custom>>"* sret(%"std::io::error::ErrorData<alloc::boxed::Box<std::io::error::Custom>>") %0, i8* %ptr) unnamed_addr #0 personality i32 (i32, i32, i64, %"unwind::libunwind::_Unwind_Exception"*, %"unwind::libunwind::_Unwind_Context"*)* @rust_eh_personality !dbg !1403 {
start:
  %code.dbg.spill = alloca i32, align 4
  %x.dbg.spill = alloca i8, align 1
  %kind_bits.dbg.spill = alloca i32, align 4
  %ptr.dbg.spill12 = alloca %"std::io::error::SimpleMessage"*, align 8
  %self.dbg.spill10 = alloca i8*, align 8
  %self.dbg.spill9 = alloca i8*, align 8
  %custom.dbg.spill = alloca %"std::io::error::Custom"*, align 8
  %self.dbg.spill8 = alloca i8*, align 8
  %1 = alloca i8*, align 8
  %self.dbg.spill7 = alloca i8*, align 8
  %self.dbg.spill6 = alloca i8*, align 8
  %self.dbg.spill4 = alloca {}*, align 8
  %self.dbg.spill3 = alloca i8*, align 8
  %2 = alloca { i8*, i32 }, align 8
  %self.dbg.spill2 = alloca {}*, align 8
  %self.dbg.spill = alloca i8*, align 8
  %make_custom.dbg.spill = alloca %"[closure@<std::io::error::repr_bitpacked::Repr as core::ops::drop::Drop>::drop::{closure#0}]", align 1
  %ptr.dbg.spill = alloca i8*, align 8
  %_37 = alloca i8, align 1
  %_34 = alloca i64*, align 8
  %self1 = alloca i64*, align 8
  %f = alloca i64*, align 8
  %self = alloca i8, align 1
  %kind = alloca i8, align 1
  %bits = alloca i64, align 8
  store i8* %ptr, i8** %ptr.dbg.spill, align 8
  call void @llvm.dbg.declare(metadata i8** %ptr.dbg.spill, metadata !1411, metadata !DIExpression()), !dbg !1426
  call void @llvm.dbg.declare(metadata %"[closure@<std::io::error::repr_bitpacked::Repr as core::ops::drop::Drop>::drop::{closure#0}]"* %make_custom.dbg.spill, metadata !1412, metadata !DIExpression()), !dbg !1427
  call void @llvm.dbg.declare(metadata i64* %bits, metadata !1413, metadata !DIExpression()), !dbg !1428
  call void @llvm.dbg.declare(metadata i8* %kind, metadata !1419, metadata !DIExpression()), !dbg !1429
  call void @llvm.dbg.declare(metadata i8* %self, metadata !1430, metadata !DIExpression()), !dbg !1459
  call void @llvm.dbg.declare(metadata i64** %f, metadata !1453, metadata !DIExpression()), !dbg !1459
  call void @llvm.dbg.declare(metadata i64** %self1, metadata !1461, metadata !DIExpression()), !dbg !1474
  store i8 1, i8* %_37, align 1, !dbg !1476
  store i8* %ptr, i8** %self.dbg.spill, align 8, !dbg !1477
  call void @llvm.dbg.declare(metadata i8** %self.dbg.spill, metadata !1478, metadata !DIExpression()), !dbg !1484
  %_38 = bitcast i8* %ptr to {}*, !dbg !1484
  store {}* %_38, {}** %self.dbg.spill2, align 8, !dbg !1484
  call void @llvm.dbg.declare(metadata {}** %self.dbg.spill2, metadata !1485, metadata !DIExpression()), !dbg !1491
  %3 = bitcast i64* %bits to {}**, !dbg !1491
  store {}* %_38, {}** %3, align 8, !dbg !1491
  br label %bb14, !dbg !1491

bb14:                                             ; preds = %start
  %_7 = load i64, i64* %bits, align 8, !dbg !1492
  %_6 = and i64 %_7, 3, !dbg !1492
  switch i64 %_6, label %bb1 [
    i64 2, label %bb2
    i64 3, label %bb3
    i64 0, label %bb5
    i64 1, label %bb6
  ], !dbg !1493

bb1:                                              ; preds = %bb14
; invoke core::panicking::panic
  invoke void @_ZN4core9panicking5panic17hf5844c0338bd061cE([0 x i8]* align 1 bitcast (<{ [40 x i8] }>* @alloc340 to [0 x i8]*), i64 40, %"core::panic::location::Location"* align 8 bitcast (<{ i8*, [16 x i8] }>* @alloc339 to %"core::panic::location::Location"*)) #13
          to label %unreachable unwind label %cleanup, !dbg !1494

bb2:                                              ; preds = %bb14
  %_11 = load i64, i64* %bits, align 8, !dbg !1495
  %_9 = ashr i64 %_11, 32, !dbg !1496
  %code = trunc i64 %_9 to i32, !dbg !1496
  store i32 %code, i32* %code.dbg.spill, align 4, !dbg !1496
  call void @llvm.dbg.declare(metadata i32* %code.dbg.spill, metadata !1415, metadata !DIExpression()), !dbg !1497
  %4 = bitcast %"std::io::error::ErrorData<alloc::boxed::Box<std::io::error::Custom>>"* %0 to %"std::io::error::ErrorData<alloc::boxed::Box<std::io::error::Custom>>::Os"*, !dbg !1498
  %5 = getelementptr inbounds %"std::io::error::ErrorData<alloc::boxed::Box<std::io::error::Custom>>::Os", %"std::io::error::ErrorData<alloc::boxed::Box<std::io::error::Custom>>::Os"* %4, i32 0, i32 1, !dbg !1498
  store i32 %code, i32* %5, align 4, !dbg !1498
  %6 = bitcast %"std::io::error::ErrorData<alloc::boxed::Box<std::io::error::Custom>>"* %0 to i8*, !dbg !1498
  store i8 0, i8* %6, align 8, !dbg !1498
  br label %bb8, !dbg !1499

bb3:                                              ; preds = %bb14
  %_15 = load i64, i64* %bits, align 8, !dbg !1500
  %_14 = lshr i64 %_15, 32, !dbg !1501
  %kind_bits = trunc i64 %_14 to i32, !dbg !1501
  store i32 %kind_bits, i32* %kind_bits.dbg.spill, align 4, !dbg !1501
  call void @llvm.dbg.declare(metadata i32* %kind_bits.dbg.spill, metadata !1417, metadata !DIExpression()), !dbg !1502
; invoke std::io::error::repr_bitpacked::kind_from_prim
  %7 = invoke i8 @_ZN3std2io5error14repr_bitpacked14kind_from_prim17h3675b2209edceae3E(i32 %kind_bits)
          to label %bb4 unwind label %cleanup, !dbg !1460, !range !1503

bb5:                                              ; preds = %bb14
  store i8* %ptr, i8** %self.dbg.spill9, align 8, !dbg !1475
  call void @llvm.dbg.declare(metadata i8** %self.dbg.spill9, metadata !1504, metadata !DIExpression()), !dbg !1512
  store i8* %ptr, i8** %self.dbg.spill10, align 8, !dbg !1512
  call void @llvm.dbg.declare(metadata i8** %self.dbg.spill10, metadata !1513, metadata !DIExpression()), !dbg !1517
  %_47 = bitcast i8* %ptr to {}*, !dbg !1517
  %ptr11 = bitcast {}* %_47 to %"std::io::error::SimpleMessage"*, !dbg !1512
  store %"std::io::error::SimpleMessage"* %ptr11, %"std::io::error::SimpleMessage"** %ptr.dbg.spill12, align 8, !dbg !1512
  call void @llvm.dbg.declare(metadata %"std::io::error::SimpleMessage"** %ptr.dbg.spill12, metadata !1519, metadata !DIExpression()), !dbg !1525
  %8 = bitcast i64** %self1 to %"std::io::error::SimpleMessage"**, !dbg !1525
  store %"std::io::error::SimpleMessage"* %ptr11, %"std::io::error::SimpleMessage"** %8, align 8, !dbg !1525
  %9 = bitcast i64** %self1 to %"std::io::error::SimpleMessage"**, !dbg !1474
  %_51 = load %"std::io::error::SimpleMessage"*, %"std::io::error::SimpleMessage"** %9, align 8, !dbg !1474
  %10 = bitcast %"std::io::error::ErrorData<alloc::boxed::Box<std::io::error::Custom>>"* %0 to %"std::io::error::ErrorData<alloc::boxed::Box<std::io::error::Custom>>::SimpleMessage"*, !dbg !1527
  %11 = getelementptr inbounds %"std::io::error::ErrorData<alloc::boxed::Box<std::io::error::Custom>>::SimpleMessage", %"std::io::error::ErrorData<alloc::boxed::Box<std::io::error::Custom>>::SimpleMessage"* %10, i32 0, i32 1, !dbg !1527
  store %"std::io::error::SimpleMessage"* %_51, %"std::io::error::SimpleMessage"** %11, align 8, !dbg !1527
  %12 = bitcast %"std::io::error::ErrorData<alloc::boxed::Box<std::io::error::Custom>>"* %0 to i8*, !dbg !1527
  store i8 2, i8* %12, align 8, !dbg !1527
  br label %bb8, !dbg !1528

bb6:                                              ; preds = %bb14
  store i8* %ptr, i8** %self.dbg.spill3, align 8, !dbg !1529
  call void @llvm.dbg.declare(metadata i8** %self.dbg.spill3, metadata !1530, metadata !DIExpression()), !dbg !1534
  %_52 = bitcast i8* %ptr to {}*, !dbg !1534
  store {}* %_52, {}** %self.dbg.spill4, align 8, !dbg !1534
  call void @llvm.dbg.declare(metadata {}** %self.dbg.spill4, metadata !1535, metadata !DIExpression()), !dbg !1543
  %self5 = bitcast {}* %_52 to i8*, !dbg !1543
  store i8* %self5, i8** %self.dbg.spill6, align 8, !dbg !1543
  call void @llvm.dbg.declare(metadata i8** %self.dbg.spill6, metadata !1544, metadata !DIExpression()), !dbg !1549
  store i8* %self5, i8** %self.dbg.spill7, align 8, !dbg !1549
  call void @llvm.dbg.declare(metadata i8** %self.dbg.spill7, metadata !1550, metadata !DIExpression()), !dbg !1555
  %13 = getelementptr i8, i8* %self5, i64 -1, !dbg !1555
  store i8* %13, i8** %1, align 8, !dbg !1555
  %_60 = load i8*, i8** %1, align 8, !dbg !1555
  br label %bb20, !dbg !1555

bb13:                                             ; preds = %cleanup
  %14 = load i8, i8* %_37, align 1, !dbg !1557, !range !704, !noundef !23
  %15 = trunc i8 %14 to i1, !dbg !1557
  br i1 %15, label %bb12, label %bb10, !dbg !1557

cleanup:                                          ; preds = %bb15, %bb3, %bb20, %bb1
  %16 = landingpad { i8*, i32 }
          cleanup
  %17 = extractvalue { i8*, i32 } %16, 0
  %18 = extractvalue { i8*, i32 } %16, 1
  %19 = getelementptr inbounds { i8*, i32 }, { i8*, i32 }* %2, i32 0, i32 0
  store i8* %17, i8** %19, align 8
  %20 = getelementptr inbounds { i8*, i32 }, { i8*, i32 }* %2, i32 0, i32 1
  store i32 %18, i32* %20, align 8
  br label %bb13

unreachable:                                      ; preds = %bb1
  unreachable

bb20:                                             ; preds = %bb6
  store i8* %_60, i8** %self.dbg.spill8, align 8, !dbg !1555
  call void @llvm.dbg.declare(metadata i8** %self.dbg.spill8, metadata !1558, metadata !DIExpression()), !dbg !1566
  %custom = bitcast i8* %_60 to %"std::io::error::Custom"*, !dbg !1566
  store %"std::io::error::Custom"* %custom, %"std::io::error::Custom"** %custom.dbg.spill, align 8, !dbg !1566
  call void @llvm.dbg.declare(metadata %"std::io::error::Custom"** %custom.dbg.spill, metadata !1421, metadata !DIExpression()), !dbg !1567
  store i8 0, i8* %_37, align 1, !dbg !1568
  %21 = bitcast i64** %_34 to %"std::io::error::Custom"**, !dbg !1568
  store %"std::io::error::Custom"* %custom, %"std::io::error::Custom"** %21, align 8, !dbg !1568
  %22 = load i64*, i64** %_34, align 8, !dbg !1568
  %23 = bitcast i64* %22 to %"std::io::error::Custom"*, !dbg !1568
; invoke <std::io::error::repr_bitpacked::Repr as core::ops::drop::Drop>::drop::{{closure}}
  %_32 = invoke align 8 %"std::io::error::Custom"* @"_ZN78_$LT$std..io..error..repr_bitpacked..Repr$u20$as$u20$core..ops..drop..Drop$GT$4drop28_$u7b$$u7b$closure$u7d$$u7d$17hbc87fba7b371aabcE"(%"std::io::error::Custom"* %23)
          to label %bb7 unwind label %cleanup, !dbg !1568

bb7:                                              ; preds = %bb20
  %24 = bitcast %"std::io::error::ErrorData<alloc::boxed::Box<std::io::error::Custom>>"* %0 to %"std::io::error::ErrorData<alloc::boxed::Box<std::io::error::Custom>>::Custom"*, !dbg !1569
  %25 = getelementptr inbounds %"std::io::error::ErrorData<alloc::boxed::Box<std::io::error::Custom>>::Custom", %"std::io::error::ErrorData<alloc::boxed::Box<std::io::error::Custom>>::Custom"* %24, i32 0, i32 1, !dbg !1569
  store %"std::io::error::Custom"* %_32, %"std::io::error::Custom"** %25, align 8, !dbg !1569
  %26 = bitcast %"std::io::error::ErrorData<alloc::boxed::Box<std::io::error::Custom>>"* %0 to i8*, !dbg !1569
  store i8 3, i8* %26, align 8, !dbg !1569
  br label %bb8, !dbg !1570

bb8:                                              ; preds = %bb2, %bb19, %bb5, %bb7
  %27 = load i8, i8* %_37, align 1, !dbg !1557, !range !704, !noundef !23
  %28 = trunc i8 %27 to i1, !dbg !1557
  br i1 %28, label %bb11, label %bb9, !dbg !1557

bb4:                                              ; preds = %bb3
  store i8 %7, i8* %self, align 1, !dbg !1460
  store i64* %bits, i64** %f, align 8, !dbg !1571
  %29 = load i8, i8* %self, align 1, !dbg !1459, !range !1503, !noundef !23
  %30 = sub i8 %29, 41, !dbg !1459
  %31 = icmp eq i8 %30, 0, !dbg !1459
  %_40 = select i1 %31, i64 0, i64 1, !dbg !1459
  switch i64 %_40, label %bb16 [
    i64 0, label %bb15
    i64 1, label %bb17
  ], !dbg !1459

bb16:                                             ; preds = %bb4
  unreachable, !dbg !1459

bb15:                                             ; preds = %bb4
  %_42 = load i64*, i64** %f, align 8, !dbg !1459, !nonnull !23, !align !266, !noundef !23
; invoke std::io::error::repr_bitpacked::decode_repr::{{closure}}
  %32 = invoke i8 @"_ZN3std2io5error14repr_bitpacked11decode_repr28_$u7b$$u7b$closure$u7d$$u7d$17h4fbafe5f7d11b1f1E"(i64* align 8 %_42)
          to label %bb18 unwind label %cleanup, !dbg !1459, !range !1572

bb17:                                             ; preds = %bb4
  %x = load i8, i8* %self, align 1, !dbg !1459, !range !1572, !noundef !23
  store i8 %x, i8* %x.dbg.spill, align 1, !dbg !1459
  call void @llvm.dbg.declare(metadata i8* %x.dbg.spill, metadata !1454, metadata !DIExpression()), !dbg !1573
  store i8 %x, i8* %kind, align 1, !dbg !1573
  br label %bb19, !dbg !1459

bb19:                                             ; preds = %bb18, %bb17
  %_21 = load i8, i8* %kind, align 1, !dbg !1574, !range !1572, !noundef !23
  %33 = bitcast %"std::io::error::ErrorData<alloc::boxed::Box<std::io::error::Custom>>"* %0 to %"std::io::error::ErrorData<alloc::boxed::Box<std::io::error::Custom>>::Simple"*, !dbg !1575
  %34 = getelementptr inbounds %"std::io::error::ErrorData<alloc::boxed::Box<std::io::error::Custom>>::Simple", %"std::io::error::ErrorData<alloc::boxed::Box<std::io::error::Custom>>::Simple"* %33, i32 0, i32 1, !dbg !1575
  store i8 %_21, i8* %34, align 1, !dbg !1575
  %35 = bitcast %"std::io::error::ErrorData<alloc::boxed::Box<std::io::error::Custom>>"* %0 to i8*, !dbg !1575
  store i8 1, i8* %35, align 8, !dbg !1575
  br label %bb8, !dbg !1576

bb18:                                             ; preds = %bb15
  store i8 %32, i8* %kind, align 1, !dbg !1459
  br label %bb19, !dbg !1459

bb10:                                             ; preds = %bb12, %bb13
  %36 = bitcast { i8*, i32 }* %2 to i8**, !dbg !1577
  %37 = load i8*, i8** %36, align 8, !dbg !1577
  %38 = getelementptr inbounds { i8*, i32 }, { i8*, i32 }* %2, i32 0, i32 1, !dbg !1577
  %39 = load i32, i32* %38, align 8, !dbg !1577
  %40 = insertvalue { i8*, i32 } undef, i8* %37, 0, !dbg !1577
  %41 = insertvalue { i8*, i32 } %40, i32 %39, 1, !dbg !1577
  resume { i8*, i32 } %41, !dbg !1577

bb12:                                             ; preds = %bb13
  br label %bb10, !dbg !1557

bb9:                                              ; preds = %bb11, %bb8
  ret void, !dbg !1578

bb11:                                             ; preds = %bb8
  br label %bb9, !dbg !1557
}

; std::io::error::repr_bitpacked::decode_repr
; Function Attrs: inlinehint nonlazybind uwtable
define internal void @_ZN3std2io5error14repr_bitpacked11decode_repr17hb4277e81a88c442fE(%"std::io::error::ErrorData<&std::io::error::Custom>"* sret(%"std::io::error::ErrorData<&std::io::error::Custom>") %0, i8* %ptr) unnamed_addr #0 personality i32 (i32, i32, i64, %"unwind::libunwind::_Unwind_Exception"*, %"unwind::libunwind::_Unwind_Context"*)* @rust_eh_personality !dbg !1579 {
start:
  %code.dbg.spill = alloca i32, align 4
  %x.dbg.spill = alloca i8, align 1
  %kind_bits.dbg.spill = alloca i32, align 4
  %ptr.dbg.spill12 = alloca %"std::io::error::SimpleMessage"*, align 8
  %self.dbg.spill10 = alloca i8*, align 8
  %self.dbg.spill9 = alloca i8*, align 8
  %custom.dbg.spill = alloca %"std::io::error::Custom"*, align 8
  %self.dbg.spill8 = alloca i8*, align 8
  %1 = alloca i8*, align 8
  %self.dbg.spill7 = alloca i8*, align 8
  %self.dbg.spill6 = alloca i8*, align 8
  %self.dbg.spill4 = alloca {}*, align 8
  %self.dbg.spill3 = alloca i8*, align 8
  %2 = alloca { i8*, i32 }, align 8
  %self.dbg.spill2 = alloca {}*, align 8
  %self.dbg.spill = alloca i8*, align 8
  %make_custom.dbg.spill = alloca %"[closure@std::io::error::repr_bitpacked::Repr::data::{closure#0}]", align 1
  %ptr.dbg.spill = alloca i8*, align 8
  %_37 = alloca i8, align 1
  %_34 = alloca i64*, align 8
  %self1 = alloca i64*, align 8
  %f = alloca i64*, align 8
  %self = alloca i8, align 1
  %kind = alloca i8, align 1
  %bits = alloca i64, align 8
  store i8* %ptr, i8** %ptr.dbg.spill, align 8
  call void @llvm.dbg.declare(metadata i8** %ptr.dbg.spill, metadata !1610, metadata !DIExpression()), !dbg !1624
  call void @llvm.dbg.declare(metadata %"[closure@std::io::error::repr_bitpacked::Repr::data::{closure#0}]"* %make_custom.dbg.spill, metadata !1611, metadata !DIExpression()), !dbg !1625
  call void @llvm.dbg.declare(metadata i64* %bits, metadata !1612, metadata !DIExpression()), !dbg !1626
  call void @llvm.dbg.declare(metadata i8* %kind, metadata !1618, metadata !DIExpression()), !dbg !1627
  call void @llvm.dbg.declare(metadata i8* %self, metadata !1628, metadata !DIExpression()), !dbg !1643
  call void @llvm.dbg.declare(metadata i64** %f, metadata !1637, metadata !DIExpression()), !dbg !1643
  call void @llvm.dbg.declare(metadata i64** %self1, metadata !1645, metadata !DIExpression()), !dbg !1649
  store i8 1, i8* %_37, align 1, !dbg !1651
  store i8* %ptr, i8** %self.dbg.spill, align 8, !dbg !1652
  call void @llvm.dbg.declare(metadata i8** %self.dbg.spill, metadata !1653, metadata !DIExpression()), !dbg !1657
  %_38 = bitcast i8* %ptr to {}*, !dbg !1657
  store {}* %_38, {}** %self.dbg.spill2, align 8, !dbg !1657
  call void @llvm.dbg.declare(metadata {}** %self.dbg.spill2, metadata !1658, metadata !DIExpression()), !dbg !1662
  %3 = bitcast i64* %bits to {}**, !dbg !1662
  store {}* %_38, {}** %3, align 8, !dbg !1662
  br label %bb14, !dbg !1662

bb14:                                             ; preds = %start
  %_7 = load i64, i64* %bits, align 8, !dbg !1663
  %_6 = and i64 %_7, 3, !dbg !1663
  switch i64 %_6, label %bb1 [
    i64 2, label %bb2
    i64 3, label %bb3
    i64 0, label %bb5
    i64 1, label %bb6
  ], !dbg !1664

bb1:                                              ; preds = %bb14
; invoke core::panicking::panic
  invoke void @_ZN4core9panicking5panic17hf5844c0338bd061cE([0 x i8]* align 1 bitcast (<{ [40 x i8] }>* @alloc340 to [0 x i8]*), i64 40, %"core::panic::location::Location"* align 8 bitcast (<{ i8*, [16 x i8] }>* @alloc339 to %"core::panic::location::Location"*)) #13
          to label %unreachable unwind label %cleanup, !dbg !1665

bb2:                                              ; preds = %bb14
  %_11 = load i64, i64* %bits, align 8, !dbg !1666
  %_9 = ashr i64 %_11, 32, !dbg !1667
  %code = trunc i64 %_9 to i32, !dbg !1667
  store i32 %code, i32* %code.dbg.spill, align 4, !dbg !1667
  call void @llvm.dbg.declare(metadata i32* %code.dbg.spill, metadata !1614, metadata !DIExpression()), !dbg !1668
  %4 = bitcast %"std::io::error::ErrorData<&std::io::error::Custom>"* %0 to %"std::io::error::ErrorData<&std::io::error::Custom>::Os"*, !dbg !1669
  %5 = getelementptr inbounds %"std::io::error::ErrorData<&std::io::error::Custom>::Os", %"std::io::error::ErrorData<&std::io::error::Custom>::Os"* %4, i32 0, i32 1, !dbg !1669
  store i32 %code, i32* %5, align 4, !dbg !1669
  %6 = bitcast %"std::io::error::ErrorData<&std::io::error::Custom>"* %0 to i8*, !dbg !1669
  store i8 0, i8* %6, align 8, !dbg !1669
  br label %bb8, !dbg !1670

bb3:                                              ; preds = %bb14
  %_15 = load i64, i64* %bits, align 8, !dbg !1671
  %_14 = lshr i64 %_15, 32, !dbg !1672
  %kind_bits = trunc i64 %_14 to i32, !dbg !1672
  store i32 %kind_bits, i32* %kind_bits.dbg.spill, align 4, !dbg !1672
  call void @llvm.dbg.declare(metadata i32* %kind_bits.dbg.spill, metadata !1616, metadata !DIExpression()), !dbg !1673
; invoke std::io::error::repr_bitpacked::kind_from_prim
  %7 = invoke i8 @_ZN3std2io5error14repr_bitpacked14kind_from_prim17h3675b2209edceae3E(i32 %kind_bits)
          to label %bb4 unwind label %cleanup, !dbg !1644, !range !1503

bb5:                                              ; preds = %bb14
  store i8* %ptr, i8** %self.dbg.spill9, align 8, !dbg !1650
  call void @llvm.dbg.declare(metadata i8** %self.dbg.spill9, metadata !1674, metadata !DIExpression()), !dbg !1678
  store i8* %ptr, i8** %self.dbg.spill10, align 8, !dbg !1678
  call void @llvm.dbg.declare(metadata i8** %self.dbg.spill10, metadata !1679, metadata !DIExpression()), !dbg !1683
  %_47 = bitcast i8* %ptr to {}*, !dbg !1683
  %ptr11 = bitcast {}* %_47 to %"std::io::error::SimpleMessage"*, !dbg !1678
  store %"std::io::error::SimpleMessage"* %ptr11, %"std::io::error::SimpleMessage"** %ptr.dbg.spill12, align 8, !dbg !1678
  call void @llvm.dbg.declare(metadata %"std::io::error::SimpleMessage"** %ptr.dbg.spill12, metadata !1685, metadata !DIExpression()), !dbg !1689
  %8 = bitcast i64** %self1 to %"std::io::error::SimpleMessage"**, !dbg !1689
  store %"std::io::error::SimpleMessage"* %ptr11, %"std::io::error::SimpleMessage"** %8, align 8, !dbg !1689
  %9 = bitcast i64** %self1 to %"std::io::error::SimpleMessage"**, !dbg !1649
  %_51 = load %"std::io::error::SimpleMessage"*, %"std::io::error::SimpleMessage"** %9, align 8, !dbg !1649
  %10 = bitcast %"std::io::error::ErrorData<&std::io::error::Custom>"* %0 to %"std::io::error::ErrorData<&std::io::error::Custom>::SimpleMessage"*, !dbg !1691
  %11 = getelementptr inbounds %"std::io::error::ErrorData<&std::io::error::Custom>::SimpleMessage", %"std::io::error::ErrorData<&std::io::error::Custom>::SimpleMessage"* %10, i32 0, i32 1, !dbg !1691
  store %"std::io::error::SimpleMessage"* %_51, %"std::io::error::SimpleMessage"** %11, align 8, !dbg !1691
  %12 = bitcast %"std::io::error::ErrorData<&std::io::error::Custom>"* %0 to i8*, !dbg !1691
  store i8 2, i8* %12, align 8, !dbg !1691
  br label %bb8, !dbg !1692

bb6:                                              ; preds = %bb14
  store i8* %ptr, i8** %self.dbg.spill3, align 8, !dbg !1693
  call void @llvm.dbg.declare(metadata i8** %self.dbg.spill3, metadata !1694, metadata !DIExpression()), !dbg !1698
  %_52 = bitcast i8* %ptr to {}*, !dbg !1698
  store {}* %_52, {}** %self.dbg.spill4, align 8, !dbg !1698
  call void @llvm.dbg.declare(metadata {}** %self.dbg.spill4, metadata !1699, metadata !DIExpression()), !dbg !1703
  %self5 = bitcast {}* %_52 to i8*, !dbg !1703
  store i8* %self5, i8** %self.dbg.spill6, align 8, !dbg !1703
  call void @llvm.dbg.declare(metadata i8** %self.dbg.spill6, metadata !1704, metadata !DIExpression()), !dbg !1709
  store i8* %self5, i8** %self.dbg.spill7, align 8, !dbg !1709
  call void @llvm.dbg.declare(metadata i8** %self.dbg.spill7, metadata !1710, metadata !DIExpression()), !dbg !1715
  %13 = getelementptr i8, i8* %self5, i64 -1, !dbg !1715
  store i8* %13, i8** %1, align 8, !dbg !1715
  %_60 = load i8*, i8** %1, align 8, !dbg !1715
  br label %bb20, !dbg !1715

bb13:                                             ; preds = %cleanup
  %14 = load i8, i8* %_37, align 1, !dbg !1717, !range !704, !noundef !23
  %15 = trunc i8 %14 to i1, !dbg !1717
  br i1 %15, label %bb12, label %bb10, !dbg !1717

cleanup:                                          ; preds = %bb15, %bb3, %bb20, %bb1
  %16 = landingpad { i8*, i32 }
          cleanup
  %17 = extractvalue { i8*, i32 } %16, 0
  %18 = extractvalue { i8*, i32 } %16, 1
  %19 = getelementptr inbounds { i8*, i32 }, { i8*, i32 }* %2, i32 0, i32 0
  store i8* %17, i8** %19, align 8
  %20 = getelementptr inbounds { i8*, i32 }, { i8*, i32 }* %2, i32 0, i32 1
  store i32 %18, i32* %20, align 8
  br label %bb13

unreachable:                                      ; preds = %bb1
  unreachable

bb20:                                             ; preds = %bb6
  store i8* %_60, i8** %self.dbg.spill8, align 8, !dbg !1715
  call void @llvm.dbg.declare(metadata i8** %self.dbg.spill8, metadata !1718, metadata !DIExpression()), !dbg !1722
  %custom = bitcast i8* %_60 to %"std::io::error::Custom"*, !dbg !1722
  store %"std::io::error::Custom"* %custom, %"std::io::error::Custom"** %custom.dbg.spill, align 8, !dbg !1722
  call void @llvm.dbg.declare(metadata %"std::io::error::Custom"** %custom.dbg.spill, metadata !1620, metadata !DIExpression()), !dbg !1723
  store i8 0, i8* %_37, align 1, !dbg !1724
  %21 = bitcast i64** %_34 to %"std::io::error::Custom"**, !dbg !1724
  store %"std::io::error::Custom"* %custom, %"std::io::error::Custom"** %21, align 8, !dbg !1724
  %22 = load i64*, i64** %_34, align 8, !dbg !1724
  %23 = bitcast i64* %22 to %"std::io::error::Custom"*, !dbg !1724
; invoke std::io::error::repr_bitpacked::Repr::data::{{closure}}
  %_32 = invoke align 8 %"std::io::error::Custom"* @"_ZN3std2io5error14repr_bitpacked4Repr4data28_$u7b$$u7b$closure$u7d$$u7d$17h91d470cf80812eadE"(%"std::io::error::Custom"* %23)
          to label %bb7 unwind label %cleanup, !dbg !1724

bb7:                                              ; preds = %bb20
  %24 = bitcast %"std::io::error::ErrorData<&std::io::error::Custom>"* %0 to %"std::io::error::ErrorData<&std::io::error::Custom>::Custom"*, !dbg !1725
  %25 = getelementptr inbounds %"std::io::error::ErrorData<&std::io::error::Custom>::Custom", %"std::io::error::ErrorData<&std::io::error::Custom>::Custom"* %24, i32 0, i32 1, !dbg !1725
  store %"std::io::error::Custom"* %_32, %"std::io::error::Custom"** %25, align 8, !dbg !1725
  %26 = bitcast %"std::io::error::ErrorData<&std::io::error::Custom>"* %0 to i8*, !dbg !1725
  store i8 3, i8* %26, align 8, !dbg !1725
  br label %bb8, !dbg !1726

bb8:                                              ; preds = %bb2, %bb19, %bb5, %bb7
  %27 = load i8, i8* %_37, align 1, !dbg !1717, !range !704, !noundef !23
  %28 = trunc i8 %27 to i1, !dbg !1717
  br i1 %28, label %bb11, label %bb9, !dbg !1717

bb4:                                              ; preds = %bb3
  store i8 %7, i8* %self, align 1, !dbg !1644
  store i64* %bits, i64** %f, align 8, !dbg !1727
  %29 = load i8, i8* %self, align 1, !dbg !1643, !range !1503, !noundef !23
  %30 = sub i8 %29, 41, !dbg !1643
  %31 = icmp eq i8 %30, 0, !dbg !1643
  %_40 = select i1 %31, i64 0, i64 1, !dbg !1643
  switch i64 %_40, label %bb16 [
    i64 0, label %bb15
    i64 1, label %bb17
  ], !dbg !1643

bb16:                                             ; preds = %bb4
  unreachable, !dbg !1643

bb15:                                             ; preds = %bb4
  %_42 = load i64*, i64** %f, align 8, !dbg !1643, !nonnull !23, !align !266, !noundef !23
; invoke std::io::error::repr_bitpacked::decode_repr::{{closure}}
  %32 = invoke i8 @"_ZN3std2io5error14repr_bitpacked11decode_repr28_$u7b$$u7b$closure$u7d$$u7d$17h1527cae17b154f3aE"(i64* align 8 %_42)
          to label %bb18 unwind label %cleanup, !dbg !1643, !range !1572

bb17:                                             ; preds = %bb4
  %x = load i8, i8* %self, align 1, !dbg !1643, !range !1572, !noundef !23
  store i8 %x, i8* %x.dbg.spill, align 1, !dbg !1643
  call void @llvm.dbg.declare(metadata i8* %x.dbg.spill, metadata !1638, metadata !DIExpression()), !dbg !1728
  store i8 %x, i8* %kind, align 1, !dbg !1728
  br label %bb19, !dbg !1643

bb19:                                             ; preds = %bb18, %bb17
  %_21 = load i8, i8* %kind, align 1, !dbg !1729, !range !1572, !noundef !23
  %33 = bitcast %"std::io::error::ErrorData<&std::io::error::Custom>"* %0 to %"std::io::error::ErrorData<&std::io::error::Custom>::Simple"*, !dbg !1730
  %34 = getelementptr inbounds %"std::io::error::ErrorData<&std::io::error::Custom>::Simple", %"std::io::error::ErrorData<&std::io::error::Custom>::Simple"* %33, i32 0, i32 1, !dbg !1730
  store i8 %_21, i8* %34, align 1, !dbg !1730
  %35 = bitcast %"std::io::error::ErrorData<&std::io::error::Custom>"* %0 to i8*, !dbg !1730
  store i8 1, i8* %35, align 8, !dbg !1730
  br label %bb8, !dbg !1731

bb18:                                             ; preds = %bb15
  store i8 %32, i8* %kind, align 1, !dbg !1643
  br label %bb19, !dbg !1643

bb10:                                             ; preds = %bb12, %bb13
  %36 = bitcast { i8*, i32 }* %2 to i8**, !dbg !1732
  %37 = load i8*, i8** %36, align 8, !dbg !1732
  %38 = getelementptr inbounds { i8*, i32 }, { i8*, i32 }* %2, i32 0, i32 1, !dbg !1732
  %39 = load i32, i32* %38, align 8, !dbg !1732
  %40 = insertvalue { i8*, i32 } undef, i8* %37, 0, !dbg !1732
  %41 = insertvalue { i8*, i32 } %40, i32 %39, 1, !dbg !1732
  resume { i8*, i32 } %41, !dbg !1732

bb12:                                             ; preds = %bb13
  br label %bb10, !dbg !1717

bb9:                                              ; preds = %bb11, %bb8
  ret void, !dbg !1733

bb11:                                             ; preds = %bb8
  br label %bb9, !dbg !1717
}

; std::io::error::repr_bitpacked::decode_repr::{{closure}}
; Function Attrs: inlinehint nonlazybind uwtable
define internal i8 @"_ZN3std2io5error14repr_bitpacked11decode_repr28_$u7b$$u7b$closure$u7d$$u7d$17h1527cae17b154f3aE"(i64* align 8 %_1) unnamed_addr #0 !dbg !1734 {
start:
  %_unsafe_arg.dbg.spill = alloca %"core::fmt::UnsafeArg", align 1
  %_1.dbg.spill = alloca i64*, align 8
  store i64* %_1, i64** %_1.dbg.spill, align 8
  %0 = load i64*, i64** %_1.dbg.spill, align 8, !nonnull !23, !align !266, !noundef !23
  call void @llvm.dbg.declare(metadata i64** %_1.dbg.spill, metadata !1738, metadata !DIExpression(DW_OP_deref)), !dbg !1739
  call void @llvm.dbg.declare(metadata %"core::fmt::UnsafeArg"* %_unsafe_arg.dbg.spill, metadata !1740, metadata !DIExpression()), !dbg !1867
  unreachable, !dbg !1871
}

; std::io::error::repr_bitpacked::decode_repr::{{closure}}
; Function Attrs: inlinehint nonlazybind uwtable
define internal i8 @"_ZN3std2io5error14repr_bitpacked11decode_repr28_$u7b$$u7b$closure$u7d$$u7d$17h4fbafe5f7d11b1f1E"(i64* align 8 %_1) unnamed_addr #0 !dbg !1875 {
start:
  %_unsafe_arg.dbg.spill = alloca %"core::fmt::UnsafeArg", align 1
  %_1.dbg.spill = alloca i64*, align 8
  store i64* %_1, i64** %_1.dbg.spill, align 8
  %0 = load i64*, i64** %_1.dbg.spill, align 8, !nonnull !23, !align !266, !noundef !23
  call void @llvm.dbg.declare(metadata i64** %_1.dbg.spill, metadata !1879, metadata !DIExpression(DW_OP_deref)), !dbg !1880
  call void @llvm.dbg.declare(metadata %"core::fmt::UnsafeArg"* %_unsafe_arg.dbg.spill, metadata !1881, metadata !DIExpression()), !dbg !1888
  unreachable, !dbg !1891
}

; std::io::error::repr_bitpacked::kind_from_prim
; Function Attrs: inlinehint nonlazybind uwtable
define internal i8 @_ZN3std2io5error14repr_bitpacked14kind_from_prim17h3675b2209edceae3E(i32 %0) unnamed_addr #0 !dbg !1895 {
start:
  %v.dbg.spill40 = alloca i32*, align 8
  %v.dbg.spill39 = alloca i32*, align 8
  %v.dbg.spill38 = alloca i32*, align 8
  %v.dbg.spill37 = alloca i32*, align 8
  %v.dbg.spill36 = alloca i32*, align 8
  %v.dbg.spill35 = alloca i32*, align 8
  %v.dbg.spill34 = alloca i32*, align 8
  %v.dbg.spill33 = alloca i32*, align 8
  %v.dbg.spill32 = alloca i32*, align 8
  %v.dbg.spill31 = alloca i32*, align 8
  %v.dbg.spill30 = alloca i32*, align 8
  %v.dbg.spill29 = alloca i32*, align 8
  %v.dbg.spill28 = alloca i32*, align 8
  %v.dbg.spill27 = alloca i32*, align 8
  %v.dbg.spill26 = alloca i32*, align 8
  %v.dbg.spill25 = alloca i32*, align 8
  %v.dbg.spill24 = alloca i32*, align 8
  %v.dbg.spill23 = alloca i32*, align 8
  %v.dbg.spill22 = alloca i32*, align 8
  %v.dbg.spill21 = alloca i32*, align 8
  %v.dbg.spill20 = alloca i32*, align 8
  %v.dbg.spill19 = alloca i32*, align 8
  %v.dbg.spill18 = alloca i32*, align 8
  %v.dbg.spill17 = alloca i32*, align 8
  %v.dbg.spill16 = alloca i32*, align 8
  %v.dbg.spill15 = alloca i32*, align 8
  %v.dbg.spill14 = alloca i32*, align 8
  %v.dbg.spill13 = alloca i32*, align 8
  %v.dbg.spill12 = alloca i32*, align 8
  %v.dbg.spill11 = alloca i32*, align 8
  %v.dbg.spill10 = alloca i32*, align 8
  %v.dbg.spill9 = alloca i32*, align 8
  %v.dbg.spill8 = alloca i32*, align 8
  %v.dbg.spill7 = alloca i32*, align 8
  %v.dbg.spill6 = alloca i32*, align 8
  %v.dbg.spill5 = alloca i32*, align 8
  %v.dbg.spill4 = alloca i32*, align 8
  %v.dbg.spill3 = alloca i32*, align 8
  %v.dbg.spill2 = alloca i32*, align 8
  %v.dbg.spill1 = alloca i32*, align 8
  %v.dbg.spill = alloca i32*, align 8
  %1 = alloca i8, align 1
  %ek = alloca i32, align 4
  store i32 %0, i32* %ek, align 4
  call void @llvm.dbg.declare(metadata i32* %ek, metadata !1899, metadata !DIExpression()), !dbg !2024
  store i32* %ek, i32** %v.dbg.spill, align 8, !dbg !2025
  call void @llvm.dbg.declare(metadata i32** %v.dbg.spill, metadata !1902, metadata !DIExpression()), !dbg !2026
  %_5 = load i32, i32* %ek, align 4, !dbg !2025
  %_4 = icmp eq i32 %_5, 0, !dbg !2025
  br i1 %_4, label %bb1, label %bb2, !dbg !2025

bb2:                                              ; preds = %start
  store i32* %ek, i32** %v.dbg.spill1, align 8, !dbg !2025
  call void @llvm.dbg.declare(metadata i32** %v.dbg.spill1, metadata !1906, metadata !DIExpression()), !dbg !2027
  %_10 = load i32, i32* %ek, align 4, !dbg !2025
  %_9 = icmp eq i32 %_10, 1, !dbg !2025
  br i1 %_9, label %bb3, label %bb4, !dbg !2025

bb1:                                              ; preds = %start
  store i8 0, i8* %1, align 1, !dbg !2026
  br label %bb83, !dbg !2025

bb83:                                             ; preds = %bb82, %bb81, %bb79, %bb77, %bb75, %bb73, %bb71, %bb69, %bb67, %bb65, %bb63, %bb61, %bb59, %bb57, %bb55, %bb53, %bb51, %bb49, %bb47, %bb45, %bb43, %bb41, %bb39, %bb37, %bb35, %bb33, %bb31, %bb29, %bb27, %bb25, %bb23, %bb21, %bb19, %bb17, %bb15, %bb13, %bb11, %bb9, %bb7, %bb5, %bb3, %bb1
  %2 = load i8, i8* %1, align 1, !dbg !2028, !range !1503, !noundef !23
  ret i8 %2, !dbg !2028

bb4:                                              ; preds = %bb2
  store i32* %ek, i32** %v.dbg.spill2, align 8, !dbg !2025
  call void @llvm.dbg.declare(metadata i32** %v.dbg.spill2, metadata !1909, metadata !DIExpression()), !dbg !2029
  %_15 = load i32, i32* %ek, align 4, !dbg !2025
  %_14 = icmp eq i32 %_15, 2, !dbg !2025
  br i1 %_14, label %bb5, label %bb6, !dbg !2025

bb3:                                              ; preds = %bb2
  store i8 1, i8* %1, align 1, !dbg !2027
  br label %bb83, !dbg !2025

bb6:                                              ; preds = %bb4
  store i32* %ek, i32** %v.dbg.spill3, align 8, !dbg !2025
  call void @llvm.dbg.declare(metadata i32** %v.dbg.spill3, metadata !1912, metadata !DIExpression()), !dbg !2030
  %_20 = load i32, i32* %ek, align 4, !dbg !2025
  %_19 = icmp eq i32 %_20, 3, !dbg !2025
  br i1 %_19, label %bb7, label %bb8, !dbg !2025

bb5:                                              ; preds = %bb4
  store i8 2, i8* %1, align 1, !dbg !2029
  br label %bb83, !dbg !2025

bb8:                                              ; preds = %bb6
  store i32* %ek, i32** %v.dbg.spill4, align 8, !dbg !2025
  call void @llvm.dbg.declare(metadata i32** %v.dbg.spill4, metadata !1915, metadata !DIExpression()), !dbg !2031
  %_25 = load i32, i32* %ek, align 4, !dbg !2025
  %_24 = icmp eq i32 %_25, 4, !dbg !2025
  br i1 %_24, label %bb9, label %bb10, !dbg !2025

bb7:                                              ; preds = %bb6
  store i8 3, i8* %1, align 1, !dbg !2030
  br label %bb83, !dbg !2025

bb10:                                             ; preds = %bb8
  store i32* %ek, i32** %v.dbg.spill5, align 8, !dbg !2025
  call void @llvm.dbg.declare(metadata i32** %v.dbg.spill5, metadata !1918, metadata !DIExpression()), !dbg !2032
  %_30 = load i32, i32* %ek, align 4, !dbg !2025
  %_29 = icmp eq i32 %_30, 5, !dbg !2025
  br i1 %_29, label %bb11, label %bb12, !dbg !2025

bb9:                                              ; preds = %bb8
  store i8 4, i8* %1, align 1, !dbg !2031
  br label %bb83, !dbg !2025

bb12:                                             ; preds = %bb10
  store i32* %ek, i32** %v.dbg.spill6, align 8, !dbg !2025
  call void @llvm.dbg.declare(metadata i32** %v.dbg.spill6, metadata !1921, metadata !DIExpression()), !dbg !2033
  %_35 = load i32, i32* %ek, align 4, !dbg !2025
  %_34 = icmp eq i32 %_35, 6, !dbg !2025
  br i1 %_34, label %bb13, label %bb14, !dbg !2025

bb11:                                             ; preds = %bb10
  store i8 5, i8* %1, align 1, !dbg !2032
  br label %bb83, !dbg !2025

bb14:                                             ; preds = %bb12
  store i32* %ek, i32** %v.dbg.spill7, align 8, !dbg !2025
  call void @llvm.dbg.declare(metadata i32** %v.dbg.spill7, metadata !1924, metadata !DIExpression()), !dbg !2034
  %_40 = load i32, i32* %ek, align 4, !dbg !2025
  %_39 = icmp eq i32 %_40, 7, !dbg !2025
  br i1 %_39, label %bb15, label %bb16, !dbg !2025

bb13:                                             ; preds = %bb12
  store i8 6, i8* %1, align 1, !dbg !2033
  br label %bb83, !dbg !2025

bb16:                                             ; preds = %bb14
  store i32* %ek, i32** %v.dbg.spill8, align 8, !dbg !2025
  call void @llvm.dbg.declare(metadata i32** %v.dbg.spill8, metadata !1927, metadata !DIExpression()), !dbg !2035
  %_45 = load i32, i32* %ek, align 4, !dbg !2025
  %_44 = icmp eq i32 %_45, 8, !dbg !2025
  br i1 %_44, label %bb17, label %bb18, !dbg !2025

bb15:                                             ; preds = %bb14
  store i8 7, i8* %1, align 1, !dbg !2034
  br label %bb83, !dbg !2025

bb18:                                             ; preds = %bb16
  store i32* %ek, i32** %v.dbg.spill9, align 8, !dbg !2025
  call void @llvm.dbg.declare(metadata i32** %v.dbg.spill9, metadata !1930, metadata !DIExpression()), !dbg !2036
  %_50 = load i32, i32* %ek, align 4, !dbg !2025
  %_49 = icmp eq i32 %_50, 9, !dbg !2025
  br i1 %_49, label %bb19, label %bb20, !dbg !2025

bb17:                                             ; preds = %bb16
  store i8 8, i8* %1, align 1, !dbg !2035
  br label %bb83, !dbg !2025

bb20:                                             ; preds = %bb18
  store i32* %ek, i32** %v.dbg.spill10, align 8, !dbg !2025
  call void @llvm.dbg.declare(metadata i32** %v.dbg.spill10, metadata !1933, metadata !DIExpression()), !dbg !2037
  %_55 = load i32, i32* %ek, align 4, !dbg !2025
  %_54 = icmp eq i32 %_55, 10, !dbg !2025
  br i1 %_54, label %bb21, label %bb22, !dbg !2025

bb19:                                             ; preds = %bb18
  store i8 9, i8* %1, align 1, !dbg !2036
  br label %bb83, !dbg !2025

bb22:                                             ; preds = %bb20
  store i32* %ek, i32** %v.dbg.spill11, align 8, !dbg !2025
  call void @llvm.dbg.declare(metadata i32** %v.dbg.spill11, metadata !1936, metadata !DIExpression()), !dbg !2038
  %_60 = load i32, i32* %ek, align 4, !dbg !2025
  %_59 = icmp eq i32 %_60, 11, !dbg !2025
  br i1 %_59, label %bb23, label %bb24, !dbg !2025

bb21:                                             ; preds = %bb20
  store i8 10, i8* %1, align 1, !dbg !2037
  br label %bb83, !dbg !2025

bb24:                                             ; preds = %bb22
  store i32* %ek, i32** %v.dbg.spill12, align 8, !dbg !2025
  call void @llvm.dbg.declare(metadata i32** %v.dbg.spill12, metadata !1939, metadata !DIExpression()), !dbg !2039
  %_65 = load i32, i32* %ek, align 4, !dbg !2025
  %_64 = icmp eq i32 %_65, 12, !dbg !2025
  br i1 %_64, label %bb25, label %bb26, !dbg !2025

bb23:                                             ; preds = %bb22
  store i8 11, i8* %1, align 1, !dbg !2038
  br label %bb83, !dbg !2025

bb26:                                             ; preds = %bb24
  store i32* %ek, i32** %v.dbg.spill13, align 8, !dbg !2025
  call void @llvm.dbg.declare(metadata i32** %v.dbg.spill13, metadata !1942, metadata !DIExpression()), !dbg !2040
  %_70 = load i32, i32* %ek, align 4, !dbg !2025
  %_69 = icmp eq i32 %_70, 13, !dbg !2025
  br i1 %_69, label %bb27, label %bb28, !dbg !2025

bb25:                                             ; preds = %bb24
  store i8 12, i8* %1, align 1, !dbg !2039
  br label %bb83, !dbg !2025

bb28:                                             ; preds = %bb26
  store i32* %ek, i32** %v.dbg.spill14, align 8, !dbg !2025
  call void @llvm.dbg.declare(metadata i32** %v.dbg.spill14, metadata !1945, metadata !DIExpression()), !dbg !2041
  %_75 = load i32, i32* %ek, align 4, !dbg !2025
  %_74 = icmp eq i32 %_75, 14, !dbg !2025
  br i1 %_74, label %bb29, label %bb30, !dbg !2025

bb27:                                             ; preds = %bb26
  store i8 13, i8* %1, align 1, !dbg !2040
  br label %bb83, !dbg !2025

bb30:                                             ; preds = %bb28
  store i32* %ek, i32** %v.dbg.spill15, align 8, !dbg !2025
  call void @llvm.dbg.declare(metadata i32** %v.dbg.spill15, metadata !1948, metadata !DIExpression()), !dbg !2042
  %_80 = load i32, i32* %ek, align 4, !dbg !2025
  %_79 = icmp eq i32 %_80, 15, !dbg !2025
  br i1 %_79, label %bb31, label %bb32, !dbg !2025

bb29:                                             ; preds = %bb28
  store i8 14, i8* %1, align 1, !dbg !2041
  br label %bb83, !dbg !2025

bb32:                                             ; preds = %bb30
  store i32* %ek, i32** %v.dbg.spill16, align 8, !dbg !2025
  call void @llvm.dbg.declare(metadata i32** %v.dbg.spill16, metadata !1951, metadata !DIExpression()), !dbg !2043
  %_85 = load i32, i32* %ek, align 4, !dbg !2025
  %_84 = icmp eq i32 %_85, 16, !dbg !2025
  br i1 %_84, label %bb33, label %bb34, !dbg !2025

bb31:                                             ; preds = %bb30
  store i8 15, i8* %1, align 1, !dbg !2042
  br label %bb83, !dbg !2025

bb34:                                             ; preds = %bb32
  store i32* %ek, i32** %v.dbg.spill17, align 8, !dbg !2025
  call void @llvm.dbg.declare(metadata i32** %v.dbg.spill17, metadata !1954, metadata !DIExpression()), !dbg !2044
  %_90 = load i32, i32* %ek, align 4, !dbg !2025
  %_89 = icmp eq i32 %_90, 17, !dbg !2025
  br i1 %_89, label %bb35, label %bb36, !dbg !2025

bb33:                                             ; preds = %bb32
  store i8 16, i8* %1, align 1, !dbg !2043
  br label %bb83, !dbg !2025

bb36:                                             ; preds = %bb34
  store i32* %ek, i32** %v.dbg.spill18, align 8, !dbg !2025
  call void @llvm.dbg.declare(metadata i32** %v.dbg.spill18, metadata !1957, metadata !DIExpression()), !dbg !2045
  %_95 = load i32, i32* %ek, align 4, !dbg !2025
  %_94 = icmp eq i32 %_95, 18, !dbg !2025
  br i1 %_94, label %bb37, label %bb38, !dbg !2025

bb35:                                             ; preds = %bb34
  store i8 17, i8* %1, align 1, !dbg !2044
  br label %bb83, !dbg !2025

bb38:                                             ; preds = %bb36
  store i32* %ek, i32** %v.dbg.spill19, align 8, !dbg !2025
  call void @llvm.dbg.declare(metadata i32** %v.dbg.spill19, metadata !1960, metadata !DIExpression()), !dbg !2046
  %_100 = load i32, i32* %ek, align 4, !dbg !2025
  %_99 = icmp eq i32 %_100, 19, !dbg !2025
  br i1 %_99, label %bb39, label %bb40, !dbg !2025

bb37:                                             ; preds = %bb36
  store i8 18, i8* %1, align 1, !dbg !2045
  br label %bb83, !dbg !2025

bb40:                                             ; preds = %bb38
  store i32* %ek, i32** %v.dbg.spill20, align 8, !dbg !2025
  call void @llvm.dbg.declare(metadata i32** %v.dbg.spill20, metadata !1963, metadata !DIExpression()), !dbg !2047
  %_105 = load i32, i32* %ek, align 4, !dbg !2025
  %_104 = icmp eq i32 %_105, 20, !dbg !2025
  br i1 %_104, label %bb41, label %bb42, !dbg !2025

bb39:                                             ; preds = %bb38
  store i8 19, i8* %1, align 1, !dbg !2046
  br label %bb83, !dbg !2025

bb42:                                             ; preds = %bb40
  store i32* %ek, i32** %v.dbg.spill21, align 8, !dbg !2025
  call void @llvm.dbg.declare(metadata i32** %v.dbg.spill21, metadata !1966, metadata !DIExpression()), !dbg !2048
  %_110 = load i32, i32* %ek, align 4, !dbg !2025
  %_109 = icmp eq i32 %_110, 21, !dbg !2025
  br i1 %_109, label %bb43, label %bb44, !dbg !2025

bb41:                                             ; preds = %bb40
  store i8 20, i8* %1, align 1, !dbg !2047
  br label %bb83, !dbg !2025

bb44:                                             ; preds = %bb42
  store i32* %ek, i32** %v.dbg.spill22, align 8, !dbg !2025
  call void @llvm.dbg.declare(metadata i32** %v.dbg.spill22, metadata !1969, metadata !DIExpression()), !dbg !2049
  %_115 = load i32, i32* %ek, align 4, !dbg !2025
  %_114 = icmp eq i32 %_115, 22, !dbg !2025
  br i1 %_114, label %bb45, label %bb46, !dbg !2025

bb43:                                             ; preds = %bb42
  store i8 21, i8* %1, align 1, !dbg !2048
  br label %bb83, !dbg !2025

bb46:                                             ; preds = %bb44
  store i32* %ek, i32** %v.dbg.spill23, align 8, !dbg !2025
  call void @llvm.dbg.declare(metadata i32** %v.dbg.spill23, metadata !1972, metadata !DIExpression()), !dbg !2050
  %_120 = load i32, i32* %ek, align 4, !dbg !2025
  %_119 = icmp eq i32 %_120, 23, !dbg !2025
  br i1 %_119, label %bb47, label %bb48, !dbg !2025

bb45:                                             ; preds = %bb44
  store i8 22, i8* %1, align 1, !dbg !2049
  br label %bb83, !dbg !2025

bb48:                                             ; preds = %bb46
  store i32* %ek, i32** %v.dbg.spill24, align 8, !dbg !2025
  call void @llvm.dbg.declare(metadata i32** %v.dbg.spill24, metadata !1975, metadata !DIExpression()), !dbg !2051
  %_125 = load i32, i32* %ek, align 4, !dbg !2025
  %_124 = icmp eq i32 %_125, 24, !dbg !2025
  br i1 %_124, label %bb49, label %bb50, !dbg !2025

bb47:                                             ; preds = %bb46
  store i8 23, i8* %1, align 1, !dbg !2050
  br label %bb83, !dbg !2025

bb50:                                             ; preds = %bb48
  store i32* %ek, i32** %v.dbg.spill25, align 8, !dbg !2025
  call void @llvm.dbg.declare(metadata i32** %v.dbg.spill25, metadata !1978, metadata !DIExpression()), !dbg !2052
  %_130 = load i32, i32* %ek, align 4, !dbg !2025
  %_129 = icmp eq i32 %_130, 25, !dbg !2025
  br i1 %_129, label %bb51, label %bb52, !dbg !2025

bb49:                                             ; preds = %bb48
  store i8 24, i8* %1, align 1, !dbg !2051
  br label %bb83, !dbg !2025

bb52:                                             ; preds = %bb50
  store i32* %ek, i32** %v.dbg.spill26, align 8, !dbg !2025
  call void @llvm.dbg.declare(metadata i32** %v.dbg.spill26, metadata !1981, metadata !DIExpression()), !dbg !2053
  %_135 = load i32, i32* %ek, align 4, !dbg !2025
  %_134 = icmp eq i32 %_135, 26, !dbg !2025
  br i1 %_134, label %bb53, label %bb54, !dbg !2025

bb51:                                             ; preds = %bb50
  store i8 25, i8* %1, align 1, !dbg !2052
  br label %bb83, !dbg !2025

bb54:                                             ; preds = %bb52
  store i32* %ek, i32** %v.dbg.spill27, align 8, !dbg !2025
  call void @llvm.dbg.declare(metadata i32** %v.dbg.spill27, metadata !1984, metadata !DIExpression()), !dbg !2054
  %_140 = load i32, i32* %ek, align 4, !dbg !2025
  %_139 = icmp eq i32 %_140, 27, !dbg !2025
  br i1 %_139, label %bb55, label %bb56, !dbg !2025

bb53:                                             ; preds = %bb52
  store i8 26, i8* %1, align 1, !dbg !2053
  br label %bb83, !dbg !2025

bb56:                                             ; preds = %bb54
  store i32* %ek, i32** %v.dbg.spill28, align 8, !dbg !2025
  call void @llvm.dbg.declare(metadata i32** %v.dbg.spill28, metadata !1987, metadata !DIExpression()), !dbg !2055
  %_145 = load i32, i32* %ek, align 4, !dbg !2025
  %_144 = icmp eq i32 %_145, 28, !dbg !2025
  br i1 %_144, label %bb57, label %bb58, !dbg !2025

bb55:                                             ; preds = %bb54
  store i8 27, i8* %1, align 1, !dbg !2054
  br label %bb83, !dbg !2025

bb58:                                             ; preds = %bb56
  store i32* %ek, i32** %v.dbg.spill29, align 8, !dbg !2025
  call void @llvm.dbg.declare(metadata i32** %v.dbg.spill29, metadata !1990, metadata !DIExpression()), !dbg !2056
  %_150 = load i32, i32* %ek, align 4, !dbg !2025
  %_149 = icmp eq i32 %_150, 29, !dbg !2025
  br i1 %_149, label %bb59, label %bb60, !dbg !2025

bb57:                                             ; preds = %bb56
  store i8 28, i8* %1, align 1, !dbg !2055
  br label %bb83, !dbg !2025

bb60:                                             ; preds = %bb58
  store i32* %ek, i32** %v.dbg.spill30, align 8, !dbg !2025
  call void @llvm.dbg.declare(metadata i32** %v.dbg.spill30, metadata !1993, metadata !DIExpression()), !dbg !2057
  %_155 = load i32, i32* %ek, align 4, !dbg !2025
  %_154 = icmp eq i32 %_155, 30, !dbg !2025
  br i1 %_154, label %bb61, label %bb62, !dbg !2025

bb59:                                             ; preds = %bb58
  store i8 29, i8* %1, align 1, !dbg !2056
  br label %bb83, !dbg !2025

bb62:                                             ; preds = %bb60
  store i32* %ek, i32** %v.dbg.spill31, align 8, !dbg !2025
  call void @llvm.dbg.declare(metadata i32** %v.dbg.spill31, metadata !1996, metadata !DIExpression()), !dbg !2058
  %_160 = load i32, i32* %ek, align 4, !dbg !2025
  %_159 = icmp eq i32 %_160, 31, !dbg !2025
  br i1 %_159, label %bb63, label %bb64, !dbg !2025

bb61:                                             ; preds = %bb60
  store i8 30, i8* %1, align 1, !dbg !2057
  br label %bb83, !dbg !2025

bb64:                                             ; preds = %bb62
  store i32* %ek, i32** %v.dbg.spill32, align 8, !dbg !2025
  call void @llvm.dbg.declare(metadata i32** %v.dbg.spill32, metadata !1999, metadata !DIExpression()), !dbg !2059
  %_165 = load i32, i32* %ek, align 4, !dbg !2025
  %_164 = icmp eq i32 %_165, 32, !dbg !2025
  br i1 %_164, label %bb65, label %bb66, !dbg !2025

bb63:                                             ; preds = %bb62
  store i8 31, i8* %1, align 1, !dbg !2058
  br label %bb83, !dbg !2025

bb66:                                             ; preds = %bb64
  store i32* %ek, i32** %v.dbg.spill33, align 8, !dbg !2025
  call void @llvm.dbg.declare(metadata i32** %v.dbg.spill33, metadata !2002, metadata !DIExpression()), !dbg !2060
  %_170 = load i32, i32* %ek, align 4, !dbg !2025
  %_169 = icmp eq i32 %_170, 33, !dbg !2025
  br i1 %_169, label %bb67, label %bb68, !dbg !2025

bb65:                                             ; preds = %bb64
  store i8 32, i8* %1, align 1, !dbg !2059
  br label %bb83, !dbg !2025

bb68:                                             ; preds = %bb66
  store i32* %ek, i32** %v.dbg.spill34, align 8, !dbg !2025
  call void @llvm.dbg.declare(metadata i32** %v.dbg.spill34, metadata !2005, metadata !DIExpression()), !dbg !2061
  %_175 = load i32, i32* %ek, align 4, !dbg !2025
  %_174 = icmp eq i32 %_175, 34, !dbg !2025
  br i1 %_174, label %bb69, label %bb70, !dbg !2025

bb67:                                             ; preds = %bb66
  store i8 33, i8* %1, align 1, !dbg !2060
  br label %bb83, !dbg !2025

bb70:                                             ; preds = %bb68
  store i32* %ek, i32** %v.dbg.spill35, align 8, !dbg !2025
  call void @llvm.dbg.declare(metadata i32** %v.dbg.spill35, metadata !2008, metadata !DIExpression()), !dbg !2062
  %_180 = load i32, i32* %ek, align 4, !dbg !2025
  %_179 = icmp eq i32 %_180, 35, !dbg !2025
  br i1 %_179, label %bb71, label %bb72, !dbg !2025

bb69:                                             ; preds = %bb68
  store i8 34, i8* %1, align 1, !dbg !2061
  br label %bb83, !dbg !2025

bb72:                                             ; preds = %bb70
  store i32* %ek, i32** %v.dbg.spill36, align 8, !dbg !2025
  call void @llvm.dbg.declare(metadata i32** %v.dbg.spill36, metadata !2011, metadata !DIExpression()), !dbg !2063
  %_185 = load i32, i32* %ek, align 4, !dbg !2025
  %_184 = icmp eq i32 %_185, 39, !dbg !2025
  br i1 %_184, label %bb73, label %bb74, !dbg !2025

bb71:                                             ; preds = %bb70
  store i8 35, i8* %1, align 1, !dbg !2062
  br label %bb83, !dbg !2025

bb74:                                             ; preds = %bb72
  store i32* %ek, i32** %v.dbg.spill37, align 8, !dbg !2025
  call void @llvm.dbg.declare(metadata i32** %v.dbg.spill37, metadata !2014, metadata !DIExpression()), !dbg !2064
  %_190 = load i32, i32* %ek, align 4, !dbg !2025
  %_189 = icmp eq i32 %_190, 37, !dbg !2025
  br i1 %_189, label %bb75, label %bb76, !dbg !2025

bb73:                                             ; preds = %bb72
  store i8 39, i8* %1, align 1, !dbg !2063
  br label %bb83, !dbg !2025

bb76:                                             ; preds = %bb74
  store i32* %ek, i32** %v.dbg.spill38, align 8, !dbg !2025
  call void @llvm.dbg.declare(metadata i32** %v.dbg.spill38, metadata !2017, metadata !DIExpression()), !dbg !2065
  %_195 = load i32, i32* %ek, align 4, !dbg !2025
  %_194 = icmp eq i32 %_195, 36, !dbg !2025
  br i1 %_194, label %bb77, label %bb78, !dbg !2025

bb75:                                             ; preds = %bb74
  store i8 37, i8* %1, align 1, !dbg !2064
  br label %bb83, !dbg !2025

bb78:                                             ; preds = %bb76
  store i32* %ek, i32** %v.dbg.spill39, align 8, !dbg !2025
  call void @llvm.dbg.declare(metadata i32** %v.dbg.spill39, metadata !2020, metadata !DIExpression()), !dbg !2066
  %_200 = load i32, i32* %ek, align 4, !dbg !2025
  %_199 = icmp eq i32 %_200, 38, !dbg !2025
  br i1 %_199, label %bb79, label %bb80, !dbg !2025

bb77:                                             ; preds = %bb76
  store i8 36, i8* %1, align 1, !dbg !2065
  br label %bb83, !dbg !2025

bb80:                                             ; preds = %bb78
  store i32* %ek, i32** %v.dbg.spill40, align 8, !dbg !2025
  call void @llvm.dbg.declare(metadata i32** %v.dbg.spill40, metadata !2023, metadata !DIExpression()), !dbg !2067
  %_205 = load i32, i32* %ek, align 4, !dbg !2025
  %_204 = icmp eq i32 %_205, 40, !dbg !2025
  br i1 %_204, label %bb81, label %bb82, !dbg !2025

bb79:                                             ; preds = %bb78
  store i8 38, i8* %1, align 1, !dbg !2066
  br label %bb83, !dbg !2025

bb82:                                             ; preds = %bb80
  store i8 41, i8* %1, align 1, !dbg !2025
  br label %bb83, !dbg !2025

bb81:                                             ; preds = %bb80
  store i8 40, i8* %1, align 1, !dbg !2067
  br label %bb83, !dbg !2025
}

; std::io::error::repr_bitpacked::Repr::data::{{closure}}
; Function Attrs: inlinehint nonlazybind uwtable
define internal align 8 %"std::io::error::Custom"* @"_ZN3std2io5error14repr_bitpacked4Repr4data28_$u7b$$u7b$closure$u7d$$u7d$17h91d470cf80812eadE"(%"std::io::error::Custom"* %c) unnamed_addr #0 !dbg !2068 {
start:
  %c.dbg.spill = alloca %"std::io::error::Custom"*, align 8
  %_1.dbg.spill = alloca %"[closure@std::io::error::repr_bitpacked::Repr::data::{closure#0}]", align 1
  call void @llvm.dbg.declare(metadata %"[closure@std::io::error::repr_bitpacked::Repr::data::{closure#0}]"* %_1.dbg.spill, metadata !2073, metadata !DIExpression()), !dbg !2074
  store %"std::io::error::Custom"* %c, %"std::io::error::Custom"** %c.dbg.spill, align 8
  call void @llvm.dbg.declare(metadata %"std::io::error::Custom"** %c.dbg.spill, metadata !2072, metadata !DIExpression()), !dbg !2075
  ret %"std::io::error::Custom"* %c, !dbg !2076
}

; std::io::error::Error::raw_os_error
; Function Attrs: inlinehint nonlazybind uwtable
define internal { i32, i32 } @_ZN3std2io5error5Error12raw_os_error17h283cadfcf9f7bbb8E(i8** align 8 %self) unnamed_addr #0 !dbg !2077 {
start:
  %i.dbg.spill = alloca i32, align 4
  %self.dbg.spill1 = alloca i8**, align 8
  %self.dbg.spill = alloca i8**, align 8
  %_2 = alloca %"std::io::error::ErrorData<&std::io::error::Custom>", align 8
  %0 = alloca { i32, i32 }, align 4
  store i8** %self, i8*** %self.dbg.spill, align 8
  call void @llvm.dbg.declare(metadata i8*** %self.dbg.spill, metadata !2096, metadata !DIExpression()), !dbg !2099
  store i8** %self, i8*** %self.dbg.spill1, align 8, !dbg !2100
  call void @llvm.dbg.declare(metadata i8*** %self.dbg.spill1, metadata !2101, metadata !DIExpression()), !dbg !2108
  %_7 = load i8*, i8** %self, align 8, !dbg !2108, !nonnull !23, !noundef !23
; call std::io::error::repr_bitpacked::decode_repr
  call void @_ZN3std2io5error14repr_bitpacked11decode_repr17hb4277e81a88c442fE(%"std::io::error::ErrorData<&std::io::error::Custom>"* sret(%"std::io::error::ErrorData<&std::io::error::Custom>") %_2, i8* %_7), !dbg !2108
  br label %bb7, !dbg !2108

bb7:                                              ; preds = %start
  %1 = bitcast %"std::io::error::ErrorData<&std::io::error::Custom>"* %_2 to i8*, !dbg !2100
  %2 = load i8, i8* %1, align 8, !dbg !2100, !range !2109, !noundef !23
  %_4 = zext i8 %2 to i64, !dbg !2100
  switch i64 %_4, label %bb2 [
    i64 0, label %bb3
    i64 1, label %bb5
    i64 2, label %bb1
    i64 3, label %bb4
  ], !dbg !2110

bb2:                                              ; preds = %bb7
  unreachable, !dbg !2100

bb3:                                              ; preds = %bb7
  %3 = bitcast %"std::io::error::ErrorData<&std::io::error::Custom>"* %_2 to %"std::io::error::ErrorData<&std::io::error::Custom>::Os"*, !dbg !2111
  %4 = getelementptr inbounds %"std::io::error::ErrorData<&std::io::error::Custom>::Os", %"std::io::error::ErrorData<&std::io::error::Custom>::Os"* %3, i32 0, i32 1, !dbg !2111
  %i = load i32, i32* %4, align 4, !dbg !2111
  store i32 %i, i32* %i.dbg.spill, align 4, !dbg !2111
  call void @llvm.dbg.declare(metadata i32* %i.dbg.spill, metadata !2097, metadata !DIExpression()), !dbg !2112
  %5 = getelementptr inbounds { i32, i32 }, { i32, i32 }* %0, i32 0, i32 1, !dbg !2113
  store i32 %i, i32* %5, align 4, !dbg !2113
  %6 = bitcast { i32, i32 }* %0 to i32*, !dbg !2113
  store i32 1, i32* %6, align 4, !dbg !2113
  br label %bb6, !dbg !2114

bb5:                                              ; preds = %bb7
  %7 = bitcast { i32, i32 }* %0 to i32*, !dbg !2115
  store i32 0, i32* %7, align 4, !dbg !2115
  br label %bb6, !dbg !2115

bb1:                                              ; preds = %bb7
  %8 = bitcast { i32, i32 }* %0 to i32*, !dbg !2116
  store i32 0, i32* %8, align 4, !dbg !2116
  br label %bb6, !dbg !2116

bb4:                                              ; preds = %bb7
  %9 = bitcast { i32, i32 }* %0 to i32*, !dbg !2117
  store i32 0, i32* %9, align 4, !dbg !2117
  br label %bb6, !dbg !2117

bb6:                                              ; preds = %bb3, %bb5, %bb1, %bb4
  %10 = getelementptr inbounds { i32, i32 }, { i32, i32 }* %0, i32 0, i32 0, !dbg !2118
  %11 = load i32, i32* %10, align 4, !dbg !2118, !range !2119, !noundef !23
  %12 = getelementptr inbounds { i32, i32 }, { i32, i32 }* %0, i32 0, i32 1, !dbg !2118
  %13 = load i32, i32* %12, align 4, !dbg !2118
  %14 = insertvalue { i32, i32 } undef, i32 %11, 0, !dbg !2118
  %15 = insertvalue { i32, i32 } %14, i32 %13, 1, !dbg !2118
  ret { i32, i32 } %15, !dbg !2118
}

; std::io::error::Error::kind
; Function Attrs: inlinehint nonlazybind uwtable
define internal i8 @_ZN3std2io5error5Error4kind17hb897bc90290f2ae5E(i8** align 8 %self) unnamed_addr #0 !dbg !2120 {
start:
  %code.dbg.spill = alloca i32, align 4
  %kind.dbg.spill = alloca i8, align 1
  %m.dbg.spill = alloca %"std::io::error::SimpleMessage"*, align 8
  %c.dbg.spill = alloca %"std::io::error::Custom"*, align 8
  %self.dbg.spill1 = alloca i8**, align 8
  %self.dbg.spill = alloca i8**, align 8
  %_2 = alloca %"std::io::error::ErrorData<&std::io::error::Custom>", align 8
  %0 = alloca i8, align 1
  store i8** %self, i8*** %self.dbg.spill, align 8
  call void @llvm.dbg.declare(metadata i8*** %self.dbg.spill, metadata !2124, metadata !DIExpression()), !dbg !2133
  store i8** %self, i8*** %self.dbg.spill1, align 8, !dbg !2134
  call void @llvm.dbg.declare(metadata i8*** %self.dbg.spill1, metadata !2135, metadata !DIExpression()), !dbg !2139
  %_10 = load i8*, i8** %self, align 8, !dbg !2139, !nonnull !23, !noundef !23
; call std::io::error::repr_bitpacked::decode_repr
  call void @_ZN3std2io5error14repr_bitpacked11decode_repr17hb4277e81a88c442fE(%"std::io::error::ErrorData<&std::io::error::Custom>"* sret(%"std::io::error::ErrorData<&std::io::error::Custom>") %_2, i8* %_10), !dbg !2139
  br label %bb8, !dbg !2139

bb8:                                              ; preds = %start
  %1 = bitcast %"std::io::error::ErrorData<&std::io::error::Custom>"* %_2 to i8*, !dbg !2134
  %2 = load i8, i8* %1, align 8, !dbg !2134, !range !2109, !noundef !23
  %_4 = zext i8 %2 to i64, !dbg !2134
  switch i64 %_4, label %bb2 [
    i64 0, label %bb3
    i64 1, label %bb6
    i64 2, label %bb1
    i64 3, label %bb5
  ], !dbg !2140

bb2:                                              ; preds = %bb8
  unreachable, !dbg !2134

bb3:                                              ; preds = %bb8
  %3 = bitcast %"std::io::error::ErrorData<&std::io::error::Custom>"* %_2 to %"std::io::error::ErrorData<&std::io::error::Custom>::Os"*, !dbg !2141
  %4 = getelementptr inbounds %"std::io::error::ErrorData<&std::io::error::Custom>::Os", %"std::io::error::ErrorData<&std::io::error::Custom>::Os"* %3, i32 0, i32 1, !dbg !2141
  %code = load i32, i32* %4, align 4, !dbg !2141
  store i32 %code, i32* %code.dbg.spill, align 4, !dbg !2141
  call void @llvm.dbg.declare(metadata i32* %code.dbg.spill, metadata !2125, metadata !DIExpression()), !dbg !2142
; call std::sys::unix::decode_error_kind
  %5 = call i8 @_ZN3std3sys4unix17decode_error_kind17hddbacf084bae3705E(i32 %code), !dbg !2143, !range !1572
  store i8 %5, i8* %0, align 1, !dbg !2143
  br label %bb4, !dbg !2143

bb6:                                              ; preds = %bb8
  %6 = bitcast %"std::io::error::ErrorData<&std::io::error::Custom>"* %_2 to %"std::io::error::ErrorData<&std::io::error::Custom>::Simple"*, !dbg !2144
  %7 = getelementptr inbounds %"std::io::error::ErrorData<&std::io::error::Custom>::Simple", %"std::io::error::ErrorData<&std::io::error::Custom>::Simple"* %6, i32 0, i32 1, !dbg !2144
  %kind = load i8, i8* %7, align 1, !dbg !2144, !range !1572, !noundef !23
  store i8 %kind, i8* %kind.dbg.spill, align 1, !dbg !2144
  call void @llvm.dbg.declare(metadata i8* %kind.dbg.spill, metadata !2129, metadata !DIExpression()), !dbg !2145
  store i8 %kind, i8* %0, align 1, !dbg !2146
  br label %bb7, !dbg !2147

bb1:                                              ; preds = %bb8
  %8 = bitcast %"std::io::error::ErrorData<&std::io::error::Custom>"* %_2 to %"std::io::error::ErrorData<&std::io::error::Custom>::SimpleMessage"*, !dbg !2148
  %9 = getelementptr inbounds %"std::io::error::ErrorData<&std::io::error::Custom>::SimpleMessage", %"std::io::error::ErrorData<&std::io::error::Custom>::SimpleMessage"* %8, i32 0, i32 1, !dbg !2148
  %m = load %"std::io::error::SimpleMessage"*, %"std::io::error::SimpleMessage"** %9, align 8, !dbg !2148, !nonnull !23, !align !266, !noundef !23
  store %"std::io::error::SimpleMessage"* %m, %"std::io::error::SimpleMessage"** %m.dbg.spill, align 8, !dbg !2148
  call void @llvm.dbg.declare(metadata %"std::io::error::SimpleMessage"** %m.dbg.spill, metadata !2131, metadata !DIExpression()), !dbg !2149
  %10 = getelementptr inbounds %"std::io::error::SimpleMessage", %"std::io::error::SimpleMessage"* %m, i32 0, i32 1, !dbg !2150
  %11 = load i8, i8* %10, align 8, !dbg !2150, !range !1572, !noundef !23
  store i8 %11, i8* %0, align 1, !dbg !2150
  br label %bb7, !dbg !2151

bb5:                                              ; preds = %bb8
  %12 = bitcast %"std::io::error::ErrorData<&std::io::error::Custom>"* %_2 to %"std::io::error::ErrorData<&std::io::error::Custom>::Custom"*, !dbg !2152
  %13 = getelementptr inbounds %"std::io::error::ErrorData<&std::io::error::Custom>::Custom", %"std::io::error::ErrorData<&std::io::error::Custom>::Custom"* %12, i32 0, i32 1, !dbg !2152
  %c = load %"std::io::error::Custom"*, %"std::io::error::Custom"** %13, align 8, !dbg !2152, !nonnull !23, !align !266, !noundef !23
  store %"std::io::error::Custom"* %c, %"std::io::error::Custom"** %c.dbg.spill, align 8, !dbg !2152
  call void @llvm.dbg.declare(metadata %"std::io::error::Custom"** %c.dbg.spill, metadata !2127, metadata !DIExpression()), !dbg !2153
  %14 = getelementptr inbounds %"std::io::error::Custom", %"std::io::error::Custom"* %c, i32 0, i32 1, !dbg !2154
  %15 = load i8, i8* %14, align 8, !dbg !2154, !range !1572, !noundef !23
  store i8 %15, i8* %0, align 1, !dbg !2154
  br label %bb7, !dbg !2155

bb7:                                              ; preds = %bb4, %bb6, %bb1, %bb5
  %16 = load i8, i8* %0, align 1, !dbg !2156, !range !1572, !noundef !23
  ret i8 %16, !dbg !2156

bb4:                                              ; preds = %bb3
  br label %bb7, !dbg !2157
}

; std::rt::lang_start
; Function Attrs: nonlazybind uwtable
define hidden i64 @_ZN3std2rt10lang_start17h5c1ca33e1201df60E(void ()* %main, i64 %argc, i8** %argv) unnamed_addr #1 !dbg !2158 {
start:
  %v.dbg.spill = alloca i64, align 8
  %argv.dbg.spill = alloca i8**, align 8
  %argc.dbg.spill = alloca i64, align 8
  %main.dbg.spill = alloca void ()*, align 8
  %_8 = alloca i64*, align 8
  %_4 = alloca i64, align 8
  store void ()* %main, void ()** %main.dbg.spill, align 8
  call void @llvm.dbg.declare(metadata void ()** %main.dbg.spill, metadata !2164, metadata !DIExpression()), !dbg !2169
  store i64 %argc, i64* %argc.dbg.spill, align 8
  call void @llvm.dbg.declare(metadata i64* %argc.dbg.spill, metadata !2165, metadata !DIExpression()), !dbg !2170
  store i8** %argv, i8*** %argv.dbg.spill, align 8
  call void @llvm.dbg.declare(metadata i8*** %argv.dbg.spill, metadata !2166, metadata !DIExpression()), !dbg !2171
  %0 = bitcast i64** %_8 to void ()**, !dbg !2172
  store void ()* %main, void ()** %0, align 8, !dbg !2172
  %_5.0 = bitcast i64** %_8 to {}*, !dbg !2173
; call std::rt::lang_start_internal
  %1 = call i64 @_ZN3std2rt19lang_start_internal17h498f9556b87c8e5fE({}* align 1 %_5.0, [3 x i64]* align 8 bitcast (<{ i8*, [16 x i8], i8*, i8*, i8* }>* @vtable.0 to [3 x i64]*), i64 %argc, i8** %argv), !dbg !2174
  store i64 %1, i64* %_4, align 8, !dbg !2174
  br label %bb1, !dbg !2174

bb1:                                              ; preds = %start
  %v = load i64, i64* %_4, align 8, !dbg !2175
  store i64 %v, i64* %v.dbg.spill, align 8, !dbg !2175
  call void @llvm.dbg.declare(metadata i64* %v.dbg.spill, metadata !2167, metadata !DIExpression()), !dbg !2176
  ret i64 %v, !dbg !2177
}

; std::rt::lang_start::{{closure}}
; Function Attrs: inlinehint nonlazybind uwtable
define internal i32 @"_ZN3std2rt10lang_start28_$u7b$$u7b$closure$u7d$$u7d$17h6236b43e6f11bf96E"(i64** align 8 %_1) unnamed_addr #0 !dbg !2178 {
start:
  %self.dbg.spill = alloca i8*, align 8
  %_1.dbg.spill = alloca i64**, align 8
  %self = alloca i8, align 1
  store i64** %_1, i64*** %_1.dbg.spill, align 8
  %0 = load i64**, i64*** %_1.dbg.spill, align 8, !nonnull !23, !align !266, !noundef !23
  %1 = bitcast i64** %0 to void ()**
  call void @llvm.dbg.declare(metadata i64*** %_1.dbg.spill, metadata !2183, metadata !DIExpression(DW_OP_deref)), !dbg !2184
  call void @llvm.dbg.declare(metadata i8* %self, metadata !2185, metadata !DIExpression()), !dbg !2201
  %2 = bitcast i64** %_1 to void ()**, !dbg !2203
  %_4 = load void ()*, void ()** %2, align 8, !dbg !2203, !nonnull !23, !noundef !23
; call std::sys_common::backtrace::__rust_begin_short_backtrace
  call void @_ZN3std10sys_common9backtrace28__rust_begin_short_backtrace17h041132f6fb8d3930E(void ()* %_4), !dbg !2202
  br label %bb1, !dbg !2202

bb1:                                              ; preds = %start
; call <() as std::process::Termination>::report
  %3 = call i8 @"_ZN54_$LT$$LP$$RP$$u20$as$u20$std..process..Termination$GT$6report17h6073514ca68e756aE"(), !dbg !2202
  store i8 %3, i8* %self, align 1, !dbg !2202
  br label %bb2, !dbg !2202

bb2:                                              ; preds = %bb1
  store i8* %self, i8** %self.dbg.spill, align 8, !dbg !2201
  call void @llvm.dbg.declare(metadata i8** %self.dbg.spill, metadata !2204, metadata !DIExpression()), !dbg !2212
  %_6 = load i8, i8* %self, align 1, !dbg !2212
  %4 = zext i8 %_6 to i32, !dbg !2212
  ret i32 %4, !dbg !2214
}

; std::env::var
; Function Attrs: nonlazybind uwtable
define internal void @_ZN3std3env3var17h3606d7a593f82cf0E(%"core::result::Result<alloc::string::String, std::env::VarError>"* sret(%"core::result::Result<alloc::string::String, std::env::VarError>") %0, [0 x i8]* align 1 %1, i64 %2) unnamed_addr #1 personality i32 (i32, i32, i64, %"unwind::libunwind::_Unwind_Exception"*, %"unwind::libunwind::_Unwind_Context"*)* @rust_eh_personality !dbg !2215 {
start:
  %3 = alloca { i8*, i32 }, align 8
  %key = alloca { [0 x i8]*, i64 }, align 8
  %4 = getelementptr inbounds { [0 x i8]*, i64 }, { [0 x i8]*, i64 }* %key, i32 0, i32 0
  store [0 x i8]* %1, [0 x i8]** %4, align 8
  %5 = getelementptr inbounds { [0 x i8]*, i64 }, { [0 x i8]*, i64 }* %key, i32 0, i32 1
  store i64 %2, i64* %5, align 8
  call void @llvm.dbg.declare(metadata { [0 x i8]*, i64 }* %key, metadata !2252, metadata !DIExpression()), !dbg !2255
; invoke <&T as core::convert::AsRef<U>>::as_ref
  %6 = invoke { %"std::ffi::os_str::OsStr"*, i64 } @"_ZN55_$LT$$RF$T$u20$as$u20$core..convert..AsRef$LT$U$GT$$GT$6as_ref17h52a0cb8a9a744e87E"({ [0 x i8]*, i64 }* align 8 %key)
          to label %bb1 unwind label %cleanup, !dbg !2256

bb4:                                              ; preds = %cleanup
  br label %bb5, !dbg !2257

cleanup:                                          ; preds = %bb1, %start
  %7 = landingpad { i8*, i32 }
          cleanup
  %8 = extractvalue { i8*, i32 } %7, 0
  %9 = extractvalue { i8*, i32 } %7, 1
  %10 = getelementptr inbounds { i8*, i32 }, { i8*, i32 }* %3, i32 0, i32 0
  store i8* %8, i8** %10, align 8
  %11 = getelementptr inbounds { i8*, i32 }, { i8*, i32 }* %3, i32 0, i32 1
  store i32 %9, i32* %11, align 8
  br label %bb4

bb1:                                              ; preds = %start
  %_3.0 = extractvalue { %"std::ffi::os_str::OsStr"*, i64 } %6, 0, !dbg !2256
  %_3.1 = extractvalue { %"std::ffi::os_str::OsStr"*, i64 } %6, 1, !dbg !2256
; invoke std::env::_var
  invoke void @_ZN3std3env4_var17h48effbaa8b2613b5E(%"core::result::Result<alloc::string::String, std::env::VarError>"* sret(%"core::result::Result<alloc::string::String, std::env::VarError>") %0, %"std::ffi::os_str::OsStr"* align 1 %_3.0, i64 %_3.1)
          to label %bb2 unwind label %cleanup, !dbg !2258

bb2:                                              ; preds = %bb1
  br label %bb3, !dbg !2257

bb5:                                              ; preds = %bb4
  %12 = bitcast { i8*, i32 }* %3 to i8**, !dbg !2259
  %13 = load i8*, i8** %12, align 8, !dbg !2259
  %14 = getelementptr inbounds { i8*, i32 }, { i8*, i32 }* %3, i32 0, i32 1, !dbg !2259
  %15 = load i32, i32* %14, align 8, !dbg !2259
  %16 = insertvalue { i8*, i32 } undef, i8* %13, 0, !dbg !2259
  %17 = insertvalue { i8*, i32 } %16, i32 %15, 1, !dbg !2259
  resume { i8*, i32 } %17, !dbg !2259

bb3:                                              ; preds = %bb2
  ret void, !dbg !2260
}

; std::env::var_os
; Function Attrs: nonlazybind uwtable
define internal void @_ZN3std3env6var_os17h818c8b55dd12ab8cE(%"core::option::Option<std::ffi::os_str::OsString>"* sret(%"core::option::Option<std::ffi::os_str::OsString>") %0, [0 x i8]* align 1 %1, i64 %2) unnamed_addr #1 personality i32 (i32, i32, i64, %"unwind::libunwind::_Unwind_Exception"*, %"unwind::libunwind::_Unwind_Context"*)* @rust_eh_personality !dbg !2261 {
start:
  %3 = alloca { i8*, i32 }, align 8
  %key = alloca { [0 x i8]*, i64 }, align 8
  %4 = getelementptr inbounds { [0 x i8]*, i64 }, { [0 x i8]*, i64 }* %key, i32 0, i32 0
  store [0 x i8]* %1, [0 x i8]** %4, align 8
  %5 = getelementptr inbounds { [0 x i8]*, i64 }, { [0 x i8]*, i64 }* %key, i32 0, i32 1
  store i64 %2, i64* %5, align 8
  call void @llvm.dbg.declare(metadata { [0 x i8]*, i64 }* %key, metadata !2265, metadata !DIExpression()), !dbg !2266
; invoke <&T as core::convert::AsRef<U>>::as_ref
  %6 = invoke { %"std::ffi::os_str::OsStr"*, i64 } @"_ZN55_$LT$$RF$T$u20$as$u20$core..convert..AsRef$LT$U$GT$$GT$6as_ref17h52a0cb8a9a744e87E"({ [0 x i8]*, i64 }* align 8 %key)
          to label %bb1 unwind label %cleanup, !dbg !2267

bb4:                                              ; preds = %cleanup
  br label %bb5, !dbg !2268

cleanup:                                          ; preds = %bb1, %start
  %7 = landingpad { i8*, i32 }
          cleanup
  %8 = extractvalue { i8*, i32 } %7, 0
  %9 = extractvalue { i8*, i32 } %7, 1
  %10 = getelementptr inbounds { i8*, i32 }, { i8*, i32 }* %3, i32 0, i32 0
  store i8* %8, i8** %10, align 8
  %11 = getelementptr inbounds { i8*, i32 }, { i8*, i32 }* %3, i32 0, i32 1
  store i32 %9, i32* %11, align 8
  br label %bb4

bb1:                                              ; preds = %start
  %_3.0 = extractvalue { %"std::ffi::os_str::OsStr"*, i64 } %6, 0, !dbg !2267
  %_3.1 = extractvalue { %"std::ffi::os_str::OsStr"*, i64 } %6, 1, !dbg !2267
; invoke std::env::_var_os
  invoke void @_ZN3std3env7_var_os17h2f2f6465d9e6a0ebE(%"core::option::Option<std::ffi::os_str::OsString>"* sret(%"core::option::Option<std::ffi::os_str::OsString>") %0, %"std::ffi::os_str::OsStr"* align 1 %_3.0, i64 %_3.1)
          to label %bb2 unwind label %cleanup, !dbg !2269

bb2:                                              ; preds = %bb1
  br label %bb3, !dbg !2268

bb5:                                              ; preds = %bb4
  %12 = bitcast { i8*, i32 }* %3 to i8**, !dbg !2270
  %13 = load i8*, i8** %12, align 8, !dbg !2270
  %14 = getelementptr inbounds { i8*, i32 }, { i8*, i32 }* %3, i32 0, i32 1, !dbg !2270
  %15 = load i32, i32* %14, align 8, !dbg !2270
  %16 = insertvalue { i8*, i32 } undef, i8* %13, 0, !dbg !2270
  %17 = insertvalue { i8*, i32 } %16, i32 %15, 1, !dbg !2270
  resume { i8*, i32 } %17, !dbg !2270

bb3:                                              ; preds = %bb2
  ret void, !dbg !2271
}

; std::ffi::os_str::OsStr::is_empty
; Function Attrs: inlinehint nonlazybind uwtable
define internal zeroext i1 @_ZN3std3ffi6os_str5OsStr8is_empty17h191fb2a8357334efE(%"std::ffi::os_str::OsStr"* align 1 %self.0, i64 %self.1) unnamed_addr #0 !dbg !2272 {
start:
  %self.dbg.spill2 = alloca { [0 x i8]*, i64 }, align 8
  %self.dbg.spill = alloca { %"std::ffi::os_str::OsStr"*, i64 }, align 8
  %0 = getelementptr inbounds { %"std::ffi::os_str::OsStr"*, i64 }, { %"std::ffi::os_str::OsStr"*, i64 }* %self.dbg.spill, i32 0, i32 0
  store %"std::ffi::os_str::OsStr"* %self.0, %"std::ffi::os_str::OsStr"** %0, align 8
  %1 = getelementptr inbounds { %"std::ffi::os_str::OsStr"*, i64 }, { %"std::ffi::os_str::OsStr"*, i64 }* %self.dbg.spill, i32 0, i32 1
  store i64 %self.1, i64* %1, align 8
  call void @llvm.dbg.declare(metadata { %"std::ffi::os_str::OsStr"*, i64 }* %self.dbg.spill, metadata !2282, metadata !DIExpression()), !dbg !2283
  %2 = mul nsw i64 %self.1, 1, !dbg !2284
  %3 = add i64 0, %2, !dbg !2284
  %4 = add i64 %3, 0, !dbg !2284
  %5 = and i64 %4, -1, !dbg !2284
  %6 = bitcast %"std::ffi::os_str::OsStr"* %self.0 to i8*, !dbg !2284
  %7 = getelementptr i8, i8* %6, i64 0, !dbg !2284
  %8 = bitcast i8* %7 to %"std::sys::unix::os_str::Slice"*, !dbg !2284
  %self.01 = bitcast %"std::sys::unix::os_str::Slice"* %8 to [0 x i8]*, !dbg !2284
  %9 = getelementptr inbounds { [0 x i8]*, i64 }, { [0 x i8]*, i64 }* %self.dbg.spill2, i32 0, i32 0, !dbg !2284
  store [0 x i8]* %self.01, [0 x i8]** %9, align 8, !dbg !2284
  %10 = getelementptr inbounds { [0 x i8]*, i64 }, { [0 x i8]*, i64 }* %self.dbg.spill2, i32 0, i32 1, !dbg !2284
  store i64 %self.1, i64* %10, align 8, !dbg !2284
  call void @llvm.dbg.declare(metadata { [0 x i8]*, i64 }* %self.dbg.spill2, metadata !2285, metadata !DIExpression()), !dbg !2293
  %11 = icmp eq i64 %self.1, 0, !dbg !2293
  ret i1 %11, !dbg !2294
}

; std::ffi::os_str::<impl core::convert::AsRef<std::ffi::os_str::OsStr> for str>::as_ref
; Function Attrs: inlinehint nonlazybind uwtable
define internal { %"std::ffi::os_str::OsStr"*, i64 } @"_ZN3std3ffi6os_str85_$LT$impl$u20$core..convert..AsRef$LT$std..ffi..os_str..OsStr$GT$$u20$for$u20$str$GT$6as_ref17h1cd6b2197129086dE"([0 x i8]* align 1 %self.0, i64 %self.1) unnamed_addr #0 !dbg !2295 {
start:
  %inner.dbg.spill = alloca { %"std::sys::unix::os_str::Slice"*, i64 }, align 8
  %0 = alloca { %"std::sys::unix::os_str::Slice"*, i64 }, align 8
  %s.dbg.spill2 = alloca { [0 x i8]*, i64 }, align 8
  %1 = alloca { [0 x i8]*, i64 }, align 8
  %self.dbg.spill1 = alloca { [0 x i8]*, i64 }, align 8
  %s.dbg.spill = alloca { [0 x i8]*, i64 }, align 8
  %self.dbg.spill = alloca { [0 x i8]*, i64 }, align 8
  %2 = getelementptr inbounds { [0 x i8]*, i64 }, { [0 x i8]*, i64 }* %self.dbg.spill, i32 0, i32 0
  store [0 x i8]* %self.0, [0 x i8]** %2, align 8
  %3 = getelementptr inbounds { [0 x i8]*, i64 }, { [0 x i8]*, i64 }* %self.dbg.spill, i32 0, i32 1
  store i64 %self.1, i64* %3, align 8
  call void @llvm.dbg.declare(metadata { [0 x i8]*, i64 }* %self.dbg.spill, metadata !2300, metadata !DIExpression()), !dbg !2301
  %4 = getelementptr inbounds { [0 x i8]*, i64 }, { [0 x i8]*, i64 }* %s.dbg.spill, i32 0, i32 0, !dbg !2302
  store [0 x i8]* %self.0, [0 x i8]** %4, align 8, !dbg !2302
  %5 = getelementptr inbounds { [0 x i8]*, i64 }, { [0 x i8]*, i64 }* %s.dbg.spill, i32 0, i32 1, !dbg !2302
  store i64 %self.1, i64* %5, align 8, !dbg !2302
  call void @llvm.dbg.declare(metadata { [0 x i8]*, i64 }* %s.dbg.spill, metadata !2303, metadata !DIExpression()), !dbg !2315
  %6 = getelementptr inbounds { [0 x i8]*, i64 }, { [0 x i8]*, i64 }* %self.dbg.spill1, i32 0, i32 0, !dbg !2315
  store [0 x i8]* %self.0, [0 x i8]** %6, align 8, !dbg !2315
  %7 = getelementptr inbounds { [0 x i8]*, i64 }, { [0 x i8]*, i64 }* %self.dbg.spill1, i32 0, i32 1, !dbg !2315
  store i64 %self.1, i64* %7, align 8, !dbg !2315
  call void @llvm.dbg.declare(metadata { [0 x i8]*, i64 }* %self.dbg.spill1, metadata !2317, metadata !DIExpression()), !dbg !2326
  %8 = getelementptr inbounds { [0 x i8]*, i64 }, { [0 x i8]*, i64 }* %1, i32 0, i32 0, !dbg !2326
  store [0 x i8]* %self.0, [0 x i8]** %8, align 8, !dbg !2326
  %9 = getelementptr inbounds { [0 x i8]*, i64 }, { [0 x i8]*, i64 }* %1, i32 0, i32 1, !dbg !2326
  store i64 %self.1, i64* %9, align 8, !dbg !2326
  %10 = getelementptr inbounds { [0 x i8]*, i64 }, { [0 x i8]*, i64 }* %1, i32 0, i32 0, !dbg !2326
  %_6.0 = load [0 x i8]*, [0 x i8]** %10, align 8, !dbg !2326, !nonnull !23, !align !709, !noundef !23
  %11 = getelementptr inbounds { [0 x i8]*, i64 }, { [0 x i8]*, i64 }* %1, i32 0, i32 1, !dbg !2326
  %_6.1 = load i64, i64* %11, align 8, !dbg !2326
  br label %bb1, !dbg !2326

bb1:                                              ; preds = %start
  %12 = getelementptr inbounds { [0 x i8]*, i64 }, { [0 x i8]*, i64 }* %s.dbg.spill2, i32 0, i32 0, !dbg !2315
  store [0 x i8]* %_6.0, [0 x i8]** %12, align 8, !dbg !2315
  %13 = getelementptr inbounds { [0 x i8]*, i64 }, { [0 x i8]*, i64 }* %s.dbg.spill2, i32 0, i32 1, !dbg !2315
  store i64 %_6.1, i64* %13, align 8, !dbg !2315
  call void @llvm.dbg.declare(metadata { [0 x i8]*, i64 }* %s.dbg.spill2, metadata !2328, metadata !DIExpression()), !dbg !2334
  %14 = bitcast { %"std::sys::unix::os_str::Slice"*, i64 }* %0 to { [0 x i8]*, i64 }*, !dbg !2334
  %15 = getelementptr inbounds { [0 x i8]*, i64 }, { [0 x i8]*, i64 }* %14, i32 0, i32 0, !dbg !2334
  store [0 x i8]* %_6.0, [0 x i8]** %15, align 8, !dbg !2334
  %16 = getelementptr inbounds { [0 x i8]*, i64 }, { [0 x i8]*, i64 }* %14, i32 0, i32 1, !dbg !2334
  store i64 %_6.1, i64* %16, align 8, !dbg !2334
  %17 = getelementptr inbounds { %"std::sys::unix::os_str::Slice"*, i64 }, { %"std::sys::unix::os_str::Slice"*, i64 }* %0, i32 0, i32 0, !dbg !2334
  %_3.0 = load %"std::sys::unix::os_str::Slice"*, %"std::sys::unix::os_str::Slice"** %17, align 8, !dbg !2334, !nonnull !23, !align !709, !noundef !23
  %18 = getelementptr inbounds { %"std::sys::unix::os_str::Slice"*, i64 }, { %"std::sys::unix::os_str::Slice"*, i64 }* %0, i32 0, i32 1, !dbg !2334
  %_3.1 = load i64, i64* %18, align 8, !dbg !2334
  br label %bb2, !dbg !2334

bb2:                                              ; preds = %bb1
  %19 = getelementptr inbounds { %"std::sys::unix::os_str::Slice"*, i64 }, { %"std::sys::unix::os_str::Slice"*, i64 }* %inner.dbg.spill, i32 0, i32 0, !dbg !2316
  store %"std::sys::unix::os_str::Slice"* %_3.0, %"std::sys::unix::os_str::Slice"** %19, align 8, !dbg !2316
  %20 = getelementptr inbounds { %"std::sys::unix::os_str::Slice"*, i64 }, { %"std::sys::unix::os_str::Slice"*, i64 }* %inner.dbg.spill, i32 0, i32 1, !dbg !2316
  store i64 %_3.1, i64* %20, align 8, !dbg !2316
  call void @llvm.dbg.declare(metadata { %"std::sys::unix::os_str::Slice"*, i64 }* %inner.dbg.spill, metadata !2336, metadata !DIExpression()), !dbg !2341
  %_10.0 = bitcast %"std::sys::unix::os_str::Slice"* %_3.0 to %"std::ffi::os_str::OsStr"*, !dbg !2341
  %21 = insertvalue { %"std::ffi::os_str::OsStr"*, i64 } undef, %"std::ffi::os_str::OsStr"* %_10.0, 0, !dbg !2343
  %22 = insertvalue { %"std::ffi::os_str::OsStr"*, i64 } %21, i64 %_3.1, 1, !dbg !2343
  ret { %"std::ffi::os_str::OsStr"*, i64 } %22, !dbg !2343
}

; std::sys::unix::os_str::Buf::as_slice
; Function Attrs: inlinehint nonlazybind uwtable
define internal { %"std::sys::unix::os_str::Slice"*, i64 } @_ZN3std3sys4unix6os_str3Buf8as_slice17hce077dbee7b3ae5bE(%"std::sys::unix::os_str::Buf"* align 8 %self) unnamed_addr #0 !dbg !2344 {
start:
  %0 = alloca { %"std::sys::unix::os_str::Slice"*, i64 }, align 8
  %metadata.dbg.spill = alloca i64, align 8
  %data_address.dbg.spill = alloca {}*, align 8
  %self.dbg.spill5 = alloca i8*, align 8
  %len.dbg.spill4 = alloca i64, align 8
  %data.dbg.spill3 = alloca i8*, align 8
  %len.dbg.spill = alloca i64, align 8
  %data.dbg.spill = alloca i8*, align 8
  %self.dbg.spill2 = alloca %"alloc::vec::Vec<u8>"*, align 8
  %self.dbg.spill = alloca %"std::sys::unix::os_str::Buf"*, align 8
  %_17 = alloca { i8*, i64 }, align 8
  %_16 = alloca %"core::ptr::metadata::PtrRepr<[u8]>", align 8
  store %"std::sys::unix::os_str::Buf"* %self, %"std::sys::unix::os_str::Buf"** %self.dbg.spill, align 8
  call void @llvm.dbg.declare(metadata %"std::sys::unix::os_str::Buf"** %self.dbg.spill, metadata !2349, metadata !DIExpression()), !dbg !2350
  %self1 = bitcast %"std::sys::unix::os_str::Buf"* %self to %"alloc::vec::Vec<u8>"*, !dbg !2351
  store %"alloc::vec::Vec<u8>"* %self1, %"alloc::vec::Vec<u8>"** %self.dbg.spill2, align 8, !dbg !2351
  call void @llvm.dbg.declare(metadata %"alloc::vec::Vec<u8>"** %self.dbg.spill2, metadata !2352, metadata !DIExpression()), !dbg !2361
; call alloc::vec::Vec<T,A>::as_ptr
  %data = call i8* @"_ZN5alloc3vec16Vec$LT$T$C$A$GT$6as_ptr17h1645baab6bde4d1fE"(%"alloc::vec::Vec<u8>"* align 8 %self1), !dbg !2361
  store i8* %data, i8** %data.dbg.spill, align 8, !dbg !2361
  call void @llvm.dbg.declare(metadata i8** %data.dbg.spill, metadata !2363, metadata !DIExpression()), !dbg !2381
  br label %bb2, !dbg !2361

bb2:                                              ; preds = %start
  %1 = getelementptr inbounds %"alloc::vec::Vec<u8>", %"alloc::vec::Vec<u8>"* %self1, i32 0, i32 1, !dbg !2361
  %len = load i64, i64* %1, align 8, !dbg !2361
  store i64 %len, i64* %len.dbg.spill, align 8, !dbg !2361
  call void @llvm.dbg.declare(metadata i64* %len.dbg.spill, metadata !2371, metadata !DIExpression()), !dbg !2381
  store i8* %data, i8** %data.dbg.spill3, align 8, !dbg !2381
  call void @llvm.dbg.declare(metadata i8** %data.dbg.spill3, metadata !2383, metadata !DIExpression()), !dbg !2388
  store i64 %len, i64* %len.dbg.spill4, align 8, !dbg !2381
  call void @llvm.dbg.declare(metadata i64* %len.dbg.spill4, metadata !2387, metadata !DIExpression()), !dbg !2388
  store i8* %data, i8** %self.dbg.spill5, align 8, !dbg !2388
  call void @llvm.dbg.declare(metadata i8** %self.dbg.spill5, metadata !2390, metadata !DIExpression()), !dbg !2394
  %data_address = bitcast i8* %data to {}*, !dbg !2394
  store {}* %data_address, {}** %data_address.dbg.spill, align 8, !dbg !2394
  call void @llvm.dbg.declare(metadata {}** %data_address.dbg.spill, metadata !2396, metadata !DIExpression()), !dbg !2401
  store i64 %len, i64* %metadata.dbg.spill, align 8, !dbg !2388
  call void @llvm.dbg.declare(metadata i64* %metadata.dbg.spill, metadata !2400, metadata !DIExpression()), !dbg !2401
  %2 = bitcast { i8*, i64 }* %_17 to {}**, !dbg !2401
  store {}* %data_address, {}** %2, align 8, !dbg !2401
  %3 = getelementptr inbounds { i8*, i64 }, { i8*, i64 }* %_17, i32 0, i32 1, !dbg !2401
  store i64 %len, i64* %3, align 8, !dbg !2401
  %4 = bitcast %"core::ptr::metadata::PtrRepr<[u8]>"* %_16 to { i8*, i64 }*, !dbg !2401
  %5 = getelementptr inbounds { i8*, i64 }, { i8*, i64 }* %_17, i32 0, i32 0, !dbg !2401
  %6 = load i8*, i8** %5, align 8, !dbg !2401
  %7 = getelementptr inbounds { i8*, i64 }, { i8*, i64 }* %_17, i32 0, i32 1, !dbg !2401
  %8 = load i64, i64* %7, align 8, !dbg !2401
  %9 = getelementptr inbounds { i8*, i64 }, { i8*, i64 }* %4, i32 0, i32 0, !dbg !2401
  store i8* %6, i8** %9, align 8, !dbg !2401
  %10 = getelementptr inbounds { i8*, i64 }, { i8*, i64 }* %4, i32 0, i32 1, !dbg !2401
  store i64 %8, i64* %10, align 8, !dbg !2401
  %11 = bitcast %"core::ptr::metadata::PtrRepr<[u8]>"* %_16 to { [0 x i8]*, i64 }*, !dbg !2401
  %12 = getelementptr inbounds { [0 x i8]*, i64 }, { [0 x i8]*, i64 }* %11, i32 0, i32 0, !dbg !2401
  %_9.0 = load [0 x i8]*, [0 x i8]** %12, align 8, !dbg !2401
  %13 = getelementptr inbounds { [0 x i8]*, i64 }, { [0 x i8]*, i64 }* %11, i32 0, i32 1, !dbg !2401
  %_9.1 = load i64, i64* %13, align 8, !dbg !2401
  %14 = bitcast { %"std::sys::unix::os_str::Slice"*, i64 }* %0 to { [0 x i8]*, i64 }*, !dbg !2403
  %15 = getelementptr inbounds { [0 x i8]*, i64 }, { [0 x i8]*, i64 }* %14, i32 0, i32 0, !dbg !2403
  store [0 x i8]* %_9.0, [0 x i8]** %15, align 8, !dbg !2403
  %16 = getelementptr inbounds { [0 x i8]*, i64 }, { [0 x i8]*, i64 }* %14, i32 0, i32 1, !dbg !2403
  store i64 %_9.1, i64* %16, align 8, !dbg !2403
  %17 = getelementptr inbounds { %"std::sys::unix::os_str::Slice"*, i64 }, { %"std::sys::unix::os_str::Slice"*, i64 }* %0, i32 0, i32 0, !dbg !2403
  %18 = load %"std::sys::unix::os_str::Slice"*, %"std::sys::unix::os_str::Slice"** %17, align 8, !dbg !2403, !nonnull !23, !align !709, !noundef !23
  %19 = getelementptr inbounds { %"std::sys::unix::os_str::Slice"*, i64 }, { %"std::sys::unix::os_str::Slice"*, i64 }* %0, i32 0, i32 1, !dbg !2403
  %20 = load i64, i64* %19, align 8, !dbg !2403
  br label %bb1, !dbg !2403

bb1:                                              ; preds = %bb2
  %21 = insertvalue { %"std::sys::unix::os_str::Slice"*, i64 } undef, %"std::sys::unix::os_str::Slice"* %18, 0, !dbg !2404
  %22 = insertvalue { %"std::sys::unix::os_str::Slice"*, i64 } %21, i64 %20, 1, !dbg !2404
  ret { %"std::sys::unix::os_str::Slice"*, i64 } %22, !dbg !2404
}

; std::path::Path::new
; Function Attrs: nonlazybind uwtable
define internal { %"std::path::Path"*, i64 } @_ZN3std4path4Path3new17h260deae4329b1dd4E(%"std::ffi::os_str::OsString"* align 8 %s) unnamed_addr #1 !dbg !2405 {
start:
  %s.dbg.spill = alloca %"std::ffi::os_str::OsString"*, align 8
  store %"std::ffi::os_str::OsString"* %s, %"std::ffi::os_str::OsString"** %s.dbg.spill, align 8
  call void @llvm.dbg.declare(metadata %"std::ffi::os_str::OsString"** %s.dbg.spill, metadata !2411, metadata !DIExpression()), !dbg !2414
; call <std::ffi::os_str::OsString as core::convert::AsRef<std::ffi::os_str::OsStr>>::as_ref
  %0 = call { %"std::ffi::os_str::OsStr"*, i64 } @"_ZN98_$LT$std..ffi..os_str..OsString$u20$as$u20$core..convert..AsRef$LT$std..ffi..os_str..OsStr$GT$$GT$6as_ref17h3021d0129ea9e6cbE"(%"std::ffi::os_str::OsString"* align 8 %s), !dbg !2415
  %_4.0 = extractvalue { %"std::ffi::os_str::OsStr"*, i64 } %0, 0, !dbg !2415
  %_4.1 = extractvalue { %"std::ffi::os_str::OsStr"*, i64 } %0, 1, !dbg !2415
  br label %bb1, !dbg !2415

bb1:                                              ; preds = %start
  %_2.0 = bitcast %"std::ffi::os_str::OsStr"* %_4.0 to %"std::path::Path"*, !dbg !2416
  %1 = insertvalue { %"std::path::Path"*, i64 } undef, %"std::path::Path"* %_2.0, 0, !dbg !2417
  %2 = insertvalue { %"std::path::Path"*, i64 } %1, i64 %_4.1, 1, !dbg !2417
  ret { %"std::path::Path"*, i64 } %2, !dbg !2417
}

; std::path::Path::new
; Function Attrs: nonlazybind uwtable
define internal { %"std::path::Path"*, i64 } @_ZN3std4path4Path3new17hcbbac2fc40091823E([0 x i8]* align 1 %s.0, i64 %s.1) unnamed_addr #1 !dbg !2418 {
start:
  %s.dbg.spill = alloca { [0 x i8]*, i64 }, align 8
  %0 = getelementptr inbounds { [0 x i8]*, i64 }, { [0 x i8]*, i64 }* %s.dbg.spill, i32 0, i32 0
  store [0 x i8]* %s.0, [0 x i8]** %0, align 8
  %1 = getelementptr inbounds { [0 x i8]*, i64 }, { [0 x i8]*, i64 }* %s.dbg.spill, i32 0, i32 1
  store i64 %s.1, i64* %1, align 8
  call void @llvm.dbg.declare(metadata { [0 x i8]*, i64 }* %s.dbg.spill, metadata !2422, metadata !DIExpression()), !dbg !2425
; call std::ffi::os_str::<impl core::convert::AsRef<std::ffi::os_str::OsStr> for str>::as_ref
  %2 = call { %"std::ffi::os_str::OsStr"*, i64 } @"_ZN3std3ffi6os_str85_$LT$impl$u20$core..convert..AsRef$LT$std..ffi..os_str..OsStr$GT$$u20$for$u20$str$GT$6as_ref17h1cd6b2197129086dE"([0 x i8]* align 1 %s.0, i64 %s.1), !dbg !2426
  %_4.0 = extractvalue { %"std::ffi::os_str::OsStr"*, i64 } %2, 0, !dbg !2426
  %_4.1 = extractvalue { %"std::ffi::os_str::OsStr"*, i64 } %2, 1, !dbg !2426
  br label %bb1, !dbg !2426

bb1:                                              ; preds = %start
  %_2.0 = bitcast %"std::ffi::os_str::OsStr"* %_4.0 to %"std::path::Path"*, !dbg !2427
  %3 = insertvalue { %"std::path::Path"*, i64 } undef, %"std::path::Path"* %_2.0, 0, !dbg !2428
  %4 = insertvalue { %"std::path::Path"*, i64 } %3, i64 %_4.1, 1, !dbg !2428
  ret { %"std::path::Path"*, i64 } %4, !dbg !2428
}

; std::path::Path::join
; Function Attrs: nonlazybind uwtable
define internal void @_ZN3std4path4Path4join17h9e0584209cb8bdd8E(%"std::path::PathBuf"* sret(%"std::path::PathBuf") %0, %"std::path::Path"* align 1 %self.0, i64 %self.1, [0 x i8]* align 1 %1, i64 %2) unnamed_addr #1 personality i32 (i32, i32, i64, %"unwind::libunwind::_Unwind_Exception"*, %"unwind::libunwind::_Unwind_Context"*)* @rust_eh_personality !dbg !2429 {
start:
  %3 = alloca { i8*, i32 }, align 8
  %self.dbg.spill = alloca { %"std::path::Path"*, i64 }, align 8
  %path = alloca { [0 x i8]*, i64 }, align 8
  %4 = getelementptr inbounds { [0 x i8]*, i64 }, { [0 x i8]*, i64 }* %path, i32 0, i32 0
  store [0 x i8]* %1, [0 x i8]** %4, align 8
  %5 = getelementptr inbounds { [0 x i8]*, i64 }, { [0 x i8]*, i64 }* %path, i32 0, i32 1
  store i64 %2, i64* %5, align 8
  %6 = getelementptr inbounds { %"std::path::Path"*, i64 }, { %"std::path::Path"*, i64 }* %self.dbg.spill, i32 0, i32 0
  store %"std::path::Path"* %self.0, %"std::path::Path"** %6, align 8
  %7 = getelementptr inbounds { %"std::path::Path"*, i64 }, { %"std::path::Path"*, i64 }* %self.dbg.spill, i32 0, i32 1
  store i64 %self.1, i64* %7, align 8
  call void @llvm.dbg.declare(metadata { %"std::path::Path"*, i64 }* %self.dbg.spill, metadata !2433, metadata !DIExpression()), !dbg !2437
  call void @llvm.dbg.declare(metadata { [0 x i8]*, i64 }* %path, metadata !2434, metadata !DIExpression()), !dbg !2438
; invoke <&T as core::convert::AsRef<U>>::as_ref
  %8 = invoke { %"std::path::Path"*, i64 } @"_ZN55_$LT$$RF$T$u20$as$u20$core..convert..AsRef$LT$U$GT$$GT$6as_ref17hd937de06ac0a364aE"({ [0 x i8]*, i64 }* align 8 %path)
          to label %bb1 unwind label %cleanup, !dbg !2439

bb4:                                              ; preds = %cleanup
  br label %bb5, !dbg !2440

cleanup:                                          ; preds = %bb1, %start
  %9 = landingpad { i8*, i32 }
          cleanup
  %10 = extractvalue { i8*, i32 } %9, 0
  %11 = extractvalue { i8*, i32 } %9, 1
  %12 = getelementptr inbounds { i8*, i32 }, { i8*, i32 }* %3, i32 0, i32 0
  store i8* %10, i8** %12, align 8
  %13 = getelementptr inbounds { i8*, i32 }, { i8*, i32 }* %3, i32 0, i32 1
  store i32 %11, i32* %13, align 8
  br label %bb4

bb1:                                              ; preds = %start
  %_5.0 = extractvalue { %"std::path::Path"*, i64 } %8, 0, !dbg !2439
  %_5.1 = extractvalue { %"std::path::Path"*, i64 } %8, 1, !dbg !2439
; invoke std::path::Path::_join
  invoke void @_ZN3std4path4Path5_join17hdd4e9e360b510128E(%"std::path::PathBuf"* sret(%"std::path::PathBuf") %0, %"std::path::Path"* align 1 %self.0, i64 %self.1, %"std::path::Path"* align 1 %_5.0, i64 %_5.1)
          to label %bb2 unwind label %cleanup, !dbg !2441

bb2:                                              ; preds = %bb1
  br label %bb3, !dbg !2440

bb5:                                              ; preds = %bb4
  %14 = bitcast { i8*, i32 }* %3 to i8**, !dbg !2442
  %15 = load i8*, i8** %14, align 8, !dbg !2442
  %16 = getelementptr inbounds { i8*, i32 }, { i8*, i32 }* %3, i32 0, i32 1, !dbg !2442
  %17 = load i32, i32* %16, align 8, !dbg !2442
  %18 = insertvalue { i8*, i32 } undef, i8* %15, 0, !dbg !2442
  %19 = insertvalue { i8*, i32 } %18, i32 %17, 1, !dbg !2442
  resume { i8*, i32 } %19, !dbg !2442

bb3:                                              ; preds = %bb2
  ret void, !dbg !2443
}

; std::path::Path::display
; Function Attrs: inlinehint nonlazybind uwtable
define internal { i8*, i64 } @_ZN3std4path4Path7display17h100870e0471747c2E(%"std::path::Path"* align 1 %self.0, i64 %self.1) unnamed_addr #0 !dbg !2444 {
start:
  %self.dbg.spill = alloca { %"std::path::Path"*, i64 }, align 8
  %0 = alloca { i8*, i64 }, align 8
  %1 = getelementptr inbounds { %"std::path::Path"*, i64 }, { %"std::path::Path"*, i64 }* %self.dbg.spill, i32 0, i32 0
  store %"std::path::Path"* %self.0, %"std::path::Path"** %1, align 8
  %2 = getelementptr inbounds { %"std::path::Path"*, i64 }, { %"std::path::Path"*, i64 }* %self.dbg.spill, i32 0, i32 1
  store i64 %self.1, i64* %2, align 8
  call void @llvm.dbg.declare(metadata { %"std::path::Path"*, i64 }* %self.dbg.spill, metadata !2451, metadata !DIExpression()), !dbg !2452
  %3 = bitcast { i8*, i64 }* %0 to { %"std::path::Path"*, i64 }*, !dbg !2453
  %4 = getelementptr inbounds { %"std::path::Path"*, i64 }, { %"std::path::Path"*, i64 }* %3, i32 0, i32 0, !dbg !2453
  store %"std::path::Path"* %self.0, %"std::path::Path"** %4, align 8, !dbg !2453
  %5 = getelementptr inbounds { %"std::path::Path"*, i64 }, { %"std::path::Path"*, i64 }* %3, i32 0, i32 1, !dbg !2453
  store i64 %self.1, i64* %5, align 8, !dbg !2453
  %6 = getelementptr inbounds { i8*, i64 }, { i8*, i64 }* %0, i32 0, i32 0, !dbg !2454
  %7 = load i8*, i8** %6, align 8, !dbg !2454, !nonnull !23, !align !709, !noundef !23
  %8 = getelementptr inbounds { i8*, i64 }, { i8*, i64 }* %0, i32 0, i32 1, !dbg !2454
  %9 = load i64, i64* %8, align 8, !dbg !2454
  %10 = insertvalue { i8*, i64 } undef, i8* %7, 0, !dbg !2454
  %11 = insertvalue { i8*, i64 } %10, i64 %9, 1, !dbg !2454
  ret { i8*, i64 } %11, !dbg !2454
}

; std::path::<impl core::convert::AsRef<std::path::Path> for str>::as_ref
; Function Attrs: inlinehint nonlazybind uwtable
define internal { %"std::path::Path"*, i64 } @"_ZN3std4path77_$LT$impl$u20$core..convert..AsRef$LT$std..path..Path$GT$$u20$for$u20$str$GT$6as_ref17hcaacd7035b569171E"([0 x i8]* align 1 %self.0, i64 %self.1) unnamed_addr #0 !dbg !2455 {
start:
  %self.dbg.spill = alloca { [0 x i8]*, i64 }, align 8
  %0 = getelementptr inbounds { [0 x i8]*, i64 }, { [0 x i8]*, i64 }* %self.dbg.spill, i32 0, i32 0
  store [0 x i8]* %self.0, [0 x i8]** %0, align 8
  %1 = getelementptr inbounds { [0 x i8]*, i64 }, { [0 x i8]*, i64 }* %self.dbg.spill, i32 0, i32 1
  store i64 %self.1, i64* %1, align 8
  call void @llvm.dbg.declare(metadata { [0 x i8]*, i64 }* %self.dbg.spill, metadata !2458, metadata !DIExpression()), !dbg !2459
; call std::path::Path::new
  %2 = call { %"std::path::Path"*, i64 } @_ZN3std4path4Path3new17hcbbac2fc40091823E([0 x i8]* align 1 %self.0, i64 %self.1), !dbg !2460
  %3 = extractvalue { %"std::path::Path"*, i64 } %2, 0, !dbg !2460
  %4 = extractvalue { %"std::path::Path"*, i64 } %2, 1, !dbg !2460
  br label %bb1, !dbg !2460

bb1:                                              ; preds = %start
  %5 = insertvalue { %"std::path::Path"*, i64 } undef, %"std::path::Path"* %3, 0, !dbg !2461
  %6 = insertvalue { %"std::path::Path"*, i64 } %5, i64 %4, 1, !dbg !2461
  ret { %"std::path::Path"*, i64 } %6, !dbg !2461
}

; std::process::Command::env_remove
; Function Attrs: nonlazybind uwtable
define internal align 8 %"std::process::Command"* @_ZN3std7process7Command10env_remove17hd8d2cf3f5772f077E(%"std::process::Command"* align 8 %self, [0 x i8]* align 1 %0, i64 %1) unnamed_addr #1 personality i32 (i32, i32, i64, %"unwind::libunwind::_Unwind_Exception"*, %"unwind::libunwind::_Unwind_Context"*)* @rust_eh_personality !dbg !2462 {
start:
  %2 = alloca { i8*, i32 }, align 8
  %self.dbg.spill = alloca %"std::process::Command"*, align 8
  %key = alloca { [0 x i8]*, i64 }, align 8
  %3 = getelementptr inbounds { [0 x i8]*, i64 }, { [0 x i8]*, i64 }* %key, i32 0, i32 0
  store [0 x i8]* %0, [0 x i8]** %3, align 8
  %4 = getelementptr inbounds { [0 x i8]*, i64 }, { [0 x i8]*, i64 }* %key, i32 0, i32 1
  store i64 %1, i64* %4, align 8
  store %"std::process::Command"* %self, %"std::process::Command"** %self.dbg.spill, align 8
  call void @llvm.dbg.declare(metadata %"std::process::Command"** %self.dbg.spill, metadata !2656, metadata !DIExpression()), !dbg !2658
  call void @llvm.dbg.declare(metadata { [0 x i8]*, i64 }* %key, metadata !2657, metadata !DIExpression()), !dbg !2659
  %_7 = bitcast %"std::process::Command"* %self to %"std::sys::unix::process::process_common::Command"*, !dbg !2660
; invoke std::sys::unix::process::process_common::Command::env_mut
  %_6 = invoke align 8 %"std::sys_common::process::CommandEnv"* @_ZN3std3sys4unix7process14process_common7Command7env_mut17h6d7d6b06858a3a45E(%"std::sys::unix::process::process_common::Command"* align 8 %_7)
          to label %bb1 unwind label %cleanup, !dbg !2660

bb5:                                              ; preds = %cleanup
  br label %bb6, !dbg !2661

cleanup:                                          ; preds = %bb2, %bb1, %start
  %5 = landingpad { i8*, i32 }
          cleanup
  %6 = extractvalue { i8*, i32 } %5, 0
  %7 = extractvalue { i8*, i32 } %5, 1
  %8 = getelementptr inbounds { i8*, i32 }, { i8*, i32 }* %2, i32 0, i32 0
  store i8* %6, i8** %8, align 8
  %9 = getelementptr inbounds { i8*, i32 }, { i8*, i32 }* %2, i32 0, i32 1
  store i32 %7, i32* %9, align 8
  br label %bb5

bb1:                                              ; preds = %start
; invoke <&T as core::convert::AsRef<U>>::as_ref
  %10 = invoke { %"std::ffi::os_str::OsStr"*, i64 } @"_ZN55_$LT$$RF$T$u20$as$u20$core..convert..AsRef$LT$U$GT$$GT$6as_ref17h52a0cb8a9a744e87E"({ [0 x i8]*, i64 }* align 8 %key)
          to label %bb2 unwind label %cleanup, !dbg !2662

bb2:                                              ; preds = %bb1
  %_9.0 = extractvalue { %"std::ffi::os_str::OsStr"*, i64 } %10, 0, !dbg !2662
  %_9.1 = extractvalue { %"std::ffi::os_str::OsStr"*, i64 } %10, 1, !dbg !2662
; invoke std::sys_common::process::CommandEnv::remove
  invoke void @_ZN3std10sys_common7process10CommandEnv6remove17hd53f549366cb5681E(%"std::sys_common::process::CommandEnv"* align 8 %_6, %"std::ffi::os_str::OsStr"* align 1 %_9.0, i64 %_9.1)
          to label %bb3 unwind label %cleanup, !dbg !2660

bb3:                                              ; preds = %bb2
  br label %bb4, !dbg !2661

bb6:                                              ; preds = %bb5
  %11 = bitcast { i8*, i32 }* %2 to i8**, !dbg !2663
  %12 = load i8*, i8** %11, align 8, !dbg !2663
  %13 = getelementptr inbounds { i8*, i32 }, { i8*, i32 }* %2, i32 0, i32 1, !dbg !2663
  %14 = load i32, i32* %13, align 8, !dbg !2663
  %15 = insertvalue { i8*, i32 } undef, i8* %12, 0, !dbg !2663
  %16 = insertvalue { i8*, i32 } %15, i32 %14, 1, !dbg !2663
  resume { i8*, i32 } %16, !dbg !2663

bb4:                                              ; preds = %bb3
  ret %"std::process::Command"* %self, !dbg !2664
}

; std::process::Command::arg
; Function Attrs: nonlazybind uwtable
define internal align 8 %"std::process::Command"* @_ZN3std7process7Command3arg17h00157ec4264ee6dbE(%"std::process::Command"* align 8 %self, %"std::path::PathBuf"* align 8 %0) unnamed_addr #1 personality i32 (i32, i32, i64, %"unwind::libunwind::_Unwind_Exception"*, %"unwind::libunwind::_Unwind_Context"*)* @rust_eh_personality !dbg !2665 {
start:
  %1 = alloca { i8*, i32 }, align 8
  %self.dbg.spill = alloca %"std::process::Command"*, align 8
  %arg = alloca %"std::path::PathBuf"*, align 8
  store %"std::path::PathBuf"* %0, %"std::path::PathBuf"** %arg, align 8
  store %"std::process::Command"* %self, %"std::process::Command"** %self.dbg.spill, align 8
  call void @llvm.dbg.declare(metadata %"std::process::Command"** %self.dbg.spill, metadata !2669, metadata !DIExpression()), !dbg !2673
  call void @llvm.dbg.declare(metadata %"std::path::PathBuf"** %arg, metadata !2670, metadata !DIExpression()), !dbg !2674
  %_5 = bitcast %"std::process::Command"* %self to %"std::sys::unix::process::process_common::Command"*, !dbg !2675
; invoke <&T as core::convert::AsRef<U>>::as_ref
  %2 = invoke { %"std::ffi::os_str::OsStr"*, i64 } @"_ZN55_$LT$$RF$T$u20$as$u20$core..convert..AsRef$LT$U$GT$$GT$6as_ref17h44e2ad9582c35cb8E"(%"std::path::PathBuf"** align 8 %arg)
          to label %bb1 unwind label %cleanup, !dbg !2676

bb4:                                              ; preds = %cleanup
  br label %bb5, !dbg !2677

cleanup:                                          ; preds = %bb1, %start
  %3 = landingpad { i8*, i32 }
          cleanup
  %4 = extractvalue { i8*, i32 } %3, 0
  %5 = extractvalue { i8*, i32 } %3, 1
  %6 = getelementptr inbounds { i8*, i32 }, { i8*, i32 }* %1, i32 0, i32 0
  store i8* %4, i8** %6, align 8
  %7 = getelementptr inbounds { i8*, i32 }, { i8*, i32 }* %1, i32 0, i32 1
  store i32 %5, i32* %7, align 8
  br label %bb4

bb1:                                              ; preds = %start
  %_7.0 = extractvalue { %"std::ffi::os_str::OsStr"*, i64 } %2, 0, !dbg !2676
  %_7.1 = extractvalue { %"std::ffi::os_str::OsStr"*, i64 } %2, 1, !dbg !2676
; invoke std::sys::unix::process::process_common::Command::arg
  invoke void @_ZN3std3sys4unix7process14process_common7Command3arg17h1dc5214fca92cdf5E(%"std::sys::unix::process::process_common::Command"* align 8 %_5, %"std::ffi::os_str::OsStr"* align 1 %_7.0, i64 %_7.1)
          to label %bb2 unwind label %cleanup, !dbg !2675

bb2:                                              ; preds = %bb1
  br label %bb3, !dbg !2677

bb5:                                              ; preds = %bb4
  %8 = bitcast { i8*, i32 }* %1 to i8**, !dbg !2678
  %9 = load i8*, i8** %8, align 8, !dbg !2678
  %10 = getelementptr inbounds { i8*, i32 }, { i8*, i32 }* %1, i32 0, i32 1, !dbg !2678
  %11 = load i32, i32* %10, align 8, !dbg !2678
  %12 = insertvalue { i8*, i32 } undef, i8* %9, 0, !dbg !2678
  %13 = insertvalue { i8*, i32 } %12, i32 %11, 1, !dbg !2678
  resume { i8*, i32 } %13, !dbg !2678

bb3:                                              ; preds = %bb2
  ret %"std::process::Command"* %self, !dbg !2679
}

; std::process::Command::arg
; Function Attrs: nonlazybind uwtable
define internal align 8 %"std::process::Command"* @_ZN3std7process7Command3arg17h1a3c670cc7b0282bE(%"std::process::Command"* align 8 %self, %"std::path::PathBuf"* %arg) unnamed_addr #1 personality i32 (i32, i32, i64, %"unwind::libunwind::_Unwind_Exception"*, %"unwind::libunwind::_Unwind_Context"*)* @rust_eh_personality !dbg !2680 {
start:
  %0 = alloca { i8*, i32 }, align 8
  %self.dbg.spill = alloca %"std::process::Command"*, align 8
  store %"std::process::Command"* %self, %"std::process::Command"** %self.dbg.spill, align 8
  call void @llvm.dbg.declare(metadata %"std::process::Command"** %self.dbg.spill, metadata !2684, metadata !DIExpression()), !dbg !2688
  call void @llvm.dbg.declare(metadata %"std::path::PathBuf"* %arg, metadata !2685, metadata !DIExpression()), !dbg !2689
  %_5 = bitcast %"std::process::Command"* %self to %"std::sys::unix::process::process_common::Command"*, !dbg !2690
; invoke <std::path::PathBuf as core::convert::AsRef<std::ffi::os_str::OsStr>>::as_ref
