; ModuleID = 'quote.5667ff69-cgu.0'
source_filename = "quote.5667ff69-cgu.0"
target datalayout = "e-m:e-p270:32:32-p271:32:32-p272:64:64-i64:64-f80:128-n8:16:32:64-S128"
target triple = "x86_64-unknown-linux-gnu"

%"alloc::string::String" = type { %"alloc::vec::Vec<u8>" }
%"alloc::vec::Vec<u8>" = type { { i8*, i64 }, i64 }
%"core::panic::location::Location" = type { { [0 x i8]*, i64 }, i32, i32 }
%"core::ops::range::RangeFull" = type {}
%"core::ptr::metadata::PtrRepr<[u8]>" = type { [2 x i64] }
%"core::iter::adapters::map::Map<core::iter::adapters::map::Map<proc_macro2::token_stream::IntoIter, [closure@/home/calvin/.cargo/registry/src/github.com-1ecc6299db9ec823/quote-1.0.40/src/runtime.rs:285:22: 285:29]>, fn(proc_macro2::TokenTree) -> proc_macro::TokenTree {proc_macro2::imp::into_compiler_token}>" = type { {}, %"core::iter::adapters::map::Map<proc_macro2::token_stream::IntoIter, [closure@/home/calvin/.cargo/registry/src/github.com-1ecc6299db9ec823/quote-1.0.40/src/runtime.rs:285:22: 285:29]>" }
%"core::iter::adapters::map::Map<proc_macro2::token_stream::IntoIter, [closure@/home/calvin/.cargo/registry/src/github.com-1ecc6299db9ec823/quote-1.0.40/src/runtime.rs:285:22: 285:29]>" = type { %"proc_macro2::token_stream::IntoIter", i32* }
%"proc_macro2::token_stream::IntoIter" = type { %"proc_macro2::marker::ProcMacroAutoTraits", %"proc_macro2::imp::TokenTreeIter" }
%"proc_macro2::marker::ProcMacroAutoTraits" = type { %"core::marker::PhantomData<alloc::rc::Rc<()>>" }
%"core::marker::PhantomData<alloc::rc::Rc<()>>" = type {}
%"proc_macro2::imp::TokenTreeIter" = type { i64, [4 x i64] }
%"core::iter::adapters::map::Map<core::iter::adapters::map::Map<core::iter::sources::once::Once<proc_macro2::TokenStream>, [closure@<proc_macro2::TokenStream as core::iter::traits::collect::Extend<proc_macro2::TokenStream>>::extend<core::iter::sources::once::Once<proc_macro2::TokenStream>>::{closure#0}]>, fn(proc_macro2::imp::TokenStream) -> proc_macro::TokenStream {proc_macro2::imp::TokenStream::unwrap_nightly}>" = type { {}, %"core::iter::adapters::map::Map<core::iter::sources::once::Once<proc_macro2::TokenStream>, [closure@<proc_macro2::TokenStream as core::iter::traits::collect::Extend<proc_macro2::TokenStream>>::extend<core::iter::sources::once::Once<proc_macro2::TokenStream>>::{closure#0}]>" }
%"core::iter::adapters::map::Map<core::iter::sources::once::Once<proc_macro2::TokenStream>, [closure@<proc_macro2::TokenStream as core::iter::traits::collect::Extend<proc_macro2::TokenStream>>::extend<core::iter::sources::once::Once<proc_macro2::TokenStream>>::{closure#0}]>" = type { %"[closure@<proc_macro2::TokenStream as core::iter::traits::collect::Extend<proc_macro2::TokenStream>>::extend<core::iter::sources::once::Once<proc_macro2::TokenStream>>::{closure#0}]", %"core::iter::sources::once::Once<proc_macro2::TokenStream>" }
%"[closure@<proc_macro2::TokenStream as core::iter::traits::collect::Extend<proc_macro2::TokenStream>>::extend<core::iter::sources::once::Once<proc_macro2::TokenStream>>::{closure#0}]" = type {}
%"core::iter::sources::once::Once<proc_macro2::TokenStream>" = type { %"core::option::IntoIter<proc_macro2::TokenStream>" }
%"core::option::IntoIter<proc_macro2::TokenStream>" = type { %"core::option::Item<proc_macro2::TokenStream>" }
%"core::option::Item<proc_macro2::TokenStream>" = type { %"core::option::Option<proc_macro2::TokenStream>" }
%"core::option::Option<proc_macro2::TokenStream>" = type { i64, [4 x i64] }
%"core::iter::adapters::map::Map<proc_macro2::token_stream::IntoIter, [closure@/home/calvin/.cargo/registry/src/github.com-1ecc6299db9ec823/quote-1.0.40/src/spanned.rs:29:43: 29:47]>" = type { %"[closure@/home/calvin/.cargo/registry/src/github.com-1ecc6299db9ec823/quote-1.0.40/src/spanned.rs:29:43: 29:47]", %"proc_macro2::token_stream::IntoIter" }
%"[closure@/home/calvin/.cargo/registry/src/github.com-1ecc6299db9ec823/quote-1.0.40/src/spanned.rs:29:43: 29:47]" = type {}
%"[closure@/home/calvin/.cargo/registry/src/github.com-1ecc6299db9ec823/quote-1.0.40/src/spanned.rs:36:21: 36:34]" = type {}
%"core::iter::adapters::map::Map<proc_macro2::token_stream::IntoIter, [closure@/home/calvin/.cargo/registry/src/github.com-1ecc6299db9ec823/quote-1.0.40/src/runtime.rs:275:37: 275:40]>" = type { %"proc_macro2::token_stream::IntoIter", i32* }
%"core::iter::adapters::map::Map<core::iter::adapters::map::Map<core::iter::sources::once::Once<proc_macro2::TokenStream>, [closure@<proc_macro2::TokenStream as core::iter::traits::collect::Extend<proc_macro2::TokenStream>>::extend<core::iter::sources::once::Once<proc_macro2::TokenStream>>::{closure#0}]>, fn(proc_macro2::imp::TokenStream) -> proc_macro2::fallback::TokenStream {proc_macro2::imp::TokenStream::unwrap_stable}>" = type { {}, %"core::iter::adapters::map::Map<core::iter::sources::once::Once<proc_macro2::TokenStream>, [closure@<proc_macro2::TokenStream as core::iter::traits::collect::Extend<proc_macro2::TokenStream>>::extend<core::iter::sources::once::Once<proc_macro2::TokenStream>>::{closure#0}]>" }
%"core::option::Option<proc_macro2::imp::TokenStream>" = type { i64, [4 x i64] }
%"core::option::Option<proc_macro2::TokenTree>" = type { i32, [9 x i32] }
%"core::iter::adapters::flatten::Flatten<core::iter::adapters::map::Map<core::iter::adapters::map::Map<core::iter::sources::once::Once<proc_macro2::TokenStream>, [closure@<proc_macro2::TokenStream as core::iter::traits::collect::Extend<proc_macro2::TokenStream>>::extend<core::iter::sources::once::Once<proc_macro2::TokenStream>>::{closure#0}]>, fn(proc_macro2::imp::TokenStream) -> proc_macro2::fallback::TokenStream {proc_macro2::imp::TokenStream::unwrap_stable}>>" = type { %"core::iter::adapters::flatten::FlattenCompat<core::iter::adapters::map::Map<core::iter::adapters::map::Map<core::iter::sources::once::Once<proc_macro2::TokenStream>, [closure@<proc_macro2::TokenStream as core::iter::traits::collect::Extend<proc_macro2::TokenStream>>::extend<core::iter::sources::once::Once<proc_macro2::TokenStream>>::{closure#0}]>, fn(proc_macro2::imp::TokenStream) -> proc_macro2::fallback::TokenStream {proc_macro2::imp::TokenStream::unwrap_stable}>, proc_macro2::rcvec::RcVecIntoIter<proc_macro2::TokenTree>>" }
%"core::iter::adapters::flatten::FlattenCompat<core::iter::adapters::map::Map<core::iter::adapters::map::Map<core::iter::sources::once::Once<proc_macro2::TokenStream>, [closure@<proc_macro2::TokenStream as core::iter::traits::collect::Extend<proc_macro2::TokenStream>>::extend<core::iter::sources::once::Once<proc_macro2::TokenStream>>::{closure#0}]>, fn(proc_macro2::imp::TokenStream) -> proc_macro2::fallback::TokenStream {proc_macro2::imp::TokenStream::unwrap_stable}>, proc_macro2::rcvec::RcVecIntoIter<proc_macro2::TokenTree>>" = type { %"core::iter::adapters::fuse::Fuse<core::iter::adapters::map::Map<core::iter::adapters::map::Map<core::iter::sources::once::Once<proc_macro2::TokenStream>, [closure@<proc_macro2::TokenStream as core::iter::traits::collect::Extend<proc_macro2::TokenStream>>::extend<core::iter::sources::once::Once<proc_macro2::TokenStream>>::{closure#0}]>, fn(proc_macro2::imp::TokenStream) -> proc_macro2::fallback::TokenStream {proc_macro2::imp::TokenStream::unwrap_stable}>>", %"core::option::Option<proc_macro2::rcvec::RcVecIntoIter<proc_macro2::TokenTree>>", %"core::option::Option<proc_macro2::rcvec::RcVecIntoIter<proc_macro2::TokenTree>>" }
%"core::iter::adapters::fuse::Fuse<core::iter::adapters::map::Map<core::iter::adapters::map::Map<core::iter::sources::once::Once<proc_macro2::TokenStream>, [closure@<proc_macro2::TokenStream as core::iter::traits::collect::Extend<proc_macro2::TokenStream>>::extend<core::iter::sources::once::Once<proc_macro2::TokenStream>>::{closure#0}]>, fn(proc_macro2::imp::TokenStream) -> proc_macro2::fallback::TokenStream {proc_macro2::imp::TokenStream::unwrap_stable}>>" = type { %"core::option::Option<core::iter::adapters::map::Map<core::iter::adapters::map::Map<core::iter::sources::once::Once<proc_macro2::TokenStream>, [closure@<proc_macro2::TokenStream as core::iter::traits::collect::Extend<proc_macro2::TokenStream>>::extend<core::iter::sources::once::Once<proc_macro2::TokenStream>>::{closure#0}]>, fn(proc_macro2::imp::TokenStream) -> proc_macro2::fallback::TokenStream {proc_macro2::imp::TokenStream::unwrap_stable}>>" }
%"core::option::Option<core::iter::adapters::map::Map<core::iter::adapters::map::Map<core::iter::sources::once::Once<proc_macro2::TokenStream>, [closure@<proc_macro2::TokenStream as core::iter::traits::collect::Extend<proc_macro2::TokenStream>>::extend<core::iter::sources::once::Once<proc_macro2::TokenStream>>::{closure#0}]>, fn(proc_macro2::imp::TokenStream) -> proc_macro2::fallback::TokenStream {proc_macro2::imp::TokenStream::unwrap_stable}>>" = type { i64, [4 x i64] }
%"core::option::Option<proc_macro2::rcvec::RcVecIntoIter<proc_macro2::TokenTree>>" = type { {}*, [3 x i64] }
%"core::mem::maybe_uninit::MaybeUninit<proc_macro2::TokenTree>" = type { [5 x i64] }
%"core::ptr::metadata::PtrRepr<[core::mem::maybe_uninit::MaybeUninit<proc_macro2::TokenTree>]>" = type { [2 x i64] }
%"[closure@<core::ops::range::Range<usize> as core::slice::index::SliceIndex<[core::mem::maybe_uninit::MaybeUninit<proc_macro2::TokenTree>]>>::get_unchecked_mut::{closure#0}]" = type { i64*, i64*, { [0 x %"core::mem::maybe_uninit::MaybeUninit<proc_macro2::TokenTree>"]*, i64 }* }
%"core::option::Option<core::convert::Infallible>::None" = type {}
%"core::option::Option<core::iter::adapters::map::Map<core::iter::adapters::map::Map<core::iter::sources::once::Once<proc_macro2::TokenStream>, [closure@<proc_macro2::TokenStream as core::iter::traits::collect::Extend<proc_macro2::TokenStream>>::extend<core::iter::sources::once::Once<proc_macro2::TokenStream>>::{closure#0}]>, fn(proc_macro2::imp::TokenStream) -> proc_macro2::fallback::TokenStream {proc_macro2::imp::TokenStream::unwrap_stable}>>::Some" = type { %"core::iter::adapters::map::Map<core::iter::adapters::map::Map<core::iter::sources::once::Once<proc_macro2::TokenStream>, [closure@<proc_macro2::TokenStream as core::iter::traits::collect::Extend<proc_macro2::TokenStream>>::extend<core::iter::sources::once::Once<proc_macro2::TokenStream>>::{closure#0}]>, fn(proc_macro2::imp::TokenStream) -> proc_macro2::fallback::TokenStream {proc_macro2::imp::TokenStream::unwrap_stable}>" }
%"proc_macro::ConcatStreamsHelper" = type { %"alloc::vec::Vec<proc_macro::bridge::client::TokenStream>" }
%"alloc::vec::Vec<proc_macro::bridge::client::TokenStream>" = type { { i32*, i64 }, i64 }
%"proc_macro2::TokenStream" = type { %"proc_macro2::marker::ProcMacroAutoTraits", %"proc_macro2::imp::TokenStream" }
%"proc_macro2::imp::TokenStream" = type { i64, [4 x i64] }
%"proc_macro2::TokenTree" = type { i32, [9 x i32] }
%"core::iter::sources::once::Once<proc_macro2::TokenTree>" = type { %"core::option::IntoIter<proc_macro2::TokenTree>" }
%"core::option::IntoIter<proc_macro2::TokenTree>" = type { %"core::option::Item<proc_macro2::TokenTree>" }
%"core::option::Item<proc_macro2::TokenTree>" = type { %"core::option::Option<proc_macro2::TokenTree>" }
%"proc_macro::ConcatTreesHelper" = type { %"alloc::vec::Vec<proc_macro::bridge::TokenTree<proc_macro::bridge::client::TokenStream, proc_macro::bridge::client::Span, proc_macro::bridge::symbol::Symbol>>" }
%"alloc::vec::Vec<proc_macro::bridge::TokenTree<proc_macro::bridge::client::TokenStream, proc_macro::bridge::client::Span, proc_macro::bridge::symbol::Symbol>>" = type { { i32*, i64 }, i64 }
%"proc_macro::TokenTree" = type { i32, [5 x i32] }
%"proc_macro2::imp::DeferredTokenStream" = type { %"alloc::vec::Vec<proc_macro::TokenTree>", i32, [1 x i32] }
%"alloc::vec::Vec<proc_macro::TokenTree>" = type { { i32*, i64 }, i64 }
%"proc_macro2::imp::TokenStream::Compiler" = type { [1 x i64], %"proc_macro2::imp::DeferredTokenStream" }
%"proc_macro2::imp::TokenStream::Fallback" = type { [1 x i64], i64* }
%"core::option::Option<proc_macro2::TokenTree>::Some" = type { %"proc_macro2::TokenTree" }
%"core::array::iter::IntoIter<proc_macro2::TokenTree, 2>" = type { [2 x %"core::mem::maybe_uninit::MaybeUninit<proc_macro2::TokenTree>"], { i64, i64 } }
%"proc_macro2::rcvec::RcVecIntoIter<proc_macro2::TokenTree>" = type { %"alloc::vec::into_iter::IntoIter<proc_macro2::TokenTree>" }
%"alloc::vec::into_iter::IntoIter<proc_macro2::TokenTree>" = type { %"core::marker::PhantomData<proc_macro2::TokenTree>", %"core::mem::manually_drop::ManuallyDrop<alloc::alloc::Global>", i64*, i64, %"proc_macro2::TokenTree"*, %"proc_macro2::TokenTree"* }
%"core::marker::PhantomData<proc_macro2::TokenTree>" = type {}
%"core::mem::manually_drop::ManuallyDrop<alloc::alloc::Global>" = type { %"alloc::alloc::Global" }
%"alloc::alloc::Global" = type {}
%"core::option::Option<proc_macro2::rcvec::RcVecIntoIter<proc_macro2::TokenTree>>::Some" = type { %"proc_macro2::rcvec::RcVecIntoIter<proc_macro2::TokenTree>" }
%"alloc::vec::Vec<proc_macro2::TokenTree>" = type { { i64*, i64 }, i64 }
%"core::ffi::c_str::CStr" = type { [0 x i8] }
%"core::fmt::Arguments" = type { { [0 x { [0 x i8]*, i64 }]*, i64 }, { i64*, i64 }, { [0 x { i8*, i64* }]*, i64 } }
%"core::mem::maybe_uninit::MaybeUninit<[core::mem::maybe_uninit::MaybeUninit<proc_macro2::TokenTree>; 2]>" = type { [10 x i64] }
%"core::mem::manually_drop::ManuallyDrop<[core::mem::maybe_uninit::MaybeUninit<proc_macro2::TokenTree>; 2]>" = type { [2 x %"core::mem::maybe_uninit::MaybeUninit<proc_macro2::TokenTree>"] }
%"core::mem::maybe_uninit::MaybeUninit<core::option::Option<proc_macro2::TokenTree>>" = type { [5 x i64] }
%"core::mem::manually_drop::ManuallyDrop<core::option::Option<proc_macro2::TokenTree>>" = type { %"core::option::Option<proc_macro2::TokenTree>" }
%"core::mem::maybe_uninit::MaybeUninit<core::option::Option<proc_macro2::TokenStream>>" = type { [5 x i64] }
%"core::mem::manually_drop::ManuallyDrop<core::option::Option<proc_macro2::TokenStream>>" = type { %"core::option::Option<proc_macro2::TokenStream>" }
%"[closure@core::intrinsics::copy_nonoverlapping<u8>::{closure#0}]" = type { i8**, i8**, i64* }
%"core::alloc::layout::LayoutError" = type {}
%"core::option::Option<proc_macro2::TokenStream>::Some" = type { %"proc_macro2::TokenStream" }
%"core::result::Result<proc_macro2::TokenStream, proc_macro2::LexError>" = type { i8, [47 x i8] }
%"[closure@core::iter::adapters::map::map_fold<proc_macro2::TokenTree, proc_macro2::Span, core::option::Option<proc_macro2::Span>, [closure@/home/calvin/.cargo/registry/src/github.com-1ecc6299db9ec823/quote-1.0.40/src/spanned.rs:29:43: 29:47], [closure@/home/calvin/.cargo/registry/src/github.com-1ecc6299db9ec823/quote-1.0.40/src/spanned.rs:36:21: 36:34]>::{closure#0}]" = type { %"[closure@/home/calvin/.cargo/registry/src/github.com-1ecc6299db9ec823/quote-1.0.40/src/spanned.rs:36:21: 36:34]", %"[closure@/home/calvin/.cargo/registry/src/github.com-1ecc6299db9ec823/quote-1.0.40/src/spanned.rs:29:43: 29:47]" }
%"core::result::Result<core::convert::Infallible, core::alloc::layout::LayoutError>::Err" = type { %"core::alloc::layout::LayoutError" }
%"core::result::Result<(core::alloc::layout::Layout, usize), core::alloc::layout::LayoutError>" = type { [1 x i64], i64, [1 x i64] }
%"core::result::Result<(core::alloc::layout::Layout, usize), core::alloc::layout::LayoutError>::Ok" = type { { { i64, i64 }, i64 } }
%"alloc::rc::RcBox<core::mem::maybe_uninit::MaybeUninit<alloc::vec::Vec<proc_macro2::TokenTree>>>" = type { i64, i64, %"core::mem::maybe_uninit::MaybeUninit<alloc::vec::Vec<proc_macro2::TokenTree>>" }
%"core::mem::maybe_uninit::MaybeUninit<alloc::vec::Vec<proc_macro2::TokenTree>>" = type { [3 x i64] }
%"core::option::Option<proc_macro2::imp::TokenStream>::Some" = type { %"proc_macro2::imp::TokenStream" }
%"core::alloc::AllocError" = type {}
%"core::result::Result<proc_macro2::TokenStream, proc_macro2::LexError>::Ok" = type { [1 x i64], %"proc_macro2::TokenStream" }
%"core::result::Result<proc_macro2::TokenStream, proc_macro2::LexError>::Err" = type { [1 x i8], i8 }
%"proc_macro2::Punct" = type { i32, i32, i8, [3 x i8] }
%"proc_macro2::Ident" = type { %"proc_macro2::marker::ProcMacroAutoTraits", %"proc_macro2::imp::Ident" }
%"proc_macro2::imp::Ident" = type { i32, [7 x i32] }
%"proc_macro2::Literal" = type { %"proc_macro2::marker::ProcMacroAutoTraits", %"proc_macro2::imp::Literal" }
%"proc_macro2::imp::Literal" = type { i32, [7 x i32] }
%"proc_macro2::Group" = type { %"proc_macro2::imp::Group" }
%"proc_macro2::imp::Group" = type { i32, [5 x i32] }
%"proc_macro::Group" = type { %"proc_macro::bridge::Group<proc_macro::bridge::client::TokenStream, proc_macro::bridge::client::Span>" }
%"proc_macro::bridge::Group<proc_macro::bridge::client::TokenStream, proc_macro::bridge::client::Span>" = type { i32, %"proc_macro::bridge::DelimSpan<proc_macro::bridge::client::Span>", i8, [3 x i8] }
%"proc_macro::bridge::DelimSpan<proc_macro::bridge::client::Span>" = type { i32, i32, i32 }
%"proc_macro::Ident" = type { %"proc_macro::bridge::Ident<proc_macro::bridge::client::Span, proc_macro::bridge::symbol::Symbol>" }
%"proc_macro::bridge::Ident<proc_macro::bridge::client::Span, proc_macro::bridge::symbol::Symbol>" = type { i32, i32, i8, [3 x i8] }
%"proc_macro::Literal" = type { %"proc_macro::bridge::Literal<proc_macro::bridge::client::Span, proc_macro::bridge::symbol::Symbol>" }
%"proc_macro::bridge::Literal<proc_macro::bridge::client::Span, proc_macro::bridge::symbol::Symbol>" = type { i32, i32, i32, { i8, i8 }, [2 x i8] }
%"[closure@alloc::rc::Rc<alloc::vec::Vec<proc_macro2::TokenTree>>::new_uninit::{closure#0}]" = type {}
%"[closure@alloc::rc::Rc<alloc::vec::Vec<proc_macro2::TokenTree>>::new_uninit::{closure#1}]" = type {}
%"core::result::Result<core::convert::Infallible, core::alloc::AllocError>::Err" = type { %"core::alloc::AllocError" }
%"alloc::rc::RcBox<alloc::vec::Vec<proc_macro2::TokenTree>>" = type { i64, i64, %"alloc::vec::Vec<proc_macro2::TokenTree>" }
%"[closure@core::intrinsics::copy_nonoverlapping<alloc::vec::Vec<proc_macro2::TokenTree>>::{closure#0}]" = type { %"alloc::vec::Vec<proc_macro2::TokenTree>"**, %"alloc::vec::Vec<proc_macro2::TokenTree>"**, i64* }
%"core::ptr::metadata::PtrComponents<u8>" = type { {}*, {} }
%"core::ptr::metadata::PtrRepr<u8>" = type { [1 x i64] }
%"core::option::Option<(core::ptr::non_null::NonNull<u8>, core::alloc::layout::Layout)>" = type { [2 x i64], i64 }
%"core::option::Option<(core::ptr::non_null::NonNull<u8>, core::alloc::layout::Layout)>::Some" = type { { i8*, { i64, i64 } } }
%"core::result::Result<core::ptr::non_null::NonNull<[u8]>, alloc::collections::TryReserveError>" = type { i64, [2 x i64] }
%"core::ops::control_flow::ControlFlow<core::result::Result<core::convert::Infallible, alloc::collections::TryReserveError>, core::ptr::non_null::NonNull<[u8]>>" = type { i64, [2 x i64] }
%"core::result::Result<usize, alloc::collections::TryReserveErrorKind>" = type { i64, [2 x i64] }
%"core::ops::control_flow::ControlFlow<core::result::Result<core::convert::Infallible, alloc::collections::TryReserveErrorKind>, usize>" = type { i64, [2 x i64] }
%"core::result::Result<usize, alloc::collections::TryReserveErrorKind>::Err" = type { [1 x i64], { i64, i64 } }
%"core::result::Result<usize, alloc::collections::TryReserveErrorKind>::Ok" = type { [1 x i64], i64 }
%"core::ops::control_flow::ControlFlow<core::result::Result<core::convert::Infallible, alloc::collections::TryReserveErrorKind>, usize>::Continue" = type { [1 x i64], i64 }
%"core::ops::control_flow::ControlFlow<core::result::Result<core::convert::Infallible, alloc::collections::TryReserveErrorKind>, usize>::Break" = type { [1 x i64], { i64, i64 } }
%"core::result::Result<core::ptr::non_null::NonNull<[u8]>, alloc::collections::TryReserveError>::Ok" = type { [1 x i64], { i8*, i64 } }
%"core::ops::control_flow::ControlFlow<core::result::Result<core::convert::Infallible, alloc::collections::TryReserveError>, core::ptr::non_null::NonNull<[u8]>>::Continue" = type { [1 x i64], { i8*, i64 } }
%"core::result::Result<core::ptr::non_null::NonNull<[u8]>, alloc::collections::TryReserveError>::Err" = type { [1 x i64], { i64, i64 } }
%"core::ops::control_flow::ControlFlow<core::result::Result<core::convert::Infallible, alloc::collections::TryReserveError>, core::ptr::non_null::NonNull<[u8]>>::Break" = type { [1 x i64], { i64, i64 } }
%"core::fmt::Formatter" = type { { i64, i64 }, { i64, i64 }, { {}*, [3 x i64]* }, i32, i32, i8, [7 x i8] }
%"proc_macro2::TokenTree::Group" = type { [1 x i64], %"proc_macro2::Group" }
%"proc_macro2::TokenTree::Ident" = type { [1 x i64], %"proc_macro2::Ident" }
%"proc_macro2::TokenTree::Punct" = type { [1 x i32], %"proc_macro2::Punct" }
%"proc_macro2::TokenTree::Literal" = type { [1 x i64], %"proc_macro2::Literal" }
%"proc_macro2::imp::Group::Compiler" = type { [1 x i32], %"proc_macro::Group" }
%"proc_macro2::imp::Group::Fallback" = type { [1 x i64], { i64*, i8 } }
%"proc_macro2::fallback::Ident" = type { %"proc_macro2::fallback::Span", { [0 x i8]*, i64 }, i8, [7 x i8] }
%"proc_macro2::fallback::Span" = type {}
%"proc_macro2::imp::Ident::Compiler" = type { [1 x i32], %"proc_macro::Ident" }
%"proc_macro2::imp::Ident::Fallback" = type { [1 x i64], %"proc_macro2::fallback::Ident" }
%"proc_macro2::fallback::Literal" = type { %"proc_macro2::fallback::Span", %"alloc::string::String" }
%"proc_macro2::imp::Literal::Compiler" = type { [1 x i32], %"proc_macro::Literal" }
%"proc_macro2::imp::Literal::Fallback" = type { [1 x i64], %"proc_macro2::fallback::Literal" }
%"core::ptr::metadata::PtrRepr<[proc_macro::bridge::client::TokenStream]>" = type { [2 x i64] }
%"core::mem::manually_drop::ManuallyDrop<proc_macro2::TokenTree>" = type { %"proc_macro2::TokenTree" }
%"__private::ThereIsNoIteratorInRepetition" = type {}
%"__private::HasIterator" = type {}
%"proc_macro2::extra::DelimSpan" = type { %"proc_macro2::marker::ProcMacroAutoTraits", %"proc_macro2::extra::DelimSpanEnum" }
%"proc_macro2::extra::DelimSpanEnum" = type { [2 x i32], i32 }
%"unwind::libunwind::_Unwind_Exception" = type { i64, void (i32, %"unwind::libunwind::_Unwind_Exception"*)*, [6 x i64] }
%"unwind::libunwind::_Unwind_Context" = type { [0 x i8] }

@alloc180 = private unnamed_addr constant <{ [12 x i8] }> <{ [12 x i8] c"invalid args" }>, align 1
@alloc181 = private unnamed_addr constant <{ i8*, [8 x i8] }> <{ i8* getelementptr inbounds (<{ [12 x i8] }>, <{ [12 x i8] }>* @alloc180, i32 0, i32 0, i32 0), [8 x i8] c"\0C\00\00\00\00\00\00\00" }>, align 8
@alloc133 = private unnamed_addr constant <{}> zeroinitializer, align 8
@alloc866 = private unnamed_addr constant <{ [75 x i8] }> <{ [75 x i8] c"/rustc/d394408fb38c4de61f765a3ed5189d2731a1da91/library/core/src/fmt/mod.rs" }>, align 1
@alloc867 = private unnamed_addr constant <{ i8*, [16 x i8] }> <{ i8* getelementptr inbounds (<{ [75 x i8] }>, <{ [75 x i8] }>* @alloc866, i32 0, i32 0, i32 0), [16 x i8] c"K\00\00\00\00\00\00\00\88\01\00\00\0D\00\00\00" }>, align 8
@alloc175 = private unnamed_addr constant <{ [43 x i8] }> <{ [43 x i8] c"cannot transmute_copy if U is larger than T" }>, align 1
@alloc176 = private unnamed_addr constant <{ i8*, [8 x i8] }> <{ i8* getelementptr inbounds (<{ [43 x i8] }>, <{ [43 x i8] }>* @alloc175, i32 0, i32 0, i32 0), [8 x i8] c"+\00\00\00\00\00\00\00" }>, align 8
@alloc868 = private unnamed_addr constant <{ [75 x i8] }> <{ [75 x i8] c"/rustc/d394408fb38c4de61f765a3ed5189d2731a1da91/library/core/src/mem/mod.rs" }>, align 1
@alloc869 = private unnamed_addr constant <{ i8*, [16 x i8] }> <{ i8* getelementptr inbounds (<{ [75 x i8] }>, <{ [75 x i8] }>* @alloc868, i32 0, i32 0, i32 0), [16 x i8] c"K\00\00\00\00\00\00\00!\04\00\00\05\00\00\00" }>, align 8
@vtable.0 = private unnamed_addr constant <{ i8*, [16 x i8], i8* }> <{ i8* bitcast (void (i8*)* @"_ZN4core3ptr42drop_in_place$LT$proc_macro2..LexError$GT$17h1b148f69aa7d296dE" to i8*), [16 x i8] c"\01\00\00\00\00\00\00\00\01\00\00\00\00\00\00\00", i8* bitcast (i1 (i8*, %"core::fmt::Formatter"*)* @"_ZN58_$LT$proc_macro2..LexError$u20$as$u20$core..fmt..Debug$GT$3fmt17he87b96776bbbc21eE" to i8*) }>, align 8, !dbg !0
@alloc873 = private unnamed_addr constant <{ [43 x i8] }> <{ [43 x i8] c"called `Result::unwrap()` on an `Err` value" }>, align 1
@vtable.1 = private unnamed_addr constant <{ i8*, [16 x i8], i8* }> <{ i8* bitcast (void (%"core::alloc::layout::LayoutError"*)* @"_ZN4core3ptr53drop_in_place$LT$core..alloc..layout..LayoutError$GT$17he1e7a482d393d0a5E" to i8*), [16 x i8] c"\00\00\00\00\00\00\00\00\01\00\00\00\00\00\00\00", i8* bitcast (i1 (%"core::alloc::layout::LayoutError"*, %"core::fmt::Formatter"*)* @"_ZN69_$LT$core..alloc..layout..LayoutError$u20$as$u20$core..fmt..Debug$GT$3fmt17hac9daf4d92ffb3c8E" to i8*) }>, align 8, !dbg !82
@alloc879 = private unnamed_addr constant <{ [71 x i8] }> <{ [71 x i8] c"/rustc/d394408fb38c4de61f765a3ed5189d2731a1da91/library/alloc/src/rc.rs" }>, align 1
@alloc878 = private unnamed_addr constant <{ i8*, [16 x i8] }> <{ i8* getelementptr inbounds (<{ [71 x i8] }>, <{ [71 x i8] }>* @alloc879, i32 0, i32 0, i32 0), [16 x i8] c"G\00\00\00\00\00\00\00=\05\00\00F\00\00\00" }>, align 8
@alloc880 = private unnamed_addr constant <{ i8*, [16 x i8] }> <{ i8* getelementptr inbounds (<{ [71 x i8] }>, <{ [71 x i8] }>* @alloc879, i32 0, i32 0, i32 0), [16 x i8] c"G\00\00\00\00\00\00\00T\05\00\00F\00\00\00" }>, align 8
@alloc905 = private unnamed_addr constant <{ [2 x i8] }> <{ [2 x i8] c"r#" }>, align 1
@alloc882 = private unnamed_addr constant <{ [95 x i8] }> <{ [95 x i8] c"/home/calvin/.cargo/registry/src/github.com-1ecc6299db9ec823/quote-1.0.40/src/ident_fragment.rs" }>, align 1
@alloc883 = private unnamed_addr constant <{ i8*, [16 x i8] }> <{ i8* getelementptr inbounds (<{ [95 x i8] }>, <{ [95 x i8] }>* @alloc882, i32 0, i32 0, i32 0), [16 x i8] c"_\00\00\00\00\00\00\007\00\00\00 \00\00\00" }>, align 8
@alloc884 = private unnamed_addr constant <{ [4 x i8] }> <{ [4 x i8] c"true" }>, align 1
@alloc885 = private unnamed_addr constant <{ [5 x i8] }> <{ [5 x i8] c"false" }>, align 1
@alloc886 = private unnamed_addr constant <{ [90 x i8] }> <{ [90 x i8] c"/home/calvin/.cargo/registry/src/github.com-1ecc6299db9ec823/quote-1.0.40/src/to_tokens.rs" }>, align 1
@alloc887 = private unnamed_addr constant <{ i8*, [16 x i8] }> <{ i8* getelementptr inbounds (<{ [90 x i8] }>, <{ [90 x i8] }>* @alloc886, i32 0, i32 0, i32 0), [16 x i8] c"Z\00\00\00\00\00\00\00\D9\00\00\00\17\00\00\00" }>, align 8
@alloc891 = private unnamed_addr constant <{ [20 x i8] }> <{ [20 x i8] c"invalid token stream" }>, align 1
@alloc908 = private unnamed_addr constant <{ [88 x i8] }> <{ [88 x i8] c"/home/calvin/.cargo/registry/src/github.com-1ecc6299db9ec823/quote-1.0.40/src/runtime.rs" }>, align 1
@alloc890 = private unnamed_addr constant <{ i8*, [16 x i8] }> <{ i8* getelementptr inbounds (<{ [88 x i8] }>, <{ [88 x i8] }>* @alloc908, i32 0, i32 0, i32 0), [16 x i8] c"X\00\00\00\00\00\00\00\0C\01\00\00$\00\00\00" }>, align 8
@alloc893 = private unnamed_addr constant <{ i8*, [16 x i8] }> <{ i8* getelementptr inbounds (<{ [88 x i8] }>, <{ [88 x i8] }>* @alloc908, i32 0, i32 0, i32 0), [16 x i8] c"X\00\00\00\00\00\00\00\12\01\00\00$\00\00\00" }>, align 8
@alloc895 = private unnamed_addr constant <{ i8*, [16 x i8] }> <{ i8* getelementptr inbounds (<{ [88 x i8] }>, <{ [88 x i8] }>* @alloc908, i32 0, i32 0, i32 0), [16 x i8] c"X\00\00\00\00\00\00\006\01\00\00&\00\00\00" }>, align 8
@alloc897 = private unnamed_addr constant <{ i8*, [16 x i8] }> <{ i8* getelementptr inbounds (<{ [88 x i8] }>, <{ [88 x i8] }>* @alloc908, i32 0, i32 0, i32 0), [16 x i8] c"X\00\00\00\00\00\00\006\01\00\00\1A\00\00\00" }>, align 8
@alloc899 = private unnamed_addr constant <{ i8*, [16 x i8] }> <{ i8* getelementptr inbounds (<{ [88 x i8] }>, <{ [88 x i8] }>* @alloc908, i32 0, i32 0, i32 0), [16 x i8] c"X\00\00\00\00\00\00\00B\01\00\00&\00\00\00" }>, align 8
@alloc901 = private unnamed_addr constant <{ i8*, [16 x i8] }> <{ i8* getelementptr inbounds (<{ [88 x i8] }>, <{ [88 x i8] }>* @alloc908, i32 0, i32 0, i32 0), [16 x i8] c"X\00\00\00\00\00\00\00B\01\00\00\1A\00\00\00" }>, align 8
@alloc902 = private unnamed_addr constant <{ [1 x i8] }> <{ [1 x i8] c"_" }>, align 1
@alloc904 = private unnamed_addr constant <{ i8*, [16 x i8] }> <{ i8* getelementptr inbounds (<{ [88 x i8] }>, <{ [88 x i8] }>* @alloc908, i32 0, i32 0, i32 0), [16 x i8] c"X\00\00\00\00\00\00\00\AD\01\00\00\13\00\00\00" }>, align 8
@alloc907 = private unnamed_addr constant <{ i8*, [16 x i8] }> <{ i8* getelementptr inbounds (<{ [88 x i8] }>, <{ [88 x i8] }>* @alloc908, i32 0, i32 0, i32 0), [16 x i8] c"X\00\00\00\00\00\00\00\BC\01\00\00\09\00\00\00" }>, align 8
@alloc909 = private unnamed_addr constant <{ i8*, [16 x i8] }> <{ i8* getelementptr inbounds (<{ [88 x i8] }>, <{ [88 x i8] }>* @alloc908, i32 0, i32 0, i32 0), [16 x i8] c"X\00\00\00\00\00\00\00\BA\01\00\00\09\00\00\00" }>, align 8

; <alloc::string::String as core::ops::index::Index<core::ops::range::RangeFull>>::index
; Function Attrs: inlinehint nonlazybind uwtable
define internal { [0 x i8]*, i64 } @"_ZN100_$LT$alloc..string..String$u20$as$u20$core..ops..index..Index$LT$core..ops..range..RangeFull$GT$$GT$5index17hfbae29147f256e34E"(%"alloc::string::String"* align 8 %self, %"core::panic::location::Location"* align 8 %0) unnamed_addr #0 !dbg !203 {
start:
  %1 = alloca { [0 x i8]*, i64 }, align 8
  %v.dbg.spill = alloca { [0 x i8]*, i64 }, align 8
  %metadata.dbg.spill = alloca i64, align 8
  %data_address.dbg.spill = alloca {}*, align 8
  %self.dbg.spill4 = alloca i8*, align 8
  %len.dbg.spill3 = alloca i64, align 8
  %data.dbg.spill2 = alloca i8*, align 8
  %len.dbg.spill = alloca i64, align 8
  %data.dbg.spill = alloca i8*, align 8
  %self.dbg.spill1 = alloca %"alloc::vec::Vec<u8>"*, align 8
  %_index.dbg.spill = alloca %"core::ops::range::RangeFull", align 1
  %self.dbg.spill = alloca %"alloc::string::String"*, align 8
  %_19 = alloca { i8*, i64 }, align 8
  %_18 = alloca %"core::ptr::metadata::PtrRepr<[u8]>", align 8
  store %"alloc::string::String"* %self, %"alloc::string::String"** %self.dbg.spill, align 8
  call void @llvm.dbg.declare(metadata %"alloc::string::String"** %self.dbg.spill, metadata !258, metadata !DIExpression()), !dbg !260
  call void @llvm.dbg.declare(metadata %"core::ops::range::RangeFull"* %_index.dbg.spill, metadata !259, metadata !DIExpression()), !dbg !261
  %_6 = bitcast %"alloc::string::String"* %self to %"alloc::vec::Vec<u8>"*, !dbg !262
  store %"alloc::vec::Vec<u8>"* %_6, %"alloc::vec::Vec<u8>"** %self.dbg.spill1, align 8, !dbg !262
  call void @llvm.dbg.declare(metadata %"alloc::vec::Vec<u8>"** %self.dbg.spill1, metadata !263, metadata !DIExpression()), !dbg !276
; call alloc::vec::Vec<T,A>::as_ptr
  %data = call i8* @"_ZN5alloc3vec16Vec$LT$T$C$A$GT$6as_ptr17h046a4f474ae6b0faE"(%"alloc::vec::Vec<u8>"* align 8 %_6), !dbg !276
  store i8* %data, i8** %data.dbg.spill, align 8, !dbg !276
  call void @llvm.dbg.declare(metadata i8** %data.dbg.spill, metadata !277, metadata !DIExpression()), !dbg !298
  br label %bb1, !dbg !276

bb1:                                              ; preds = %start
  %2 = getelementptr inbounds %"alloc::vec::Vec<u8>", %"alloc::vec::Vec<u8>"* %_6, i32 0, i32 1, !dbg !276
  %len = load i64, i64* %2, align 8, !dbg !276
  store i64 %len, i64* %len.dbg.spill, align 8, !dbg !276
  call void @llvm.dbg.declare(metadata i64* %len.dbg.spill, metadata !286, metadata !DIExpression()), !dbg !298
  store i8* %data, i8** %data.dbg.spill2, align 8, !dbg !298
  call void @llvm.dbg.declare(metadata i8** %data.dbg.spill2, metadata !300, metadata !DIExpression()), !dbg !312
  store i64 %len, i64* %len.dbg.spill3, align 8, !dbg !298
  call void @llvm.dbg.declare(metadata i64* %len.dbg.spill3, metadata !311, metadata !DIExpression()), !dbg !312
  store i8* %data, i8** %self.dbg.spill4, align 8, !dbg !312
  call void @llvm.dbg.declare(metadata i8** %self.dbg.spill4, metadata !314, metadata !DIExpression()), !dbg !325
  %data_address = bitcast i8* %data to {}*, !dbg !325
  store {}* %data_address, {}** %data_address.dbg.spill, align 8, !dbg !325
  call void @llvm.dbg.declare(metadata {}** %data_address.dbg.spill, metadata !327, metadata !DIExpression()), !dbg !336
  store i64 %len, i64* %metadata.dbg.spill, align 8, !dbg !312
  call void @llvm.dbg.declare(metadata i64* %metadata.dbg.spill, metadata !335, metadata !DIExpression()), !dbg !336
  %3 = bitcast { i8*, i64 }* %_19 to {}**, !dbg !336
  store {}* %data_address, {}** %3, align 8, !dbg !336
  %4 = getelementptr inbounds { i8*, i64 }, { i8*, i64 }* %_19, i32 0, i32 1, !dbg !336
  store i64 %len, i64* %4, align 8, !dbg !336
  %5 = bitcast %"core::ptr::metadata::PtrRepr<[u8]>"* %_18 to { i8*, i64 }*, !dbg !336
  %6 = getelementptr inbounds { i8*, i64 }, { i8*, i64 }* %_19, i32 0, i32 0, !dbg !336
  %7 = load i8*, i8** %6, align 8, !dbg !336
  %8 = getelementptr inbounds { i8*, i64 }, { i8*, i64 }* %_19, i32 0, i32 1, !dbg !336
  %9 = load i64, i64* %8, align 8, !dbg !336
  %10 = getelementptr inbounds { i8*, i64 }, { i8*, i64 }* %5, i32 0, i32 0, !dbg !336
  store i8* %7, i8** %10, align 8, !dbg !336
  %11 = getelementptr inbounds { i8*, i64 }, { i8*, i64 }* %5, i32 0, i32 1, !dbg !336
  store i64 %9, i64* %11, align 8, !dbg !336
  %12 = bitcast %"core::ptr::metadata::PtrRepr<[u8]>"* %_18 to { [0 x i8]*, i64 }*, !dbg !336
  %13 = getelementptr inbounds { [0 x i8]*, i64 }, { [0 x i8]*, i64 }* %12, i32 0, i32 0, !dbg !336
  %_11.0 = load [0 x i8]*, [0 x i8]** %13, align 8, !dbg !336
  %14 = getelementptr inbounds { [0 x i8]*, i64 }, { [0 x i8]*, i64 }* %12, i32 0, i32 1, !dbg !336
  %_11.1 = load i64, i64* %14, align 8, !dbg !336
  %15 = getelementptr inbounds { [0 x i8]*, i64 }, { [0 x i8]*, i64 }* %v.dbg.spill, i32 0, i32 0, !dbg !262
  store [0 x i8]* %_11.0, [0 x i8]** %15, align 8, !dbg !262
  %16 = getelementptr inbounds { [0 x i8]*, i64 }, { [0 x i8]*, i64 }* %v.dbg.spill, i32 0, i32 1, !dbg !262
  store i64 %_11.1, i64* %16, align 8, !dbg !262
  call void @llvm.dbg.declare(metadata { [0 x i8]*, i64 }* %v.dbg.spill, metadata !338, metadata !DIExpression()), !dbg !347
  %17 = getelementptr inbounds { [0 x i8]*, i64 }, { [0 x i8]*, i64 }* %1, i32 0, i32 0, !dbg !347
  store [0 x i8]* %_11.0, [0 x i8]** %17, align 8, !dbg !347
  %18 = getelementptr inbounds { [0 x i8]*, i64 }, { [0 x i8]*, i64 }* %1, i32 0, i32 1, !dbg !347
  store i64 %_11.1, i64* %18, align 8, !dbg !347
  %19 = getelementptr inbounds { [0 x i8]*, i64 }, { [0 x i8]*, i64 }* %1, i32 0, i32 0, !dbg !347
  %20 = load [0 x i8]*, [0 x i8]** %19, align 8, !dbg !347, !nonnull !27, !align !349, !noundef !27
  %21 = getelementptr inbounds { [0 x i8]*, i64 }, { [0 x i8]*, i64 }* %1, i32 0, i32 1, !dbg !347
  %22 = load i64, i64* %21, align 8, !dbg !347
  br label %bb2, !dbg !347

bb2:                                              ; preds = %bb1
  %23 = insertvalue { [0 x i8]*, i64 } undef, [0 x i8]* %20, 0, !dbg !350
  %24 = insertvalue { [0 x i8]*, i64 } %23, i64 %22, 1, !dbg !350
  ret { [0 x i8]*, i64 } %24, !dbg !350
}

; <core::iter::adapters::map::Map<I,F> as core::iter::traits::iterator::Iterator>::fold
; Function Attrs: nonlazybind uwtable
define void @"_ZN102_$LT$core..iter..adapters..map..Map$LT$I$C$F$GT$$u20$as$u20$core..iter..traits..iterator..Iterator$GT$4fold17h2225c979ac24fd3cE"(%"core::iter::adapters::map::Map<core::iter::adapters::map::Map<proc_macro2::token_stream::IntoIter, [closure@/home/calvin/.cargo/registry/src/github.com-1ecc6299db9ec823/quote-1.0.40/src/runtime.rs:285:22: 285:29]>, fn(proc_macro2::TokenTree) -> proc_macro::TokenTree {proc_macro2::imp::into_compiler_token}>"* %self, i64* align 8 %g) unnamed_addr #1 personality i32 (i32, i32, i64, %"unwind::libunwind::_Unwind_Exception"*, %"unwind::libunwind::_Unwind_Context"*)* @rust_eh_personality !dbg !351 {
start:
  %0 = alloca { i8*, i32 }, align 8
  %g.dbg.spill = alloca i64*, align 8
  %init.dbg.spill = alloca {}, align 1
  %_10 = alloca i8, align 1
  %_9 = alloca i8, align 1
  %_4 = alloca %"core::iter::adapters::map::Map<proc_macro2::token_stream::IntoIter, [closure@/home/calvin/.cargo/registry/src/github.com-1ecc6299db9ec823/quote-1.0.40/src/runtime.rs:285:22: 285:29]>", align 8
  call void @llvm.dbg.declare(metadata %"core::iter::adapters::map::Map<core::iter::adapters::map::Map<proc_macro2::token_stream::IntoIter, [closure@/home/calvin/.cargo/registry/src/github.com-1ecc6299db9ec823/quote-1.0.40/src/runtime.rs:285:22: 285:29]>, fn(proc_macro2::TokenTree) -> proc_macro::TokenTree {proc_macro2::imp::into_compiler_token}>"* %self, metadata !796, metadata !DIExpression()), !dbg !803
  call void @llvm.dbg.declare(metadata {}* %init.dbg.spill, metadata !797, metadata !DIExpression()), !dbg !804
  store i64* %g, i64** %g.dbg.spill, align 8
  call void @llvm.dbg.declare(metadata i64** %g.dbg.spill, metadata !798, metadata !DIExpression()), !dbg !805
  store i8 1, i8* %_10, align 1, !dbg !806
  %1 = bitcast %"core::iter::adapters::map::Map<core::iter::adapters::map::Map<proc_macro2::token_stream::IntoIter, [closure@/home/calvin/.cargo/registry/src/github.com-1ecc6299db9ec823/quote-1.0.40/src/runtime.rs:285:22: 285:29]>, fn(proc_macro2::TokenTree) -> proc_macro::TokenTree {proc_macro2::imp::into_compiler_token}>"* %self to %"core::iter::adapters::map::Map<proc_macro2::token_stream::IntoIter, [closure@/home/calvin/.cargo/registry/src/github.com-1ecc6299db9ec823/quote-1.0.40/src/runtime.rs:285:22: 285:29]>"*, !dbg !806
  %2 = bitcast %"core::iter::adapters::map::Map<proc_macro2::token_stream::IntoIter, [closure@/home/calvin/.cargo/registry/src/github.com-1ecc6299db9ec823/quote-1.0.40/src/runtime.rs:285:22: 285:29]>"* %_4 to i8*, !dbg !806
  %3 = bitcast %"core::iter::adapters::map::Map<proc_macro2::token_stream::IntoIter, [closure@/home/calvin/.cargo/registry/src/github.com-1ecc6299db9ec823/quote-1.0.40/src/runtime.rs:285:22: 285:29]>"* %1 to i8*, !dbg !806
  call void @llvm.memcpy.p0i8.p0i8.i64(i8* align 8 %2, i8* align 8 %3, i64 48, i1 false), !dbg !806
  store i8 1, i8* %_9, align 1, !dbg !807
; invoke core::iter::adapters::map::map_fold
  %_6 = invoke align 8 i64* @_ZN4core4iter8adapters3map8map_fold17h4dd2d52e0026748cE(i64* align 8 %g)
          to label %bb1 unwind label %cleanup, !dbg !808

bb6:                                              ; preds = %cleanup
  %4 = load i8, i8* %_9, align 1, !dbg !809, !range !810, !noundef !27
  %5 = trunc i8 %4 to i1, !dbg !809
  br i1 %5, label %bb5, label %bb3, !dbg !809

cleanup:                                          ; preds = %bb1, %start
  %6 = landingpad { i8*, i32 }
          cleanup
  %7 = extractvalue { i8*, i32 } %6, 0
  %8 = extractvalue { i8*, i32 } %6, 1
  %9 = getelementptr inbounds { i8*, i32 }, { i8*, i32 }* %0, i32 0, i32 0
  store i8* %7, i8** %9, align 8
  %10 = getelementptr inbounds { i8*, i32 }, { i8*, i32 }* %0, i32 0, i32 1
  store i32 %8, i32* %10, align 8
  br label %bb6

bb1:                                              ; preds = %start
  store i8 0, i8* %_10, align 1, !dbg !806
  store i8 0, i8* %_9, align 1, !dbg !806
; invoke <core::iter::adapters::map::Map<I,F> as core::iter::traits::iterator::Iterator>::fold
  invoke void @"_ZN102_$LT$core..iter..adapters..map..Map$LT$I$C$F$GT$$u20$as$u20$core..iter..traits..iterator..Iterator$GT$4fold17h9939e13f87649d7eE"(%"core::iter::adapters::map::Map<proc_macro2::token_stream::IntoIter, [closure@/home/calvin/.cargo/registry/src/github.com-1ecc6299db9ec823/quote-1.0.40/src/runtime.rs:285:22: 285:29]>"* %_4, i64* align 8 %_6)
          to label %bb2 unwind label %cleanup, !dbg !806

bb2:                                              ; preds = %bb1
  ret void, !dbg !811

bb3:                                              ; preds = %bb5, %bb6
  %11 = load i8, i8* %_10, align 1, !dbg !809, !range !810, !noundef !27
  %12 = trunc i8 %11 to i1, !dbg !809
  br i1 %12, label %bb7, label %bb4, !dbg !809

bb5:                                              ; preds = %bb6
  br label %bb3, !dbg !809

bb4:                                              ; preds = %bb7, %bb3
  %13 = bitcast { i8*, i32 }* %0 to i8**, !dbg !812
  %14 = load i8*, i8** %13, align 8, !dbg !812
  %15 = getelementptr inbounds { i8*, i32 }, { i8*, i32 }* %0, i32 0, i32 1, !dbg !812
  %16 = load i32, i32* %15, align 8, !dbg !812
  %17 = insertvalue { i8*, i32 } undef, i8* %14, 0, !dbg !812
  %18 = insertvalue { i8*, i32 } %17, i32 %16, 1, !dbg !812
  resume { i8*, i32 } %18, !dbg !812

bb7:                                              ; preds = %bb3
; invoke core::ptr::drop_in_place<core::iter::adapters::map::Map<proc_macro2::token_stream::IntoIter,quote::__private::respan_token_tree::{{closure}}>>
  invoke void @"_ZN4core3ptr161drop_in_place$LT$core..iter..adapters..map..Map$LT$proc_macro2..token_stream..IntoIter$C$quote..__private..respan_token_tree..$u7b$$u7b$closure$u7d$$u7d$$GT$$GT$17h8b52fdb8e5410252E"(%"core::iter::adapters::map::Map<proc_macro2::token_stream::IntoIter, [closure@/home/calvin/.cargo/registry/src/github.com-1ecc6299db9ec823/quote-1.0.40/src/runtime.rs:285:22: 285:29]>"* %_4) #13
          to label %bb4 unwind label %abort, !dbg !809

abort:                                            ; preds = %bb7
  %19 = landingpad { i8*, i32 }
          cleanup, !dbg !812
; call core::panicking::panic_no_unwind
  call void @_ZN4core9panicking15panic_no_unwind17h62f8113f44cbfcbfE() #14, !dbg !812
  unreachable, !dbg !812
}

; <core::iter::adapters::map::Map<I,F> as core::iter::traits::iterator::Iterator>::fold
; Function Attrs: nonlazybind uwtable
define void @"_ZN102_$LT$core..iter..adapters..map..Map$LT$I$C$F$GT$$u20$as$u20$core..iter..traits..iterator..Iterator$GT$4fold17h2ad5d325291826cbE"(%"core::iter::adapters::map::Map<core::iter::adapters::map::Map<core::iter::sources::once::Once<proc_macro2::TokenStream>, [closure@<proc_macro2::TokenStream as core::iter::traits::collect::Extend<proc_macro2::TokenStream>>::extend<core::iter::sources::once::Once<proc_macro2::TokenStream>>::{closure#0}]>, fn(proc_macro2::imp::TokenStream) -> proc_macro::TokenStream {proc_macro2::imp::TokenStream::unwrap_nightly}>"* %self, i64* align 8 %g) unnamed_addr #1 personality i32 (i32, i32, i64, %"unwind::libunwind::_Unwind_Exception"*, %"unwind::libunwind::_Unwind_Context"*)* @rust_eh_personality !dbg !813 {
start:
  %0 = alloca { i8*, i32 }, align 8
  %g.dbg.spill = alloca i64*, align 8
  %init.dbg.spill = alloca {}, align 1
  %_10 = alloca i8, align 1
  %_9 = alloca i8, align 1
  %_4 = alloca %"core::iter::adapters::map::Map<core::iter::sources::once::Once<proc_macro2::TokenStream>, [closure@<proc_macro2::TokenStream as core::iter::traits::collect::Extend<proc_macro2::TokenStream>>::extend<core::iter::sources::once::Once<proc_macro2::TokenStream>>::{closure#0}]>", align 8
  call void @llvm.dbg.declare(metadata %"core::iter::adapters::map::Map<core::iter::adapters::map::Map<core::iter::sources::once::Once<proc_macro2::TokenStream>, [closure@<proc_macro2::TokenStream as core::iter::traits::collect::Extend<proc_macro2::TokenStream>>::extend<core::iter::sources::once::Once<proc_macro2::TokenStream>>::{closure#0}]>, fn(proc_macro2::imp::TokenStream) -> proc_macro::TokenStream {proc_macro2::imp::TokenStream::unwrap_nightly}>"* %self, metadata !939, metadata !DIExpression()), !dbg !945
  call void @llvm.dbg.declare(metadata {}* %init.dbg.spill, metadata !940, metadata !DIExpression()), !dbg !946
  store i64* %g, i64** %g.dbg.spill, align 8
  call void @llvm.dbg.declare(metadata i64** %g.dbg.spill, metadata !941, metadata !DIExpression()), !dbg !947
  store i8 1, i8* %_10, align 1, !dbg !948
  %1 = bitcast %"core::iter::adapters::map::Map<core::iter::adapters::map::Map<core::iter::sources::once::Once<proc_macro2::TokenStream>, [closure@<proc_macro2::TokenStream as core::iter::traits::collect::Extend<proc_macro2::TokenStream>>::extend<core::iter::sources::once::Once<proc_macro2::TokenStream>>::{closure#0}]>, fn(proc_macro2::imp::TokenStream) -> proc_macro::TokenStream {proc_macro2::imp::TokenStream::unwrap_nightly}>"* %self to %"core::iter::adapters::map::Map<core::iter::sources::once::Once<proc_macro2::TokenStream>, [closure@<proc_macro2::TokenStream as core::iter::traits::collect::Extend<proc_macro2::TokenStream>>::extend<core::iter::sources::once::Once<proc_macro2::TokenStream>>::{closure#0}]>"*, !dbg !948
  %2 = bitcast %"core::iter::adapters::map::Map<core::iter::sources::once::Once<proc_macro2::TokenStream>, [closure@<proc_macro2::TokenStream as core::iter::traits::collect::Extend<proc_macro2::TokenStream>>::extend<core::iter::sources::once::Once<proc_macro2::TokenStream>>::{closure#0}]>"* %_4 to i8*, !dbg !948
  %3 = bitcast %"core::iter::adapters::map::Map<core::iter::sources::once::Once<proc_macro2::TokenStream>, [closure@<proc_macro2::TokenStream as core::iter::traits::collect::Extend<proc_macro2::TokenStream>>::extend<core::iter::sources::once::Once<proc_macro2::TokenStream>>::{closure#0}]>"* %1 to i8*, !dbg !948
  call void @llvm.memcpy.p0i8.p0i8.i64(i8* align 8 %2, i8* align 8 %3, i64 40, i1 false), !dbg !948
  store i8 1, i8* %_9, align 1, !dbg !949
; invoke core::iter::adapters::map::map_fold
  %_6 = invoke align 8 i64* @_ZN4core4iter8adapters3map8map_fold17hd49bc22b89eb4125E(i64* align 8 %g)
          to label %bb1 unwind label %cleanup, !dbg !950

bb6:                                              ; preds = %cleanup
  %4 = load i8, i8* %_9, align 1, !dbg !951, !range !810, !noundef !27
  %5 = trunc i8 %4 to i1, !dbg !951
  br i1 %5, label %bb5, label %bb3, !dbg !951

cleanup:                                          ; preds = %bb1, %start
  %6 = landingpad { i8*, i32 }
          cleanup
  %7 = extractvalue { i8*, i32 } %6, 0
  %8 = extractvalue { i8*, i32 } %6, 1
  %9 = getelementptr inbounds { i8*, i32 }, { i8*, i32 }* %0, i32 0, i32 0
  store i8* %7, i8** %9, align 8
  %10 = getelementptr inbounds { i8*, i32 }, { i8*, i32 }* %0, i32 0, i32 1
  store i32 %8, i32* %10, align 8
  br label %bb6

bb1:                                              ; preds = %start
  store i8 0, i8* %_10, align 1, !dbg !948
  store i8 0, i8* %_9, align 1, !dbg !948
; invoke <core::iter::adapters::map::Map<I,F> as core::iter::traits::iterator::Iterator>::fold
  invoke void @"_ZN102_$LT$core..iter..adapters..map..Map$LT$I$C$F$GT$$u20$as$u20$core..iter..traits..iterator..Iterator$GT$4fold17h6008f9fc50f10fb9E"(%"core::iter::adapters::map::Map<core::iter::sources::once::Once<proc_macro2::TokenStream>, [closure@<proc_macro2::TokenStream as core::iter::traits::collect::Extend<proc_macro2::TokenStream>>::extend<core::iter::sources::once::Once<proc_macro2::TokenStream>>::{closure#0}]>"* %_4, i64* align 8 %_6)
          to label %bb2 unwind label %cleanup, !dbg !948

bb2:                                              ; preds = %bb1
  ret void, !dbg !952

bb3:                                              ; preds = %bb5, %bb6
  %11 = load i8, i8* %_10, align 1, !dbg !951, !range !810, !noundef !27
  %12 = trunc i8 %11 to i1, !dbg !951
  br i1 %12, label %bb7, label %bb4, !dbg !951

bb5:                                              ; preds = %bb6
  br label %bb3, !dbg !951

bb4:                                              ; preds = %bb7, %bb3
  %13 = bitcast { i8*, i32 }* %0 to i8**, !dbg !953
  %14 = load i8*, i8** %13, align 8, !dbg !953
  %15 = getelementptr inbounds { i8*, i32 }, { i8*, i32 }* %0, i32 0, i32 1, !dbg !953
  %16 = load i32, i32* %15, align 8, !dbg !953
  %17 = insertvalue { i8*, i32 } undef, i8* %14, 0, !dbg !953
  %18 = insertvalue { i8*, i32 } %17, i32 %16, 1, !dbg !953
  resume { i8*, i32 } %18, !dbg !953

bb7:                                              ; preds = %bb3
; invoke core::ptr::drop_in_place<core::iter::adapters::map::Map<core::iter::sources::once::Once<proc_macro2::TokenStream>,<proc_macro2::TokenStream as core::iter::traits::collect::Extend<proc_macro2::TokenStream>>::extend<core::iter::sources::once::Once<proc_macro2::TokenStream>>::{{closure}}>>
  invoke void @"_ZN4core3ptr344drop_in_place$LT$core..iter..adapters..map..Map$LT$core..iter..sources..once..Once$LT$proc_macro2..TokenStream$GT$$C$$LT$proc_macro2..TokenStream$u20$as$u20$core..iter..traits..collect..Extend$LT$proc_macro2..TokenStream$GT$$GT$..extend$LT$core..iter..sources..once..Once$LT$proc_macro2..TokenStream$GT$$GT$..$u7b$$u7b$closure$u7d$$u7d$$GT$$GT$17h73210d1f6331a326E"(%"core::iter::adapters::map::Map<core::iter::sources::once::Once<proc_macro2::TokenStream>, [closure@<proc_macro2::TokenStream as core::iter::traits::collect::Extend<proc_macro2::TokenStream>>::extend<core::iter::sources::once::Once<proc_macro2::TokenStream>>::{closure#0}]>"* %_4) #13
          to label %bb4 unwind label %abort, !dbg !951

abort:                                            ; preds = %bb7
  %19 = landingpad { i8*, i32 }
          cleanup, !dbg !953
; call core::panicking::panic_no_unwind
  call void @_ZN4core9panicking15panic_no_unwind17h62f8113f44cbfcbfE() #14, !dbg !953
  unreachable, !dbg !953
}

; <core::iter::adapters::map::Map<I,F> as core::iter::traits::iterator::Iterator>::fold
; Function Attrs: nonlazybind uwtable
define void @"_ZN102_$LT$core..iter..adapters..map..Map$LT$I$C$F$GT$$u20$as$u20$core..iter..traits..iterator..Iterator$GT$4fold17h6008f9fc50f10fb9E"(%"core::iter::adapters::map::Map<core::iter::sources::once::Once<proc_macro2::TokenStream>, [closure@<proc_macro2::TokenStream as core::iter::traits::collect::Extend<proc_macro2::TokenStream>>::extend<core::iter::sources::once::Once<proc_macro2::TokenStream>>::{closure#0}]>"* %self, i64* align 8 %g) unnamed_addr #1 personality i32 (i32, i32, i64, %"unwind::libunwind::_Unwind_Exception"*, %"unwind::libunwind::_Unwind_Context"*)* @rust_eh_personality !dbg !954 {
start:
  %0 = alloca { i8*, i32 }, align 8
  %g.dbg.spill = alloca i64*, align 8
  %init.dbg.spill = alloca {}, align 1
  %_10 = alloca i8, align 1
  %_9 = alloca i8, align 1
  %_4 = alloca %"core::iter::sources::once::Once<proc_macro2::TokenStream>", align 8
  call void @llvm.dbg.declare(metadata %"core::iter::adapters::map::Map<core::iter::sources::once::Once<proc_macro2::TokenStream>, [closure@<proc_macro2::TokenStream as core::iter::traits::collect::Extend<proc_macro2::TokenStream>>::extend<core::iter::sources::once::Once<proc_macro2::TokenStream>>::{closure#0}]>"* %self, metadata !963, metadata !DIExpression()), !dbg !969
  call void @llvm.dbg.declare(metadata {}* %init.dbg.spill, metadata !964, metadata !DIExpression()), !dbg !970
  store i64* %g, i64** %g.dbg.spill, align 8
  call void @llvm.dbg.declare(metadata i64** %g.dbg.spill, metadata !965, metadata !DIExpression()), !dbg !971
  store i8 1, i8* %_10, align 1, !dbg !972
  %1 = bitcast %"core::iter::adapters::map::Map<core::iter::sources::once::Once<proc_macro2::TokenStream>, [closure@<proc_macro2::TokenStream as core::iter::traits::collect::Extend<proc_macro2::TokenStream>>::extend<core::iter::sources::once::Once<proc_macro2::TokenStream>>::{closure#0}]>"* %self to %"core::iter::sources::once::Once<proc_macro2::TokenStream>"*, !dbg !972
  %2 = bitcast %"core::iter::sources::once::Once<proc_macro2::TokenStream>"* %_4 to i8*, !dbg !972
  %3 = bitcast %"core::iter::sources::once::Once<proc_macro2::TokenStream>"* %1 to i8*, !dbg !972
  call void @llvm.memcpy.p0i8.p0i8.i64(i8* align 8 %2, i8* align 8 %3, i64 40, i1 false), !dbg !972
  store i8 1, i8* %_9, align 1, !dbg !973
; invoke core::iter::adapters::map::map_fold
  %_6 = invoke align 8 i64* @_ZN4core4iter8adapters3map8map_fold17hbe59c5a5619de4a8E(i64* align 8 %g)
          to label %bb1 unwind label %cleanup, !dbg !974

bb6:                                              ; preds = %cleanup
  %4 = load i8, i8* %_9, align 1, !dbg !975, !range !810, !noundef !27
  %5 = trunc i8 %4 to i1, !dbg !975
  br i1 %5, label %bb5, label %bb3, !dbg !975

cleanup:                                          ; preds = %bb1, %start
  %6 = landingpad { i8*, i32 }
          cleanup
  %7 = extractvalue { i8*, i32 } %6, 0
  %8 = extractvalue { i8*, i32 } %6, 1
  %9 = getelementptr inbounds { i8*, i32 }, { i8*, i32 }* %0, i32 0, i32 0
  store i8* %7, i8** %9, align 8
  %10 = getelementptr inbounds { i8*, i32 }, { i8*, i32 }* %0, i32 0, i32 1
  store i32 %8, i32* %10, align 8
  br label %bb6

bb1:                                              ; preds = %start
  store i8 0, i8* %_10, align 1, !dbg !972
  store i8 0, i8* %_9, align 1, !dbg !972
; invoke core::iter::traits::iterator::Iterator::fold
  invoke void @_ZN4core4iter6traits8iterator8Iterator4fold17h4a122a6561f205e3E(%"core::iter::sources::once::Once<proc_macro2::TokenStream>"* %_4, i64* align 8 %_6)
          to label %bb2 unwind label %cleanup, !dbg !972

bb2:                                              ; preds = %bb1
  ret void, !dbg !976

bb3:                                              ; preds = %bb5, %bb6
  %11 = load i8, i8* %_10, align 1, !dbg !975, !range !810, !noundef !27
  %12 = trunc i8 %11 to i1, !dbg !975
  br i1 %12, label %bb7, label %bb4, !dbg !975

bb5:                                              ; preds = %bb6
  br label %bb3, !dbg !975

bb4:                                              ; preds = %bb7, %bb3
  %13 = bitcast { i8*, i32 }* %0 to i8**, !dbg !977
  %14 = load i8*, i8** %13, align 8, !dbg !977
  %15 = getelementptr inbounds { i8*, i32 }, { i8*, i32 }* %0, i32 0, i32 1, !dbg !977
  %16 = load i32, i32* %15, align 8, !dbg !977
  %17 = insertvalue { i8*, i32 } undef, i8* %14, 0, !dbg !977
  %18 = insertvalue { i8*, i32 } %17, i32 %16, 1, !dbg !977
  resume { i8*, i32 } %18, !dbg !977

bb7:                                              ; preds = %bb3
; invoke core::ptr::drop_in_place<core::iter::sources::once::Once<proc_macro2::TokenStream>>
  invoke void @"_ZN4core3ptr84drop_in_place$LT$core..iter..sources..once..Once$LT$proc_macro2..TokenStream$GT$$GT$17h3ec1515f98c8b5ebE"(%"core::iter::sources::once::Once<proc_macro2::TokenStream>"* %_4) #13
          to label %bb4 unwind label %abort, !dbg !975

abort:                                            ; preds = %bb7
  %19 = landingpad { i8*, i32 }
          cleanup, !dbg !977
; call core::panicking::panic_no_unwind
  call void @_ZN4core9panicking15panic_no_unwind17h62f8113f44cbfcbfE() #14, !dbg !977
  unreachable, !dbg !977
}

; <core::iter::adapters::map::Map<I,F> as core::iter::traits::iterator::Iterator>::fold
; Function Attrs: nonlazybind uwtable
define void @"_ZN102_$LT$core..iter..adapters..map..Map$LT$I$C$F$GT$$u20$as$u20$core..iter..traits..iterator..Iterator$GT$4fold17h9939e13f87649d7eE"(%"core::iter::adapters::map::Map<proc_macro2::token_stream::IntoIter, [closure@/home/calvin/.cargo/registry/src/github.com-1ecc6299db9ec823/quote-1.0.40/src/runtime.rs:285:22: 285:29]>"* %self, i64* align 8 %g) unnamed_addr #1 personality i32 (i32, i32, i64, %"unwind::libunwind::_Unwind_Exception"*, %"unwind::libunwind::_Unwind_Context"*)* @rust_eh_personality !dbg !978 {
start:
  %0 = alloca { i8*, i32 }, align 8
  %g.dbg.spill = alloca i64*, align 8
  %init.dbg.spill = alloca {}, align 1
  %_10 = alloca i8, align 1
  %_9 = alloca i8, align 1
  %_4 = alloca %"proc_macro2::token_stream::IntoIter", align 8
  call void @llvm.dbg.declare(metadata %"core::iter::adapters::map::Map<proc_macro2::token_stream::IntoIter, [closure@/home/calvin/.cargo/registry/src/github.com-1ecc6299db9ec823/quote-1.0.40/src/runtime.rs:285:22: 285:29]>"* %self, metadata !986, metadata !DIExpression()), !dbg !992
  call void @llvm.dbg.declare(metadata {}* %init.dbg.spill, metadata !987, metadata !DIExpression()), !dbg !993
  store i64* %g, i64** %g.dbg.spill, align 8
  call void @llvm.dbg.declare(metadata i64** %g.dbg.spill, metadata !988, metadata !DIExpression()), !dbg !994
  store i8 1, i8* %_10, align 1, !dbg !995
  %1 = bitcast %"core::iter::adapters::map::Map<proc_macro2::token_stream::IntoIter, [closure@/home/calvin/.cargo/registry/src/github.com-1ecc6299db9ec823/quote-1.0.40/src/runtime.rs:285:22: 285:29]>"* %self to %"proc_macro2::token_stream::IntoIter"*, !dbg !995
  %2 = bitcast %"proc_macro2::token_stream::IntoIter"* %_4 to i8*, !dbg !995
  %3 = bitcast %"proc_macro2::token_stream::IntoIter"* %1 to i8*, !dbg !995
  call void @llvm.memcpy.p0i8.p0i8.i64(i8* align 8 %2, i8* align 8 %3, i64 40, i1 false), !dbg !995
  store i8 1, i8* %_9, align 1, !dbg !996
  %4 = getelementptr inbounds %"core::iter::adapters::map::Map<proc_macro2::token_stream::IntoIter, [closure@/home/calvin/.cargo/registry/src/github.com-1ecc6299db9ec823/quote-1.0.40/src/runtime.rs:285:22: 285:29]>", %"core::iter::adapters::map::Map<proc_macro2::token_stream::IntoIter, [closure@/home/calvin/.cargo/registry/src/github.com-1ecc6299db9ec823/quote-1.0.40/src/runtime.rs:285:22: 285:29]>"* %self, i32 0, i32 1, !dbg !997
  %_7 = load i32*, i32** %4, align 8, !dbg !997, !nonnull !27, !align !998, !noundef !27
; invoke core::iter::adapters::map::map_fold
  %5 = invoke { i64*, i32* } @_ZN4core4iter8adapters3map8map_fold17h3fb3bdd077100d0bE(i32* align 4 %_7, i64* align 8 %g)
          to label %bb1 unwind label %cleanup, !dbg !999

bb6:                                              ; preds = %cleanup
  %6 = load i8, i8* %_9, align 1, !dbg !1000, !range !810, !noundef !27
  %7 = trunc i8 %6 to i1, !dbg !1000
  br i1 %7, label %bb5, label %bb3, !dbg !1000

cleanup:                                          ; preds = %bb1, %start
  %8 = landingpad { i8*, i32 }
          cleanup
  %9 = extractvalue { i8*, i32 } %8, 0
  %10 = extractvalue { i8*, i32 } %8, 1
  %11 = getelementptr inbounds { i8*, i32 }, { i8*, i32 }* %0, i32 0, i32 0
  store i8* %9, i8** %11, align 8
  %12 = getelementptr inbounds { i8*, i32 }, { i8*, i32 }* %0, i32 0, i32 1
  store i32 %10, i32* %12, align 8
  br label %bb6

bb1:                                              ; preds = %start
  %_6.0 = extractvalue { i64*, i32* } %5, 0, !dbg !999
  %_6.1 = extractvalue { i64*, i32* } %5, 1, !dbg !999
  store i8 0, i8* %_10, align 1, !dbg !995
  store i8 0, i8* %_9, align 1, !dbg !995
; invoke core::iter::traits::iterator::Iterator::fold
  invoke void @_ZN4core4iter6traits8iterator8Iterator4fold17heaccd518bf28a0ceE(%"proc_macro2::token_stream::IntoIter"* %_4, i64* align 8 %_6.0, i32* align 4 %_6.1)
          to label %bb2 unwind label %cleanup, !dbg !995

bb2:                                              ; preds = %bb1
  ret void, !dbg !1001

bb3:                                              ; preds = %bb5, %bb6
  %13 = load i8, i8* %_10, align 1, !dbg !1000, !range !810, !noundef !27
  %14 = trunc i8 %13 to i1, !dbg !1000
  br i1 %14, label %bb7, label %bb4, !dbg !1000

bb5:                                              ; preds = %bb6
  br label %bb3, !dbg !1000

bb4:                                              ; preds = %bb7, %bb3
  %15 = bitcast { i8*, i32 }* %0 to i8**, !dbg !1002
  %16 = load i8*, i8** %15, align 8, !dbg !1002
  %17 = getelementptr inbounds { i8*, i32 }, { i8*, i32 }* %0, i32 0, i32 1, !dbg !1002
  %18 = load i32, i32* %17, align 8, !dbg !1002
  %19 = insertvalue { i8*, i32 } undef, i8* %16, 0, !dbg !1002
  %20 = insertvalue { i8*, i32 } %19, i32 %18, 1, !dbg !1002
  resume { i8*, i32 } %20, !dbg !1002

bb7:                                              ; preds = %bb3
; invoke core::ptr::drop_in_place<proc_macro2::token_stream::IntoIter>
  invoke void @"_ZN4core3ptr56drop_in_place$LT$proc_macro2..token_stream..IntoIter$GT$17hde5479301ede0179E"(%"proc_macro2::token_stream::IntoIter"* %_4) #13
          to label %bb4 unwind label %abort, !dbg !1000

abort:                                            ; preds = %bb7
  %21 = landingpad { i8*, i32 }
          cleanup, !dbg !1002
; call core::panicking::panic_no_unwind
  call void @_ZN4core9panicking15panic_no_unwind17h62f8113f44cbfcbfE() #14, !dbg !1002
  unreachable, !dbg !1002
}

; <core::iter::adapters::map::Map<I,F> as core::iter::traits::iterator::Iterator>::fold
; Function Attrs: nonlazybind uwtable
define { i32, i32 } @"_ZN102_$LT$core..iter..adapters..map..Map$LT$I$C$F$GT$$u20$as$u20$core..iter..traits..iterator..Iterator$GT$4fold17hc7c91159cbf68d38E"(%"core::iter::adapters::map::Map<proc_macro2::token_stream::IntoIter, [closure@/home/calvin/.cargo/registry/src/github.com-1ecc6299db9ec823/quote-1.0.40/src/spanned.rs:29:43: 29:47]>"* %self, i32 %init.0, i32 %init.1) unnamed_addr #1 personality i32 (i32, i32, i64, %"unwind::libunwind::_Unwind_Exception"*, %"unwind::libunwind::_Unwind_Context"*)* @rust_eh_personality !dbg !1003 {
start:
  %0 = alloca { i8*, i32 }, align 8
  %g.dbg.spill = alloca %"[closure@/home/calvin/.cargo/registry/src/github.com-1ecc6299db9ec823/quote-1.0.40/src/spanned.rs:36:21: 36:34]", align 1
  %init.dbg.spill = alloca { i32, i32 }, align 4
  %_10 = alloca i8, align 1
  %_9 = alloca i8, align 1
  %_4 = alloca %"proc_macro2::token_stream::IntoIter", align 8
  call void @llvm.dbg.declare(metadata %"core::iter::adapters::map::Map<proc_macro2::token_stream::IntoIter, [closure@/home/calvin/.cargo/registry/src/github.com-1ecc6299db9ec823/quote-1.0.40/src/spanned.rs:29:43: 29:47]>"* %self, metadata !1030, metadata !DIExpression()), !dbg !1037
  %1 = getelementptr inbounds { i32, i32 }, { i32, i32 }* %init.dbg.spill, i32 0, i32 0
  store i32 %init.0, i32* %1, align 4
  %2 = getelementptr inbounds { i32, i32 }, { i32, i32 }* %init.dbg.spill, i32 0, i32 1
  store i32 %init.1, i32* %2, align 4
  call void @llvm.dbg.declare(metadata { i32, i32 }* %init.dbg.spill, metadata !1031, metadata !DIExpression()), !dbg !1038
  call void @llvm.dbg.declare(metadata %"[closure@/home/calvin/.cargo/registry/src/github.com-1ecc6299db9ec823/quote-1.0.40/src/spanned.rs:36:21: 36:34]"* %g.dbg.spill, metadata !1032, metadata !DIExpression()), !dbg !1039
  store i8 1, i8* %_10, align 1, !dbg !1040
  %3 = bitcast %"core::iter::adapters::map::Map<proc_macro2::token_stream::IntoIter, [closure@/home/calvin/.cargo/registry/src/github.com-1ecc6299db9ec823/quote-1.0.40/src/spanned.rs:29:43: 29:47]>"* %self to %"proc_macro2::token_stream::IntoIter"*, !dbg !1040
  %4 = bitcast %"proc_macro2::token_stream::IntoIter"* %_4 to i8*, !dbg !1040
  %5 = bitcast %"proc_macro2::token_stream::IntoIter"* %3 to i8*, !dbg !1040
  call void @llvm.memcpy.p0i8.p0i8.i64(i8* align 8 %4, i8* align 8 %5, i64 40, i1 false), !dbg !1040
  store i8 1, i8* %_9, align 1, !dbg !1041
; invoke core::iter::adapters::map::map_fold
  invoke void @_ZN4core4iter8adapters3map8map_fold17hdfa56835d121289cE()
          to label %bb1 unwind label %cleanup, !dbg !1042

bb6:                                              ; preds = %cleanup
  %6 = load i8, i8* %_9, align 1, !dbg !1043, !range !810, !noundef !27
  %7 = trunc i8 %6 to i1, !dbg !1043
  br i1 %7, label %bb5, label %bb3, !dbg !1043

cleanup:                                          ; preds = %bb1, %start
  %8 = landingpad { i8*, i32 }
          cleanup
  %9 = extractvalue { i8*, i32 } %8, 0
  %10 = extractvalue { i8*, i32 } %8, 1
  %11 = getelementptr inbounds { i8*, i32 }, { i8*, i32 }* %0, i32 0, i32 0
  store i8* %9, i8** %11, align 8
  %12 = getelementptr inbounds { i8*, i32 }, { i8*, i32 }* %0, i32 0, i32 1
  store i32 %10, i32* %12, align 8
  br label %bb6

bb1:                                              ; preds = %start
  store i8 0, i8* %_10, align 1, !dbg !1040
  store i8 0, i8* %_9, align 1, !dbg !1040
; invoke core::iter::traits::iterator::Iterator::fold
  %13 = invoke { i32, i32 } @_ZN4core4iter6traits8iterator8Iterator4fold17h5fba7e76e0f8fa69E(%"proc_macro2::token_stream::IntoIter"* %_4, i32 %init.0, i32 %init.1)
          to label %bb2 unwind label %cleanup, !dbg !1040

bb2:                                              ; preds = %bb1
  %14 = extractvalue { i32, i32 } %13, 0, !dbg !1040
  %15 = extractvalue { i32, i32 } %13, 1, !dbg !1040
  %16 = insertvalue { i32, i32 } undef, i32 %14, 0, !dbg !1044
  %17 = insertvalue { i32, i32 } %16, i32 %15, 1, !dbg !1044
  ret { i32, i32 } %17, !dbg !1044

bb3:                                              ; preds = %bb5, %bb6
  %18 = load i8, i8* %_10, align 1, !dbg !1043, !range !810, !noundef !27
  %19 = trunc i8 %18 to i1, !dbg !1043
  br i1 %19, label %bb7, label %bb4, !dbg !1043

bb5:                                              ; preds = %bb6
  br label %bb3, !dbg !1043

bb4:                                              ; preds = %bb7, %bb3
  %20 = bitcast { i8*, i32 }* %0 to i8**, !dbg !1045
  %21 = load i8*, i8** %20, align 8, !dbg !1045
  %22 = getelementptr inbounds { i8*, i32 }, { i8*, i32 }* %0, i32 0, i32 1, !dbg !1045
  %23 = load i32, i32* %22, align 8, !dbg !1045
  %24 = insertvalue { i8*, i32 } undef, i8* %21, 0, !dbg !1045
  %25 = insertvalue { i8*, i32 } %24, i32 %23, 1, !dbg !1045
  resume { i8*, i32 } %25, !dbg !1045

bb7:                                              ; preds = %bb3
; invoke core::ptr::drop_in_place<proc_macro2::token_stream::IntoIter>
  invoke void @"_ZN4core3ptr56drop_in_place$LT$proc_macro2..token_stream..IntoIter$GT$17hde5479301ede0179E"(%"proc_macro2::token_stream::IntoIter"* %_4) #13
          to label %bb4 unwind label %abort, !dbg !1043

abort:                                            ; preds = %bb7
  %26 = landingpad { i8*, i32 }
          cleanup, !dbg !1045
; call core::panicking::panic_no_unwind
  call void @_ZN4core9panicking15panic_no_unwind17h62f8113f44cbfcbfE() #14, !dbg !1045
  unreachable, !dbg !1045
}

; <core::iter::adapters::map::Map<I,F> as core::iter::traits::iterator::Iterator>::fold
; Function Attrs: nonlazybind uwtable
define void @"_ZN102_$LT$core..iter..adapters..map..Map$LT$I$C$F$GT$$u20$as$u20$core..iter..traits..iterator..Iterator$GT$4fold17he41722163aeed9fbE"(%"core::iter::adapters::map::Map<proc_macro2::token_stream::IntoIter, [closure@/home/calvin/.cargo/registry/src/github.com-1ecc6299db9ec823/quote-1.0.40/src/runtime.rs:285:22: 285:29]>"* %self, i64* align 8 %g) unnamed_addr #1 personality i32 (i32, i32, i64, %"unwind::libunwind::_Unwind_Exception"*, %"unwind::libunwind::_Unwind_Context"*)* @rust_eh_personality !dbg !1046 {
start:
  %0 = alloca { i8*, i32 }, align 8
  %g.dbg.spill = alloca i64*, align 8
  %init.dbg.spill = alloca {}, align 1
  %_10 = alloca i8, align 1
  %_9 = alloca i8, align 1
  %_4 = alloca %"proc_macro2::token_stream::IntoIter", align 8
  call void @llvm.dbg.declare(metadata %"core::iter::adapters::map::Map<proc_macro2::token_stream::IntoIter, [closure@/home/calvin/.cargo/registry/src/github.com-1ecc6299db9ec823/quote-1.0.40/src/runtime.rs:285:22: 285:29]>"* %self, metadata !1063, metadata !DIExpression()), !dbg !1068
  call void @llvm.dbg.declare(metadata {}* %init.dbg.spill, metadata !1064, metadata !DIExpression()), !dbg !1069
  store i64* %g, i64** %g.dbg.spill, align 8
  call void @llvm.dbg.declare(metadata i64** %g.dbg.spill, metadata !1065, metadata !DIExpression()), !dbg !1070
  store i8 1, i8* %_10, align 1, !dbg !1071
  %1 = bitcast %"core::iter::adapters::map::Map<proc_macro2::token_stream::IntoIter, [closure@/home/calvin/.cargo/registry/src/github.com-1ecc6299db9ec823/quote-1.0.40/src/runtime.rs:285:22: 285:29]>"* %self to %"proc_macro2::token_stream::IntoIter"*, !dbg !1071
  %2 = bitcast %"proc_macro2::token_stream::IntoIter"* %_4 to i8*, !dbg !1071
  %3 = bitcast %"proc_macro2::token_stream::IntoIter"* %1 to i8*, !dbg !1071
  call void @llvm.memcpy.p0i8.p0i8.i64(i8* align 8 %2, i8* align 8 %3, i64 40, i1 false), !dbg !1071
  store i8 1, i8* %_9, align 1, !dbg !1072
  %4 = getelementptr inbounds %"core::iter::adapters::map::Map<proc_macro2::token_stream::IntoIter, [closure@/home/calvin/.cargo/registry/src/github.com-1ecc6299db9ec823/quote-1.0.40/src/runtime.rs:285:22: 285:29]>", %"core::iter::adapters::map::Map<proc_macro2::token_stream::IntoIter, [closure@/home/calvin/.cargo/registry/src/github.com-1ecc6299db9ec823/quote-1.0.40/src/runtime.rs:285:22: 285:29]>"* %self, i32 0, i32 1, !dbg !1073
  %_7 = load i32*, i32** %4, align 8, !dbg !1073, !nonnull !27, !align !998, !noundef !27
; invoke core::iter::adapters::map::map_fold
  %5 = invoke { i64*, i32* } @_ZN4core4iter8adapters3map8map_fold17h3fe7654add8214ffE(i32* align 4 %_7, i64* align 8 %g)
          to label %bb1 unwind label %cleanup, !dbg !1074

bb6:                                              ; preds = %cleanup
  %6 = load i8, i8* %_9, align 1, !dbg !1075, !range !810, !noundef !27
  %7 = trunc i8 %6 to i1, !dbg !1075
  br i1 %7, label %bb5, label %bb3, !dbg !1075

cleanup:                                          ; preds = %bb1, %start
  %8 = landingpad { i8*, i32 }
          cleanup
  %9 = extractvalue { i8*, i32 } %8, 0
  %10 = extractvalue { i8*, i32 } %8, 1
  %11 = getelementptr inbounds { i8*, i32 }, { i8*, i32 }* %0, i32 0, i32 0
  store i8* %9, i8** %11, align 8
  %12 = getelementptr inbounds { i8*, i32 }, { i8*, i32 }* %0, i32 0, i32 1
  store i32 %10, i32* %12, align 8
  br label %bb6

bb1:                                              ; preds = %start
  %_6.0 = extractvalue { i64*, i32* } %5, 0, !dbg !1074
  %_6.1 = extractvalue { i64*, i32* } %5, 1, !dbg !1074
  store i8 0, i8* %_10, align 1, !dbg !1071
  store i8 0, i8* %_9, align 1, !dbg !1071
; invoke core::iter::traits::iterator::Iterator::fold
  invoke void @_ZN4core4iter6traits8iterator8Iterator4fold17hc96ca5da5ade6a6eE(%"proc_macro2::token_stream::IntoIter"* %_4, i64* align 8 %_6.0, i32* align 4 %_6.1)
          to label %bb2 unwind label %cleanup, !dbg !1071

bb2:                                              ; preds = %bb1
  ret void, !dbg !1076

bb3:                                              ; preds = %bb5, %bb6
  %13 = load i8, i8* %_10, align 1, !dbg !1075, !range !810, !noundef !27
  %14 = trunc i8 %13 to i1, !dbg !1075
  br i1 %14, label %bb7, label %bb4, !dbg !1075

bb5:                                              ; preds = %bb6
  br label %bb3, !dbg !1075

bb4:                                              ; preds = %bb7, %bb3
  %15 = bitcast { i8*, i32 }* %0 to i8**, !dbg !1077
  %16 = load i8*, i8** %15, align 8, !dbg !1077
  %17 = getelementptr inbounds { i8*, i32 }, { i8*, i32 }* %0, i32 0, i32 1, !dbg !1077
  %18 = load i32, i32* %17, align 8, !dbg !1077
  %19 = insertvalue { i8*, i32 } undef, i8* %16, 0, !dbg !1077
  %20 = insertvalue { i8*, i32 } %19, i32 %18, 1, !dbg !1077
  resume { i8*, i32 } %20, !dbg !1077

bb7:                                              ; preds = %bb3
; invoke core::ptr::drop_in_place<proc_macro2::token_stream::IntoIter>
  invoke void @"_ZN4core3ptr56drop_in_place$LT$proc_macro2..token_stream..IntoIter$GT$17hde5479301ede0179E"(%"proc_macro2::token_stream::IntoIter"* %_4) #13
          to label %bb4 unwind label %abort, !dbg !1075

abort:                                            ; preds = %bb7
  %21 = landingpad { i8*, i32 }
          cleanup, !dbg !1077
; call core::panicking::panic_no_unwind
  call void @_ZN4core9panicking15panic_no_unwind17h62f8113f44cbfcbfE() #14, !dbg !1077
  unreachable, !dbg !1077
}

; <core::iter::adapters::map::Map<I,F> as core::iter::traits::iterator::Iterator>::fold
; Function Attrs: nonlazybind uwtable
define void @"_ZN102_$LT$core..iter..adapters..map..Map$LT$I$C$F$GT$$u20$as$u20$core..iter..traits..iterator..Iterator$GT$4fold17hf4bd5483319e8af9E"(%"core::iter::adapters::map::Map<proc_macro2::token_stream::IntoIter, [closure@/home/calvin/.cargo/registry/src/github.com-1ecc6299db9ec823/quote-1.0.40/src/runtime.rs:275:37: 275:40]>"* %self, i64* align 8 %g) unnamed_addr #1 personality i32 (i32, i32, i64, %"unwind::libunwind::_Unwind_Exception"*, %"unwind::libunwind::_Unwind_Context"*)* @rust_eh_personality !dbg !1078 {
start:
  %0 = alloca { i8*, i32 }, align 8
  %g.dbg.spill = alloca i64*, align 8
  %init.dbg.spill = alloca {}, align 1
  %_10 = alloca i8, align 1
  %_9 = alloca i8, align 1
  %_4 = alloca %"proc_macro2::token_stream::IntoIter", align 8
  call void @llvm.dbg.declare(metadata %"core::iter::adapters::map::Map<proc_macro2::token_stream::IntoIter, [closure@/home/calvin/.cargo/registry/src/github.com-1ecc6299db9ec823/quote-1.0.40/src/runtime.rs:275:37: 275:40]>"* %self, metadata !1098, metadata !DIExpression()), !dbg !1103
  call void @llvm.dbg.declare(metadata {}* %init.dbg.spill, metadata !1099, metadata !DIExpression()), !dbg !1104
  store i64* %g, i64** %g.dbg.spill, align 8
  call void @llvm.dbg.declare(metadata i64** %g.dbg.spill, metadata !1100, metadata !DIExpression()), !dbg !1105
  store i8 1, i8* %_10, align 1, !dbg !1106
  %1 = bitcast %"core::iter::adapters::map::Map<proc_macro2::token_stream::IntoIter, [closure@/home/calvin/.cargo/registry/src/github.com-1ecc6299db9ec823/quote-1.0.40/src/runtime.rs:275:37: 275:40]>"* %self to %"proc_macro2::token_stream::IntoIter"*, !dbg !1106
  %2 = bitcast %"proc_macro2::token_stream::IntoIter"* %_4 to i8*, !dbg !1106
  %3 = bitcast %"proc_macro2::token_stream::IntoIter"* %1 to i8*, !dbg !1106
  call void @llvm.memcpy.p0i8.p0i8.i64(i8* align 8 %2, i8* align 8 %3, i64 40, i1 false), !dbg !1106
  store i8 1, i8* %_9, align 1, !dbg !1107
  %4 = getelementptr inbounds %"core::iter::adapters::map::Map<proc_macro2::token_stream::IntoIter, [closure@/home/calvin/.cargo/registry/src/github.com-1ecc6299db9ec823/quote-1.0.40/src/runtime.rs:275:37: 275:40]>", %"core::iter::adapters::map::Map<proc_macro2::token_stream::IntoIter, [closure@/home/calvin/.cargo/registry/src/github.com-1ecc6299db9ec823/quote-1.0.40/src/runtime.rs:275:37: 275:40]>"* %self, i32 0, i32 1, !dbg !1108
  %_7 = load i32*, i32** %4, align 8, !dbg !1108, !nonnull !27, !align !998, !noundef !27
; invoke core::iter::adapters::map::map_fold
  %5 = invoke { i64*, i32* } @_ZN4core4iter8adapters3map8map_fold17h292b469580bb097fE(i32* align 4 %_7, i64* align 8 %g)
          to label %bb1 unwind label %cleanup, !dbg !1109

bb6:                                              ; preds = %cleanup
  %6 = load i8, i8* %_9, align 1, !dbg !1110, !range !810, !noundef !27
  %7 = trunc i8 %6 to i1, !dbg !1110
  br i1 %7, label %bb5, label %bb3, !dbg !1110

cleanup:                                          ; preds = %bb1, %start
  %8 = landingpad { i8*, i32 }
          cleanup
  %9 = extractvalue { i8*, i32 } %8, 0
  %10 = extractvalue { i8*, i32 } %8, 1
  %11 = getelementptr inbounds { i8*, i32 }, { i8*, i32 }* %0, i32 0, i32 0
  store i8* %9, i8** %11, align 8
  %12 = getelementptr inbounds { i8*, i32 }, { i8*, i32 }* %0, i32 0, i32 1
  store i32 %10, i32* %12, align 8
  br label %bb6

bb1:                                              ; preds = %start
  %_6.0 = extractvalue { i64*, i32* } %5, 0, !dbg !1109
  %_6.1 = extractvalue { i64*, i32* } %5, 1, !dbg !1109
  store i8 0, i8* %_10, align 1, !dbg !1106
  store i8 0, i8* %_9, align 1, !dbg !1106
; invoke core::iter::traits::iterator::Iterator::fold
  invoke void @_ZN4core4iter6traits8iterator8Iterator4fold17h253cfa1cfcfc9a1aE(%"proc_macro2::token_stream::IntoIter"* %_4, i64* align 8 %_6.0, i32* align 4 %_6.1)
          to label %bb2 unwind label %cleanup, !dbg !1106

bb2:                                              ; preds = %bb1
  ret void, !dbg !1111

bb3:                                              ; preds = %bb5, %bb6
  %13 = load i8, i8* %_10, align 1, !dbg !1110, !range !810, !noundef !27
  %14 = trunc i8 %13 to i1, !dbg !1110
  br i1 %14, label %bb7, label %bb4, !dbg !1110

bb5:                                              ; preds = %bb6
  br label %bb3, !dbg !1110

bb4:                                              ; preds = %bb7, %bb3
  %15 = bitcast { i8*, i32 }* %0 to i8**, !dbg !1112
  %16 = load i8*, i8** %15, align 8, !dbg !1112
  %17 = getelementptr inbounds { i8*, i32 }, { i8*, i32 }* %0, i32 0, i32 1, !dbg !1112
  %18 = load i32, i32* %17, align 8, !dbg !1112
  %19 = insertvalue { i8*, i32 } undef, i8* %16, 0, !dbg !1112
  %20 = insertvalue { i8*, i32 } %19, i32 %18, 1, !dbg !1112
  resume { i8*, i32 } %20, !dbg !1112

bb7:                                              ; preds = %bb3
; invoke core::ptr::drop_in_place<proc_macro2::token_stream::IntoIter>
  invoke void @"_ZN4core3ptr56drop_in_place$LT$proc_macro2..token_stream..IntoIter$GT$17hde5479301ede0179E"(%"proc_macro2::token_stream::IntoIter"* %_4) #13
          to label %bb4 unwind label %abort, !dbg !1110

abort:                                            ; preds = %bb7
  %21 = landingpad { i8*, i32 }
          cleanup, !dbg !1112
; call core::panicking::panic_no_unwind
  call void @_ZN4core9panicking15panic_no_unwind17h62f8113f44cbfcbfE() #14, !dbg !1112
  unreachable, !dbg !1112
}

; <core::iter::adapters::map::Map<I,F> as core::iter::traits::iterator::Iterator>::next
; Function Attrs: inlinehint nonlazybind uwtable
define i64* @"_ZN102_$LT$core..iter..adapters..map..Map$LT$I$C$F$GT$$u20$as$u20$core..iter..traits..iterator..Iterator$GT$4next17h5d2993b229dcc79dE"(%"core::iter::adapters::map::Map<core::iter::adapters::map::Map<core::iter::sources::once::Once<proc_macro2::TokenStream>, [closure@<proc_macro2::TokenStream as core::iter::traits::collect::Extend<proc_macro2::TokenStream>>::extend<core::iter::sources::once::Once<proc_macro2::TokenStream>>::{closure#0}]>, fn(proc_macro2::imp::TokenStream) -> proc_macro2::fallback::TokenStream {proc_macro2::imp::TokenStream::unwrap_stable}>"* align 8 %self) unnamed_addr #0 !dbg !1113 {
start:
  %self.dbg.spill = alloca %"core::iter::adapters::map::Map<core::iter::adapters::map::Map<core::iter::sources::once::Once<proc_macro2::TokenStream>, [closure@<proc_macro2::TokenStream as core::iter::traits::collect::Extend<proc_macro2::TokenStream>>::extend<core::iter::sources::once::Once<proc_macro2::TokenStream>>::{closure#0}]>, fn(proc_macro2::imp::TokenStream) -> proc_macro2::fallback::TokenStream {proc_macro2::imp::TokenStream::unwrap_stable}>"*, align 8
  %_2 = alloca %"core::option::Option<proc_macro2::imp::TokenStream>", align 8
  store %"core::iter::adapters::map::Map<core::iter::adapters::map::Map<core::iter::sources::once::Once<proc_macro2::TokenStream>, [closure@<proc_macro2::TokenStream as core::iter::traits::collect::Extend<proc_macro2::TokenStream>>::extend<core::iter::sources::once::Once<proc_macro2::TokenStream>>::{closure#0}]>, fn(proc_macro2::imp::TokenStream) -> proc_macro2::fallback::TokenStream {proc_macro2::imp::TokenStream::unwrap_stable}>"* %self, %"core::iter::adapters::map::Map<core::iter::adapters::map::Map<core::iter::sources::once::Once<proc_macro2::TokenStream>, [closure@<proc_macro2::TokenStream as core::iter::traits::collect::Extend<proc_macro2::TokenStream>>::extend<core::iter::sources::once::Once<proc_macro2::TokenStream>>::{closure#0}]>, fn(proc_macro2::imp::TokenStream) -> proc_macro2::fallback::TokenStream {proc_macro2::imp::TokenStream::unwrap_stable}>"** %self.dbg.spill, align 8
  call void @llvm.dbg.declare(metadata %"core::iter::adapters::map::Map<core::iter::adapters::map::Map<core::iter::sources::once::Once<proc_macro2::TokenStream>, [closure@<proc_macro2::TokenStream as core::iter::traits::collect::Extend<proc_macro2::TokenStream>>::extend<core::iter::sources::once::Once<proc_macro2::TokenStream>>::{closure#0}]>, fn(proc_macro2::imp::TokenStream) -> proc_macro2::fallback::TokenStream {proc_macro2::imp::TokenStream::unwrap_stable}>"** %self.dbg.spill, metadata !1140, metadata !DIExpression()), !dbg !1143
  %_3 = bitcast %"core::iter::adapters::map::Map<core::iter::adapters::map::Map<core::iter::sources::once::Once<proc_macro2::TokenStream>, [closure@<proc_macro2::TokenStream as core::iter::traits::collect::Extend<proc_macro2::TokenStream>>::extend<core::iter::sources::once::Once<proc_macro2::TokenStream>>::{closure#0}]>, fn(proc_macro2::imp::TokenStream) -> proc_macro2::fallback::TokenStream {proc_macro2::imp::TokenStream::unwrap_stable}>"* %self to %"core::iter::adapters::map::Map<core::iter::sources::once::Once<proc_macro2::TokenStream>, [closure@<proc_macro2::TokenStream as core::iter::traits::collect::Extend<proc_macro2::TokenStream>>::extend<core::iter::sources::once::Once<proc_macro2::TokenStream>>::{closure#0}]>"*, !dbg !1144
; call <core::iter::adapters::map::Map<I,F> as core::iter::traits::iterator::Iterator>::next
  call void @"_ZN102_$LT$core..iter..adapters..map..Map$LT$I$C$F$GT$$u20$as$u20$core..iter..traits..iterator..Iterator$GT$4next17hc890e80b9eb3a5f3E"(%"core::option::Option<proc_macro2::imp::TokenStream>"* sret(%"core::option::Option<proc_macro2::imp::TokenStream>") %_2, %"core::iter::adapters::map::Map<core::iter::sources::once::Once<proc_macro2::TokenStream>, [closure@<proc_macro2::TokenStream as core::iter::traits::collect::Extend<proc_macro2::TokenStream>>::extend<core::iter::sources::once::Once<proc_macro2::TokenStream>>::{closure#0}]>"* align 8 %_3), !dbg !1144
  br label %bb1, !dbg !1144

bb1:                                              ; preds = %start
  %_4 = bitcast %"core::iter::adapters::map::Map<core::iter::adapters::map::Map<core::iter::sources::once::Once<proc_macro2::TokenStream>, [closure@<proc_macro2::TokenStream as core::iter::traits::collect::Extend<proc_macro2::TokenStream>>::extend<core::iter::sources::once::Once<proc_macro2::TokenStream>>::{closure#0}]>, fn(proc_macro2::imp::TokenStream) -> proc_macro2::fallback::TokenStream {proc_macro2::imp::TokenStream::unwrap_stable}>"* %self to {}*, !dbg !1145
; call core::option::Option<T>::map
  %0 = call i64* @"_ZN4core6option15Option$LT$T$GT$3map17hd2251faab0a9a3fcE"(%"core::option::Option<proc_macro2::imp::TokenStream>"* %_2, {}* align 1 %_4), !dbg !1144
  br label %bb2, !dbg !1144

bb2:                                              ; preds = %bb1
  ret i64* %0, !dbg !1146
}

; <core::iter::adapters::map::Map<I,F> as core::iter::traits::iterator::Iterator>::next
; Function Attrs: inlinehint nonlazybind uwtable
define void @"_ZN102_$LT$core..iter..adapters..map..Map$LT$I$C$F$GT$$u20$as$u20$core..iter..traits..iterator..Iterator$GT$4next17h762197a68545891aE"(%"core::option::Option<proc_macro2::TokenTree>"* sret(%"core::option::Option<proc_macro2::TokenTree>") %0, %"core::iter::adapters::map::Map<proc_macro2::token_stream::IntoIter, [closure@/home/calvin/.cargo/registry/src/github.com-1ecc6299db9ec823/quote-1.0.40/src/runtime.rs:275:37: 275:40]>"* align 8 %self) unnamed_addr #0 !dbg !1147 {
start:
  %self.dbg.spill = alloca %"core::iter::adapters::map::Map<proc_macro2::token_stream::IntoIter, [closure@/home/calvin/.cargo/registry/src/github.com-1ecc6299db9ec823/quote-1.0.40/src/runtime.rs:275:37: 275:40]>"*, align 8
  %_2 = alloca %"core::option::Option<proc_macro2::TokenTree>", align 8
  store %"core::iter::adapters::map::Map<proc_macro2::token_stream::IntoIter, [closure@/home/calvin/.cargo/registry/src/github.com-1ecc6299db9ec823/quote-1.0.40/src/runtime.rs:275:37: 275:40]>"* %self, %"core::iter::adapters::map::Map<proc_macro2::token_stream::IntoIter, [closure@/home/calvin/.cargo/registry/src/github.com-1ecc6299db9ec823/quote-1.0.40/src/runtime.rs:275:37: 275:40]>"** %self.dbg.spill, align 8
  call void @llvm.dbg.declare(metadata %"core::iter::adapters::map::Map<proc_macro2::token_stream::IntoIter, [closure@/home/calvin/.cargo/registry/src/github.com-1ecc6299db9ec823/quote-1.0.40/src/runtime.rs:275:37: 275:40]>"** %self.dbg.spill, metadata !1163, metadata !DIExpression()), !dbg !1165
  %_3 = bitcast %"core::iter::adapters::map::Map<proc_macro2::token_stream::IntoIter, [closure@/home/calvin/.cargo/registry/src/github.com-1ecc6299db9ec823/quote-1.0.40/src/runtime.rs:275:37: 275:40]>"* %self to %"proc_macro2::token_stream::IntoIter"*, !dbg !1166
; call <proc_macro2::token_stream::IntoIter as core::iter::traits::iterator::Iterator>::next
  call void @"_ZN94_$LT$proc_macro2..token_stream..IntoIter$u20$as$u20$core..iter..traits..iterator..Iterator$GT$4next17hd1b98b3fcda2cf08E"(%"core::option::Option<proc_macro2::TokenTree>"* sret(%"core::option::Option<proc_macro2::TokenTree>") %_2, %"proc_macro2::token_stream::IntoIter"* align 8 %_3), !dbg !1166
  br label %bb1, !dbg !1166

bb1:                                              ; preds = %start
  %_4 = getelementptr inbounds %"core::iter::adapters::map::Map<proc_macro2::token_stream::IntoIter, [closure@/home/calvin/.cargo/registry/src/github.com-1ecc6299db9ec823/quote-1.0.40/src/runtime.rs:275:37: 275:40]>", %"core::iter::adapters::map::Map<proc_macro2::token_stream::IntoIter, [closure@/home/calvin/.cargo/registry/src/github.com-1ecc6299db9ec823/quote-1.0.40/src/runtime.rs:275:37: 275:40]>"* %self, i32 0, i32 1, !dbg !1167
; call core::option::Option<T>::map
  call void @"_ZN4core6option15Option$LT$T$GT$3map17hfb4188d0e709c844E"(%"core::option::Option<proc_macro2::TokenTree>"* sret(%"core::option::Option<proc_macro2::TokenTree>") %0, %"core::option::Option<proc_macro2::TokenTree>"* %_2, i32** align 8 %_4), !dbg !1166
  br label %bb2, !dbg !1166

bb2:                                              ; preds = %bb1
  ret void, !dbg !1168
}

; <core::iter::adapters::map::Map<I,F> as core::iter::traits::iterator::Iterator>::next
; Function Attrs: inlinehint nonlazybind uwtable
define { i32, i32 } @"_ZN102_$LT$core..iter..adapters..map..Map$LT$I$C$F$GT$$u20$as$u20$core..iter..traits..iterator..Iterator$GT$4next17h7d2ace99fec1fc34E"(%"core::iter::adapters::map::Map<proc_macro2::token_stream::IntoIter, [closure@/home/calvin/.cargo/registry/src/github.com-1ecc6299db9ec823/quote-1.0.40/src/spanned.rs:29:43: 29:47]>"* align 8 %self) unnamed_addr #0 !dbg !1169 {
start:
  %self.dbg.spill = alloca %"core::iter::adapters::map::Map<proc_macro2::token_stream::IntoIter, [closure@/home/calvin/.cargo/registry/src/github.com-1ecc6299db9ec823/quote-1.0.40/src/spanned.rs:29:43: 29:47]>"*, align 8
  %_2 = alloca %"core::option::Option<proc_macro2::TokenTree>", align 8
  store %"core::iter::adapters::map::Map<proc_macro2::token_stream::IntoIter, [closure@/home/calvin/.cargo/registry/src/github.com-1ecc6299db9ec823/quote-1.0.40/src/spanned.rs:29:43: 29:47]>"* %self, %"core::iter::adapters::map::Map<proc_macro2::token_stream::IntoIter, [closure@/home/calvin/.cargo/registry/src/github.com-1ecc6299db9ec823/quote-1.0.40/src/spanned.rs:29:43: 29:47]>"** %self.dbg.spill, align 8
  call void @llvm.dbg.declare(metadata %"core::iter::adapters::map::Map<proc_macro2::token_stream::IntoIter, [closure@/home/calvin/.cargo/registry/src/github.com-1ecc6299db9ec823/quote-1.0.40/src/spanned.rs:29:43: 29:47]>"** %self.dbg.spill, metadata !1174, metadata !DIExpression()), !dbg !1176
  %_3 = bitcast %"core::iter::adapters::map::Map<proc_macro2::token_stream::IntoIter, [closure@/home/calvin/.cargo/registry/src/github.com-1ecc6299db9ec823/quote-1.0.40/src/spanned.rs:29:43: 29:47]>"* %self to %"proc_macro2::token_stream::IntoIter"*, !dbg !1177
; call <proc_macro2::token_stream::IntoIter as core::iter::traits::iterator::Iterator>::next
  call void @"_ZN94_$LT$proc_macro2..token_stream..IntoIter$u20$as$u20$core..iter..traits..iterator..Iterator$GT$4next17hd1b98b3fcda2cf08E"(%"core::option::Option<proc_macro2::TokenTree>"* sret(%"core::option::Option<proc_macro2::TokenTree>") %_2, %"proc_macro2::token_stream::IntoIter"* align 8 %_3), !dbg !1177
  br label %bb1, !dbg !1177

bb1:                                              ; preds = %start
  %_4 = bitcast %"core::iter::adapters::map::Map<proc_macro2::token_stream::IntoIter, [closure@/home/calvin/.cargo/registry/src/github.com-1ecc6299db9ec823/quote-1.0.40/src/spanned.rs:29:43: 29:47]>"* %self to %"[closure@/home/calvin/.cargo/registry/src/github.com-1ecc6299db9ec823/quote-1.0.40/src/spanned.rs:29:43: 29:47]"*, !dbg !1178
; call core::option::Option<T>::map
  %0 = call { i32, i32 } @"_ZN4core6option15Option$LT$T$GT$3map17hc3f0548c32f257fdE"(%"core::option::Option<proc_macro2::TokenTree>"* %_2, %"[closure@/home/calvin/.cargo/registry/src/github.com-1ecc6299db9ec823/quote-1.0.40/src/spanned.rs:29:43: 29:47]"* align 1 %_4), !dbg !1177
  %1 = extractvalue { i32, i32 } %0, 0, !dbg !1177
  %2 = extractvalue { i32, i32 } %0, 1, !dbg !1177
  br label %bb2, !dbg !1177

bb2:                                              ; preds = %bb1
  %3 = insertvalue { i32, i32 } undef, i32 %1, 0, !dbg !1179
  %4 = insertvalue { i32, i32 } %3, i32 %2, 1, !dbg !1179
  ret { i32, i32 } %4, !dbg !1179
}

; <core::iter::adapters::map::Map<I,F> as core::iter::traits::iterator::Iterator>::next
; Function Attrs: inlinehint nonlazybind uwtable
define void @"_ZN102_$LT$core..iter..adapters..map..Map$LT$I$C$F$GT$$u20$as$u20$core..iter..traits..iterator..Iterator$GT$4next17hc890e80b9eb3a5f3E"(%"core::option::Option<proc_macro2::imp::TokenStream>"* sret(%"core::option::Option<proc_macro2::imp::TokenStream>") %0, %"core::iter::adapters::map::Map<core::iter::sources::once::Once<proc_macro2::TokenStream>, [closure@<proc_macro2::TokenStream as core::iter::traits::collect::Extend<proc_macro2::TokenStream>>::extend<core::iter::sources::once::Once<proc_macro2::TokenStream>>::{closure#0}]>"* align 8 %self) unnamed_addr #0 !dbg !1180 {
start:
  %self.dbg.spill = alloca %"core::iter::adapters::map::Map<core::iter::sources::once::Once<proc_macro2::TokenStream>, [closure@<proc_macro2::TokenStream as core::iter::traits::collect::Extend<proc_macro2::TokenStream>>::extend<core::iter::sources::once::Once<proc_macro2::TokenStream>>::{closure#0}]>"*, align 8
  %_2 = alloca %"core::option::Option<proc_macro2::TokenStream>", align 8
  store %"core::iter::adapters::map::Map<core::iter::sources::once::Once<proc_macro2::TokenStream>, [closure@<proc_macro2::TokenStream as core::iter::traits::collect::Extend<proc_macro2::TokenStream>>::extend<core::iter::sources::once::Once<proc_macro2::TokenStream>>::{closure#0}]>"* %self, %"core::iter::adapters::map::Map<core::iter::sources::once::Once<proc_macro2::TokenStream>, [closure@<proc_macro2::TokenStream as core::iter::traits::collect::Extend<proc_macro2::TokenStream>>::extend<core::iter::sources::once::Once<proc_macro2::TokenStream>>::{closure#0}]>"** %self.dbg.spill, align 8
  call void @llvm.dbg.declare(metadata %"core::iter::adapters::map::Map<core::iter::sources::once::Once<proc_macro2::TokenStream>, [closure@<proc_macro2::TokenStream as core::iter::traits::collect::Extend<proc_macro2::TokenStream>>::extend<core::iter::sources::once::Once<proc_macro2::TokenStream>>::{closure#0}]>"** %self.dbg.spill, metadata !1198, metadata !DIExpression()), !dbg !1200
  %_3 = bitcast %"core::iter::adapters::map::Map<core::iter::sources::once::Once<proc_macro2::TokenStream>, [closure@<proc_macro2::TokenStream as core::iter::traits::collect::Extend<proc_macro2::TokenStream>>::extend<core::iter::sources::once::Once<proc_macro2::TokenStream>>::{closure#0}]>"* %self to %"core::iter::sources::once::Once<proc_macro2::TokenStream>"*, !dbg !1201
; call <core::iter::sources::once::Once<T> as core::iter::traits::iterator::Iterator>::next
  call void @"_ZN99_$LT$core..iter..sources..once..Once$LT$T$GT$$u20$as$u20$core..iter..traits..iterator..Iterator$GT$4next17h20edc5357c45c882E"(%"core::option::Option<proc_macro2::TokenStream>"* sret(%"core::option::Option<proc_macro2::TokenStream>") %_2, %"core::iter::sources::once::Once<proc_macro2::TokenStream>"* align 8 %_3), !dbg !1201
  br label %bb1, !dbg !1201

bb1:                                              ; preds = %start
  %_4 = bitcast %"core::iter::adapters::map::Map<core::iter::sources::once::Once<proc_macro2::TokenStream>, [closure@<proc_macro2::TokenStream as core::iter::traits::collect::Extend<proc_macro2::TokenStream>>::extend<core::iter::sources::once::Once<proc_macro2::TokenStream>>::{closure#0}]>"* %self to %"[closure@<proc_macro2::TokenStream as core::iter::traits::collect::Extend<proc_macro2::TokenStream>>::extend<core::iter::sources::once::Once<proc_macro2::TokenStream>>::{closure#0}]"*, !dbg !1202
; call core::option::Option<T>::map
  call void @"_ZN4core6option15Option$LT$T$GT$3map17hbbf831c742252ea2E"(%"core::option::Option<proc_macro2::imp::TokenStream>"* sret(%"core::option::Option<proc_macro2::imp::TokenStream>") %0, %"core::option::Option<proc_macro2::TokenStream>"* %_2, %"[closure@<proc_macro2::TokenStream as core::iter::traits::collect::Extend<proc_macro2::TokenStream>>::extend<core::iter::sources::once::Once<proc_macro2::TokenStream>>::{closure#0}]"* align 1 %_4), !dbg !1201
  br label %bb2, !dbg !1201

bb2:                                              ; preds = %bb1
  ret void, !dbg !1203
}

; <core::iter::adapters::map::Map<I,F> as core::iter::traits::iterator::Iterator>::size_hint
; Function Attrs: inlinehint nonlazybind uwtable
define void @"_ZN102_$LT$core..iter..adapters..map..Map$LT$I$C$F$GT$$u20$as$u20$core..iter..traits..iterator..Iterator$GT$9size_hint17h42102f00c88ef692E"({ i64, { i64, i64 } }* sret({ i64, { i64, i64 } }) %0, %"core::iter::adapters::map::Map<core::iter::sources::once::Once<proc_macro2::TokenStream>, [closure@<proc_macro2::TokenStream as core::iter::traits::collect::Extend<proc_macro2::TokenStream>>::extend<core::iter::sources::once::Once<proc_macro2::TokenStream>>::{closure#0}]>"* align 8 %self) unnamed_addr #0 !dbg !1204 {
start:
  %self.dbg.spill = alloca %"core::iter::adapters::map::Map<core::iter::sources::once::Once<proc_macro2::TokenStream>, [closure@<proc_macro2::TokenStream as core::iter::traits::collect::Extend<proc_macro2::TokenStream>>::extend<core::iter::sources::once::Once<proc_macro2::TokenStream>>::{closure#0}]>"*, align 8
  store %"core::iter::adapters::map::Map<core::iter::sources::once::Once<proc_macro2::TokenStream>, [closure@<proc_macro2::TokenStream as core::iter::traits::collect::Extend<proc_macro2::TokenStream>>::extend<core::iter::sources::once::Once<proc_macro2::TokenStream>>::{closure#0}]>"* %self, %"core::iter::adapters::map::Map<core::iter::sources::once::Once<proc_macro2::TokenStream>, [closure@<proc_macro2::TokenStream as core::iter::traits::collect::Extend<proc_macro2::TokenStream>>::extend<core::iter::sources::once::Once<proc_macro2::TokenStream>>::{closure#0}]>"** %self.dbg.spill, align 8
  call void @llvm.dbg.declare(metadata %"core::iter::adapters::map::Map<core::iter::sources::once::Once<proc_macro2::TokenStream>, [closure@<proc_macro2::TokenStream as core::iter::traits::collect::Extend<proc_macro2::TokenStream>>::extend<core::iter::sources::once::Once<proc_macro2::TokenStream>>::{closure#0}]>"** %self.dbg.spill, metadata !1224, metadata !DIExpression()), !dbg !1225
  %_2 = bitcast %"core::iter::adapters::map::Map<core::iter::sources::once::Once<proc_macro2::TokenStream>, [closure@<proc_macro2::TokenStream as core::iter::traits::collect::Extend<proc_macro2::TokenStream>>::extend<core::iter::sources::once::Once<proc_macro2::TokenStream>>::{closure#0}]>"* %self to %"core::iter::sources::once::Once<proc_macro2::TokenStream>"*, !dbg !1226
; call <core::iter::sources::once::Once<T> as core::iter::traits::iterator::Iterator>::size_hint
  call void @"_ZN99_$LT$core..iter..sources..once..Once$LT$T$GT$$u20$as$u20$core..iter..traits..iterator..Iterator$GT$9size_hint17h95e7c21fda924adcE"({ i64, { i64, i64 } }* sret({ i64, { i64, i64 } }) %0, %"core::iter::sources::once::Once<proc_macro2::TokenStream>"* align 8 %_2), !dbg !1226
  br label %bb1, !dbg !1226

bb1:                                              ; preds = %start
  ret void, !dbg !1227
}

; <core::iter::adapters::map::Map<I,F> as core::iter::traits::iterator::Iterator>::size_hint
; Function Attrs: inlinehint nonlazybind uwtable
define void @"_ZN102_$LT$core..iter..adapters..map..Map$LT$I$C$F$GT$$u20$as$u20$core..iter..traits..iterator..Iterator$GT$9size_hint17h5339ddeb1e501a91E"({ i64, { i64, i64 } }* sret({ i64, { i64, i64 } }) %0, %"core::iter::adapters::map::Map<core::iter::adapters::map::Map<core::iter::sources::once::Once<proc_macro2::TokenStream>, [closure@<proc_macro2::TokenStream as core::iter::traits::collect::Extend<proc_macro2::TokenStream>>::extend<core::iter::sources::once::Once<proc_macro2::TokenStream>>::{closure#0}]>, fn(proc_macro2::imp::TokenStream) -> proc_macro::TokenStream {proc_macro2::imp::TokenStream::unwrap_nightly}>"* align 8 %self) unnamed_addr #0 !dbg !1228 {
start:
  %self.dbg.spill = alloca %"core::iter::adapters::map::Map<core::iter::adapters::map::Map<core::iter::sources::once::Once<proc_macro2::TokenStream>, [closure@<proc_macro2::TokenStream as core::iter::traits::collect::Extend<proc_macro2::TokenStream>>::extend<core::iter::sources::once::Once<proc_macro2::TokenStream>>::{closure#0}]>, fn(proc_macro2::imp::TokenStream) -> proc_macro::TokenStream {proc_macro2::imp::TokenStream::unwrap_nightly}>"*, align 8
  store %"core::iter::adapters::map::Map<core::iter::adapters::map::Map<core::iter::sources::once::Once<proc_macro2::TokenStream>, [closure@<proc_macro2::TokenStream as core::iter::traits::collect::Extend<proc_macro2::TokenStream>>::extend<core::iter::sources::once::Once<proc_macro2::TokenStream>>::{closure#0}]>, fn(proc_macro2::imp::TokenStream) -> proc_macro::TokenStream {proc_macro2::imp::TokenStream::unwrap_nightly}>"* %self, %"core::iter::adapters::map::Map<core::iter::adapters::map::Map<core::iter::sources::once::Once<proc_macro2::TokenStream>, [closure@<proc_macro2::TokenStream as core::iter::traits::collect::Extend<proc_macro2::TokenStream>>::extend<core::iter::sources::once::Once<proc_macro2::TokenStream>>::{closure#0}]>, fn(proc_macro2::imp::TokenStream) -> proc_macro::TokenStream {proc_macro2::imp::TokenStream::unwrap_nightly}>"** %self.dbg.spill, align 8
  call void @llvm.dbg.declare(metadata %"core::iter::adapters::map::Map<core::iter::adapters::map::Map<core::iter::sources::once::Once<proc_macro2::TokenStream>, [closure@<proc_macro2::TokenStream as core::iter::traits::collect::Extend<proc_macro2::TokenStream>>::extend<core::iter::sources::once::Once<proc_macro2::TokenStream>>::{closure#0}]>, fn(proc_macro2::imp::TokenStream) -> proc_macro::TokenStream {proc_macro2::imp::TokenStream::unwrap_nightly}>"** %self.dbg.spill, metadata !1233, metadata !DIExpression()), !dbg !1235
  %_2 = bitcast %"core::iter::adapters::map::Map<core::iter::adapters::map::Map<core::iter::sources::once::Once<proc_macro2::TokenStream>, [closure@<proc_macro2::TokenStream as core::iter::traits::collect::Extend<proc_macro2::TokenStream>>::extend<core::iter::sources::once::Once<proc_macro2::TokenStream>>::{closure#0}]>, fn(proc_macro2::imp::TokenStream) -> proc_macro::TokenStream {proc_macro2::imp::TokenStream::unwrap_nightly}>"* %self to %"core::iter::adapters::map::Map<core::iter::sources::once::Once<proc_macro2::TokenStream>, [closure@<proc_macro2::TokenStream as core::iter::traits::collect::Extend<proc_macro2::TokenStream>>::extend<core::iter::sources::once::Once<proc_macro2::TokenStream>>::{closure#0}]>"*, !dbg !1236
; call <core::iter::adapters::map::Map<I,F> as core::iter::traits::iterator::Iterator>::size_hint
  call void @"_ZN102_$LT$core..iter..adapters..map..Map$LT$I$C$F$GT$$u20$as$u20$core..iter..traits..iterator..Iterator$GT$9size_hint17h42102f00c88ef692E"({ i64, { i64, i64 } }* sret({ i64, { i64, i64 } }) %0, %"core::iter::adapters::map::Map<core::iter::sources::once::Once<proc_macro2::TokenStream>, [closure@<proc_macro2::TokenStream as core::iter::traits::collect::Extend<proc_macro2::TokenStream>>::extend<core::iter::sources::once::Once<proc_macro2::TokenStream>>::{closure#0}]>"* align 8 %_2), !dbg !1236
  br label %bb1, !dbg !1236

bb1:                                              ; preds = %start
  ret void, !dbg !1237
}

; <core::iter::adapters::map::Map<I,F> as core::iter::traits::iterator::Iterator>::size_hint
; Function Attrs: inlinehint nonlazybind uwtable
define void @"_ZN102_$LT$core..iter..adapters..map..Map$LT$I$C$F$GT$$u20$as$u20$core..iter..traits..iterator..Iterator$GT$9size_hint17h6761fd5f00d4d19cE"({ i64, { i64, i64 } }* sret({ i64, { i64, i64 } }) %0, %"core::iter::adapters::map::Map<proc_macro2::token_stream::IntoIter, [closure@/home/calvin/.cargo/registry/src/github.com-1ecc6299db9ec823/quote-1.0.40/src/runtime.rs:285:22: 285:29]>"* align 8 %self) unnamed_addr #0 !dbg !1238 {
start:
  %self.dbg.spill = alloca %"core::iter::adapters::map::Map<proc_macro2::token_stream::IntoIter, [closure@/home/calvin/.cargo/registry/src/github.com-1ecc6299db9ec823/quote-1.0.40/src/runtime.rs:285:22: 285:29]>"*, align 8
  store %"core::iter::adapters::map::Map<proc_macro2::token_stream::IntoIter, [closure@/home/calvin/.cargo/registry/src/github.com-1ecc6299db9ec823/quote-1.0.40/src/runtime.rs:285:22: 285:29]>"* %self, %"core::iter::adapters::map::Map<proc_macro2::token_stream::IntoIter, [closure@/home/calvin/.cargo/registry/src/github.com-1ecc6299db9ec823/quote-1.0.40/src/runtime.rs:285:22: 285:29]>"** %self.dbg.spill, align 8
  call void @llvm.dbg.declare(metadata %"core::iter::adapters::map::Map<proc_macro2::token_stream::IntoIter, [closure@/home/calvin/.cargo/registry/src/github.com-1ecc6299db9ec823/quote-1.0.40/src/runtime.rs:285:22: 285:29]>"** %self.dbg.spill, metadata !1243, metadata !DIExpression()), !dbg !1245
  %_2 = bitcast %"core::iter::adapters::map::Map<proc_macro2::token_stream::IntoIter, [closure@/home/calvin/.cargo/registry/src/github.com-1ecc6299db9ec823/quote-1.0.40/src/runtime.rs:285:22: 285:29]>"* %self to %"proc_macro2::token_stream::IntoIter"*, !dbg !1246
; call <proc_macro2::token_stream::IntoIter as core::iter::traits::iterator::Iterator>::size_hint
  call void @"_ZN94_$LT$proc_macro2..token_stream..IntoIter$u20$as$u20$core..iter..traits..iterator..Iterator$GT$9size_hint17he31691f73c4d134eE"({ i64, { i64, i64 } }* sret({ i64, { i64, i64 } }) %0, %"proc_macro2::token_stream::IntoIter"* align 8 %_2), !dbg !1246
  br label %bb1, !dbg !1246

bb1:                                              ; preds = %start
  ret void, !dbg !1247
}

; <core::iter::adapters::map::Map<I,F> as core::iter::traits::iterator::Iterator>::size_hint
; Function Attrs: inlinehint nonlazybind uwtable
define void @"_ZN102_$LT$core..iter..adapters..map..Map$LT$I$C$F$GT$$u20$as$u20$core..iter..traits..iterator..Iterator$GT$9size_hint17h9254481e083b649bE"({ i64, { i64, i64 } }* sret({ i64, { i64, i64 } }) %0, %"core::iter::adapters::map::Map<core::iter::adapters::map::Map<proc_macro2::token_stream::IntoIter, [closure@/home/calvin/.cargo/registry/src/github.com-1ecc6299db9ec823/quote-1.0.40/src/runtime.rs:285:22: 285:29]>, fn(proc_macro2::TokenTree) -> proc_macro::TokenTree {proc_macro2::imp::into_compiler_token}>"* align 8 %self) unnamed_addr #0 !dbg !1248 {
start:
  %self.dbg.spill = alloca %"core::iter::adapters::map::Map<core::iter::adapters::map::Map<proc_macro2::token_stream::IntoIter, [closure@/home/calvin/.cargo/registry/src/github.com-1ecc6299db9ec823/quote-1.0.40/src/runtime.rs:285:22: 285:29]>, fn(proc_macro2::TokenTree) -> proc_macro::TokenTree {proc_macro2::imp::into_compiler_token}>"*, align 8
  store %"core::iter::adapters::map::Map<core::iter::adapters::map::Map<proc_macro2::token_stream::IntoIter, [closure@/home/calvin/.cargo/registry/src/github.com-1ecc6299db9ec823/quote-1.0.40/src/runtime.rs:285:22: 285:29]>, fn(proc_macro2::TokenTree) -> proc_macro::TokenTree {proc_macro2::imp::into_compiler_token}>"* %self, %"core::iter::adapters::map::Map<core::iter::adapters::map::Map<proc_macro2::token_stream::IntoIter, [closure@/home/calvin/.cargo/registry/src/github.com-1ecc6299db9ec823/quote-1.0.40/src/runtime.rs:285:22: 285:29]>, fn(proc_macro2::TokenTree) -> proc_macro::TokenTree {proc_macro2::imp::into_compiler_token}>"** %self.dbg.spill, align 8
  call void @llvm.dbg.declare(metadata %"core::iter::adapters::map::Map<core::iter::adapters::map::Map<proc_macro2::token_stream::IntoIter, [closure@/home/calvin/.cargo/registry/src/github.com-1ecc6299db9ec823/quote-1.0.40/src/runtime.rs:285:22: 285:29]>, fn(proc_macro2::TokenTree) -> proc_macro::TokenTree {proc_macro2::imp::into_compiler_token}>"** %self.dbg.spill, metadata !1253, metadata !DIExpression()), !dbg !1255
  %_2 = bitcast %"core::iter::adapters::map::Map<core::iter::adapters::map::Map<proc_macro2::token_stream::IntoIter, [closure@/home/calvin/.cargo/registry/src/github.com-1ecc6299db9ec823/quote-1.0.40/src/runtime.rs:285:22: 285:29]>, fn(proc_macro2::TokenTree) -> proc_macro::TokenTree {proc_macro2::imp::into_compiler_token}>"* %self to %"core::iter::adapters::map::Map<proc_macro2::token_stream::IntoIter, [closure@/home/calvin/.cargo/registry/src/github.com-1ecc6299db9ec823/quote-1.0.40/src/runtime.rs:285:22: 285:29]>"*, !dbg !1256
; call <core::iter::adapters::map::Map<I,F> as core::iter::traits::iterator::Iterator>::size_hint
  call void @"_ZN102_$LT$core..iter..adapters..map..Map$LT$I$C$F$GT$$u20$as$u20$core..iter..traits..iterator..Iterator$GT$9size_hint17h6761fd5f00d4d19cE"({ i64, { i64, i64 } }* sret({ i64, { i64, i64 } }) %0, %"core::iter::adapters::map::Map<proc_macro2::token_stream::IntoIter, [closure@/home/calvin/.cargo/registry/src/github.com-1ecc6299db9ec823/quote-1.0.40/src/runtime.rs:285:22: 285:29]>"* align 8 %_2), !dbg !1256
  br label %bb1, !dbg !1256

bb1:                                              ; preds = %start
  ret void, !dbg !1257
}

; <core::iter::adapters::map::Map<I,F> as core::iter::traits::iterator::Iterator>::size_hint
; Function Attrs: inlinehint nonlazybind uwtable
define void @"_ZN102_$LT$core..iter..adapters..map..Map$LT$I$C$F$GT$$u20$as$u20$core..iter..traits..iterator..Iterator$GT$9size_hint17hc6530a1725dfc9feE"({ i64, { i64, i64 } }* sret({ i64, { i64, i64 } }) %0, %"core::iter::adapters::map::Map<core::iter::adapters::map::Map<core::iter::sources::once::Once<proc_macro2::TokenStream>, [closure@<proc_macro2::TokenStream as core::iter::traits::collect::Extend<proc_macro2::TokenStream>>::extend<core::iter::sources::once::Once<proc_macro2::TokenStream>>::{closure#0}]>, fn(proc_macro2::imp::TokenStream) -> proc_macro2::fallback::TokenStream {proc_macro2::imp::TokenStream::unwrap_stable}>"* align 8 %self) unnamed_addr #0 !dbg !1258 {
start:
  %self.dbg.spill = alloca %"core::iter::adapters::map::Map<core::iter::adapters::map::Map<core::iter::sources::once::Once<proc_macro2::TokenStream>, [closure@<proc_macro2::TokenStream as core::iter::traits::collect::Extend<proc_macro2::TokenStream>>::extend<core::iter::sources::once::Once<proc_macro2::TokenStream>>::{closure#0}]>, fn(proc_macro2::imp::TokenStream) -> proc_macro2::fallback::TokenStream {proc_macro2::imp::TokenStream::unwrap_stable}>"*, align 8
  store %"core::iter::adapters::map::Map<core::iter::adapters::map::Map<core::iter::sources::once::Once<proc_macro2::TokenStream>, [closure@<proc_macro2::TokenStream as core::iter::traits::collect::Extend<proc_macro2::TokenStream>>::extend<core::iter::sources::once::Once<proc_macro2::TokenStream>>::{closure#0}]>, fn(proc_macro2::imp::TokenStream) -> proc_macro2::fallback::TokenStream {proc_macro2::imp::TokenStream::unwrap_stable}>"* %self, %"core::iter::adapters::map::Map<core::iter::adapters::map::Map<core::iter::sources::once::Once<proc_macro2::TokenStream>, [closure@<proc_macro2::TokenStream as core::iter::traits::collect::Extend<proc_macro2::TokenStream>>::extend<core::iter::sources::once::Once<proc_macro2::TokenStream>>::{closure#0}]>, fn(proc_macro2::imp::TokenStream) -> proc_macro2::fallback::TokenStream {proc_macro2::imp::TokenStream::unwrap_stable}>"** %self.dbg.spill, align 8
  call void @llvm.dbg.declare(metadata %"core::iter::adapters::map::Map<core::iter::adapters::map::Map<core::iter::sources::once::Once<proc_macro2::TokenStream>, [closure@<proc_macro2::TokenStream as core::iter::traits::collect::Extend<proc_macro2::TokenStream>>::extend<core::iter::sources::once::Once<proc_macro2::TokenStream>>::{closure#0}]>, fn(proc_macro2::imp::TokenStream) -> proc_macro2::fallback::TokenStream {proc_macro2::imp::TokenStream::unwrap_stable}>"** %self.dbg.spill, metadata !1263, metadata !DIExpression()), !dbg !1264
  %_2 = bitcast %"core::iter::adapters::map::Map<core::iter::adapters::map::Map<core::iter::sources::once::Once<proc_macro2::TokenStream>, [closure@<proc_macro2::TokenStream as core::iter::traits::collect::Extend<proc_macro2::TokenStream>>::extend<core::iter::sources::once::Once<proc_macro2::TokenStream>>::{closure#0}]>, fn(proc_macro2::imp::TokenStream) -> proc_macro2::fallback::TokenStream {proc_macro2::imp::TokenStream::unwrap_stable}>"* %self to %"core::iter::adapters::map::Map<core::iter::sources::once::Once<proc_macro2::TokenStream>, [closure@<proc_macro2::TokenStream as core::iter::traits::collect::Extend<proc_macro2::TokenStream>>::extend<core::iter::sources::once::Once<proc_macro2::TokenStream>>::{closure#0}]>"*, !dbg !1265
; call <core::iter::adapters::map::Map<I,F> as core::iter::traits::iterator::Iterator>::size_hint
  call void @"_ZN102_$LT$core..iter..adapters..map..Map$LT$I$C$F$GT$$u20$as$u20$core..iter..traits..iterator..Iterator$GT$9size_hint17h42102f00c88ef692E"({ i64, { i64, i64 } }* sret({ i64, { i64, i64 } }) %0, %"core::iter::adapters::map::Map<core::iter::sources::once::Once<proc_macro2::TokenStream>, [closure@<proc_macro2::TokenStream as core::iter::traits::collect::Extend<proc_macro2::TokenStream>>::extend<core::iter::sources::once::Once<proc_macro2::TokenStream>>::{closure#0}]>"* align 8 %_2), !dbg !1265
  br label %bb1, !dbg !1265

bb1:                                              ; preds = %start
  ret void, !dbg !1266
}

; <core::iter::adapters::flatten::Flatten<I> as core::iter::traits::iterator::Iterator>::next
; Function Attrs: inlinehint nonlazybind uwtable
define void @"_ZN106_$LT$core..iter..adapters..flatten..Flatten$LT$I$GT$$u20$as$u20$core..iter..traits..iterator..Iterator$GT$4next17h5b3d5abc09cdcd84E"(%"core::option::Option<proc_macro2::TokenTree>"* sret(%"core::option::Option<proc_macro2::TokenTree>") %0, %"core::iter::adapters::flatten::Flatten<core::iter::adapters::map::Map<core::iter::adapters::map::Map<core::iter::sources::once::Once<proc_macro2::TokenStream>, [closure@<proc_macro2::TokenStream as core::iter::traits::collect::Extend<proc_macro2::TokenStream>>::extend<core::iter::sources::once::Once<proc_macro2::TokenStream>>::{closure#0}]>, fn(proc_macro2::imp::TokenStream) -> proc_macro2::fallback::TokenStream {proc_macro2::imp::TokenStream::unwrap_stable}>>"* align 8 %self) unnamed_addr #0 !dbg !1267 {
start:
  %self.dbg.spill = alloca %"core::iter::adapters::flatten::Flatten<core::iter::adapters::map::Map<core::iter::adapters::map::Map<core::iter::sources::once::Once<proc_macro2::TokenStream>, [closure@<proc_macro2::TokenStream as core::iter::traits::collect::Extend<proc_macro2::TokenStream>>::extend<core::iter::sources::once::Once<proc_macro2::TokenStream>>::{closure#0}]>, fn(proc_macro2::imp::TokenStream) -> proc_macro2::fallback::TokenStream {proc_macro2::imp::TokenStream::unwrap_stable}>>"*, align 8
  store %"core::iter::adapters::flatten::Flatten<core::iter::adapters::map::Map<core::iter::adapters::map::Map<core::iter::sources::once::Once<proc_macro2::TokenStream>, [closure@<proc_macro2::TokenStream as core::iter::traits::collect::Extend<proc_macro2::TokenStream>>::extend<core::iter::sources::once::Once<proc_macro2::TokenStream>>::{closure#0}]>, fn(proc_macro2::imp::TokenStream) -> proc_macro2::fallback::TokenStream {proc_macro2::imp::TokenStream::unwrap_stable}>>"* %self, %"core::iter::adapters::flatten::Flatten<core::iter::adapters::map::Map<core::iter::adapters::map::Map<core::iter::sources::once::Once<proc_macro2::TokenStream>, [closure@<proc_macro2::TokenStream as core::iter::traits::collect::Extend<proc_macro2::TokenStream>>::extend<core::iter::sources::once::Once<proc_macro2::TokenStream>>::{closure#0}]>, fn(proc_macro2::imp::TokenStream) -> proc_macro2::fallback::TokenStream {proc_macro2::imp::TokenStream::unwrap_stable}>>"** %self.dbg.spill, align 8
  call void @llvm.dbg.declare(metadata %"core::iter::adapters::flatten::Flatten<core::iter::adapters::map::Map<core::iter::adapters::map::Map<core::iter::sources::once::Once<proc_macro2::TokenStream>, [closure@<proc_macro2::TokenStream as core::iter::traits::collect::Extend<proc_macro2::TokenStream>>::extend<core::iter::sources::once::Once<proc_macro2::TokenStream>>::{closure#0}]>, fn(proc_macro2::imp::TokenStream) -> proc_macro2::fallback::TokenStream {proc_macro2::imp::TokenStream::unwrap_stable}>>"** %self.dbg.spill, metadata !1317, metadata !DIExpression()), !dbg !1318
  %_2 = bitcast %"core::iter::adapters::flatten::Flatten<core::iter::adapters::map::Map<core::iter::adapters::map::Map<core::iter::sources::once::Once<proc_macro2::TokenStream>, [closure@<proc_macro2::TokenStream as core::iter::traits::collect::Extend<proc_macro2::TokenStream>>::extend<core::iter::sources::once::Once<proc_macro2::TokenStream>>::{closure#0}]>, fn(proc_macro2::imp::TokenStream) -> proc_macro2::fallback::TokenStream {proc_macro2::imp::TokenStream::unwrap_stable}>>"* %self to %"core::iter::adapters::flatten::FlattenCompat<core::iter::adapters::map::Map<core::iter::adapters::map::Map<core::iter::sources::once::Once<proc_macro2::TokenStream>, [closure@<proc_macro2::TokenStream as core::iter::traits::collect::Extend<proc_macro2::TokenStream>>::extend<core::iter::sources::once::Once<proc_macro2::TokenStream>>::{closure#0}]>, fn(proc_macro2::imp::TokenStream) -> proc_macro2::fallback::TokenStream {proc_macro2::imp::TokenStream::unwrap_stable}>, proc_macro2::rcvec::RcVecIntoIter<proc_macro2::TokenTree>>"*, !dbg !1319
; call <core::iter::adapters::flatten::FlattenCompat<I,U> as core::iter::traits::iterator::Iterator>::next
  call void @"_ZN116_$LT$core..iter..adapters..flatten..FlattenCompat$LT$I$C$U$GT$$u20$as$u20$core..iter..traits..iterator..Iterator$GT$4next17h04bcb5a5a2e1488fE"(%"core::option::Option<proc_macro2::TokenTree>"* sret(%"core::option::Option<proc_macro2::TokenTree>") %0, %"core::iter::adapters::flatten::FlattenCompat<core::iter::adapters::map::Map<core::iter::adapters::map::Map<core::iter::sources::once::Once<proc_macro2::TokenStream>, [closure@<proc_macro2::TokenStream as core::iter::traits::collect::Extend<proc_macro2::TokenStream>>::extend<core::iter::sources::once::Once<proc_macro2::TokenStream>>::{closure#0}]>, fn(proc_macro2::imp::TokenStream) -> proc_macro2::fallback::TokenStream {proc_macro2::imp::TokenStream::unwrap_stable}>, proc_macro2::rcvec::RcVecIntoIter<proc_macro2::TokenTree>>"* align 8 %_2), !dbg !1319
  br label %bb1, !dbg !1319

bb1:                                              ; preds = %start
  ret void, !dbg !1320
}

; <core::iter::adapters::flatten::Flatten<I> as core::iter::traits::iterator::Iterator>::size_hint
; Function Attrs: inlinehint nonlazybind uwtable
define void @"_ZN106_$LT$core..iter..adapters..flatten..Flatten$LT$I$GT$$u20$as$u20$core..iter..traits..iterator..Iterator$GT$9size_hint17h6fae78fda3c87ee1E"({ i64, { i64, i64 } }* sret({ i64, { i64, i64 } }) %0, %"core::iter::adapters::flatten::Flatten<core::iter::adapters::map::Map<core::iter::adapters::map::Map<core::iter::sources::once::Once<proc_macro2::TokenStream>, [closure@<proc_macro2::TokenStream as core::iter::traits::collect::Extend<proc_macro2::TokenStream>>::extend<core::iter::sources::once::Once<proc_macro2::TokenStream>>::{closure#0}]>, fn(proc_macro2::imp::TokenStream) -> proc_macro2::fallback::TokenStream {proc_macro2::imp::TokenStream::unwrap_stable}>>"* align 8 %self) unnamed_addr #0 !dbg !1321 {
start:
  %self.dbg.spill = alloca %"core::iter::adapters::flatten::Flatten<core::iter::adapters::map::Map<core::iter::adapters::map::Map<core::iter::sources::once::Once<proc_macro2::TokenStream>, [closure@<proc_macro2::TokenStream as core::iter::traits::collect::Extend<proc_macro2::TokenStream>>::extend<core::iter::sources::once::Once<proc_macro2::TokenStream>>::{closure#0}]>, fn(proc_macro2::imp::TokenStream) -> proc_macro2::fallback::TokenStream {proc_macro2::imp::TokenStream::unwrap_stable}>>"*, align 8
  store %"core::iter::adapters::flatten::Flatten<core::iter::adapters::map::Map<core::iter::adapters::map::Map<core::iter::sources::once::Once<proc_macro2::TokenStream>, [closure@<proc_macro2::TokenStream as core::iter::traits::collect::Extend<proc_macro2::TokenStream>>::extend<core::iter::sources::once::Once<proc_macro2::TokenStream>>::{closure#0}]>, fn(proc_macro2::imp::TokenStream) -> proc_macro2::fallback::TokenStream {proc_macro2::imp::TokenStream::unwrap_stable}>>"* %self, %"core::iter::adapters::flatten::Flatten<core::iter::adapters::map::Map<core::iter::adapters::map::Map<core::iter::sources::once::Once<proc_macro2::TokenStream>, [closure@<proc_macro2::TokenStream as core::iter::traits::collect::Extend<proc_macro2::TokenStream>>::extend<core::iter::sources::once::Once<proc_macro2::TokenStream>>::{closure#0}]>, fn(proc_macro2::imp::TokenStream) -> proc_macro2::fallback::TokenStream {proc_macro2::imp::TokenStream::unwrap_stable}>>"** %self.dbg.spill, align 8
  call void @llvm.dbg.declare(metadata %"core::iter::adapters::flatten::Flatten<core::iter::adapters::map::Map<core::iter::adapters::map::Map<core::iter::sources::once::Once<proc_macro2::TokenStream>, [closure@<proc_macro2::TokenStream as core::iter::traits::collect::Extend<proc_macro2::TokenStream>>::extend<core::iter::sources::once::Once<proc_macro2::TokenStream>>::{closure#0}]>, fn(proc_macro2::imp::TokenStream) -> proc_macro2::fallback::TokenStream {proc_macro2::imp::TokenStream::unwrap_stable}>>"** %self.dbg.spill, metadata !1326, metadata !DIExpression()), !dbg !1327
  %_2 = bitcast %"core::iter::adapters::flatten::Flatten<core::iter::adapters::map::Map<core::iter::adapters::map::Map<core::iter::sources::once::Once<proc_macro2::TokenStream>, [closure@<proc_macro2::TokenStream as core::iter::traits::collect::Extend<proc_macro2::TokenStream>>::extend<core::iter::sources::once::Once<proc_macro2::TokenStream>>::{closure#0}]>, fn(proc_macro2::imp::TokenStream) -> proc_macro2::fallback::TokenStream {proc_macro2::imp::TokenStream::unwrap_stable}>>"* %self to %"core::iter::adapters::flatten::FlattenCompat<core::iter::adapters::map::Map<core::iter::adapters::map::Map<core::iter::sources::once::Once<proc_macro2::TokenStream>, [closure@<proc_macro2::TokenStream as core::iter::traits::collect::Extend<proc_macro2::TokenStream>>::extend<core::iter::sources::once::Once<proc_macro2::TokenStream>>::{closure#0}]>, fn(proc_macro2::imp::TokenStream) -> proc_macro2::fallback::TokenStream {proc_macro2::imp::TokenStream::unwrap_stable}>, proc_macro2::rcvec::RcVecIntoIter<proc_macro2::TokenTree>>"*, !dbg !1328
; call <core::iter::adapters::flatten::FlattenCompat<I,U> as core::iter::traits::iterator::Iterator>::size_hint
  call void @"_ZN116_$LT$core..iter..adapters..flatten..FlattenCompat$LT$I$C$U$GT$$u20$as$u20$core..iter..traits..iterator..Iterator$GT$9size_hint17haf820c21be92bcffE"({ i64, { i64, i64 } }* sret({ i64, { i64, i64 } }) %0, %"core::iter::adapters::flatten::FlattenCompat<core::iter::adapters::map::Map<core::iter::adapters::map::Map<core::iter::sources::once::Once<proc_macro2::TokenStream>, [closure@<proc_macro2::TokenStream as core::iter::traits::collect::Extend<proc_macro2::TokenStream>>::extend<core::iter::sources::once::Once<proc_macro2::TokenStream>>::{closure#0}]>, fn(proc_macro2::imp::TokenStream) -> proc_macro2::fallback::TokenStream {proc_macro2::imp::TokenStream::unwrap_stable}>, proc_macro2::rcvec::RcVecIntoIter<proc_macro2::TokenTree>>"* align 8 %_2), !dbg !1328
  br label %bb1, !dbg !1328

bb1:                                              ; preds = %start
  ret void, !dbg !1329
}

; <core::ops::range::Range<usize> as core::slice::index::SliceIndex<[T]>>::get_unchecked_mut
; Function Attrs: inlinehint nonlazybind uwtable
define { [0 x %"core::mem::maybe_uninit::MaybeUninit<proc_macro2::TokenTree>"]*, i64 } @"_ZN106_$LT$core..ops..range..Range$LT$usize$GT$$u20$as$u20$core..slice..index..SliceIndex$LT$$u5b$T$u5d$$GT$$GT$17get_unchecked_mut17h473c47cfc10a8af1E"(i64 %self.0, i64 %self.1, [0 x %"core::mem::maybe_uninit::MaybeUninit<proc_macro2::TokenTree>"]* %slice.0, i64 %slice.1) unnamed_addr #0 !dbg !1330 {
start:
  %metadata.dbg.spill = alloca i64, align 8
  %data_address.dbg.spill = alloca {}*, align 8
  %self.dbg.spill5 = alloca %"core::mem::maybe_uninit::MaybeUninit<proc_macro2::TokenTree>"*, align 8
  %len.dbg.spill = alloca i64, align 8
  %data.dbg.spill = alloca %"core::mem::maybe_uninit::MaybeUninit<proc_macro2::TokenTree>"*, align 8
  %0 = alloca %"core::mem::maybe_uninit::MaybeUninit<proc_macro2::TokenTree>"*, align 8
  %count.dbg.spill4 = alloca i64, align 8
  %self.dbg.spill3 = alloca %"core::mem::maybe_uninit::MaybeUninit<proc_macro2::TokenTree>"*, align 8
  %count.dbg.spill = alloca i64, align 8
  %self.dbg.spill2 = alloca %"core::mem::maybe_uninit::MaybeUninit<proc_macro2::TokenTree>"*, align 8
  %self.dbg.spill1 = alloca { [0 x %"core::mem::maybe_uninit::MaybeUninit<proc_macro2::TokenTree>"]*, i64 }, align 8
  %slice.dbg.spill = alloca { [0 x %"core::mem::maybe_uninit::MaybeUninit<proc_macro2::TokenTree>"]*, i64 }, align 8
  %self.dbg.spill = alloca { i64, i64 }, align 8
  %_24 = alloca { i8*, i64 }, align 8
  %_23 = alloca %"core::ptr::metadata::PtrRepr<[core::mem::maybe_uninit::MaybeUninit<proc_macro2::TokenTree>]>", align 8
  %runtime = alloca %"[closure@<core::ops::range::Range<usize> as core::slice::index::SliceIndex<[core::mem::maybe_uninit::MaybeUninit<proc_macro2::TokenTree>]>>::get_unchecked_mut::{closure#0}]", align 8
  %1 = getelementptr inbounds { i64, i64 }, { i64, i64 }* %self.dbg.spill, i32 0, i32 0
  store i64 %self.0, i64* %1, align 8
  %2 = getelementptr inbounds { i64, i64 }, { i64, i64 }* %self.dbg.spill, i32 0, i32 1
  store i64 %self.1, i64* %2, align 8
  call void @llvm.dbg.declare(metadata { i64, i64 }* %self.dbg.spill, metadata !1356, metadata !DIExpression()), !dbg !1370
  %3 = getelementptr inbounds { [0 x %"core::mem::maybe_uninit::MaybeUninit<proc_macro2::TokenTree>"]*, i64 }, { [0 x %"core::mem::maybe_uninit::MaybeUninit<proc_macro2::TokenTree>"]*, i64 }* %slice.dbg.spill, i32 0, i32 0
  store [0 x %"core::mem::maybe_uninit::MaybeUninit<proc_macro2::TokenTree>"]* %slice.0, [0 x %"core::mem::maybe_uninit::MaybeUninit<proc_macro2::TokenTree>"]** %3, align 8
  %4 = getelementptr inbounds { [0 x %"core::mem::maybe_uninit::MaybeUninit<proc_macro2::TokenTree>"]*, i64 }, { [0 x %"core::mem::maybe_uninit::MaybeUninit<proc_macro2::TokenTree>"]*, i64 }* %slice.dbg.spill, i32 0, i32 1
  store i64 %slice.1, i64* %4, align 8
  call void @llvm.dbg.declare(metadata { [0 x %"core::mem::maybe_uninit::MaybeUninit<proc_macro2::TokenTree>"]*, i64 }* %slice.dbg.spill, metadata !1357, metadata !DIExpression()), !dbg !1371
  call void @llvm.dbg.declare(metadata %"[closure@<core::ops::range::Range<usize> as core::slice::index::SliceIndex<[core::mem::maybe_uninit::MaybeUninit<proc_macro2::TokenTree>]>>::get_unchecked_mut::{closure#0}]"* %runtime, metadata !1358, metadata !DIExpression()), !dbg !1372
  %5 = getelementptr inbounds { [0 x %"core::mem::maybe_uninit::MaybeUninit<proc_macro2::TokenTree>"]*, i64 }, { [0 x %"core::mem::maybe_uninit::MaybeUninit<proc_macro2::TokenTree>"]*, i64 }* %self.dbg.spill1, i32 0, i32 0, !dbg !1373
  store [0 x %"core::mem::maybe_uninit::MaybeUninit<proc_macro2::TokenTree>"]* %slice.0, [0 x %"core::mem::maybe_uninit::MaybeUninit<proc_macro2::TokenTree>"]** %5, align 8, !dbg !1373
  %6 = getelementptr inbounds { [0 x %"core::mem::maybe_uninit::MaybeUninit<proc_macro2::TokenTree>"]*, i64 }, { [0 x %"core::mem::maybe_uninit::MaybeUninit<proc_macro2::TokenTree>"]*, i64 }* %self.dbg.spill1, i32 0, i32 1, !dbg !1373
  store i64 %slice.1, i64* %6, align 8, !dbg !1373
  call void @llvm.dbg.declare(metadata { [0 x %"core::mem::maybe_uninit::MaybeUninit<proc_macro2::TokenTree>"]*, i64 }* %self.dbg.spill1, metadata !1374, metadata !DIExpression()), !dbg !1384
  %self = bitcast [0 x %"core::mem::maybe_uninit::MaybeUninit<proc_macro2::TokenTree>"]* %slice.0 to %"core::mem::maybe_uninit::MaybeUninit<proc_macro2::TokenTree>"*, !dbg !1384
  store %"core::mem::maybe_uninit::MaybeUninit<proc_macro2::TokenTree>"* %self, %"core::mem::maybe_uninit::MaybeUninit<proc_macro2::TokenTree>"** %self.dbg.spill2, align 8, !dbg !1384
  call void @llvm.dbg.declare(metadata %"core::mem::maybe_uninit::MaybeUninit<proc_macro2::TokenTree>"** %self.dbg.spill2, metadata !1385, metadata !DIExpression()), !dbg !1393
  store i64 %self.0, i64* %count.dbg.spill, align 8, !dbg !1394
  call void @llvm.dbg.declare(metadata i64* %count.dbg.spill, metadata !1392, metadata !DIExpression()), !dbg !1393
  store %"core::mem::maybe_uninit::MaybeUninit<proc_macro2::TokenTree>"* %self, %"core::mem::maybe_uninit::MaybeUninit<proc_macro2::TokenTree>"** %self.dbg.spill3, align 8, !dbg !1393
  call void @llvm.dbg.declare(metadata %"core::mem::maybe_uninit::MaybeUninit<proc_macro2::TokenTree>"** %self.dbg.spill3, metadata !1395, metadata !DIExpression()), !dbg !1403
  store i64 %self.0, i64* %count.dbg.spill4, align 8, !dbg !1393
  call void @llvm.dbg.declare(metadata i64* %count.dbg.spill4, metadata !1402, metadata !DIExpression()), !dbg !1403
  %7 = getelementptr inbounds %"core::mem::maybe_uninit::MaybeUninit<proc_macro2::TokenTree>", %"core::mem::maybe_uninit::MaybeUninit<proc_macro2::TokenTree>"* %self, i64 %self.0, !dbg !1403
  store %"core::mem::maybe_uninit::MaybeUninit<proc_macro2::TokenTree>"* %7, %"core::mem::maybe_uninit::MaybeUninit<proc_macro2::TokenTree>"** %0, align 8, !dbg !1403
  %_15 = load %"core::mem::maybe_uninit::MaybeUninit<proc_macro2::TokenTree>"*, %"core::mem::maybe_uninit::MaybeUninit<proc_macro2::TokenTree>"** %0, align 8, !dbg !1403
  br label %bb1, !dbg !1403

bb1:                                              ; preds = %start
  store %"core::mem::maybe_uninit::MaybeUninit<proc_macro2::TokenTree>"* %_15, %"core::mem::maybe_uninit::MaybeUninit<proc_macro2::TokenTree>"** %data.dbg.spill, align 8, !dbg !1403
  call void @llvm.dbg.declare(metadata %"core::mem::maybe_uninit::MaybeUninit<proc_macro2::TokenTree>"** %data.dbg.spill, metadata !1405, metadata !DIExpression()), !dbg !1412
  %len = sub i64 %self.1, %self.0, !dbg !1414
  store i64 %len, i64* %len.dbg.spill, align 8, !dbg !1414
  call void @llvm.dbg.declare(metadata i64* %len.dbg.spill, metadata !1411, metadata !DIExpression()), !dbg !1412
  store %"core::mem::maybe_uninit::MaybeUninit<proc_macro2::TokenTree>"* %_15, %"core::mem::maybe_uninit::MaybeUninit<proc_macro2::TokenTree>"** %self.dbg.spill5, align 8, !dbg !1412
  call void @llvm.dbg.declare(metadata %"core::mem::maybe_uninit::MaybeUninit<proc_macro2::TokenTree>"** %self.dbg.spill5, metadata !1415, metadata !DIExpression()), !dbg !1422
  %data_address = bitcast %"core::mem::maybe_uninit::MaybeUninit<proc_macro2::TokenTree>"* %_15 to {}*, !dbg !1422
  store {}* %data_address, {}** %data_address.dbg.spill, align 8, !dbg !1422
  call void @llvm.dbg.declare(metadata {}** %data_address.dbg.spill, metadata !1424, metadata !DIExpression()), !dbg !1431
  store i64 %len, i64* %metadata.dbg.spill, align 8, !dbg !1412
  call void @llvm.dbg.declare(metadata i64* %metadata.dbg.spill, metadata !1430, metadata !DIExpression()), !dbg !1431
  %8 = bitcast { i8*, i64 }* %_24 to {}**, !dbg !1431
  store {}* %data_address, {}** %8, align 8, !dbg !1431
  %9 = getelementptr inbounds { i8*, i64 }, { i8*, i64 }* %_24, i32 0, i32 1, !dbg !1431
  store i64 %len, i64* %9, align 8, !dbg !1431
  %10 = bitcast %"core::ptr::metadata::PtrRepr<[core::mem::maybe_uninit::MaybeUninit<proc_macro2::TokenTree>]>"* %_23 to { i8*, i64 }*, !dbg !1431
  %11 = getelementptr inbounds { i8*, i64 }, { i8*, i64 }* %_24, i32 0, i32 0, !dbg !1431
  %12 = load i8*, i8** %11, align 8, !dbg !1431
  %13 = getelementptr inbounds { i8*, i64 }, { i8*, i64 }* %_24, i32 0, i32 1, !dbg !1431
  %14 = load i64, i64* %13, align 8, !dbg !1431
  %15 = getelementptr inbounds { i8*, i64 }, { i8*, i64 }* %10, i32 0, i32 0, !dbg !1431
  store i8* %12, i8** %15, align 8, !dbg !1431
  %16 = getelementptr inbounds { i8*, i64 }, { i8*, i64 }* %10, i32 0, i32 1, !dbg !1431
  store i64 %14, i64* %16, align 8, !dbg !1431
  %17 = bitcast %"core::ptr::metadata::PtrRepr<[core::mem::maybe_uninit::MaybeUninit<proc_macro2::TokenTree>]>"* %_23 to { [0 x %"core::mem::maybe_uninit::MaybeUninit<proc_macro2::TokenTree>"]*, i64 }*, !dbg !1431
  %18 = getelementptr inbounds { [0 x %"core::mem::maybe_uninit::MaybeUninit<proc_macro2::TokenTree>"]*, i64 }, { [0 x %"core::mem::maybe_uninit::MaybeUninit<proc_macro2::TokenTree>"]*, i64 }* %17, i32 0, i32 0, !dbg !1431
  %19 = load [0 x %"core::mem::maybe_uninit::MaybeUninit<proc_macro2::TokenTree>"]*, [0 x %"core::mem::maybe_uninit::MaybeUninit<proc_macro2::TokenTree>"]** %18, align 8, !dbg !1431
  %20 = getelementptr inbounds { [0 x %"core::mem::maybe_uninit::MaybeUninit<proc_macro2::TokenTree>"]*, i64 }, { [0 x %"core::mem::maybe_uninit::MaybeUninit<proc_macro2::TokenTree>"]*, i64 }* %17, i32 0, i32 1, !dbg !1431
  %21 = load i64, i64* %20, align 8, !dbg !1431
  %22 = insertvalue { [0 x %"core::mem::maybe_uninit::MaybeUninit<proc_macro2::TokenTree>"]*, i64 } undef, [0 x %"core::mem::maybe_uninit::MaybeUninit<proc_macro2::TokenTree>"]* %19, 0, !dbg !1433
  %23 = insertvalue { [0 x %"core::mem::maybe_uninit::MaybeUninit<proc_macro2::TokenTree>"]*, i64 } %22, i64 %21, 1, !dbg !1433
  ret { [0 x %"core::mem::maybe_uninit::MaybeUninit<proc_macro2::TokenTree>"]*, i64 } %23, !dbg !1433
}

; <core::iter::adapters::fuse::Fuse<I> as core::iter::adapters::fuse::FuseImpl<I>>::next
; Function Attrs: inlinehint nonlazybind uwtable
define i64* @"_ZN107_$LT$core..iter..adapters..fuse..Fuse$LT$I$GT$$u20$as$u20$core..iter..adapters..fuse..FuseImpl$LT$I$GT$$GT$4next17h2dac9f194e7c2595E"(%"core::iter::adapters::fuse::Fuse<core::iter::adapters::map::Map<core::iter::adapters::map::Map<core::iter::sources::once::Once<proc_macro2::TokenStream>, [closure@<proc_macro2::TokenStream as core::iter::traits::collect::Extend<proc_macro2::TokenStream>>::extend<core::iter::sources::once::Once<proc_macro2::TokenStream>>::{closure#0}]>, fn(proc_macro2::imp::TokenStream) -> proc_macro2::fallback::TokenStream {proc_macro2::imp::TokenStream::unwrap_stable}>>"* align 8 %self) unnamed_addr #0 !dbg !1434 {
start:
  %val.dbg.spill = alloca %"core::iter::adapters::map::Map<core::iter::adapters::map::Map<core::iter::sources::once::Once<proc_macro2::TokenStream>, [closure@<proc_macro2::TokenStream as core::iter::traits::collect::Extend<proc_macro2::TokenStream>>::extend<core::iter::sources::once::Once<proc_macro2::TokenStream>>::{closure#0}]>, fn(proc_macro2::imp::TokenStream) -> proc_macro2::fallback::TokenStream {proc_macro2::imp::TokenStream::unwrap_stable}>"*, align 8
  %v.dbg.spill = alloca %"core::iter::adapters::map::Map<core::iter::adapters::map::Map<core::iter::sources::once::Once<proc_macro2::TokenStream>, [closure@<proc_macro2::TokenStream as core::iter::traits::collect::Extend<proc_macro2::TokenStream>>::extend<core::iter::sources::once::Once<proc_macro2::TokenStream>>::{closure#0}]>, fn(proc_macro2::imp::TokenStream) -> proc_macro2::fallback::TokenStream {proc_macro2::imp::TokenStream::unwrap_stable}>"*, align 8
  %x.dbg.spill = alloca %"core::iter::adapters::map::Map<core::iter::adapters::map::Map<core::iter::sources::once::Once<proc_macro2::TokenStream>, [closure@<proc_macro2::TokenStream as core::iter::traits::collect::Extend<proc_macro2::TokenStream>>::extend<core::iter::sources::once::Once<proc_macro2::TokenStream>>::{closure#0}]>, fn(proc_macro2::imp::TokenStream) -> proc_macro2::fallback::TokenStream {proc_macro2::imp::TokenStream::unwrap_stable}>"*, align 8
  %self.dbg.spill4 = alloca %"core::option::Option<core::iter::adapters::map::Map<core::iter::adapters::map::Map<core::iter::sources::once::Once<proc_macro2::TokenStream>, [closure@<proc_macro2::TokenStream as core::iter::traits::collect::Extend<proc_macro2::TokenStream>>::extend<core::iter::sources::once::Once<proc_macro2::TokenStream>>::{closure#0}]>, fn(proc_macro2::imp::TokenStream) -> proc_macro2::fallback::TokenStream {proc_macro2::imp::TokenStream::unwrap_stable}>>"*, align 8
  %residual.dbg.spill2 = alloca %"core::option::Option<core::convert::Infallible>::None", align 1
  %residual.dbg.spill = alloca %"core::option::Option<core::convert::Infallible>::None", align 1
  %self.dbg.spill = alloca %"core::iter::adapters::fuse::Fuse<core::iter::adapters::map::Map<core::iter::adapters::map::Map<core::iter::sources::once::Once<proc_macro2::TokenStream>, [closure@<proc_macro2::TokenStream as core::iter::traits::collect::Extend<proc_macro2::TokenStream>>::extend<core::iter::sources::once::Once<proc_macro2::TokenStream>>::{closure#0}]>, fn(proc_macro2::imp::TokenStream) -> proc_macro2::fallback::TokenStream {proc_macro2::imp::TokenStream::unwrap_stable}>>"*, align 8
  %self1 = alloca i64*, align 8
  %_4 = alloca i64*, align 8
  %0 = alloca i64*, align 8
  store %"core::iter::adapters::fuse::Fuse<core::iter::adapters::map::Map<core::iter::adapters::map::Map<core::iter::sources::once::Once<proc_macro2::TokenStream>, [closure@<proc_macro2::TokenStream as core::iter::traits::collect::Extend<proc_macro2::TokenStream>>::extend<core::iter::sources::once::Once<proc_macro2::TokenStream>>::{closure#0}]>, fn(proc_macro2::imp::TokenStream) -> proc_macro2::fallback::TokenStream {proc_macro2::imp::TokenStream::unwrap_stable}>>"* %self, %"core::iter::adapters::fuse::Fuse<core::iter::adapters::map::Map<core::iter::adapters::map::Map<core::iter::sources::once::Once<proc_macro2::TokenStream>, [closure@<proc_macro2::TokenStream as core::iter::traits::collect::Extend<proc_macro2::TokenStream>>::extend<core::iter::sources::once::Once<proc_macro2::TokenStream>>::{closure#0}]>, fn(proc_macro2::imp::TokenStream) -> proc_macro2::fallback::TokenStream {proc_macro2::imp::TokenStream::unwrap_stable}>>"** %self.dbg.spill, align 8
  call void @llvm.dbg.declare(metadata %"core::iter::adapters::fuse::Fuse<core::iter::adapters::map::Map<core::iter::adapters::map::Map<core::iter::sources::once::Once<proc_macro2::TokenStream>, [closure@<proc_macro2::TokenStream as core::iter::traits::collect::Extend<proc_macro2::TokenStream>>::extend<core::iter::sources::once::Once<proc_macro2::TokenStream>>::{closure#0}]>, fn(proc_macro2::imp::TokenStream) -> proc_macro2::fallback::TokenStream {proc_macro2::imp::TokenStream::unwrap_stable}>>"** %self.dbg.spill, metadata !1441, metadata !DIExpression()), !dbg !1462
  call void @llvm.dbg.declare(metadata i64** %self1, metadata !1463, metadata !DIExpression()), !dbg !1504
  call void @llvm.dbg.declare(metadata %"core::option::Option<core::convert::Infallible>::None"* %residual.dbg.spill, metadata !1442, metadata !DIExpression()), !dbg !1506
  call void @llvm.dbg.declare(metadata %"core::option::Option<core::convert::Infallible>::None"* %residual.dbg.spill2, metadata !1507, metadata !DIExpression()), !dbg !1514
  %self3 = bitcast %"core::iter::adapters::fuse::Fuse<core::iter::adapters::map::Map<core::iter::adapters::map::Map<core::iter::sources::once::Once<proc_macro2::TokenStream>, [closure@<proc_macro2::TokenStream as core::iter::traits::collect::Extend<proc_macro2::TokenStream>>::extend<core::iter::sources::once::Once<proc_macro2::TokenStream>>::{closure#0}]>, fn(proc_macro2::imp::TokenStream) -> proc_macro2::fallback::TokenStream {proc_macro2::imp::TokenStream::unwrap_stable}>>"* %self to %"core::option::Option<core::iter::adapters::map::Map<core::iter::adapters::map::Map<core::iter::sources::once::Once<proc_macro2::TokenStream>, [closure@<proc_macro2::TokenStream as core::iter::traits::collect::Extend<proc_macro2::TokenStream>>::extend<core::iter::sources::once::Once<proc_macro2::TokenStream>>::{closure#0}]>, fn(proc_macro2::imp::TokenStream) -> proc_macro2::fallback::TokenStream {proc_macro2::imp::TokenStream::unwrap_stable}>>"*, !dbg !1505
  store %"core::option::Option<core::iter::adapters::map::Map<core::iter::adapters::map::Map<core::iter::sources::once::Once<proc_macro2::TokenStream>, [closure@<proc_macro2::TokenStream as core::iter::traits::collect::Extend<proc_macro2::TokenStream>>::extend<core::iter::sources::once::Once<proc_macro2::TokenStream>>::{closure#0}]>, fn(proc_macro2::imp::TokenStream) -> proc_macro2::fallback::TokenStream {proc_macro2::imp::TokenStream::unwrap_stable}>>"* %self3, %"core::option::Option<core::iter::adapters::map::Map<core::iter::adapters::map::Map<core::iter::sources::once::Once<proc_macro2::TokenStream>, [closure@<proc_macro2::TokenStream as core::iter::traits::collect::Extend<proc_macro2::TokenStream>>::extend<core::iter::sources::once::Once<proc_macro2::TokenStream>>::{closure#0}]>, fn(proc_macro2::imp::TokenStream) -> proc_macro2::fallback::TokenStream {proc_macro2::imp::TokenStream::unwrap_stable}>>"** %self.dbg.spill4, align 8, !dbg !1505
  call void @llvm.dbg.declare(metadata %"core::option::Option<core::iter::adapters::map::Map<core::iter::adapters::map::Map<core::iter::sources::once::Once<proc_macro2::TokenStream>, [closure@<proc_macro2::TokenStream as core::iter::traits::collect::Extend<proc_macro2::TokenStream>>::extend<core::iter::sources::once::Once<proc_macro2::TokenStream>>::{closure#0}]>, fn(proc_macro2::imp::TokenStream) -> proc_macro2::fallback::TokenStream {proc_macro2::imp::TokenStream::unwrap_stable}>>"** %self.dbg.spill4, metadata !1516, metadata !DIExpression()), !dbg !1526
  %1 = bitcast %"core::option::Option<core::iter::adapters::map::Map<core::iter::adapters::map::Map<core::iter::sources::once::Once<proc_macro2::TokenStream>, [closure@<proc_macro2::TokenStream as core::iter::traits::collect::Extend<proc_macro2::TokenStream>>::extend<core::iter::sources::once::Once<proc_macro2::TokenStream>>::{closure#0}]>, fn(proc_macro2::imp::TokenStream) -> proc_macro2::fallback::TokenStream {proc_macro2::imp::TokenStream::unwrap_stable}>>"* %self3 to i64*, !dbg !1526
  %2 = load i64, i64* %1, align 8, !dbg !1526, !range !1527, !noundef !27
  %3 = sub i64 %2, 3, !dbg !1526
  %4 = icmp eq i64 %3, 0, !dbg !1526
  %_11 = select i1 %4, i64 0, i64 1, !dbg !1526
  switch i64 %_11, label %bb9 [
    i64 0, label %bb8
    i64 1, label %bb10
  ], !dbg !1526

bb9:                                              ; preds = %start
  unreachable, !dbg !1526

bb8:                                              ; preds = %start
  %5 = bitcast i64** %self1 to {}**, !dbg !1526
  store {}* null, {}** %5, align 8, !dbg !1526
  br label %bb1, !dbg !1526

bb10:                                             ; preds = %start
  %6 = bitcast %"core::option::Option<core::iter::adapters::map::Map<core::iter::adapters::map::Map<core::iter::sources::once::Once<proc_macro2::TokenStream>, [closure@<proc_macro2::TokenStream as core::iter::traits::collect::Extend<proc_macro2::TokenStream>>::extend<core::iter::sources::once::Once<proc_macro2::TokenStream>>::{closure#0}]>, fn(proc_macro2::imp::TokenStream) -> proc_macro2::fallback::TokenStream {proc_macro2::imp::TokenStream::unwrap_stable}>>"* %self3 to %"core::option::Option<core::iter::adapters::map::Map<core::iter::adapters::map::Map<core::iter::sources::once::Once<proc_macro2::TokenStream>, [closure@<proc_macro2::TokenStream as core::iter::traits::collect::Extend<proc_macro2::TokenStream>>::extend<core::iter::sources::once::Once<proc_macro2::TokenStream>>::{closure#0}]>, fn(proc_macro2::imp::TokenStream) -> proc_macro2::fallback::TokenStream {proc_macro2::imp::TokenStream::unwrap_stable}>>::Some"*, !dbg !1526
  %x = bitcast %"core::option::Option<core::iter::adapters::map::Map<core::iter::adapters::map::Map<core::iter::sources::once::Once<proc_macro2::TokenStream>, [closure@<proc_macro2::TokenStream as core::iter::traits::collect::Extend<proc_macro2::TokenStream>>::extend<core::iter::sources::once::Once<proc_macro2::TokenStream>>::{closure#0}]>, fn(proc_macro2::imp::TokenStream) -> proc_macro2::fallback::TokenStream {proc_macro2::imp::TokenStream::unwrap_stable}>>::Some"* %6 to %"core::iter::adapters::map::Map<core::iter::adapters::map::Map<core::iter::sources::once::Once<proc_macro2::TokenStream>, [closure@<proc_macro2::TokenStream as core::iter::traits::collect::Extend<proc_macro2::TokenStream>>::extend<core::iter::sources::once::Once<proc_macro2::TokenStream>>::{closure#0}]>, fn(proc_macro2::imp::TokenStream) -> proc_macro2::fallback::TokenStream {proc_macro2::imp::TokenStream::unwrap_stable}>"*, !dbg !1526
  store %"core::iter::adapters::map::Map<core::iter::adapters::map::Map<core::iter::sources::once::Once<proc_macro2::TokenStream>, [closure@<proc_macro2::TokenStream as core::iter::traits::collect::Extend<proc_macro2::TokenStream>>::extend<core::iter::sources::once::Once<proc_macro2::TokenStream>>::{closure#0}]>, fn(proc_macro2::imp::TokenStream) -> proc_macro2::fallback::TokenStream {proc_macro2::imp::TokenStream::unwrap_stable}>"* %x, %"core::iter::adapters::map::Map<core::iter::adapters::map::Map<core::iter::sources::once::Once<proc_macro2::TokenStream>, [closure@<proc_macro2::TokenStream as core::iter::traits::collect::Extend<proc_macro2::TokenStream>>::extend<core::iter::sources::once::Once<proc_macro2::TokenStream>>::{closure#0}]>, fn(proc_macro2::imp::TokenStream) -> proc_macro2::fallback::TokenStream {proc_macro2::imp::TokenStream::unwrap_stable}>"** %x.dbg.spill, align 8, !dbg !1526
  call void @llvm.dbg.declare(metadata %"core::iter::adapters::map::Map<core::iter::adapters::map::Map<core::iter::sources::once::Once<proc_macro2::TokenStream>, [closure@<proc_macro2::TokenStream as core::iter::traits::collect::Extend<proc_macro2::TokenStream>>::extend<core::iter::sources::once::Once<proc_macro2::TokenStream>>::{closure#0}]>, fn(proc_macro2::imp::TokenStream) -> proc_macro2::fallback::TokenStream {proc_macro2::imp::TokenStream::unwrap_stable}>"** %x.dbg.spill, metadata !1523, metadata !DIExpression()), !dbg !1528
  %7 = bitcast i64** %self1 to %"core::iter::adapters::map::Map<core::iter::adapters::map::Map<core::iter::sources::once::Once<proc_macro2::TokenStream>, [closure@<proc_macro2::TokenStream as core::iter::traits::collect::Extend<proc_macro2::TokenStream>>::extend<core::iter::sources::once::Once<proc_macro2::TokenStream>>::{closure#0}]>, fn(proc_macro2::imp::TokenStream) -> proc_macro2::fallback::TokenStream {proc_macro2::imp::TokenStream::unwrap_stable}>"**, !dbg !1528
  store %"core::iter::adapters::map::Map<core::iter::adapters::map::Map<core::iter::sources::once::Once<proc_macro2::TokenStream>, [closure@<proc_macro2::TokenStream as core::iter::traits::collect::Extend<proc_macro2::TokenStream>>::extend<core::iter::sources::once::Once<proc_macro2::TokenStream>>::{closure#0}]>, fn(proc_macro2::imp::TokenStream) -> proc_macro2::fallback::TokenStream {proc_macro2::imp::TokenStream::unwrap_stable}>"* %x, %"core::iter::adapters::map::Map<core::iter::adapters::map::Map<core::iter::sources::once::Once<proc_macro2::TokenStream>, [closure@<proc_macro2::TokenStream as core::iter::traits::collect::Extend<proc_macro2::TokenStream>>::extend<core::iter::sources::once::Once<proc_macro2::TokenStream>>::{closure#0}]>, fn(proc_macro2::imp::TokenStream) -> proc_macro2::fallback::TokenStream {proc_macro2::imp::TokenStream::unwrap_stable}>"** %7, align 8, !dbg !1528
  br label %bb1, !dbg !1526

bb1:                                              ; preds = %bb8, %bb10
  %8 = bitcast i64** %self1 to {}**, !dbg !1504
  %9 = load {}*, {}** %8, align 8, !dbg !1504
  %10 = icmp eq {}* %9, null, !dbg !1504
  %_14 = select i1 %10, i64 0, i64 1, !dbg !1504
  switch i64 %_14, label %bb12 [
    i64 0, label %bb11
    i64 1, label %bb13
  ], !dbg !1504

bb12:                                             ; preds = %bb1
  unreachable, !dbg !1504

bb11:                                             ; preds = %bb1
  %11 = bitcast i64** %_4 to {}**, !dbg !1504
  store {}* null, {}** %11, align 8, !dbg !1504
  br label %bb2, !dbg !1504

bb13:                                             ; preds = %bb1
  %12 = bitcast i64** %self1 to %"core::iter::adapters::map::Map<core::iter::adapters::map::Map<core::iter::sources::once::Once<proc_macro2::TokenStream>, [closure@<proc_macro2::TokenStream as core::iter::traits::collect::Extend<proc_macro2::TokenStream>>::extend<core::iter::sources::once::Once<proc_macro2::TokenStream>>::{closure#0}]>, fn(proc_macro2::imp::TokenStream) -> proc_macro2::fallback::TokenStream {proc_macro2::imp::TokenStream::unwrap_stable}>"**, !dbg !1504
  %v = load %"core::iter::adapters::map::Map<core::iter::adapters::map::Map<core::iter::sources::once::Once<proc_macro2::TokenStream>, [closure@<proc_macro2::TokenStream as core::iter::traits::collect::Extend<proc_macro2::TokenStream>>::extend<core::iter::sources::once::Once<proc_macro2::TokenStream>>::{closure#0}]>, fn(proc_macro2::imp::TokenStream) -> proc_macro2::fallback::TokenStream {proc_macro2::imp::TokenStream::unwrap_stable}>"*, %"core::iter::adapters::map::Map<core::iter::adapters::map::Map<core::iter::sources::once::Once<proc_macro2::TokenStream>, [closure@<proc_macro2::TokenStream as core::iter::traits::collect::Extend<proc_macro2::TokenStream>>::extend<core::iter::sources::once::Once<proc_macro2::TokenStream>>::{closure#0}]>, fn(proc_macro2::imp::TokenStream) -> proc_macro2::fallback::TokenStream {proc_macro2::imp::TokenStream::unwrap_stable}>"** %12, align 8, !dbg !1504, !nonnull !27, !align !1529, !noundef !27
  store %"core::iter::adapters::map::Map<core::iter::adapters::map::Map<core::iter::sources::once::Once<proc_macro2::TokenStream>, [closure@<proc_macro2::TokenStream as core::iter::traits::collect::Extend<proc_macro2::TokenStream>>::extend<core::iter::sources::once::Once<proc_macro2::TokenStream>>::{closure#0}]>, fn(proc_macro2::imp::TokenStream) -> proc_macro2::fallback::TokenStream {proc_macro2::imp::TokenStream::unwrap_stable}>"* %v, %"core::iter::adapters::map::Map<core::iter::adapters::map::Map<core::iter::sources::once::Once<proc_macro2::TokenStream>, [closure@<proc_macro2::TokenStream as core::iter::traits::collect::Extend<proc_macro2::TokenStream>>::extend<core::iter::sources::once::Once<proc_macro2::TokenStream>>::{closure#0}]>, fn(proc_macro2::imp::TokenStream) -> proc_macro2::fallback::TokenStream {proc_macro2::imp::TokenStream::unwrap_stable}>"** %v.dbg.spill, align 8, !dbg !1504
  call void @llvm.dbg.declare(metadata %"core::iter::adapters::map::Map<core::iter::adapters::map::Map<core::iter::sources::once::Once<proc_macro2::TokenStream>, [closure@<proc_macro2::TokenStream as core::iter::traits::collect::Extend<proc_macro2::TokenStream>>::extend<core::iter::sources::once::Once<proc_macro2::TokenStream>>::{closure#0}]>, fn(proc_macro2::imp::TokenStream) -> proc_macro2::fallback::TokenStream {proc_macro2::imp::TokenStream::unwrap_stable}>"** %v.dbg.spill, metadata !1501, metadata !DIExpression()), !dbg !1530
  %13 = bitcast i64** %_4 to %"core::iter::adapters::map::Map<core::iter::adapters::map::Map<core::iter::sources::once::Once<proc_macro2::TokenStream>, [closure@<proc_macro2::TokenStream as core::iter::traits::collect::Extend<proc_macro2::TokenStream>>::extend<core::iter::sources::once::Once<proc_macro2::TokenStream>>::{closure#0}]>, fn(proc_macro2::imp::TokenStream) -> proc_macro2::fallback::TokenStream {proc_macro2::imp::TokenStream::unwrap_stable}>"**, !dbg !1530
  store %"core::iter::adapters::map::Map<core::iter::adapters::map::Map<core::iter::sources::once::Once<proc_macro2::TokenStream>, [closure@<proc_macro2::TokenStream as core::iter::traits::collect::Extend<proc_macro2::TokenStream>>::extend<core::iter::sources::once::Once<proc_macro2::TokenStream>>::{closure#0}]>, fn(proc_macro2::imp::TokenStream) -> proc_macro2::fallback::TokenStream {proc_macro2::imp::TokenStream::unwrap_stable}>"* %v, %"core::iter::adapters::map::Map<core::iter::adapters::map::Map<core::iter::sources::once::Once<proc_macro2::TokenStream>, [closure@<proc_macro2::TokenStream as core::iter::traits::collect::Extend<proc_macro2::TokenStream>>::extend<core::iter::sources::once::Once<proc_macro2::TokenStream>>::{closure#0}]>, fn(proc_macro2::imp::TokenStream) -> proc_macro2::fallback::TokenStream {proc_macro2::imp::TokenStream::unwrap_stable}>"** %13, align 8, !dbg !1530
  br label %bb2, !dbg !1504

bb2:                                              ; preds = %bb11, %bb13
  %14 = bitcast i64** %_4 to {}**, !dbg !1505
  %15 = load {}*, {}** %14, align 8, !dbg !1505
  %16 = icmp eq {}* %15, null, !dbg !1505
  %_7 = select i1 %16, i64 1, i64 0, !dbg !1505
  switch i64 %_7, label %bb4 [
    i64 0, label %bb3
    i64 1, label %bb5
  ], !dbg !1505

bb4:                                              ; preds = %bb2
  unreachable, !dbg !1505

bb3:                                              ; preds = %bb2
  %17 = bitcast i64** %_4 to %"core::iter::adapters::map::Map<core::iter::adapters::map::Map<core::iter::sources::once::Once<proc_macro2::TokenStream>, [closure@<proc_macro2::TokenStream as core::iter::traits::collect::Extend<proc_macro2::TokenStream>>::extend<core::iter::sources::once::Once<proc_macro2::TokenStream>>::{closure#0}]>, fn(proc_macro2::imp::TokenStream) -> proc_macro2::fallback::TokenStream {proc_macro2::imp::TokenStream::unwrap_stable}>"**, !dbg !1505
  %val = load %"core::iter::adapters::map::Map<core::iter::adapters::map::Map<core::iter::sources::once::Once<proc_macro2::TokenStream>, [closure@<proc_macro2::TokenStream as core::iter::traits::collect::Extend<proc_macro2::TokenStream>>::extend<core::iter::sources::once::Once<proc_macro2::TokenStream>>::{closure#0}]>, fn(proc_macro2::imp::TokenStream) -> proc_macro2::fallback::TokenStream {proc_macro2::imp::TokenStream::unwrap_stable}>"*, %"core::iter::adapters::map::Map<core::iter::adapters::map::Map<core::iter::sources::once::Once<proc_macro2::TokenStream>, [closure@<proc_macro2::TokenStream as core::iter::traits::collect::Extend<proc_macro2::TokenStream>>::extend<core::iter::sources::once::Once<proc_macro2::TokenStream>>::{closure#0}]>, fn(proc_macro2::imp::TokenStream) -> proc_macro2::fallback::TokenStream {proc_macro2::imp::TokenStream::unwrap_stable}>"** %17, align 8, !dbg !1505, !nonnull !27, !align !1529, !noundef !27
  store %"core::iter::adapters::map::Map<core::iter::adapters::map::Map<core::iter::sources::once::Once<proc_macro2::TokenStream>, [closure@<proc_macro2::TokenStream as core::iter::traits::collect::Extend<proc_macro2::TokenStream>>::extend<core::iter::sources::once::Once<proc_macro2::TokenStream>>::{closure#0}]>, fn(proc_macro2::imp::TokenStream) -> proc_macro2::fallback::TokenStream {proc_macro2::imp::TokenStream::unwrap_stable}>"* %val, %"core::iter::adapters::map::Map<core::iter::adapters::map::Map<core::iter::sources::once::Once<proc_macro2::TokenStream>, [closure@<proc_macro2::TokenStream as core::iter::traits::collect::Extend<proc_macro2::TokenStream>>::extend<core::iter::sources::once::Once<proc_macro2::TokenStream>>::{closure#0}]>, fn(proc_macro2::imp::TokenStream) -> proc_macro2::fallback::TokenStream {proc_macro2::imp::TokenStream::unwrap_stable}>"** %val.dbg.spill, align 8, !dbg !1505
  call void @llvm.dbg.declare(metadata %"core::iter::adapters::map::Map<core::iter::adapters::map::Map<core::iter::sources::once::Once<proc_macro2::TokenStream>, [closure@<proc_macro2::TokenStream as core::iter::traits::collect::Extend<proc_macro2::TokenStream>>::extend<core::iter::sources::once::Once<proc_macro2::TokenStream>>::{closure#0}]>, fn(proc_macro2::imp::TokenStream) -> proc_macro2::fallback::TokenStream {proc_macro2::imp::TokenStream::unwrap_stable}>"** %val.dbg.spill, metadata !1460, metadata !DIExpression()), !dbg !1531
; call <core::iter::adapters::map::Map<I,F> as core::iter::traits::iterator::Iterator>::next
  %18 = call i64* @"_ZN102_$LT$core..iter..adapters..map..Map$LT$I$C$F$GT$$u20$as$u20$core..iter..traits..iterator..Iterator$GT$4next17h5d2993b229dcc79dE"(%"core::iter::adapters::map::Map<core::iter::adapters::map::Map<core::iter::sources::once::Once<proc_macro2::TokenStream>, [closure@<proc_macro2::TokenStream as core::iter::traits::collect::Extend<proc_macro2::TokenStream>>::extend<core::iter::sources::once::Once<proc_macro2::TokenStream>>::{closure#0}]>, fn(proc_macro2::imp::TokenStream) -> proc_macro2::fallback::TokenStream {proc_macro2::imp::TokenStream::unwrap_stable}>"* align 8 %val), !dbg !1505
  store i64* %18, i64** %0, align 8, !dbg !1505
  br label %bb6, !dbg !1505

bb5:                                              ; preds = %bb2
  %19 = bitcast i64** %0 to {}**, !dbg !1514
  store {}* null, {}** %19, align 8, !dbg !1514
  br label %bb7, !dbg !1532

bb7:                                              ; preds = %bb6, %bb5
  %20 = load i64*, i64** %0, align 8, !dbg !1532
  ret i64* %20, !dbg !1532

bb6:                                              ; preds = %bb3
  br label %bb7, !dbg !1532
}

; <proc_macro::TokenStream as core::iter::traits::collect::Extend<proc_macro::TokenStream>>::extend
; Function Attrs: nonlazybind uwtable
define void @"_ZN110_$LT$proc_macro..TokenStream$u20$as$u20$core..iter..traits..collect..Extend$LT$proc_macro..TokenStream$GT$$GT$6extend17hbfc9249772777cedE"(i32* align 4 %self, %"core::iter::adapters::map::Map<core::iter::adapters::map::Map<core::iter::sources::once::Once<proc_macro2::TokenStream>, [closure@<proc_macro2::TokenStream as core::iter::traits::collect::Extend<proc_macro2::TokenStream>>::extend<core::iter::sources::once::Once<proc_macro2::TokenStream>>::{closure#0}]>, fn(proc_macro2::imp::TokenStream) -> proc_macro::TokenStream {proc_macro2::imp::TokenStream::unwrap_nightly}>"* %streams) unnamed_addr #1 personality i32 (i32, i32, i64, %"unwind::libunwind::_Unwind_Exception"*, %"unwind::libunwind::_Unwind_Context"*)* @rust_eh_personality !dbg !1533 {
start:
  %0 = alloca { i8*, i32 }, align 8
  %self.dbg.spill = alloca i32*, align 8
  %_17 = alloca i8, align 1
  %_16 = alloca i8, align 1
  %_14 = alloca %"proc_macro::ConcatStreamsHelper", align 8
  %_11 = alloca i64*, align 8
  %_10 = alloca %"core::iter::adapters::map::Map<core::iter::adapters::map::Map<core::iter::sources::once::Once<proc_macro2::TokenStream>, [closure@<proc_macro2::TokenStream as core::iter::traits::collect::Extend<proc_macro2::TokenStream>>::extend<core::iter::sources::once::Once<proc_macro2::TokenStream>>::{closure#0}]>, fn(proc_macro2::imp::TokenStream) -> proc_macro::TokenStream {proc_macro2::imp::TokenStream::unwrap_nightly}>", align 8
  %_7 = alloca { i64, { i64, i64 } }, align 8
  %builder = alloca %"proc_macro::ConcatStreamsHelper", align 8
  %_4 = alloca %"core::iter::adapters::map::Map<core::iter::adapters::map::Map<core::iter::sources::once::Once<proc_macro2::TokenStream>, [closure@<proc_macro2::TokenStream as core::iter::traits::collect::Extend<proc_macro2::TokenStream>>::extend<core::iter::sources::once::Once<proc_macro2::TokenStream>>::{closure#0}]>, fn(proc_macro2::imp::TokenStream) -> proc_macro::TokenStream {proc_macro2::imp::TokenStream::unwrap_nightly}>", align 8
  %iter = alloca %"core::iter::adapters::map::Map<core::iter::adapters::map::Map<core::iter::sources::once::Once<proc_macro2::TokenStream>, [closure@<proc_macro2::TokenStream as core::iter::traits::collect::Extend<proc_macro2::TokenStream>>::extend<core::iter::sources::once::Once<proc_macro2::TokenStream>>::{closure#0}]>, fn(proc_macro2::imp::TokenStream) -> proc_macro::TokenStream {proc_macro2::imp::TokenStream::unwrap_nightly}>", align 8
  store i32* %self, i32** %self.dbg.spill, align 8
  call void @llvm.dbg.declare(metadata i32** %self.dbg.spill, metadata !1539, metadata !DIExpression()), !dbg !1547
  call void @llvm.dbg.declare(metadata %"core::iter::adapters::map::Map<core::iter::adapters::map::Map<core::iter::sources::once::Once<proc_macro2::TokenStream>, [closure@<proc_macro2::TokenStream as core::iter::traits::collect::Extend<proc_macro2::TokenStream>>::extend<core::iter::sources::once::Once<proc_macro2::TokenStream>>::{closure#0}]>, fn(proc_macro2::imp::TokenStream) -> proc_macro::TokenStream {proc_macro2::imp::TokenStream::unwrap_nightly}>"* %streams, metadata !1540, metadata !DIExpression()), !dbg !1548
  call void @llvm.dbg.declare(metadata %"core::iter::adapters::map::Map<core::iter::adapters::map::Map<core::iter::sources::once::Once<proc_macro2::TokenStream>, [closure@<proc_macro2::TokenStream as core::iter::traits::collect::Extend<proc_macro2::TokenStream>>::extend<core::iter::sources::once::Once<proc_macro2::TokenStream>>::{closure#0}]>, fn(proc_macro2::imp::TokenStream) -> proc_macro::TokenStream {proc_macro2::imp::TokenStream::unwrap_nightly}>"* %iter, metadata !1541, metadata !DIExpression()), !dbg !1549
  call void @llvm.dbg.declare(metadata %"proc_macro::ConcatStreamsHelper"* %builder, metadata !1543, metadata !DIExpression()), !dbg !1550
  %1 = bitcast %"core::iter::adapters::map::Map<core::iter::adapters::map::Map<core::iter::sources::once::Once<proc_macro2::TokenStream>, [closure@<proc_macro2::TokenStream as core::iter::traits::collect::Extend<proc_macro2::TokenStream>>::extend<core::iter::sources::once::Once<proc_macro2::TokenStream>>::{closure#0}]>, fn(proc_macro2::imp::TokenStream) -> proc_macro::TokenStream {proc_macro2::imp::TokenStream::unwrap_nightly}>"* %_4 to i8*, !dbg !1551
  %2 = bitcast %"core::iter::adapters::map::Map<core::iter::adapters::map::Map<core::iter::sources::once::Once<proc_macro2::TokenStream>, [closure@<proc_macro2::TokenStream as core::iter::traits::collect::Extend<proc_macro2::TokenStream>>::extend<core::iter::sources::once::Once<proc_macro2::TokenStream>>::{closure#0}]>, fn(proc_macro2::imp::TokenStream) -> proc_macro::TokenStream {proc_macro2::imp::TokenStream::unwrap_nightly}>"* %streams to i8*, !dbg !1551
  call void @llvm.memcpy.p0i8.p0i8.i64(i8* align 8 %1, i8* align 8 %2, i64 40, i1 false), !dbg !1551
; call <I as core::iter::traits::collect::IntoIterator>::into_iter
  call void @"_ZN63_$LT$I$u20$as$u20$core..iter..traits..collect..IntoIterator$GT$9into_iter17h24795ae12eb05d7bE"(%"core::iter::adapters::map::Map<core::iter::adapters::map::Map<core::iter::sources::once::Once<proc_macro2::TokenStream>, [closure@<proc_macro2::TokenStream as core::iter::traits::collect::Extend<proc_macro2::TokenStream>>::extend<core::iter::sources::once::Once<proc_macro2::TokenStream>>::{closure#0}]>, fn(proc_macro2::imp::TokenStream) -> proc_macro::TokenStream {proc_macro2::imp::TokenStream::unwrap_nightly}>"* sret(%"core::iter::adapters::map::Map<core::iter::adapters::map::Map<core::iter::sources::once::Once<proc_macro2::TokenStream>, [closure@<proc_macro2::TokenStream as core::iter::traits::collect::Extend<proc_macro2::TokenStream>>::extend<core::iter::sources::once::Once<proc_macro2::TokenStream>>::{closure#0}]>, fn(proc_macro2::imp::TokenStream) -> proc_macro::TokenStream {proc_macro2::imp::TokenStream::unwrap_nightly}>") %iter, %"core::iter::adapters::map::Map<core::iter::adapters::map::Map<core::iter::sources::once::Once<proc_macro2::TokenStream>, [closure@<proc_macro2::TokenStream as core::iter::traits::collect::Extend<proc_macro2::TokenStream>>::extend<core::iter::sources::once::Once<proc_macro2::TokenStream>>::{closure#0}]>, fn(proc_macro2::imp::TokenStream) -> proc_macro::TokenStream {proc_macro2::imp::TokenStream::unwrap_nightly}>"* %_4), !dbg !1551
  br label %bb1, !dbg !1551

bb1:                                              ; preds = %start
  store i8 1, i8* %_17, align 1, !dbg !1552
; invoke <core::iter::adapters::map::Map<I,F> as core::iter::traits::iterator::Iterator>::size_hint
  invoke void @"_ZN102_$LT$core..iter..adapters..map..Map$LT$I$C$F$GT$$u20$as$u20$core..iter..traits..iterator..Iterator$GT$9size_hint17h5339ddeb1e501a91E"({ i64, { i64, i64 } }* sret({ i64, { i64, i64 } }) %_7, %"core::iter::adapters::map::Map<core::iter::adapters::map::Map<core::iter::sources::once::Once<proc_macro2::TokenStream>, [closure@<proc_macro2::TokenStream as core::iter::traits::collect::Extend<proc_macro2::TokenStream>>::extend<core::iter::sources::once::Once<proc_macro2::TokenStream>>::{closure#0}]>, fn(proc_macro2::imp::TokenStream) -> proc_macro::TokenStream {proc_macro2::imp::TokenStream::unwrap_nightly}>"* align 8 %iter)
          to label %bb2 unwind label %cleanup, !dbg !1553

bb10:                                             ; preds = %bb7, %bb8, %cleanup
  %3 = load i8, i8* %_17, align 1, !dbg !1554, !range !810, !noundef !27
  %4 = trunc i8 %3 to i1, !dbg !1554
  br i1 %4, label %bb9, label %bb6, !dbg !1554

cleanup:                                          ; preds = %bb2, %bb1
  %5 = landingpad { i8*, i32 }
          cleanup
  %6 = extractvalue { i8*, i32 } %5, 0
  %7 = extractvalue { i8*, i32 } %5, 1
  %8 = getelementptr inbounds { i8*, i32 }, { i8*, i32 }* %0, i32 0, i32 0
  store i8* %6, i8** %8, align 8
  %9 = getelementptr inbounds { i8*, i32 }, { i8*, i32 }* %0, i32 0, i32 1
  store i32 %7, i32* %9, align 8
  br label %bb10

bb2:                                              ; preds = %bb1
  %10 = bitcast { i64, { i64, i64 } }* %_7 to i64*, !dbg !1553
  %_6 = load i64, i64* %10, align 8, !dbg !1553
; invoke proc_macro::ConcatStreamsHelper::new
  invoke void @_ZN10proc_macro19ConcatStreamsHelper3new17h3a73adaa046cb9f0E(%"proc_macro::ConcatStreamsHelper"* sret(%"proc_macro::ConcatStreamsHelper") %builder, i64 %_6)
          to label %bb3 unwind label %cleanup, !dbg !1555

bb3:                                              ; preds = %bb2
  store i8 1, i8* %_16, align 1, !dbg !1556
  store i8 0, i8* %_17, align 1, !dbg !1557
  %11 = bitcast %"core::iter::adapters::map::Map<core::iter::adapters::map::Map<core::iter::sources::once::Once<proc_macro2::TokenStream>, [closure@<proc_macro2::TokenStream as core::iter::traits::collect::Extend<proc_macro2::TokenStream>>::extend<core::iter::sources::once::Once<proc_macro2::TokenStream>>::{closure#0}]>, fn(proc_macro2::imp::TokenStream) -> proc_macro::TokenStream {proc_macro2::imp::TokenStream::unwrap_nightly}>"* %_10 to i8*, !dbg !1557
  %12 = bitcast %"core::iter::adapters::map::Map<core::iter::adapters::map::Map<core::iter::sources::once::Once<proc_macro2::TokenStream>, [closure@<proc_macro2::TokenStream as core::iter::traits::collect::Extend<proc_macro2::TokenStream>>::extend<core::iter::sources::once::Once<proc_macro2::TokenStream>>::{closure#0}]>, fn(proc_macro2::imp::TokenStream) -> proc_macro::TokenStream {proc_macro2::imp::TokenStream::unwrap_nightly}>"* %iter to i8*, !dbg !1557
  call void @llvm.memcpy.p0i8.p0i8.i64(i8* align 8 %11, i8* align 8 %12, i64 40, i1 false), !dbg !1557
  %13 = bitcast i64** %_11 to %"proc_macro::ConcatStreamsHelper"**, !dbg !1558
  store %"proc_macro::ConcatStreamsHelper"* %builder, %"proc_macro::ConcatStreamsHelper"** %13, align 8, !dbg !1558
  %14 = load i64*, i64** %_11, align 8, !dbg !1557, !nonnull !27, !align !1529, !noundef !27
; invoke core::iter::traits::iterator::Iterator::for_each
  invoke void @_ZN4core4iter6traits8iterator8Iterator8for_each17h8327a99ba3ae31a9E(%"core::iter::adapters::map::Map<core::iter::adapters::map::Map<core::iter::sources::once::Once<proc_macro2::TokenStream>, [closure@<proc_macro2::TokenStream as core::iter::traits::collect::Extend<proc_macro2::TokenStream>>::extend<core::iter::sources::once::Once<proc_macro2::TokenStream>>::{closure#0}]>, fn(proc_macro2::imp::TokenStream) -> proc_macro::TokenStream {proc_macro2::imp::TokenStream::unwrap_nightly}>"* %_10, i64* align 8 %14)
          to label %bb4 unwind label %cleanup1, !dbg !1557

bb8:                                              ; preds = %cleanup1
  %15 = load i8, i8* %_16, align 1, !dbg !1559, !range !810, !noundef !27
  %16 = trunc i8 %15 to i1, !dbg !1559
  br i1 %16, label %bb7, label %bb10, !dbg !1559

cleanup1:                                         ; preds = %bb4, %bb3
  %17 = landingpad { i8*, i32 }
          cleanup
  %18 = extractvalue { i8*, i32 } %17, 0
  %19 = extractvalue { i8*, i32 } %17, 1
  %20 = getelementptr inbounds { i8*, i32 }, { i8*, i32 }* %0, i32 0, i32 0
  store i8* %18, i8** %20, align 8
  %21 = getelementptr inbounds { i8*, i32 }, { i8*, i32 }* %0, i32 0, i32 1
  store i32 %19, i32* %21, align 8
  br label %bb8

bb4:                                              ; preds = %bb3
  store i8 0, i8* %_16, align 1, !dbg !1560
  %22 = bitcast %"proc_macro::ConcatStreamsHelper"* %_14 to i8*, !dbg !1560
  %23 = bitcast %"proc_macro::ConcatStreamsHelper"* %builder to i8*, !dbg !1560
  call void @llvm.memcpy.p0i8.p0i8.i64(i8* align 8 %22, i8* align 8 %23, i64 24, i1 false), !dbg !1560
; invoke proc_macro::ConcatStreamsHelper::append_to
  invoke void @_ZN10proc_macro19ConcatStreamsHelper9append_to17hadda5532b0109330E(%"proc_macro::ConcatStreamsHelper"* %_14, i32* align 4 %self)
          to label %bb5 unwind label %cleanup1, !dbg !1560

bb5:                                              ; preds = %bb4
  ret void, !dbg !1561

bb7:                                              ; preds = %bb8
; invoke core::ptr::drop_in_place<proc_macro::ConcatStreamsHelper>
  invoke void @"_ZN4core3ptr52drop_in_place$LT$proc_macro..ConcatStreamsHelper$GT$17h9101b714e23cd8d3E"(%"proc_macro::ConcatStreamsHelper"* %builder) #13
          to label %bb10 unwind label %abort, !dbg !1559

abort:                                            ; preds = %bb9, %bb7
  %24 = landingpad { i8*, i32 }
          cleanup, !dbg !1562
; call core::panicking::panic_no_unwind
  call void @_ZN4core9panicking15panic_no_unwind17h62f8113f44cbfcbfE() #14, !dbg !1562
  unreachable, !dbg !1562

bb6:                                              ; preds = %bb9, %bb10
  %25 = bitcast { i8*, i32 }* %0 to i8**, !dbg !1562
  %26 = load i8*, i8** %25, align 8, !dbg !1562
  %27 = getelementptr inbounds { i8*, i32 }, { i8*, i32 }* %0, i32 0, i32 1, !dbg !1562
  %28 = load i32, i32* %27, align 8, !dbg !1562
  %29 = insertvalue { i8*, i32 } undef, i8* %26, 0, !dbg !1562
  %30 = insertvalue { i8*, i32 } %29, i32 %28, 1, !dbg !1562
  resume { i8*, i32 } %30, !dbg !1562

bb9:                                              ; preds = %bb10
; invoke core::ptr::drop_in_place<core::iter::adapters::map::Map<core::iter::adapters::map::Map<core::iter::sources::once::Once<proc_macro2::TokenStream>,<proc_macro2::TokenStream as core::iter::traits::collect::Extend<proc_macro2::TokenStream>>::extend<core::iter::sources::once::Once<proc_macro2::TokenStream>>::{{closure}}>,proc_macro2::imp::TokenStream::unwrap_nightly>>
  invoke void @"_ZN4core3ptr430drop_in_place$LT$core..iter..adapters..map..Map$LT$core..iter..adapters..map..Map$LT$core..iter..sources..once..Once$LT$proc_macro2..TokenStream$GT$$C$$LT$proc_macro2..TokenStream$u20$as$u20$core..iter..traits..collect..Extend$LT$proc_macro2..TokenStream$GT$$GT$..extend$LT$core..iter..sources..once..Once$LT$proc_macro2..TokenStream$GT$$GT$..$u7b$$u7b$closure$u7d$$u7d$$GT$$C$proc_macro2..imp..TokenStream..unwrap_nightly$GT$$GT$17h6cd03bd388d8b054E"(%"core::iter::adapters::map::Map<core::iter::adapters::map::Map<core::iter::sources::once::Once<proc_macro2::TokenStream>, [closure@<proc_macro2::TokenStream as core::iter::traits::collect::Extend<proc_macro2::TokenStream>>::extend<core::iter::sources::once::Once<proc_macro2::TokenStream>>::{closure#0}]>, fn(proc_macro2::imp::TokenStream) -> proc_macro::TokenStream {proc_macro2::imp::TokenStream::unwrap_nightly}>"* %iter) #13
          to label %bb6 unwind label %abort, !dbg !1554
}

; <proc_macro::TokenStream as core::iter::traits::collect::Extend<proc_macro::TokenStream>>::extend::{{closure}}
; Function Attrs: inlinehint nonlazybind uwtable
define void @"_ZN110_$LT$proc_macro..TokenStream$u20$as$u20$core..iter..traits..collect..Extend$LT$proc_macro..TokenStream$GT$$GT$6extend28_$u7b$$u7b$closure$u7d$$u7d$17h8618b1062313c6a6E"(i64** align 8 %_1, i32 %stream) unnamed_addr #0 !dbg !1563 {
start:
  %stream.dbg.spill = alloca i32, align 4
  %_1.dbg.spill = alloca i64**, align 8
  store i64** %_1, i64*** %_1.dbg.spill, align 8
  %0 = load i64**, i64*** %_1.dbg.spill, align 8, !nonnull !27, !align !1529, !noundef !27
  %1 = bitcast i64** %0 to %"proc_macro::ConcatStreamsHelper"**
  %2 = load %"proc_macro::ConcatStreamsHelper"*, %"proc_macro::ConcatStreamsHelper"** %1, align 8, !nonnull !27, !align !1529, !noundef !27
  call void @llvm.dbg.declare(metadata i64*** %_1.dbg.spill, metadata !1569, metadata !DIExpression(DW_OP_deref, DW_OP_deref)), !dbg !1570
  store i32 %stream, i32* %stream.dbg.spill, align 4
  call void @llvm.dbg.declare(metadata i32* %stream.dbg.spill, metadata !1568, metadata !DIExpression()), !dbg !1571
  %3 = bitcast i64** %_1 to %"proc_macro::ConcatStreamsHelper"**, !dbg !1572
  %_5 = load %"proc_macro::ConcatStreamsHelper"*, %"proc_macro::ConcatStreamsHelper"** %3, align 8, !dbg !1572, !nonnull !27, !align !1529, !noundef !27
; call proc_macro::ConcatStreamsHelper::push
  call void @_ZN10proc_macro19ConcatStreamsHelper4push17h40792ce6fcb92b94E(%"proc_macro::ConcatStreamsHelper"* align 8 %_5, i32 %stream), !dbg !1572
  br label %bb1, !dbg !1572

bb1:                                              ; preds = %start
  ret void, !dbg !1573
}

; <proc_macro2::TokenStream as core::iter::traits::collect::Extend<proc_macro2::TokenTree>>::extend
; Function Attrs: nonlazybind uwtable
define void @"_ZN110_$LT$proc_macro2..TokenStream$u20$as$u20$core..iter..traits..collect..Extend$LT$proc_macro2..TokenTree$GT$$GT$6extend17h5e0e868372716e86E"(%"proc_macro2::TokenStream"* align 8 %self, [2 x %"proc_macro2::TokenTree"]* %streams) unnamed_addr #1 !dbg !1574 {
start:
  %self.dbg.spill = alloca %"proc_macro2::TokenStream"*, align 8
  %_5 = alloca [2 x %"proc_macro2::TokenTree"], align 8
  store %"proc_macro2::TokenStream"* %self, %"proc_macro2::TokenStream"** %self.dbg.spill, align 8
  call void @llvm.dbg.declare(metadata %"proc_macro2::TokenStream"** %self.dbg.spill, metadata !1584, metadata !DIExpression()), !dbg !1588
  call void @llvm.dbg.declare(metadata [2 x %"proc_macro2::TokenTree"]* %streams, metadata !1585, metadata !DIExpression()), !dbg !1589
  %_4 = bitcast %"proc_macro2::TokenStream"* %self to %"proc_macro2::imp::TokenStream"*, !dbg !1590
  %0 = bitcast [2 x %"proc_macro2::TokenTree"]* %_5 to i8*, !dbg !1591
  %1 = bitcast [2 x %"proc_macro2::TokenTree"]* %streams to i8*, !dbg !1591
  call void @llvm.memcpy.p0i8.p0i8.i64(i8* align 8 %0, i8* align 8 %1, i64 80, i1 false), !dbg !1591
; call <proc_macro2::imp::TokenStream as core::iter::traits::collect::Extend<proc_macro2::TokenTree>>::extend
  call void @"_ZN115_$LT$proc_macro2..imp..TokenStream$u20$as$u20$core..iter..traits..collect..Extend$LT$proc_macro2..TokenTree$GT$$GT$6extend17haca64a4f6736dd39E"(%"proc_macro2::imp::TokenStream"* align 8 %_4, [2 x %"proc_macro2::TokenTree"]* %_5), !dbg !1590
  br label %bb1, !dbg !1590

bb1:                                              ; preds = %start
  ret void, !dbg !1592
}

; <proc_macro2::TokenStream as core::iter::traits::collect::Extend<proc_macro2::TokenTree>>::extend
; Function Attrs: nonlazybind uwtable
define void @"_ZN110_$LT$proc_macro2..TokenStream$u20$as$u20$core..iter..traits..collect..Extend$LT$proc_macro2..TokenTree$GT$$GT$6extend17ha4487b26be65b924E"(%"proc_macro2::TokenStream"* align 8 %self, %"core::iter::sources::once::Once<proc_macro2::TokenTree>"* %streams) unnamed_addr #1 !dbg !1593 {
start:
  %self.dbg.spill = alloca %"proc_macro2::TokenStream"*, align 8
  %_5 = alloca %"core::iter::sources::once::Once<proc_macro2::TokenTree>", align 8
  store %"proc_macro2::TokenStream"* %self, %"proc_macro2::TokenStream"** %self.dbg.spill, align 8
  call void @llvm.dbg.declare(metadata %"proc_macro2::TokenStream"** %self.dbg.spill, metadata !1608, metadata !DIExpression()), !dbg !1612
  call void @llvm.dbg.declare(metadata %"core::iter::sources::once::Once<proc_macro2::TokenTree>"* %streams, metadata !1609, metadata !DIExpression()), !dbg !1613
  %_4 = bitcast %"proc_macro2::TokenStream"* %self to %"proc_macro2::imp::TokenStream"*, !dbg !1614
  %0 = bitcast %"core::iter::sources::once::Once<proc_macro2::TokenTree>"* %_5 to i8*, !dbg !1615
  %1 = bitcast %"core::iter::sources::once::Once<proc_macro2::TokenTree>"* %streams to i8*, !dbg !1615
  call void @llvm.memcpy.p0i8.p0i8.i64(i8* align 8 %0, i8* align 8 %1, i64 40, i1 false), !dbg !1615
; call <proc_macro2::imp::TokenStream as core::iter::traits::collect::Extend<proc_macro2::TokenTree>>::extend
  call void @"_ZN115_$LT$proc_macro2..imp..TokenStream$u20$as$u20$core..iter..traits..collect..Extend$LT$proc_macro2..TokenTree$GT$$GT$6extend17h4f0359de188c85b9E"(%"proc_macro2::imp::TokenStream"* align 8 %_4, %"core::iter::sources::once::Once<proc_macro2::TokenTree>"* %_5), !dbg !1614
  br label %bb1, !dbg !1614

bb1:                                              ; preds = %start
  ret void, !dbg !1616
}

; <proc_macro2::TokenStream as core::iter::traits::collect::Extend<proc_macro2::TokenTree>>::extend
; Function Attrs: nonlazybind uwtable
define void @"_ZN110_$LT$proc_macro2..TokenStream$u20$as$u20$core..iter..traits..collect..Extend$LT$proc_macro2..TokenTree$GT$$GT$6extend17hdce1c57e8a1a87f6E"(%"proc_macro2::TokenStream"* align 8 %self, %"core::iter::adapters::map::Map<proc_macro2::token_stream::IntoIter, [closure@/home/calvin/.cargo/registry/src/github.com-1ecc6299db9ec823/quote-1.0.40/src/runtime.rs:275:37: 275:40]>"* %streams) unnamed_addr #1 !dbg !1617 {
start:
  %self.dbg.spill = alloca %"proc_macro2::TokenStream"*, align 8
  %_5 = alloca %"core::iter::adapters::map::Map<proc_macro2::token_stream::IntoIter, [closure@/home/calvin/.cargo/registry/src/github.com-1ecc6299db9ec823/quote-1.0.40/src/runtime.rs:275:37: 275:40]>", align 8
  store %"proc_macro2::TokenStream"* %self, %"proc_macro2::TokenStream"** %self.dbg.spill, align 8
  call void @llvm.dbg.declare(metadata %"proc_macro2::TokenStream"** %self.dbg.spill, metadata !1621, metadata !DIExpression()), !dbg !1625
  call void @llvm.dbg.declare(metadata %"core::iter::adapters::map::Map<proc_macro2::token_stream::IntoIter, [closure@/home/calvin/.cargo/registry/src/github.com-1ecc6299db9ec823/quote-1.0.40/src/runtime.rs:275:37: 275:40]>"* %streams, metadata !1622, metadata !DIExpression()), !dbg !1626
  %_4 = bitcast %"proc_macro2::TokenStream"* %self to %"proc_macro2::imp::TokenStream"*, !dbg !1627
  %0 = bitcast %"core::iter::adapters::map::Map<proc_macro2::token_stream::IntoIter, [closure@/home/calvin/.cargo/registry/src/github.com-1ecc6299db9ec823/quote-1.0.40/src/runtime.rs:275:37: 275:40]>"* %_5 to i8*, !dbg !1628
  %1 = bitcast %"core::iter::adapters::map::Map<proc_macro2::token_stream::IntoIter, [closure@/home/calvin/.cargo/registry/src/github.com-1ecc6299db9ec823/quote-1.0.40/src/runtime.rs:275:37: 275:40]>"* %streams to i8*, !dbg !1628
  call void @llvm.memcpy.p0i8.p0i8.i64(i8* align 8 %0, i8* align 8 %1, i64 48, i1 false), !dbg !1628
; call <proc_macro2::imp::TokenStream as core::iter::traits::collect::Extend<proc_macro2::TokenTree>>::extend
  call void @"_ZN115_$LT$proc_macro2..imp..TokenStream$u20$as$u20$core..iter..traits..collect..Extend$LT$proc_macro2..TokenTree$GT$$GT$6extend17h2370ec95d0e1ac2fE"(%"proc_macro2::imp::TokenStream"* align 8 %_4, %"core::iter::adapters::map::Map<proc_macro2::token_stream::IntoIter, [closure@/home/calvin/.cargo/registry/src/github.com-1ecc6299db9ec823/quote-1.0.40/src/runtime.rs:275:37: 275:40]>"* %_5), !dbg !1627
  br label %bb1, !dbg !1627

bb1:                                              ; preds = %start
  ret void, !dbg !1629
}

; <proc_macro2::TokenStream as core::iter::traits::collect::Extend<proc_macro2::TokenStream>>::extend
; Function Attrs: nonlazybind uwtable
define void @"_ZN112_$LT$proc_macro2..TokenStream$u20$as$u20$core..iter..traits..collect..Extend$LT$proc_macro2..TokenStream$GT$$GT$6extend17h3bd6680c6245535cE"(%"proc_macro2::TokenStream"* align 8 %self, %"core::iter::sources::once::Once<proc_macro2::TokenStream>"* %streams) unnamed_addr #1 !dbg !1630 {
start:
  %self.dbg.spill = alloca %"proc_macro2::TokenStream"*, align 8
  %_7 = alloca %"core::iter::sources::once::Once<proc_macro2::TokenStream>", align 8
  %_6 = alloca %"core::iter::sources::once::Once<proc_macro2::TokenStream>", align 8
  %_5 = alloca %"core::iter::adapters::map::Map<core::iter::sources::once::Once<proc_macro2::TokenStream>, [closure@<proc_macro2::TokenStream as core::iter::traits::collect::Extend<proc_macro2::TokenStream>>::extend<core::iter::sources::once::Once<proc_macro2::TokenStream>>::{closure#0}]>", align 8
  store %"proc_macro2::TokenStream"* %self, %"proc_macro2::TokenStream"** %self.dbg.spill, align 8
  call void @llvm.dbg.declare(metadata %"proc_macro2::TokenStream"** %self.dbg.spill, metadata !1634, metadata !DIExpression()), !dbg !1637
  call void @llvm.dbg.declare(metadata %"core::iter::sources::once::Once<proc_macro2::TokenStream>"* %streams, metadata !1635, metadata !DIExpression()), !dbg !1638
  %_4 = bitcast %"proc_macro2::TokenStream"* %self to %"proc_macro2::imp::TokenStream"*, !dbg !1639
  %0 = bitcast %"core::iter::sources::once::Once<proc_macro2::TokenStream>"* %_7 to i8*, !dbg !1640
  %1 = bitcast %"core::iter::sources::once::Once<proc_macro2::TokenStream>"* %streams to i8*, !dbg !1640
  call void @llvm.memcpy.p0i8.p0i8.i64(i8* align 8 %0, i8* align 8 %1, i64 40, i1 false), !dbg !1640
; call <I as core::iter::traits::collect::IntoIterator>::into_iter
  call void @"_ZN63_$LT$I$u20$as$u20$core..iter..traits..collect..IntoIterator$GT$9into_iter17h5d39aeb16070a76eE"(%"core::iter::sources::once::Once<proc_macro2::TokenStream>"* sret(%"core::iter::sources::once::Once<proc_macro2::TokenStream>") %_6, %"core::iter::sources::once::Once<proc_macro2::TokenStream>"* %_7), !dbg !1640
  br label %bb1, !dbg !1640

bb1:                                              ; preds = %start
; call core::iter::traits::iterator::Iterator::map
  call void @_ZN4core4iter6traits8iterator8Iterator3map17h21729aef38d5ec6eE(%"core::iter::adapters::map::Map<core::iter::sources::once::Once<proc_macro2::TokenStream>, [closure@<proc_macro2::TokenStream as core::iter::traits::collect::Extend<proc_macro2::TokenStream>>::extend<core::iter::sources::once::Once<proc_macro2::TokenStream>>::{closure#0}]>"* sret(%"core::iter::adapters::map::Map<core::iter::sources::once::Once<proc_macro2::TokenStream>, [closure@<proc_macro2::TokenStream as core::iter::traits::collect::Extend<proc_macro2::TokenStream>>::extend<core::iter::sources::once::Once<proc_macro2::TokenStream>>::{closure#0}]>") %_5, %"core::iter::sources::once::Once<proc_macro2::TokenStream>"* %_6), !dbg !1640
  br label %bb2, !dbg !1640

bb2:                                              ; preds = %bb1
; call <proc_macro2::imp::TokenStream as core::iter::traits::collect::Extend<proc_macro2::imp::TokenStream>>::extend
  call void @"_ZN122_$LT$proc_macro2..imp..TokenStream$u20$as$u20$core..iter..traits..collect..Extend$LT$proc_macro2..imp..TokenStream$GT$$GT$6extend17h55cf5f223aa85b12E"(%"proc_macro2::imp::TokenStream"* align 8 %_4, %"core::iter::adapters::map::Map<core::iter::sources::once::Once<proc_macro2::TokenStream>, [closure@<proc_macro2::TokenStream as core::iter::traits::collect::Extend<proc_macro2::TokenStream>>::extend<core::iter::sources::once::Once<proc_macro2::TokenStream>>::{closure#0}]>"* %_5), !dbg !1639
  br label %bb3, !dbg !1639

bb3:                                              ; preds = %bb2
  ret void, !dbg !1641
}

; <proc_macro2::TokenStream as core::iter::traits::collect::Extend<proc_macro2::TokenStream>>::extend::{{closure}}
; Function Attrs: inlinehint nonlazybind uwtable
define void @"_ZN112_$LT$proc_macro2..TokenStream$u20$as$u20$core..iter..traits..collect..Extend$LT$proc_macro2..TokenStream$GT$$GT$6extend28_$u7b$$u7b$closure$u7d$$u7d$17h8a83bde2abe25354E"(%"proc_macro2::imp::TokenStream"* sret(%"proc_macro2::imp::TokenStream") %0, %"[closure@<proc_macro2::TokenStream as core::iter::traits::collect::Extend<proc_macro2::TokenStream>>::extend<core::iter::sources::once::Once<proc_macro2::TokenStream>>::{closure#0}]"* align 1 %_1, %"proc_macro2::TokenStream"* %stream) unnamed_addr #0 !dbg !1642 {
start:
  %_1.dbg.spill = alloca %"[closure@<proc_macro2::TokenStream as core::iter::traits::collect::Extend<proc_macro2::TokenStream>>::extend<core::iter::sources::once::Once<proc_macro2::TokenStream>>::{closure#0}]"*, align 8
  store %"[closure@<proc_macro2::TokenStream as core::iter::traits::collect::Extend<proc_macro2::TokenStream>>::extend<core::iter::sources::once::Once<proc_macro2::TokenStream>>::{closure#0}]"* %_1, %"[closure@<proc_macro2::TokenStream as core::iter::traits::collect::Extend<proc_macro2::TokenStream>>::extend<core::iter::sources::once::Once<proc_macro2::TokenStream>>::{closure#0}]"** %_1.dbg.spill, align 8
  call void @llvm.dbg.declare(metadata %"[closure@<proc_macro2::TokenStream as core::iter::traits::collect::Extend<proc_macro2::TokenStream>>::extend<core::iter::sources::once::Once<proc_macro2::TokenStream>>::{closure#0}]"** %_1.dbg.spill, metadata !1648, metadata !DIExpression()), !dbg !1649
  call void @llvm.dbg.declare(metadata %"proc_macro2::TokenStream"* %stream, metadata !1647, metadata !DIExpression()), !dbg !1650
  %1 = bitcast %"proc_macro2::TokenStream"* %stream to %"proc_macro2::imp::TokenStream"*, !dbg !1651
  %2 = bitcast %"proc_macro2::imp::TokenStream"* %0 to i8*, !dbg !1651
  %3 = bitcast %"proc_macro2::imp::TokenStream"* %1 to i8*, !dbg !1651
  call void @llvm.memcpy.p0i8.p0i8.i64(i8* align 8 %2, i8* align 8 %3, i64 40, i1 false), !dbg !1651
  ret void, !dbg !1652
}

; <proc_macro::TokenStream as core::iter::traits::collect::FromIterator<proc_macro::TokenTree>>::from_iter
; Function Attrs: nonlazybind uwtable
define i32 @"_ZN114_$LT$proc_macro..TokenStream$u20$as$u20$core..iter..traits..collect..FromIterator$LT$proc_macro..TokenTree$GT$$GT$9from_iter17h043a4fd17307793aE"(%"core::iter::adapters::map::Map<core::iter::adapters::map::Map<proc_macro2::token_stream::IntoIter, [closure@/home/calvin/.cargo/registry/src/github.com-1ecc6299db9ec823/quote-1.0.40/src/runtime.rs:285:22: 285:29]>, fn(proc_macro2::TokenTree) -> proc_macro::TokenTree {proc_macro2::imp::into_compiler_token}>"* %trees) unnamed_addr #1 personality i32 (i32, i32, i64, %"unwind::libunwind::_Unwind_Exception"*, %"unwind::libunwind::_Unwind_Context"*)* @rust_eh_personality !dbg !1653 {
start:
  %0 = alloca { i8*, i32 }, align 8
  %_14 = alloca i8, align 1
  %_13 = alloca i8, align 1
  %_12 = alloca %"proc_macro::ConcatTreesHelper", align 8
  %_10 = alloca i64*, align 8
  %_9 = alloca %"core::iter::adapters::map::Map<core::iter::adapters::map::Map<proc_macro2::token_stream::IntoIter, [closure@/home/calvin/.cargo/registry/src/github.com-1ecc6299db9ec823/quote-1.0.40/src/runtime.rs:285:22: 285:29]>, fn(proc_macro2::TokenTree) -> proc_macro::TokenTree {proc_macro2::imp::into_compiler_token}>", align 8
  %_6 = alloca { i64, { i64, i64 } }, align 8
  %builder = alloca %"proc_macro::ConcatTreesHelper", align 8
  %_3 = alloca %"core::iter::adapters::map::Map<core::iter::adapters::map::Map<proc_macro2::token_stream::IntoIter, [closure@/home/calvin/.cargo/registry/src/github.com-1ecc6299db9ec823/quote-1.0.40/src/runtime.rs:285:22: 285:29]>, fn(proc_macro2::TokenTree) -> proc_macro::TokenTree {proc_macro2::imp::into_compiler_token}>", align 8
  %iter = alloca %"core::iter::adapters::map::Map<core::iter::adapters::map::Map<proc_macro2::token_stream::IntoIter, [closure@/home/calvin/.cargo/registry/src/github.com-1ecc6299db9ec823/quote-1.0.40/src/runtime.rs:285:22: 285:29]>, fn(proc_macro2::TokenTree) -> proc_macro::TokenTree {proc_macro2::imp::into_compiler_token}>", align 8
  call void @llvm.dbg.declare(metadata %"core::iter::adapters::map::Map<core::iter::adapters::map::Map<proc_macro2::token_stream::IntoIter, [closure@/home/calvin/.cargo/registry/src/github.com-1ecc6299db9ec823/quote-1.0.40/src/runtime.rs:285:22: 285:29]>, fn(proc_macro2::TokenTree) -> proc_macro::TokenTree {proc_macro2::imp::into_compiler_token}>"* %trees, metadata !1657, metadata !DIExpression()), !dbg !1664
  call void @llvm.dbg.declare(metadata %"core::iter::adapters::map::Map<core::iter::adapters::map::Map<proc_macro2::token_stream::IntoIter, [closure@/home/calvin/.cargo/registry/src/github.com-1ecc6299db9ec823/quote-1.0.40/src/runtime.rs:285:22: 285:29]>, fn(proc_macro2::TokenTree) -> proc_macro::TokenTree {proc_macro2::imp::into_compiler_token}>"* %iter, metadata !1658, metadata !DIExpression()), !dbg !1665
  call void @llvm.dbg.declare(metadata %"proc_macro::ConcatTreesHelper"* %builder, metadata !1660, metadata !DIExpression()), !dbg !1666
  %1 = bitcast %"core::iter::adapters::map::Map<core::iter::adapters::map::Map<proc_macro2::token_stream::IntoIter, [closure@/home/calvin/.cargo/registry/src/github.com-1ecc6299db9ec823/quote-1.0.40/src/runtime.rs:285:22: 285:29]>, fn(proc_macro2::TokenTree) -> proc_macro::TokenTree {proc_macro2::imp::into_compiler_token}>"* %_3 to i8*, !dbg !1667
  %2 = bitcast %"core::iter::adapters::map::Map<core::iter::adapters::map::Map<proc_macro2::token_stream::IntoIter, [closure@/home/calvin/.cargo/registry/src/github.com-1ecc6299db9ec823/quote-1.0.40/src/runtime.rs:285:22: 285:29]>, fn(proc_macro2::TokenTree) -> proc_macro::TokenTree {proc_macro2::imp::into_compiler_token}>"* %trees to i8*, !dbg !1667
  call void @llvm.memcpy.p0i8.p0i8.i64(i8* align 8 %1, i8* align 8 %2, i64 48, i1 false), !dbg !1667
; call <I as core::iter::traits::collect::IntoIterator>::into_iter
  call void @"_ZN63_$LT$I$u20$as$u20$core..iter..traits..collect..IntoIterator$GT$9into_iter17hc6084988a3dabfc7E"(%"core::iter::adapters::map::Map<core::iter::adapters::map::Map<proc_macro2::token_stream::IntoIter, [closure@/home/calvin/.cargo/registry/src/github.com-1ecc6299db9ec823/quote-1.0.40/src/runtime.rs:285:22: 285:29]>, fn(proc_macro2::TokenTree) -> proc_macro::TokenTree {proc_macro2::imp::into_compiler_token}>"* sret(%"core::iter::adapters::map::Map<core::iter::adapters::map::Map<proc_macro2::token_stream::IntoIter, [closure@/home/calvin/.cargo/registry/src/github.com-1ecc6299db9ec823/quote-1.0.40/src/runtime.rs:285:22: 285:29]>, fn(proc_macro2::TokenTree) -> proc_macro::TokenTree {proc_macro2::imp::into_compiler_token}>") %iter, %"core::iter::adapters::map::Map<core::iter::adapters::map::Map<proc_macro2::token_stream::IntoIter, [closure@/home/calvin/.cargo/registry/src/github.com-1ecc6299db9ec823/quote-1.0.40/src/runtime.rs:285:22: 285:29]>, fn(proc_macro2::TokenTree) -> proc_macro::TokenTree {proc_macro2::imp::into_compiler_token}>"* %_3), !dbg !1667
  br label %bb1, !dbg !1667

bb1:                                              ; preds = %start
  store i8 1, i8* %_14, align 1, !dbg !1668
; invoke <core::iter::adapters::map::Map<I,F> as core::iter::traits::iterator::Iterator>::size_hint
  invoke void @"_ZN102_$LT$core..iter..adapters..map..Map$LT$I$C$F$GT$$u20$as$u20$core..iter..traits..iterator..Iterator$GT$9size_hint17h9254481e083b649bE"({ i64, { i64, i64 } }* sret({ i64, { i64, i64 } }) %_6, %"core::iter::adapters::map::Map<core::iter::adapters::map::Map<proc_macro2::token_stream::IntoIter, [closure@/home/calvin/.cargo/registry/src/github.com-1ecc6299db9ec823/quote-1.0.40/src/runtime.rs:285:22: 285:29]>, fn(proc_macro2::TokenTree) -> proc_macro::TokenTree {proc_macro2::imp::into_compiler_token}>"* align 8 %iter)
          to label %bb2 unwind label %cleanup, !dbg !1669

bb10:                                             ; preds = %bb7, %bb8, %cleanup
  %3 = load i8, i8* %_14, align 1, !dbg !1670, !range !810, !noundef !27
  %4 = trunc i8 %3 to i1, !dbg !1670
  br i1 %4, label %bb9, label %bb6, !dbg !1670

cleanup:                                          ; preds = %bb2, %bb1
  %5 = landingpad { i8*, i32 }
          cleanup
  %6 = extractvalue { i8*, i32 } %5, 0
  %7 = extractvalue { i8*, i32 } %5, 1
  %8 = getelementptr inbounds { i8*, i32 }, { i8*, i32 }* %0, i32 0, i32 0
  store i8* %6, i8** %8, align 8
  %9 = getelementptr inbounds { i8*, i32 }, { i8*, i32 }* %0, i32 0, i32 1
  store i32 %7, i32* %9, align 8
  br label %bb10

bb2:                                              ; preds = %bb1
  %10 = bitcast { i64, { i64, i64 } }* %_6 to i64*, !dbg !1669
  %_5 = load i64, i64* %10, align 8, !dbg !1669
; invoke proc_macro::ConcatTreesHelper::new
  invoke void @_ZN10proc_macro17ConcatTreesHelper3new17h01d16ef15440cd79E(%"proc_macro::ConcatTreesHelper"* sret(%"proc_macro::ConcatTreesHelper") %builder, i64 %_5)
          to label %bb3 unwind label %cleanup, !dbg !1671

bb3:                                              ; preds = %bb2
  store i8 1, i8* %_13, align 1, !dbg !1672
  store i8 0, i8* %_14, align 1, !dbg !1673
  %11 = bitcast %"core::iter::adapters::map::Map<core::iter::adapters::map::Map<proc_macro2::token_stream::IntoIter, [closure@/home/calvin/.cargo/registry/src/github.com-1ecc6299db9ec823/quote-1.0.40/src/runtime.rs:285:22: 285:29]>, fn(proc_macro2::TokenTree) -> proc_macro::TokenTree {proc_macro2::imp::into_compiler_token}>"* %_9 to i8*, !dbg !1673
  %12 = bitcast %"core::iter::adapters::map::Map<core::iter::adapters::map::Map<proc_macro2::token_stream::IntoIter, [closure@/home/calvin/.cargo/registry/src/github.com-1ecc6299db9ec823/quote-1.0.40/src/runtime.rs:285:22: 285:29]>, fn(proc_macro2::TokenTree) -> proc_macro::TokenTree {proc_macro2::imp::into_compiler_token}>"* %iter to i8*, !dbg !1673
  call void @llvm.memcpy.p0i8.p0i8.i64(i8* align 8 %11, i8* align 8 %12, i64 48, i1 false), !dbg !1673
  %13 = bitcast i64** %_10 to %"proc_macro::ConcatTreesHelper"**, !dbg !1674
  store %"proc_macro::ConcatTreesHelper"* %builder, %"proc_macro::ConcatTreesHelper"** %13, align 8, !dbg !1674
  %14 = load i64*, i64** %_10, align 8, !dbg !1673, !nonnull !27, !align !1529, !noundef !27
; invoke core::iter::traits::iterator::Iterator::for_each
  invoke void @_ZN4core4iter6traits8iterator8Iterator8for_each17h3a56a409ca0e4193E(%"core::iter::adapters::map::Map<core::iter::adapters::map::Map<proc_macro2::token_stream::IntoIter, [closure@/home/calvin/.cargo/registry/src/github.com-1ecc6299db9ec823/quote-1.0.40/src/runtime.rs:285:22: 285:29]>, fn(proc_macro2::TokenTree) -> proc_macro::TokenTree {proc_macro2::imp::into_compiler_token}>"* %_9, i64* align 8 %14)
          to label %bb4 unwind label %cleanup1, !dbg !1673

bb8:                                              ; preds = %cleanup1
  %15 = load i8, i8* %_13, align 1, !dbg !1675, !range !810, !noundef !27
  %16 = trunc i8 %15 to i1, !dbg !1675
  br i1 %16, label %bb7, label %bb10, !dbg !1675

cleanup1:                                         ; preds = %bb4, %bb3
  %17 = landingpad { i8*, i32 }
          cleanup
  %18 = extractvalue { i8*, i32 } %17, 0
  %19 = extractvalue { i8*, i32 } %17, 1
  %20 = getelementptr inbounds { i8*, i32 }, { i8*, i32 }* %0, i32 0, i32 0
  store i8* %18, i8** %20, align 8
  %21 = getelementptr inbounds { i8*, i32 }, { i8*, i32 }* %0, i32 0, i32 1
  store i32 %19, i32* %21, align 8
  br label %bb8

bb4:                                              ; preds = %bb3
  store i8 0, i8* %_13, align 1, !dbg !1676
  %22 = bitcast %"proc_macro::ConcatTreesHelper"* %_12 to i8*, !dbg !1676
  %23 = bitcast %"proc_macro::ConcatTreesHelper"* %builder to i8*, !dbg !1676
  call void @llvm.memcpy.p0i8.p0i8.i64(i8* align 8 %22, i8* align 8 %23, i64 24, i1 false), !dbg !1676
; invoke proc_macro::ConcatTreesHelper::build
  %24 = invoke i32 @_ZN10proc_macro17ConcatTreesHelper5build17h7f48d0ba2bcc99eaE(%"proc_macro::ConcatTreesHelper"* %_12)
          to label %bb5 unwind label %cleanup1, !dbg !1676

bb5:                                              ; preds = %bb4
  ret i32 %24, !dbg !1677

bb7:                                              ; preds = %bb8
; invoke core::ptr::drop_in_place<proc_macro::ConcatTreesHelper>
  invoke void @"_ZN4core3ptr50drop_in_place$LT$proc_macro..ConcatTreesHelper$GT$17h16b5ff8156ecda85E"(%"proc_macro::ConcatTreesHelper"* %builder) #13
          to label %bb10 unwind label %abort, !dbg !1675

abort:                                            ; preds = %bb9, %bb7
  %25 = landingpad { i8*, i32 }
          cleanup, !dbg !1678
; call core::panicking::panic_no_unwind
  call void @_ZN4core9panicking15panic_no_unwind17h62f8113f44cbfcbfE() #14, !dbg !1678
  unreachable, !dbg !1678

bb6:                                              ; preds = %bb9, %bb10
  %26 = bitcast { i8*, i32 }* %0 to i8**, !dbg !1678
  %27 = load i8*, i8** %26, align 8, !dbg !1678
  %28 = getelementptr inbounds { i8*, i32 }, { i8*, i32 }* %0, i32 0, i32 1, !dbg !1678
  %29 = load i32, i32* %28, align 8, !dbg !1678
  %30 = insertvalue { i8*, i32 } undef, i8* %27, 0, !dbg !1678
  %31 = insertvalue { i8*, i32 } %30, i32 %29, 1, !dbg !1678
  resume { i8*, i32 } %31, !dbg !1678

bb9:                                              ; preds = %bb10
; invoke core::ptr::drop_in_place<core::iter::adapters::map::Map<core::iter::adapters::map::Map<proc_macro2::token_stream::IntoIter,quote::__private::respan_token_tree::{{closure}}>,proc_macro2::imp::into_compiler_token>>
  invoke void @"_ZN4core3ptr239drop_in_place$LT$core..iter..adapters..map..Map$LT$core..iter..adapters..map..Map$LT$proc_macro2..token_stream..IntoIter$C$quote..__private..respan_token_tree..$u7b$$u7b$closure$u7d$$u7d$$GT$$C$proc_macro2..imp..into_compiler_token$GT$$GT$17h3117c924d9d1a8b8E"(%"core::iter::adapters::map::Map<core::iter::adapters::map::Map<proc_macro2::token_stream::IntoIter, [closure@/home/calvin/.cargo/registry/src/github.com-1ecc6299db9ec823/quote-1.0.40/src/runtime.rs:285:22: 285:29]>, fn(proc_macro2::TokenTree) -> proc_macro::TokenTree {proc_macro2::imp::into_compiler_token}>"* %iter) #13
          to label %bb6 unwind label %abort, !dbg !1670
}

; <proc_macro::TokenStream as core::iter::traits::collect::FromIterator<proc_macro::TokenTree>>::from_iter::{{closure}}
; Function Attrs: inlinehint nonlazybind uwtable
define void @"_ZN114_$LT$proc_macro..TokenStream$u20$as$u20$core..iter..traits..collect..FromIterator$LT$proc_macro..TokenTree$GT$$GT$9from_iter28_$u7b$$u7b$closure$u7d$$u7d$17h9281c2d043a37dcdE"(i64** align 8 %_1, %"proc_macro::TokenTree"* %tree) unnamed_addr #0 !dbg !1679 {
start:
  %_1.dbg.spill = alloca i64**, align 8
  %_4 = alloca %"proc_macro::TokenTree", align 4
  store i64** %_1, i64*** %_1.dbg.spill, align 8
  %0 = load i64**, i64*** %_1.dbg.spill, align 8, !nonnull !27, !align !1529, !noundef !27
  %1 = bitcast i64** %0 to %"proc_macro::ConcatTreesHelper"**
  %2 = load %"proc_macro::ConcatTreesHelper"*, %"proc_macro::ConcatTreesHelper"** %1, align 8, !nonnull !27, !align !1529, !noundef !27
  call void @llvm.dbg.declare(metadata i64*** %_1.dbg.spill, metadata !1685, metadata !DIExpression(DW_OP_deref, DW_OP_deref)), !dbg !1686
  call void @llvm.dbg.declare(metadata %"proc_macro::TokenTree"* %tree, metadata !1684, metadata !DIExpression()), !dbg !1687
  %3 = bitcast i64** %_1 to %"proc_macro::ConcatTreesHelper"**, !dbg !1688
  %_5 = load %"proc_macro::ConcatTreesHelper"*, %"proc_macro::ConcatTreesHelper"** %3, align 8, !dbg !1688, !nonnull !27, !align !1529, !noundef !27
  %4 = bitcast %"proc_macro::TokenTree"* %_4 to i8*, !dbg !1689
  %5 = bitcast %"proc_macro::TokenTree"* %tree to i8*, !dbg !1689
  call void @llvm.memcpy.p0i8.p0i8.i64(i8* align 4 %4, i8* align 4 %5, i64 24, i1 false), !dbg !1689
; call proc_macro::ConcatTreesHelper::push
  call void @_ZN10proc_macro17ConcatTreesHelper4push17h01d5117014e83840E(%"proc_macro::ConcatTreesHelper"* align 8 %_5, %"proc_macro::TokenTree"* %_4), !dbg !1688
  br label %bb1, !dbg !1688

bb1:                                              ; preds = %start
  ret void, !dbg !1690
}

; <proc_macro2::imp::TokenStream as core::iter::traits::collect::Extend<proc_macro2::TokenTree>>::extend
; Function Attrs: nonlazybind uwtable
define void @"_ZN115_$LT$proc_macro2..imp..TokenStream$u20$as$u20$core..iter..traits..collect..Extend$LT$proc_macro2..TokenTree$GT$$GT$6extend17h2370ec95d0e1ac2fE"(%"proc_macro2::imp::TokenStream"* align 8 %self, %"core::iter::adapters::map::Map<proc_macro2::token_stream::IntoIter, [closure@/home/calvin/.cargo/registry/src/github.com-1ecc6299db9ec823/quote-1.0.40/src/runtime.rs:275:37: 275:40]>"* %stream) unnamed_addr #1 personality i32 (i32, i32, i64, %"unwind::libunwind::_Unwind_Exception"*, %"unwind::libunwind::_Unwind_Context"*)* @rust_eh_personality !dbg !1691 {
start:
  %0 = alloca { i8*, i32 }, align 8
  %tts.dbg.spill2 = alloca %"proc_macro2::imp::DeferredTokenStream"*, align 8
  %tts.dbg.spill = alloca i64**, align 8
  %self.dbg.spill = alloca %"proc_macro2::imp::TokenStream"*, align 8
  %_19 = alloca %"core::iter::adapters::map::Map<proc_macro2::token_stream::IntoIter, [closure@/home/calvin/.cargo/registry/src/github.com-1ecc6299db9ec823/quote-1.0.40/src/runtime.rs:275:37: 275:40]>", align 8
  %_16 = alloca %"proc_macro2::TokenTree", align 8
  %_15 = alloca %"proc_macro::TokenTree", align 4
  %token = alloca %"proc_macro2::TokenTree", align 8
  %_8 = alloca %"core::option::Option<proc_macro2::TokenTree>", align 8
  %iter = alloca %"core::iter::adapters::map::Map<proc_macro2::token_stream::IntoIter, [closure@/home/calvin/.cargo/registry/src/github.com-1ecc6299db9ec823/quote-1.0.40/src/runtime.rs:275:37: 275:40]>", align 8
  %_6 = alloca %"core::iter::adapters::map::Map<proc_macro2::token_stream::IntoIter, [closure@/home/calvin/.cargo/registry/src/github.com-1ecc6299db9ec823/quote-1.0.40/src/runtime.rs:275:37: 275:40]>", align 8
  %_5 = alloca %"core::iter::adapters::map::Map<proc_macro2::token_stream::IntoIter, [closure@/home/calvin/.cargo/registry/src/github.com-1ecc6299db9ec823/quote-1.0.40/src/runtime.rs:275:37: 275:40]>", align 8
  store %"proc_macro2::imp::TokenStream"* %self, %"proc_macro2::imp::TokenStream"** %self.dbg.spill, align 8
  call void @llvm.dbg.declare(metadata %"proc_macro2::imp::TokenStream"** %self.dbg.spill, metadata !1698, metadata !DIExpression()), !dbg !1710
  call void @llvm.dbg.declare(metadata %"core::iter::adapters::map::Map<proc_macro2::token_stream::IntoIter, [closure@/home/calvin/.cargo/registry/src/github.com-1ecc6299db9ec823/quote-1.0.40/src/runtime.rs:275:37: 275:40]>"* %stream, metadata !1699, metadata !DIExpression()), !dbg !1711
  call void @llvm.dbg.declare(metadata %"core::iter::adapters::map::Map<proc_macro2::token_stream::IntoIter, [closure@/home/calvin/.cargo/registry/src/github.com-1ecc6299db9ec823/quote-1.0.40/src/runtime.rs:275:37: 275:40]>"* %iter, metadata !1703, metadata !DIExpression()), !dbg !1712
  call void @llvm.dbg.declare(metadata %"proc_macro2::TokenTree"* %token, metadata !1705, metadata !DIExpression()), !dbg !1713
  %1 = bitcast %"proc_macro2::imp::TokenStream"* %self to i64*, !dbg !1714
  %_3 = load i64, i64* %1, align 8, !dbg !1714, !range !1715, !noundef !27
  switch i64 %_3, label %bb2 [
    i64 0, label %bb3
    i64 1, label %bb1
  ], !dbg !1716

bb2:                                              ; preds = %start
  unreachable, !dbg !1714

bb3:                                              ; preds = %start
  %2 = bitcast %"proc_macro2::imp::TokenStream"* %self to %"proc_macro2::imp::TokenStream::Compiler"*, !dbg !1717
  %tts1 = getelementptr inbounds %"proc_macro2::imp::TokenStream::Compiler", %"proc_macro2::imp::TokenStream::Compiler"* %2, i32 0, i32 1, !dbg !1717
  store %"proc_macro2::imp::DeferredTokenStream"* %tts1, %"proc_macro2::imp::DeferredTokenStream"** %tts.dbg.spill2, align 8, !dbg !1717
  call void @llvm.dbg.declare(metadata %"proc_macro2::imp::DeferredTokenStream"** %tts.dbg.spill2, metadata !1700, metadata !DIExpression()), !dbg !1718
  %3 = bitcast %"core::iter::adapters::map::Map<proc_macro2::token_stream::IntoIter, [closure@/home/calvin/.cargo/registry/src/github.com-1ecc6299db9ec823/quote-1.0.40/src/runtime.rs:275:37: 275:40]>"* %_6 to i8*, !dbg !1719
  %4 = bitcast %"core::iter::adapters::map::Map<proc_macro2::token_stream::IntoIter, [closure@/home/calvin/.cargo/registry/src/github.com-1ecc6299db9ec823/quote-1.0.40/src/runtime.rs:275:37: 275:40]>"* %stream to i8*, !dbg !1719
  call void @llvm.memcpy.p0i8.p0i8.i64(i8* align 8 %3, i8* align 8 %4, i64 48, i1 false), !dbg !1719
; call <I as core::iter::traits::collect::IntoIterator>::into_iter
  call void @"_ZN63_$LT$I$u20$as$u20$core..iter..traits..collect..IntoIterator$GT$9into_iter17h09bfaa65ea7365e9E"(%"core::iter::adapters::map::Map<proc_macro2::token_stream::IntoIter, [closure@/home/calvin/.cargo/registry/src/github.com-1ecc6299db9ec823/quote-1.0.40/src/runtime.rs:275:37: 275:40]>"* sret(%"core::iter::adapters::map::Map<proc_macro2::token_stream::IntoIter, [closure@/home/calvin/.cargo/registry/src/github.com-1ecc6299db9ec823/quote-1.0.40/src/runtime.rs:275:37: 275:40]>") %_5, %"core::iter::adapters::map::Map<proc_macro2::token_stream::IntoIter, [closure@/home/calvin/.cargo/registry/src/github.com-1ecc6299db9ec823/quote-1.0.40/src/runtime.rs:275:37: 275:40]>"* %_6), !dbg !1719
  br label %bb4, !dbg !1719

bb1:                                              ; preds = %start
  %5 = bitcast %"proc_macro2::imp::TokenStream"* %self to %"proc_macro2::imp::TokenStream::Fallback"*, !dbg !1720
  %tts = getelementptr inbounds %"proc_macro2::imp::TokenStream::Fallback", %"proc_macro2::imp::TokenStream::Fallback"* %5, i32 0, i32 1, !dbg !1720
  store i64** %tts, i64*** %tts.dbg.spill, align 8, !dbg !1720
  call void @llvm.dbg.declare(metadata i64*** %tts.dbg.spill, metadata !1707, metadata !DIExpression()), !dbg !1721
  %6 = bitcast %"core::iter::adapters::map::Map<proc_macro2::token_stream::IntoIter, [closure@/home/calvin/.cargo/registry/src/github.com-1ecc6299db9ec823/quote-1.0.40/src/runtime.rs:275:37: 275:40]>"* %_19 to i8*, !dbg !1722
  %7 = bitcast %"core::iter::adapters::map::Map<proc_macro2::token_stream::IntoIter, [closure@/home/calvin/.cargo/registry/src/github.com-1ecc6299db9ec823/quote-1.0.40/src/runtime.rs:275:37: 275:40]>"* %stream to i8*, !dbg !1722
  call void @llvm.memcpy.p0i8.p0i8.i64(i8* align 8 %6, i8* align 8 %7, i64 48, i1 false), !dbg !1722
; call <proc_macro2::fallback::TokenStream as core::iter::traits::collect::Extend<proc_macro2::TokenTree>>::extend
  call void @"_ZN120_$LT$proc_macro2..fallback..TokenStream$u20$as$u20$core..iter..traits..collect..Extend$LT$proc_macro2..TokenTree$GT$$GT$6extend17h1f522e3214452693E"(i64** align 8 %tts, %"core::iter::adapters::map::Map<proc_macro2::token_stream::IntoIter, [closure@/home/calvin/.cargo/registry/src/github.com-1ecc6299db9ec823/quote-1.0.40/src/runtime.rs:275:37: 275:40]>"* %_19), !dbg !1723
  br label %bb12, !dbg !1723

bb12:                                             ; preds = %bb9, %bb1
  ret void, !dbg !1724

bb4:                                              ; preds = %bb3
  %8 = bitcast %"core::iter::adapters::map::Map<proc_macro2::token_stream::IntoIter, [closure@/home/calvin/.cargo/registry/src/github.com-1ecc6299db9ec823/quote-1.0.40/src/runtime.rs:275:37: 275:40]>"* %iter to i8*, !dbg !1719
  %9 = bitcast %"core::iter::adapters::map::Map<proc_macro2::token_stream::IntoIter, [closure@/home/calvin/.cargo/registry/src/github.com-1ecc6299db9ec823/quote-1.0.40/src/runtime.rs:275:37: 275:40]>"* %_5 to i8*, !dbg !1719
  call void @llvm.memcpy.p0i8.p0i8.i64(i8* align 8 %8, i8* align 8 %9, i64 48, i1 false), !dbg !1719
  br label %bb5, !dbg !1725

bb5:                                              ; preds = %bb11, %bb4
; invoke <core::iter::adapters::map::Map<I,F> as core::iter::traits::iterator::Iterator>::next
  invoke void @"_ZN102_$LT$core..iter..adapters..map..Map$LT$I$C$F$GT$$u20$as$u20$core..iter..traits..iterator..Iterator$GT$4next17h762197a68545891aE"(%"core::option::Option<proc_macro2::TokenTree>"* sret(%"core::option::Option<proc_macro2::TokenTree>") %_8, %"core::iter::adapters::map::Map<proc_macro2::token_stream::IntoIter, [closure@/home/calvin/.cargo/registry/src/github.com-1ecc6299db9ec823/quote-1.0.40/src/runtime.rs:275:37: 275:40]>"* align 8 %iter)
          to label %bb6 unwind label %cleanup, !dbg !1712

bb13:                                             ; preds = %bb15, %cleanup
; invoke core::ptr::drop_in_place<core::iter::adapters::map::Map<proc_macro2::token_stream::IntoIter,quote::__private::parse_spanned::{{closure}}>>
  invoke void @"_ZN4core3ptr157drop_in_place$LT$core..iter..adapters..map..Map$LT$proc_macro2..token_stream..IntoIter$C$quote..__private..parse_spanned..$u7b$$u7b$closure$u7d$$u7d$$GT$$GT$17hf2451c33cdf7a34aE"(%"core::iter::adapters::map::Map<proc_macro2::token_stream::IntoIter, [closure@/home/calvin/.cargo/registry/src/github.com-1ecc6299db9ec823/quote-1.0.40/src/runtime.rs:275:37: 275:40]>"* %iter) #13
          to label %bb14 unwind label %abort, !dbg !1726

cleanup:                                          ; preds = %bb5
  %10 = landingpad { i8*, i32 }
          cleanup
  %11 = extractvalue { i8*, i32 } %10, 0
  %12 = extractvalue { i8*, i32 } %10, 1
  %13 = getelementptr inbounds { i8*, i32 }, { i8*, i32 }* %0, i32 0, i32 0
  store i8* %11, i8** %13, align 8
  %14 = getelementptr inbounds { i8*, i32 }, { i8*, i32 }* %0, i32 0, i32 1
  store i32 %12, i32* %14, align 8
  br label %bb13

bb6:                                              ; preds = %bb5
  %15 = bitcast %"core::option::Option<proc_macro2::TokenTree>"* %_8 to i32*, !dbg !1712
  %16 = load i32, i32* %15, align 8, !dbg !1712, !range !1727, !noundef !27
  %17 = sub i32 %16, 4, !dbg !1712
  %18 = icmp eq i32 %17, 0, !dbg !1712
  %_11 = select i1 %18, i64 0, i64 1, !dbg !1712
  switch i64 %_11, label %bb8 [
    i64 0, label %bb9
    i64 1, label %bb7
  ], !dbg !1712

bb8:                                              ; preds = %bb6
  unreachable, !dbg !1712

bb9:                                              ; preds = %bb6
; call core::ptr::drop_in_place<core::iter::adapters::map::Map<proc_macro2::token_stream::IntoIter,quote::__private::parse_spanned::{{closure}}>>
  call void @"_ZN4core3ptr157drop_in_place$LT$core..iter..adapters..map..Map$LT$proc_macro2..token_stream..IntoIter$C$quote..__private..parse_spanned..$u7b$$u7b$closure$u7d$$u7d$$GT$$GT$17hf2451c33cdf7a34aE"(%"core::iter::adapters::map::Map<proc_macro2::token_stream::IntoIter, [closure@/home/calvin/.cargo/registry/src/github.com-1ecc6299db9ec823/quote-1.0.40/src/runtime.rs:275:37: 275:40]>"* %iter), !dbg !1726
  br label %bb12, !dbg !1726

bb7:                                              ; preds = %bb6
  %19 = bitcast %"core::option::Option<proc_macro2::TokenTree>"* %_8 to %"core::option::Option<proc_macro2::TokenTree>::Some"*, !dbg !1728
  %20 = bitcast %"core::option::Option<proc_macro2::TokenTree>::Some"* %19 to %"proc_macro2::TokenTree"*, !dbg !1728
  %21 = bitcast %"proc_macro2::TokenTree"* %token to i8*, !dbg !1728
  %22 = bitcast %"proc_macro2::TokenTree"* %20 to i8*, !dbg !1728
  call void @llvm.memcpy.p0i8.p0i8.i64(i8* align 8 %21, i8* align 8 %22, i64 40, i1 false), !dbg !1728
  %_14 = bitcast %"proc_macro2::imp::DeferredTokenStream"* %tts1 to %"alloc::vec::Vec<proc_macro::TokenTree>"*, !dbg !1729
  %23 = bitcast %"proc_macro2::TokenTree"* %_16 to i8*, !dbg !1730
  %24 = bitcast %"proc_macro2::TokenTree"* %token to i8*, !dbg !1730
  call void @llvm.memcpy.p0i8.p0i8.i64(i8* align 8 %23, i8* align 8 %24, i64 40, i1 false), !dbg !1730
; invoke proc_macro2::imp::into_compiler_token
  invoke void @_ZN11proc_macro23imp19into_compiler_token17h4c3496a740abfe43E(%"proc_macro::TokenTree"* sret(%"proc_macro::TokenTree") %_15, %"proc_macro2::TokenTree"* %_16)
          to label %bb10 unwind label %cleanup3, !dbg !1731

bb15:                                             ; preds = %cleanup3
  br label %bb13, !dbg !1725

cleanup3:                                         ; preds = %bb10, %bb7
  %25 = landingpad { i8*, i32 }
          cleanup
  %26 = extractvalue { i8*, i32 } %25, 0
  %27 = extractvalue { i8*, i32 } %25, 1
  %28 = getelementptr inbounds { i8*, i32 }, { i8*, i32 }* %0, i32 0, i32 0
  store i8* %26, i8** %28, align 8
  %29 = getelementptr inbounds { i8*, i32 }, { i8*, i32 }* %0, i32 0, i32 1
  store i32 %27, i32* %29, align 8
  br label %bb15

bb10:                                             ; preds = %bb7
; invoke alloc::vec::Vec<T,A>::push
  invoke void @"_ZN5alloc3vec16Vec$LT$T$C$A$GT$4push17hb8924c14471e1312E"(%"alloc::vec::Vec<proc_macro::TokenTree>"* align 8 %_14, %"proc_macro::TokenTree"* %_15)
          to label %bb11 unwind label %cleanup3, !dbg !1729

bb11:                                             ; preds = %bb10
  br label %bb5, !dbg !1725

abort:                                            ; preds = %bb13
  %30 = landingpad { i8*, i32 }
          cleanup, !dbg !1732
; call core::panicking::panic_no_unwind
  call void @_ZN4core9panicking15panic_no_unwind17h62f8113f44cbfcbfE() #14, !dbg !1732
  unreachable, !dbg !1732

bb14:                                             ; preds = %bb13
  %31 = bitcast { i8*, i32 }* %0 to i8**, !dbg !1732
  %32 = load i8*, i8** %31, align 8, !dbg !1732
  %33 = getelementptr inbounds { i8*, i32 }, { i8*, i32 }* %0, i32 0, i32 1, !dbg !1732
  %34 = load i32, i32* %33, align 8, !dbg !1732
  %35 = insertvalue { i8*, i32 } undef, i8* %32, 0, !dbg !1732
  %36 = insertvalue { i8*, i32 } %35, i32 %34, 1, !dbg !1732
  resume { i8*, i32 } %36, !dbg !1732
}

; <proc_macro2::imp::TokenStream as core::iter::traits::collect::Extend<proc_macro2::TokenTree>>::extend
; Function Attrs: nonlazybind uwtable
define void @"_ZN115_$LT$proc_macro2..imp..TokenStream$u20$as$u20$core..iter..traits..collect..Extend$LT$proc_macro2..TokenTree$GT$$GT$6extend17h4f0359de188c85b9E"(%"proc_macro2::imp::TokenStream"* align 8 %self, %"core::iter::sources::once::Once<proc_macro2::TokenTree>"* %stream) unnamed_addr #1 personality i32 (i32, i32, i64, %"unwind::libunwind::_Unwind_Exception"*, %"unwind::libunwind::_Unwind_Context"*)* @rust_eh_personality !dbg !1733 {
start:
  %0 = alloca { i8*, i32 }, align 8
  %tts.dbg.spill2 = alloca %"proc_macro2::imp::DeferredTokenStream"*, align 8
  %tts.dbg.spill = alloca i64**, align 8
  %self.dbg.spill = alloca %"proc_macro2::imp::TokenStream"*, align 8
  %_19 = alloca %"core::iter::sources::once::Once<proc_macro2::TokenTree>", align 8
  %_16 = alloca %"proc_macro2::TokenTree", align 8
  %_15 = alloca %"proc_macro::TokenTree", align 4
  %token = alloca %"proc_macro2::TokenTree", align 8
  %_8 = alloca %"core::option::Option<proc_macro2::TokenTree>", align 8
  %iter = alloca %"core::iter::sources::once::Once<proc_macro2::TokenTree>", align 8
  %_6 = alloca %"core::iter::sources::once::Once<proc_macro2::TokenTree>", align 8
  %_5 = alloca %"core::iter::sources::once::Once<proc_macro2::TokenTree>", align 8
  store %"proc_macro2::imp::TokenStream"* %self, %"proc_macro2::imp::TokenStream"** %self.dbg.spill, align 8
  call void @llvm.dbg.declare(metadata %"proc_macro2::imp::TokenStream"** %self.dbg.spill, metadata !1737, metadata !DIExpression()), !dbg !1747
  call void @llvm.dbg.declare(metadata %"core::iter::sources::once::Once<proc_macro2::TokenTree>"* %stream, metadata !1738, metadata !DIExpression()), !dbg !1748
  call void @llvm.dbg.declare(metadata %"core::iter::sources::once::Once<proc_macro2::TokenTree>"* %iter, metadata !1741, metadata !DIExpression()), !dbg !1749
  call void @llvm.dbg.declare(metadata %"proc_macro2::TokenTree"* %token, metadata !1743, metadata !DIExpression()), !dbg !1750
  %1 = bitcast %"proc_macro2::imp::TokenStream"* %self to i64*, !dbg !1751
  %_3 = load i64, i64* %1, align 8, !dbg !1751, !range !1715, !noundef !27
  switch i64 %_3, label %bb2 [
    i64 0, label %bb3
    i64 1, label %bb1
  ], !dbg !1752

bb2:                                              ; preds = %start
  unreachable, !dbg !1751

bb3:                                              ; preds = %start
  %2 = bitcast %"proc_macro2::imp::TokenStream"* %self to %"proc_macro2::imp::TokenStream::Compiler"*, !dbg !1753
  %tts1 = getelementptr inbounds %"proc_macro2::imp::TokenStream::Compiler", %"proc_macro2::imp::TokenStream::Compiler"* %2, i32 0, i32 1, !dbg !1753
  store %"proc_macro2::imp::DeferredTokenStream"* %tts1, %"proc_macro2::imp::DeferredTokenStream"** %tts.dbg.spill2, align 8, !dbg !1753
  call void @llvm.dbg.declare(metadata %"proc_macro2::imp::DeferredTokenStream"** %tts.dbg.spill2, metadata !1739, metadata !DIExpression()), !dbg !1754
  %3 = bitcast %"core::iter::sources::once::Once<proc_macro2::TokenTree>"* %_6 to i8*, !dbg !1755
  %4 = bitcast %"core::iter::sources::once::Once<proc_macro2::TokenTree>"* %stream to i8*, !dbg !1755
  call void @llvm.memcpy.p0i8.p0i8.i64(i8* align 8 %3, i8* align 8 %4, i64 40, i1 false), !dbg !1755
; call <I as core::iter::traits::collect::IntoIterator>::into_iter
  call void @"_ZN63_$LT$I$u20$as$u20$core..iter..traits..collect..IntoIterator$GT$9into_iter17h481566aaf7b686cdE"(%"core::iter::sources::once::Once<proc_macro2::TokenTree>"* sret(%"core::iter::sources::once::Once<proc_macro2::TokenTree>") %_5, %"core::iter::sources::once::Once<proc_macro2::TokenTree>"* %_6), !dbg !1755
  br label %bb4, !dbg !1755

bb1:                                              ; preds = %start
  %5 = bitcast %"proc_macro2::imp::TokenStream"* %self to %"proc_macro2::imp::TokenStream::Fallback"*, !dbg !1756
  %tts = getelementptr inbounds %"proc_macro2::imp::TokenStream::Fallback", %"proc_macro2::imp::TokenStream::Fallback"* %5, i32 0, i32 1, !dbg !1756
  store i64** %tts, i64*** %tts.dbg.spill, align 8, !dbg !1756
  call void @llvm.dbg.declare(metadata i64*** %tts.dbg.spill, metadata !1745, metadata !DIExpression()), !dbg !1757
  %6 = bitcast %"core::iter::sources::once::Once<proc_macro2::TokenTree>"* %_19 to i8*, !dbg !1758
  %7 = bitcast %"core::iter::sources::once::Once<proc_macro2::TokenTree>"* %stream to i8*, !dbg !1758
  call void @llvm.memcpy.p0i8.p0i8.i64(i8* align 8 %6, i8* align 8 %7, i64 40, i1 false), !dbg !1758
; call <proc_macro2::fallback::TokenStream as core::iter::traits::collect::Extend<proc_macro2::TokenTree>>::extend
  call void @"_ZN120_$LT$proc_macro2..fallback..TokenStream$u20$as$u20$core..iter..traits..collect..Extend$LT$proc_macro2..TokenTree$GT$$GT$6extend17h9362307c9abe44bcE"(i64** align 8 %tts, %"core::iter::sources::once::Once<proc_macro2::TokenTree>"* %_19), !dbg !1759
  br label %bb12, !dbg !1759

bb12:                                             ; preds = %bb9, %bb1
  ret void, !dbg !1760

bb4:                                              ; preds = %bb3
  %8 = bitcast %"core::iter::sources::once::Once<proc_macro2::TokenTree>"* %iter to i8*, !dbg !1755
  %9 = bitcast %"core::iter::sources::once::Once<proc_macro2::TokenTree>"* %_5 to i8*, !dbg !1755
  call void @llvm.memcpy.p0i8.p0i8.i64(i8* align 8 %8, i8* align 8 %9, i64 40, i1 false), !dbg !1755
  br label %bb5, !dbg !1761

bb5:                                              ; preds = %bb11, %bb4
; invoke <core::iter::sources::once::Once<T> as core::iter::traits::iterator::Iterator>::next
  invoke void @"_ZN99_$LT$core..iter..sources..once..Once$LT$T$GT$$u20$as$u20$core..iter..traits..iterator..Iterator$GT$4next17hb3995fe46cff91e4E"(%"core::option::Option<proc_macro2::TokenTree>"* sret(%"core::option::Option<proc_macro2::TokenTree>") %_8, %"core::iter::sources::once::Once<proc_macro2::TokenTree>"* align 8 %iter)
          to label %bb6 unwind label %cleanup, !dbg !1749

bb13:                                             ; preds = %bb15, %cleanup
; invoke core::ptr::drop_in_place<core::iter::sources::once::Once<proc_macro2::TokenTree>>
  invoke void @"_ZN4core3ptr82drop_in_place$LT$core..iter..sources..once..Once$LT$proc_macro2..TokenTree$GT$$GT$17h5ae763007e9c4cebE"(%"core::iter::sources::once::Once<proc_macro2::TokenTree>"* %iter) #13
          to label %bb14 unwind label %abort, !dbg !1762

cleanup:                                          ; preds = %bb5
  %10 = landingpad { i8*, i32 }
          cleanup
  %11 = extractvalue { i8*, i32 } %10, 0
  %12 = extractvalue { i8*, i32 } %10, 1
  %13 = getelementptr inbounds { i8*, i32 }, { i8*, i32 }* %0, i32 0, i32 0
  store i8* %11, i8** %13, align 8
  %14 = getelementptr inbounds { i8*, i32 }, { i8*, i32 }* %0, i32 0, i32 1
  store i32 %12, i32* %14, align 8
  br label %bb13

bb6:                                              ; preds = %bb5
  %15 = bitcast %"core::option::Option<proc_macro2::TokenTree>"* %_8 to i32*, !dbg !1749
  %16 = load i32, i32* %15, align 8, !dbg !1749, !range !1727, !noundef !27
  %17 = sub i32 %16, 4, !dbg !1749
  %18 = icmp eq i32 %17, 0, !dbg !1749
  %_11 = select i1 %18, i64 0, i64 1, !dbg !1749
  switch i64 %_11, label %bb8 [
    i64 0, label %bb9
    i64 1, label %bb7
  ], !dbg !1749

bb8:                                              ; preds = %bb6
  unreachable, !dbg !1749

bb9:                                              ; preds = %bb6
; call core::ptr::drop_in_place<core::iter::sources::once::Once<proc_macro2::TokenTree>>
  call void @"_ZN4core3ptr82drop_in_place$LT$core..iter..sources..once..Once$LT$proc_macro2..TokenTree$GT$$GT$17h5ae763007e9c4cebE"(%"core::iter::sources::once::Once<proc_macro2::TokenTree>"* %iter), !dbg !1762
  br label %bb12, !dbg !1762

bb7:                                              ; preds = %bb6
  %19 = bitcast %"core::option::Option<proc_macro2::TokenTree>"* %_8 to %"core::option::Option<proc_macro2::TokenTree>::Some"*, !dbg !1763
  %20 = bitcast %"core::option::Option<proc_macro2::TokenTree>::Some"* %19 to %"proc_macro2::TokenTree"*, !dbg !1763
  %21 = bitcast %"proc_macro2::TokenTree"* %token to i8*, !dbg !1763
  %22 = bitcast %"proc_macro2::TokenTree"* %20 to i8*, !dbg !1763
  call void @llvm.memcpy.p0i8.p0i8.i64(i8* align 8 %21, i8* align 8 %22, i64 40, i1 false), !dbg !1763
  %_14 = bitcast %"proc_macro2::imp::DeferredTokenStream"* %tts1 to %"alloc::vec::Vec<proc_macro::TokenTree>"*, !dbg !1764
  %23 = bitcast %"proc_macro2::TokenTree"* %_16 to i8*, !dbg !1765
  %24 = bitcast %"proc_macro2::TokenTree"* %token to i8*, !dbg !1765
  call void @llvm.memcpy.p0i8.p0i8.i64(i8* align 8 %23, i8* align 8 %24, i64 40, i1 false), !dbg !1765
; invoke proc_macro2::imp::into_compiler_token
  invoke void @_ZN11proc_macro23imp19into_compiler_token17h4c3496a740abfe43E(%"proc_macro::TokenTree"* sret(%"proc_macro::TokenTree") %_15, %"proc_macro2::TokenTree"* %_16)
          to label %bb10 unwind label %cleanup3, !dbg !1766

bb15:                                             ; preds = %cleanup3
  br label %bb13, !dbg !1761

cleanup3:                                         ; preds = %bb10, %bb7
  %25 = landingpad { i8*, i32 }
          cleanup
  %26 = extractvalue { i8*, i32 } %25, 0
  %27 = extractvalue { i8*, i32 } %25, 1
  %28 = getelementptr inbounds { i8*, i32 }, { i8*, i32 }* %0, i32 0, i32 0
  store i8* %26, i8** %28, align 8
  %29 = getelementptr inbounds { i8*, i32 }, { i8*, i32 }* %0, i32 0, i32 1
  store i32 %27, i32* %29, align 8
  br label %bb15

bb10:                                             ; preds = %bb7
; invoke alloc::vec::Vec<T,A>::push
  invoke void @"_ZN5alloc3vec16Vec$LT$T$C$A$GT$4push17hb8924c14471e1312E"(%"alloc::vec::Vec<proc_macro::TokenTree>"* align 8 %_14, %"proc_macro::TokenTree"* %_15)
          to label %bb11 unwind label %cleanup3, !dbg !1764

bb11:                                             ; preds = %bb10
  br label %bb5, !dbg !1761

abort:                                            ; preds = %bb13
  %30 = landingpad { i8*, i32 }
          cleanup, !dbg !1767
; call core::panicking::panic_no_unwind
  call void @_ZN4core9panicking15panic_no_unwind17h62f8113f44cbfcbfE() #14, !dbg !1767
  unreachable, !dbg !1767

bb14:                                             ; preds = %bb13
  %31 = bitcast { i8*, i32 }* %0 to i8**, !dbg !1767
  %32 = load i8*, i8** %31, align 8, !dbg !1767
  %33 = getelementptr inbounds { i8*, i32 }, { i8*, i32 }* %0, i32 0, i32 1, !dbg !1767
  %34 = load i32, i32* %33, align 8, !dbg !1767
  %35 = insertvalue { i8*, i32 } undef, i8* %32, 0, !dbg !1767
  %36 = insertvalue { i8*, i32 } %35, i32 %34, 1, !dbg !1767
  resume { i8*, i32 } %36, !dbg !1767
}

; <proc_macro2::imp::TokenStream as core::iter::traits::collect::Extend<proc_macro2::TokenTree>>::extend
; Function Attrs: nonlazybind uwtable
define void @"_ZN115_$LT$proc_macro2..imp..TokenStream$u20$as$u20$core..iter..traits..collect..Extend$LT$proc_macro2..TokenTree$GT$$GT$6extend17haca64a4f6736dd39E"(%"proc_macro2::imp::TokenStream"* align 8 %self, [2 x %"proc_macro2::TokenTree"]* %stream) unnamed_addr #1 personality i32 (i32, i32, i64, %"unwind::libunwind::_Unwind_Exception"*, %"unwind::libunwind::_Unwind_Context"*)* @rust_eh_personality !dbg !1768 {
start:
  %0 = alloca { i8*, i32 }, align 8
  %tts.dbg.spill2 = alloca %"proc_macro2::imp::DeferredTokenStream"*, align 8
  %tts.dbg.spill = alloca i64**, align 8
  %self.dbg.spill = alloca %"proc_macro2::imp::TokenStream"*, align 8
  %_19 = alloca [2 x %"proc_macro2::TokenTree"], align 8
  %_16 = alloca %"proc_macro2::TokenTree", align 8
  %_15 = alloca %"proc_macro::TokenTree", align 4
  %token = alloca %"proc_macro2::TokenTree", align 8
  %_8 = alloca %"core::option::Option<proc_macro2::TokenTree>", align 8
  %iter = alloca %"core::array::iter::IntoIter<proc_macro2::TokenTree, 2>", align 8
  %_6 = alloca [2 x %"proc_macro2::TokenTree"], align 8
  %_5 = alloca %"core::array::iter::IntoIter<proc_macro2::TokenTree, 2>", align 8
  store %"proc_macro2::imp::TokenStream"* %self, %"proc_macro2::imp::TokenStream"** %self.dbg.spill, align 8
  call void @llvm.dbg.declare(metadata %"proc_macro2::imp::TokenStream"** %self.dbg.spill, metadata !1772, metadata !DIExpression()), !dbg !1789
  call void @llvm.dbg.declare(metadata [2 x %"proc_macro2::TokenTree"]* %stream, metadata !1773, metadata !DIExpression()), !dbg !1790
  call void @llvm.dbg.declare(metadata %"core::array::iter::IntoIter<proc_macro2::TokenTree, 2>"* %iter, metadata !1776, metadata !DIExpression()), !dbg !1791
  call void @llvm.dbg.declare(metadata %"proc_macro2::TokenTree"* %token, metadata !1785, metadata !DIExpression()), !dbg !1792
  %1 = bitcast %"proc_macro2::imp::TokenStream"* %self to i64*, !dbg !1793
  %_3 = load i64, i64* %1, align 8, !dbg !1793, !range !1715, !noundef !27
  switch i64 %_3, label %bb2 [
    i64 0, label %bb3
    i64 1, label %bb1
  ], !dbg !1794

bb2:                                              ; preds = %start
  unreachable, !dbg !1793

bb3:                                              ; preds = %start
  %2 = bitcast %"proc_macro2::imp::TokenStream"* %self to %"proc_macro2::imp::TokenStream::Compiler"*, !dbg !1795
  %tts1 = getelementptr inbounds %"proc_macro2::imp::TokenStream::Compiler", %"proc_macro2::imp::TokenStream::Compiler"* %2, i32 0, i32 1, !dbg !1795
  store %"proc_macro2::imp::DeferredTokenStream"* %tts1, %"proc_macro2::imp::DeferredTokenStream"** %tts.dbg.spill2, align 8, !dbg !1795
  call void @llvm.dbg.declare(metadata %"proc_macro2::imp::DeferredTokenStream"** %tts.dbg.spill2, metadata !1774, metadata !DIExpression()), !dbg !1796
  %3 = bitcast [2 x %"proc_macro2::TokenTree"]* %_6 to i8*, !dbg !1797
  %4 = bitcast [2 x %"proc_macro2::TokenTree"]* %stream to i8*, !dbg !1797
  call void @llvm.memcpy.p0i8.p0i8.i64(i8* align 8 %3, i8* align 8 %4, i64 80, i1 false), !dbg !1797
; call core::array::iter::<impl core::iter::traits::collect::IntoIterator for [T; N]>::into_iter
  call void @"_ZN4core5array4iter94_$LT$impl$u20$core..iter..traits..collect..IntoIterator$u20$for$u20$$u5b$T$u3b$$u20$N$u5d$$GT$9into_iter17h41a8f0b7b17fb4f2E"(%"core::array::iter::IntoIter<proc_macro2::TokenTree, 2>"* sret(%"core::array::iter::IntoIter<proc_macro2::TokenTree, 2>") %_5, [2 x %"proc_macro2::TokenTree"]* %_6), !dbg !1797
  br label %bb4, !dbg !1797

bb1:                                              ; preds = %start
  %5 = bitcast %"proc_macro2::imp::TokenStream"* %self to %"proc_macro2::imp::TokenStream::Fallback"*, !dbg !1798
  %tts = getelementptr inbounds %"proc_macro2::imp::TokenStream::Fallback", %"proc_macro2::imp::TokenStream::Fallback"* %5, i32 0, i32 1, !dbg !1798
  store i64** %tts, i64*** %tts.dbg.spill, align 8, !dbg !1798
  call void @llvm.dbg.declare(metadata i64*** %tts.dbg.spill, metadata !1787, metadata !DIExpression()), !dbg !1799
  %6 = bitcast [2 x %"proc_macro2::TokenTree"]* %_19 to i8*, !dbg !1800
  %7 = bitcast [2 x %"proc_macro2::TokenTree"]* %stream to i8*, !dbg !1800
  call void @llvm.memcpy.p0i8.p0i8.i64(i8* align 8 %6, i8* align 8 %7, i64 80, i1 false), !dbg !1800
; call <proc_macro2::fallback::TokenStream as core::iter::traits::collect::Extend<proc_macro2::TokenTree>>::extend
  call void @"_ZN120_$LT$proc_macro2..fallback..TokenStream$u20$as$u20$core..iter..traits..collect..Extend$LT$proc_macro2..TokenTree$GT$$GT$6extend17h4ec37ada5126f06bE"(i64** align 8 %tts, [2 x %"proc_macro2::TokenTree"]* %_19), !dbg !1801
  br label %bb12, !dbg !1801

bb12:                                             ; preds = %bb9, %bb1
  ret void, !dbg !1802

bb4:                                              ; preds = %bb3
  %8 = bitcast %"core::array::iter::IntoIter<proc_macro2::TokenTree, 2>"* %iter to i8*, !dbg !1797
  %9 = bitcast %"core::array::iter::IntoIter<proc_macro2::TokenTree, 2>"* %_5 to i8*, !dbg !1797
  call void @llvm.memcpy.p0i8.p0i8.i64(i8* align 8 %8, i8* align 8 %9, i64 96, i1 false), !dbg !1797
  br label %bb5, !dbg !1803

bb5:                                              ; preds = %bb11, %bb4
; invoke <core::array::iter::IntoIter<T,_> as core::iter::traits::iterator::Iterator>::next
  invoke void @"_ZN99_$LT$core..array..iter..IntoIter$LT$T$C$_$GT$$u20$as$u20$core..iter..traits..iterator..Iterator$GT$4next17hb3d61175cbb8dd32E"(%"core::option::Option<proc_macro2::TokenTree>"* sret(%"core::option::Option<proc_macro2::TokenTree>") %_8, %"core::array::iter::IntoIter<proc_macro2::TokenTree, 2>"* align 8 %iter)
          to label %bb6 unwind label %cleanup, !dbg !1791

bb13:                                             ; preds = %bb15, %cleanup
; invoke core::ptr::drop_in_place<core::array::iter::IntoIter<proc_macro2::TokenTree,2_usize>>
  invoke void @"_ZN4core3ptr88drop_in_place$LT$core..array..iter..IntoIter$LT$proc_macro2..TokenTree$C$2_usize$GT$$GT$17hf14b5001c26acab6E"(%"core::array::iter::IntoIter<proc_macro2::TokenTree, 2>"* %iter) #13
          to label %bb14 unwind label %abort, !dbg !1804

cleanup:                                          ; preds = %bb5
  %10 = landingpad { i8*, i32 }
          cleanup
  %11 = extractvalue { i8*, i32 } %10, 0
  %12 = extractvalue { i8*, i32 } %10, 1
  %13 = getelementptr inbounds { i8*, i32 }, { i8*, i32 }* %0, i32 0, i32 0
  store i8* %11, i8** %13, align 8
  %14 = getelementptr inbounds { i8*, i32 }, { i8*, i32 }* %0, i32 0, i32 1
  store i32 %12, i32* %14, align 8
  br label %bb13

bb6:                                              ; preds = %bb5
  %15 = bitcast %"core::option::Option<proc_macro2::TokenTree>"* %_8 to i32*, !dbg !1791
  %16 = load i32, i32* %15, align 8, !dbg !1791, !range !1727, !noundef !27
  %17 = sub i32 %16, 4, !dbg !1791
  %18 = icmp eq i32 %17, 0, !dbg !1791
  %_11 = select i1 %18, i64 0, i64 1, !dbg !1791
  switch i64 %_11, label %bb8 [
    i64 0, label %bb9
    i64 1, label %bb7
  ], !dbg !1791

bb8:                                              ; preds = %bb6
  unreachable, !dbg !1791

bb9:                                              ; preds = %bb6
; call core::ptr::drop_in_place<core::array::iter::IntoIter<proc_macro2::TokenTree,2_usize>>
  call void @"_ZN4core3ptr88drop_in_place$LT$core..array..iter..IntoIter$LT$proc_macro2..TokenTree$C$2_usize$GT$$GT$17hf14b5001c26acab6E"(%"core::array::iter::IntoIter<proc_macro2::TokenTree, 2>"* %iter), !dbg !1804
  br label %bb12, !dbg !1804

bb7:                                              ; preds = %bb6
  %19 = bitcast %"core::option::Option<proc_macro2::TokenTree>"* %_8 to %"core::option::Option<proc_macro2::TokenTree>::Some"*, !dbg !1805
  %20 = bitcast %"core::option::Option<proc_macro2::TokenTree>::Some"* %19 to %"proc_macro2::TokenTree"*, !dbg !1805
  %21 = bitcast %"proc_macro2::TokenTree"* %token to i8*, !dbg !1805
  %22 = bitcast %"proc_macro2::TokenTree"* %20 to i8*, !dbg !1805
  call void @llvm.memcpy.p0i8.p0i8.i64(i8* align 8 %21, i8* align 8 %22, i64 40, i1 false), !dbg !1805
  %_14 = bitcast %"proc_macro2::imp::DeferredTokenStream"* %tts1 to %"alloc::vec::Vec<proc_macro::TokenTree>"*, !dbg !1806
  %23 = bitcast %"proc_macro2::TokenTree"* %_16 to i8*, !dbg !1807
  %24 = bitcast %"proc_macro2::TokenTree"* %token to i8*, !dbg !1807
  call void @llvm.memcpy.p0i8.p0i8.i64(i8* align 8 %23, i8* align 8 %24, i64 40, i1 false), !dbg !1807
; invoke proc_macro2::imp::into_compiler_token
  invoke void @_ZN11proc_macro23imp19into_compiler_token17h4c3496a740abfe43E(%"proc_macro::TokenTree"* sret(%"proc_macro::TokenTree") %_15, %"proc_macro2::TokenTree"* %_16)
          to label %bb10 unwind label %cleanup3, !dbg !1808

bb15:                                             ; preds = %cleanup3
  br label %bb13, !dbg !1803

cleanup3:                                         ; preds = %bb10, %bb7
  %25 = landingpad { i8*, i32 }
          cleanup
  %26 = extractvalue { i8*, i32 } %25, 0
  %27 = extractvalue { i8*, i32 } %25, 1
  %28 = getelementptr inbounds { i8*, i32 }, { i8*, i32 }* %0, i32 0, i32 0
  store i8* %26, i8** %28, align 8
  %29 = getelementptr inbounds { i8*, i32 }, { i8*, i32 }* %0, i32 0, i32 1
  store i32 %27, i32* %29, align 8
  br label %bb15

bb10:                                             ; preds = %bb7
; invoke alloc::vec::Vec<T,A>::push
  invoke void @"_ZN5alloc3vec16Vec$LT$T$C$A$GT$4push17hb8924c14471e1312E"(%"alloc::vec::Vec<proc_macro::TokenTree>"* align 8 %_14, %"proc_macro::TokenTree"* %_15)
          to label %bb11 unwind label %cleanup3, !dbg !1806

bb11:                                             ; preds = %bb10
  br label %bb5, !dbg !1803

abort:                                            ; preds = %bb13
  %30 = landingpad { i8*, i32 }
          cleanup, !dbg !1809
; call core::panicking::panic_no_unwind
  call void @_ZN4core9panicking15panic_no_unwind17h62f8113f44cbfcbfE() #14, !dbg !1809
  unreachable, !dbg !1809

bb14:                                             ; preds = %bb13
  %31 = bitcast { i8*, i32 }* %0 to i8**, !dbg !1809
  %32 = load i8*, i8** %31, align 8, !dbg !1809
  %33 = getelementptr inbounds { i8*, i32 }, { i8*, i32 }* %0, i32 0, i32 1, !dbg !1809
  %34 = load i32, i32* %33, align 8, !dbg !1809
  %35 = insertvalue { i8*, i32 } undef, i8* %32, 0, !dbg !1809
  %36 = insertvalue { i8*, i32 } %35, i32 %34, 1, !dbg !1809
  resume { i8*, i32 } %36, !dbg !1809
}

; <core::iter::adapters::flatten::FlattenCompat<I,U> as core::iter::traits::iterator::Iterator>::next
; Function Attrs: inlinehint nonlazybind uwtable
define void @"_ZN116_$LT$core..iter..adapters..flatten..FlattenCompat$LT$I$C$U$GT$$u20$as$u20$core..iter..traits..iterator..Iterator$GT$4next17h04bcb5a5a2e1488fE"(%"core::option::Option<proc_macro2::TokenTree>"* sret(%"core::option::Option<proc_macro2::TokenTree>") %0, %"core::iter::adapters::flatten::FlattenCompat<core::iter::adapters::map::Map<core::iter::adapters::map::Map<core::iter::sources::once::Once<proc_macro2::TokenStream>, [closure@<proc_macro2::TokenStream as core::iter::traits::collect::Extend<proc_macro2::TokenStream>>::extend<core::iter::sources::once::Once<proc_macro2::TokenStream>>::{closure#0}]>, fn(proc_macro2::imp::TokenStream) -> proc_macro2::fallback::TokenStream {proc_macro2::imp::TokenStream::unwrap_stable}>, proc_macro2::rcvec::RcVecIntoIter<proc_macro2::TokenTree>>"* align 8 %self) unnamed_addr #0 personality i32 (i32, i32, i64, %"unwind::libunwind::_Unwind_Exception"*, %"unwind::libunwind::_Unwind_Context"*)* @rust_eh_personality !dbg !1810 {
start:
  %1 = alloca { i8*, i32 }, align 8
  %inner.dbg.spill = alloca i64*, align 8
  %self.dbg.spill2 = alloca %"core::iter::adapters::fuse::Fuse<core::iter::adapters::map::Map<core::iter::adapters::map::Map<core::iter::sources::once::Once<proc_macro2::TokenStream>, [closure@<proc_macro2::TokenStream as core::iter::traits::collect::Extend<proc_macro2::TokenStream>>::extend<core::iter::sources::once::Once<proc_macro2::TokenStream>>::{closure#0}]>, fn(proc_macro2::imp::TokenStream) -> proc_macro2::fallback::TokenStream {proc_macro2::imp::TokenStream::unwrap_stable}>>"*, align 8
  %self.dbg.spill = alloca %"core::iter::adapters::flatten::FlattenCompat<core::iter::adapters::map::Map<core::iter::adapters::map::Map<core::iter::sources::once::Once<proc_macro2::TokenStream>, [closure@<proc_macro2::TokenStream as core::iter::traits::collect::Extend<proc_macro2::TokenStream>>::extend<core::iter::sources::once::Once<proc_macro2::TokenStream>>::{closure#0}]>, fn(proc_macro2::imp::TokenStream) -> proc_macro2::fallback::TokenStream {proc_macro2::imp::TokenStream::unwrap_stable}>, proc_macro2::rcvec::RcVecIntoIter<proc_macro2::TokenTree>>"*, align 8
  %_14 = alloca %"proc_macro2::rcvec::RcVecIntoIter<proc_macro2::TokenTree>", align 8
  %_13 = alloca %"core::option::Option<proc_macro2::rcvec::RcVecIntoIter<proc_macro2::TokenTree>>", align 8
  %_7 = alloca i64*, align 8
  %elt = alloca %"core::option::Option<proc_macro2::TokenTree>", align 8
  %_2 = alloca %"core::option::Option<proc_macro2::TokenTree>", align 8
  store %"core::iter::adapters::flatten::FlattenCompat<core::iter::adapters::map::Map<core::iter::adapters::map::Map<core::iter::sources::once::Once<proc_macro2::TokenStream>, [closure@<proc_macro2::TokenStream as core::iter::traits::collect::Extend<proc_macro2::TokenStream>>::extend<core::iter::sources::once::Once<proc_macro2::TokenStream>>::{closure#0}]>, fn(proc_macro2::imp::TokenStream) -> proc_macro2::fallback::TokenStream {proc_macro2::imp::TokenStream::unwrap_stable}>, proc_macro2::rcvec::RcVecIntoIter<proc_macro2::TokenTree>>"* %self, %"core::iter::adapters::flatten::FlattenCompat<core::iter::adapters::map::Map<core::iter::adapters::map::Map<core::iter::sources::once::Once<proc_macro2::TokenStream>, [closure@<proc_macro2::TokenStream as core::iter::traits::collect::Extend<proc_macro2::TokenStream>>::extend<core::iter::sources::once::Once<proc_macro2::TokenStream>>::{closure#0}]>, fn(proc_macro2::imp::TokenStream) -> proc_macro2::fallback::TokenStream {proc_macro2::imp::TokenStream::unwrap_stable}>, proc_macro2::rcvec::RcVecIntoIter<proc_macro2::TokenTree>>"** %self.dbg.spill, align 8
  call void @llvm.dbg.declare(metadata %"core::iter::adapters::flatten::FlattenCompat<core::iter::adapters::map::Map<core::iter::adapters::map::Map<core::iter::sources::once::Once<proc_macro2::TokenStream>, [closure@<proc_macro2::TokenStream as core::iter::traits::collect::Extend<proc_macro2::TokenStream>>::extend<core::iter::sources::once::Once<proc_macro2::TokenStream>>::{closure#0}]>, fn(proc_macro2::imp::TokenStream) -> proc_macro2::fallback::TokenStream {proc_macro2::imp::TokenStream::unwrap_stable}>, proc_macro2::rcvec::RcVecIntoIter<proc_macro2::TokenTree>>"** %self.dbg.spill, metadata !1816, metadata !DIExpression()), !dbg !1821
  call void @llvm.dbg.declare(metadata %"core::option::Option<proc_macro2::TokenTree>"* %elt, metadata !1817, metadata !DIExpression()), !dbg !1822
  br label %bb1, !dbg !1823

bb1:                                              ; preds = %bb13, %start
  %_4 = getelementptr inbounds %"core::iter::adapters::flatten::FlattenCompat<core::iter::adapters::map::Map<core::iter::adapters::map::Map<core::iter::sources::once::Once<proc_macro2::TokenStream>, [closure@<proc_macro2::TokenStream as core::iter::traits::collect::Extend<proc_macro2::TokenStream>>::extend<core::iter::sources::once::Once<proc_macro2::TokenStream>>::{closure#0}]>, fn(proc_macro2::imp::TokenStream) -> proc_macro2::fallback::TokenStream {proc_macro2::imp::TokenStream::unwrap_stable}>, proc_macro2::rcvec::RcVecIntoIter<proc_macro2::TokenTree>>", %"core::iter::adapters::flatten::FlattenCompat<core::iter::adapters::map::Map<core::iter::adapters::map::Map<core::iter::sources::once::Once<proc_macro2::TokenStream>, [closure@<proc_macro2::TokenStream as core::iter::traits::collect::Extend<proc_macro2::TokenStream>>::extend<core::iter::sources::once::Once<proc_macro2::TokenStream>>::{closure#0}]>, fn(proc_macro2::imp::TokenStream) -> proc_macro2::fallback::TokenStream {proc_macro2::imp::TokenStream::unwrap_stable}>, proc_macro2::rcvec::RcVecIntoIter<proc_macro2::TokenTree>>"* %self, i32 0, i32 1, !dbg !1824
; call core::iter::adapters::flatten::and_then_or_clear
  call void @_ZN4core4iter8adapters7flatten17and_then_or_clear17h22af5598ad6ed083E(%"core::option::Option<proc_macro2::TokenTree>"* sret(%"core::option::Option<proc_macro2::TokenTree>") %_2, %"core::option::Option<proc_macro2::rcvec::RcVecIntoIter<proc_macro2::TokenTree>>"* align 8 %_4), !dbg !1825
  br label %bb2, !dbg !1825

bb2:                                              ; preds = %bb1
  %2 = bitcast %"core::option::Option<proc_macro2::TokenTree>"* %_2 to i32*, !dbg !1822
  %3 = load i32, i32* %2, align 8, !dbg !1822, !range !1727, !noundef !27
  %4 = sub i32 %3, 4, !dbg !1822
  %5 = icmp eq i32 %4, 0, !dbg !1822
  %_5 = select i1 %5, i64 0, i64 1, !dbg !1822
  %6 = icmp eq i64 %_5, 1, !dbg !1822
  br i1 %6, label %bb3, label %bb4, !dbg !1822

bb3:                                              ; preds = %bb2
  %7 = bitcast %"core::option::Option<proc_macro2::TokenTree>"* %elt to i8*, !dbg !1822
  %8 = bitcast %"core::option::Option<proc_macro2::TokenTree>"* %_2 to i8*, !dbg !1822
  call void @llvm.memcpy.p0i8.p0i8.i64(i8* align 8 %7, i8* align 8 %8, i64 40, i1 false), !dbg !1822
  %9 = bitcast %"core::option::Option<proc_macro2::TokenTree>"* %0 to i8*, !dbg !1826
  %10 = bitcast %"core::option::Option<proc_macro2::TokenTree>"* %elt to i8*, !dbg !1826
  call void @llvm.memcpy.p0i8.p0i8.i64(i8* align 8 %9, i8* align 8 %10, i64 40, i1 false), !dbg !1826
  br label %bb11, !dbg !1827

bb4:                                              ; preds = %bb2
; call core::ptr::drop_in_place<core::option::Option<proc_macro2::TokenTree>>
  call void @"_ZN4core3ptr71drop_in_place$LT$core..option..Option$LT$proc_macro2..TokenTree$GT$$GT$17hf120150b143ed7feE"(%"core::option::Option<proc_macro2::TokenTree>"* %_2), !dbg !1830
  br label %bb5, !dbg !1830

bb5:                                              ; preds = %bb4
  %self1 = bitcast %"core::iter::adapters::flatten::FlattenCompat<core::iter::adapters::map::Map<core::iter::adapters::map::Map<core::iter::sources::once::Once<proc_macro2::TokenStream>, [closure@<proc_macro2::TokenStream as core::iter::traits::collect::Extend<proc_macro2::TokenStream>>::extend<core::iter::sources::once::Once<proc_macro2::TokenStream>>::{closure#0}]>, fn(proc_macro2::imp::TokenStream) -> proc_macro2::fallback::TokenStream {proc_macro2::imp::TokenStream::unwrap_stable}>, proc_macro2::rcvec::RcVecIntoIter<proc_macro2::TokenTree>>"* %self to %"core::iter::adapters::fuse::Fuse<core::iter::adapters::map::Map<core::iter::adapters::map::Map<core::iter::sources::once::Once<proc_macro2::TokenStream>, [closure@<proc_macro2::TokenStream as core::iter::traits::collect::Extend<proc_macro2::TokenStream>>::extend<core::iter::sources::once::Once<proc_macro2::TokenStream>>::{closure#0}]>, fn(proc_macro2::imp::TokenStream) -> proc_macro2::fallback::TokenStream {proc_macro2::imp::TokenStream::unwrap_stable}>>"*, !dbg !1831
  store %"core::iter::adapters::fuse::Fuse<core::iter::adapters::map::Map<core::iter::adapters::map::Map<core::iter::sources::once::Once<proc_macro2::TokenStream>, [closure@<proc_macro2::TokenStream as core::iter::traits::collect::Extend<proc_macro2::TokenStream>>::extend<core::iter::sources::once::Once<proc_macro2::TokenStream>>::{closure#0}]>, fn(proc_macro2::imp::TokenStream) -> proc_macro2::fallback::TokenStream {proc_macro2::imp::TokenStream::unwrap_stable}>>"* %self1, %"core::iter::adapters::fuse::Fuse<core::iter::adapters::map::Map<core::iter::adapters::map::Map<core::iter::sources::once::Once<proc_macro2::TokenStream>, [closure@<proc_macro2::TokenStream as core::iter::traits::collect::Extend<proc_macro2::TokenStream>>::extend<core::iter::sources::once::Once<proc_macro2::TokenStream>>::{closure#0}]>, fn(proc_macro2::imp::TokenStream) -> proc_macro2::fallback::TokenStream {proc_macro2::imp::TokenStream::unwrap_stable}>>"** %self.dbg.spill2, align 8, !dbg !1831
  call void @llvm.dbg.declare(metadata %"core::iter::adapters::fuse::Fuse<core::iter::adapters::map::Map<core::iter::adapters::map::Map<core::iter::sources::once::Once<proc_macro2::TokenStream>, [closure@<proc_macro2::TokenStream as core::iter::traits::collect::Extend<proc_macro2::TokenStream>>::extend<core::iter::sources::once::Once<proc_macro2::TokenStream>>::{closure#0}]>, fn(proc_macro2::imp::TokenStream) -> proc_macro2::fallback::TokenStream {proc_macro2::imp::TokenStream::unwrap_stable}>>"** %self.dbg.spill2, metadata !1832, metadata !DIExpression()), !dbg !1837
; call <core::iter::adapters::fuse::Fuse<I> as core::iter::adapters::fuse::FuseImpl<I>>::next
  %11 = call i64* @"_ZN107_$LT$core..iter..adapters..fuse..Fuse$LT$I$GT$$u20$as$u20$core..iter..adapters..fuse..FuseImpl$LT$I$GT$$GT$4next17h2dac9f194e7c2595E"(%"core::iter::adapters::fuse::Fuse<core::iter::adapters::map::Map<core::iter::adapters::map::Map<core::iter::sources::once::Once<proc_macro2::TokenStream>, [closure@<proc_macro2::TokenStream as core::iter::traits::collect::Extend<proc_macro2::TokenStream>>::extend<core::iter::sources::once::Once<proc_macro2::TokenStream>>::{closure#0}]>, fn(proc_macro2::imp::TokenStream) -> proc_macro2::fallback::TokenStream {proc_macro2::imp::TokenStream::unwrap_stable}>>"* align 8 %self1), !dbg !1837
  store i64* %11, i64** %_7, align 8, !dbg !1837
  br label %bb14, !dbg !1837

bb14:                                             ; preds = %bb5
  %12 = bitcast i64** %_7 to {}**, !dbg !1831
  %13 = load {}*, {}** %12, align 8, !dbg !1831
  %14 = icmp eq {}* %13, null, !dbg !1831
  %_9 = select i1 %14, i64 0, i64 1, !dbg !1831
  switch i64 %_9, label %bb7 [
    i64 0, label %bb8
    i64 1, label %bb6
  ], !dbg !1838

bb7:                                              ; preds = %bb14
  unreachable, !dbg !1831

bb8:                                              ; preds = %bb14
  %_11 = getelementptr inbounds %"core::iter::adapters::flatten::FlattenCompat<core::iter::adapters::map::Map<core::iter::adapters::map::Map<core::iter::sources::once::Once<proc_macro2::TokenStream>, [closure@<proc_macro2::TokenStream as core::iter::traits::collect::Extend<proc_macro2::TokenStream>>::extend<core::iter::sources::once::Once<proc_macro2::TokenStream>>::{closure#0}]>, fn(proc_macro2::imp::TokenStream) -> proc_macro2::fallback::TokenStream {proc_macro2::imp::TokenStream::unwrap_stable}>, proc_macro2::rcvec::RcVecIntoIter<proc_macro2::TokenTree>>", %"core::iter::adapters::flatten::FlattenCompat<core::iter::adapters::map::Map<core::iter::adapters::map::Map<core::iter::sources::once::Once<proc_macro2::TokenStream>, [closure@<proc_macro2::TokenStream as core::iter::traits::collect::Extend<proc_macro2::TokenStream>>::extend<core::iter::sources::once::Once<proc_macro2::TokenStream>>::{closure#0}]>, fn(proc_macro2::imp::TokenStream) -> proc_macro2::fallback::TokenStream {proc_macro2::imp::TokenStream::unwrap_stable}>, proc_macro2::rcvec::RcVecIntoIter<proc_macro2::TokenTree>>"* %self, i32 0, i32 2, !dbg !1839
; call core::iter::adapters::flatten::and_then_or_clear
  call void @_ZN4core4iter8adapters7flatten17and_then_or_clear17h22af5598ad6ed083E(%"core::option::Option<proc_macro2::TokenTree>"* sret(%"core::option::Option<proc_macro2::TokenTree>") %0, %"core::option::Option<proc_macro2::rcvec::RcVecIntoIter<proc_macro2::TokenTree>>"* align 8 %_11), !dbg !1840
  br label %bb9, !dbg !1840

bb6:                                              ; preds = %bb14
  %inner = load i64*, i64** %_7, align 8, !dbg !1841, !nonnull !27, !noundef !27
  store i64* %inner, i64** %inner.dbg.spill, align 8, !dbg !1841
  call void @llvm.dbg.declare(metadata i64** %inner.dbg.spill, metadata !1819, metadata !DIExpression()), !dbg !1842
; call <proc_macro2::fallback::TokenStream as core::iter::traits::collect::IntoIterator>::into_iter
  call void @"_ZN96_$LT$proc_macro2..fallback..TokenStream$u20$as$u20$core..iter..traits..collect..IntoIterator$GT$9into_iter17hec7762bfa7059defE"(%"proc_macro2::rcvec::RcVecIntoIter<proc_macro2::TokenTree>"* sret(%"proc_macro2::rcvec::RcVecIntoIter<proc_macro2::TokenTree>") %_14, i64* %inner), !dbg !1843
  br label %bb10, !dbg !1843

bb10:                                             ; preds = %bb6
  %15 = bitcast %"core::option::Option<proc_macro2::rcvec::RcVecIntoIter<proc_macro2::TokenTree>>"* %_13 to %"core::option::Option<proc_macro2::rcvec::RcVecIntoIter<proc_macro2::TokenTree>>::Some"*, !dbg !1844
  %16 = bitcast %"core::option::Option<proc_macro2::rcvec::RcVecIntoIter<proc_macro2::TokenTree>>::Some"* %15 to %"proc_macro2::rcvec::RcVecIntoIter<proc_macro2::TokenTree>"*, !dbg !1844
  %17 = bitcast %"proc_macro2::rcvec::RcVecIntoIter<proc_macro2::TokenTree>"* %16 to i8*, !dbg !1844
  %18 = bitcast %"proc_macro2::rcvec::RcVecIntoIter<proc_macro2::TokenTree>"* %_14 to i8*, !dbg !1844
  call void @llvm.memcpy.p0i8.p0i8.i64(i8* align 8 %17, i8* align 8 %18, i64 32, i1 false), !dbg !1844
  %19 = getelementptr inbounds %"core::iter::adapters::flatten::FlattenCompat<core::iter::adapters::map::Map<core::iter::adapters::map::Map<core::iter::sources::once::Once<proc_macro2::TokenStream>, [closure@<proc_macro2::TokenStream as core::iter::traits::collect::Extend<proc_macro2::TokenStream>>::extend<core::iter::sources::once::Once<proc_macro2::TokenStream>>::{closure#0}]>, fn(proc_macro2::imp::TokenStream) -> proc_macro2::fallback::TokenStream {proc_macro2::imp::TokenStream::unwrap_stable}>, proc_macro2::rcvec::RcVecIntoIter<proc_macro2::TokenTree>>", %"core::iter::adapters::flatten::FlattenCompat<core::iter::adapters::map::Map<core::iter::adapters::map::Map<core::iter::sources::once::Once<proc_macro2::TokenStream>, [closure@<proc_macro2::TokenStream as core::iter::traits::collect::Extend<proc_macro2::TokenStream>>::extend<core::iter::sources::once::Once<proc_macro2::TokenStream>>::{closure#0}]>, fn(proc_macro2::imp::TokenStream) -> proc_macro2::fallback::TokenStream {proc_macro2::imp::TokenStream::unwrap_stable}>, proc_macro2::rcvec::RcVecIntoIter<proc_macro2::TokenTree>>"* %self, i32 0, i32 1, !dbg !1845
; invoke core::ptr::drop_in_place<core::option::Option<proc_macro2::rcvec::RcVecIntoIter<proc_macro2::TokenTree>>>
  invoke void @"_ZN4core3ptr112drop_in_place$LT$core..option..Option$LT$proc_macro2..rcvec..RcVecIntoIter$LT$proc_macro2..TokenTree$GT$$GT$$GT$17h060e71d3a2129f0eE"(%"core::option::Option<proc_macro2::rcvec::RcVecIntoIter<proc_macro2::TokenTree>>"* %19)
          to label %bb13 unwind label %cleanup, !dbg !1845

bb12:                                             ; preds = %cleanup
  %20 = getelementptr inbounds %"core::iter::adapters::flatten::FlattenCompat<core::iter::adapters::map::Map<core::iter::adapters::map::Map<core::iter::sources::once::Once<proc_macro2::TokenStream>, [closure@<proc_macro2::TokenStream as core::iter::traits::collect::Extend<proc_macro2::TokenStream>>::extend<core::iter::sources::once::Once<proc_macro2::TokenStream>>::{closure#0}]>, fn(proc_macro2::imp::TokenStream) -> proc_macro2::fallback::TokenStream {proc_macro2::imp::TokenStream::unwrap_stable}>, proc_macro2::rcvec::RcVecIntoIter<proc_macro2::TokenTree>>", %"core::iter::adapters::flatten::FlattenCompat<core::iter::adapters::map::Map<core::iter::adapters::map::Map<core::iter::sources::once::Once<proc_macro2::TokenStream>, [closure@<proc_macro2::TokenStream as core::iter::traits::collect::Extend<proc_macro2::TokenStream>>::extend<core::iter::sources::once::Once<proc_macro2::TokenStream>>::{closure#0}]>, fn(proc_macro2::imp::TokenStream) -> proc_macro2::fallback::TokenStream {proc_macro2::imp::TokenStream::unwrap_stable}>, proc_macro2::rcvec::RcVecIntoIter<proc_macro2::TokenTree>>"* %self, i32 0, i32 1, !dbg !1845
  %21 = bitcast %"core::option::Option<proc_macro2::rcvec::RcVecIntoIter<proc_macro2::TokenTree>>"* %20 to i8*, !dbg !1845
  %22 = bitcast %"core::option::Option<proc_macro2::rcvec::RcVecIntoIter<proc_macro2::TokenTree>>"* %_13 to i8*, !dbg !1845
  call void @llvm.memcpy.p0i8.p0i8.i64(i8* align 8 %21, i8* align 8 %22, i64 32, i1 false), !dbg !1845
  %23 = bitcast { i8*, i32 }* %1 to i8**, !dbg !1846
  %24 = load i8*, i8** %23, align 8, !dbg !1846
  %25 = getelementptr inbounds { i8*, i32 }, { i8*, i32 }* %1, i32 0, i32 1, !dbg !1846
  %26 = load i32, i32* %25, align 8, !dbg !1846
  %27 = insertvalue { i8*, i32 } undef, i8* %24, 0, !dbg !1846
  %28 = insertvalue { i8*, i32 } %27, i32 %26, 1, !dbg !1846
  resume { i8*, i32 } %28, !dbg !1846

cleanup:                                          ; preds = %bb10
  %29 = landingpad { i8*, i32 }
          cleanup
  %30 = extractvalue { i8*, i32 } %29, 0
  %31 = extractvalue { i8*, i32 } %29, 1
  %32 = getelementptr inbounds { i8*, i32 }, { i8*, i32 }* %1, i32 0, i32 0
  store i8* %30, i8** %32, align 8
  %33 = getelementptr inbounds { i8*, i32 }, { i8*, i32 }* %1, i32 0, i32 1
  store i32 %31, i32* %33, align 8
  br label %bb12

bb13:                                             ; preds = %bb10
  %34 = getelementptr inbounds %"core::iter::adapters::flatten::FlattenCompat<core::iter::adapters::map::Map<core::iter::adapters::map::Map<core::iter::sources::once::Once<proc_macro2::TokenStream>, [closure@<proc_macro2::TokenStream as core::iter::traits::collect::Extend<proc_macro2::TokenStream>>::extend<core::iter::sources::once::Once<proc_macro2::TokenStream>>::{closure#0}]>, fn(proc_macro2::imp::TokenStream) -> proc_macro2::fallback::TokenStream {proc_macro2::imp::TokenStream::unwrap_stable}>, proc_macro2::rcvec::RcVecIntoIter<proc_macro2::TokenTree>>", %"core::iter::adapters::flatten::FlattenCompat<core::iter::adapters::map::Map<core::iter::adapters::map::Map<core::iter::sources::once::Once<proc_macro2::TokenStream>, [closure@<proc_macro2::TokenStream as core::iter::traits::collect::Extend<proc_macro2::TokenStream>>::extend<core::iter::sources::once::Once<proc_macro2::TokenStream>>::{closure#0}]>, fn(proc_macro2::imp::TokenStream) -> proc_macro2::fallback::TokenStream {proc_macro2::imp::TokenStream::unwrap_stable}>, proc_macro2::rcvec::RcVecIntoIter<proc_macro2::TokenTree>>"* %self, i32 0, i32 1, !dbg !1845
  %35 = bitcast %"core::option::Option<proc_macro2::rcvec::RcVecIntoIter<proc_macro2::TokenTree>>"* %34 to i8*, !dbg !1845
  %36 = bitcast %"core::option::Option<proc_macro2::rcvec::RcVecIntoIter<proc_macro2::TokenTree>>"* %_13 to i8*, !dbg !1845
  call void @llvm.memcpy.p0i8.p0i8.i64(i8* align 8 %35, i8* align 8 %36, i64 32, i1 false), !dbg !1845
  br label %bb1, !dbg !1823

bb9:                                              ; preds = %bb8
  br label %bb11, !dbg !1827

bb11:                                             ; preds = %bb3, %bb9
