; ModuleID = '2ir2hkfy65l8kupi'
source_filename = "2ir2hkfy65l8kupi"
target datalayout = "e-m:e-p270:32:32-p271:32:32-p272:64:64-i64:64-f80:128-n8:16:32:64-S128"
target triple = "x86_64-unknown-linux-gnu"

%"core::option::Option<(usize, usize)>" = type { i64, [2 x i64] }
%"core::iter::adapters::enumerate::Enumerate<core::ops::range::RangeInclusive<usize>>" = type { %"core::ops::range::RangeInclusive<usize>", i64 }
%"core::ops::range::RangeInclusive<usize>" = type { i64, i64, i8, [7 x i8] }
%"core::option::Option<(usize, usize)>::Some" = type { [1 x i64], { i64, i64 } }
%"core::panic::location::Location" = type { { [0 x i8]*, i64 }, i32, i32 }
%"variable_offsetof::use_0" = type { i32, [3 x float] }
%"variable_offsetof::yield_0" = type { i32, [3 x float] }
%"flex_array_members::c89_flex" = type { i32, [1 x i32] }
%"flex_array_members::c99_flex" = type { i32, [0 x i32] }
%"flex_array_members::gnu_flex" = type { i32, [0 x i32] }
%"bitfields::three_byte_date" = type { [3 x i8] }
%"bitfields::padded_bitfield" = type { [1 x i8], [1 x i8], [2 x i8], [4 x i8] }
%"bitfields::mixed_bitfields" = type { [2 x i8], [6 x i8], double }
%"bitfields::from_csmith" = type { [11 x i8], [1 x i8], i32, [4 x i8] }
%"bitfields::S" = type { [1 x i8], [3 x i8] }
%"bitfields::two_eight_bits" = type { [2 x i8], [2 x i8] }
%"bitfields::renamer_required" = type { i32, [1 x i8], [3 x i8] }
%"forward::forward" = type {}
%"forward::s" = type { i32 }
%"self_referential::Node" = type { %"self_referential::Node"* }
%"struct_with_exp::s" = type { i32 }
%"structs::C2RustUnnamed" = type { i32 }
%"structs::C2RustUnnamed_1" = type { i32 }
%"structs::C2RustUnnamed_0" = type { %"structs::C2RustUnnamed_1", %"structs::C2RustUnnamed" }
%"structs::C2RustUnnamed_2" = type { { i32, i32 }, i32 }
%"structs::S16_Inner" = type <{ i8, i16, i64 }>
%"structs::S16" = type { %"structs::S16_Inner", [5 x i8] }
%"structs::S36" = type { i8, %"structs::S16_Inner", [5 x i8] }
%"structs::S15_Inner" = type <{ i8, i16, i64 }>
%"structs::S15" = type { %"structs::S15_Inner", [5 x i8] }
%"structs::S35" = type { i8, %"structs::S15_Inner", [5 x i8] }
%"structs::S14_Inner" = type <{ i8, i16, i64 }>
%"structs::S14" = type { %"structs::S14_Inner", [1 x i8] }
%"structs::S34" = type { i8, %"structs::S14_Inner", [1 x i8] }
%"structs::S13_Inner" = type <{ i8, i16, i64 }>
%"structs::S13" = type { %"structs::S13_Inner", [1 x i8] }
%"structs::S33" = type { i8, %"structs::S13_Inner", [1 x i8] }
%"structs::S12_Inner" = type <{ i8, i16, i64 }>
%"structs::S12" = type { %"structs::S12_Inner" }
%"structs::S32" = type { i8, %"structs::S12_Inner", [0 x i8] }
%"structs::S11_Inner" = type { i8, [1 x i8], i16, [2 x i16], i64 }
%"structs::S11" = type { %"structs::S11_Inner" }
%"structs::S31" = type <{ i8, %"structs::S11_Inner", [0 x i8] }>
%"structs::S10_Inner" = type { i8, [1 x i8], i16, [2 x i16], i64 }
%"structs::S10" = type { %"structs::S10_Inner" }
%"structs::S30" = type <{ i8, %"structs::S10_Inner", [0 x i8] }>
%"structs::S9_Inner" = type { i8, [1 x i8], i16, [2 x i16], i64 }
%"structs::S9" = type { %"structs::S9_Inner" }
%"structs::S29" = type <{ i8, %"structs::S9_Inner", [0 x i8] }>
%"structs::S8_Inner" = type { i8, [1 x i8], i16, [2 x i16], i64 }
%"structs::S8" = type { %"structs::S8_Inner" }
%"structs::S28" = type <{ i8, %"structs::S8_Inner", [0 x i8] }>
%"structs::S7_Inner" = type { i8, [1 x i8], i16, [2 x i16], i64 }
%"structs::S7" = type { %"structs::S7_Inner" }
%"structs::S27" = type <{ i8, %"structs::S7_Inner", [0 x i8] }>
%"structs::S26" = type { i8, [15 x i8], %"structs::S16" }
%"structs::S25" = type { i8, [7 x i8], %"structs::S15" }
%"structs::S24" = type { i8, [3 x i8], %"structs::S14" }
%"structs::S23" = type { i8, [1 x i8], %"structs::S13" }
%"structs::S22" = type { i8, %"structs::S12" }
%"structs::S21" = type { i8, [15 x i8], %"structs::S11" }
%"structs::S20" = type { i8, [7 x i8], %"structs::S10" }
%"structs::S19" = type { i8, [7 x i8], %"structs::S9" }
%"structs::S18" = type { i8, [7 x i8], %"structs::S8" }
%"structs::S17" = type { i8, [7 x i8], %"structs::S7" }
%"structs::S6" = type <{ i8, i16, i64 }>
%"structs::S5" = type { i8, [1 x i8], i16, [2 x i16], i64 }
%"structs::S4" = type <{ i8, [1 x i8], i16, i64 }>
%"structs::S3" = type <{ i8, [1 x i8], i16, i64 }>
%"structs::S2" = type <{ i8, i16, i64 }>
%"structs::S1" = type { i8, [1 x i8], i16, [2 x i16], i64 }
%"core::mem::maybe_uninit::MaybeUninit<variable_offsetof::use_0>" = type { [4 x i32] }
%"core::mem::manually_drop::ManuallyDrop<variable_offsetof::use_0>" = type { %"variable_offsetof::use_0" }
%"core::mem::maybe_uninit::MaybeUninit<variable_offsetof::yield_0>" = type { [4 x i32] }
%"core::mem::manually_drop::ManuallyDrop<variable_offsetof::yield_0>" = type { %"variable_offsetof::yield_0" }

@alloc887 = private unnamed_addr constant <{ [51 x i8] }> <{ [51 x i8] c"/home/calvin/git/c2rust/c2rust-bitfields/src/lib.rs" }>, align 1
@alloc888 = private unnamed_addr constant <{ i8*, [16 x i8] }> <{ i8* getelementptr inbounds (<{ [51 x i8] }>, <{ [51 x i8] }>* @alloc887, i32 0, i32 0, i32 0), [16 x i8] c"3\00\00\00\00\00\00\00 \00\00\00\1D\00\00\00" }>, align 8
@alloc911 = private unnamed_addr constant <{ [25 x i8] }> <{ [25 x i8] c"src/flex_array_members.rs" }>, align 1
@alloc890 = private unnamed_addr constant <{ i8*, [16 x i8] }> <{ i8* getelementptr inbounds (<{ [25 x i8] }>, <{ [25 x i8] }>* @alloc911, i32 0, i32 0, i32 0), [16 x i8] c"\19\00\00\00\00\00\00\00*\00\00\00\09\00\00\00" }>, align 8
@str.0 = internal constant [28 x i8] c"attempt to add with overflow"
@alloc892 = private unnamed_addr constant <{ i8*, [16 x i8] }> <{ i8* getelementptr inbounds (<{ [25 x i8] }>, <{ [25 x i8] }>* @alloc911, i32 0, i32 0, i32 0), [16 x i8] c"\19\00\00\00\00\00\00\00/\00\00\00\09\00\00\00" }>, align 8
@alloc894 = private unnamed_addr constant <{ i8*, [16 x i8] }> <{ i8* getelementptr inbounds (<{ [25 x i8] }>, <{ [25 x i8] }>* @alloc911, i32 0, i32 0, i32 0), [16 x i8] c"\19\00\00\00\00\00\00\004\00\00\00\09\00\00\00" }>, align 8
@alloc896 = private unnamed_addr constant <{ i8*, [16 x i8] }> <{ i8* getelementptr inbounds (<{ [25 x i8] }>, <{ [25 x i8] }>* @alloc911, i32 0, i32 0, i32 0), [16 x i8] c"\19\00\00\00\00\00\00\00;\00\00\00\09\00\00\00" }>, align 8
@alloc898 = private unnamed_addr constant <{ i8*, [16 x i8] }> <{ i8* getelementptr inbounds (<{ [25 x i8] }>, <{ [25 x i8] }>* @alloc911, i32 0, i32 0, i32 0), [16 x i8] c"\19\00\00\00\00\00\00\00D\00\00\00\09\00\00\00" }>, align 8
@alloc900 = private unnamed_addr constant <{ i8*, [16 x i8] }> <{ i8* getelementptr inbounds (<{ [25 x i8] }>, <{ [25 x i8] }>* @alloc911, i32 0, i32 0, i32 0), [16 x i8] c"\19\00\00\00\00\00\00\00I\00\00\00\09\00\00\00" }>, align 8
@alloc902 = private unnamed_addr constant <{ i8*, [16 x i8] }> <{ i8* getelementptr inbounds (<{ [25 x i8] }>, <{ [25 x i8] }>* @alloc911, i32 0, i32 0, i32 0), [16 x i8] c"\19\00\00\00\00\00\00\00N\00\00\00\09\00\00\00" }>, align 8
@alloc904 = private unnamed_addr constant <{ i8*, [16 x i8] }> <{ i8* getelementptr inbounds (<{ [25 x i8] }>, <{ [25 x i8] }>* @alloc911, i32 0, i32 0, i32 0), [16 x i8] c"\19\00\00\00\00\00\00\00U\00\00\00\09\00\00\00" }>, align 8
@alloc906 = private unnamed_addr constant <{ i8*, [16 x i8] }> <{ i8* getelementptr inbounds (<{ [25 x i8] }>, <{ [25 x i8] }>* @alloc911, i32 0, i32 0, i32 0), [16 x i8] c"\19\00\00\00\00\00\00\00^\00\00\00\09\00\00\00" }>, align 8
@alloc908 = private unnamed_addr constant <{ i8*, [16 x i8] }> <{ i8* getelementptr inbounds (<{ [25 x i8] }>, <{ [25 x i8] }>* @alloc911, i32 0, i32 0, i32 0), [16 x i8] c"\19\00\00\00\00\00\00\00c\00\00\00\09\00\00\00" }>, align 8
@alloc910 = private unnamed_addr constant <{ i8*, [16 x i8] }> <{ i8* getelementptr inbounds (<{ [25 x i8] }>, <{ [25 x i8] }>* @alloc911, i32 0, i32 0, i32 0), [16 x i8] c"\19\00\00\00\00\00\00\00h\00\00\00\09\00\00\00" }>, align 8
@alloc912 = private unnamed_addr constant <{ i8*, [16 x i8] }> <{ i8* getelementptr inbounds (<{ [25 x i8] }>, <{ [25 x i8] }>* @alloc911, i32 0, i32 0, i32 0), [16 x i8] c"\19\00\00\00\00\00\00\00q\00\00\00\09\00\00\00" }>, align 8
@alloc965 = private unnamed_addr constant <{ [16 x i8] }> <{ [16 x i8] c"src/bitfields.rs" }>, align 1
@alloc914 = private unnamed_addr constant <{ i8*, [16 x i8] }> <{ i8* getelementptr inbounds (<{ [16 x i8] }>, <{ [16 x i8] }>* @alloc965, i32 0, i32 0, i32 0), [16 x i8] c"\10\00\00\00\00\00\00\00\98\00\00\00\11\00\00\00" }>, align 8
@str.1 = internal constant [48 x i8] c"attempt to calculate the remainder with overflow"
@alloc916 = private unnamed_addr constant <{ i8*, [16 x i8] }> <{ i8* getelementptr inbounds (<{ [16 x i8] }>, <{ [16 x i8] }>* @alloc965, i32 0, i32 0, i32 0), [16 x i8] c"\10\00\00\00\00\00\00\00\99\00\00\00\11\00\00\00" }>, align 8
@alloc918 = private unnamed_addr constant <{ i8*, [16 x i8] }> <{ i8* getelementptr inbounds (<{ [16 x i8] }>, <{ [16 x i8] }>* @alloc965, i32 0, i32 0, i32 0), [16 x i8] c"\10\00\00\00\00\00\00\00\9A\00\00\00\11\00\00\00" }>, align 8
@str.2 = internal constant [33 x i8] c"attempt to multiply with overflow"
@alloc920 = private unnamed_addr constant <{ i8*, [16 x i8] }> <{ i8* getelementptr inbounds (<{ [16 x i8] }>, <{ [16 x i8] }>* @alloc965, i32 0, i32 0, i32 0), [16 x i8] c"\10\00\00\00\00\00\00\00\9B\00\00\00\11\00\00\00" }>, align 8
@str.3 = internal constant [33 x i8] c"attempt to subtract with overflow"
@alloc922 = private unnamed_addr constant <{ i8*, [16 x i8] }> <{ i8* getelementptr inbounds (<{ [16 x i8] }>, <{ [16 x i8] }>* @alloc965, i32 0, i32 0, i32 0), [16 x i8] c"\10\00\00\00\00\00\00\00\9C\00\00\00\11\00\00\00" }>, align 8
@str.4 = internal constant [31 x i8] c"attempt to divide with overflow"
@alloc924 = private unnamed_addr constant <{ i8*, [16 x i8] }> <{ i8* getelementptr inbounds (<{ [16 x i8] }>, <{ [16 x i8] }>* @alloc965, i32 0, i32 0, i32 0), [16 x i8] c"\10\00\00\00\00\00\00\00\A2\00\00\00\11\00\00\00" }>, align 8
@alloc926 = private unnamed_addr constant <{ i8*, [16 x i8] }> <{ i8* getelementptr inbounds (<{ [16 x i8] }>, <{ [16 x i8] }>* @alloc965, i32 0, i32 0, i32 0), [16 x i8] c"\10\00\00\00\00\00\00\00\A4\00\00\00\11\00\00\00" }>, align 8
@alloc928 = private unnamed_addr constant <{ i8*, [16 x i8] }> <{ i8* getelementptr inbounds (<{ [16 x i8] }>, <{ [16 x i8] }>* @alloc965, i32 0, i32 0, i32 0), [16 x i8] c"\10\00\00\00\00\00\00\00\A6\00\00\00\11\00\00\00" }>, align 8
@alloc930 = private unnamed_addr constant <{ i8*, [16 x i8] }> <{ i8* getelementptr inbounds (<{ [16 x i8] }>, <{ [16 x i8] }>* @alloc965, i32 0, i32 0, i32 0), [16 x i8] c"\10\00\00\00\00\00\00\00\A7\00\00\00\11\00\00\00" }>, align 8
@alloc932 = private unnamed_addr constant <{ i8*, [16 x i8] }> <{ i8* getelementptr inbounds (<{ [16 x i8] }>, <{ [16 x i8] }>* @alloc965, i32 0, i32 0, i32 0), [16 x i8] c"\10\00\00\00\00\00\00\00\A8\00\00\00\11\00\00\00" }>, align 8
@alloc934 = private unnamed_addr constant <{ i8*, [16 x i8] }> <{ i8* getelementptr inbounds (<{ [16 x i8] }>, <{ [16 x i8] }>* @alloc965, i32 0, i32 0, i32 0), [16 x i8] c"\10\00\00\00\00\00\00\00\A9\00\00\00\11\00\00\00" }>, align 8
@alloc936 = private unnamed_addr constant <{ i8*, [16 x i8] }> <{ i8* getelementptr inbounds (<{ [16 x i8] }>, <{ [16 x i8] }>* @alloc965, i32 0, i32 0, i32 0), [16 x i8] c"\10\00\00\00\00\00\00\00\AA\00\00\00\11\00\00\00" }>, align 8
@alloc938 = private unnamed_addr constant <{ i8*, [16 x i8] }> <{ i8* getelementptr inbounds (<{ [16 x i8] }>, <{ [16 x i8] }>* @alloc965, i32 0, i32 0, i32 0), [16 x i8] c"\10\00\00\00\00\00\00\00\BE\00\00\00\0E\00\00\00" }>, align 8
@alloc940 = private unnamed_addr constant <{ i8*, [16 x i8] }> <{ i8* getelementptr inbounds (<{ [16 x i8] }>, <{ [16 x i8] }>* @alloc965, i32 0, i32 0, i32 0), [16 x i8] c"\10\00\00\00\00\00\00\00\BF\00\00\00\0E\00\00\00" }>, align 8
@alloc942 = private unnamed_addr constant <{ i8*, [16 x i8] }> <{ i8* getelementptr inbounds (<{ [16 x i8] }>, <{ [16 x i8] }>* @alloc965, i32 0, i32 0, i32 0), [16 x i8] c"\10\00\00\00\00\00\00\00\C0\00\00\00\0E\00\00\00" }>, align 8
@alloc944 = private unnamed_addr constant <{ i8*, [16 x i8] }> <{ i8* getelementptr inbounds (<{ [16 x i8] }>, <{ [16 x i8] }>* @alloc965, i32 0, i32 0, i32 0), [16 x i8] c"\10\00\00\00\00\00\00\00\C1\00\00\00\0E\00\00\00" }>, align 8
@alloc946 = private unnamed_addr constant <{ i8*, [16 x i8] }> <{ i8* getelementptr inbounds (<{ [16 x i8] }>, <{ [16 x i8] }>* @alloc965, i32 0, i32 0, i32 0), [16 x i8] c"\10\00\00\00\00\00\00\00\C2\00\00\00\0E\00\00\00" }>, align 8
@alloc948 = private unnamed_addr constant <{ i8*, [16 x i8] }> <{ i8* getelementptr inbounds (<{ [16 x i8] }>, <{ [16 x i8] }>* @alloc965, i32 0, i32 0, i32 0), [16 x i8] c"\10\00\00\00\00\00\00\00\C8\00\00\00\0E\00\00\00" }>, align 8
@alloc950 = private unnamed_addr constant <{ i8*, [16 x i8] }> <{ i8* getelementptr inbounds (<{ [16 x i8] }>, <{ [16 x i8] }>* @alloc965, i32 0, i32 0, i32 0), [16 x i8] c"\10\00\00\00\00\00\00\00\CA\00\00\00\0E\00\00\00" }>, align 8
@alloc952 = private unnamed_addr constant <{ i8*, [16 x i8] }> <{ i8* getelementptr inbounds (<{ [16 x i8] }>, <{ [16 x i8] }>* @alloc965, i32 0, i32 0, i32 0), [16 x i8] c"\10\00\00\00\00\00\00\00\CC\00\00\00\0E\00\00\00" }>, align 8
@alloc954 = private unnamed_addr constant <{ i8*, [16 x i8] }> <{ i8* getelementptr inbounds (<{ [16 x i8] }>, <{ [16 x i8] }>* @alloc965, i32 0, i32 0, i32 0), [16 x i8] c"\10\00\00\00\00\00\00\00\CD\00\00\00\0E\00\00\00" }>, align 8
@alloc956 = private unnamed_addr constant <{ i8*, [16 x i8] }> <{ i8* getelementptr inbounds (<{ [16 x i8] }>, <{ [16 x i8] }>* @alloc965, i32 0, i32 0, i32 0), [16 x i8] c"\10\00\00\00\00\00\00\00\CE\00\00\00\0E\00\00\00" }>, align 8
@alloc958 = private unnamed_addr constant <{ i8*, [16 x i8] }> <{ i8* getelementptr inbounds (<{ [16 x i8] }>, <{ [16 x i8] }>* @alloc965, i32 0, i32 0, i32 0), [16 x i8] c"\10\00\00\00\00\00\00\00\CF\00\00\00\0E\00\00\00" }>, align 8
@alloc960 = private unnamed_addr constant <{ i8*, [16 x i8] }> <{ i8* getelementptr inbounds (<{ [16 x i8] }>, <{ [16 x i8] }>* @alloc965, i32 0, i32 0, i32 0), [16 x i8] c"\10\00\00\00\00\00\00\00\D0\00\00\00\0E\00\00\00" }>, align 8
@rust_static_date = global <{ [3 x i8] }> zeroinitializer, align 1, !dbg !0
@rust_s = global <{ [4 x i8] }> zeroinitializer, align 1, !dbg !14
@alloc962 = private unnamed_addr constant <{ i8*, [16 x i8] }> <{ i8* getelementptr inbounds (<{ [16 x i8] }>, <{ [16 x i8] }>* @alloc965, i32 0, i32 0, i32 0), [16 x i8] c"\10\00\00\00\00\00\00\00\22\01\00\00\15\00\00\00" }>, align 8
@rust_ma_results = global <{ [17 x i8] }> zeroinitializer, align 1, !dbg !23
@alloc964 = private unnamed_addr constant <{ i8*, [16 x i8] }> <{ i8* getelementptr inbounds (<{ [16 x i8] }>, <{ [16 x i8] }>* @alloc965, i32 0, i32 0, i32 0), [16 x i8] c"\10\00\00\00\00\00\00\00x\01\00\00\1B\00\00\00" }>, align 8
@alloc966 = private unnamed_addr constant <{ i8*, [16 x i8] }> <{ i8* getelementptr inbounds (<{ [16 x i8] }>, <{ [16 x i8] }>* @alloc965, i32 0, i32 0, i32 0), [16 x i8] c"\10\00\00\00\00\00\00\00v\01\00\00\13\00\00\00" }>, align 8
@_ZN13structs_tests9bitfields10INIT_ARRAY17h8626c40c7131e2e4E = constant <{ i8* }> <{ i8* bitcast (void ()* @_ZN13structs_tests9bitfields23run_static_initializers17h65cab81534477997E to i8*) }>, section ".init_array", align 8, !dbg !28
@alloc1531 = private unnamed_addr constant <{ [14 x i8] }> <{ [14 x i8] c"src/structs.rs" }>, align 1
@alloc968 = private unnamed_addr constant <{ i8*, [16 x i8] }> <{ i8* getelementptr inbounds (<{ [14 x i8] }>, <{ [14 x i8] }>* @alloc1531, i32 0, i32 0, i32 0), [16 x i8] c"\0E\00\00\00\00\00\00\00{\01\00\00\09\00\00\00" }>, align 8
@alloc970 = private unnamed_addr constant <{ i8*, [16 x i8] }> <{ i8* getelementptr inbounds (<{ [14 x i8] }>, <{ [14 x i8] }>* @alloc1531, i32 0, i32 0, i32 0), [16 x i8] c"\0E\00\00\00\00\00\00\00~\01\00\00\09\00\00\00" }>, align 8
@alloc972 = private unnamed_addr constant <{ i8*, [16 x i8] }> <{ i8* getelementptr inbounds (<{ [14 x i8] }>, <{ [14 x i8] }>* @alloc1531, i32 0, i32 0, i32 0), [16 x i8] c"\0E\00\00\00\00\00\00\00\86\01\00\00\09\00\00\00" }>, align 8
@alloc974 = private unnamed_addr constant <{ i8*, [16 x i8] }> <{ i8* getelementptr inbounds (<{ [14 x i8] }>, <{ [14 x i8] }>* @alloc1531, i32 0, i32 0, i32 0), [16 x i8] c"\0E\00\00\00\00\00\00\00\89\01\00\00\09\00\00\00" }>, align 8
@alloc976 = private unnamed_addr constant <{ i8*, [16 x i8] }> <{ i8* getelementptr inbounds (<{ [14 x i8] }>, <{ [14 x i8] }>* @alloc1531, i32 0, i32 0, i32 0), [16 x i8] c"\0E\00\00\00\00\00\00\00\93\01\00\00\09\00\00\00" }>, align 8
@alloc978 = private unnamed_addr constant <{ i8*, [16 x i8] }> <{ i8* getelementptr inbounds (<{ [14 x i8] }>, <{ [14 x i8] }>* @alloc1531, i32 0, i32 0, i32 0), [16 x i8] c"\0E\00\00\00\00\00\00\00\96\01\00\00\09\00\00\00" }>, align 8
@alloc980 = private unnamed_addr constant <{ i8*, [16 x i8] }> <{ i8* getelementptr inbounds (<{ [14 x i8] }>, <{ [14 x i8] }>* @alloc1531, i32 0, i32 0, i32 0), [16 x i8] c"\0E\00\00\00\00\00\00\00\A5\01\00\00\09\00\00\00" }>, align 8
@alloc982 = private unnamed_addr constant <{ i8*, [16 x i8] }> <{ i8* getelementptr inbounds (<{ [14 x i8] }>, <{ [14 x i8] }>* @alloc1531, i32 0, i32 0, i32 0), [16 x i8] c"\0E\00\00\00\00\00\00\00\A8\01\00\00\09\00\00\00" }>, align 8
@alloc984 = private unnamed_addr constant <{ i8*, [16 x i8] }> <{ i8* getelementptr inbounds (<{ [14 x i8] }>, <{ [14 x i8] }>* @alloc1531, i32 0, i32 0, i32 0), [16 x i8] c"\0E\00\00\00\00\00\00\00\C2\01\00\00\09\00\00\00" }>, align 8
@alloc986 = private unnamed_addr constant <{ i8*, [16 x i8] }> <{ i8* getelementptr inbounds (<{ [14 x i8] }>, <{ [14 x i8] }>* @alloc1531, i32 0, i32 0, i32 0), [16 x i8] c"\0E\00\00\00\00\00\00\00\C6\01\00\00\09\00\00\00" }>, align 8
@alloc988 = private unnamed_addr constant <{ i8*, [16 x i8] }> <{ i8* getelementptr inbounds (<{ [14 x i8] }>, <{ [14 x i8] }>* @alloc1531, i32 0, i32 0, i32 0), [16 x i8] c"\0E\00\00\00\00\00\00\00\C9\01\00\00\09\00\00\00" }>, align 8
@alloc990 = private unnamed_addr constant <{ i8*, [16 x i8] }> <{ i8* getelementptr inbounds (<{ [14 x i8] }>, <{ [14 x i8] }>* @alloc1531, i32 0, i32 0, i32 0), [16 x i8] c"\0E\00\00\00\00\00\00\00\CC\01\00\00\09\00\00\00" }>, align 8
@alloc992 = private unnamed_addr constant <{ i8*, [16 x i8] }> <{ i8* getelementptr inbounds (<{ [14 x i8] }>, <{ [14 x i8] }>* @alloc1531, i32 0, i32 0, i32 0), [16 x i8] c"\0E\00\00\00\00\00\00\00\CF\01\00\00\09\00\00\00" }>, align 8
@alloc994 = private unnamed_addr constant <{ i8*, [16 x i8] }> <{ i8* getelementptr inbounds (<{ [14 x i8] }>, <{ [14 x i8] }>* @alloc1531, i32 0, i32 0, i32 0), [16 x i8] c"\0E\00\00\00\00\00\00\00\D2\01\00\00\09\00\00\00" }>, align 8
@alloc996 = private unnamed_addr constant <{ i8*, [16 x i8] }> <{ i8* getelementptr inbounds (<{ [14 x i8] }>, <{ [14 x i8] }>* @alloc1531, i32 0, i32 0, i32 0), [16 x i8] c"\0E\00\00\00\00\00\00\00\D5\01\00\00\09\00\00\00" }>, align 8
@alloc998 = private unnamed_addr constant <{ i8*, [16 x i8] }> <{ i8* getelementptr inbounds (<{ [14 x i8] }>, <{ [14 x i8] }>* @alloc1531, i32 0, i32 0, i32 0), [16 x i8] c"\0E\00\00\00\00\00\00\00\DC\01\00\00\09\00\00\00" }>, align 8
@alloc1000 = private unnamed_addr constant <{ i8*, [16 x i8] }> <{ i8* getelementptr inbounds (<{ [14 x i8] }>, <{ [14 x i8] }>* @alloc1531, i32 0, i32 0, i32 0), [16 x i8] c"\0E\00\00\00\00\00\00\00\DF\01\00\00\09\00\00\00" }>, align 8
@alloc1002 = private unnamed_addr constant <{ i8*, [16 x i8] }> <{ i8* getelementptr inbounds (<{ [14 x i8] }>, <{ [14 x i8] }>* @alloc1531, i32 0, i32 0, i32 0), [16 x i8] c"\0E\00\00\00\00\00\00\00\E2\01\00\00\09\00\00\00" }>, align 8
@alloc1004 = private unnamed_addr constant <{ i8*, [16 x i8] }> <{ i8* getelementptr inbounds (<{ [14 x i8] }>, <{ [14 x i8] }>* @alloc1531, i32 0, i32 0, i32 0), [16 x i8] c"\0E\00\00\00\00\00\00\00\ED\01\00\00\09\00\00\00" }>, align 8
@alloc1006 = private unnamed_addr constant <{ i8*, [16 x i8] }> <{ i8* getelementptr inbounds (<{ [14 x i8] }>, <{ [14 x i8] }>* @alloc1531, i32 0, i32 0, i32 0), [16 x i8] c"\0E\00\00\00\00\00\00\00\F1\01\00\00\09\00\00\00" }>, align 8
@alloc1008 = private unnamed_addr constant <{ i8*, [16 x i8] }> <{ i8* getelementptr inbounds (<{ [14 x i8] }>, <{ [14 x i8] }>* @alloc1531, i32 0, i32 0, i32 0), [16 x i8] c"\0E\00\00\00\00\00\00\00\F5\01\00\00\09\00\00\00" }>, align 8
@alloc1010 = private unnamed_addr constant <{ i8*, [16 x i8] }> <{ i8* getelementptr inbounds (<{ [14 x i8] }>, <{ [14 x i8] }>* @alloc1531, i32 0, i32 0, i32 0), [16 x i8] c"\0E\00\00\00\00\00\00\00\F8\01\00\00\09\00\00\00" }>, align 8
@alloc1012 = private unnamed_addr constant <{ i8*, [16 x i8] }> <{ i8* getelementptr inbounds (<{ [14 x i8] }>, <{ [14 x i8] }>* @alloc1531, i32 0, i32 0, i32 0), [16 x i8] c"\0E\00\00\00\00\00\00\00\FB\01\00\00\09\00\00\00" }>, align 8
@alloc1014 = private unnamed_addr constant <{ i8*, [16 x i8] }> <{ i8* getelementptr inbounds (<{ [14 x i8] }>, <{ [14 x i8] }>* @alloc1531, i32 0, i32 0, i32 0), [16 x i8] c"\0E\00\00\00\00\00\00\00\FE\01\00\00\09\00\00\00" }>, align 8
@alloc1016 = private unnamed_addr constant <{ i8*, [16 x i8] }> <{ i8* getelementptr inbounds (<{ [14 x i8] }>, <{ [14 x i8] }>* @alloc1531, i32 0, i32 0, i32 0), [16 x i8] c"\0E\00\00\00\00\00\00\00\01\02\00\00\09\00\00\00" }>, align 8
@alloc1018 = private unnamed_addr constant <{ i8*, [16 x i8] }> <{ i8* getelementptr inbounds (<{ [14 x i8] }>, <{ [14 x i8] }>* @alloc1531, i32 0, i32 0, i32 0), [16 x i8] c"\0E\00\00\00\00\00\00\00\04\02\00\00\09\00\00\00" }>, align 8
@alloc1020 = private unnamed_addr constant <{ i8*, [16 x i8] }> <{ i8* getelementptr inbounds (<{ [14 x i8] }>, <{ [14 x i8] }>* @alloc1531, i32 0, i32 0, i32 0), [16 x i8] c"\0E\00\00\00\00\00\00\00\0B\02\00\00\09\00\00\00" }>, align 8
@alloc1022 = private unnamed_addr constant <{ i8*, [16 x i8] }> <{ i8* getelementptr inbounds (<{ [14 x i8] }>, <{ [14 x i8] }>* @alloc1531, i32 0, i32 0, i32 0), [16 x i8] c"\0E\00\00\00\00\00\00\00\0E\02\00\00\09\00\00\00" }>, align 8
@alloc1024 = private unnamed_addr constant <{ i8*, [16 x i8] }> <{ i8* getelementptr inbounds (<{ [14 x i8] }>, <{ [14 x i8] }>* @alloc1531, i32 0, i32 0, i32 0), [16 x i8] c"\0E\00\00\00\00\00\00\00\11\02\00\00\09\00\00\00" }>, align 8
@alloc1026 = private unnamed_addr constant <{ i8*, [16 x i8] }> <{ i8* getelementptr inbounds (<{ [14 x i8] }>, <{ [14 x i8] }>* @alloc1531, i32 0, i32 0, i32 0), [16 x i8] c"\0E\00\00\00\00\00\00\00\1C\02\00\00\09\00\00\00" }>, align 8
@alloc1028 = private unnamed_addr constant <{ i8*, [16 x i8] }> <{ i8* getelementptr inbounds (<{ [14 x i8] }>, <{ [14 x i8] }>* @alloc1531, i32 0, i32 0, i32 0), [16 x i8] c"\0E\00\00\00\00\00\00\00 \02\00\00\09\00\00\00" }>, align 8
@alloc1030 = private unnamed_addr constant <{ i8*, [16 x i8] }> <{ i8* getelementptr inbounds (<{ [14 x i8] }>, <{ [14 x i8] }>* @alloc1531, i32 0, i32 0, i32 0), [16 x i8] c"\0E\00\00\00\00\00\00\00$\02\00\00\09\00\00\00" }>, align 8
@alloc1032 = private unnamed_addr constant <{ i8*, [16 x i8] }> <{ i8* getelementptr inbounds (<{ [14 x i8] }>, <{ [14 x i8] }>* @alloc1531, i32 0, i32 0, i32 0), [16 x i8] c"\0E\00\00\00\00\00\00\00'\02\00\00\09\00\00\00" }>, align 8
@alloc1034 = private unnamed_addr constant <{ i8*, [16 x i8] }> <{ i8* getelementptr inbounds (<{ [14 x i8] }>, <{ [14 x i8] }>* @alloc1531, i32 0, i32 0, i32 0), [16 x i8] c"\0E\00\00\00\00\00\00\00*\02\00\00\09\00\00\00" }>, align 8
@alloc1036 = private unnamed_addr constant <{ i8*, [16 x i8] }> <{ i8* getelementptr inbounds (<{ [14 x i8] }>, <{ [14 x i8] }>* @alloc1531, i32 0, i32 0, i32 0), [16 x i8] c"\0E\00\00\00\00\00\00\00-\02\00\00\09\00\00\00" }>, align 8
@alloc1038 = private unnamed_addr constant <{ i8*, [16 x i8] }> <{ i8* getelementptr inbounds (<{ [14 x i8] }>, <{ [14 x i8] }>* @alloc1531, i32 0, i32 0, i32 0), [16 x i8] c"\0E\00\00\00\00\00\00\000\02\00\00\09\00\00\00" }>, align 8
@alloc1040 = private unnamed_addr constant <{ i8*, [16 x i8] }> <{ i8* getelementptr inbounds (<{ [14 x i8] }>, <{ [14 x i8] }>* @alloc1531, i32 0, i32 0, i32 0), [16 x i8] c"\0E\00\00\00\00\00\00\003\02\00\00\09\00\00\00" }>, align 8
@alloc1042 = private unnamed_addr constant <{ i8*, [16 x i8] }> <{ i8* getelementptr inbounds (<{ [14 x i8] }>, <{ [14 x i8] }>* @alloc1531, i32 0, i32 0, i32 0), [16 x i8] c"\0E\00\00\00\00\00\00\00:\02\00\00\09\00\00\00" }>, align 8
@alloc1044 = private unnamed_addr constant <{ i8*, [16 x i8] }> <{ i8* getelementptr inbounds (<{ [14 x i8] }>, <{ [14 x i8] }>* @alloc1531, i32 0, i32 0, i32 0), [16 x i8] c"\0E\00\00\00\00\00\00\00=\02\00\00\09\00\00\00" }>, align 8
@alloc1046 = private unnamed_addr constant <{ i8*, [16 x i8] }> <{ i8* getelementptr inbounds (<{ [14 x i8] }>, <{ [14 x i8] }>* @alloc1531, i32 0, i32 0, i32 0), [16 x i8] c"\0E\00\00\00\00\00\00\00@\02\00\00\09\00\00\00" }>, align 8
@alloc1048 = private unnamed_addr constant <{ i8*, [16 x i8] }> <{ i8* getelementptr inbounds (<{ [14 x i8] }>, <{ [14 x i8] }>* @alloc1531, i32 0, i32 0, i32 0), [16 x i8] c"\0E\00\00\00\00\00\00\00K\02\00\00\09\00\00\00" }>, align 8
@alloc1050 = private unnamed_addr constant <{ i8*, [16 x i8] }> <{ i8* getelementptr inbounds (<{ [14 x i8] }>, <{ [14 x i8] }>* @alloc1531, i32 0, i32 0, i32 0), [16 x i8] c"\0E\00\00\00\00\00\00\00O\02\00\00\09\00\00\00" }>, align 8
@alloc1052 = private unnamed_addr constant <{ i8*, [16 x i8] }> <{ i8* getelementptr inbounds (<{ [14 x i8] }>, <{ [14 x i8] }>* @alloc1531, i32 0, i32 0, i32 0), [16 x i8] c"\0E\00\00\00\00\00\00\00S\02\00\00\09\00\00\00" }>, align 8
@alloc1054 = private unnamed_addr constant <{ i8*, [16 x i8] }> <{ i8* getelementptr inbounds (<{ [14 x i8] }>, <{ [14 x i8] }>* @alloc1531, i32 0, i32 0, i32 0), [16 x i8] c"\0E\00\00\00\00\00\00\00V\02\00\00\09\00\00\00" }>, align 8
@alloc1056 = private unnamed_addr constant <{ i8*, [16 x i8] }> <{ i8* getelementptr inbounds (<{ [14 x i8] }>, <{ [14 x i8] }>* @alloc1531, i32 0, i32 0, i32 0), [16 x i8] c"\0E\00\00\00\00\00\00\00Y\02\00\00\09\00\00\00" }>, align 8
@alloc1058 = private unnamed_addr constant <{ i8*, [16 x i8] }> <{ i8* getelementptr inbounds (<{ [14 x i8] }>, <{ [14 x i8] }>* @alloc1531, i32 0, i32 0, i32 0), [16 x i8] c"\0E\00\00\00\00\00\00\00\\\02\00\00\09\00\00\00" }>, align 8
@alloc1060 = private unnamed_addr constant <{ i8*, [16 x i8] }> <{ i8* getelementptr inbounds (<{ [14 x i8] }>, <{ [14 x i8] }>* @alloc1531, i32 0, i32 0, i32 0), [16 x i8] c"\0E\00\00\00\00\00\00\00_\02\00\00\09\00\00\00" }>, align 8
@alloc1062 = private unnamed_addr constant <{ i8*, [16 x i8] }> <{ i8* getelementptr inbounds (<{ [14 x i8] }>, <{ [14 x i8] }>* @alloc1531, i32 0, i32 0, i32 0), [16 x i8] c"\0E\00\00\00\00\00\00\00b\02\00\00\09\00\00\00" }>, align 8
@alloc1064 = private unnamed_addr constant <{ i8*, [16 x i8] }> <{ i8* getelementptr inbounds (<{ [14 x i8] }>, <{ [14 x i8] }>* @alloc1531, i32 0, i32 0, i32 0), [16 x i8] c"\0E\00\00\00\00\00\00\00i\02\00\00\09\00\00\00" }>, align 8
@alloc1066 = private unnamed_addr constant <{ i8*, [16 x i8] }> <{ i8* getelementptr inbounds (<{ [14 x i8] }>, <{ [14 x i8] }>* @alloc1531, i32 0, i32 0, i32 0), [16 x i8] c"\0E\00\00\00\00\00\00\00l\02\00\00\09\00\00\00" }>, align 8
@alloc1068 = private unnamed_addr constant <{ i8*, [16 x i8] }> <{ i8* getelementptr inbounds (<{ [14 x i8] }>, <{ [14 x i8] }>* @alloc1531, i32 0, i32 0, i32 0), [16 x i8] c"\0E\00\00\00\00\00\00\00o\02\00\00\09\00\00\00" }>, align 8
@alloc1070 = private unnamed_addr constant <{ i8*, [16 x i8] }> <{ i8* getelementptr inbounds (<{ [14 x i8] }>, <{ [14 x i8] }>* @alloc1531, i32 0, i32 0, i32 0), [16 x i8] c"\0E\00\00\00\00\00\00\00z\02\00\00\09\00\00\00" }>, align 8
@alloc1072 = private unnamed_addr constant <{ i8*, [16 x i8] }> <{ i8* getelementptr inbounds (<{ [14 x i8] }>, <{ [14 x i8] }>* @alloc1531, i32 0, i32 0, i32 0), [16 x i8] c"\0E\00\00\00\00\00\00\00~\02\00\00\09\00\00\00" }>, align 8
@alloc1074 = private unnamed_addr constant <{ i8*, [16 x i8] }> <{ i8* getelementptr inbounds (<{ [14 x i8] }>, <{ [14 x i8] }>* @alloc1531, i32 0, i32 0, i32 0), [16 x i8] c"\0E\00\00\00\00\00\00\00\82\02\00\00\09\00\00\00" }>, align 8
@alloc1076 = private unnamed_addr constant <{ i8*, [16 x i8] }> <{ i8* getelementptr inbounds (<{ [14 x i8] }>, <{ [14 x i8] }>* @alloc1531, i32 0, i32 0, i32 0), [16 x i8] c"\0E\00\00\00\00\00\00\00\85\02\00\00\09\00\00\00" }>, align 8
@alloc1078 = private unnamed_addr constant <{ i8*, [16 x i8] }> <{ i8* getelementptr inbounds (<{ [14 x i8] }>, <{ [14 x i8] }>* @alloc1531, i32 0, i32 0, i32 0), [16 x i8] c"\0E\00\00\00\00\00\00\00\88\02\00\00\09\00\00\00" }>, align 8
@alloc1080 = private unnamed_addr constant <{ i8*, [16 x i8] }> <{ i8* getelementptr inbounds (<{ [14 x i8] }>, <{ [14 x i8] }>* @alloc1531, i32 0, i32 0, i32 0), [16 x i8] c"\0E\00\00\00\00\00\00\00\8B\02\00\00\09\00\00\00" }>, align 8
@alloc1082 = private unnamed_addr constant <{ i8*, [16 x i8] }> <{ i8* getelementptr inbounds (<{ [14 x i8] }>, <{ [14 x i8] }>* @alloc1531, i32 0, i32 0, i32 0), [16 x i8] c"\0E\00\00\00\00\00\00\00\8E\02\00\00\09\00\00\00" }>, align 8
@alloc1084 = private unnamed_addr constant <{ i8*, [16 x i8] }> <{ i8* getelementptr inbounds (<{ [14 x i8] }>, <{ [14 x i8] }>* @alloc1531, i32 0, i32 0, i32 0), [16 x i8] c"\0E\00\00\00\00\00\00\00\91\02\00\00\09\00\00\00" }>, align 8
@alloc1086 = private unnamed_addr constant <{ i8*, [16 x i8] }> <{ i8* getelementptr inbounds (<{ [14 x i8] }>, <{ [14 x i8] }>* @alloc1531, i32 0, i32 0, i32 0), [16 x i8] c"\0E\00\00\00\00\00\00\00\98\02\00\00\09\00\00\00" }>, align 8
@alloc1088 = private unnamed_addr constant <{ i8*, [16 x i8] }> <{ i8* getelementptr inbounds (<{ [14 x i8] }>, <{ [14 x i8] }>* @alloc1531, i32 0, i32 0, i32 0), [16 x i8] c"\0E\00\00\00\00\00\00\00\9B\02\00\00\09\00\00\00" }>, align 8
@alloc1090 = private unnamed_addr constant <{ i8*, [16 x i8] }> <{ i8* getelementptr inbounds (<{ [14 x i8] }>, <{ [14 x i8] }>* @alloc1531, i32 0, i32 0, i32 0), [16 x i8] c"\0E\00\00\00\00\00\00\00\9E\02\00\00\09\00\00\00" }>, align 8
@alloc1092 = private unnamed_addr constant <{ i8*, [16 x i8] }> <{ i8* getelementptr inbounds (<{ [14 x i8] }>, <{ [14 x i8] }>* @alloc1531, i32 0, i32 0, i32 0), [16 x i8] c"\0E\00\00\00\00\00\00\00\A9\02\00\00\09\00\00\00" }>, align 8
@alloc1094 = private unnamed_addr constant <{ i8*, [16 x i8] }> <{ i8* getelementptr inbounds (<{ [14 x i8] }>, <{ [14 x i8] }>* @alloc1531, i32 0, i32 0, i32 0), [16 x i8] c"\0E\00\00\00\00\00\00\00\AD\02\00\00\09\00\00\00" }>, align 8
@alloc1096 = private unnamed_addr constant <{ i8*, [16 x i8] }> <{ i8* getelementptr inbounds (<{ [14 x i8] }>, <{ [14 x i8] }>* @alloc1531, i32 0, i32 0, i32 0), [16 x i8] c"\0E\00\00\00\00\00\00\00\B1\02\00\00\09\00\00\00" }>, align 8
@alloc1098 = private unnamed_addr constant <{ i8*, [16 x i8] }> <{ i8* getelementptr inbounds (<{ [14 x i8] }>, <{ [14 x i8] }>* @alloc1531, i32 0, i32 0, i32 0), [16 x i8] c"\0E\00\00\00\00\00\00\00\B4\02\00\00\09\00\00\00" }>, align 8
@alloc1100 = private unnamed_addr constant <{ i8*, [16 x i8] }> <{ i8* getelementptr inbounds (<{ [14 x i8] }>, <{ [14 x i8] }>* @alloc1531, i32 0, i32 0, i32 0), [16 x i8] c"\0E\00\00\00\00\00\00\00\B7\02\00\00\09\00\00\00" }>, align 8
@alloc1102 = private unnamed_addr constant <{ i8*, [16 x i8] }> <{ i8* getelementptr inbounds (<{ [14 x i8] }>, <{ [14 x i8] }>* @alloc1531, i32 0, i32 0, i32 0), [16 x i8] c"\0E\00\00\00\00\00\00\00\BA\02\00\00\09\00\00\00" }>, align 8
@alloc1104 = private unnamed_addr constant <{ i8*, [16 x i8] }> <{ i8* getelementptr inbounds (<{ [14 x i8] }>, <{ [14 x i8] }>* @alloc1531, i32 0, i32 0, i32 0), [16 x i8] c"\0E\00\00\00\00\00\00\00\BD\02\00\00\09\00\00\00" }>, align 8
@alloc1106 = private unnamed_addr constant <{ i8*, [16 x i8] }> <{ i8* getelementptr inbounds (<{ [14 x i8] }>, <{ [14 x i8] }>* @alloc1531, i32 0, i32 0, i32 0), [16 x i8] c"\0E\00\00\00\00\00\00\00\C0\02\00\00\09\00\00\00" }>, align 8
@alloc1108 = private unnamed_addr constant <{ i8*, [16 x i8] }> <{ i8* getelementptr inbounds (<{ [14 x i8] }>, <{ [14 x i8] }>* @alloc1531, i32 0, i32 0, i32 0), [16 x i8] c"\0E\00\00\00\00\00\00\00\C7\02\00\00\09\00\00\00" }>, align 8
@alloc1110 = private unnamed_addr constant <{ i8*, [16 x i8] }> <{ i8* getelementptr inbounds (<{ [14 x i8] }>, <{ [14 x i8] }>* @alloc1531, i32 0, i32 0, i32 0), [16 x i8] c"\0E\00\00\00\00\00\00\00\CA\02\00\00\09\00\00\00" }>, align 8
@alloc1112 = private unnamed_addr constant <{ i8*, [16 x i8] }> <{ i8* getelementptr inbounds (<{ [14 x i8] }>, <{ [14 x i8] }>* @alloc1531, i32 0, i32 0, i32 0), [16 x i8] c"\0E\00\00\00\00\00\00\00\CD\02\00\00\09\00\00\00" }>, align 8
@alloc1114 = private unnamed_addr constant <{ i8*, [16 x i8] }> <{ i8* getelementptr inbounds (<{ [14 x i8] }>, <{ [14 x i8] }>* @alloc1531, i32 0, i32 0, i32 0), [16 x i8] c"\0E\00\00\00\00\00\00\00\D8\02\00\00\09\00\00\00" }>, align 8
@alloc1116 = private unnamed_addr constant <{ i8*, [16 x i8] }> <{ i8* getelementptr inbounds (<{ [14 x i8] }>, <{ [14 x i8] }>* @alloc1531, i32 0, i32 0, i32 0), [16 x i8] c"\0E\00\00\00\00\00\00\00\DC\02\00\00\09\00\00\00" }>, align 8
@alloc1118 = private unnamed_addr constant <{ i8*, [16 x i8] }> <{ i8* getelementptr inbounds (<{ [14 x i8] }>, <{ [14 x i8] }>* @alloc1531, i32 0, i32 0, i32 0), [16 x i8] c"\0E\00\00\00\00\00\00\00\E0\02\00\00\09\00\00\00" }>, align 8
@alloc1120 = private unnamed_addr constant <{ i8*, [16 x i8] }> <{ i8* getelementptr inbounds (<{ [14 x i8] }>, <{ [14 x i8] }>* @alloc1531, i32 0, i32 0, i32 0), [16 x i8] c"\0E\00\00\00\00\00\00\00\E3\02\00\00\09\00\00\00" }>, align 8
@alloc1122 = private unnamed_addr constant <{ i8*, [16 x i8] }> <{ i8* getelementptr inbounds (<{ [14 x i8] }>, <{ [14 x i8] }>* @alloc1531, i32 0, i32 0, i32 0), [16 x i8] c"\0E\00\00\00\00\00\00\00\E6\02\00\00\09\00\00\00" }>, align 8
@alloc1124 = private unnamed_addr constant <{ i8*, [16 x i8] }> <{ i8* getelementptr inbounds (<{ [14 x i8] }>, <{ [14 x i8] }>* @alloc1531, i32 0, i32 0, i32 0), [16 x i8] c"\0E\00\00\00\00\00\00\00\E9\02\00\00\09\00\00\00" }>, align 8
@alloc1126 = private unnamed_addr constant <{ i8*, [16 x i8] }> <{ i8* getelementptr inbounds (<{ [14 x i8] }>, <{ [14 x i8] }>* @alloc1531, i32 0, i32 0, i32 0), [16 x i8] c"\0E\00\00\00\00\00\00\00\EC\02\00\00\09\00\00\00" }>, align 8
@alloc1128 = private unnamed_addr constant <{ i8*, [16 x i8] }> <{ i8* getelementptr inbounds (<{ [14 x i8] }>, <{ [14 x i8] }>* @alloc1531, i32 0, i32 0, i32 0), [16 x i8] c"\0E\00\00\00\00\00\00\00\EF\02\00\00\09\00\00\00" }>, align 8
@alloc1130 = private unnamed_addr constant <{ i8*, [16 x i8] }> <{ i8* getelementptr inbounds (<{ [14 x i8] }>, <{ [14 x i8] }>* @alloc1531, i32 0, i32 0, i32 0), [16 x i8] c"\0E\00\00\00\00\00\00\00\F6\02\00\00\09\00\00\00" }>, align 8
@alloc1132 = private unnamed_addr constant <{ i8*, [16 x i8] }> <{ i8* getelementptr inbounds (<{ [14 x i8] }>, <{ [14 x i8] }>* @alloc1531, i32 0, i32 0, i32 0), [16 x i8] c"\0E\00\00\00\00\00\00\00\F9\02\00\00\09\00\00\00" }>, align 8
@alloc1134 = private unnamed_addr constant <{ i8*, [16 x i8] }> <{ i8* getelementptr inbounds (<{ [14 x i8] }>, <{ [14 x i8] }>* @alloc1531, i32 0, i32 0, i32 0), [16 x i8] c"\0E\00\00\00\00\00\00\00\FC\02\00\00\09\00\00\00" }>, align 8
@alloc1136 = private unnamed_addr constant <{ i8*, [16 x i8] }> <{ i8* getelementptr inbounds (<{ [14 x i8] }>, <{ [14 x i8] }>* @alloc1531, i32 0, i32 0, i32 0), [16 x i8] c"\0E\00\00\00\00\00\00\00\07\03\00\00\09\00\00\00" }>, align 8
@alloc1138 = private unnamed_addr constant <{ i8*, [16 x i8] }> <{ i8* getelementptr inbounds (<{ [14 x i8] }>, <{ [14 x i8] }>* @alloc1531, i32 0, i32 0, i32 0), [16 x i8] c"\0E\00\00\00\00\00\00\00\0B\03\00\00\09\00\00\00" }>, align 8
@alloc1140 = private unnamed_addr constant <{ i8*, [16 x i8] }> <{ i8* getelementptr inbounds (<{ [14 x i8] }>, <{ [14 x i8] }>* @alloc1531, i32 0, i32 0, i32 0), [16 x i8] c"\0E\00\00\00\00\00\00\00\0F\03\00\00\09\00\00\00" }>, align 8
@alloc1142 = private unnamed_addr constant <{ i8*, [16 x i8] }> <{ i8* getelementptr inbounds (<{ [14 x i8] }>, <{ [14 x i8] }>* @alloc1531, i32 0, i32 0, i32 0), [16 x i8] c"\0E\00\00\00\00\00\00\00\12\03\00\00\09\00\00\00" }>, align 8
@alloc1144 = private unnamed_addr constant <{ i8*, [16 x i8] }> <{ i8* getelementptr inbounds (<{ [14 x i8] }>, <{ [14 x i8] }>* @alloc1531, i32 0, i32 0, i32 0), [16 x i8] c"\0E\00\00\00\00\00\00\00\15\03\00\00\09\00\00\00" }>, align 8
@alloc1146 = private unnamed_addr constant <{ i8*, [16 x i8] }> <{ i8* getelementptr inbounds (<{ [14 x i8] }>, <{ [14 x i8] }>* @alloc1531, i32 0, i32 0, i32 0), [16 x i8] c"\0E\00\00\00\00\00\00\00\18\03\00\00\09\00\00\00" }>, align 8
@alloc1148 = private unnamed_addr constant <{ i8*, [16 x i8] }> <{ i8* getelementptr inbounds (<{ [14 x i8] }>, <{ [14 x i8] }>* @alloc1531, i32 0, i32 0, i32 0), [16 x i8] c"\0E\00\00\00\00\00\00\00\1B\03\00\00\09\00\00\00" }>, align 8
@alloc1150 = private unnamed_addr constant <{ i8*, [16 x i8] }> <{ i8* getelementptr inbounds (<{ [14 x i8] }>, <{ [14 x i8] }>* @alloc1531, i32 0, i32 0, i32 0), [16 x i8] c"\0E\00\00\00\00\00\00\00\1E\03\00\00\09\00\00\00" }>, align 8
@alloc1152 = private unnamed_addr constant <{ i8*, [16 x i8] }> <{ i8* getelementptr inbounds (<{ [14 x i8] }>, <{ [14 x i8] }>* @alloc1531, i32 0, i32 0, i32 0), [16 x i8] c"\0E\00\00\00\00\00\00\00%\03\00\00\09\00\00\00" }>, align 8
@alloc1154 = private unnamed_addr constant <{ i8*, [16 x i8] }> <{ i8* getelementptr inbounds (<{ [14 x i8] }>, <{ [14 x i8] }>* @alloc1531, i32 0, i32 0, i32 0), [16 x i8] c"\0E\00\00\00\00\00\00\00(\03\00\00\09\00\00\00" }>, align 8
@alloc1156 = private unnamed_addr constant <{ i8*, [16 x i8] }> <{ i8* getelementptr inbounds (<{ [14 x i8] }>, <{ [14 x i8] }>* @alloc1531, i32 0, i32 0, i32 0), [16 x i8] c"\0E\00\00\00\00\00\00\00+\03\00\00\09\00\00\00" }>, align 8
@alloc1158 = private unnamed_addr constant <{ i8*, [16 x i8] }> <{ i8* getelementptr inbounds (<{ [14 x i8] }>, <{ [14 x i8] }>* @alloc1531, i32 0, i32 0, i32 0), [16 x i8] c"\0E\00\00\00\00\00\00\006\03\00\00\09\00\00\00" }>, align 8
@alloc1160 = private unnamed_addr constant <{ i8*, [16 x i8] }> <{ i8* getelementptr inbounds (<{ [14 x i8] }>, <{ [14 x i8] }>* @alloc1531, i32 0, i32 0, i32 0), [16 x i8] c"\0E\00\00\00\00\00\00\00:\03\00\00\09\00\00\00" }>, align 8
@alloc1162 = private unnamed_addr constant <{ i8*, [16 x i8] }> <{ i8* getelementptr inbounds (<{ [14 x i8] }>, <{ [14 x i8] }>* @alloc1531, i32 0, i32 0, i32 0), [16 x i8] c"\0E\00\00\00\00\00\00\00>\03\00\00\09\00\00\00" }>, align 8
@alloc1164 = private unnamed_addr constant <{ i8*, [16 x i8] }> <{ i8* getelementptr inbounds (<{ [14 x i8] }>, <{ [14 x i8] }>* @alloc1531, i32 0, i32 0, i32 0), [16 x i8] c"\0E\00\00\00\00\00\00\00A\03\00\00\09\00\00\00" }>, align 8
@alloc1166 = private unnamed_addr constant <{ i8*, [16 x i8] }> <{ i8* getelementptr inbounds (<{ [14 x i8] }>, <{ [14 x i8] }>* @alloc1531, i32 0, i32 0, i32 0), [16 x i8] c"\0E\00\00\00\00\00\00\00D\03\00\00\09\00\00\00" }>, align 8
@alloc1168 = private unnamed_addr constant <{ i8*, [16 x i8] }> <{ i8* getelementptr inbounds (<{ [14 x i8] }>, <{ [14 x i8] }>* @alloc1531, i32 0, i32 0, i32 0), [16 x i8] c"\0E\00\00\00\00\00\00\00G\03\00\00\09\00\00\00" }>, align 8
@alloc1170 = private unnamed_addr constant <{ i8*, [16 x i8] }> <{ i8* getelementptr inbounds (<{ [14 x i8] }>, <{ [14 x i8] }>* @alloc1531, i32 0, i32 0, i32 0), [16 x i8] c"\0E\00\00\00\00\00\00\00J\03\00\00\09\00\00\00" }>, align 8
@alloc1172 = private unnamed_addr constant <{ i8*, [16 x i8] }> <{ i8* getelementptr inbounds (<{ [14 x i8] }>, <{ [14 x i8] }>* @alloc1531, i32 0, i32 0, i32 0), [16 x i8] c"\0E\00\00\00\00\00\00\00M\03\00\00\09\00\00\00" }>, align 8
@alloc1174 = private unnamed_addr constant <{ i8*, [16 x i8] }> <{ i8* getelementptr inbounds (<{ [14 x i8] }>, <{ [14 x i8] }>* @alloc1531, i32 0, i32 0, i32 0), [16 x i8] c"\0E\00\00\00\00\00\00\00T\03\00\00\09\00\00\00" }>, align 8
@alloc1176 = private unnamed_addr constant <{ i8*, [16 x i8] }> <{ i8* getelementptr inbounds (<{ [14 x i8] }>, <{ [14 x i8] }>* @alloc1531, i32 0, i32 0, i32 0), [16 x i8] c"\0E\00\00\00\00\00\00\00W\03\00\00\09\00\00\00" }>, align 8
@alloc1178 = private unnamed_addr constant <{ i8*, [16 x i8] }> <{ i8* getelementptr inbounds (<{ [14 x i8] }>, <{ [14 x i8] }>* @alloc1531, i32 0, i32 0, i32 0), [16 x i8] c"\0E\00\00\00\00\00\00\00Z\03\00\00\09\00\00\00" }>, align 8
@alloc1180 = private unnamed_addr constant <{ i8*, [16 x i8] }> <{ i8* getelementptr inbounds (<{ [14 x i8] }>, <{ [14 x i8] }>* @alloc1531, i32 0, i32 0, i32 0), [16 x i8] c"\0E\00\00\00\00\00\00\00e\03\00\00\09\00\00\00" }>, align 8
@alloc1182 = private unnamed_addr constant <{ i8*, [16 x i8] }> <{ i8* getelementptr inbounds (<{ [14 x i8] }>, <{ [14 x i8] }>* @alloc1531, i32 0, i32 0, i32 0), [16 x i8] c"\0E\00\00\00\00\00\00\00i\03\00\00\09\00\00\00" }>, align 8
@alloc1184 = private unnamed_addr constant <{ i8*, [16 x i8] }> <{ i8* getelementptr inbounds (<{ [14 x i8] }>, <{ [14 x i8] }>* @alloc1531, i32 0, i32 0, i32 0), [16 x i8] c"\0E\00\00\00\00\00\00\00m\03\00\00\09\00\00\00" }>, align 8
@alloc1186 = private unnamed_addr constant <{ i8*, [16 x i8] }> <{ i8* getelementptr inbounds (<{ [14 x i8] }>, <{ [14 x i8] }>* @alloc1531, i32 0, i32 0, i32 0), [16 x i8] c"\0E\00\00\00\00\00\00\00p\03\00\00\09\00\00\00" }>, align 8
@alloc1188 = private unnamed_addr constant <{ i8*, [16 x i8] }> <{ i8* getelementptr inbounds (<{ [14 x i8] }>, <{ [14 x i8] }>* @alloc1531, i32 0, i32 0, i32 0), [16 x i8] c"\0E\00\00\00\00\00\00\00s\03\00\00\09\00\00\00" }>, align 8
@alloc1190 = private unnamed_addr constant <{ i8*, [16 x i8] }> <{ i8* getelementptr inbounds (<{ [14 x i8] }>, <{ [14 x i8] }>* @alloc1531, i32 0, i32 0, i32 0), [16 x i8] c"\0E\00\00\00\00\00\00\00v\03\00\00\09\00\00\00" }>, align 8
@alloc1192 = private unnamed_addr constant <{ i8*, [16 x i8] }> <{ i8* getelementptr inbounds (<{ [14 x i8] }>, <{ [14 x i8] }>* @alloc1531, i32 0, i32 0, i32 0), [16 x i8] c"\0E\00\00\00\00\00\00\00y\03\00\00\09\00\00\00" }>, align 8
@alloc1194 = private unnamed_addr constant <{ i8*, [16 x i8] }> <{ i8* getelementptr inbounds (<{ [14 x i8] }>, <{ [14 x i8] }>* @alloc1531, i32 0, i32 0, i32 0), [16 x i8] c"\0E\00\00\00\00\00\00\00|\03\00\00\09\00\00\00" }>, align 8
@alloc1196 = private unnamed_addr constant <{ i8*, [16 x i8] }> <{ i8* getelementptr inbounds (<{ [14 x i8] }>, <{ [14 x i8] }>* @alloc1531, i32 0, i32 0, i32 0), [16 x i8] c"\0E\00\00\00\00\00\00\00\83\03\00\00\09\00\00\00" }>, align 8
@alloc1198 = private unnamed_addr constant <{ i8*, [16 x i8] }> <{ i8* getelementptr inbounds (<{ [14 x i8] }>, <{ [14 x i8] }>* @alloc1531, i32 0, i32 0, i32 0), [16 x i8] c"\0E\00\00\00\00\00\00\00\86\03\00\00\09\00\00\00" }>, align 8
@alloc1200 = private unnamed_addr constant <{ i8*, [16 x i8] }> <{ i8* getelementptr inbounds (<{ [14 x i8] }>, <{ [14 x i8] }>* @alloc1531, i32 0, i32 0, i32 0), [16 x i8] c"\0E\00\00\00\00\00\00\00\89\03\00\00\09\00\00\00" }>, align 8
@alloc1202 = private unnamed_addr constant <{ i8*, [16 x i8] }> <{ i8* getelementptr inbounds (<{ [14 x i8] }>, <{ [14 x i8] }>* @alloc1531, i32 0, i32 0, i32 0), [16 x i8] c"\0E\00\00\00\00\00\00\00\94\03\00\00\09\00\00\00" }>, align 8
@alloc1204 = private unnamed_addr constant <{ i8*, [16 x i8] }> <{ i8* getelementptr inbounds (<{ [14 x i8] }>, <{ [14 x i8] }>* @alloc1531, i32 0, i32 0, i32 0), [16 x i8] c"\0E\00\00\00\00\00\00\00\98\03\00\00\09\00\00\00" }>, align 8
@alloc1206 = private unnamed_addr constant <{ i8*, [16 x i8] }> <{ i8* getelementptr inbounds (<{ [14 x i8] }>, <{ [14 x i8] }>* @alloc1531, i32 0, i32 0, i32 0), [16 x i8] c"\0E\00\00\00\00\00\00\00\9C\03\00\00\09\00\00\00" }>, align 8
@alloc1208 = private unnamed_addr constant <{ i8*, [16 x i8] }> <{ i8* getelementptr inbounds (<{ [14 x i8] }>, <{ [14 x i8] }>* @alloc1531, i32 0, i32 0, i32 0), [16 x i8] c"\0E\00\00\00\00\00\00\00\9F\03\00\00\09\00\00\00" }>, align 8
@alloc1210 = private unnamed_addr constant <{ i8*, [16 x i8] }> <{ i8* getelementptr inbounds (<{ [14 x i8] }>, <{ [14 x i8] }>* @alloc1531, i32 0, i32 0, i32 0), [16 x i8] c"\0E\00\00\00\00\00\00\00\A2\03\00\00\09\00\00\00" }>, align 8
@alloc1212 = private unnamed_addr constant <{ i8*, [16 x i8] }> <{ i8* getelementptr inbounds (<{ [14 x i8] }>, <{ [14 x i8] }>* @alloc1531, i32 0, i32 0, i32 0), [16 x i8] c"\0E\00\00\00\00\00\00\00\A5\03\00\00\09\00\00\00" }>, align 8
@alloc1214 = private unnamed_addr constant <{ i8*, [16 x i8] }> <{ i8* getelementptr inbounds (<{ [14 x i8] }>, <{ [14 x i8] }>* @alloc1531, i32 0, i32 0, i32 0), [16 x i8] c"\0E\00\00\00\00\00\00\00\A8\03\00\00\09\00\00\00" }>, align 8
@alloc1216 = private unnamed_addr constant <{ i8*, [16 x i8] }> <{ i8* getelementptr inbounds (<{ [14 x i8] }>, <{ [14 x i8] }>* @alloc1531, i32 0, i32 0, i32 0), [16 x i8] c"\0E\00\00\00\00\00\00\00\AB\03\00\00\09\00\00\00" }>, align 8
@alloc1218 = private unnamed_addr constant <{ i8*, [16 x i8] }> <{ i8* getelementptr inbounds (<{ [14 x i8] }>, <{ [14 x i8] }>* @alloc1531, i32 0, i32 0, i32 0), [16 x i8] c"\0E\00\00\00\00\00\00\00\B2\03\00\00\09\00\00\00" }>, align 8
@alloc1220 = private unnamed_addr constant <{ i8*, [16 x i8] }> <{ i8* getelementptr inbounds (<{ [14 x i8] }>, <{ [14 x i8] }>* @alloc1531, i32 0, i32 0, i32 0), [16 x i8] c"\0E\00\00\00\00\00\00\00\B5\03\00\00\09\00\00\00" }>, align 8
@alloc1222 = private unnamed_addr constant <{ i8*, [16 x i8] }> <{ i8* getelementptr inbounds (<{ [14 x i8] }>, <{ [14 x i8] }>* @alloc1531, i32 0, i32 0, i32 0), [16 x i8] c"\0E\00\00\00\00\00\00\00\B8\03\00\00\09\00\00\00" }>, align 8
@alloc1224 = private unnamed_addr constant <{ i8*, [16 x i8] }> <{ i8* getelementptr inbounds (<{ [14 x i8] }>, <{ [14 x i8] }>* @alloc1531, i32 0, i32 0, i32 0), [16 x i8] c"\0E\00\00\00\00\00\00\00\C3\03\00\00\09\00\00\00" }>, align 8
@alloc1226 = private unnamed_addr constant <{ i8*, [16 x i8] }> <{ i8* getelementptr inbounds (<{ [14 x i8] }>, <{ [14 x i8] }>* @alloc1531, i32 0, i32 0, i32 0), [16 x i8] c"\0E\00\00\00\00\00\00\00\C7\03\00\00\09\00\00\00" }>, align 8
@alloc1228 = private unnamed_addr constant <{ i8*, [16 x i8] }> <{ i8* getelementptr inbounds (<{ [14 x i8] }>, <{ [14 x i8] }>* @alloc1531, i32 0, i32 0, i32 0), [16 x i8] c"\0E\00\00\00\00\00\00\00\CB\03\00\00\09\00\00\00" }>, align 8
@alloc1230 = private unnamed_addr constant <{ i8*, [16 x i8] }> <{ i8* getelementptr inbounds (<{ [14 x i8] }>, <{ [14 x i8] }>* @alloc1531, i32 0, i32 0, i32 0), [16 x i8] c"\0E\00\00\00\00\00\00\00\CE\03\00\00\09\00\00\00" }>, align 8
@alloc1232 = private unnamed_addr constant <{ i8*, [16 x i8] }> <{ i8* getelementptr inbounds (<{ [14 x i8] }>, <{ [14 x i8] }>* @alloc1531, i32 0, i32 0, i32 0), [16 x i8] c"\0E\00\00\00\00\00\00\00\D1\03\00\00\09\00\00\00" }>, align 8
@alloc1234 = private unnamed_addr constant <{ i8*, [16 x i8] }> <{ i8* getelementptr inbounds (<{ [14 x i8] }>, <{ [14 x i8] }>* @alloc1531, i32 0, i32 0, i32 0), [16 x i8] c"\0E\00\00\00\00\00\00\00\D4\03\00\00\09\00\00\00" }>, align 8
@alloc1236 = private unnamed_addr constant <{ i8*, [16 x i8] }> <{ i8* getelementptr inbounds (<{ [14 x i8] }>, <{ [14 x i8] }>* @alloc1531, i32 0, i32 0, i32 0), [16 x i8] c"\0E\00\00\00\00\00\00\00\D7\03\00\00\09\00\00\00" }>, align 8
@alloc1238 = private unnamed_addr constant <{ i8*, [16 x i8] }> <{ i8* getelementptr inbounds (<{ [14 x i8] }>, <{ [14 x i8] }>* @alloc1531, i32 0, i32 0, i32 0), [16 x i8] c"\0E\00\00\00\00\00\00\00\DA\03\00\00\09\00\00\00" }>, align 8
@alloc1240 = private unnamed_addr constant <{ i8*, [16 x i8] }> <{ i8* getelementptr inbounds (<{ [14 x i8] }>, <{ [14 x i8] }>* @alloc1531, i32 0, i32 0, i32 0), [16 x i8] c"\0E\00\00\00\00\00\00\00\E1\03\00\00\09\00\00\00" }>, align 8
@alloc1242 = private unnamed_addr constant <{ i8*, [16 x i8] }> <{ i8* getelementptr inbounds (<{ [14 x i8] }>, <{ [14 x i8] }>* @alloc1531, i32 0, i32 0, i32 0), [16 x i8] c"\0E\00\00\00\00\00\00\00\E4\03\00\00\09\00\00\00" }>, align 8
@alloc1244 = private unnamed_addr constant <{ i8*, [16 x i8] }> <{ i8* getelementptr inbounds (<{ [14 x i8] }>, <{ [14 x i8] }>* @alloc1531, i32 0, i32 0, i32 0), [16 x i8] c"\0E\00\00\00\00\00\00\00\E7\03\00\00\09\00\00\00" }>, align 8
@alloc1246 = private unnamed_addr constant <{ i8*, [16 x i8] }> <{ i8* getelementptr inbounds (<{ [14 x i8] }>, <{ [14 x i8] }>* @alloc1531, i32 0, i32 0, i32 0), [16 x i8] c"\0E\00\00\00\00\00\00\00\F2\03\00\00\09\00\00\00" }>, align 8
@alloc1248 = private unnamed_addr constant <{ i8*, [16 x i8] }> <{ i8* getelementptr inbounds (<{ [14 x i8] }>, <{ [14 x i8] }>* @alloc1531, i32 0, i32 0, i32 0), [16 x i8] c"\0E\00\00\00\00\00\00\00\F6\03\00\00\09\00\00\00" }>, align 8
@alloc1250 = private unnamed_addr constant <{ i8*, [16 x i8] }> <{ i8* getelementptr inbounds (<{ [14 x i8] }>, <{ [14 x i8] }>* @alloc1531, i32 0, i32 0, i32 0), [16 x i8] c"\0E\00\00\00\00\00\00\00\FA\03\00\00\09\00\00\00" }>, align 8
@alloc1252 = private unnamed_addr constant <{ i8*, [16 x i8] }> <{ i8* getelementptr inbounds (<{ [14 x i8] }>, <{ [14 x i8] }>* @alloc1531, i32 0, i32 0, i32 0), [16 x i8] c"\0E\00\00\00\00\00\00\00\FD\03\00\00\09\00\00\00" }>, align 8
@alloc1254 = private unnamed_addr constant <{ i8*, [16 x i8] }> <{ i8* getelementptr inbounds (<{ [14 x i8] }>, <{ [14 x i8] }>* @alloc1531, i32 0, i32 0, i32 0), [16 x i8] c"\0E\00\00\00\00\00\00\00\00\04\00\00\09\00\00\00" }>, align 8
@alloc1256 = private unnamed_addr constant <{ i8*, [16 x i8] }> <{ i8* getelementptr inbounds (<{ [14 x i8] }>, <{ [14 x i8] }>* @alloc1531, i32 0, i32 0, i32 0), [16 x i8] c"\0E\00\00\00\00\00\00\00\03\04\00\00\09\00\00\00" }>, align 8
@alloc1258 = private unnamed_addr constant <{ i8*, [16 x i8] }> <{ i8* getelementptr inbounds (<{ [14 x i8] }>, <{ [14 x i8] }>* @alloc1531, i32 0, i32 0, i32 0), [16 x i8] c"\0E\00\00\00\00\00\00\00\06\04\00\00\09\00\00\00" }>, align 8
@alloc1260 = private unnamed_addr constant <{ i8*, [16 x i8] }> <{ i8* getelementptr inbounds (<{ [14 x i8] }>, <{ [14 x i8] }>* @alloc1531, i32 0, i32 0, i32 0), [16 x i8] c"\0E\00\00\00\00\00\00\00\09\04\00\00\09\00\00\00" }>, align 8
@alloc1262 = private unnamed_addr constant <{ i8*, [16 x i8] }> <{ i8* getelementptr inbounds (<{ [14 x i8] }>, <{ [14 x i8] }>* @alloc1531, i32 0, i32 0, i32 0), [16 x i8] c"\0E\00\00\00\00\00\00\00\10\04\00\00\09\00\00\00" }>, align 8
@alloc1264 = private unnamed_addr constant <{ i8*, [16 x i8] }> <{ i8* getelementptr inbounds (<{ [14 x i8] }>, <{ [14 x i8] }>* @alloc1531, i32 0, i32 0, i32 0), [16 x i8] c"\0E\00\00\00\00\00\00\00\13\04\00\00\09\00\00\00" }>, align 8
@alloc1266 = private unnamed_addr constant <{ i8*, [16 x i8] }> <{ i8* getelementptr inbounds (<{ [14 x i8] }>, <{ [14 x i8] }>* @alloc1531, i32 0, i32 0, i32 0), [16 x i8] c"\0E\00\00\00\00\00\00\00\16\04\00\00\09\00\00\00" }>, align 8
@alloc1268 = private unnamed_addr constant <{ i8*, [16 x i8] }> <{ i8* getelementptr inbounds (<{ [14 x i8] }>, <{ [14 x i8] }>* @alloc1531, i32 0, i32 0, i32 0), [16 x i8] c"\0E\00\00\00\00\00\00\00!\04\00\00\09\00\00\00" }>, align 8
@alloc1270 = private unnamed_addr constant <{ i8*, [16 x i8] }> <{ i8* getelementptr inbounds (<{ [14 x i8] }>, <{ [14 x i8] }>* @alloc1531, i32 0, i32 0, i32 0), [16 x i8] c"\0E\00\00\00\00\00\00\00%\04\00\00\09\00\00\00" }>, align 8
@alloc1272 = private unnamed_addr constant <{ i8*, [16 x i8] }> <{ i8* getelementptr inbounds (<{ [14 x i8] }>, <{ [14 x i8] }>* @alloc1531, i32 0, i32 0, i32 0), [16 x i8] c"\0E\00\00\00\00\00\00\00)\04\00\00\09\00\00\00" }>, align 8
@alloc1274 = private unnamed_addr constant <{ i8*, [16 x i8] }> <{ i8* getelementptr inbounds (<{ [14 x i8] }>, <{ [14 x i8] }>* @alloc1531, i32 0, i32 0, i32 0), [16 x i8] c"\0E\00\00\00\00\00\00\00,\04\00\00\09\00\00\00" }>, align 8
@alloc1276 = private unnamed_addr constant <{ i8*, [16 x i8] }> <{ i8* getelementptr inbounds (<{ [14 x i8] }>, <{ [14 x i8] }>* @alloc1531, i32 0, i32 0, i32 0), [16 x i8] c"\0E\00\00\00\00\00\00\00/\04\00\00\09\00\00\00" }>, align 8
@alloc1278 = private unnamed_addr constant <{ i8*, [16 x i8] }> <{ i8* getelementptr inbounds (<{ [14 x i8] }>, <{ [14 x i8] }>* @alloc1531, i32 0, i32 0, i32 0), [16 x i8] c"\0E\00\00\00\00\00\00\002\04\00\00\09\00\00\00" }>, align 8
@alloc1280 = private unnamed_addr constant <{ i8*, [16 x i8] }> <{ i8* getelementptr inbounds (<{ [14 x i8] }>, <{ [14 x i8] }>* @alloc1531, i32 0, i32 0, i32 0), [16 x i8] c"\0E\00\00\00\00\00\00\005\04\00\00\09\00\00\00" }>, align 8
@alloc1282 = private unnamed_addr constant <{ i8*, [16 x i8] }> <{ i8* getelementptr inbounds (<{ [14 x i8] }>, <{ [14 x i8] }>* @alloc1531, i32 0, i32 0, i32 0), [16 x i8] c"\0E\00\00\00\00\00\00\008\04\00\00\09\00\00\00" }>, align 8
@alloc1284 = private unnamed_addr constant <{ i8*, [16 x i8] }> <{ i8* getelementptr inbounds (<{ [14 x i8] }>, <{ [14 x i8] }>* @alloc1531, i32 0, i32 0, i32 0), [16 x i8] c"\0E\00\00\00\00\00\00\00?\04\00\00\09\00\00\00" }>, align 8
@alloc1286 = private unnamed_addr constant <{ i8*, [16 x i8] }> <{ i8* getelementptr inbounds (<{ [14 x i8] }>, <{ [14 x i8] }>* @alloc1531, i32 0, i32 0, i32 0), [16 x i8] c"\0E\00\00\00\00\00\00\00B\04\00\00\09\00\00\00" }>, align 8
@alloc1288 = private unnamed_addr constant <{ i8*, [16 x i8] }> <{ i8* getelementptr inbounds (<{ [14 x i8] }>, <{ [14 x i8] }>* @alloc1531, i32 0, i32 0, i32 0), [16 x i8] c"\0E\00\00\00\00\00\00\00E\04\00\00\09\00\00\00" }>, align 8
@alloc1290 = private unnamed_addr constant <{ i8*, [16 x i8] }> <{ i8* getelementptr inbounds (<{ [14 x i8] }>, <{ [14 x i8] }>* @alloc1531, i32 0, i32 0, i32 0), [16 x i8] c"\0E\00\00\00\00\00\00\00P\04\00\00\09\00\00\00" }>, align 8
@alloc1292 = private unnamed_addr constant <{ i8*, [16 x i8] }> <{ i8* getelementptr inbounds (<{ [14 x i8] }>, <{ [14 x i8] }>* @alloc1531, i32 0, i32 0, i32 0), [16 x i8] c"\0E\00\00\00\00\00\00\00T\04\00\00\09\00\00\00" }>, align 8
@alloc1294 = private unnamed_addr constant <{ i8*, [16 x i8] }> <{ i8* getelementptr inbounds (<{ [14 x i8] }>, <{ [14 x i8] }>* @alloc1531, i32 0, i32 0, i32 0), [16 x i8] c"\0E\00\00\00\00\00\00\00X\04\00\00\09\00\00\00" }>, align 8
@alloc1296 = private unnamed_addr constant <{ i8*, [16 x i8] }> <{ i8* getelementptr inbounds (<{ [14 x i8] }>, <{ [14 x i8] }>* @alloc1531, i32 0, i32 0, i32 0), [16 x i8] c"\0E\00\00\00\00\00\00\00[\04\00\00\09\00\00\00" }>, align 8
@alloc1298 = private unnamed_addr constant <{ i8*, [16 x i8] }> <{ i8* getelementptr inbounds (<{ [14 x i8] }>, <{ [14 x i8] }>* @alloc1531, i32 0, i32 0, i32 0), [16 x i8] c"\0E\00\00\00\00\00\00\00^\04\00\00\09\00\00\00" }>, align 8
@alloc1300 = private unnamed_addr constant <{ i8*, [16 x i8] }> <{ i8* getelementptr inbounds (<{ [14 x i8] }>, <{ [14 x i8] }>* @alloc1531, i32 0, i32 0, i32 0), [16 x i8] c"\0E\00\00\00\00\00\00\00a\04\00\00\09\00\00\00" }>, align 8
@alloc1302 = private unnamed_addr constant <{ i8*, [16 x i8] }> <{ i8* getelementptr inbounds (<{ [14 x i8] }>, <{ [14 x i8] }>* @alloc1531, i32 0, i32 0, i32 0), [16 x i8] c"\0E\00\00\00\00\00\00\00d\04\00\00\09\00\00\00" }>, align 8
@alloc1304 = private unnamed_addr constant <{ i8*, [16 x i8] }> <{ i8* getelementptr inbounds (<{ [14 x i8] }>, <{ [14 x i8] }>* @alloc1531, i32 0, i32 0, i32 0), [16 x i8] c"\0E\00\00\00\00\00\00\00g\04\00\00\09\00\00\00" }>, align 8
@alloc1306 = private unnamed_addr constant <{ i8*, [16 x i8] }> <{ i8* getelementptr inbounds (<{ [14 x i8] }>, <{ [14 x i8] }>* @alloc1531, i32 0, i32 0, i32 0), [16 x i8] c"\0E\00\00\00\00\00\00\00n\04\00\00\09\00\00\00" }>, align 8
@alloc1308 = private unnamed_addr constant <{ i8*, [16 x i8] }> <{ i8* getelementptr inbounds (<{ [14 x i8] }>, <{ [14 x i8] }>* @alloc1531, i32 0, i32 0, i32 0), [16 x i8] c"\0E\00\00\00\00\00\00\00q\04\00\00\09\00\00\00" }>, align 8
@alloc1310 = private unnamed_addr constant <{ i8*, [16 x i8] }> <{ i8* getelementptr inbounds (<{ [14 x i8] }>, <{ [14 x i8] }>* @alloc1531, i32 0, i32 0, i32 0), [16 x i8] c"\0E\00\00\00\00\00\00\00t\04\00\00\09\00\00\00" }>, align 8
@alloc1312 = private unnamed_addr constant <{ i8*, [16 x i8] }> <{ i8* getelementptr inbounds (<{ [14 x i8] }>, <{ [14 x i8] }>* @alloc1531, i32 0, i32 0, i32 0), [16 x i8] c"\0E\00\00\00\00\00\00\00\7F\04\00\00\09\00\00\00" }>, align 8
@alloc1314 = private unnamed_addr constant <{ i8*, [16 x i8] }> <{ i8* getelementptr inbounds (<{ [14 x i8] }>, <{ [14 x i8] }>* @alloc1531, i32 0, i32 0, i32 0), [16 x i8] c"\0E\00\00\00\00\00\00\00\83\04\00\00\09\00\00\00" }>, align 8
@alloc1316 = private unnamed_addr constant <{ i8*, [16 x i8] }> <{ i8* getelementptr inbounds (<{ [14 x i8] }>, <{ [14 x i8] }>* @alloc1531, i32 0, i32 0, i32 0), [16 x i8] c"\0E\00\00\00\00\00\00\00\87\04\00\00\09\00\00\00" }>, align 8
@alloc1318 = private unnamed_addr constant <{ i8*, [16 x i8] }> <{ i8* getelementptr inbounds (<{ [14 x i8] }>, <{ [14 x i8] }>* @alloc1531, i32 0, i32 0, i32 0), [16 x i8] c"\0E\00\00\00\00\00\00\00\8A\04\00\00\09\00\00\00" }>, align 8
@alloc1320 = private unnamed_addr constant <{ i8*, [16 x i8] }> <{ i8* getelementptr inbounds (<{ [14 x i8] }>, <{ [14 x i8] }>* @alloc1531, i32 0, i32 0, i32 0), [16 x i8] c"\0E\00\00\00\00\00\00\00\8D\04\00\00\09\00\00\00" }>, align 8
@alloc1322 = private unnamed_addr constant <{ i8*, [16 x i8] }> <{ i8* getelementptr inbounds (<{ [14 x i8] }>, <{ [14 x i8] }>* @alloc1531, i32 0, i32 0, i32 0), [16 x i8] c"\0E\00\00\00\00\00\00\00\90\04\00\00\09\00\00\00" }>, align 8
@alloc1324 = private unnamed_addr constant <{ i8*, [16 x i8] }> <{ i8* getelementptr inbounds (<{ [14 x i8] }>, <{ [14 x i8] }>* @alloc1531, i32 0, i32 0, i32 0), [16 x i8] c"\0E\00\00\00\00\00\00\00\93\04\00\00\09\00\00\00" }>, align 8
@alloc1326 = private unnamed_addr constant <{ i8*, [16 x i8] }> <{ i8* getelementptr inbounds (<{ [14 x i8] }>, <{ [14 x i8] }>* @alloc1531, i32 0, i32 0, i32 0), [16 x i8] c"\0E\00\00\00\00\00\00\00\96\04\00\00\09\00\00\00" }>, align 8
@alloc1328 = private unnamed_addr constant <{ i8*, [16 x i8] }> <{ i8* getelementptr inbounds (<{ [14 x i8] }>, <{ [14 x i8] }>* @alloc1531, i32 0, i32 0, i32 0), [16 x i8] c"\0E\00\00\00\00\00\00\00\9D\04\00\00\09\00\00\00" }>, align 8
@alloc1330 = private unnamed_addr constant <{ i8*, [16 x i8] }> <{ i8* getelementptr inbounds (<{ [14 x i8] }>, <{ [14 x i8] }>* @alloc1531, i32 0, i32 0, i32 0), [16 x i8] c"\0E\00\00\00\00\00\00\00\A0\04\00\00\09\00\00\00" }>, align 8
@alloc1332 = private unnamed_addr constant <{ i8*, [16 x i8] }> <{ i8* getelementptr inbounds (<{ [14 x i8] }>, <{ [14 x i8] }>* @alloc1531, i32 0, i32 0, i32 0), [16 x i8] c"\0E\00\00\00\00\00\00\00\A3\04\00\00\09\00\00\00" }>, align 8
@alloc1334 = private unnamed_addr constant <{ i8*, [16 x i8] }> <{ i8* getelementptr inbounds (<{ [14 x i8] }>, <{ [14 x i8] }>* @alloc1531, i32 0, i32 0, i32 0), [16 x i8] c"\0E\00\00\00\00\00\00\00\AD\04\00\00\09\00\00\00" }>, align 8
@alloc1336 = private unnamed_addr constant <{ i8*, [16 x i8] }> <{ i8* getelementptr inbounds (<{ [14 x i8] }>, <{ [14 x i8] }>* @alloc1531, i32 0, i32 0, i32 0), [16 x i8] c"\0E\00\00\00\00\00\00\00\B1\04\00\00\09\00\00\00" }>, align 8
@alloc1338 = private unnamed_addr constant <{ i8*, [16 x i8] }> <{ i8* getelementptr inbounds (<{ [14 x i8] }>, <{ [14 x i8] }>* @alloc1531, i32 0, i32 0, i32 0), [16 x i8] c"\0E\00\00\00\00\00\00\00\B5\04\00\00\09\00\00\00" }>, align 8
@alloc1340 = private unnamed_addr constant <{ i8*, [16 x i8] }> <{ i8* getelementptr inbounds (<{ [14 x i8] }>, <{ [14 x i8] }>* @alloc1531, i32 0, i32 0, i32 0), [16 x i8] c"\0E\00\00\00\00\00\00\00\B8\04\00\00\09\00\00\00" }>, align 8
@alloc1342 = private unnamed_addr constant <{ i8*, [16 x i8] }> <{ i8* getelementptr inbounds (<{ [14 x i8] }>, <{ [14 x i8] }>* @alloc1531, i32 0, i32 0, i32 0), [16 x i8] c"\0E\00\00\00\00\00\00\00\BB\04\00\00\09\00\00\00" }>, align 8
@alloc1344 = private unnamed_addr constant <{ i8*, [16 x i8] }> <{ i8* getelementptr inbounds (<{ [14 x i8] }>, <{ [14 x i8] }>* @alloc1531, i32 0, i32 0, i32 0), [16 x i8] c"\0E\00\00\00\00\00\00\00\C5\04\00\00\09\00\00\00" }>, align 8
@alloc1346 = private unnamed_addr constant <{ i8*, [16 x i8] }> <{ i8* getelementptr inbounds (<{ [14 x i8] }>, <{ [14 x i8] }>* @alloc1531, i32 0, i32 0, i32 0), [16 x i8] c"\0E\00\00\00\00\00\00\00\C9\04\00\00\09\00\00\00" }>, align 8
@alloc1348 = private unnamed_addr constant <{ i8*, [16 x i8] }> <{ i8* getelementptr inbounds (<{ [14 x i8] }>, <{ [14 x i8] }>* @alloc1531, i32 0, i32 0, i32 0), [16 x i8] c"\0E\00\00\00\00\00\00\00\CD\04\00\00\09\00\00\00" }>, align 8
@alloc1350 = private unnamed_addr constant <{ i8*, [16 x i8] }> <{ i8* getelementptr inbounds (<{ [14 x i8] }>, <{ [14 x i8] }>* @alloc1531, i32 0, i32 0, i32 0), [16 x i8] c"\0E\00\00\00\00\00\00\00\D0\04\00\00\09\00\00\00" }>, align 8
@alloc1352 = private unnamed_addr constant <{ i8*, [16 x i8] }> <{ i8* getelementptr inbounds (<{ [14 x i8] }>, <{ [14 x i8] }>* @alloc1531, i32 0, i32 0, i32 0), [16 x i8] c"\0E\00\00\00\00\00\00\00\D3\04\00\00\09\00\00\00" }>, align 8
@alloc1354 = private unnamed_addr constant <{ i8*, [16 x i8] }> <{ i8* getelementptr inbounds (<{ [14 x i8] }>, <{ [14 x i8] }>* @alloc1531, i32 0, i32 0, i32 0), [16 x i8] c"\0E\00\00\00\00\00\00\00\DD\04\00\00\09\00\00\00" }>, align 8
@alloc1356 = private unnamed_addr constant <{ i8*, [16 x i8] }> <{ i8* getelementptr inbounds (<{ [14 x i8] }>, <{ [14 x i8] }>* @alloc1531, i32 0, i32 0, i32 0), [16 x i8] c"\0E\00\00\00\00\00\00\00\E1\04\00\00\09\00\00\00" }>, align 8
@alloc1358 = private unnamed_addr constant <{ i8*, [16 x i8] }> <{ i8* getelementptr inbounds (<{ [14 x i8] }>, <{ [14 x i8] }>* @alloc1531, i32 0, i32 0, i32 0), [16 x i8] c"\0E\00\00\00\00\00\00\00\E5\04\00\00\09\00\00\00" }>, align 8
@alloc1360 = private unnamed_addr constant <{ i8*, [16 x i8] }> <{ i8* getelementptr inbounds (<{ [14 x i8] }>, <{ [14 x i8] }>* @alloc1531, i32 0, i32 0, i32 0), [16 x i8] c"\0E\00\00\00\00\00\00\00\E8\04\00\00\09\00\00\00" }>, align 8
@alloc1362 = private unnamed_addr constant <{ i8*, [16 x i8] }> <{ i8* getelementptr inbounds (<{ [14 x i8] }>, <{ [14 x i8] }>* @alloc1531, i32 0, i32 0, i32 0), [16 x i8] c"\0E\00\00\00\00\00\00\00\EB\04\00\00\09\00\00\00" }>, align 8
@alloc1364 = private unnamed_addr constant <{ i8*, [16 x i8] }> <{ i8* getelementptr inbounds (<{ [14 x i8] }>, <{ [14 x i8] }>* @alloc1531, i32 0, i32 0, i32 0), [16 x i8] c"\0E\00\00\00\00\00\00\00\F5\04\00\00\09\00\00\00" }>, align 8
@alloc1366 = private unnamed_addr constant <{ i8*, [16 x i8] }> <{ i8* getelementptr inbounds (<{ [14 x i8] }>, <{ [14 x i8] }>* @alloc1531, i32 0, i32 0, i32 0), [16 x i8] c"\0E\00\00\00\00\00\00\00\F9\04\00\00\09\00\00\00" }>, align 8
@alloc1368 = private unnamed_addr constant <{ i8*, [16 x i8] }> <{ i8* getelementptr inbounds (<{ [14 x i8] }>, <{ [14 x i8] }>* @alloc1531, i32 0, i32 0, i32 0), [16 x i8] c"\0E\00\00\00\00\00\00\00\FD\04\00\00\09\00\00\00" }>, align 8
@alloc1370 = private unnamed_addr constant <{ i8*, [16 x i8] }> <{ i8* getelementptr inbounds (<{ [14 x i8] }>, <{ [14 x i8] }>* @alloc1531, i32 0, i32 0, i32 0), [16 x i8] c"\0E\00\00\00\00\00\00\00\00\05\00\00\09\00\00\00" }>, align 8
@alloc1372 = private unnamed_addr constant <{ i8*, [16 x i8] }> <{ i8* getelementptr inbounds (<{ [14 x i8] }>, <{ [14 x i8] }>* @alloc1531, i32 0, i32 0, i32 0), [16 x i8] c"\0E\00\00\00\00\00\00\00\03\05\00\00\09\00\00\00" }>, align 8
@alloc1374 = private unnamed_addr constant <{ i8*, [16 x i8] }> <{ i8* getelementptr inbounds (<{ [14 x i8] }>, <{ [14 x i8] }>* @alloc1531, i32 0, i32 0, i32 0), [16 x i8] c"\0E\00\00\00\00\00\00\00\0D\05\00\00\09\00\00\00" }>, align 8
@alloc1376 = private unnamed_addr constant <{ i8*, [16 x i8] }> <{ i8* getelementptr inbounds (<{ [14 x i8] }>, <{ [14 x i8] }>* @alloc1531, i32 0, i32 0, i32 0), [16 x i8] c"\0E\00\00\00\00\00\00\00\11\05\00\00\09\00\00\00" }>, align 8
@alloc1378 = private unnamed_addr constant <{ i8*, [16 x i8] }> <{ i8* getelementptr inbounds (<{ [14 x i8] }>, <{ [14 x i8] }>* @alloc1531, i32 0, i32 0, i32 0), [16 x i8] c"\0E\00\00\00\00\00\00\00\15\05\00\00\09\00\00\00" }>, align 8
@alloc1380 = private unnamed_addr constant <{ i8*, [16 x i8] }> <{ i8* getelementptr inbounds (<{ [14 x i8] }>, <{ [14 x i8] }>* @alloc1531, i32 0, i32 0, i32 0), [16 x i8] c"\0E\00\00\00\00\00\00\00\18\05\00\00\09\00\00\00" }>, align 8
@alloc1382 = private unnamed_addr constant <{ i8*, [16 x i8] }> <{ i8* getelementptr inbounds (<{ [14 x i8] }>, <{ [14 x i8] }>* @alloc1531, i32 0, i32 0, i32 0), [16 x i8] c"\0E\00\00\00\00\00\00\00\1B\05\00\00\09\00\00\00" }>, align 8
@alloc1384 = private unnamed_addr constant <{ i8*, [16 x i8] }> <{ i8* getelementptr inbounds (<{ [14 x i8] }>, <{ [14 x i8] }>* @alloc1531, i32 0, i32 0, i32 0), [16 x i8] c"\0E\00\00\00\00\00\00\00%\05\00\00\09\00\00\00" }>, align 8
@alloc1386 = private unnamed_addr constant <{ i8*, [16 x i8] }> <{ i8* getelementptr inbounds (<{ [14 x i8] }>, <{ [14 x i8] }>* @alloc1531, i32 0, i32 0, i32 0), [16 x i8] c"\0E\00\00\00\00\00\00\00)\05\00\00\09\00\00\00" }>, align 8
@alloc1388 = private unnamed_addr constant <{ i8*, [16 x i8] }> <{ i8* getelementptr inbounds (<{ [14 x i8] }>, <{ [14 x i8] }>* @alloc1531, i32 0, i32 0, i32 0), [16 x i8] c"\0E\00\00\00\00\00\00\00-\05\00\00\09\00\00\00" }>, align 8
@alloc1390 = private unnamed_addr constant <{ i8*, [16 x i8] }> <{ i8* getelementptr inbounds (<{ [14 x i8] }>, <{ [14 x i8] }>* @alloc1531, i32 0, i32 0, i32 0), [16 x i8] c"\0E\00\00\00\00\00\00\000\05\00\00\09\00\00\00" }>, align 8
@alloc1392 = private unnamed_addr constant <{ i8*, [16 x i8] }> <{ i8* getelementptr inbounds (<{ [14 x i8] }>, <{ [14 x i8] }>* @alloc1531, i32 0, i32 0, i32 0), [16 x i8] c"\0E\00\00\00\00\00\00\003\05\00\00\09\00\00\00" }>, align 8
@alloc1394 = private unnamed_addr constant <{ i8*, [16 x i8] }> <{ i8* getelementptr inbounds (<{ [14 x i8] }>, <{ [14 x i8] }>* @alloc1531, i32 0, i32 0, i32 0), [16 x i8] c"\0E\00\00\00\00\00\00\00=\05\00\00\09\00\00\00" }>, align 8
@alloc1396 = private unnamed_addr constant <{ i8*, [16 x i8] }> <{ i8* getelementptr inbounds (<{ [14 x i8] }>, <{ [14 x i8] }>* @alloc1531, i32 0, i32 0, i32 0), [16 x i8] c"\0E\00\00\00\00\00\00\00A\05\00\00\09\00\00\00" }>, align 8
@alloc1398 = private unnamed_addr constant <{ i8*, [16 x i8] }> <{ i8* getelementptr inbounds (<{ [14 x i8] }>, <{ [14 x i8] }>* @alloc1531, i32 0, i32 0, i32 0), [16 x i8] c"\0E\00\00\00\00\00\00\00E\05\00\00\09\00\00\00" }>, align 8
@alloc1400 = private unnamed_addr constant <{ i8*, [16 x i8] }> <{ i8* getelementptr inbounds (<{ [14 x i8] }>, <{ [14 x i8] }>* @alloc1531, i32 0, i32 0, i32 0), [16 x i8] c"\0E\00\00\00\00\00\00\00H\05\00\00\09\00\00\00" }>, align 8
@alloc1402 = private unnamed_addr constant <{ i8*, [16 x i8] }> <{ i8* getelementptr inbounds (<{ [14 x i8] }>, <{ [14 x i8] }>* @alloc1531, i32 0, i32 0, i32 0), [16 x i8] c"\0E\00\00\00\00\00\00\00K\05\00\00\09\00\00\00" }>, align 8
@alloc1404 = private unnamed_addr constant <{ i8*, [16 x i8] }> <{ i8* getelementptr inbounds (<{ [14 x i8] }>, <{ [14 x i8] }>* @alloc1531, i32 0, i32 0, i32 0), [16 x i8] c"\0E\00\00\00\00\00\00\00U\05\00\00\09\00\00\00" }>, align 8
@alloc1406 = private unnamed_addr constant <{ i8*, [16 x i8] }> <{ i8* getelementptr inbounds (<{ [14 x i8] }>, <{ [14 x i8] }>* @alloc1531, i32 0, i32 0, i32 0), [16 x i8] c"\0E\00\00\00\00\00\00\00Y\05\00\00\09\00\00\00" }>, align 8
@alloc1408 = private unnamed_addr constant <{ i8*, [16 x i8] }> <{ i8* getelementptr inbounds (<{ [14 x i8] }>, <{ [14 x i8] }>* @alloc1531, i32 0, i32 0, i32 0), [16 x i8] c"\0E\00\00\00\00\00\00\00]\05\00\00\09\00\00\00" }>, align 8
@alloc1410 = private unnamed_addr constant <{ i8*, [16 x i8] }> <{ i8* getelementptr inbounds (<{ [14 x i8] }>, <{ [14 x i8] }>* @alloc1531, i32 0, i32 0, i32 0), [16 x i8] c"\0E\00\00\00\00\00\00\00`\05\00\00\09\00\00\00" }>, align 8
@alloc1412 = private unnamed_addr constant <{ i8*, [16 x i8] }> <{ i8* getelementptr inbounds (<{ [14 x i8] }>, <{ [14 x i8] }>* @alloc1531, i32 0, i32 0, i32 0), [16 x i8] c"\0E\00\00\00\00\00\00\00c\05\00\00\09\00\00\00" }>, align 8
@alloc1414 = private unnamed_addr constant <{ i8*, [16 x i8] }> <{ i8* getelementptr inbounds (<{ [14 x i8] }>, <{ [14 x i8] }>* @alloc1531, i32 0, i32 0, i32 0), [16 x i8] c"\0E\00\00\00\00\00\00\00m\05\00\00\09\00\00\00" }>, align 8
@alloc1416 = private unnamed_addr constant <{ i8*, [16 x i8] }> <{ i8* getelementptr inbounds (<{ [14 x i8] }>, <{ [14 x i8] }>* @alloc1531, i32 0, i32 0, i32 0), [16 x i8] c"\0E\00\00\00\00\00\00\00q\05\00\00\09\00\00\00" }>, align 8
@alloc1418 = private unnamed_addr constant <{ i8*, [16 x i8] }> <{ i8* getelementptr inbounds (<{ [14 x i8] }>, <{ [14 x i8] }>* @alloc1531, i32 0, i32 0, i32 0), [16 x i8] c"\0E\00\00\00\00\00\00\00u\05\00\00\09\00\00\00" }>, align 8
@alloc1420 = private unnamed_addr constant <{ i8*, [16 x i8] }> <{ i8* getelementptr inbounds (<{ [14 x i8] }>, <{ [14 x i8] }>* @alloc1531, i32 0, i32 0, i32 0), [16 x i8] c"\0E\00\00\00\00\00\00\00x\05\00\00\09\00\00\00" }>, align 8
@alloc1422 = private unnamed_addr constant <{ i8*, [16 x i8] }> <{ i8* getelementptr inbounds (<{ [14 x i8] }>, <{ [14 x i8] }>* @alloc1531, i32 0, i32 0, i32 0), [16 x i8] c"\0E\00\00\00\00\00\00\00{\05\00\00\09\00\00\00" }>, align 8
@alloc1424 = private unnamed_addr constant <{ i8*, [16 x i8] }> <{ i8* getelementptr inbounds (<{ [14 x i8] }>, <{ [14 x i8] }>* @alloc1531, i32 0, i32 0, i32 0), [16 x i8] c"\0E\00\00\00\00\00\00\00\85\05\00\00\09\00\00\00" }>, align 8
@alloc1426 = private unnamed_addr constant <{ i8*, [16 x i8] }> <{ i8* getelementptr inbounds (<{ [14 x i8] }>, <{ [14 x i8] }>* @alloc1531, i32 0, i32 0, i32 0), [16 x i8] c"\0E\00\00\00\00\00\00\00\89\05\00\00\09\00\00\00" }>, align 8
@alloc1428 = private unnamed_addr constant <{ i8*, [16 x i8] }> <{ i8* getelementptr inbounds (<{ [14 x i8] }>, <{ [14 x i8] }>* @alloc1531, i32 0, i32 0, i32 0), [16 x i8] c"\0E\00\00\00\00\00\00\00\8D\05\00\00\09\00\00\00" }>, align 8
@alloc1430 = private unnamed_addr constant <{ i8*, [16 x i8] }> <{ i8* getelementptr inbounds (<{ [14 x i8] }>, <{ [14 x i8] }>* @alloc1531, i32 0, i32 0, i32 0), [16 x i8] c"\0E\00\00\00\00\00\00\00\90\05\00\00\09\00\00\00" }>, align 8
@alloc1432 = private unnamed_addr constant <{ i8*, [16 x i8] }> <{ i8* getelementptr inbounds (<{ [14 x i8] }>, <{ [14 x i8] }>* @alloc1531, i32 0, i32 0, i32 0), [16 x i8] c"\0E\00\00\00\00\00\00\00\93\05\00\00\09\00\00\00" }>, align 8
@alloc1434 = private unnamed_addr constant <{ i8*, [16 x i8] }> <{ i8* getelementptr inbounds (<{ [14 x i8] }>, <{ [14 x i8] }>* @alloc1531, i32 0, i32 0, i32 0), [16 x i8] c"\0E\00\00\00\00\00\00\00\9E\05\00\00\09\00\00\00" }>, align 8
@alloc1436 = private unnamed_addr constant <{ i8*, [16 x i8] }> <{ i8* getelementptr inbounds (<{ [14 x i8] }>, <{ [14 x i8] }>* @alloc1531, i32 0, i32 0, i32 0), [16 x i8] c"\0E\00\00\00\00\00\00\00\A2\05\00\00\09\00\00\00" }>, align 8
@alloc1438 = private unnamed_addr constant <{ i8*, [16 x i8] }> <{ i8* getelementptr inbounds (<{ [14 x i8] }>, <{ [14 x i8] }>* @alloc1531, i32 0, i32 0, i32 0), [16 x i8] c"\0E\00\00\00\00\00\00\00\A6\05\00\00\09\00\00\00" }>, align 8
@alloc1440 = private unnamed_addr constant <{ i8*, [16 x i8] }> <{ i8* getelementptr inbounds (<{ [14 x i8] }>, <{ [14 x i8] }>* @alloc1531, i32 0, i32 0, i32 0), [16 x i8] c"\0E\00\00\00\00\00\00\00\A9\05\00\00\09\00\00\00" }>, align 8
@alloc1442 = private unnamed_addr constant <{ i8*, [16 x i8] }> <{ i8* getelementptr inbounds (<{ [14 x i8] }>, <{ [14 x i8] }>* @alloc1531, i32 0, i32 0, i32 0), [16 x i8] c"\0E\00\00\00\00\00\00\00\AC\05\00\00\09\00\00\00" }>, align 8
@alloc1444 = private unnamed_addr constant <{ i8*, [16 x i8] }> <{ i8* getelementptr inbounds (<{ [14 x i8] }>, <{ [14 x i8] }>* @alloc1531, i32 0, i32 0, i32 0), [16 x i8] c"\0E\00\00\00\00\00\00\00\B7\05\00\00\09\00\00\00" }>, align 8
@alloc1446 = private unnamed_addr constant <{ i8*, [16 x i8] }> <{ i8* getelementptr inbounds (<{ [14 x i8] }>, <{ [14 x i8] }>* @alloc1531, i32 0, i32 0, i32 0), [16 x i8] c"\0E\00\00\00\00\00\00\00\BB\05\00\00\09\00\00\00" }>, align 8
@alloc1448 = private unnamed_addr constant <{ i8*, [16 x i8] }> <{ i8* getelementptr inbounds (<{ [14 x i8] }>, <{ [14 x i8] }>* @alloc1531, i32 0, i32 0, i32 0), [16 x i8] c"\0E\00\00\00\00\00\00\00\BF\05\00\00\09\00\00\00" }>, align 8
@alloc1450 = private unnamed_addr constant <{ i8*, [16 x i8] }> <{ i8* getelementptr inbounds (<{ [14 x i8] }>, <{ [14 x i8] }>* @alloc1531, i32 0, i32 0, i32 0), [16 x i8] c"\0E\00\00\00\00\00\00\00\C2\05\00\00\09\00\00\00" }>, align 8
@alloc1452 = private unnamed_addr constant <{ i8*, [16 x i8] }> <{ i8* getelementptr inbounds (<{ [14 x i8] }>, <{ [14 x i8] }>* @alloc1531, i32 0, i32 0, i32 0), [16 x i8] c"\0E\00\00\00\00\00\00\00\C5\05\00\00\09\00\00\00" }>, align 8
@alloc1454 = private unnamed_addr constant <{ i8*, [16 x i8] }> <{ i8* getelementptr inbounds (<{ [14 x i8] }>, <{ [14 x i8] }>* @alloc1531, i32 0, i32 0, i32 0), [16 x i8] c"\0E\00\00\00\00\00\00\00\D0\05\00\00\09\00\00\00" }>, align 8
@alloc1456 = private unnamed_addr constant <{ i8*, [16 x i8] }> <{ i8* getelementptr inbounds (<{ [14 x i8] }>, <{ [14 x i8] }>* @alloc1531, i32 0, i32 0, i32 0), [16 x i8] c"\0E\00\00\00\00\00\00\00\D4\05\00\00\09\00\00\00" }>, align 8
@alloc1458 = private unnamed_addr constant <{ i8*, [16 x i8] }> <{ i8* getelementptr inbounds (<{ [14 x i8] }>, <{ [14 x i8] }>* @alloc1531, i32 0, i32 0, i32 0), [16 x i8] c"\0E\00\00\00\00\00\00\00\D8\05\00\00\09\00\00\00" }>, align 8
@alloc1460 = private unnamed_addr constant <{ i8*, [16 x i8] }> <{ i8* getelementptr inbounds (<{ [14 x i8] }>, <{ [14 x i8] }>* @alloc1531, i32 0, i32 0, i32 0), [16 x i8] c"\0E\00\00\00\00\00\00\00\DB\05\00\00\09\00\00\00" }>, align 8
@alloc1462 = private unnamed_addr constant <{ i8*, [16 x i8] }> <{ i8* getelementptr inbounds (<{ [14 x i8] }>, <{ [14 x i8] }>* @alloc1531, i32 0, i32 0, i32 0), [16 x i8] c"\0E\00\00\00\00\00\00\00\DE\05\00\00\09\00\00\00" }>, align 8
@alloc1464 = private unnamed_addr constant <{ i8*, [16 x i8] }> <{ i8* getelementptr inbounds (<{ [14 x i8] }>, <{ [14 x i8] }>* @alloc1531, i32 0, i32 0, i32 0), [16 x i8] c"\0E\00\00\00\00\00\00\00\E9\05\00\00\09\00\00\00" }>, align 8
@alloc1466 = private unnamed_addr constant <{ i8*, [16 x i8] }> <{ i8* getelementptr inbounds (<{ [14 x i8] }>, <{ [14 x i8] }>* @alloc1531, i32 0, i32 0, i32 0), [16 x i8] c"\0E\00\00\00\00\00\00\00\ED\05\00\00\09\00\00\00" }>, align 8
@alloc1468 = private unnamed_addr constant <{ i8*, [16 x i8] }> <{ i8* getelementptr inbounds (<{ [14 x i8] }>, <{ [14 x i8] }>* @alloc1531, i32 0, i32 0, i32 0), [16 x i8] c"\0E\00\00\00\00\00\00\00\F1\05\00\00\09\00\00\00" }>, align 8
@alloc1470 = private unnamed_addr constant <{ i8*, [16 x i8] }> <{ i8* getelementptr inbounds (<{ [14 x i8] }>, <{ [14 x i8] }>* @alloc1531, i32 0, i32 0, i32 0), [16 x i8] c"\0E\00\00\00\00\00\00\00\F4\05\00\00\09\00\00\00" }>, align 8
@alloc1472 = private unnamed_addr constant <{ i8*, [16 x i8] }> <{ i8* getelementptr inbounds (<{ [14 x i8] }>, <{ [14 x i8] }>* @alloc1531, i32 0, i32 0, i32 0), [16 x i8] c"\0E\00\00\00\00\00\00\00\F7\05\00\00\09\00\00\00" }>, align 8
@alloc1474 = private unnamed_addr constant <{ i8*, [16 x i8] }> <{ i8* getelementptr inbounds (<{ [14 x i8] }>, <{ [14 x i8] }>* @alloc1531, i32 0, i32 0, i32 0), [16 x i8] c"\0E\00\00\00\00\00\00\00\02\06\00\00\09\00\00\00" }>, align 8
@alloc1476 = private unnamed_addr constant <{ i8*, [16 x i8] }> <{ i8* getelementptr inbounds (<{ [14 x i8] }>, <{ [14 x i8] }>* @alloc1531, i32 0, i32 0, i32 0), [16 x i8] c"\0E\00\00\00\00\00\00\00\06\06\00\00\09\00\00\00" }>, align 8
@alloc1478 = private unnamed_addr constant <{ i8*, [16 x i8] }> <{ i8* getelementptr inbounds (<{ [14 x i8] }>, <{ [14 x i8] }>* @alloc1531, i32 0, i32 0, i32 0), [16 x i8] c"\0E\00\00\00\00\00\00\00\0A\06\00\00\09\00\00\00" }>, align 8
@alloc1480 = private unnamed_addr constant <{ i8*, [16 x i8] }> <{ i8* getelementptr inbounds (<{ [14 x i8] }>, <{ [14 x i8] }>* @alloc1531, i32 0, i32 0, i32 0), [16 x i8] c"\0E\00\00\00\00\00\00\00\0D\06\00\00\09\00\00\00" }>, align 8
@alloc1482 = private unnamed_addr constant <{ i8*, [16 x i8] }> <{ i8* getelementptr inbounds (<{ [14 x i8] }>, <{ [14 x i8] }>* @alloc1531, i32 0, i32 0, i32 0), [16 x i8] c"\0E\00\00\00\00\00\00\00\10\06\00\00\09\00\00\00" }>, align 8
@alloc1484 = private unnamed_addr constant <{ i8*, [16 x i8] }> <{ i8* getelementptr inbounds (<{ [14 x i8] }>, <{ [14 x i8] }>* @alloc1531, i32 0, i32 0, i32 0), [16 x i8] c"\0E\00\00\00\00\00\00\00\1B\06\00\00\09\00\00\00" }>, align 8
@alloc1486 = private unnamed_addr constant <{ i8*, [16 x i8] }> <{ i8* getelementptr inbounds (<{ [14 x i8] }>, <{ [14 x i8] }>* @alloc1531, i32 0, i32 0, i32 0), [16 x i8] c"\0E\00\00\00\00\00\00\00\1F\06\00\00\09\00\00\00" }>, align 8
@alloc1488 = private unnamed_addr constant <{ i8*, [16 x i8] }> <{ i8* getelementptr inbounds (<{ [14 x i8] }>, <{ [14 x i8] }>* @alloc1531, i32 0, i32 0, i32 0), [16 x i8] c"\0E\00\00\00\00\00\00\00#\06\00\00\09\00\00\00" }>, align 8
@alloc1490 = private unnamed_addr constant <{ i8*, [16 x i8] }> <{ i8* getelementptr inbounds (<{ [14 x i8] }>, <{ [14 x i8] }>* @alloc1531, i32 0, i32 0, i32 0), [16 x i8] c"\0E\00\00\00\00\00\00\00&\06\00\00\09\00\00\00" }>, align 8
@alloc1492 = private unnamed_addr constant <{ i8*, [16 x i8] }> <{ i8* getelementptr inbounds (<{ [14 x i8] }>, <{ [14 x i8] }>* @alloc1531, i32 0, i32 0, i32 0), [16 x i8] c"\0E\00\00\00\00\00\00\00)\06\00\00\09\00\00\00" }>, align 8
@alloc1494 = private unnamed_addr constant <{ i8*, [16 x i8] }> <{ i8* getelementptr inbounds (<{ [14 x i8] }>, <{ [14 x i8] }>* @alloc1531, i32 0, i32 0, i32 0), [16 x i8] c"\0E\00\00\00\00\00\00\004\06\00\00\09\00\00\00" }>, align 8
@alloc1496 = private unnamed_addr constant <{ i8*, [16 x i8] }> <{ i8* getelementptr inbounds (<{ [14 x i8] }>, <{ [14 x i8] }>* @alloc1531, i32 0, i32 0, i32 0), [16 x i8] c"\0E\00\00\00\00\00\00\008\06\00\00\09\00\00\00" }>, align 8
@alloc1498 = private unnamed_addr constant <{ i8*, [16 x i8] }> <{ i8* getelementptr inbounds (<{ [14 x i8] }>, <{ [14 x i8] }>* @alloc1531, i32 0, i32 0, i32 0), [16 x i8] c"\0E\00\00\00\00\00\00\00<\06\00\00\09\00\00\00" }>, align 8
@alloc1500 = private unnamed_addr constant <{ i8*, [16 x i8] }> <{ i8* getelementptr inbounds (<{ [14 x i8] }>, <{ [14 x i8] }>* @alloc1531, i32 0, i32 0, i32 0), [16 x i8] c"\0E\00\00\00\00\00\00\00?\06\00\00\09\00\00\00" }>, align 8
@alloc1502 = private unnamed_addr constant <{ i8*, [16 x i8] }> <{ i8* getelementptr inbounds (<{ [14 x i8] }>, <{ [14 x i8] }>* @alloc1531, i32 0, i32 0, i32 0), [16 x i8] c"\0E\00\00\00\00\00\00\00B\06\00\00\09\00\00\00" }>, align 8
@alloc1504 = private unnamed_addr constant <{ i8*, [16 x i8] }> <{ i8* getelementptr inbounds (<{ [14 x i8] }>, <{ [14 x i8] }>* @alloc1531, i32 0, i32 0, i32 0), [16 x i8] c"\0E\00\00\00\00\00\00\00M\06\00\00\09\00\00\00" }>, align 8
@alloc1506 = private unnamed_addr constant <{ i8*, [16 x i8] }> <{ i8* getelementptr inbounds (<{ [14 x i8] }>, <{ [14 x i8] }>* @alloc1531, i32 0, i32 0, i32 0), [16 x i8] c"\0E\00\00\00\00\00\00\00Q\06\00\00\09\00\00\00" }>, align 8
@alloc1508 = private unnamed_addr constant <{ i8*, [16 x i8] }> <{ i8* getelementptr inbounds (<{ [14 x i8] }>, <{ [14 x i8] }>* @alloc1531, i32 0, i32 0, i32 0), [16 x i8] c"\0E\00\00\00\00\00\00\00U\06\00\00\09\00\00\00" }>, align 8
@alloc1510 = private unnamed_addr constant <{ i8*, [16 x i8] }> <{ i8* getelementptr inbounds (<{ [14 x i8] }>, <{ [14 x i8] }>* @alloc1531, i32 0, i32 0, i32 0), [16 x i8] c"\0E\00\00\00\00\00\00\00X\06\00\00\09\00\00\00" }>, align 8
@alloc1512 = private unnamed_addr constant <{ i8*, [16 x i8] }> <{ i8* getelementptr inbounds (<{ [14 x i8] }>, <{ [14 x i8] }>* @alloc1531, i32 0, i32 0, i32 0), [16 x i8] c"\0E\00\00\00\00\00\00\00[\06\00\00\09\00\00\00" }>, align 8
@alloc1514 = private unnamed_addr constant <{ i8*, [16 x i8] }> <{ i8* getelementptr inbounds (<{ [14 x i8] }>, <{ [14 x i8] }>* @alloc1531, i32 0, i32 0, i32 0), [16 x i8] c"\0E\00\00\00\00\00\00\00f\06\00\00\09\00\00\00" }>, align 8
@alloc1516 = private unnamed_addr constant <{ i8*, [16 x i8] }> <{ i8* getelementptr inbounds (<{ [14 x i8] }>, <{ [14 x i8] }>* @alloc1531, i32 0, i32 0, i32 0), [16 x i8] c"\0E\00\00\00\00\00\00\00j\06\00\00\09\00\00\00" }>, align 8
@alloc1518 = private unnamed_addr constant <{ i8*, [16 x i8] }> <{ i8* getelementptr inbounds (<{ [14 x i8] }>, <{ [14 x i8] }>* @alloc1531, i32 0, i32 0, i32 0), [16 x i8] c"\0E\00\00\00\00\00\00\00n\06\00\00\09\00\00\00" }>, align 8
@alloc1520 = private unnamed_addr constant <{ i8*, [16 x i8] }> <{ i8* getelementptr inbounds (<{ [14 x i8] }>, <{ [14 x i8] }>* @alloc1531, i32 0, i32 0, i32 0), [16 x i8] c"\0E\00\00\00\00\00\00\00q\06\00\00\09\00\00\00" }>, align 8
@alloc1522 = private unnamed_addr constant <{ i8*, [16 x i8] }> <{ i8* getelementptr inbounds (<{ [14 x i8] }>, <{ [14 x i8] }>* @alloc1531, i32 0, i32 0, i32 0), [16 x i8] c"\0E\00\00\00\00\00\00\00t\06\00\00\09\00\00\00" }>, align 8
@alloc1524 = private unnamed_addr constant <{ i8*, [16 x i8] }> <{ i8* getelementptr inbounds (<{ [14 x i8] }>, <{ [14 x i8] }>* @alloc1531, i32 0, i32 0, i32 0), [16 x i8] c"\0E\00\00\00\00\00\00\00\7F\06\00\00\09\00\00\00" }>, align 8
@alloc1526 = private unnamed_addr constant <{ i8*, [16 x i8] }> <{ i8* getelementptr inbounds (<{ [14 x i8] }>, <{ [14 x i8] }>* @alloc1531, i32 0, i32 0, i32 0), [16 x i8] c"\0E\00\00\00\00\00\00\00\83\06\00\00\09\00\00\00" }>, align 8
@alloc1528 = private unnamed_addr constant <{ i8*, [16 x i8] }> <{ i8* getelementptr inbounds (<{ [14 x i8] }>, <{ [14 x i8] }>* @alloc1531, i32 0, i32 0, i32 0), [16 x i8] c"\0E\00\00\00\00\00\00\00\87\06\00\00\09\00\00\00" }>, align 8
@alloc1530 = private unnamed_addr constant <{ i8*, [16 x i8] }> <{ i8* getelementptr inbounds (<{ [14 x i8] }>, <{ [14 x i8] }>* @alloc1531, i32 0, i32 0, i32 0), [16 x i8] c"\0E\00\00\00\00\00\00\00\8A\06\00\00\09\00\00\00" }>, align 8
@alloc1532 = private unnamed_addr constant <{ i8*, [16 x i8] }> <{ i8* getelementptr inbounds (<{ [14 x i8] }>, <{ [14 x i8] }>* @alloc1531, i32 0, i32 0, i32 0), [16 x i8] c"\0E\00\00\00\00\00\00\00\8D\06\00\00\09\00\00\00" }>, align 8
@rust_k = global <{ [4 x i8] }> zeroinitializer, align 4, !dbg !34
@alloc1535 = private unnamed_addr constant <{ [24 x i8] }> <{ [24 x i8] c"src/variable_offsetof.rs" }>, align 1
@alloc1534 = private unnamed_addr constant <{ i8*, [16 x i8] }> <{ i8* getelementptr inbounds (<{ [24 x i8] }>, <{ [24 x i8] }>* @alloc1535, i32 0, i32 0, i32 0), [16 x i8] c"\18\00\00\00\00\00\00\00\19\00\00\00\0C\00\00\00" }>, align 8
@alloc1536 = private unnamed_addr constant <{ i8*, [16 x i8] }> <{ i8* getelementptr inbounds (<{ [24 x i8] }>, <{ [24 x i8] }>* @alloc1535, i32 0, i32 0, i32 0), [16 x i8] c"\18\00\00\00\00\00\00\00\1D\00\00\00\0C\00\00\00" }>, align 8
@llvm.compiler.used = appending global [1 x i8*] [i8* bitcast (<{ i8* }>* @_ZN13structs_tests9bitfields10INIT_ARRAY17h8626c40c7131e2e4E to i8*)], section "llvm.metadata"

; c2rust_bitfields::FieldType::set_field
; Function Attrs: nonlazybind uwtable
define void @_ZN16c2rust_bitfields9FieldType9set_field17h0c78eb7b41625183E(i32* align 4 %self, [0 x i8]* align 1 %field.0, i64 %field.1, i64 %bit_range.0, i64 %bit_range.1) unnamed_addr #0 !dbg !52 {
start:
  %byte.dbg.spill = alloca i8*, align 8
  %byte_index.dbg.spill = alloca i64, align 8
  %bit_index.dbg.spill = alloca i64, align 8
  %i.dbg.spill = alloca i64, align 8
  %rhs_bit.dbg.spill = alloca i64, align 8
  %lhs_bit.dbg.spill = alloca i64, align 8
  %bit_range.dbg.spill = alloca { i64, i64 }, align 8
  %field.dbg.spill = alloca { [0 x i8]*, i64 }, align 8
  %self.dbg.spill = alloca i32*, align 8
  %_12 = alloca %"core::option::Option<(usize, usize)>", align 8
  %iter = alloca %"core::iter::adapters::enumerate::Enumerate<core::ops::range::RangeInclusive<usize>>", align 8
  %_8 = alloca %"core::ops::range::RangeInclusive<usize>", align 8
  %_7 = alloca %"core::iter::adapters::enumerate::Enumerate<core::ops::range::RangeInclusive<usize>>", align 8
  %_6 = alloca %"core::iter::adapters::enumerate::Enumerate<core::ops::range::RangeInclusive<usize>>", align 8
  store i32* %self, i32** %self.dbg.spill, align 8
  call void @llvm.dbg.declare(metadata i32** %self.dbg.spill, metadata !71, metadata !DIExpression()), !dbg !109
  %0 = getelementptr inbounds { [0 x i8]*, i64 }, { [0 x i8]*, i64 }* %field.dbg.spill, i32 0, i32 0
  store [0 x i8]* %field.0, [0 x i8]** %0, align 8
  %1 = getelementptr inbounds { [0 x i8]*, i64 }, { [0 x i8]*, i64 }* %field.dbg.spill, i32 0, i32 1
  store i64 %field.1, i64* %1, align 8
  call void @llvm.dbg.declare(metadata { [0 x i8]*, i64 }* %field.dbg.spill, metadata !72, metadata !DIExpression()), !dbg !110
  %2 = getelementptr inbounds { i64, i64 }, { i64, i64 }* %bit_range.dbg.spill, i32 0, i32 0
  store i64 %bit_range.0, i64* %2, align 8
  %3 = getelementptr inbounds { i64, i64 }, { i64, i64 }* %bit_range.dbg.spill, i32 0, i32 1
  store i64 %bit_range.1, i64* %3, align 8
  call void @llvm.dbg.declare(metadata { i64, i64 }* %bit_range.dbg.spill, metadata !73, metadata !DIExpression()), !dbg !111
  call void @llvm.dbg.declare(metadata %"core::iter::adapters::enumerate::Enumerate<core::ops::range::RangeInclusive<usize>>"* %iter, metadata !77, metadata !DIExpression()), !dbg !112
  store i64 %bit_range.0, i64* %lhs_bit.dbg.spill, align 8, !dbg !113
  call void @llvm.dbg.declare(metadata i64* %lhs_bit.dbg.spill, metadata !74, metadata !DIExpression()), !dbg !114
  store i64 %bit_range.1, i64* %rhs_bit.dbg.spill, align 8, !dbg !115
  call void @llvm.dbg.declare(metadata i64* %rhs_bit.dbg.spill, metadata !76, metadata !DIExpression()), !dbg !116
; call core::ops::range::RangeInclusive<Idx>::new
  call void @"_ZN4core3ops5range25RangeInclusive$LT$Idx$GT$3new17he94ee9abc05f1a5bE"(%"core::ops::range::RangeInclusive<usize>"* sret(%"core::ops::range::RangeInclusive<usize>") %_8, i64 %bit_range.0, i64 %bit_range.1), !dbg !117
  br label %bb1, !dbg !117

bb1:                                              ; preds = %start
; call core::iter::traits::iterator::Iterator::enumerate
  call void @_ZN4core4iter6traits8iterator8Iterator9enumerate17h1f28f3caa04e2122E(%"core::iter::adapters::enumerate::Enumerate<core::ops::range::RangeInclusive<usize>>"* sret(%"core::iter::adapters::enumerate::Enumerate<core::ops::range::RangeInclusive<usize>>") %_7, %"core::ops::range::RangeInclusive<usize>"* %_8), !dbg !117
  br label %bb2, !dbg !117

bb2:                                              ; preds = %bb1
; call <I as core::iter::traits::collect::IntoIterator>::into_iter
  call void @"_ZN63_$LT$I$u20$as$u20$core..iter..traits..collect..IntoIterator$GT$9into_iter17h550124643d355992E"(%"core::iter::adapters::enumerate::Enumerate<core::ops::range::RangeInclusive<usize>>"* sret(%"core::iter::adapters::enumerate::Enumerate<core::ops::range::RangeInclusive<usize>>") %_6, %"core::iter::adapters::enumerate::Enumerate<core::ops::range::RangeInclusive<usize>>"* %_7), !dbg !117
  br label %bb3, !dbg !117

bb3:                                              ; preds = %bb2
  %4 = bitcast %"core::iter::adapters::enumerate::Enumerate<core::ops::range::RangeInclusive<usize>>"* %iter to i8*, !dbg !117
  %5 = bitcast %"core::iter::adapters::enumerate::Enumerate<core::ops::range::RangeInclusive<usize>>"* %_6 to i8*, !dbg !117
  call void @llvm.memcpy.p0i8.p0i8.i64(i8* align 8 %4, i8* align 8 %5, i64 32, i1 false), !dbg !117
  br label %bb4, !dbg !118

bb4:                                              ; preds = %bb12, %bb11, %bb3
; call <core::iter::adapters::enumerate::Enumerate<I> as core::iter::traits::iterator::Iterator>::next
  call void @"_ZN110_$LT$core..iter..adapters..enumerate..Enumerate$LT$I$GT$$u20$as$u20$core..iter..traits..iterator..Iterator$GT$4next17h9a2f266e6501a271E"(%"core::option::Option<(usize, usize)>"* sret(%"core::option::Option<(usize, usize)>") %_12, %"core::iter::adapters::enumerate::Enumerate<core::ops::range::RangeInclusive<usize>>"* align 8 %iter), !dbg !112
  br label %bb5, !dbg !112

bb5:                                              ; preds = %bb4
  %6 = bitcast %"core::option::Option<(usize, usize)>"* %_12 to i64*, !dbg !112
  %_15 = load i64, i64* %6, align 8, !dbg !112, !range !119, !noundef !13
  switch i64 %_15, label %bb7 [
    i64 0, label %bb8
    i64 1, label %bb6
  ], !dbg !112

bb7:                                              ; preds = %bb5
  unreachable, !dbg !112

bb8:                                              ; preds = %bb5
  ret void, !dbg !120

bb6:                                              ; preds = %bb5
  %7 = bitcast %"core::option::Option<(usize, usize)>"* %_12 to %"core::option::Option<(usize, usize)>::Some"*, !dbg !121
  %8 = getelementptr inbounds %"core::option::Option<(usize, usize)>::Some", %"core::option::Option<(usize, usize)>::Some"* %7, i32 0, i32 1, !dbg !121
  %9 = bitcast { i64, i64 }* %8 to i64*, !dbg !121
  %i = load i64, i64* %9, align 8, !dbg !121
  store i64 %i, i64* %i.dbg.spill, align 8, !dbg !121
  call void @llvm.dbg.declare(metadata i64* %i.dbg.spill, metadata !99, metadata !DIExpression()), !dbg !122
  %10 = bitcast %"core::option::Option<(usize, usize)>"* %_12 to %"core::option::Option<(usize, usize)>::Some"*, !dbg !123
  %11 = getelementptr inbounds %"core::option::Option<(usize, usize)>::Some", %"core::option::Option<(usize, usize)>::Some"* %10, i32 0, i32 1, !dbg !123
  %12 = getelementptr inbounds { i64, i64 }, { i64, i64 }* %11, i32 0, i32 1, !dbg !123
  %bit_index = load i64, i64* %12, align 8, !dbg !123
  store i64 %bit_index, i64* %bit_index.dbg.spill, align 8, !dbg !123
  call void @llvm.dbg.declare(metadata i64* %bit_index.dbg.spill, metadata !101, metadata !DIExpression()), !dbg !124
  %byte_index = udiv i64 %bit_index, 8, !dbg !125
  store i64 %byte_index, i64* %byte_index.dbg.spill, align 8, !dbg !125
  call void @llvm.dbg.declare(metadata i64* %byte_index.dbg.spill, metadata !102, metadata !DIExpression()), !dbg !126
  %_23 = icmp ult i64 %byte_index, %field.1, !dbg !127
  %13 = call i1 @llvm.expect.i1(i1 %_23, i1 true), !dbg !127
  br i1 %13, label %bb9, label %panic, !dbg !127

bb9:                                              ; preds = %bb6
  %byte = getelementptr inbounds [0 x i8], [0 x i8]* %field.0, i64 0, i64 %byte_index, !dbg !128
  store i8* %byte, i8** %byte.dbg.spill, align 8, !dbg !128
  call void @llvm.dbg.declare(metadata i8** %byte.dbg.spill, metadata !104, metadata !DIExpression()), !dbg !129
; call <u32 as c2rust_bitfields::FieldType>::get_bit
  %_24 = call zeroext i1 @"_ZN51_$LT$u32$u20$as$u20$c2rust_bitfields..FieldType$GT$7get_bit17h666c1ec2e75ea6dfE"(i32* align 4 %self, i64 %i), !dbg !130
  br label %bb10, !dbg !130

panic:                                            ; preds = %bb6
; call core::panicking::panic_bounds_check
  call void @_ZN4core9panicking18panic_bounds_check17h66852fee8138fdc4E(i64 %byte_index, i64 %field.1, %"core::panic::location::Location"* align 8 bitcast (<{ i8*, [16 x i8] }>* @alloc888 to %"core::panic::location::Location"*)) #7, !dbg !127
  unreachable, !dbg !127

bb10:                                             ; preds = %bb9
  br i1 %_24, label %bb11, label %bb12, !dbg !130

bb12:                                             ; preds = %bb10
  %_35 = urem i64 %bit_index, 8, !dbg !131
; call c2rust_bitfields::FieldType::set_field::zero_bit
  call void @_ZN16c2rust_bitfields9FieldType9set_field8zero_bit17h7e4c28644030145eE(i8* align 1 %byte, i64 %_35), !dbg !132
  br label %bb4, !dbg !132

bb11:                                             ; preds = %bb10
  %_30 = urem i64 %bit_index, 8, !dbg !133
; call c2rust_bitfields::FieldType::set_field::one_bit
  call void @_ZN16c2rust_bitfields9FieldType9set_field7one_bit17hed52b88a9316635eE(i8* align 1 %byte, i64 %_30), !dbg !134
  br label %bb4, !dbg !134
}

; c2rust_bitfields::FieldType::set_field
; Function Attrs: nonlazybind uwtable
define void @_ZN16c2rust_bitfields9FieldType9set_field17h108deb6ca448d941E(i64* align 8 %self, [0 x i8]* align 1 %field.0, i64 %field.1, i64 %bit_range.0, i64 %bit_range.1) unnamed_addr #0 !dbg !135 {
start:
  %byte.dbg.spill = alloca i8*, align 8
  %byte_index.dbg.spill = alloca i64, align 8
  %bit_index.dbg.spill = alloca i64, align 8
  %i.dbg.spill = alloca i64, align 8
  %rhs_bit.dbg.spill = alloca i64, align 8
  %lhs_bit.dbg.spill = alloca i64, align 8
  %bit_range.dbg.spill = alloca { i64, i64 }, align 8
  %field.dbg.spill = alloca { [0 x i8]*, i64 }, align 8
  %self.dbg.spill = alloca i64*, align 8
  %_12 = alloca %"core::option::Option<(usize, usize)>", align 8
  %iter = alloca %"core::iter::adapters::enumerate::Enumerate<core::ops::range::RangeInclusive<usize>>", align 8
  %_8 = alloca %"core::ops::range::RangeInclusive<usize>", align 8
  %_7 = alloca %"core::iter::adapters::enumerate::Enumerate<core::ops::range::RangeInclusive<usize>>", align 8
  %_6 = alloca %"core::iter::adapters::enumerate::Enumerate<core::ops::range::RangeInclusive<usize>>", align 8
  store i64* %self, i64** %self.dbg.spill, align 8
  call void @llvm.dbg.declare(metadata i64** %self.dbg.spill, metadata !141, metadata !DIExpression()), !dbg !158
  %0 = getelementptr inbounds { [0 x i8]*, i64 }, { [0 x i8]*, i64 }* %field.dbg.spill, i32 0, i32 0
  store [0 x i8]* %field.0, [0 x i8]** %0, align 8
  %1 = getelementptr inbounds { [0 x i8]*, i64 }, { [0 x i8]*, i64 }* %field.dbg.spill, i32 0, i32 1
  store i64 %field.1, i64* %1, align 8
  call void @llvm.dbg.declare(metadata { [0 x i8]*, i64 }* %field.dbg.spill, metadata !142, metadata !DIExpression()), !dbg !159
  %2 = getelementptr inbounds { i64, i64 }, { i64, i64 }* %bit_range.dbg.spill, i32 0, i32 0
  store i64 %bit_range.0, i64* %2, align 8
  %3 = getelementptr inbounds { i64, i64 }, { i64, i64 }* %bit_range.dbg.spill, i32 0, i32 1
  store i64 %bit_range.1, i64* %3, align 8
  call void @llvm.dbg.declare(metadata { i64, i64 }* %bit_range.dbg.spill, metadata !143, metadata !DIExpression()), !dbg !160
  call void @llvm.dbg.declare(metadata %"core::iter::adapters::enumerate::Enumerate<core::ops::range::RangeInclusive<usize>>"* %iter, metadata !147, metadata !DIExpression()), !dbg !161
  store i64 %bit_range.0, i64* %lhs_bit.dbg.spill, align 8, !dbg !162
  call void @llvm.dbg.declare(metadata i64* %lhs_bit.dbg.spill, metadata !144, metadata !DIExpression()), !dbg !163
  store i64 %bit_range.1, i64* %rhs_bit.dbg.spill, align 8, !dbg !164
  call void @llvm.dbg.declare(metadata i64* %rhs_bit.dbg.spill, metadata !146, metadata !DIExpression()), !dbg !165
; call core::ops::range::RangeInclusive<Idx>::new
  call void @"_ZN4core3ops5range25RangeInclusive$LT$Idx$GT$3new17he94ee9abc05f1a5bE"(%"core::ops::range::RangeInclusive<usize>"* sret(%"core::ops::range::RangeInclusive<usize>") %_8, i64 %bit_range.0, i64 %bit_range.1), !dbg !166
  br label %bb1, !dbg !166

bb1:                                              ; preds = %start
; call core::iter::traits::iterator::Iterator::enumerate
  call void @_ZN4core4iter6traits8iterator8Iterator9enumerate17h1f28f3caa04e2122E(%"core::iter::adapters::enumerate::Enumerate<core::ops::range::RangeInclusive<usize>>"* sret(%"core::iter::adapters::enumerate::Enumerate<core::ops::range::RangeInclusive<usize>>") %_7, %"core::ops::range::RangeInclusive<usize>"* %_8), !dbg !166
  br label %bb2, !dbg !166

bb2:                                              ; preds = %bb1
; call <I as core::iter::traits::collect::IntoIterator>::into_iter
  call void @"_ZN63_$LT$I$u20$as$u20$core..iter..traits..collect..IntoIterator$GT$9into_iter17h550124643d355992E"(%"core::iter::adapters::enumerate::Enumerate<core::ops::range::RangeInclusive<usize>>"* sret(%"core::iter::adapters::enumerate::Enumerate<core::ops::range::RangeInclusive<usize>>") %_6, %"core::iter::adapters::enumerate::Enumerate<core::ops::range::RangeInclusive<usize>>"* %_7), !dbg !166
  br label %bb3, !dbg !166

bb3:                                              ; preds = %bb2
  %4 = bitcast %"core::iter::adapters::enumerate::Enumerate<core::ops::range::RangeInclusive<usize>>"* %iter to i8*, !dbg !166
  %5 = bitcast %"core::iter::adapters::enumerate::Enumerate<core::ops::range::RangeInclusive<usize>>"* %_6 to i8*, !dbg !166
  call void @llvm.memcpy.p0i8.p0i8.i64(i8* align 8 %4, i8* align 8 %5, i64 32, i1 false), !dbg !166
  br label %bb4, !dbg !167

bb4:                                              ; preds = %bb12, %bb11, %bb3
; call <core::iter::adapters::enumerate::Enumerate<I> as core::iter::traits::iterator::Iterator>::next
  call void @"_ZN110_$LT$core..iter..adapters..enumerate..Enumerate$LT$I$GT$$u20$as$u20$core..iter..traits..iterator..Iterator$GT$4next17h9a2f266e6501a271E"(%"core::option::Option<(usize, usize)>"* sret(%"core::option::Option<(usize, usize)>") %_12, %"core::iter::adapters::enumerate::Enumerate<core::ops::range::RangeInclusive<usize>>"* align 8 %iter), !dbg !161
  br label %bb5, !dbg !161

bb5:                                              ; preds = %bb4
  %6 = bitcast %"core::option::Option<(usize, usize)>"* %_12 to i64*, !dbg !161
  %_15 = load i64, i64* %6, align 8, !dbg !161, !range !119, !noundef !13
  switch i64 %_15, label %bb7 [
    i64 0, label %bb8
    i64 1, label %bb6
  ], !dbg !161

bb7:                                              ; preds = %bb5
  unreachable, !dbg !161

bb8:                                              ; preds = %bb5
  ret void, !dbg !168

bb6:                                              ; preds = %bb5
  %7 = bitcast %"core::option::Option<(usize, usize)>"* %_12 to %"core::option::Option<(usize, usize)>::Some"*, !dbg !169
  %8 = getelementptr inbounds %"core::option::Option<(usize, usize)>::Some", %"core::option::Option<(usize, usize)>::Some"* %7, i32 0, i32 1, !dbg !169
  %9 = bitcast { i64, i64 }* %8 to i64*, !dbg !169
  %i = load i64, i64* %9, align 8, !dbg !169
  store i64 %i, i64* %i.dbg.spill, align 8, !dbg !169
  call void @llvm.dbg.declare(metadata i64* %i.dbg.spill, metadata !149, metadata !DIExpression()), !dbg !170
  %10 = bitcast %"core::option::Option<(usize, usize)>"* %_12 to %"core::option::Option<(usize, usize)>::Some"*, !dbg !171
  %11 = getelementptr inbounds %"core::option::Option<(usize, usize)>::Some", %"core::option::Option<(usize, usize)>::Some"* %10, i32 0, i32 1, !dbg !171
  %12 = getelementptr inbounds { i64, i64 }, { i64, i64 }* %11, i32 0, i32 1, !dbg !171
  %bit_index = load i64, i64* %12, align 8, !dbg !171
  store i64 %bit_index, i64* %bit_index.dbg.spill, align 8, !dbg !171
  call void @llvm.dbg.declare(metadata i64* %bit_index.dbg.spill, metadata !151, metadata !DIExpression()), !dbg !172
  %byte_index = udiv i64 %bit_index, 8, !dbg !173
  store i64 %byte_index, i64* %byte_index.dbg.spill, align 8, !dbg !173
  call void @llvm.dbg.declare(metadata i64* %byte_index.dbg.spill, metadata !152, metadata !DIExpression()), !dbg !174
  %_23 = icmp ult i64 %byte_index, %field.1, !dbg !175
  %13 = call i1 @llvm.expect.i1(i1 %_23, i1 true), !dbg !175
  br i1 %13, label %bb9, label %panic, !dbg !175

bb9:                                              ; preds = %bb6
  %byte = getelementptr inbounds [0 x i8], [0 x i8]* %field.0, i64 0, i64 %byte_index, !dbg !176
  store i8* %byte, i8** %byte.dbg.spill, align 8, !dbg !176
  call void @llvm.dbg.declare(metadata i8** %byte.dbg.spill, metadata !154, metadata !DIExpression()), !dbg !177
; call <i64 as c2rust_bitfields::FieldType>::get_bit
  %_24 = call zeroext i1 @"_ZN51_$LT$i64$u20$as$u20$c2rust_bitfields..FieldType$GT$7get_bit17h2de8f236c2cc6385E"(i64* align 8 %self, i64 %i), !dbg !178
  br label %bb10, !dbg !178

panic:                                            ; preds = %bb6
; call core::panicking::panic_bounds_check
  call void @_ZN4core9panicking18panic_bounds_check17h66852fee8138fdc4E(i64 %byte_index, i64 %field.1, %"core::panic::location::Location"* align 8 bitcast (<{ i8*, [16 x i8] }>* @alloc888 to %"core::panic::location::Location"*)) #7, !dbg !175
  unreachable, !dbg !175

bb10:                                             ; preds = %bb9
  br i1 %_24, label %bb11, label %bb12, !dbg !178

bb12:                                             ; preds = %bb10
  %_35 = urem i64 %bit_index, 8, !dbg !179
; call c2rust_bitfields::FieldType::set_field::zero_bit
  call void @_ZN16c2rust_bitfields9FieldType9set_field8zero_bit17h7e4c28644030145eE(i8* align 1 %byte, i64 %_35), !dbg !180
  br label %bb4, !dbg !180

bb11:                                             ; preds = %bb10
  %_30 = urem i64 %bit_index, 8, !dbg !181
; call c2rust_bitfields::FieldType::set_field::one_bit
  call void @_ZN16c2rust_bitfields9FieldType9set_field7one_bit17hed52b88a9316635eE(i8* align 1 %byte, i64 %_30), !dbg !182
  br label %bb4, !dbg !182
}

; c2rust_bitfields::FieldType::set_field
; Function Attrs: nonlazybind uwtable
define void @_ZN16c2rust_bitfields9FieldType9set_field17h10d436e4fa54df1aE(i8* align 1 %self, [0 x i8]* align 1 %field.0, i64 %field.1, i64 %bit_range.0, i64 %bit_range.1) unnamed_addr #0 !dbg !183 {
start:
  %byte.dbg.spill = alloca i8*, align 8
  %byte_index.dbg.spill = alloca i64, align 8
  %bit_index.dbg.spill = alloca i64, align 8
  %i.dbg.spill = alloca i64, align 8
  %rhs_bit.dbg.spill = alloca i64, align 8
  %lhs_bit.dbg.spill = alloca i64, align 8
  %bit_range.dbg.spill = alloca { i64, i64 }, align 8
  %field.dbg.spill = alloca { [0 x i8]*, i64 }, align 8
  %self.dbg.spill = alloca i8*, align 8
  %_12 = alloca %"core::option::Option<(usize, usize)>", align 8
  %iter = alloca %"core::iter::adapters::enumerate::Enumerate<core::ops::range::RangeInclusive<usize>>", align 8
  %_8 = alloca %"core::ops::range::RangeInclusive<usize>", align 8
  %_7 = alloca %"core::iter::adapters::enumerate::Enumerate<core::ops::range::RangeInclusive<usize>>", align 8
  %_6 = alloca %"core::iter::adapters::enumerate::Enumerate<core::ops::range::RangeInclusive<usize>>", align 8
  store i8* %self, i8** %self.dbg.spill, align 8
  call void @llvm.dbg.declare(metadata i8** %self.dbg.spill, metadata !188, metadata !DIExpression()), !dbg !205
  %0 = getelementptr inbounds { [0 x i8]*, i64 }, { [0 x i8]*, i64 }* %field.dbg.spill, i32 0, i32 0
  store [0 x i8]* %field.0, [0 x i8]** %0, align 8
  %1 = getelementptr inbounds { [0 x i8]*, i64 }, { [0 x i8]*, i64 }* %field.dbg.spill, i32 0, i32 1
  store i64 %field.1, i64* %1, align 8
  call void @llvm.dbg.declare(metadata { [0 x i8]*, i64 }* %field.dbg.spill, metadata !189, metadata !DIExpression()), !dbg !206
  %2 = getelementptr inbounds { i64, i64 }, { i64, i64 }* %bit_range.dbg.spill, i32 0, i32 0
  store i64 %bit_range.0, i64* %2, align 8
  %3 = getelementptr inbounds { i64, i64 }, { i64, i64 }* %bit_range.dbg.spill, i32 0, i32 1
  store i64 %bit_range.1, i64* %3, align 8
  call void @llvm.dbg.declare(metadata { i64, i64 }* %bit_range.dbg.spill, metadata !190, metadata !DIExpression()), !dbg !207
  call void @llvm.dbg.declare(metadata %"core::iter::adapters::enumerate::Enumerate<core::ops::range::RangeInclusive<usize>>"* %iter, metadata !194, metadata !DIExpression()), !dbg !208
  store i64 %bit_range.0, i64* %lhs_bit.dbg.spill, align 8, !dbg !209
  call void @llvm.dbg.declare(metadata i64* %lhs_bit.dbg.spill, metadata !191, metadata !DIExpression()), !dbg !210
  store i64 %bit_range.1, i64* %rhs_bit.dbg.spill, align 8, !dbg !211
  call void @llvm.dbg.declare(metadata i64* %rhs_bit.dbg.spill, metadata !193, metadata !DIExpression()), !dbg !212
; call core::ops::range::RangeInclusive<Idx>::new
  call void @"_ZN4core3ops5range25RangeInclusive$LT$Idx$GT$3new17he94ee9abc05f1a5bE"(%"core::ops::range::RangeInclusive<usize>"* sret(%"core::ops::range::RangeInclusive<usize>") %_8, i64 %bit_range.0, i64 %bit_range.1), !dbg !213
  br label %bb1, !dbg !213

bb1:                                              ; preds = %start
; call core::iter::traits::iterator::Iterator::enumerate
  call void @_ZN4core4iter6traits8iterator8Iterator9enumerate17h1f28f3caa04e2122E(%"core::iter::adapters::enumerate::Enumerate<core::ops::range::RangeInclusive<usize>>"* sret(%"core::iter::adapters::enumerate::Enumerate<core::ops::range::RangeInclusive<usize>>") %_7, %"core::ops::range::RangeInclusive<usize>"* %_8), !dbg !213
  br label %bb2, !dbg !213

bb2:                                              ; preds = %bb1
; call <I as core::iter::traits::collect::IntoIterator>::into_iter
  call void @"_ZN63_$LT$I$u20$as$u20$core..iter..traits..collect..IntoIterator$GT$9into_iter17h550124643d355992E"(%"core::iter::adapters::enumerate::Enumerate<core::ops::range::RangeInclusive<usize>>"* sret(%"core::iter::adapters::enumerate::Enumerate<core::ops::range::RangeInclusive<usize>>") %_6, %"core::iter::adapters::enumerate::Enumerate<core::ops::range::RangeInclusive<usize>>"* %_7), !dbg !213
  br label %bb3, !dbg !213

bb3:                                              ; preds = %bb2
  %4 = bitcast %"core::iter::adapters::enumerate::Enumerate<core::ops::range::RangeInclusive<usize>>"* %iter to i8*, !dbg !213
  %5 = bitcast %"core::iter::adapters::enumerate::Enumerate<core::ops::range::RangeInclusive<usize>>"* %_6 to i8*, !dbg !213
  call void @llvm.memcpy.p0i8.p0i8.i64(i8* align 8 %4, i8* align 8 %5, i64 32, i1 false), !dbg !213
  br label %bb4, !dbg !214

bb4:                                              ; preds = %bb12, %bb11, %bb3
; call <core::iter::adapters::enumerate::Enumerate<I> as core::iter::traits::iterator::Iterator>::next
  call void @"_ZN110_$LT$core..iter..adapters..enumerate..Enumerate$LT$I$GT$$u20$as$u20$core..iter..traits..iterator..Iterator$GT$4next17h9a2f266e6501a271E"(%"core::option::Option<(usize, usize)>"* sret(%"core::option::Option<(usize, usize)>") %_12, %"core::iter::adapters::enumerate::Enumerate<core::ops::range::RangeInclusive<usize>>"* align 8 %iter), !dbg !208
  br label %bb5, !dbg !208

bb5:                                              ; preds = %bb4
  %6 = bitcast %"core::option::Option<(usize, usize)>"* %_12 to i64*, !dbg !208
  %_15 = load i64, i64* %6, align 8, !dbg !208, !range !119, !noundef !13
  switch i64 %_15, label %bb7 [
    i64 0, label %bb8
    i64 1, label %bb6
  ], !dbg !208

bb7:                                              ; preds = %bb5
  unreachable, !dbg !208

bb8:                                              ; preds = %bb5
  ret void, !dbg !215

bb6:                                              ; preds = %bb5
  %7 = bitcast %"core::option::Option<(usize, usize)>"* %_12 to %"core::option::Option<(usize, usize)>::Some"*, !dbg !216
  %8 = getelementptr inbounds %"core::option::Option<(usize, usize)>::Some", %"core::option::Option<(usize, usize)>::Some"* %7, i32 0, i32 1, !dbg !216
  %9 = bitcast { i64, i64 }* %8 to i64*, !dbg !216
  %i = load i64, i64* %9, align 8, !dbg !216
  store i64 %i, i64* %i.dbg.spill, align 8, !dbg !216
  call void @llvm.dbg.declare(metadata i64* %i.dbg.spill, metadata !196, metadata !DIExpression()), !dbg !217
  %10 = bitcast %"core::option::Option<(usize, usize)>"* %_12 to %"core::option::Option<(usize, usize)>::Some"*, !dbg !218
  %11 = getelementptr inbounds %"core::option::Option<(usize, usize)>::Some", %"core::option::Option<(usize, usize)>::Some"* %10, i32 0, i32 1, !dbg !218
  %12 = getelementptr inbounds { i64, i64 }, { i64, i64 }* %11, i32 0, i32 1, !dbg !218
  %bit_index = load i64, i64* %12, align 8, !dbg !218
  store i64 %bit_index, i64* %bit_index.dbg.spill, align 8, !dbg !218
  call void @llvm.dbg.declare(metadata i64* %bit_index.dbg.spill, metadata !198, metadata !DIExpression()), !dbg !219
  %byte_index = udiv i64 %bit_index, 8, !dbg !220
  store i64 %byte_index, i64* %byte_index.dbg.spill, align 8, !dbg !220
  call void @llvm.dbg.declare(metadata i64* %byte_index.dbg.spill, metadata !199, metadata !DIExpression()), !dbg !221
  %_23 = icmp ult i64 %byte_index, %field.1, !dbg !222
  %13 = call i1 @llvm.expect.i1(i1 %_23, i1 true), !dbg !222
  br i1 %13, label %bb9, label %panic, !dbg !222

bb9:                                              ; preds = %bb6
  %byte = getelementptr inbounds [0 x i8], [0 x i8]* %field.0, i64 0, i64 %byte_index, !dbg !223
  store i8* %byte, i8** %byte.dbg.spill, align 8, !dbg !223
  call void @llvm.dbg.declare(metadata i8** %byte.dbg.spill, metadata !201, metadata !DIExpression()), !dbg !224
; call <u8 as c2rust_bitfields::FieldType>::get_bit
  %_24 = call zeroext i1 @"_ZN50_$LT$u8$u20$as$u20$c2rust_bitfields..FieldType$GT$7get_bit17hd6fc371afcccf4f1E"(i8* align 1 %self, i64 %i), !dbg !225
  br label %bb10, !dbg !225

panic:                                            ; preds = %bb6
; call core::panicking::panic_bounds_check
  call void @_ZN4core9panicking18panic_bounds_check17h66852fee8138fdc4E(i64 %byte_index, i64 %field.1, %"core::panic::location::Location"* align 8 bitcast (<{ i8*, [16 x i8] }>* @alloc888 to %"core::panic::location::Location"*)) #7, !dbg !222
  unreachable, !dbg !222

bb10:                                             ; preds = %bb9
  br i1 %_24, label %bb11, label %bb12, !dbg !225

bb12:                                             ; preds = %bb10
  %_35 = urem i64 %bit_index, 8, !dbg !226
; call c2rust_bitfields::FieldType::set_field::zero_bit
  call void @_ZN16c2rust_bitfields9FieldType9set_field8zero_bit17h7e4c28644030145eE(i8* align 1 %byte, i64 %_35), !dbg !227
  br label %bb4, !dbg !227

bb11:                                             ; preds = %bb10
  %_30 = urem i64 %bit_index, 8, !dbg !228
; call c2rust_bitfields::FieldType::set_field::one_bit
  call void @_ZN16c2rust_bitfields9FieldType9set_field7one_bit17hed52b88a9316635eE(i8* align 1 %byte, i64 %_30), !dbg !229
  br label %bb4, !dbg !229
}

; c2rust_bitfields::FieldType::set_field
; Function Attrs: nonlazybind uwtable
define void @_ZN16c2rust_bitfields9FieldType9set_field17h824e6a28eba6d10cE(i32* align 4 %self, [0 x i8]* align 1 %field.0, i64 %field.1, i64 %bit_range.0, i64 %bit_range.1) unnamed_addr #0 !dbg !230 {
start:
  %byte.dbg.spill = alloca i8*, align 8
  %byte_index.dbg.spill = alloca i64, align 8
  %bit_index.dbg.spill = alloca i64, align 8
  %i.dbg.spill = alloca i64, align 8
  %rhs_bit.dbg.spill = alloca i64, align 8
  %lhs_bit.dbg.spill = alloca i64, align 8
  %bit_range.dbg.spill = alloca { i64, i64 }, align 8
  %field.dbg.spill = alloca { [0 x i8]*, i64 }, align 8
  %self.dbg.spill = alloca i32*, align 8
  %_12 = alloca %"core::option::Option<(usize, usize)>", align 8
  %iter = alloca %"core::iter::adapters::enumerate::Enumerate<core::ops::range::RangeInclusive<usize>>", align 8
  %_8 = alloca %"core::ops::range::RangeInclusive<usize>", align 8
  %_7 = alloca %"core::iter::adapters::enumerate::Enumerate<core::ops::range::RangeInclusive<usize>>", align 8
  %_6 = alloca %"core::iter::adapters::enumerate::Enumerate<core::ops::range::RangeInclusive<usize>>", align 8
  store i32* %self, i32** %self.dbg.spill, align 8
  call void @llvm.dbg.declare(metadata i32** %self.dbg.spill, metadata !235, metadata !DIExpression()), !dbg !252
  %0 = getelementptr inbounds { [0 x i8]*, i64 }, { [0 x i8]*, i64 }* %field.dbg.spill, i32 0, i32 0
  store [0 x i8]* %field.0, [0 x i8]** %0, align 8
  %1 = getelementptr inbounds { [0 x i8]*, i64 }, { [0 x i8]*, i64 }* %field.dbg.spill, i32 0, i32 1
  store i64 %field.1, i64* %1, align 8
  call void @llvm.dbg.declare(metadata { [0 x i8]*, i64 }* %field.dbg.spill, metadata !236, metadata !DIExpression()), !dbg !253
  %2 = getelementptr inbounds { i64, i64 }, { i64, i64 }* %bit_range.dbg.spill, i32 0, i32 0
  store i64 %bit_range.0, i64* %2, align 8
  %3 = getelementptr inbounds { i64, i64 }, { i64, i64 }* %bit_range.dbg.spill, i32 0, i32 1
  store i64 %bit_range.1, i64* %3, align 8
  call void @llvm.dbg.declare(metadata { i64, i64 }* %bit_range.dbg.spill, metadata !237, metadata !DIExpression()), !dbg !254
  call void @llvm.dbg.declare(metadata %"core::iter::adapters::enumerate::Enumerate<core::ops::range::RangeInclusive<usize>>"* %iter, metadata !241, metadata !DIExpression()), !dbg !255
  store i64 %bit_range.0, i64* %lhs_bit.dbg.spill, align 8, !dbg !256
  call void @llvm.dbg.declare(metadata i64* %lhs_bit.dbg.spill, metadata !238, metadata !DIExpression()), !dbg !257
  store i64 %bit_range.1, i64* %rhs_bit.dbg.spill, align 8, !dbg !258
  call void @llvm.dbg.declare(metadata i64* %rhs_bit.dbg.spill, metadata !240, metadata !DIExpression()), !dbg !259
; call core::ops::range::RangeInclusive<Idx>::new
  call void @"_ZN4core3ops5range25RangeInclusive$LT$Idx$GT$3new17he94ee9abc05f1a5bE"(%"core::ops::range::RangeInclusive<usize>"* sret(%"core::ops::range::RangeInclusive<usize>") %_8, i64 %bit_range.0, i64 %bit_range.1), !dbg !260
  br label %bb1, !dbg !260

bb1:                                              ; preds = %start
; call core::iter::traits::iterator::Iterator::enumerate
  call void @_ZN4core4iter6traits8iterator8Iterator9enumerate17h1f28f3caa04e2122E(%"core::iter::adapters::enumerate::Enumerate<core::ops::range::RangeInclusive<usize>>"* sret(%"core::iter::adapters::enumerate::Enumerate<core::ops::range::RangeInclusive<usize>>") %_7, %"core::ops::range::RangeInclusive<usize>"* %_8), !dbg !260
  br label %bb2, !dbg !260

bb2:                                              ; preds = %bb1
; call <I as core::iter::traits::collect::IntoIterator>::into_iter
  call void @"_ZN63_$LT$I$u20$as$u20$core..iter..traits..collect..IntoIterator$GT$9into_iter17h550124643d355992E"(%"core::iter::adapters::enumerate::Enumerate<core::ops::range::RangeInclusive<usize>>"* sret(%"core::iter::adapters::enumerate::Enumerate<core::ops::range::RangeInclusive<usize>>") %_6, %"core::iter::adapters::enumerate::Enumerate<core::ops::range::RangeInclusive<usize>>"* %_7), !dbg !260
  br label %bb3, !dbg !260

bb3:                                              ; preds = %bb2
  %4 = bitcast %"core::iter::adapters::enumerate::Enumerate<core::ops::range::RangeInclusive<usize>>"* %iter to i8*, !dbg !260
  %5 = bitcast %"core::iter::adapters::enumerate::Enumerate<core::ops::range::RangeInclusive<usize>>"* %_6 to i8*, !dbg !260
  call void @llvm.memcpy.p0i8.p0i8.i64(i8* align 8 %4, i8* align 8 %5, i64 32, i1 false), !dbg !260
  br label %bb4, !dbg !261

bb4:                                              ; preds = %bb12, %bb11, %bb3
; call <core::iter::adapters::enumerate::Enumerate<I> as core::iter::traits::iterator::Iterator>::next
  call void @"_ZN110_$LT$core..iter..adapters..enumerate..Enumerate$LT$I$GT$$u20$as$u20$core..iter..traits..iterator..Iterator$GT$4next17h9a2f266e6501a271E"(%"core::option::Option<(usize, usize)>"* sret(%"core::option::Option<(usize, usize)>") %_12, %"core::iter::adapters::enumerate::Enumerate<core::ops::range::RangeInclusive<usize>>"* align 8 %iter), !dbg !255
  br label %bb5, !dbg !255

bb5:                                              ; preds = %bb4
  %6 = bitcast %"core::option::Option<(usize, usize)>"* %_12 to i64*, !dbg !255
  %_15 = load i64, i64* %6, align 8, !dbg !255, !range !119, !noundef !13
  switch i64 %_15, label %bb7 [
    i64 0, label %bb8
    i64 1, label %bb6
  ], !dbg !255

bb7:                                              ; preds = %bb5
  unreachable, !dbg !255

bb8:                                              ; preds = %bb5
  ret void, !dbg !262

bb6:                                              ; preds = %bb5
  %7 = bitcast %"core::option::Option<(usize, usize)>"* %_12 to %"core::option::Option<(usize, usize)>::Some"*, !dbg !263
  %8 = getelementptr inbounds %"core::option::Option<(usize, usize)>::Some", %"core::option::Option<(usize, usize)>::Some"* %7, i32 0, i32 1, !dbg !263
  %9 = bitcast { i64, i64 }* %8 to i64*, !dbg !263
  %i = load i64, i64* %9, align 8, !dbg !263
  store i64 %i, i64* %i.dbg.spill, align 8, !dbg !263
  call void @llvm.dbg.declare(metadata i64* %i.dbg.spill, metadata !243, metadata !DIExpression()), !dbg !264
  %10 = bitcast %"core::option::Option<(usize, usize)>"* %_12 to %"core::option::Option<(usize, usize)>::Some"*, !dbg !265
  %11 = getelementptr inbounds %"core::option::Option<(usize, usize)>::Some", %"core::option::Option<(usize, usize)>::Some"* %10, i32 0, i32 1, !dbg !265
  %12 = getelementptr inbounds { i64, i64 }, { i64, i64 }* %11, i32 0, i32 1, !dbg !265
  %bit_index = load i64, i64* %12, align 8, !dbg !265
  store i64 %bit_index, i64* %bit_index.dbg.spill, align 8, !dbg !265
  call void @llvm.dbg.declare(metadata i64* %bit_index.dbg.spill, metadata !245, metadata !DIExpression()), !dbg !266
  %byte_index = udiv i64 %bit_index, 8, !dbg !267
  store i64 %byte_index, i64* %byte_index.dbg.spill, align 8, !dbg !267
  call void @llvm.dbg.declare(metadata i64* %byte_index.dbg.spill, metadata !246, metadata !DIExpression()), !dbg !268
  %_23 = icmp ult i64 %byte_index, %field.1, !dbg !269
  %13 = call i1 @llvm.expect.i1(i1 %_23, i1 true), !dbg !269
  br i1 %13, label %bb9, label %panic, !dbg !269

bb9:                                              ; preds = %bb6
  %byte = getelementptr inbounds [0 x i8], [0 x i8]* %field.0, i64 0, i64 %byte_index, !dbg !270
  store i8* %byte, i8** %byte.dbg.spill, align 8, !dbg !270
  call void @llvm.dbg.declare(metadata i8** %byte.dbg.spill, metadata !248, metadata !DIExpression()), !dbg !271
; call <i32 as c2rust_bitfields::FieldType>::get_bit
  %_24 = call zeroext i1 @"_ZN51_$LT$i32$u20$as$u20$c2rust_bitfields..FieldType$GT$7get_bit17hd0a211c1fd2c7f30E"(i32* align 4 %self, i64 %i), !dbg !272
  br label %bb10, !dbg !272

panic:                                            ; preds = %bb6
; call core::panicking::panic_bounds_check
  call void @_ZN4core9panicking18panic_bounds_check17h66852fee8138fdc4E(i64 %byte_index, i64 %field.1, %"core::panic::location::Location"* align 8 bitcast (<{ i8*, [16 x i8] }>* @alloc888 to %"core::panic::location::Location"*)) #7, !dbg !269
  unreachable, !dbg !269

bb10:                                             ; preds = %bb9
  br i1 %_24, label %bb11, label %bb12, !dbg !272

bb12:                                             ; preds = %bb10
  %_35 = urem i64 %bit_index, 8, !dbg !273
; call c2rust_bitfields::FieldType::set_field::zero_bit
  call void @_ZN16c2rust_bitfields9FieldType9set_field8zero_bit17h7e4c28644030145eE(i8* align 1 %byte, i64 %_35), !dbg !274
  br label %bb4, !dbg !274

bb11:                                             ; preds = %bb10
  %_30 = urem i64 %bit_index, 8, !dbg !275
; call c2rust_bitfields::FieldType::set_field::one_bit
  call void @_ZN16c2rust_bitfields9FieldType9set_field7one_bit17hed52b88a9316635eE(i8* align 1 %byte, i64 %_30), !dbg !276
  br label %bb4, !dbg !276
}

; c2rust_bitfields::FieldType::set_field
; Function Attrs: nonlazybind uwtable
define void @_ZN16c2rust_bitfields9FieldType9set_field17h8786d49b1f164be1E(i64* align 8 %self, [0 x i8]* align 1 %field.0, i64 %field.1, i64 %bit_range.0, i64 %bit_range.1) unnamed_addr #0 !dbg !277 {
start:
  %byte.dbg.spill = alloca i8*, align 8
  %byte_index.dbg.spill = alloca i64, align 8
  %bit_index.dbg.spill = alloca i64, align 8
  %i.dbg.spill = alloca i64, align 8
  %rhs_bit.dbg.spill = alloca i64, align 8
  %lhs_bit.dbg.spill = alloca i64, align 8
  %bit_range.dbg.spill = alloca { i64, i64 }, align 8
  %field.dbg.spill = alloca { [0 x i8]*, i64 }, align 8
  %self.dbg.spill = alloca i64*, align 8
  %_12 = alloca %"core::option::Option<(usize, usize)>", align 8
  %iter = alloca %"core::iter::adapters::enumerate::Enumerate<core::ops::range::RangeInclusive<usize>>", align 8
  %_8 = alloca %"core::ops::range::RangeInclusive<usize>", align 8
  %_7 = alloca %"core::iter::adapters::enumerate::Enumerate<core::ops::range::RangeInclusive<usize>>", align 8
  %_6 = alloca %"core::iter::adapters::enumerate::Enumerate<core::ops::range::RangeInclusive<usize>>", align 8
  store i64* %self, i64** %self.dbg.spill, align 8
  call void @llvm.dbg.declare(metadata i64** %self.dbg.spill, metadata !283, metadata !DIExpression()), !dbg !300
  %0 = getelementptr inbounds { [0 x i8]*, i64 }, { [0 x i8]*, i64 }* %field.dbg.spill, i32 0, i32 0
  store [0 x i8]* %field.0, [0 x i8]** %0, align 8
  %1 = getelementptr inbounds { [0 x i8]*, i64 }, { [0 x i8]*, i64 }* %field.dbg.spill, i32 0, i32 1
  store i64 %field.1, i64* %1, align 8
  call void @llvm.dbg.declare(metadata { [0 x i8]*, i64 }* %field.dbg.spill, metadata !284, metadata !DIExpression()), !dbg !301
  %2 = getelementptr inbounds { i64, i64 }, { i64, i64 }* %bit_range.dbg.spill, i32 0, i32 0
  store i64 %bit_range.0, i64* %2, align 8
  %3 = getelementptr inbounds { i64, i64 }, { i64, i64 }* %bit_range.dbg.spill, i32 0, i32 1
  store i64 %bit_range.1, i64* %3, align 8
  call void @llvm.dbg.declare(metadata { i64, i64 }* %bit_range.dbg.spill, metadata !285, metadata !DIExpression()), !dbg !302
  call void @llvm.dbg.declare(metadata %"core::iter::adapters::enumerate::Enumerate<core::ops::range::RangeInclusive<usize>>"* %iter, metadata !289, metadata !DIExpression()), !dbg !303
  store i64 %bit_range.0, i64* %lhs_bit.dbg.spill, align 8, !dbg !304
  call void @llvm.dbg.declare(metadata i64* %lhs_bit.dbg.spill, metadata !286, metadata !DIExpression()), !dbg !305
  store i64 %bit_range.1, i64* %rhs_bit.dbg.spill, align 8, !dbg !306
  call void @llvm.dbg.declare(metadata i64* %rhs_bit.dbg.spill, metadata !288, metadata !DIExpression()), !dbg !307
; call core::ops::range::RangeInclusive<Idx>::new
  call void @"_ZN4core3ops5range25RangeInclusive$LT$Idx$GT$3new17he94ee9abc05f1a5bE"(%"core::ops::range::RangeInclusive<usize>"* sret(%"core::ops::range::RangeInclusive<usize>") %_8, i64 %bit_range.0, i64 %bit_range.1), !dbg !308
  br label %bb1, !dbg !308

bb1:                                              ; preds = %start
; call core::iter::traits::iterator::Iterator::enumerate
  call void @_ZN4core4iter6traits8iterator8Iterator9enumerate17h1f28f3caa04e2122E(%"core::iter::adapters::enumerate::Enumerate<core::ops::range::RangeInclusive<usize>>"* sret(%"core::iter::adapters::enumerate::Enumerate<core::ops::range::RangeInclusive<usize>>") %_7, %"core::ops::range::RangeInclusive<usize>"* %_8), !dbg !308
  br label %bb2, !dbg !308

bb2:                                              ; preds = %bb1
; call <I as core::iter::traits::collect::IntoIterator>::into_iter
  call void @"_ZN63_$LT$I$u20$as$u20$core..iter..traits..collect..IntoIterator$GT$9into_iter17h550124643d355992E"(%"core::iter::adapters::enumerate::Enumerate<core::ops::range::RangeInclusive<usize>>"* sret(%"core::iter::adapters::enumerate::Enumerate<core::ops::range::RangeInclusive<usize>>") %_6, %"core::iter::adapters::enumerate::Enumerate<core::ops::range::RangeInclusive<usize>>"* %_7), !dbg !308
  br label %bb3, !dbg !308

bb3:                                              ; preds = %bb2
  %4 = bitcast %"core::iter::adapters::enumerate::Enumerate<core::ops::range::RangeInclusive<usize>>"* %iter to i8*, !dbg !308
  %5 = bitcast %"core::iter::adapters::enumerate::Enumerate<core::ops::range::RangeInclusive<usize>>"* %_6 to i8*, !dbg !308
  call void @llvm.memcpy.p0i8.p0i8.i64(i8* align 8 %4, i8* align 8 %5, i64 32, i1 false), !dbg !308
  br label %bb4, !dbg !309

bb4:                                              ; preds = %bb12, %bb11, %bb3
; call <core::iter::adapters::enumerate::Enumerate<I> as core::iter::traits::iterator::Iterator>::next
  call void @"_ZN110_$LT$core..iter..adapters..enumerate..Enumerate$LT$I$GT$$u20$as$u20$core..iter..traits..iterator..Iterator$GT$4next17h9a2f266e6501a271E"(%"core::option::Option<(usize, usize)>"* sret(%"core::option::Option<(usize, usize)>") %_12, %"core::iter::adapters::enumerate::Enumerate<core::ops::range::RangeInclusive<usize>>"* align 8 %iter), !dbg !303
  br label %bb5, !dbg !303

bb5:                                              ; preds = %bb4
  %6 = bitcast %"core::option::Option<(usize, usize)>"* %_12 to i64*, !dbg !303
  %_15 = load i64, i64* %6, align 8, !dbg !303, !range !119, !noundef !13
  switch i64 %_15, label %bb7 [
    i64 0, label %bb8
    i64 1, label %bb6
  ], !dbg !303

bb7:                                              ; preds = %bb5
  unreachable, !dbg !303

bb8:                                              ; preds = %bb5
  ret void, !dbg !310

bb6:                                              ; preds = %bb5
  %7 = bitcast %"core::option::Option<(usize, usize)>"* %_12 to %"core::option::Option<(usize, usize)>::Some"*, !dbg !311
  %8 = getelementptr inbounds %"core::option::Option<(usize, usize)>::Some", %"core::option::Option<(usize, usize)>::Some"* %7, i32 0, i32 1, !dbg !311
  %9 = bitcast { i64, i64 }* %8 to i64*, !dbg !311
  %i = load i64, i64* %9, align 8, !dbg !311
  store i64 %i, i64* %i.dbg.spill, align 8, !dbg !311
  call void @llvm.dbg.declare(metadata i64* %i.dbg.spill, metadata !291, metadata !DIExpression()), !dbg !312
  %10 = bitcast %"core::option::Option<(usize, usize)>"* %_12 to %"core::option::Option<(usize, usize)>::Some"*, !dbg !313
  %11 = getelementptr inbounds %"core::option::Option<(usize, usize)>::Some", %"core::option::Option<(usize, usize)>::Some"* %10, i32 0, i32 1, !dbg !313
  %12 = getelementptr inbounds { i64, i64 }, { i64, i64 }* %11, i32 0, i32 1, !dbg !313
  %bit_index = load i64, i64* %12, align 8, !dbg !313
  store i64 %bit_index, i64* %bit_index.dbg.spill, align 8, !dbg !313
  call void @llvm.dbg.declare(metadata i64* %bit_index.dbg.spill, metadata !293, metadata !DIExpression()), !dbg !314
  %byte_index = udiv i64 %bit_index, 8, !dbg !315
  store i64 %byte_index, i64* %byte_index.dbg.spill, align 8, !dbg !315
  call void @llvm.dbg.declare(metadata i64* %byte_index.dbg.spill, metadata !294, metadata !DIExpression()), !dbg !316
  %_23 = icmp ult i64 %byte_index, %field.1, !dbg !317
  %13 = call i1 @llvm.expect.i1(i1 %_23, i1 true), !dbg !317
  br i1 %13, label %bb9, label %panic, !dbg !317

bb9:                                              ; preds = %bb6
  %byte = getelementptr inbounds [0 x i8], [0 x i8]* %field.0, i64 0, i64 %byte_index, !dbg !318
  store i8* %byte, i8** %byte.dbg.spill, align 8, !dbg !318
  call void @llvm.dbg.declare(metadata i8** %byte.dbg.spill, metadata !296, metadata !DIExpression()), !dbg !319
; call <u64 as c2rust_bitfields::FieldType>::get_bit
  %_24 = call zeroext i1 @"_ZN51_$LT$u64$u20$as$u20$c2rust_bitfields..FieldType$GT$7get_bit17h7cda9870ea846b6fE"(i64* align 8 %self, i64 %i), !dbg !320
  br label %bb10, !dbg !320

panic:                                            ; preds = %bb6
; call core::panicking::panic_bounds_check
  call void @_ZN4core9panicking18panic_bounds_check17h66852fee8138fdc4E(i64 %byte_index, i64 %field.1, %"core::panic::location::Location"* align 8 bitcast (<{ i8*, [16 x i8] }>* @alloc888 to %"core::panic::location::Location"*)) #7, !dbg !317
  unreachable, !dbg !317

bb10:                                             ; preds = %bb9
  br i1 %_24, label %bb11, label %bb12, !dbg !320

bb12:                                             ; preds = %bb10
  %_35 = urem i64 %bit_index, 8, !dbg !321
; call c2rust_bitfields::FieldType::set_field::zero_bit
  call void @_ZN16c2rust_bitfields9FieldType9set_field8zero_bit17h7e4c28644030145eE(i8* align 1 %byte, i64 %_35), !dbg !322
  br label %bb4, !dbg !322

bb11:                                             ; preds = %bb10
  %_30 = urem i64 %bit_index, 8, !dbg !323
; call c2rust_bitfields::FieldType::set_field::one_bit
  call void @_ZN16c2rust_bitfields9FieldType9set_field7one_bit17hed52b88a9316635eE(i8* align 1 %byte, i64 %_30), !dbg !324
  br label %bb4, !dbg !324
}

; c2rust_bitfields::FieldType::set_field
; Function Attrs: nonlazybind uwtable
define void @_ZN16c2rust_bitfields9FieldType9set_field17hfd53dbc52b248e6aE(i16* align 2 %self, [0 x i8]* align 1 %field.0, i64 %field.1, i64 %bit_range.0, i64 %bit_range.1) unnamed_addr #0 !dbg !325 {
start:
  %byte.dbg.spill = alloca i8*, align 8
  %byte_index.dbg.spill = alloca i64, align 8
  %bit_index.dbg.spill = alloca i64, align 8
  %i.dbg.spill = alloca i64, align 8
  %rhs_bit.dbg.spill = alloca i64, align 8
  %lhs_bit.dbg.spill = alloca i64, align 8
  %bit_range.dbg.spill = alloca { i64, i64 }, align 8
  %field.dbg.spill = alloca { [0 x i8]*, i64 }, align 8
  %self.dbg.spill = alloca i16*, align 8
  %_12 = alloca %"core::option::Option<(usize, usize)>", align 8
  %iter = alloca %"core::iter::adapters::enumerate::Enumerate<core::ops::range::RangeInclusive<usize>>", align 8
  %_8 = alloca %"core::ops::range::RangeInclusive<usize>", align 8
  %_7 = alloca %"core::iter::adapters::enumerate::Enumerate<core::ops::range::RangeInclusive<usize>>", align 8
  %_6 = alloca %"core::iter::adapters::enumerate::Enumerate<core::ops::range::RangeInclusive<usize>>", align 8
  store i16* %self, i16** %self.dbg.spill, align 8
  call void @llvm.dbg.declare(metadata i16** %self.dbg.spill, metadata !331, metadata !DIExpression()), !dbg !348
  %0 = getelementptr inbounds { [0 x i8]*, i64 }, { [0 x i8]*, i64 }* %field.dbg.spill, i32 0, i32 0
  store [0 x i8]* %field.0, [0 x i8]** %0, align 8
  %1 = getelementptr inbounds { [0 x i8]*, i64 }, { [0 x i8]*, i64 }* %field.dbg.spill, i32 0, i32 1
  store i64 %field.1, i64* %1, align 8
  call void @llvm.dbg.declare(metadata { [0 x i8]*, i64 }* %field.dbg.spill, metadata !332, metadata !DIExpression()), !dbg !349
  %2 = getelementptr inbounds { i64, i64 }, { i64, i64 }* %bit_range.dbg.spill, i32 0, i32 0
  store i64 %bit_range.0, i64* %2, align 8
  %3 = getelementptr inbounds { i64, i64 }, { i64, i64 }* %bit_range.dbg.spill, i32 0, i32 1
  store i64 %bit_range.1, i64* %3, align 8
  call void @llvm.dbg.declare(metadata { i64, i64 }* %bit_range.dbg.spill, metadata !333, metadata !DIExpression()), !dbg !350
  call void @llvm.dbg.declare(metadata %"core::iter::adapters::enumerate::Enumerate<core::ops::range::RangeInclusive<usize>>"* %iter, metadata !337, metadata !DIExpression()), !dbg !351
  store i64 %bit_range.0, i64* %lhs_bit.dbg.spill, align 8, !dbg !352
  call void @llvm.dbg.declare(metadata i64* %lhs_bit.dbg.spill, metadata !334, metadata !DIExpression()), !dbg !353
  store i64 %bit_range.1, i64* %rhs_bit.dbg.spill, align 8, !dbg !354
  call void @llvm.dbg.declare(metadata i64* %rhs_bit.dbg.spill, metadata !336, metadata !DIExpression()), !dbg !355
; call core::ops::range::RangeInclusive<Idx>::new
  call void @"_ZN4core3ops5range25RangeInclusive$LT$Idx$GT$3new17he94ee9abc05f1a5bE"(%"core::ops::range::RangeInclusive<usize>"* sret(%"core::ops::range::RangeInclusive<usize>") %_8, i64 %bit_range.0, i64 %bit_range.1), !dbg !356
  br label %bb1, !dbg !356

bb1:                                              ; preds = %start
; call core::iter::traits::iterator::Iterator::enumerate
  call void @_ZN4core4iter6traits8iterator8Iterator9enumerate17h1f28f3caa04e2122E(%"core::iter::adapters::enumerate::Enumerate<core::ops::range::RangeInclusive<usize>>"* sret(%"core::iter::adapters::enumerate::Enumerate<core::ops::range::RangeInclusive<usize>>") %_7, %"core::ops::range::RangeInclusive<usize>"* %_8), !dbg !356
  br label %bb2, !dbg !356

bb2:                                              ; preds = %bb1
; call <I as core::iter::traits::collect::IntoIterator>::into_iter
  call void @"_ZN63_$LT$I$u20$as$u20$core..iter..traits..collect..IntoIterator$GT$9into_iter17h550124643d355992E"(%"core::iter::adapters::enumerate::Enumerate<core::ops::range::RangeInclusive<usize>>"* sret(%"core::iter::adapters::enumerate::Enumerate<core::ops::range::RangeInclusive<usize>>") %_6, %"core::iter::adapters::enumerate::Enumerate<core::ops::range::RangeInclusive<usize>>"* %_7), !dbg !356
  br label %bb3, !dbg !356

bb3:                                              ; preds = %bb2
  %4 = bitcast %"core::iter::adapters::enumerate::Enumerate<core::ops::range::RangeInclusive<usize>>"* %iter to i8*, !dbg !356
  %5 = bitcast %"core::iter::adapters::enumerate::Enumerate<core::ops::range::RangeInclusive<usize>>"* %_6 to i8*, !dbg !356
  call void @llvm.memcpy.p0i8.p0i8.i64(i8* align 8 %4, i8* align 8 %5, i64 32, i1 false), !dbg !356
  br label %bb4, !dbg !357

bb4:                                              ; preds = %bb12, %bb11, %bb3
; call <core::iter::adapters::enumerate::Enumerate<I> as core::iter::traits::iterator::Iterator>::next
  call void @"_ZN110_$LT$core..iter..adapters..enumerate..Enumerate$LT$I$GT$$u20$as$u20$core..iter..traits..iterator..Iterator$GT$4next17h9a2f266e6501a271E"(%"core::option::Option<(usize, usize)>"* sret(%"core::option::Option<(usize, usize)>") %_12, %"core::iter::adapters::enumerate::Enumerate<core::ops::range::RangeInclusive<usize>>"* align 8 %iter), !dbg !351
  br label %bb5, !dbg !351

bb5:                                              ; preds = %bb4
  %6 = bitcast %"core::option::Option<(usize, usize)>"* %_12 to i64*, !dbg !351
  %_15 = load i64, i64* %6, align 8, !dbg !351, !range !119, !noundef !13
  switch i64 %_15, label %bb7 [
    i64 0, label %bb8
    i64 1, label %bb6
  ], !dbg !351

bb7:                                              ; preds = %bb5
  unreachable, !dbg !351

bb8:                                              ; preds = %bb5
  ret void, !dbg !358

bb6:                                              ; preds = %bb5
  %7 = bitcast %"core::option::Option<(usize, usize)>"* %_12 to %"core::option::Option<(usize, usize)>::Some"*, !dbg !359
  %8 = getelementptr inbounds %"core::option::Option<(usize, usize)>::Some", %"core::option::Option<(usize, usize)>::Some"* %7, i32 0, i32 1, !dbg !359
  %9 = bitcast { i64, i64 }* %8 to i64*, !dbg !359
  %i = load i64, i64* %9, align 8, !dbg !359
  store i64 %i, i64* %i.dbg.spill, align 8, !dbg !359
  call void @llvm.dbg.declare(metadata i64* %i.dbg.spill, metadata !339, metadata !DIExpression()), !dbg !360
  %10 = bitcast %"core::option::Option<(usize, usize)>"* %_12 to %"core::option::Option<(usize, usize)>::Some"*, !dbg !361
  %11 = getelementptr inbounds %"core::option::Option<(usize, usize)>::Some", %"core::option::Option<(usize, usize)>::Some"* %10, i32 0, i32 1, !dbg !361
  %12 = getelementptr inbounds { i64, i64 }, { i64, i64 }* %11, i32 0, i32 1, !dbg !361
  %bit_index = load i64, i64* %12, align 8, !dbg !361
  store i64 %bit_index, i64* %bit_index.dbg.spill, align 8, !dbg !361
  call void @llvm.dbg.declare(metadata i64* %bit_index.dbg.spill, metadata !341, metadata !DIExpression()), !dbg !362
  %byte_index = udiv i64 %bit_index, 8, !dbg !363
  store i64 %byte_index, i64* %byte_index.dbg.spill, align 8, !dbg !363
  call void @llvm.dbg.declare(metadata i64* %byte_index.dbg.spill, metadata !342, metadata !DIExpression()), !dbg !364
  %_23 = icmp ult i64 %byte_index, %field.1, !dbg !365
  %13 = call i1 @llvm.expect.i1(i1 %_23, i1 true), !dbg !365
  br i1 %13, label %bb9, label %panic, !dbg !365

bb9:                                              ; preds = %bb6
  %byte = getelementptr inbounds [0 x i8], [0 x i8]* %field.0, i64 0, i64 %byte_index, !dbg !366
  store i8* %byte, i8** %byte.dbg.spill, align 8, !dbg !366
  call void @llvm.dbg.declare(metadata i8** %byte.dbg.spill, metadata !344, metadata !DIExpression()), !dbg !367
; call <u16 as c2rust_bitfields::FieldType>::get_bit
  %_24 = call zeroext i1 @"_ZN51_$LT$u16$u20$as$u20$c2rust_bitfields..FieldType$GT$7get_bit17h7bae702e73db2686E"(i16* align 2 %self, i64 %i), !dbg !368
  br label %bb10, !dbg !368

panic:                                            ; preds = %bb6
; call core::panicking::panic_bounds_check
  call void @_ZN4core9panicking18panic_bounds_check17h66852fee8138fdc4E(i64 %byte_index, i64 %field.1, %"core::panic::location::Location"* align 8 bitcast (<{ i8*, [16 x i8] }>* @alloc888 to %"core::panic::location::Location"*)) #7, !dbg !365
  unreachable, !dbg !365

bb10:                                             ; preds = %bb9
  br i1 %_24, label %bb11, label %bb12, !dbg !368

bb12:                                             ; preds = %bb10
  %_35 = urem i64 %bit_index, 8, !dbg !369
; call c2rust_bitfields::FieldType::set_field::zero_bit
  call void @_ZN16c2rust_bitfields9FieldType9set_field8zero_bit17h7e4c28644030145eE(i8* align 1 %byte, i64 %_35), !dbg !370
  br label %bb4, !dbg !370

bb11:                                             ; preds = %bb10
  %_30 = urem i64 %bit_index, 8, !dbg !371
; call c2rust_bitfields::FieldType::set_field::one_bit
  call void @_ZN16c2rust_bitfields9FieldType9set_field7one_bit17hed52b88a9316635eE(i8* align 1 %byte, i64 %_30), !dbg !372
  br label %bb4, !dbg !372
}

; core::mem::forget
; Function Attrs: inlinehint nonlazybind uwtable
define void @_ZN4core3mem6forget17h68d3485425a9cb58E(%"variable_offsetof::use_0"* %t) unnamed_addr #1 !dbg !373 {
start:
  %value = alloca %"variable_offsetof::use_0", align 4
  call void @llvm.dbg.declare(metadata %"variable_offsetof::use_0"* %t, metadata !386, metadata !DIExpression()), !dbg !389
  call void @llvm.dbg.declare(metadata %"variable_offsetof::use_0"* %value, metadata !390, metadata !DIExpression()), !dbg !401
  ret void, !dbg !403
}

; core::mem::forget
; Function Attrs: inlinehint nonlazybind uwtable
define void @_ZN4core3mem6forget17hffeb0557294998e6E(%"variable_offsetof::yield_0"* %t) unnamed_addr #1 !dbg !404 {
start:
  %value = alloca %"variable_offsetof::yield_0", align 4
  call void @llvm.dbg.declare(metadata %"variable_offsetof::yield_0"* %t, metadata !412, metadata !DIExpression()), !dbg !415
  call void @llvm.dbg.declare(metadata %"variable_offsetof::yield_0"* %value, metadata !416, metadata !DIExpression()), !dbg !425
  ret void, !dbg !427
}

; core::slice::<impl [T]>::as_mut_ptr
; Function Attrs: inlinehint nonlazybind uwtable
define i32* @"_ZN4core5slice29_$LT$impl$u20$$u5b$T$u5d$$GT$10as_mut_ptr17h32fbf0a569fb3c36E"([0 x i32]* align 4 %self.0, i64 %self.1) unnamed_addr #1 !dbg !428 {
start:
  %self.dbg.spill = alloca { [0 x i32]*, i64 }, align 8
  %0 = getelementptr inbounds { [0 x i32]*, i64 }, { [0 x i32]*, i64 }* %self.dbg.spill, i32 0, i32 0
  store [0 x i32]* %self.0, [0 x i32]** %0, align 8
  %1 = getelementptr inbounds { [0 x i32]*, i64 }, { [0 x i32]*, i64 }* %self.dbg.spill, i32 0, i32 1
  store i64 %self.1, i64* %1, align 8
  call void @llvm.dbg.declare(metadata { [0 x i32]*, i64 }* %self.dbg.spill, metadata !441, metadata !DIExpression()), !dbg !444
  %2 = bitcast [0 x i32]* %self.0 to i32*, !dbg !445
  ret i32* %2, !dbg !446
}

; Function Attrs: nonlazybind uwtable
define void @rust_exercise_flex_arrays(i32 %sz, i32* %buf) unnamed_addr #0 !dbg !447 {
start:
  %0 = alloca i32*, align 8
  %count.dbg.spill.i90 = alloca i64, align 8
  %self.dbg.spill.i91 = alloca i32*, align 8
  %1 = alloca i32*, align 8
  %count.dbg.spill.i87 = alloca i64, align 8
  %self.dbg.spill.i88 = alloca i32*, align 8
  %2 = alloca i32*, align 8
  %count.dbg.spill.i84 = alloca i64, align 8
  %self.dbg.spill.i85 = alloca i32*, align 8
  %3 = alloca i32*, align 8
  %count.dbg.spill.i81 = alloca i64, align 8
  %self.dbg.spill.i82 = alloca i32*, align 8
  %4 = alloca i32*, align 8
  %count.dbg.spill.i78 = alloca i64, align 8
  %self.dbg.spill.i79 = alloca i32*, align 8
  %5 = alloca i32*, align 8
  %count.dbg.spill.i75 = alloca i64, align 8
  %self.dbg.spill.i76 = alloca i32*, align 8
  %6 = alloca i32*, align 8
  %count.dbg.spill.i72 = alloca i64, align 8
  %self.dbg.spill.i73 = alloca i32*, align 8
  %7 = alloca i32*, align 8
  %count.dbg.spill.i69 = alloca i64, align 8
  %self.dbg.spill.i70 = alloca i32*, align 8
  %8 = alloca i32*, align 8
  %count.dbg.spill.i66 = alloca i64, align 8
  %self.dbg.spill.i67 = alloca i32*, align 8
  %9 = alloca i32*, align 8
  %count.dbg.spill.i63 = alloca i64, align 8
  %self.dbg.spill.i64 = alloca i32*, align 8
  %10 = alloca i32*, align 8
  %count.dbg.spill.i60 = alloca i64, align 8
  %self.dbg.spill.i61 = alloca i32*, align 8
  %11 = alloca i32*, align 8
  %count.dbg.spill.i57 = alloca i64, align 8
  %self.dbg.spill.i58 = alloca i32*, align 8
  %12 = alloca i32*, align 8
  %count.dbg.spill.i54 = alloca i64, align 8
  %self.dbg.spill.i55 = alloca i32*, align 8
  %13 = alloca i32*, align 8
  %count.dbg.spill.i51 = alloca i64, align 8
  %self.dbg.spill.i52 = alloca i32*, align 8
  %14 = alloca i32*, align 8
  %count.dbg.spill.i48 = alloca i64, align 8
  %self.dbg.spill.i49 = alloca i32*, align 8
  %15 = alloca i32*, align 8
  %count.dbg.spill.i45 = alloca i64, align 8
  %self.dbg.spill.i46 = alloca i32*, align 8
  %16 = alloca i32*, align 8
  %count.dbg.spill.i42 = alloca i64, align 8
  %self.dbg.spill.i43 = alloca i32*, align 8
  %17 = alloca i32*, align 8
  %count.dbg.spill.i39 = alloca i64, align 8
  %self.dbg.spill.i40 = alloca i32*, align 8
  %18 = alloca i32*, align 8
  %count.dbg.spill.i36 = alloca i64, align 8
  %self.dbg.spill.i37 = alloca i32*, align 8
  %19 = alloca i32*, align 8
  %count.dbg.spill.i33 = alloca i64, align 8
  %self.dbg.spill.i34 = alloca i32*, align 8
  %20 = alloca i32*, align 8
  %count.dbg.spill.i30 = alloca i64, align 8
  %self.dbg.spill.i31 = alloca i32*, align 8
  %21 = alloca i32*, align 8
  %count.dbg.spill.i27 = alloca i64, align 8
  %self.dbg.spill.i28 = alloca i32*, align 8
  %22 = alloca i32*, align 8
  %count.dbg.spill.i24 = alloca i64, align 8
  %self.dbg.spill.i25 = alloca i32*, align 8
  %23 = alloca i32*, align 8
  %count.dbg.spill.i21 = alloca i64, align 8
  %self.dbg.spill.i22 = alloca i32*, align 8
  %24 = alloca i32*, align 8
  %count.dbg.spill.i18 = alloca i64, align 8
  %self.dbg.spill.i19 = alloca i32*, align 8
  %25 = alloca i32*, align 8
  %count.dbg.spill.i15 = alloca i64, align 8
  %self.dbg.spill.i16 = alloca i32*, align 8
  %26 = alloca i32*, align 8
  %count.dbg.spill.i12 = alloca i64, align 8
  %self.dbg.spill.i13 = alloca i32*, align 8
  %27 = alloca i32*, align 8
  %count.dbg.spill.i = alloca i64, align 8
  %self.dbg.spill.i = alloca i32*, align 8
  %fresh11.dbg.spill = alloca i32, align 4
  %fresh10.dbg.spill = alloca i32, align 4
  %fresh9.dbg.spill = alloca i32, align 4
  %fresh8.dbg.spill = alloca i32, align 4
  %u.dbg.spill = alloca %"flex_array_members::c89_flex"*, align 8
  %fresh7.dbg.spill = alloca i32, align 4
  %fresh6.dbg.spill = alloca i32, align 4
  %fresh5.dbg.spill = alloca i32, align 4
  %fresh4.dbg.spill = alloca i32, align 4
  %t.dbg.spill = alloca %"flex_array_members::c99_flex"*, align 8
  %fresh3.dbg.spill = alloca i32, align 4
  %fresh2.dbg.spill = alloca i32, align 4
  %fresh1.dbg.spill = alloca i32, align 4
  %fresh0.dbg.spill = alloca i32, align 4
  %s.dbg.spill = alloca %"flex_array_members::gnu_flex"*, align 8
  %buf.dbg.spill = alloca i32*, align 8
  %sz.dbg.spill = alloca i32, align 4
  %i = alloca i32, align 4
  store i32 %sz, i32* %sz.dbg.spill, align 4
  call void @llvm.dbg.declare(metadata i32* %sz.dbg.spill, metadata !453, metadata !DIExpression()), !dbg !506
  store i32* %buf, i32** %buf.dbg.spill, align 8
  call void @llvm.dbg.declare(metadata i32** %buf.dbg.spill, metadata !454, metadata !DIExpression()), !dbg !507
  call void @llvm.dbg.declare(metadata i32* %i, metadata !455, metadata !DIExpression()), !dbg !508
  store i32 0, i32* %i, align 4, !dbg !509
  br label %bb1, !dbg !510

bb1:                                              ; preds = %start
  %_5 = call i8* @calloc(i64 4, i64 11), !dbg !511
  br label %bb2, !dbg !511

bb2:                                              ; preds = %bb1
  %s = bitcast i8* %_5 to %"flex_array_members::gnu_flex"*, !dbg !511
  store %"flex_array_members::gnu_flex"* %s, %"flex_array_members::gnu_flex"** %s.dbg.spill, align 8, !dbg !511
  call void @llvm.dbg.declare(metadata %"flex_array_members::gnu_flex"** %s.dbg.spill, metadata !457, metadata !DIExpression()), !dbg !512
  %fresh0 = load i32, i32* %i, align 4, !dbg !513
  store i32 %fresh0, i32* %fresh0.dbg.spill, align 4, !dbg !513
  call void @llvm.dbg.declare(metadata i32* %fresh0.dbg.spill, metadata !467, metadata !DIExpression()), !dbg !514
  %_10 = load i32, i32* %i, align 4, !dbg !515
  %28 = call { i32, i1 } @llvm.sadd.with.overflow.i32(i32 %_10, i32 1), !dbg !515
  %_11.0 = extractvalue { i32, i1 } %28, 0, !dbg !515
  %_11.1 = extractvalue { i32, i1 } %28, 1, !dbg !515
  %29 = call i1 @llvm.expect.i1(i1 %_11.1, i1 false), !dbg !515
  br i1 %29, label %panic, label %bb3, !dbg !515

bb3:                                              ; preds = %bb2
  store i32 %_11.0, i32* %i, align 4, !dbg !516
  %_16 = getelementptr inbounds %"flex_array_members::gnu_flex", %"flex_array_members::gnu_flex"* %s, i32 0, i32 1, !dbg !517
; call core::slice::<impl [T]>::as_mut_ptr
  %_14 = call i32* @"_ZN4core5slice29_$LT$impl$u20$$u5b$T$u5d$$GT$10as_mut_ptr17h32fbf0a569fb3c36E"([0 x i32]* align 4 %_16, i64 0), !dbg !517
  br label %bb4, !dbg !517

panic:                                            ; preds = %bb2
; call core::panicking::panic
  call void @_ZN4core9panicking5panic17hf5844c0338bd061cE([0 x i8]* align 1 bitcast ([28 x i8]* @str.0 to [0 x i8]*), i64 28, %"core::panic::location::Location"* align 8 bitcast (<{ i8*, [16 x i8] }>* @alloc890 to %"core::panic::location::Location"*)) #7, !dbg !515
  unreachable, !dbg !515

bb4:                                              ; preds = %bb3
  store i32* %_14, i32** %self.dbg.spill.i91, align 8
  call void @llvm.dbg.declare(metadata i32** %self.dbg.spill.i91, metadata !518, metadata !DIExpression()), !dbg !529
  store i64 0, i64* %count.dbg.spill.i90, align 8
  call void @llvm.dbg.declare(metadata i64* %count.dbg.spill.i90, metadata !528, metadata !DIExpression()), !dbg !531
  store i32* %_14, i32** %0, align 8, !dbg !532
  %_3.i92 = load i32*, i32** %0, align 8, !dbg !532
  br label %bb5, !dbg !517

bb5:                                              ; preds = %bb4
  %_12 = load i32, i32* %_3.i92, align 4, !dbg !533
  %_20 = sext i32 %fresh0 to i64, !dbg !534
  store i32* %buf, i32** %self.dbg.spill.i88, align 8
  call void @llvm.dbg.declare(metadata i32** %self.dbg.spill.i88, metadata !518, metadata !DIExpression()), !dbg !535
  store i64 %_20, i64* %count.dbg.spill.i87, align 8
  call void @llvm.dbg.declare(metadata i64* %count.dbg.spill.i87, metadata !528, metadata !DIExpression()), !dbg !537
  %30 = getelementptr inbounds i32, i32* %buf, i64 %_20, !dbg !538
  store i32* %30, i32** %1, align 8, !dbg !538
  %_3.i89 = load i32*, i32** %1, align 8, !dbg !538
  br label %bb6, !dbg !539

bb6:                                              ; preds = %bb5
  store i32 %_12, i32* %_3.i89, align 4, !dbg !540
  %fresh1 = load i32, i32* %i, align 4, !dbg !541
  store i32 %fresh1, i32* %fresh1.dbg.spill, align 4, !dbg !541
  call void @llvm.dbg.declare(metadata i32* %fresh1.dbg.spill, metadata !469, metadata !DIExpression()), !dbg !542
  %_23 = load i32, i32* %i, align 4, !dbg !543
  %31 = call { i32, i1 } @llvm.sadd.with.overflow.i32(i32 %_23, i32 1), !dbg !543
  %_24.0 = extractvalue { i32, i1 } %31, 0, !dbg !543
  %_24.1 = extractvalue { i32, i1 } %31, 1, !dbg !543
  %32 = call i1 @llvm.expect.i1(i1 %_24.1, i1 false), !dbg !543
  br i1 %32, label %panic1, label %bb7, !dbg !543

bb7:                                              ; preds = %bb6
  store i32 %_24.0, i32* %i, align 4, !dbg !544
  %_29 = getelementptr inbounds %"flex_array_members::gnu_flex", %"flex_array_members::gnu_flex"* %s, i32 0, i32 1, !dbg !545
; call core::slice::<impl [T]>::as_mut_ptr
  %_27 = call i32* @"_ZN4core5slice29_$LT$impl$u20$$u5b$T$u5d$$GT$10as_mut_ptr17h32fbf0a569fb3c36E"([0 x i32]* align 4 %_29, i64 0), !dbg !545
  br label %bb8, !dbg !545

panic1:                                           ; preds = %bb6
; call core::panicking::panic
  call void @_ZN4core9panicking5panic17hf5844c0338bd061cE([0 x i8]* align 1 bitcast ([28 x i8]* @str.0 to [0 x i8]*), i64 28, %"core::panic::location::Location"* align 8 bitcast (<{ i8*, [16 x i8] }>* @alloc892 to %"core::panic::location::Location"*)) #7, !dbg !543
  unreachable, !dbg !543

bb8:                                              ; preds = %bb7
  store i32* %_27, i32** %self.dbg.spill.i85, align 8
  call void @llvm.dbg.declare(metadata i32** %self.dbg.spill.i85, metadata !518, metadata !DIExpression()), !dbg !546
  store i64 1, i64* %count.dbg.spill.i84, align 8
  call void @llvm.dbg.declare(metadata i64* %count.dbg.spill.i84, metadata !528, metadata !DIExpression()), !dbg !548
  %33 = getelementptr inbounds i32, i32* %_27, i64 1, !dbg !549
  store i32* %33, i32** %2, align 8, !dbg !549
  %_3.i86 = load i32*, i32** %2, align 8, !dbg !549
  br label %bb9, !dbg !545

bb9:                                              ; preds = %bb8
  %_25 = load i32, i32* %_3.i86, align 4, !dbg !550
  %_33 = sext i32 %fresh1 to i64, !dbg !551
  store i32* %buf, i32** %self.dbg.spill.i82, align 8
  call void @llvm.dbg.declare(metadata i32** %self.dbg.spill.i82, metadata !518, metadata !DIExpression()), !dbg !552
  store i64 %_33, i64* %count.dbg.spill.i81, align 8
  call void @llvm.dbg.declare(metadata i64* %count.dbg.spill.i81, metadata !528, metadata !DIExpression()), !dbg !554
  %34 = getelementptr inbounds i32, i32* %buf, i64 %_33, !dbg !555
  store i32* %34, i32** %3, align 8, !dbg !555
  %_3.i83 = load i32*, i32** %3, align 8, !dbg !555
  br label %bb10, !dbg !556

bb10:                                             ; preds = %bb9
  store i32 %_25, i32* %_3.i83, align 4, !dbg !557
  %fresh2 = load i32, i32* %i, align 4, !dbg !558
  store i32 %fresh2, i32* %fresh2.dbg.spill, align 4, !dbg !558
  call void @llvm.dbg.declare(metadata i32* %fresh2.dbg.spill, metadata !471, metadata !DIExpression()), !dbg !559
  %_36 = load i32, i32* %i, align 4, !dbg !560
  %35 = call { i32, i1 } @llvm.sadd.with.overflow.i32(i32 %_36, i32 1), !dbg !560
  %_37.0 = extractvalue { i32, i1 } %35, 0, !dbg !560
  %_37.1 = extractvalue { i32, i1 } %35, 1, !dbg !560
  %36 = call i1 @llvm.expect.i1(i1 %_37.1, i1 false), !dbg !560
  br i1 %36, label %panic2, label %bb11, !dbg !560

bb11:                                             ; preds = %bb10
  store i32 %_37.0, i32* %i, align 4, !dbg !561
  %_42 = getelementptr inbounds %"flex_array_members::gnu_flex", %"flex_array_members::gnu_flex"* %s, i32 0, i32 1, !dbg !562
; call core::slice::<impl [T]>::as_mut_ptr
  %_40 = call i32* @"_ZN4core5slice29_$LT$impl$u20$$u5b$T$u5d$$GT$10as_mut_ptr17h32fbf0a569fb3c36E"([0 x i32]* align 4 %_42, i64 0), !dbg !562
  br label %bb12, !dbg !562

panic2:                                           ; preds = %bb10
; call core::panicking::panic
  call void @_ZN4core9panicking5panic17hf5844c0338bd061cE([0 x i8]* align 1 bitcast ([28 x i8]* @str.0 to [0 x i8]*), i64 28, %"core::panic::location::Location"* align 8 bitcast (<{ i8*, [16 x i8] }>* @alloc894 to %"core::panic::location::Location"*)) #7, !dbg !560
  unreachable, !dbg !560

bb12:                                             ; preds = %bb11
  store i32* %_40, i32** %self.dbg.spill.i79, align 8
  call void @llvm.dbg.declare(metadata i32** %self.dbg.spill.i79, metadata !518, metadata !DIExpression()), !dbg !563
  store i64 2, i64* %count.dbg.spill.i78, align 8
  call void @llvm.dbg.declare(metadata i64* %count.dbg.spill.i78, metadata !528, metadata !DIExpression()), !dbg !565
  %37 = getelementptr inbounds i32, i32* %_40, i64 2, !dbg !566
  store i32* %37, i32** %4, align 8, !dbg !566
  %_3.i80 = load i32*, i32** %4, align 8, !dbg !566
  br label %bb13, !dbg !562

bb13:                                             ; preds = %bb12
  %_38 = load i32, i32* %_3.i80, align 4, !dbg !567
  %_46 = sext i32 %fresh2 to i64, !dbg !568
  store i32* %buf, i32** %self.dbg.spill.i76, align 8
  call void @llvm.dbg.declare(metadata i32** %self.dbg.spill.i76, metadata !518, metadata !DIExpression()), !dbg !569
  store i64 %_46, i64* %count.dbg.spill.i75, align 8
  call void @llvm.dbg.declare(metadata i64* %count.dbg.spill.i75, metadata !528, metadata !DIExpression()), !dbg !571
  %38 = getelementptr inbounds i32, i32* %buf, i64 %_46, !dbg !572
  store i32* %38, i32** %5, align 8, !dbg !572
  %_3.i77 = load i32*, i32** %5, align 8, !dbg !572
  br label %bb14, !dbg !573

bb14:                                             ; preds = %bb13
  store i32 %_38, i32* %_3.i77, align 4, !dbg !574
  %_52 = getelementptr inbounds %"flex_array_members::gnu_flex", %"flex_array_members::gnu_flex"* %s, i32 0, i32 1, !dbg !575
; call core::slice::<impl [T]>::as_mut_ptr
  %_50 = call i32* @"_ZN4core5slice29_$LT$impl$u20$$u5b$T$u5d$$GT$10as_mut_ptr17h32fbf0a569fb3c36E"([0 x i32]* align 4 %_52, i64 0), !dbg !575
  br label %bb15, !dbg !575

bb15:                                             ; preds = %bb14
  store i32* %_50, i32** %self.dbg.spill.i73, align 8
  call void @llvm.dbg.declare(metadata i32** %self.dbg.spill.i73, metadata !518, metadata !DIExpression()), !dbg !576
  store i64 5, i64* %count.dbg.spill.i72, align 8
  call void @llvm.dbg.declare(metadata i64* %count.dbg.spill.i72, metadata !528, metadata !DIExpression()), !dbg !578
  %39 = getelementptr inbounds i32, i32* %_50, i64 5, !dbg !579
  store i32* %39, i32** %6, align 8, !dbg !579
  %_3.i74 = load i32*, i32** %6, align 8, !dbg !579
  br label %bb16, !dbg !575

bb16:                                             ; preds = %bb15
  store i32 10, i32* %_3.i74, align 4, !dbg !580
  %fresh3 = load i32, i32* %i, align 4, !dbg !581
  store i32 %fresh3, i32* %fresh3.dbg.spill, align 4, !dbg !581
  call void @llvm.dbg.declare(metadata i32* %fresh3.dbg.spill, metadata !473, metadata !DIExpression()), !dbg !582
  %_55 = load i32, i32* %i, align 4, !dbg !583
  %40 = call { i32, i1 } @llvm.sadd.with.overflow.i32(i32 %_55, i32 1), !dbg !583
  %_56.0 = extractvalue { i32, i1 } %40, 0, !dbg !583
  %_56.1 = extractvalue { i32, i1 } %40, 1, !dbg !583
  %41 = call i1 @llvm.expect.i1(i1 %_56.1, i1 false), !dbg !583
  br i1 %41, label %panic3, label %bb17, !dbg !583

bb17:                                             ; preds = %bb16
  store i32 %_56.0, i32* %i, align 4, !dbg !584
  %_61 = getelementptr inbounds %"flex_array_members::gnu_flex", %"flex_array_members::gnu_flex"* %s, i32 0, i32 1, !dbg !585
; call core::slice::<impl [T]>::as_mut_ptr
  %_59 = call i32* @"_ZN4core5slice29_$LT$impl$u20$$u5b$T$u5d$$GT$10as_mut_ptr17h32fbf0a569fb3c36E"([0 x i32]* align 4 %_61, i64 0), !dbg !585
  br label %bb18, !dbg !585

panic3:                                           ; preds = %bb16
; call core::panicking::panic
  call void @_ZN4core9panicking5panic17hf5844c0338bd061cE([0 x i8]* align 1 bitcast ([28 x i8]* @str.0 to [0 x i8]*), i64 28, %"core::panic::location::Location"* align 8 bitcast (<{ i8*, [16 x i8] }>* @alloc896 to %"core::panic::location::Location"*)) #7, !dbg !583
  unreachable, !dbg !583

bb18:                                             ; preds = %bb17
  store i32* %_59, i32** %self.dbg.spill.i70, align 8
  call void @llvm.dbg.declare(metadata i32** %self.dbg.spill.i70, metadata !518, metadata !DIExpression()), !dbg !586
  store i64 5, i64* %count.dbg.spill.i69, align 8
  call void @llvm.dbg.declare(metadata i64* %count.dbg.spill.i69, metadata !528, metadata !DIExpression()), !dbg !588
  %42 = getelementptr inbounds i32, i32* %_59, i64 5, !dbg !589
  store i32* %42, i32** %7, align 8, !dbg !589
  %_3.i71 = load i32*, i32** %7, align 8, !dbg !589
  br label %bb19, !dbg !585

bb19:                                             ; preds = %bb18
  %_57 = load i32, i32* %_3.i71, align 4, !dbg !590
  %_65 = sext i32 %fresh3 to i64, !dbg !591
  store i32* %buf, i32** %self.dbg.spill.i67, align 8
  call void @llvm.dbg.declare(metadata i32** %self.dbg.spill.i67, metadata !518, metadata !DIExpression()), !dbg !592
  store i64 %_65, i64* %count.dbg.spill.i66, align 8
  call void @llvm.dbg.declare(metadata i64* %count.dbg.spill.i66, metadata !528, metadata !DIExpression()), !dbg !594
  %43 = getelementptr inbounds i32, i32* %buf, i64 %_65, !dbg !595
  store i32* %43, i32** %8, align 8, !dbg !595
  %_3.i68 = load i32*, i32** %8, align 8, !dbg !595
  br label %bb20, !dbg !596

bb20:                                             ; preds = %bb19
  store i32 %_57, i32* %_3.i68, align 4, !dbg !597
  br label %bb21, !dbg !598

bb21:                                             ; preds = %bb20
  %_68 = call i8* @calloc(i64 4, i64 11), !dbg !599
  br label %bb22, !dbg !599

bb22:                                             ; preds = %bb21
  %t = bitcast i8* %_68 to %"flex_array_members::c99_flex"*, !dbg !599
  store %"flex_array_members::c99_flex"* %t, %"flex_array_members::c99_flex"** %t.dbg.spill, align 8, !dbg !599
  call void @llvm.dbg.declare(metadata %"flex_array_members::c99_flex"** %t.dbg.spill, metadata !475, metadata !DIExpression()), !dbg !600
  %fresh4 = load i32, i32* %i, align 4, !dbg !601
  store i32 %fresh4, i32* %fresh4.dbg.spill, align 4, !dbg !601
  call void @llvm.dbg.declare(metadata i32* %fresh4.dbg.spill, metadata !482, metadata !DIExpression()), !dbg !602
  %_73 = load i32, i32* %i, align 4, !dbg !603
  %44 = call { i32, i1 } @llvm.sadd.with.overflow.i32(i32 %_73, i32 1), !dbg !603
  %_74.0 = extractvalue { i32, i1 } %44, 0, !dbg !603
  %_74.1 = extractvalue { i32, i1 } %44, 1, !dbg !603
  %45 = call i1 @llvm.expect.i1(i1 %_74.1, i1 false), !dbg !603
  br i1 %45, label %panic4, label %bb23, !dbg !603

bb23:                                             ; preds = %bb22
  store i32 %_74.0, i32* %i, align 4, !dbg !604
  %_79 = getelementptr inbounds %"flex_array_members::c99_flex", %"flex_array_members::c99_flex"* %t, i32 0, i32 1, !dbg !605
; call core::slice::<impl [T]>::as_mut_ptr
  %_77 = call i32* @"_ZN4core5slice29_$LT$impl$u20$$u5b$T$u5d$$GT$10as_mut_ptr17h32fbf0a569fb3c36E"([0 x i32]* align 4 %_79, i64 0), !dbg !605
  br label %bb24, !dbg !605

panic4:                                           ; preds = %bb22
; call core::panicking::panic
  call void @_ZN4core9panicking5panic17hf5844c0338bd061cE([0 x i8]* align 1 bitcast ([28 x i8]* @str.0 to [0 x i8]*), i64 28, %"core::panic::location::Location"* align 8 bitcast (<{ i8*, [16 x i8] }>* @alloc898 to %"core::panic::location::Location"*)) #7, !dbg !603
  unreachable, !dbg !603

bb24:                                             ; preds = %bb23
  store i32* %_77, i32** %self.dbg.spill.i64, align 8
  call void @llvm.dbg.declare(metadata i32** %self.dbg.spill.i64, metadata !518, metadata !DIExpression()), !dbg !606
  store i64 0, i64* %count.dbg.spill.i63, align 8
  call void @llvm.dbg.declare(metadata i64* %count.dbg.spill.i63, metadata !528, metadata !DIExpression()), !dbg !608
  store i32* %_77, i32** %9, align 8, !dbg !609
  %_3.i65 = load i32*, i32** %9, align 8, !dbg !609
  br label %bb25, !dbg !605

bb25:                                             ; preds = %bb24
  %_75 = load i32, i32* %_3.i65, align 4, !dbg !610
  %_83 = sext i32 %fresh4 to i64, !dbg !611
  store i32* %buf, i32** %self.dbg.spill.i61, align 8
  call void @llvm.dbg.declare(metadata i32** %self.dbg.spill.i61, metadata !518, metadata !DIExpression()), !dbg !612
  store i64 %_83, i64* %count.dbg.spill.i60, align 8
  call void @llvm.dbg.declare(metadata i64* %count.dbg.spill.i60, metadata !528, metadata !DIExpression()), !dbg !614
  %46 = getelementptr inbounds i32, i32* %buf, i64 %_83, !dbg !615
  store i32* %46, i32** %10, align 8, !dbg !615
  %_3.i62 = load i32*, i32** %10, align 8, !dbg !615
  br label %bb26, !dbg !616

bb26:                                             ; preds = %bb25
  store i32 %_75, i32* %_3.i62, align 4, !dbg !617
  %fresh5 = load i32, i32* %i, align 4, !dbg !618
  store i32 %fresh5, i32* %fresh5.dbg.spill, align 4, !dbg !618
  call void @llvm.dbg.declare(metadata i32* %fresh5.dbg.spill, metadata !484, metadata !DIExpression()), !dbg !619
  %_86 = load i32, i32* %i, align 4, !dbg !620
  %47 = call { i32, i1 } @llvm.sadd.with.overflow.i32(i32 %_86, i32 1), !dbg !620
  %_87.0 = extractvalue { i32, i1 } %47, 0, !dbg !620
  %_87.1 = extractvalue { i32, i1 } %47, 1, !dbg !620
  %48 = call i1 @llvm.expect.i1(i1 %_87.1, i1 false), !dbg !620
  br i1 %48, label %panic5, label %bb27, !dbg !620

bb27:                                             ; preds = %bb26
  store i32 %_87.0, i32* %i, align 4, !dbg !621
  %_92 = getelementptr inbounds %"flex_array_members::c99_flex", %"flex_array_members::c99_flex"* %t, i32 0, i32 1, !dbg !622
; call core::slice::<impl [T]>::as_mut_ptr
  %_90 = call i32* @"_ZN4core5slice29_$LT$impl$u20$$u5b$T$u5d$$GT$10as_mut_ptr17h32fbf0a569fb3c36E"([0 x i32]* align 4 %_92, i64 0), !dbg !622
  br label %bb28, !dbg !622

panic5:                                           ; preds = %bb26
; call core::panicking::panic
  call void @_ZN4core9panicking5panic17hf5844c0338bd061cE([0 x i8]* align 1 bitcast ([28 x i8]* @str.0 to [0 x i8]*), i64 28, %"core::panic::location::Location"* align 8 bitcast (<{ i8*, [16 x i8] }>* @alloc900 to %"core::panic::location::Location"*)) #7, !dbg !620
  unreachable, !dbg !620

bb28:                                             ; preds = %bb27
  store i32* %_90, i32** %self.dbg.spill.i58, align 8
  call void @llvm.dbg.declare(metadata i32** %self.dbg.spill.i58, metadata !518, metadata !DIExpression()), !dbg !623
  store i64 1, i64* %count.dbg.spill.i57, align 8
  call void @llvm.dbg.declare(metadata i64* %count.dbg.spill.i57, metadata !528, metadata !DIExpression()), !dbg !625
  %49 = getelementptr inbounds i32, i32* %_90, i64 1, !dbg !626
  store i32* %49, i32** %11, align 8, !dbg !626
  %_3.i59 = load i32*, i32** %11, align 8, !dbg !626
  br label %bb29, !dbg !622

bb29:                                             ; preds = %bb28
  %_88 = load i32, i32* %_3.i59, align 4, !dbg !627
  %_96 = sext i32 %fresh5 to i64, !dbg !628
  store i32* %buf, i32** %self.dbg.spill.i55, align 8
  call void @llvm.dbg.declare(metadata i32** %self.dbg.spill.i55, metadata !518, metadata !DIExpression()), !dbg !629
  store i64 %_96, i64* %count.dbg.spill.i54, align 8
  call void @llvm.dbg.declare(metadata i64* %count.dbg.spill.i54, metadata !528, metadata !DIExpression()), !dbg !631
  %50 = getelementptr inbounds i32, i32* %buf, i64 %_96, !dbg !632
  store i32* %50, i32** %12, align 8, !dbg !632
  %_3.i56 = load i32*, i32** %12, align 8, !dbg !632
  br label %bb30, !dbg !633

bb30:                                             ; preds = %bb29
  store i32 %_88, i32* %_3.i56, align 4, !dbg !634
  %fresh6 = load i32, i32* %i, align 4, !dbg !635
  store i32 %fresh6, i32* %fresh6.dbg.spill, align 4, !dbg !635
  call void @llvm.dbg.declare(metadata i32* %fresh6.dbg.spill, metadata !486, metadata !DIExpression()), !dbg !636
  %_99 = load i32, i32* %i, align 4, !dbg !637
  %51 = call { i32, i1 } @llvm.sadd.with.overflow.i32(i32 %_99, i32 1), !dbg !637
  %_100.0 = extractvalue { i32, i1 } %51, 0, !dbg !637
  %_100.1 = extractvalue { i32, i1 } %51, 1, !dbg !637
  %52 = call i1 @llvm.expect.i1(i1 %_100.1, i1 false), !dbg !637
  br i1 %52, label %panic6, label %bb31, !dbg !637

bb31:                                             ; preds = %bb30
  store i32 %_100.0, i32* %i, align 4, !dbg !638
  %_105 = getelementptr inbounds %"flex_array_members::c99_flex", %"flex_array_members::c99_flex"* %t, i32 0, i32 1, !dbg !639
; call core::slice::<impl [T]>::as_mut_ptr
  %_103 = call i32* @"_ZN4core5slice29_$LT$impl$u20$$u5b$T$u5d$$GT$10as_mut_ptr17h32fbf0a569fb3c36E"([0 x i32]* align 4 %_105, i64 0), !dbg !639
  br label %bb32, !dbg !639

panic6:                                           ; preds = %bb30
; call core::panicking::panic
  call void @_ZN4core9panicking5panic17hf5844c0338bd061cE([0 x i8]* align 1 bitcast ([28 x i8]* @str.0 to [0 x i8]*), i64 28, %"core::panic::location::Location"* align 8 bitcast (<{ i8*, [16 x i8] }>* @alloc902 to %"core::panic::location::Location"*)) #7, !dbg !637
  unreachable, !dbg !637

bb32:                                             ; preds = %bb31
  store i32* %_103, i32** %self.dbg.spill.i52, align 8
  call void @llvm.dbg.declare(metadata i32** %self.dbg.spill.i52, metadata !518, metadata !DIExpression()), !dbg !640
  store i64 2, i64* %count.dbg.spill.i51, align 8
  call void @llvm.dbg.declare(metadata i64* %count.dbg.spill.i51, metadata !528, metadata !DIExpression()), !dbg !642
  %53 = getelementptr inbounds i32, i32* %_103, i64 2, !dbg !643
  store i32* %53, i32** %13, align 8, !dbg !643
  %_3.i53 = load i32*, i32** %13, align 8, !dbg !643
  br label %bb33, !dbg !639

bb33:                                             ; preds = %bb32
  %_101 = load i32, i32* %_3.i53, align 4, !dbg !644
  %_109 = sext i32 %fresh6 to i64, !dbg !645
  store i32* %buf, i32** %self.dbg.spill.i49, align 8
  call void @llvm.dbg.declare(metadata i32** %self.dbg.spill.i49, metadata !518, metadata !DIExpression()), !dbg !646
  store i64 %_109, i64* %count.dbg.spill.i48, align 8
  call void @llvm.dbg.declare(metadata i64* %count.dbg.spill.i48, metadata !528, metadata !DIExpression()), !dbg !648
  %54 = getelementptr inbounds i32, i32* %buf, i64 %_109, !dbg !649
  store i32* %54, i32** %14, align 8, !dbg !649
  %_3.i50 = load i32*, i32** %14, align 8, !dbg !649
  br label %bb34, !dbg !650

bb34:                                             ; preds = %bb33
  store i32 %_101, i32* %_3.i50, align 4, !dbg !651
  %_115 = getelementptr inbounds %"flex_array_members::c99_flex", %"flex_array_members::c99_flex"* %t, i32 0, i32 1, !dbg !652
; call core::slice::<impl [T]>::as_mut_ptr
  %_113 = call i32* @"_ZN4core5slice29_$LT$impl$u20$$u5b$T$u5d$$GT$10as_mut_ptr17h32fbf0a569fb3c36E"([0 x i32]* align 4 %_115, i64 0), !dbg !652
  br label %bb35, !dbg !652

bb35:                                             ; preds = %bb34
  store i32* %_113, i32** %self.dbg.spill.i46, align 8
  call void @llvm.dbg.declare(metadata i32** %self.dbg.spill.i46, metadata !518, metadata !DIExpression()), !dbg !653
  store i64 5, i64* %count.dbg.spill.i45, align 8
  call void @llvm.dbg.declare(metadata i64* %count.dbg.spill.i45, metadata !528, metadata !DIExpression()), !dbg !655
  %55 = getelementptr inbounds i32, i32* %_113, i64 5, !dbg !656
  store i32* %55, i32** %15, align 8, !dbg !656
  %_3.i47 = load i32*, i32** %15, align 8, !dbg !656
  br label %bb36, !dbg !652

bb36:                                             ; preds = %bb35
  store i32 10, i32* %_3.i47, align 4, !dbg !657
  %fresh7 = load i32, i32* %i, align 4, !dbg !658
  store i32 %fresh7, i32* %fresh7.dbg.spill, align 4, !dbg !658
  call void @llvm.dbg.declare(metadata i32* %fresh7.dbg.spill, metadata !488, metadata !DIExpression()), !dbg !659
  %_118 = load i32, i32* %i, align 4, !dbg !660
  %56 = call { i32, i1 } @llvm.sadd.with.overflow.i32(i32 %_118, i32 1), !dbg !660
  %_119.0 = extractvalue { i32, i1 } %56, 0, !dbg !660
  %_119.1 = extractvalue { i32, i1 } %56, 1, !dbg !660
  %57 = call i1 @llvm.expect.i1(i1 %_119.1, i1 false), !dbg !660
  br i1 %57, label %panic7, label %bb37, !dbg !660

bb37:                                             ; preds = %bb36
  store i32 %_119.0, i32* %i, align 4, !dbg !661
  %_124 = getelementptr inbounds %"flex_array_members::c99_flex", %"flex_array_members::c99_flex"* %t, i32 0, i32 1, !dbg !662
; call core::slice::<impl [T]>::as_mut_ptr
  %_122 = call i32* @"_ZN4core5slice29_$LT$impl$u20$$u5b$T$u5d$$GT$10as_mut_ptr17h32fbf0a569fb3c36E"([0 x i32]* align 4 %_124, i64 0), !dbg !662
  br label %bb38, !dbg !662

panic7:                                           ; preds = %bb36
; call core::panicking::panic
  call void @_ZN4core9panicking5panic17hf5844c0338bd061cE([0 x i8]* align 1 bitcast ([28 x i8]* @str.0 to [0 x i8]*), i64 28, %"core::panic::location::Location"* align 8 bitcast (<{ i8*, [16 x i8] }>* @alloc904 to %"core::panic::location::Location"*)) #7, !dbg !660
  unreachable, !dbg !660

bb38:                                             ; preds = %bb37
  store i32* %_122, i32** %self.dbg.spill.i43, align 8
  call void @llvm.dbg.declare(metadata i32** %self.dbg.spill.i43, metadata !518, metadata !DIExpression()), !dbg !663
  store i64 5, i64* %count.dbg.spill.i42, align 8
  call void @llvm.dbg.declare(metadata i64* %count.dbg.spill.i42, metadata !528, metadata !DIExpression()), !dbg !665
  %58 = getelementptr inbounds i32, i32* %_122, i64 5, !dbg !666
  store i32* %58, i32** %16, align 8, !dbg !666
  %_3.i44 = load i32*, i32** %16, align 8, !dbg !666
  br label %bb39, !dbg !662

bb39:                                             ; preds = %bb38
  %_120 = load i32, i32* %_3.i44, align 4, !dbg !667
  %_128 = sext i32 %fresh7 to i64, !dbg !668
  store i32* %buf, i32** %self.dbg.spill.i40, align 8
  call void @llvm.dbg.declare(metadata i32** %self.dbg.spill.i40, metadata !518, metadata !DIExpression()), !dbg !669
  store i64 %_128, i64* %count.dbg.spill.i39, align 8
  call void @llvm.dbg.declare(metadata i64* %count.dbg.spill.i39, metadata !528, metadata !DIExpression()), !dbg !671
  %59 = getelementptr inbounds i32, i32* %buf, i64 %_128, !dbg !672
  store i32* %59, i32** %17, align 8, !dbg !672
  %_3.i41 = load i32*, i32** %17, align 8, !dbg !672
  br label %bb40, !dbg !673

bb40:                                             ; preds = %bb39
  store i32 %_120, i32* %_3.i41, align 4, !dbg !674
  br label %bb41, !dbg !675

bb41:                                             ; preds = %bb40
  %_131 = call i8* @calloc(i64 4, i64 11), !dbg !676
  br label %bb42, !dbg !676

bb42:                                             ; preds = %bb41
  %u = bitcast i8* %_131 to %"flex_array_members::c89_flex"*, !dbg !676
  store %"flex_array_members::c89_flex"* %u, %"flex_array_members::c89_flex"** %u.dbg.spill, align 8, !dbg !676
  call void @llvm.dbg.declare(metadata %"flex_array_members::c89_flex"** %u.dbg.spill, metadata !490, metadata !DIExpression()), !dbg !677
  %fresh8 = load i32, i32* %i, align 4, !dbg !678
  store i32 %fresh8, i32* %fresh8.dbg.spill, align 4, !dbg !678
  call void @llvm.dbg.declare(metadata i32* %fresh8.dbg.spill, metadata !498, metadata !DIExpression()), !dbg !679
  %_136 = load i32, i32* %i, align 4, !dbg !680
  %60 = call { i32, i1 } @llvm.sadd.with.overflow.i32(i32 %_136, i32 1), !dbg !680
  %_137.0 = extractvalue { i32, i1 } %60, 0, !dbg !680
  %_137.1 = extractvalue { i32, i1 } %60, 1, !dbg !680
  %61 = call i1 @llvm.expect.i1(i1 %_137.1, i1 false), !dbg !680
  br i1 %61, label %panic8, label %bb43, !dbg !680

bb43:                                             ; preds = %bb42
  store i32 %_137.0, i32* %i, align 4, !dbg !681
  %_142 = getelementptr inbounds %"flex_array_members::c89_flex", %"flex_array_members::c89_flex"* %u, i32 0, i32 1, !dbg !682
  %_141.0 = bitcast [1 x i32]* %_142 to [0 x i32]*, !dbg !682
; call core::slice::<impl [T]>::as_mut_ptr
  %_140 = call i32* @"_ZN4core5slice29_$LT$impl$u20$$u5b$T$u5d$$GT$10as_mut_ptr17h32fbf0a569fb3c36E"([0 x i32]* align 4 %_141.0, i64 1), !dbg !682
  br label %bb44, !dbg !682

panic8:                                           ; preds = %bb42
; call core::panicking::panic
  call void @_ZN4core9panicking5panic17hf5844c0338bd061cE([0 x i8]* align 1 bitcast ([28 x i8]* @str.0 to [0 x i8]*), i64 28, %"core::panic::location::Location"* align 8 bitcast (<{ i8*, [16 x i8] }>* @alloc906 to %"core::panic::location::Location"*)) #7, !dbg !680
  unreachable, !dbg !680

bb44:                                             ; preds = %bb43
  store i32* %_140, i32** %self.dbg.spill.i37, align 8
  call void @llvm.dbg.declare(metadata i32** %self.dbg.spill.i37, metadata !518, metadata !DIExpression()), !dbg !683
  store i64 0, i64* %count.dbg.spill.i36, align 8
  call void @llvm.dbg.declare(metadata i64* %count.dbg.spill.i36, metadata !528, metadata !DIExpression()), !dbg !685
  store i32* %_140, i32** %18, align 8, !dbg !686
  %_3.i38 = load i32*, i32** %18, align 8, !dbg !686
  br label %bb45, !dbg !682

bb45:                                             ; preds = %bb44
  %_138 = load i32, i32* %_3.i38, align 4, !dbg !687
  %_146 = sext i32 %fresh8 to i64, !dbg !688
  store i32* %buf, i32** %self.dbg.spill.i34, align 8
  call void @llvm.dbg.declare(metadata i32** %self.dbg.spill.i34, metadata !518, metadata !DIExpression()), !dbg !689
  store i64 %_146, i64* %count.dbg.spill.i33, align 8
  call void @llvm.dbg.declare(metadata i64* %count.dbg.spill.i33, metadata !528, metadata !DIExpression()), !dbg !691
  %62 = getelementptr inbounds i32, i32* %buf, i64 %_146, !dbg !692
  store i32* %62, i32** %19, align 8, !dbg !692
  %_3.i35 = load i32*, i32** %19, align 8, !dbg !692
  br label %bb46, !dbg !693

bb46:                                             ; preds = %bb45
  store i32 %_138, i32* %_3.i35, align 4, !dbg !694
  %fresh9 = load i32, i32* %i, align 4, !dbg !695
  store i32 %fresh9, i32* %fresh9.dbg.spill, align 4, !dbg !695
  call void @llvm.dbg.declare(metadata i32* %fresh9.dbg.spill, metadata !500, metadata !DIExpression()), !dbg !696
  %_149 = load i32, i32* %i, align 4, !dbg !697
  %63 = call { i32, i1 } @llvm.sadd.with.overflow.i32(i32 %_149, i32 1), !dbg !697
  %_150.0 = extractvalue { i32, i1 } %63, 0, !dbg !697
  %_150.1 = extractvalue { i32, i1 } %63, 1, !dbg !697
  %64 = call i1 @llvm.expect.i1(i1 %_150.1, i1 false), !dbg !697
  br i1 %64, label %panic9, label %bb47, !dbg !697

bb47:                                             ; preds = %bb46
  store i32 %_150.0, i32* %i, align 4, !dbg !698
  %_155 = getelementptr inbounds %"flex_array_members::c89_flex", %"flex_array_members::c89_flex"* %u, i32 0, i32 1, !dbg !699
  %_154.0 = bitcast [1 x i32]* %_155 to [0 x i32]*, !dbg !699
; call core::slice::<impl [T]>::as_mut_ptr
  %_153 = call i32* @"_ZN4core5slice29_$LT$impl$u20$$u5b$T$u5d$$GT$10as_mut_ptr17h32fbf0a569fb3c36E"([0 x i32]* align 4 %_154.0, i64 1), !dbg !699
  br label %bb48, !dbg !699

panic9:                                           ; preds = %bb46
; call core::panicking::panic
  call void @_ZN4core9panicking5panic17hf5844c0338bd061cE([0 x i8]* align 1 bitcast ([28 x i8]* @str.0 to [0 x i8]*), i64 28, %"core::panic::location::Location"* align 8 bitcast (<{ i8*, [16 x i8] }>* @alloc908 to %"core::panic::location::Location"*)) #7, !dbg !697
  unreachable, !dbg !697

bb48:                                             ; preds = %bb47
  store i32* %_153, i32** %self.dbg.spill.i31, align 8
  call void @llvm.dbg.declare(metadata i32** %self.dbg.spill.i31, metadata !518, metadata !DIExpression()), !dbg !700
  store i64 1, i64* %count.dbg.spill.i30, align 8
  call void @llvm.dbg.declare(metadata i64* %count.dbg.spill.i30, metadata !528, metadata !DIExpression()), !dbg !702
  %65 = getelementptr inbounds i32, i32* %_153, i64 1, !dbg !703
  store i32* %65, i32** %20, align 8, !dbg !703
  %_3.i32 = load i32*, i32** %20, align 8, !dbg !703
  br label %bb49, !dbg !699

bb49:                                             ; preds = %bb48
  %_151 = load i32, i32* %_3.i32, align 4, !dbg !704
  %_159 = sext i32 %fresh9 to i64, !dbg !705
  store i32* %buf, i32** %self.dbg.spill.i28, align 8
  call void @llvm.dbg.declare(metadata i32** %self.dbg.spill.i28, metadata !518, metadata !DIExpression()), !dbg !706
  store i64 %_159, i64* %count.dbg.spill.i27, align 8
  call void @llvm.dbg.declare(metadata i64* %count.dbg.spill.i27, metadata !528, metadata !DIExpression()), !dbg !708
  %66 = getelementptr inbounds i32, i32* %buf, i64 %_159, !dbg !709
  store i32* %66, i32** %21, align 8, !dbg !709
  %_3.i29 = load i32*, i32** %21, align 8, !dbg !709
  br label %bb50, !dbg !710

bb50:                                             ; preds = %bb49
  store i32 %_151, i32* %_3.i29, align 4, !dbg !711
  %fresh10 = load i32, i32* %i, align 4, !dbg !712
  store i32 %fresh10, i32* %fresh10.dbg.spill, align 4, !dbg !712
  call void @llvm.dbg.declare(metadata i32* %fresh10.dbg.spill, metadata !502, metadata !DIExpression()), !dbg !713
  %_162 = load i32, i32* %i, align 4, !dbg !714
  %67 = call { i32, i1 } @llvm.sadd.with.overflow.i32(i32 %_162, i32 1), !dbg !714
  %_163.0 = extractvalue { i32, i1 } %67, 0, !dbg !714
  %_163.1 = extractvalue { i32, i1 } %67, 1, !dbg !714
  %68 = call i1 @llvm.expect.i1(i1 %_163.1, i1 false), !dbg !714
  br i1 %68, label %panic10, label %bb51, !dbg !714

bb51:                                             ; preds = %bb50
  store i32 %_163.0, i32* %i, align 4, !dbg !715
  %_168 = getelementptr inbounds %"flex_array_members::c89_flex", %"flex_array_members::c89_flex"* %u, i32 0, i32 1, !dbg !716
  %_167.0 = bitcast [1 x i32]* %_168 to [0 x i32]*, !dbg !716
; call core::slice::<impl [T]>::as_mut_ptr
  %_166 = call i32* @"_ZN4core5slice29_$LT$impl$u20$$u5b$T$u5d$$GT$10as_mut_ptr17h32fbf0a569fb3c36E"([0 x i32]* align 4 %_167.0, i64 1), !dbg !716
  br label %bb52, !dbg !716

panic10:                                          ; preds = %bb50
; call core::panicking::panic
  call void @_ZN4core9panicking5panic17hf5844c0338bd061cE([0 x i8]* align 1 bitcast ([28 x i8]* @str.0 to [0 x i8]*), i64 28, %"core::panic::location::Location"* align 8 bitcast (<{ i8*, [16 x i8] }>* @alloc910 to %"core::panic::location::Location"*)) #7, !dbg !714
  unreachable, !dbg !714

bb52:                                             ; preds = %bb51
  store i32* %_166, i32** %self.dbg.spill.i25, align 8
  call void @llvm.dbg.declare(metadata i32** %self.dbg.spill.i25, metadata !518, metadata !DIExpression()), !dbg !717
  store i64 2, i64* %count.dbg.spill.i24, align 8
  call void @llvm.dbg.declare(metadata i64* %count.dbg.spill.i24, metadata !528, metadata !DIExpression()), !dbg !719
  %69 = getelementptr inbounds i32, i32* %_166, i64 2, !dbg !720
  store i32* %69, i32** %22, align 8, !dbg !720
  %_3.i26 = load i32*, i32** %22, align 8, !dbg !720
  br label %bb53, !dbg !716

bb53:                                             ; preds = %bb52
  %_164 = load i32, i32* %_3.i26, align 4, !dbg !721
  %_172 = sext i32 %fresh10 to i64, !dbg !722
  store i32* %buf, i32** %self.dbg.spill.i22, align 8
  call void @llvm.dbg.declare(metadata i32** %self.dbg.spill.i22, metadata !518, metadata !DIExpression()), !dbg !723
  store i64 %_172, i64* %count.dbg.spill.i21, align 8
  call void @llvm.dbg.declare(metadata i64* %count.dbg.spill.i21, metadata !528, metadata !DIExpression()), !dbg !725
  %70 = getelementptr inbounds i32, i32* %buf, i64 %_172, !dbg !726
  store i32* %70, i32** %23, align 8, !dbg !726
  %_3.i23 = load i32*, i32** %23, align 8, !dbg !726
  br label %bb54, !dbg !727

bb54:                                             ; preds = %bb53
  store i32 %_164, i32* %_3.i23, align 4, !dbg !728
  %_178 = getelementptr inbounds %"flex_array_members::c89_flex", %"flex_array_members::c89_flex"* %u, i32 0, i32 1, !dbg !729
  %_177.0 = bitcast [1 x i32]* %_178 to [0 x i32]*, !dbg !729
; call core::slice::<impl [T]>::as_mut_ptr
  %_176 = call i32* @"_ZN4core5slice29_$LT$impl$u20$$u5b$T$u5d$$GT$10as_mut_ptr17h32fbf0a569fb3c36E"([0 x i32]* align 4 %_177.0, i64 1), !dbg !729
  br label %bb55, !dbg !729

bb55:                                             ; preds = %bb54
  store i32* %_176, i32** %self.dbg.spill.i19, align 8
  call void @llvm.dbg.declare(metadata i32** %self.dbg.spill.i19, metadata !518, metadata !DIExpression()), !dbg !730
  store i64 0, i64* %count.dbg.spill.i18, align 8
  call void @llvm.dbg.declare(metadata i64* %count.dbg.spill.i18, metadata !528, metadata !DIExpression()), !dbg !732
  store i32* %_176, i32** %24, align 8, !dbg !733
  %_3.i20 = load i32*, i32** %24, align 8, !dbg !733
  br label %bb56, !dbg !729

bb56:                                             ; preds = %bb55
  store i32 10, i32* %_3.i20, align 4, !dbg !734
  %_184 = getelementptr inbounds %"flex_array_members::c89_flex", %"flex_array_members::c89_flex"* %u, i32 0, i32 1, !dbg !735
  %_183.0 = bitcast [1 x i32]* %_184 to [0 x i32]*, !dbg !735
; call core::slice::<impl [T]>::as_mut_ptr
  %_182 = call i32* @"_ZN4core5slice29_$LT$impl$u20$$u5b$T$u5d$$GT$10as_mut_ptr17h32fbf0a569fb3c36E"([0 x i32]* align 4 %_183.0, i64 1), !dbg !735
  br label %bb57, !dbg !735

bb57:                                             ; preds = %bb56
  store i32* %_182, i32** %self.dbg.spill.i16, align 8
  call void @llvm.dbg.declare(metadata i32** %self.dbg.spill.i16, metadata !518, metadata !DIExpression()), !dbg !736
  store i64 5, i64* %count.dbg.spill.i15, align 8
  call void @llvm.dbg.declare(metadata i64* %count.dbg.spill.i15, metadata !528, metadata !DIExpression()), !dbg !738
  %71 = getelementptr inbounds i32, i32* %_182, i64 5, !dbg !739
  store i32* %71, i32** %25, align 8, !dbg !739
  %_3.i17 = load i32*, i32** %25, align 8, !dbg !739
  br label %bb58, !dbg !735

bb58:                                             ; preds = %bb57
  store i32 15, i32* %_3.i17, align 4, !dbg !740
  %fresh11 = load i32, i32* %i, align 4, !dbg !741
  store i32 %fresh11, i32* %fresh11.dbg.spill, align 4, !dbg !741
  call void @llvm.dbg.declare(metadata i32* %fresh11.dbg.spill, metadata !504, metadata !DIExpression()), !dbg !742
  %_187 = load i32, i32* %i, align 4, !dbg !743
  %72 = call { i32, i1 } @llvm.sadd.with.overflow.i32(i32 %_187, i32 1), !dbg !743
  %_188.0 = extractvalue { i32, i1 } %72, 0, !dbg !743
  %_188.1 = extractvalue { i32, i1 } %72, 1, !dbg !743
  %73 = call i1 @llvm.expect.i1(i1 %_188.1, i1 false), !dbg !743
  br i1 %73, label %panic11, label %bb59, !dbg !743

bb59:                                             ; preds = %bb58
  store i32 %_188.0, i32* %i, align 4, !dbg !744
  %_193 = getelementptr inbounds %"flex_array_members::c89_flex", %"flex_array_members::c89_flex"* %u, i32 0, i32 1, !dbg !745
  %_192.0 = bitcast [1 x i32]* %_193 to [0 x i32]*, !dbg !745
; call core::slice::<impl [T]>::as_mut_ptr
  %_191 = call i32* @"_ZN4core5slice29_$LT$impl$u20$$u5b$T$u5d$$GT$10as_mut_ptr17h32fbf0a569fb3c36E"([0 x i32]* align 4 %_192.0, i64 1), !dbg !745
  br label %bb60, !dbg !745

panic11:                                          ; preds = %bb58
; call core::panicking::panic
  call void @_ZN4core9panicking5panic17hf5844c0338bd061cE([0 x i8]* align 1 bitcast ([28 x i8]* @str.0 to [0 x i8]*), i64 28, %"core::panic::location::Location"* align 8 bitcast (<{ i8*, [16 x i8] }>* @alloc912 to %"core::panic::location::Location"*)) #7, !dbg !743
  unreachable, !dbg !743

bb60:                                             ; preds = %bb59
  store i32* %_191, i32** %self.dbg.spill.i13, align 8
  call void @llvm.dbg.declare(metadata i32** %self.dbg.spill.i13, metadata !518, metadata !DIExpression()), !dbg !746
  store i64 5, i64* %count.dbg.spill.i12, align 8
  call void @llvm.dbg.declare(metadata i64* %count.dbg.spill.i12, metadata !528, metadata !DIExpression()), !dbg !748
  %74 = getelementptr inbounds i32, i32* %_191, i64 5, !dbg !749
  store i32* %74, i32** %26, align 8, !dbg !749
  %_3.i14 = load i32*, i32** %26, align 8, !dbg !749
  br label %bb61, !dbg !745

bb61:                                             ; preds = %bb60
  %_189 = load i32, i32* %_3.i14, align 4, !dbg !750
  %_197 = sext i32 %fresh11 to i64, !dbg !751
  store i32* %buf, i32** %self.dbg.spill.i, align 8
  call void @llvm.dbg.declare(metadata i32** %self.dbg.spill.i, metadata !518, metadata !DIExpression()), !dbg !752
  store i64 %_197, i64* %count.dbg.spill.i, align 8
  call void @llvm.dbg.declare(metadata i64* %count.dbg.spill.i, metadata !528, metadata !DIExpression()), !dbg !754
  %75 = getelementptr inbounds i32, i32* %buf, i64 %_197, !dbg !755
  store i32* %75, i32** %27, align 8, !dbg !755
  %_3.i = load i32*, i32** %27, align 8, !dbg !755
  br label %bb62, !dbg !756

bb62:                                             ; preds = %bb61
  store i32 %_189, i32* %_3.i, align 4, !dbg !757
  ret void, !dbg !758
}

; Function Attrs: nonlazybind uwtable
define i24 @rust_zeroed_three_byte_date() unnamed_addr #0 !dbg !759 {
start:
  %_2 = alloca [3 x i8], align 1
  %init = alloca %"bitfields::three_byte_date", align 1
  %tbd = alloca %"bitfields::three_byte_date", align 1
  call void @llvm.dbg.declare(metadata %"bitfields::three_byte_date"* %tbd, metadata !763, metadata !DIExpression()), !dbg !767
  call void @llvm.dbg.declare(metadata %"bitfields::three_byte_date"* %init, metadata !765, metadata !DIExpression()), !dbg !768
  %0 = getelementptr inbounds [3 x i8], [3 x i8]* %_2, i64 0, i64 0, !dbg !769
  call void @llvm.memset.p0i8.i64(i8* align 1 %0, i8 0, i64 3, i1 false), !dbg !769
  %1 = bitcast %"bitfields::three_byte_date"* %init to [3 x i8]*, !dbg !770
  %2 = bitcast [3 x i8]* %1 to i8*, !dbg !770
  %3 = bitcast [3 x i8]* %_2 to i8*, !dbg !770
  call void @llvm.memcpy.p0i8.p0i8.i64(i8* align 1 %2, i8* align 1 %3, i64 3, i1 false), !dbg !770
; call structs_tests::bitfields::three_byte_date::set_day
  call void @_ZN13structs_tests9bitfields15three_byte_date7set_day17h17521339b0e79bceE(%"bitfields::three_byte_date"* align 1 %init, i8 0), !dbg !771
  br label %bb1, !dbg !771

bb1:                                              ; preds = %start
; call structs_tests::bitfields::three_byte_date::set_month
  call void @_ZN13structs_tests9bitfields15three_byte_date9set_month17hd8432ddeb2eb0776E(%"bitfields::three_byte_date"* align 1 %init, i8 0), !dbg !772
  br label %bb2, !dbg !772

bb2:                                              ; preds = %bb1
; call structs_tests::bitfields::three_byte_date::set_year
  call void @_ZN13structs_tests9bitfields15three_byte_date8set_year17hea8919b51dfeed81E(%"bitfields::three_byte_date"* align 1 %init, i16 0), !dbg !773
  br label %bb3, !dbg !773

bb3:                                              ; preds = %bb2
  %4 = bitcast %"bitfields::three_byte_date"* %tbd to i8*, !dbg !774
  %5 = bitcast %"bitfields::three_byte_date"* %init to i8*, !dbg !774
  call void @llvm.memcpy.p0i8.p0i8.i64(i8* align 1 %4, i8* align 1 %5, i64 3, i1 false), !dbg !774
  %6 = bitcast %"bitfields::three_byte_date"* %tbd to i24*, !dbg !775
  %7 = load i24, i24* %6, align 1, !dbg !775
  ret i24 %7, !dbg !775
}

; Function Attrs: nonlazybind uwtable
define i64 @rust_size_of_three_byte_date() unnamed_addr #0 !dbg !776 {
start:
  br label %bb1, !dbg !779

bb1:                                              ; preds = %start
  ret i64 3, !dbg !780
}

; Function Attrs: nonlazybind uwtable
define zeroext i8 @rust_compare_three_byte_date(%"bitfields::three_byte_date"* %tbd, i8 zeroext %d, i8 zeroext %m, i16 zeroext %y) unnamed_addr #0 !dbg !781 {
start:
  %y.dbg.spill = alloca i16, align 2
  %m.dbg.spill = alloca i8, align 1
  %d.dbg.spill = alloca i8, align 1
  %tbd.dbg.spill = alloca %"bitfields::three_byte_date"*, align 8
  %0 = alloca i8, align 1
  store %"bitfields::three_byte_date"* %tbd, %"bitfields::three_byte_date"** %tbd.dbg.spill, align 8
  call void @llvm.dbg.declare(metadata %"bitfields::three_byte_date"** %tbd.dbg.spill, metadata !786, metadata !DIExpression()), !dbg !790
  store i8 %d, i8* %d.dbg.spill, align 1
  call void @llvm.dbg.declare(metadata i8* %d.dbg.spill, metadata !787, metadata !DIExpression()), !dbg !791
  store i8 %m, i8* %m.dbg.spill, align 1
  call void @llvm.dbg.declare(metadata i8* %m.dbg.spill, metadata !788, metadata !DIExpression()), !dbg !792
  store i16 %y, i16* %y.dbg.spill, align 2
  call void @llvm.dbg.declare(metadata i16* %y.dbg.spill, metadata !789, metadata !DIExpression()), !dbg !793
; call structs_tests::bitfields::three_byte_date::day
  %_7 = call i8 @_ZN13structs_tests9bitfields15three_byte_date3day17hf99f61081b673bacE(%"bitfields::three_byte_date"* align 1 %tbd), !dbg !794
  br label %bb1, !dbg !794

bb1:                                              ; preds = %start
  %_6 = zext i8 %_7 to i32, !dbg !794
  %_9 = zext i8 %d to i32, !dbg !795
  %_5 = icmp ne i32 %_6, %_9, !dbg !794
  br i1 %_5, label %bb2, label %bb3, !dbg !794

bb3:                                              ; preds = %bb1
; call structs_tests::bitfields::three_byte_date::month
  %_13 = call i8 @_ZN13structs_tests9bitfields15three_byte_date5month17haf16fb33670caca7E(%"bitfields::three_byte_date"* align 1 %tbd), !dbg !796
  br label %bb4, !dbg !796

bb2:                                              ; preds = %bb1
  store i8 1, i8* %0, align 1, !dbg !797
  br label %bb10, !dbg !798

bb10:                                             ; preds = %bb9, %bb8, %bb5, %bb2
  %1 = load i8, i8* %0, align 1, !dbg !801
  ret i8 %1, !dbg !801

bb4:                                              ; preds = %bb3
  %_12 = zext i8 %_13 to i32, !dbg !796
  %_15 = zext i8 %m to i32, !dbg !802
  %_11 = icmp ne i32 %_12, %_15, !dbg !796
  br i1 %_11, label %bb5, label %bb6, !dbg !796

bb6:                                              ; preds = %bb4
; call structs_tests::bitfields::three_byte_date::year
  %_19 = call i16 @_ZN13structs_tests9bitfields15three_byte_date4year17hada72e939e11a99cE(%"bitfields::three_byte_date"* align 1 %tbd), !dbg !803
  br label %bb7, !dbg !803

bb5:                                              ; preds = %bb4
  store i8 2, i8* %0, align 1, !dbg !804
  br label %bb10, !dbg !798

bb7:                                              ; preds = %bb6
  %_18 = zext i16 %_19 to i32, !dbg !803
  %_21 = zext i16 %y to i32, !dbg !805
  %_17 = icmp ne i32 %_18, %_21, !dbg !803
  br i1 %_17, label %bb8, label %bb9, !dbg !803

bb9:                                              ; preds = %bb7
  store i8 0, i8* %0, align 1, !dbg !806
  br label %bb10, !dbg !807

bb8:                                              ; preds = %bb7
  store i8 3, i8* %0, align 1, !dbg !808
  br label %bb10, !dbg !798
}

; Function Attrs: nonlazybind uwtable
define void @rust_write_three_byte_date(%"bitfields::three_byte_date"* %tbd, i8 zeroext %d, i8 zeroext %m, i16 zeroext %y) unnamed_addr #0 !dbg !809 {
start:
  %y.dbg.spill = alloca i16, align 2
  %m.dbg.spill = alloca i8, align 1
  %d.dbg.spill = alloca i8, align 1
  %tbd.dbg.spill = alloca %"bitfields::three_byte_date"*, align 8
  store %"bitfields::three_byte_date"* %tbd, %"bitfields::three_byte_date"** %tbd.dbg.spill, align 8
  call void @llvm.dbg.declare(metadata %"bitfields::three_byte_date"** %tbd.dbg.spill, metadata !814, metadata !DIExpression()), !dbg !818
  store i8 %d, i8* %d.dbg.spill, align 1
  call void @llvm.dbg.declare(metadata i8* %d.dbg.spill, metadata !815, metadata !DIExpression()), !dbg !819
  store i8 %m, i8* %m.dbg.spill, align 1
  call void @llvm.dbg.declare(metadata i8* %m.dbg.spill, metadata !816, metadata !DIExpression()), !dbg !820
  store i16 %y, i16* %y.dbg.spill, align 2
  call void @llvm.dbg.declare(metadata i16* %y.dbg.spill, metadata !817, metadata !DIExpression()), !dbg !821
; call structs_tests::bitfields::three_byte_date::set_day
  call void @_ZN13structs_tests9bitfields15three_byte_date7set_day17h17521339b0e79bceE(%"bitfields::three_byte_date"* align 1 %tbd, i8 %d), !dbg !822
  br label %bb1, !dbg !822

bb1:                                              ; preds = %start
; call structs_tests::bitfields::three_byte_date::set_month
  call void @_ZN13structs_tests9bitfields15three_byte_date9set_month17hd8432ddeb2eb0776E(%"bitfields::three_byte_date"* align 1 %tbd, i8 %m), !dbg !823
  br label %bb2, !dbg !823

bb2:                                              ; preds = %bb1
; call structs_tests::bitfields::three_byte_date::set_year
  call void @_ZN13structs_tests9bitfields15three_byte_date8set_year17hea8919b51dfeed81E(%"bitfields::three_byte_date"* align 1 %tbd, i16 %y), !dbg !824
  br label %bb3, !dbg !824

bb3:                                              ; preds = %bb2
  ret void, !dbg !825
}

; Function Attrs: nonlazybind uwtable
define i64 @rust_zeroed_padded_bitfield() unnamed_addr #0 !dbg !826 {
start:
  %_5 = alloca [4 x i8], align 1
  %_4 = alloca [2 x i8], align 1
  %_3 = alloca [1 x i8], align 1
  %_2 = alloca [1 x i8], align 1
  %init = alloca %"bitfields::padded_bitfield", align 1
  %pb = alloca %"bitfields::padded_bitfield", align 1
  call void @llvm.dbg.declare(metadata %"bitfields::padded_bitfield"* %pb, metadata !842, metadata !DIExpression()), !dbg !846
  call void @llvm.dbg.declare(metadata %"bitfields::padded_bitfield"* %init, metadata !844, metadata !DIExpression()), !dbg !847
  %0 = getelementptr inbounds [1 x i8], [1 x i8]* %_2, i64 0, i64 0, !dbg !848
  call void @llvm.memset.p0i8.i64(i8* align 1 %0, i8 0, i64 1, i1 false), !dbg !848
  %1 = getelementptr inbounds [1 x i8], [1 x i8]* %_3, i64 0, i64 0, !dbg !849
  call void @llvm.memset.p0i8.i64(i8* align 1 %1, i8 0, i64 1, i1 false), !dbg !849
  %2 = getelementptr inbounds [2 x i8], [2 x i8]* %_4, i64 0, i64 0, !dbg !850
  call void @llvm.memset.p0i8.i64(i8* align 1 %2, i8 0, i64 2, i1 false), !dbg !850
  %3 = getelementptr inbounds [4 x i8], [4 x i8]* %_5, i64 0, i64 0, !dbg !851
  call void @llvm.memset.p0i8.i64(i8* align 1 %3, i8 0, i64 4, i1 false), !dbg !851
  %4 = bitcast %"bitfields::padded_bitfield"* %init to [1 x i8]*, !dbg !852
  %5 = bitcast [1 x i8]* %4 to i8*, !dbg !852
  %6 = bitcast [1 x i8]* %_2 to i8*, !dbg !852
  call void @llvm.memcpy.p0i8.p0i8.i64(i8* align 1 %5, i8* align 1 %6, i64 1, i1 false), !dbg !852
  %7 = getelementptr inbounds %"bitfields::padded_bitfield", %"bitfields::padded_bitfield"* %init, i32 0, i32 1, !dbg !852
  %8 = bitcast [1 x i8]* %7 to i8*, !dbg !852
  %9 = bitcast [1 x i8]* %_3 to i8*, !dbg !852
  call void @llvm.memcpy.p0i8.p0i8.i64(i8* align 1 %8, i8* align 1 %9, i64 1, i1 false), !dbg !852
  %10 = getelementptr inbounds %"bitfields::padded_bitfield", %"bitfields::padded_bitfield"* %init, i32 0, i32 2, !dbg !852
  %11 = bitcast [2 x i8]* %10 to i8*, !dbg !852
  %12 = bitcast [2 x i8]* %_4 to i8*, !dbg !852
  call void @llvm.memcpy.p0i8.p0i8.i64(i8* align 1 %11, i8* align 1 %12, i64 2, i1 false), !dbg !852
  %13 = getelementptr inbounds %"bitfields::padded_bitfield", %"bitfields::padded_bitfield"* %init, i32 0, i32 3, !dbg !852
  %14 = bitcast [4 x i8]* %13 to i8*, !dbg !852
  %15 = bitcast [4 x i8]* %_5 to i8*, !dbg !852
  call void @llvm.memcpy.p0i8.p0i8.i64(i8* align 1 %14, i8* align 1 %15, i64 4, i1 false), !dbg !852
; call structs_tests::bitfields::padded_bitfield::set_x
  call void @_ZN13structs_tests9bitfields15padded_bitfield5set_x17h4fe52807cf128c5cE(%"bitfields::padded_bitfield"* align 1 %init, i64 0), !dbg !853
  br label %bb1, !dbg !853

bb1:                                              ; preds = %start
; call structs_tests::bitfields::padded_bitfield::set_z
  call void @_ZN13structs_tests9bitfields15padded_bitfield5set_z17h5eed7ba982d7d19fE(%"bitfields::padded_bitfield"* align 1 %init, i64 0), !dbg !854
  br label %bb2, !dbg !854

bb2:                                              ; preds = %bb1
  %16 = bitcast %"bitfields::padded_bitfield"* %pb to i8*, !dbg !855
  %17 = bitcast %"bitfields::padded_bitfield"* %init to i8*, !dbg !855
  call void @llvm.memcpy.p0i8.p0i8.i64(i8* align 1 %16, i8* align 1 %17, i64 8, i1 false), !dbg !855
  %18 = bitcast %"bitfields::padded_bitfield"* %pb to i64*, !dbg !856
  %19 = load i64, i64* %18, align 1, !dbg !856
  ret i64 %19, !dbg !856
}

; Function Attrs: nonlazybind uwtable
define i64 @rust_size_of_padded_bitfield() unnamed_addr #0 !dbg !857 {
start:
  br label %bb1, !dbg !858

bb1:                                              ; preds = %start
  ret i64 8, !dbg !859
}

; Function Attrs: nonlazybind uwtable
define void @rust_ops_padded_bitfield(%"bitfields::padded_bitfield"* %bf) unnamed_addr #0 !dbg !860 {
start:
  %bf.dbg.spill = alloca %"bitfields::padded_bitfield"*, align 8
  store %"bitfields::padded_bitfield"* %bf, %"bitfields::padded_bitfield"** %bf.dbg.spill, align 8
  call void @llvm.dbg.declare(metadata %"bitfields::padded_bitfield"** %bf.dbg.spill, metadata !865, metadata !DIExpression()), !dbg !866
; call structs_tests::bitfields::padded_bitfield::x
  %_5 = call i64 @_ZN13structs_tests9bitfields15padded_bitfield1x17hb81cbb4e8cb7b48fE(%"bitfields::padded_bitfield"* align 1 %bf), !dbg !867
  br label %bb1, !dbg !867

bb1:                                              ; preds = %start
  %_9 = icmp eq i64 %_5, -9223372036854775808, !dbg !867
  %_10 = and i1 false, %_9, !dbg !867
  %0 = call i1 @llvm.expect.i1(i1 %_10, i1 false), !dbg !867
  br i1 %0, label %panic, label %bb2, !dbg !867

bb2:                                              ; preds = %bb1
  %_4 = srem i64 %_5, 2, !dbg !867
; call structs_tests::bitfields::padded_bitfield::set_x
  call void @_ZN13structs_tests9bitfields15padded_bitfield5set_x17h4fe52807cf128c5cE(%"bitfields::padded_bitfield"* align 1 %bf, i64 %_4), !dbg !868
  br label %bb3, !dbg !868

panic:                                            ; preds = %bb1
; call core::panicking::panic
  call void @_ZN4core9panicking5panic17hf5844c0338bd061cE([0 x i8]* align 1 bitcast ([48 x i8]* @str.1 to [0 x i8]*), i64 48, %"core::panic::location::Location"* align 8 bitcast (<{ i8*, [16 x i8] }>* @alloc914 to %"core::panic::location::Location"*)) #7, !dbg !867
  unreachable, !dbg !867

bb3:                                              ; preds = %bb2
; call structs_tests::bitfields::padded_bitfield::x
  %_14 = call i64 @_ZN13structs_tests9bitfields15padded_bitfield1x17hb81cbb4e8cb7b48fE(%"bitfields::padded_bitfield"* align 1 %bf), !dbg !869
  br label %bb4, !dbg !869

bb4:                                              ; preds = %bb3
  %1 = call { i64, i1 } @llvm.sadd.with.overflow.i64(i64 %_14, i64 1), !dbg !869
  %_17.0 = extractvalue { i64, i1 } %1, 0, !dbg !869
  %_17.1 = extractvalue { i64, i1 } %1, 1, !dbg !869
  %2 = call i1 @llvm.expect.i1(i1 %_17.1, i1 false), !dbg !869
  br i1 %2, label %panic1, label %bb5, !dbg !869

bb5:                                              ; preds = %bb4
; call structs_tests::bitfields::padded_bitfield::set_x
  call void @_ZN13structs_tests9bitfields15padded_bitfield5set_x17h4fe52807cf128c5cE(%"bitfields::padded_bitfield"* align 1 %bf, i64 %_17.0), !dbg !870
  br label %bb6, !dbg !870

panic1:                                           ; preds = %bb4
; call core::panicking::panic
  call void @_ZN4core9panicking5panic17hf5844c0338bd061cE([0 x i8]* align 1 bitcast ([28 x i8]* @str.0 to [0 x i8]*), i64 28, %"core::panic::location::Location"* align 8 bitcast (<{ i8*, [16 x i8] }>* @alloc916 to %"core::panic::location::Location"*)) #7, !dbg !869
  unreachable, !dbg !869

bb6:                                              ; preds = %bb5
; call structs_tests::bitfields::padded_bitfield::x
  %_21 = call i64 @_ZN13structs_tests9bitfields15padded_bitfield1x17hb81cbb4e8cb7b48fE(%"bitfields::padded_bitfield"* align 1 %bf), !dbg !871
  br label %bb7, !dbg !871

bb7:                                              ; preds = %bb6
  %3 = call { i64, i1 } @llvm.smul.with.overflow.i64(i64 %_21, i64 2), !dbg !871
  %_24.0 = extractvalue { i64, i1 } %3, 0, !dbg !871
  %_24.1 = extractvalue { i64, i1 } %3, 1, !dbg !871
  %4 = call i1 @llvm.expect.i1(i1 %_24.1, i1 false), !dbg !871
  br i1 %4, label %panic2, label %bb8, !dbg !871

bb8:                                              ; preds = %bb7
; call structs_tests::bitfields::padded_bitfield::set_x
  call void @_ZN13structs_tests9bitfields15padded_bitfield5set_x17h4fe52807cf128c5cE(%"bitfields::padded_bitfield"* align 1 %bf, i64 %_24.0), !dbg !872
  br label %bb9, !dbg !872

panic2:                                           ; preds = %bb7
; call core::panicking::panic
  call void @_ZN4core9panicking5panic17hf5844c0338bd061cE([0 x i8]* align 1 bitcast ([33 x i8]* @str.2 to [0 x i8]*), i64 33, %"core::panic::location::Location"* align 8 bitcast (<{ i8*, [16 x i8] }>* @alloc918 to %"core::panic::location::Location"*)) #7, !dbg !871
  unreachable, !dbg !871

bb9:                                              ; preds = %bb8
; call structs_tests::bitfields::padded_bitfield::x
  %_28 = call i64 @_ZN13structs_tests9bitfields15padded_bitfield1x17hb81cbb4e8cb7b48fE(%"bitfields::padded_bitfield"* align 1 %bf), !dbg !873
  br label %bb10, !dbg !873

bb10:                                             ; preds = %bb9
  %5 = call { i64, i1 } @llvm.ssub.with.overflow.i64(i64 %_28, i64 1), !dbg !873
  %_31.0 = extractvalue { i64, i1 } %5, 0, !dbg !873
  %_31.1 = extractvalue { i64, i1 } %5, 1, !dbg !873
  %6 = call i1 @llvm.expect.i1(i1 %_31.1, i1 false), !dbg !873
  br i1 %6, label %panic3, label %bb11, !dbg !873

bb11:                                             ; preds = %bb10
; call structs_tests::bitfields::padded_bitfield::set_x
  call void @_ZN13structs_tests9bitfields15padded_bitfield5set_x17h4fe52807cf128c5cE(%"bitfields::padded_bitfield"* align 1 %bf, i64 %_31.0), !dbg !874
  br label %bb12, !dbg !874

panic3:                                           ; preds = %bb10
; call core::panicking::panic
  call void @_ZN4core9panicking5panic17hf5844c0338bd061cE([0 x i8]* align 1 bitcast ([33 x i8]* @str.3 to [0 x i8]*), i64 33, %"core::panic::location::Location"* align 8 bitcast (<{ i8*, [16 x i8] }>* @alloc920 to %"core::panic::location::Location"*)) #7, !dbg !873
  unreachable, !dbg !873

bb12:                                             ; preds = %bb11
; call structs_tests::bitfields::padded_bitfield::x
  %_35 = call i64 @_ZN13structs_tests9bitfields15padded_bitfield1x17hb81cbb4e8cb7b48fE(%"bitfields::padded_bitfield"* align 1 %bf), !dbg !875
  br label %bb13, !dbg !875

bb13:                                             ; preds = %bb12
  %_39 = icmp eq i64 %_35, -9223372036854775808, !dbg !875
  %_40 = and i1 false, %_39, !dbg !875
  %7 = call i1 @llvm.expect.i1(i1 %_40, i1 false), !dbg !875
  br i1 %7, label %panic4, label %bb14, !dbg !875

bb14:                                             ; preds = %bb13
  %_34 = sdiv i64 %_35, 2, !dbg !875
; call structs_tests::bitfields::padded_bitfield::set_x
  call void @_ZN13structs_tests9bitfields15padded_bitfield5set_x17h4fe52807cf128c5cE(%"bitfields::padded_bitfield"* align 1 %bf, i64 %_34), !dbg !876
  br label %bb15, !dbg !876

panic4:                                           ; preds = %bb13
; call core::panicking::panic
  call void @_ZN4core9panicking5panic17hf5844c0338bd061cE([0 x i8]* align 1 bitcast ([31 x i8]* @str.4 to [0 x i8]*), i64 31, %"core::panic::location::Location"* align 8 bitcast (<{ i8*, [16 x i8] }>* @alloc922 to %"core::panic::location::Location"*)) #7, !dbg !875
  unreachable, !dbg !875

bb15:                                             ; preds = %bb14
; call structs_tests::bitfields::padded_bitfield::x
  %_44 = call i64 @_ZN13structs_tests9bitfields15padded_bitfield1x17hb81cbb4e8cb7b48fE(%"bitfields::padded_bitfield"* align 1 %bf), !dbg !877
  br label %bb16, !dbg !877

bb16:                                             ; preds = %bb15
  %_43 = xor i64 %_44, 1, !dbg !877
; call structs_tests::bitfields::padded_bitfield::set_x
  call void @_ZN13structs_tests9bitfields15padded_bitfield5set_x17h4fe52807cf128c5cE(%"bitfields::padded_bitfield"* align 1 %bf, i64 %_43), !dbg !878
  br label %bb17, !dbg !878

bb17:                                             ; preds = %bb16
; call structs_tests::bitfields::padded_bitfield::x
  %_50 = call i64 @_ZN13structs_tests9bitfields15padded_bitfield1x17hb81cbb4e8cb7b48fE(%"bitfields::padded_bitfield"* align 1 %bf), !dbg !879
  br label %bb18, !dbg !879

bb18:                                             ; preds = %bb17
  %_53.0 = ashr i64 %_50, 2, !dbg !879
  br label %bb19, !dbg !879

bb19:                                             ; preds = %bb18
; call structs_tests::bitfields::padded_bitfield::set_x
  call void @_ZN13structs_tests9bitfields15padded_bitfield5set_x17h4fe52807cf128c5cE(%"bitfields::padded_bitfield"* align 1 %bf, i64 %_53.0), !dbg !880
  br label %bb20, !dbg !880

bb20:                                             ; preds = %bb19
; call structs_tests::bitfields::padded_bitfield::x
  %_57 = call i64 @_ZN13structs_tests9bitfields15padded_bitfield1x17hb81cbb4e8cb7b48fE(%"bitfields::padded_bitfield"* align 1 %bf), !dbg !881
  br label %bb21, !dbg !881

bb21:                                             ; preds = %bb20
  %_60.0 = shl i64 %_57, 1, !dbg !881
  br label %bb22, !dbg !881

bb22:                                             ; preds = %bb21
; call structs_tests::bitfields::padded_bitfield::set_x
  call void @_ZN13structs_tests9bitfields15padded_bitfield5set_x17h4fe52807cf128c5cE(%"bitfields::padded_bitfield"* align 1 %bf, i64 %_60.0), !dbg !882
  br label %bb23, !dbg !882

bb23:                                             ; preds = %bb22
; call structs_tests::bitfields::padded_bitfield::x
  %_64 = call i64 @_ZN13structs_tests9bitfields15padded_bitfield1x17hb81cbb4e8cb7b48fE(%"bitfields::padded_bitfield"* align 1 %bf), !dbg !883
  br label %bb24, !dbg !883

bb24:                                             ; preds = %bb23
  %_63 = and i64 %_64, 1, !dbg !883
; call structs_tests::bitfields::padded_bitfield::set_x
  call void @_ZN13structs_tests9bitfields15padded_bitfield5set_x17h4fe52807cf128c5cE(%"bitfields::padded_bitfield"* align 1 %bf, i64 %_63), !dbg !884
  br label %bb25, !dbg !884

bb25:                                             ; preds = %bb24
; call structs_tests::bitfields::padded_bitfield::x
  %_70 = call i64 @_ZN13structs_tests9bitfields15padded_bitfield1x17hb81cbb4e8cb7b48fE(%"bitfields::padded_bitfield"* align 1 %bf), !dbg !885
  br label %bb26, !dbg !885

bb26:                                             ; preds = %bb25
  %_69 = or i64 %_70, 2, !dbg !885
; call structs_tests::bitfields::padded_bitfield::set_x
  call void @_ZN13structs_tests9bitfields15padded_bitfield5set_x17h4fe52807cf128c5cE(%"bitfields::padded_bitfield"* align 1 %bf, i64 %_69), !dbg !886
  br label %bb27, !dbg !886

bb27:                                             ; preds = %bb26
; call structs_tests::bitfields::padded_bitfield::x
  %_76 = call i64 @_ZN13structs_tests9bitfields15padded_bitfield1x17hb81cbb4e8cb7b48fE(%"bitfields::padded_bitfield"* align 1 %bf), !dbg !887
  br label %bb28, !dbg !887

bb28:                                             ; preds = %bb27
  %8 = call { i64, i1 } @llvm.sadd.with.overflow.i64(i64 %_76, i64 1), !dbg !887
  %_78.0 = extractvalue { i64, i1 } %8, 0, !dbg !887
  %_78.1 = extractvalue { i64, i1 } %8, 1, !dbg !887
  %9 = call i1 @llvm.expect.i1(i1 %_78.1, i1 false), !dbg !887
  br i1 %9, label %panic5, label %bb29, !dbg !887

bb29:                                             ; preds = %bb28
; call structs_tests::bitfields::padded_bitfield::set_x
  call void @_ZN13structs_tests9bitfields15padded_bitfield5set_x17h4fe52807cf128c5cE(%"bitfields::padded_bitfield"* align 1 %bf, i64 %_78.0), !dbg !888
  br label %bb30, !dbg !888

panic5:                                           ; preds = %bb28
; call core::panicking::panic
  call void @_ZN4core9panicking5panic17hf5844c0338bd061cE([0 x i8]* align 1 bitcast ([28 x i8]* @str.0 to [0 x i8]*), i64 28, %"core::panic::location::Location"* align 8 bitcast (<{ i8*, [16 x i8] }>* @alloc924 to %"core::panic::location::Location"*)) #7, !dbg !887
  unreachable, !dbg !887

bb30:                                             ; preds = %bb29
; call structs_tests::bitfields::padded_bitfield::x
  %_79 = call i64 @_ZN13structs_tests9bitfields15padded_bitfield1x17hb81cbb4e8cb7b48fE(%"bitfields::padded_bitfield"* align 1 %bf), !dbg !889
  br label %bb31, !dbg !889

bb31:                                             ; preds = %bb30
; call structs_tests::bitfields::padded_bitfield::x
  %_84 = call i64 @_ZN13structs_tests9bitfields15padded_bitfield1x17hb81cbb4e8cb7b48fE(%"bitfields::padded_bitfield"* align 1 %bf), !dbg !890
  br label %bb32, !dbg !890

bb32:                                             ; preds = %bb31
  %10 = call { i64, i1 } @llvm.ssub.with.overflow.i64(i64 %_84, i64 1), !dbg !890
  %_86.0 = extractvalue { i64, i1 } %10, 0, !dbg !890
  %_86.1 = extractvalue { i64, i1 } %10, 1, !dbg !890
  %11 = call i1 @llvm.expect.i1(i1 %_86.1, i1 false), !dbg !890
  br i1 %11, label %panic6, label %bb33, !dbg !890

bb33:                                             ; preds = %bb32
; call structs_tests::bitfields::padded_bitfield::set_x
  call void @_ZN13structs_tests9bitfields15padded_bitfield5set_x17h4fe52807cf128c5cE(%"bitfields::padded_bitfield"* align 1 %bf, i64 %_86.0), !dbg !891
  br label %bb34, !dbg !891

panic6:                                           ; preds = %bb32
; call core::panicking::panic
  call void @_ZN4core9panicking5panic17hf5844c0338bd061cE([0 x i8]* align 1 bitcast ([33 x i8]* @str.3 to [0 x i8]*), i64 33, %"core::panic::location::Location"* align 8 bitcast (<{ i8*, [16 x i8] }>* @alloc926 to %"core::panic::location::Location"*)) #7, !dbg !890
  unreachable, !dbg !890

bb34:                                             ; preds = %bb33
; call structs_tests::bitfields::padded_bitfield::x
  %_87 = call i64 @_ZN13structs_tests9bitfields15padded_bitfield1x17hb81cbb4e8cb7b48fE(%"bitfields::padded_bitfield"* align 1 %bf), !dbg !892
  br label %bb35, !dbg !892

bb35:                                             ; preds = %bb34
; call structs_tests::bitfields::padded_bitfield::x
  %_92 = call i64 @_ZN13structs_tests9bitfields15padded_bitfield1x17hb81cbb4e8cb7b48fE(%"bitfields::padded_bitfield"* align 1 %bf), !dbg !893
  br label %bb36, !dbg !893

bb36:                                             ; preds = %bb35
  %_96 = icmp eq i64 %_92, -9223372036854775808, !dbg !893
  %_97 = and i1 false, %_96, !dbg !893
  %12 = call i1 @llvm.expect.i1(i1 %_97, i1 false), !dbg !893
  br i1 %12, label %panic7, label %bb37, !dbg !893

bb37:                                             ; preds = %bb36
  %_91 = srem i64 %_92, 2, !dbg !893
; call structs_tests::bitfields::padded_bitfield::set_x
  call void @_ZN13structs_tests9bitfields15padded_bitfield5set_x17h4fe52807cf128c5cE(%"bitfields::padded_bitfield"* align 1 %bf, i64 %_91), !dbg !894
  br label %bb38, !dbg !894

panic7:                                           ; preds = %bb36
; call core::panicking::panic
  call void @_ZN4core9panicking5panic17hf5844c0338bd061cE([0 x i8]* align 1 bitcast ([48 x i8]* @str.1 to [0 x i8]*), i64 48, %"core::panic::location::Location"* align 8 bitcast (<{ i8*, [16 x i8] }>* @alloc928 to %"core::panic::location::Location"*)) #7, !dbg !893
  unreachable, !dbg !893

bb38:                                             ; preds = %bb37
; call structs_tests::bitfields::padded_bitfield::x
  %_101 = call i64 @_ZN13structs_tests9bitfields15padded_bitfield1x17hb81cbb4e8cb7b48fE(%"bitfields::padded_bitfield"* align 1 %bf), !dbg !895
  br label %bb39, !dbg !895

bb39:                                             ; preds = %bb38
  %13 = call { i64, i1 } @llvm.sadd.with.overflow.i64(i64 %_101, i64 1), !dbg !895
  %_104.0 = extractvalue { i64, i1 } %13, 0, !dbg !895
  %_104.1 = extractvalue { i64, i1 } %13, 1, !dbg !895
  %14 = call i1 @llvm.expect.i1(i1 %_104.1, i1 false), !dbg !895
  br i1 %14, label %panic8, label %bb40, !dbg !895

bb40:                                             ; preds = %bb39
; call structs_tests::bitfields::padded_bitfield::set_x
  call void @_ZN13structs_tests9bitfields15padded_bitfield5set_x17h4fe52807cf128c5cE(%"bitfields::padded_bitfield"* align 1 %bf, i64 %_104.0), !dbg !896
  br label %bb41, !dbg !896

panic8:                                           ; preds = %bb39
; call core::panicking::panic
  call void @_ZN4core9panicking5panic17hf5844c0338bd061cE([0 x i8]* align 1 bitcast ([28 x i8]* @str.0 to [0 x i8]*), i64 28, %"core::panic::location::Location"* align 8 bitcast (<{ i8*, [16 x i8] }>* @alloc930 to %"core::panic::location::Location"*)) #7, !dbg !895
  unreachable, !dbg !895

bb41:                                             ; preds = %bb40
; call structs_tests::bitfields::padded_bitfield::x
  %_108 = call i64 @_ZN13structs_tests9bitfields15padded_bitfield1x17hb81cbb4e8cb7b48fE(%"bitfields::padded_bitfield"* align 1 %bf), !dbg !897
  br label %bb42, !dbg !897

bb42:                                             ; preds = %bb41
  %15 = call { i64, i1 } @llvm.smul.with.overflow.i64(i64 %_108, i64 2), !dbg !897
  %_111.0 = extractvalue { i64, i1 } %15, 0, !dbg !897
  %_111.1 = extractvalue { i64, i1 } %15, 1, !dbg !897
  %16 = call i1 @llvm.expect.i1(i1 %_111.1, i1 false), !dbg !897
  br i1 %16, label %panic9, label %bb43, !dbg !897

bb43:                                             ; preds = %bb42
; call structs_tests::bitfields::padded_bitfield::set_x
  call void @_ZN13structs_tests9bitfields15padded_bitfield5set_x17h4fe52807cf128c5cE(%"bitfields::padded_bitfield"* align 1 %bf, i64 %_111.0), !dbg !898
  br label %bb44, !dbg !898

panic9:                                           ; preds = %bb42
; call core::panicking::panic
  call void @_ZN4core9panicking5panic17hf5844c0338bd061cE([0 x i8]* align 1 bitcast ([33 x i8]* @str.2 to [0 x i8]*), i64 33, %"core::panic::location::Location"* align 8 bitcast (<{ i8*, [16 x i8] }>* @alloc932 to %"core::panic::location::Location"*)) #7, !dbg !897
  unreachable, !dbg !897

bb44:                                             ; preds = %bb43
; call structs_tests::bitfields::padded_bitfield::x
  %_115 = call i64 @_ZN13structs_tests9bitfields15padded_bitfield1x17hb81cbb4e8cb7b48fE(%"bitfields::padded_bitfield"* align 1 %bf), !dbg !899
  br label %bb45, !dbg !899

bb45:                                             ; preds = %bb44
  %17 = call { i64, i1 } @llvm.ssub.with.overflow.i64(i64 %_115, i64 1), !dbg !899
  %_118.0 = extractvalue { i64, i1 } %17, 0, !dbg !899
  %_118.1 = extractvalue { i64, i1 } %17, 1, !dbg !899
  %18 = call i1 @llvm.expect.i1(i1 %_118.1, i1 false), !dbg !899
  br i1 %18, label %panic10, label %bb46, !dbg !899

bb46:                                             ; preds = %bb45
; call structs_tests::bitfields::padded_bitfield::set_x
  call void @_ZN13structs_tests9bitfields15padded_bitfield5set_x17h4fe52807cf128c5cE(%"bitfields::padded_bitfield"* align 1 %bf, i64 %_118.0), !dbg !900
  br label %bb47, !dbg !900

panic10:                                          ; preds = %bb45
; call core::panicking::panic
  call void @_ZN4core9panicking5panic17hf5844c0338bd061cE([0 x i8]* align 1 bitcast ([33 x i8]* @str.3 to [0 x i8]*), i64 33, %"core::panic::location::Location"* align 8 bitcast (<{ i8*, [16 x i8] }>* @alloc934 to %"core::panic::location::Location"*)) #7, !dbg !899
  unreachable, !dbg !899

bb47:                                             ; preds = %bb46
; call structs_tests::bitfields::padded_bitfield::x
  %_122 = call i64 @_ZN13structs_tests9bitfields15padded_bitfield1x17hb81cbb4e8cb7b48fE(%"bitfields::padded_bitfield"* align 1 %bf), !dbg !901
  br label %bb48, !dbg !901

bb48:                                             ; preds = %bb47
  %_126 = icmp eq i64 %_122, -9223372036854775808, !dbg !901
  %_127 = and i1 false, %_126, !dbg !901
  %19 = call i1 @llvm.expect.i1(i1 %_127, i1 false), !dbg !901
  br i1 %19, label %panic11, label %bb49, !dbg !901

bb49:                                             ; preds = %bb48
  %_121 = sdiv i64 %_122, 2, !dbg !901
; call structs_tests::bitfields::padded_bitfield::set_x
  call void @_ZN13structs_tests9bitfields15padded_bitfield5set_x17h4fe52807cf128c5cE(%"bitfields::padded_bitfield"* align 1 %bf, i64 %_121), !dbg !902
  br label %bb50, !dbg !902

panic11:                                          ; preds = %bb48
; call core::panicking::panic
  call void @_ZN4core9panicking5panic17hf5844c0338bd061cE([0 x i8]* align 1 bitcast ([31 x i8]* @str.4 to [0 x i8]*), i64 31, %"core::panic::location::Location"* align 8 bitcast (<{ i8*, [16 x i8] }>* @alloc936 to %"core::panic::location::Location"*)) #7, !dbg !901
  unreachable, !dbg !901

bb50:                                             ; preds = %bb49
; call structs_tests::bitfields::padded_bitfield::x
  %_131 = call i64 @_ZN13structs_tests9bitfields15padded_bitfield1x17hb81cbb4e8cb7b48fE(%"bitfields::padded_bitfield"* align 1 %bf), !dbg !903
  br label %bb51, !dbg !903

bb51:                                             ; preds = %bb50
  %_130 = xor i64 %_131, 1, !dbg !903
; call structs_tests::bitfields::padded_bitfield::set_x
  call void @_ZN13structs_tests9bitfields15padded_bitfield5set_x17h4fe52807cf128c5cE(%"bitfields::padded_bitfield"* align 1 %bf, i64 %_130), !dbg !904
  br label %bb52, !dbg !904

bb52:                                             ; preds = %bb51
; call structs_tests::bitfields::padded_bitfield::x
  %_137 = call i64 @_ZN13structs_tests9bitfields15padded_bitfield1x17hb81cbb4e8cb7b48fE(%"bitfields::padded_bitfield"* align 1 %bf), !dbg !905
  br label %bb53, !dbg !905

bb53:                                             ; preds = %bb52
  %_140.0 = ashr i64 %_137, 2, !dbg !905
  br label %bb54, !dbg !905

bb54:                                             ; preds = %bb53
; call structs_tests::bitfields::padded_bitfield::set_x
  call void @_ZN13structs_tests9bitfields15padded_bitfield5set_x17h4fe52807cf128c5cE(%"bitfields::padded_bitfield"* align 1 %bf, i64 %_140.0), !dbg !906
  br label %bb55, !dbg !906

bb55:                                             ; preds = %bb54
; call structs_tests::bitfields::padded_bitfield::x
  %_144 = call i64 @_ZN13structs_tests9bitfields15padded_bitfield1x17hb81cbb4e8cb7b48fE(%"bitfields::padded_bitfield"* align 1 %bf), !dbg !907
  br label %bb56, !dbg !907

bb56:                                             ; preds = %bb55
  %_147.0 = shl i64 %_144, 1, !dbg !907
  br label %bb57, !dbg !907

bb57:                                             ; preds = %bb56
; call structs_tests::bitfields::padded_bitfield::set_x
  call void @_ZN13structs_tests9bitfields15padded_bitfield5set_x17h4fe52807cf128c5cE(%"bitfields::padded_bitfield"* align 1 %bf, i64 %_147.0), !dbg !908
  br label %bb58, !dbg !908

bb58:                                             ; preds = %bb57
; call structs_tests::bitfields::padded_bitfield::x
  %_151 = call i64 @_ZN13structs_tests9bitfields15padded_bitfield1x17hb81cbb4e8cb7b48fE(%"bitfields::padded_bitfield"* align 1 %bf), !dbg !909
  br label %bb59, !dbg !909

bb59:                                             ; preds = %bb58
  %_150 = and i64 %_151, 1, !dbg !909
; call structs_tests::bitfields::padded_bitfield::set_x
  call void @_ZN13structs_tests9bitfields15padded_bitfield5set_x17h4fe52807cf128c5cE(%"bitfields::padded_bitfield"* align 1 %bf, i64 %_150), !dbg !910
  br label %bb60, !dbg !910

bb60:                                             ; preds = %bb59
; call structs_tests::bitfields::padded_bitfield::x
  %_157 = call i64 @_ZN13structs_tests9bitfields15padded_bitfield1x17hb81cbb4e8cb7b48fE(%"bitfields::padded_bitfield"* align 1 %bf), !dbg !911
  br label %bb61, !dbg !911

bb61:                                             ; preds = %bb60
  %_156 = or i64 %_157, 2, !dbg !911
; call structs_tests::bitfields::padded_bitfield::set_x
  call void @_ZN13structs_tests9bitfields15padded_bitfield5set_x17h4fe52807cf128c5cE(%"bitfields::padded_bitfield"* align 1 %bf, i64 %_156), !dbg !912
  br label %bb62, !dbg !912

bb62:                                             ; preds = %bb61
  ret void, !dbg !913
}

; Function Attrs: nonlazybind uwtable
define i64 @rust_ops_padded_bitfield_init() unnamed_addr #0 !dbg !914 {
start:
  %_5 = alloca [4 x i8], align 1
  %_4 = alloca [2 x i8], align 1
  %_3 = alloca [1 x i8], align 1
  %_2 = alloca [1 x i8], align 1
  %init = alloca %"bitfields::padded_bitfield", align 1
  %bf = alloca %"bitfields::padded_bitfield", align 1
  call void @llvm.dbg.declare(metadata %"bitfields::padded_bitfield"* %bf, metadata !916, metadata !DIExpression()), !dbg !920
  call void @llvm.dbg.declare(metadata %"bitfields::padded_bitfield"* %init, metadata !918, metadata !DIExpression()), !dbg !921
  %0 = getelementptr inbounds [1 x i8], [1 x i8]* %_2, i64 0, i64 0, !dbg !922
  call void @llvm.memset.p0i8.i64(i8* align 1 %0, i8 0, i64 1, i1 false), !dbg !922
  %1 = getelementptr inbounds [1 x i8], [1 x i8]* %_3, i64 0, i64 0, !dbg !923
  call void @llvm.memset.p0i8.i64(i8* align 1 %1, i8 0, i64 1, i1 false), !dbg !923
  %2 = getelementptr inbounds [2 x i8], [2 x i8]* %_4, i64 0, i64 0, !dbg !924
  call void @llvm.memset.p0i8.i64(i8* align 1 %2, i8 0, i64 2, i1 false), !dbg !924
  %3 = getelementptr inbounds [4 x i8], [4 x i8]* %_5, i64 0, i64 0, !dbg !925
  call void @llvm.memset.p0i8.i64(i8* align 1 %3, i8 0, i64 4, i1 false), !dbg !925
  %4 = bitcast %"bitfields::padded_bitfield"* %init to [1 x i8]*, !dbg !926
  %5 = bitcast [1 x i8]* %4 to i8*, !dbg !926
  %6 = bitcast [1 x i8]* %_2 to i8*, !dbg !926
  call void @llvm.memcpy.p0i8.p0i8.i64(i8* align 1 %5, i8* align 1 %6, i64 1, i1 false), !dbg !926
  %7 = getelementptr inbounds %"bitfields::padded_bitfield", %"bitfields::padded_bitfield"* %init, i32 0, i32 1, !dbg !926
  %8 = bitcast [1 x i8]* %7 to i8*, !dbg !926
  %9 = bitcast [1 x i8]* %_3 to i8*, !dbg !926
  call void @llvm.memcpy.p0i8.p0i8.i64(i8* align 1 %8, i8* align 1 %9, i64 1, i1 false), !dbg !926
  %10 = getelementptr inbounds %"bitfields::padded_bitfield", %"bitfields::padded_bitfield"* %init, i32 0, i32 2, !dbg !926
  %11 = bitcast [2 x i8]* %10 to i8*, !dbg !926
  %12 = bitcast [2 x i8]* %_4 to i8*, !dbg !926
  call void @llvm.memcpy.p0i8.p0i8.i64(i8* align 1 %11, i8* align 1 %12, i64 2, i1 false), !dbg !926
  %13 = getelementptr inbounds %"bitfields::padded_bitfield", %"bitfields::padded_bitfield"* %init, i32 0, i32 3, !dbg !926
  %14 = bitcast [4 x i8]* %13 to i8*, !dbg !926
  %15 = bitcast [4 x i8]* %_5 to i8*, !dbg !926
  call void @llvm.memcpy.p0i8.p0i8.i64(i8* align 1 %14, i8* align 1 %15, i64 4, i1 false), !dbg !926
; call structs_tests::bitfields::padded_bitfield::set_x
  call void @_ZN13structs_tests9bitfields15padded_bitfield5set_x17h4fe52807cf128c5cE(%"bitfields::padded_bitfield"* align 1 %init, i64 13), !dbg !927
  br label %bb1, !dbg !927

bb1:                                              ; preds = %start
; call structs_tests::bitfields::padded_bitfield::set_z
  call void @_ZN13structs_tests9bitfields15padded_bitfield5set_z17h5eed7ba982d7d19fE(%"bitfields::padded_bitfield"* align 1 %init, i64 0), !dbg !928
  br label %bb2, !dbg !928

bb2:                                              ; preds = %bb1
  %16 = bitcast %"bitfields::padded_bitfield"* %bf to i8*, !dbg !929
  %17 = bitcast %"bitfields::padded_bitfield"* %init to i8*, !dbg !929
  call void @llvm.memcpy.p0i8.p0i8.i64(i8* align 1 %16, i8* align 1 %17, i64 8, i1 false), !dbg !929
; call structs_tests::bitfields::padded_bitfield::x
  %_15 = call i64 @_ZN13structs_tests9bitfields15padded_bitfield1x17hb81cbb4e8cb7b48fE(%"bitfields::padded_bitfield"* align 1 %bf), !dbg !930
  br label %bb3, !dbg !930

bb3:                                              ; preds = %bb2
  %_19 = icmp eq i64 %_15, -9223372036854775808, !dbg !930
  %_20 = and i1 false, %_19, !dbg !930
  %18 = call i1 @llvm.expect.i1(i1 %_20, i1 false), !dbg !930
  br i1 %18, label %panic, label %bb4, !dbg !930

bb4:                                              ; preds = %bb3
  %_14 = srem i64 %_15, 2, !dbg !930
; call structs_tests::bitfields::padded_bitfield::set_x
  call void @_ZN13structs_tests9bitfields15padded_bitfield5set_x17h4fe52807cf128c5cE(%"bitfields::padded_bitfield"* align 1 %bf, i64 %_14), !dbg !931
  br label %bb5, !dbg !931

panic:                                            ; preds = %bb3
; call core::panicking::panic
  call void @_ZN4core9panicking5panic17hf5844c0338bd061cE([0 x i8]* align 1 bitcast ([48 x i8]* @str.1 to [0 x i8]*), i64 48, %"core::panic::location::Location"* align 8 bitcast (<{ i8*, [16 x i8] }>* @alloc938 to %"core::panic::location::Location"*)) #7, !dbg !930
  unreachable, !dbg !930

bb5:                                              ; preds = %bb4
; call structs_tests::bitfields::padded_bitfield::x
  %_24 = call i64 @_ZN13structs_tests9bitfields15padded_bitfield1x17hb81cbb4e8cb7b48fE(%"bitfields::padded_bitfield"* align 1 %bf), !dbg !932
  br label %bb6, !dbg !932

bb6:                                              ; preds = %bb5
  %19 = call { i64, i1 } @llvm.sadd.with.overflow.i64(i64 %_24, i64 1), !dbg !932
  %_27.0 = extractvalue { i64, i1 } %19, 0, !dbg !932
  %_27.1 = extractvalue { i64, i1 } %19, 1, !dbg !932
  %20 = call i1 @llvm.expect.i1(i1 %_27.1, i1 false), !dbg !932
  br i1 %20, label %panic1, label %bb7, !dbg !932

bb7:                                              ; preds = %bb6
; call structs_tests::bitfields::padded_bitfield::set_x
  call void @_ZN13structs_tests9bitfields15padded_bitfield5set_x17h4fe52807cf128c5cE(%"bitfields::padded_bitfield"* align 1 %bf, i64 %_27.0), !dbg !933
  br label %bb8, !dbg !933

panic1:                                           ; preds = %bb6
; call core::panicking::panic
  call void @_ZN4core9panicking5panic17hf5844c0338bd061cE([0 x i8]* align 1 bitcast ([28 x i8]* @str.0 to [0 x i8]*), i64 28, %"core::panic::location::Location"* align 8 bitcast (<{ i8*, [16 x i8] }>* @alloc940 to %"core::panic::location::Location"*)) #7, !dbg !932
  unreachable, !dbg !932

bb8:                                              ; preds = %bb7
; call structs_tests::bitfields::padded_bitfield::x
  %_31 = call i64 @_ZN13structs_tests9bitfields15padded_bitfield1x17hb81cbb4e8cb7b48fE(%"bitfields::padded_bitfield"* align 1 %bf), !dbg !934
  br label %bb9, !dbg !934

bb9:                                              ; preds = %bb8
  %21 = call { i64, i1 } @llvm.smul.with.overflow.i64(i64 %_31, i64 2), !dbg !934
  %_34.0 = extractvalue { i64, i1 } %21, 0, !dbg !934
  %_34.1 = extractvalue { i64, i1 } %21, 1, !dbg !934
  %22 = call i1 @llvm.expect.i1(i1 %_34.1, i1 false), !dbg !934
  br i1 %22, label %panic2, label %bb10, !dbg !934

bb10:                                             ; preds = %bb9
; call structs_tests::bitfields::padded_bitfield::set_x
  call void @_ZN13structs_tests9bitfields15padded_bitfield5set_x17h4fe52807cf128c5cE(%"bitfields::padded_bitfield"* align 1 %bf, i64 %_34.0), !dbg !935
  br label %bb11, !dbg !935

panic2:                                           ; preds = %bb9
; call core::panicking::panic
  call void @_ZN4core9panicking5panic17hf5844c0338bd061cE([0 x i8]* align 1 bitcast ([33 x i8]* @str.2 to [0 x i8]*), i64 33, %"core::panic::location::Location"* align 8 bitcast (<{ i8*, [16 x i8] }>* @alloc942 to %"core::panic::location::Location"*)) #7, !dbg !934
  unreachable, !dbg !934

bb11:                                             ; preds = %bb10
; call structs_tests::bitfields::padded_bitfield::x
  %_38 = call i64 @_ZN13structs_tests9bitfields15padded_bitfield1x17hb81cbb4e8cb7b48fE(%"bitfields::padded_bitfield"* align 1 %bf), !dbg !936
  br label %bb12, !dbg !936

bb12:                                             ; preds = %bb11
  %23 = call { i64, i1 } @llvm.ssub.with.overflow.i64(i64 %_38, i64 1), !dbg !936
  %_41.0 = extractvalue { i64, i1 } %23, 0, !dbg !936
  %_41.1 = extractvalue { i64, i1 } %23, 1, !dbg !936
  %24 = call i1 @llvm.expect.i1(i1 %_41.1, i1 false), !dbg !936
  br i1 %24, label %panic3, label %bb13, !dbg !936

bb13:                                             ; preds = %bb12
; call structs_tests::bitfields::padded_bitfield::set_x
  call void @_ZN13structs_tests9bitfields15padded_bitfield5set_x17h4fe52807cf128c5cE(%"bitfields::padded_bitfield"* align 1 %bf, i64 %_41.0), !dbg !937
  br label %bb14, !dbg !937

panic3:                                           ; preds = %bb12
; call core::panicking::panic
  call void @_ZN4core9panicking5panic17hf5844c0338bd061cE([0 x i8]* align 1 bitcast ([33 x i8]* @str.3 to [0 x i8]*), i64 33, %"core::panic::location::Location"* align 8 bitcast (<{ i8*, [16 x i8] }>* @alloc944 to %"core::panic::location::Location"*)) #7, !dbg !936
  unreachable, !dbg !936

bb14:                                             ; preds = %bb13
; call structs_tests::bitfields::padded_bitfield::x
  %_45 = call i64 @_ZN13structs_tests9bitfields15padded_bitfield1x17hb81cbb4e8cb7b48fE(%"bitfields::padded_bitfield"* align 1 %bf), !dbg !938
  br label %bb15, !dbg !938

bb15:                                             ; preds = %bb14
  %_49 = icmp eq i64 %_45, -9223372036854775808, !dbg !938
  %_50 = and i1 false, %_49, !dbg !938
  %25 = call i1 @llvm.expect.i1(i1 %_50, i1 false), !dbg !938
  br i1 %25, label %panic4, label %bb16, !dbg !938

bb16:                                             ; preds = %bb15
  %_44 = sdiv i64 %_45, 2, !dbg !938
; call structs_tests::bitfields::padded_bitfield::set_x
  call void @_ZN13structs_tests9bitfields15padded_bitfield5set_x17h4fe52807cf128c5cE(%"bitfields::padded_bitfield"* align 1 %bf, i64 %_44), !dbg !939
  br label %bb17, !dbg !939

panic4:                                           ; preds = %bb15
; call core::panicking::panic
  call void @_ZN4core9panicking5panic17hf5844c0338bd061cE([0 x i8]* align 1 bitcast ([31 x i8]* @str.4 to [0 x i8]*), i64 31, %"core::panic::location::Location"* align 8 bitcast (<{ i8*, [16 x i8] }>* @alloc946 to %"core::panic::location::Location"*)) #7, !dbg !938
  unreachable, !dbg !938

bb17:                                             ; preds = %bb16
; call structs_tests::bitfields::padded_bitfield::x
  %_54 = call i64 @_ZN13structs_tests9bitfields15padded_bitfield1x17hb81cbb4e8cb7b48fE(%"bitfields::padded_bitfield"* align 1 %bf), !dbg !940
  br label %bb18, !dbg !940

bb18:                                             ; preds = %bb17
  %_53 = xor i64 %_54, 1, !dbg !940
; call structs_tests::bitfields::padded_bitfield::set_x
  call void @_ZN13structs_tests9bitfields15padded_bitfield5set_x17h4fe52807cf128c5cE(%"bitfields::padded_bitfield"* align 1 %bf, i64 %_53), !dbg !941
  br label %bb19, !dbg !941

bb19:                                             ; preds = %bb18
; call structs_tests::bitfields::padded_bitfield::x
  %_60 = call i64 @_ZN13structs_tests9bitfields15padded_bitfield1x17hb81cbb4e8cb7b48fE(%"bitfields::padded_bitfield"* align 1 %bf), !dbg !942
  br label %bb20, !dbg !942

bb20:                                             ; preds = %bb19
  %_63.0 = ashr i64 %_60, 2, !dbg !942
  br label %bb21, !dbg !942

bb21:                                             ; preds = %bb20
; call structs_tests::bitfields::padded_bitfield::set_x
  call void @_ZN13structs_tests9bitfields15padded_bitfield5set_x17h4fe52807cf128c5cE(%"bitfields::padded_bitfield"* align 1 %bf, i64 %_63.0), !dbg !943
  br label %bb22, !dbg !943

bb22:                                             ; preds = %bb21
; call structs_tests::bitfields::padded_bitfield::x
  %_67 = call i64 @_ZN13structs_tests9bitfields15padded_bitfield1x17hb81cbb4e8cb7b48fE(%"bitfields::padded_bitfield"* align 1 %bf), !dbg !944
  br label %bb23, !dbg !944

bb23:                                             ; preds = %bb22
  %_70.0 = shl i64 %_67, 1, !dbg !944
  br label %bb24, !dbg !944

bb24:                                             ; preds = %bb23
; call structs_tests::bitfields::padded_bitfield::set_x
  call void @_ZN13structs_tests9bitfields15padded_bitfield5set_x17h4fe52807cf128c5cE(%"bitfields::padded_bitfield"* align 1 %bf, i64 %_70.0), !dbg !945
  br label %bb25, !dbg !945

bb25:                                             ; preds = %bb24
; call structs_tests::bitfields::padded_bitfield::x
  %_74 = call i64 @_ZN13structs_tests9bitfields15padded_bitfield1x17hb81cbb4e8cb7b48fE(%"bitfields::padded_bitfield"* align 1 %bf), !dbg !946
  br label %bb26, !dbg !946

bb26:                                             ; preds = %bb25
  %_73 = and i64 %_74, 1, !dbg !946
; call structs_tests::bitfields::padded_bitfield::set_x
  call void @_ZN13structs_tests9bitfields15padded_bitfield5set_x17h4fe52807cf128c5cE(%"bitfields::padded_bitfield"* align 1 %bf, i64 %_73), !dbg !947
  br label %bb27, !dbg !947

bb27:                                             ; preds = %bb26
; call structs_tests::bitfields::padded_bitfield::x
  %_80 = call i64 @_ZN13structs_tests9bitfields15padded_bitfield1x17hb81cbb4e8cb7b48fE(%"bitfields::padded_bitfield"* align 1 %bf), !dbg !948
  br label %bb28, !dbg !948

bb28:                                             ; preds = %bb27
  %_79 = or i64 %_80, 2, !dbg !948
; call structs_tests::bitfields::padded_bitfield::set_x
  call void @_ZN13structs_tests9bitfields15padded_bitfield5set_x17h4fe52807cf128c5cE(%"bitfields::padded_bitfield"* align 1 %bf, i64 %_79), !dbg !949
  br label %bb29, !dbg !949

bb29:                                             ; preds = %bb28
; call structs_tests::bitfields::padded_bitfield::x
  %_86 = call i64 @_ZN13structs_tests9bitfields15padded_bitfield1x17hb81cbb4e8cb7b48fE(%"bitfields::padded_bitfield"* align 1 %bf), !dbg !950
  br label %bb30, !dbg !950

bb30:                                             ; preds = %bb29
  %26 = call { i64, i1 } @llvm.sadd.with.overflow.i64(i64 %_86, i64 1), !dbg !950
  %_88.0 = extractvalue { i64, i1 } %26, 0, !dbg !950
  %_88.1 = extractvalue { i64, i1 } %26, 1, !dbg !950
  %27 = call i1 @llvm.expect.i1(i1 %_88.1, i1 false), !dbg !950
  br i1 %27, label %panic5, label %bb31, !dbg !950

bb31:                                             ; preds = %bb30
; call structs_tests::bitfields::padded_bitfield::set_x
  call void @_ZN13structs_tests9bitfields15padded_bitfield5set_x17h4fe52807cf128c5cE(%"bitfields::padded_bitfield"* align 1 %bf, i64 %_88.0), !dbg !951
  br label %bb32, !dbg !951

panic5:                                           ; preds = %bb30
; call core::panicking::panic
  call void @_ZN4core9panicking5panic17hf5844c0338bd061cE([0 x i8]* align 1 bitcast ([28 x i8]* @str.0 to [0 x i8]*), i64 28, %"core::panic::location::Location"* align 8 bitcast (<{ i8*, [16 x i8] }>* @alloc948 to %"core::panic::location::Location"*)) #7, !dbg !950
  unreachable, !dbg !950

bb32:                                             ; preds = %bb31
; call structs_tests::bitfields::padded_bitfield::x
  %_89 = call i64 @_ZN13structs_tests9bitfields15padded_bitfield1x17hb81cbb4e8cb7b48fE(%"bitfields::padded_bitfield"* align 1 %bf), !dbg !952
  br label %bb33, !dbg !952

bb33:                                             ; preds = %bb32
; call structs_tests::bitfields::padded_bitfield::x
  %_94 = call i64 @_ZN13structs_tests9bitfields15padded_bitfield1x17hb81cbb4e8cb7b48fE(%"bitfields::padded_bitfield"* align 1 %bf), !dbg !953
  br label %bb34, !dbg !953

bb34:                                             ; preds = %bb33
  %28 = call { i64, i1 } @llvm.ssub.with.overflow.i64(i64 %_94, i64 1), !dbg !953
  %_96.0 = extractvalue { i64, i1 } %28, 0, !dbg !953
  %_96.1 = extractvalue { i64, i1 } %28, 1, !dbg !953
  %29 = call i1 @llvm.expect.i1(i1 %_96.1, i1 false), !dbg !953
  br i1 %29, label %panic6, label %bb35, !dbg !953

bb35:                                             ; preds = %bb34
; call structs_tests::bitfields::padded_bitfield::set_x
  call void @_ZN13structs_tests9bitfields15padded_bitfield5set_x17h4fe52807cf128c5cE(%"bitfields::padded_bitfield"* align 1 %bf, i64 %_96.0), !dbg !954
  br label %bb36, !dbg !954

panic6:                                           ; preds = %bb34
; call core::panicking::panic
  call void @_ZN4core9panicking5panic17hf5844c0338bd061cE([0 x i8]* align 1 bitcast ([33 x i8]* @str.3 to [0 x i8]*), i64 33, %"core::panic::location::Location"* align 8 bitcast (<{ i8*, [16 x i8] }>* @alloc950 to %"core::panic::location::Location"*)) #7, !dbg !953
  unreachable, !dbg !953

bb36:                                             ; preds = %bb35
; call structs_tests::bitfields::padded_bitfield::x
  %_97 = call i64 @_ZN13structs_tests9bitfields15padded_bitfield1x17hb81cbb4e8cb7b48fE(%"bitfields::padded_bitfield"* align 1 %bf), !dbg !955
  br label %bb37, !dbg !955

bb37:                                             ; preds = %bb36
; call structs_tests::bitfields::padded_bitfield::x
  %_102 = call i64 @_ZN13structs_tests9bitfields15padded_bitfield1x17hb81cbb4e8cb7b48fE(%"bitfields::padded_bitfield"* align 1 %bf), !dbg !956
  br label %bb38, !dbg !956

bb38:                                             ; preds = %bb37
  %_106 = icmp eq i64 %_102, -9223372036854775808, !dbg !956
  %_107 = and i1 false, %_106, !dbg !956
  %30 = call i1 @llvm.expect.i1(i1 %_107, i1 false), !dbg !956
  br i1 %30, label %panic7, label %bb39, !dbg !956

bb39:                                             ; preds = %bb38
  %_101 = srem i64 %_102, 2, !dbg !956
; call structs_tests::bitfields::padded_bitfield::set_x
  call void @_ZN13structs_tests9bitfields15padded_bitfield5set_x17h4fe52807cf128c5cE(%"bitfields::padded_bitfield"* align 1 %bf, i64 %_101), !dbg !957
  br label %bb40, !dbg !957

panic7:                                           ; preds = %bb38
; call core::panicking::panic
  call void @_ZN4core9panicking5panic17hf5844c0338bd061cE([0 x i8]* align 1 bitcast ([48 x i8]* @str.1 to [0 x i8]*), i64 48, %"core::panic::location::Location"* align 8 bitcast (<{ i8*, [16 x i8] }>* @alloc952 to %"core::panic::location::Location"*)) #7, !dbg !956
  unreachable, !dbg !956

bb40:                                             ; preds = %bb39
; call structs_tests::bitfields::padded_bitfield::x
  %_111 = call i64 @_ZN13structs_tests9bitfields15padded_bitfield1x17hb81cbb4e8cb7b48fE(%"bitfields::padded_bitfield"* align 1 %bf), !dbg !958
  br label %bb41, !dbg !958

bb41:                                             ; preds = %bb40
  %31 = call { i64, i1 } @llvm.sadd.with.overflow.i64(i64 %_111, i64 1), !dbg !958
  %_114.0 = extractvalue { i64, i1 } %31, 0, !dbg !958
  %_114.1 = extractvalue { i64, i1 } %31, 1, !dbg !958
  %32 = call i1 @llvm.expect.i1(i1 %_114.1, i1 false), !dbg !958
  br i1 %32, label %panic8, label %bb42, !dbg !958

bb42:                                             ; preds = %bb41
; call structs_tests::bitfields::padded_bitfield::set_x
  call void @_ZN13structs_tests9bitfields15padded_bitfield5set_x17h4fe52807cf128c5cE(%"bitfields::padded_bitfield"* align 1 %bf, i64 %_114.0), !dbg !959
  br label %bb43, !dbg !959

panic8:                                           ; preds = %bb41
; call core::panicking::panic
  call void @_ZN4core9panicking5panic17hf5844c0338bd061cE([0 x i8]* align 1 bitcast ([28 x i8]* @str.0 to [0 x i8]*), i64 28, %"core::panic::location::Location"* align 8 bitcast (<{ i8*, [16 x i8] }>* @alloc954 to %"core::panic::location::Location"*)) #7, !dbg !958
  unreachable, !dbg !958

bb43:                                             ; preds = %bb42
; call structs_tests::bitfields::padded_bitfield::x
  %_118 = call i64 @_ZN13structs_tests9bitfields15padded_bitfield1x17hb81cbb4e8cb7b48fE(%"bitfields::padded_bitfield"* align 1 %bf), !dbg !960
  br label %bb44, !dbg !960

bb44:                                             ; preds = %bb43
  %33 = call { i64, i1 } @llvm.smul.with.overflow.i64(i64 %_118, i64 2), !dbg !960
  %_121.0 = extractvalue { i64, i1 } %33, 0, !dbg !960
  %_121.1 = extractvalue { i64, i1 } %33, 1, !dbg !960
  %34 = call i1 @llvm.expect.i1(i1 %_121.1, i1 false), !dbg !960
  br i1 %34, label %panic9, label %bb45, !dbg !960

bb45:                                             ; preds = %bb44
; call structs_tests::bitfields::padded_bitfield::set_x
  call void @_ZN13structs_tests9bitfields15padded_bitfield5set_x17h4fe52807cf128c5cE(%"bitfields::padded_bitfield"* align 1 %bf, i64 %_121.0), !dbg !961
  br label %bb46, !dbg !961

panic9:                                           ; preds = %bb44
; call core::panicking::panic
  call void @_ZN4core9panicking5panic17hf5844c0338bd061cE([0 x i8]* align 1 bitcast ([33 x i8]* @str.2 to [0 x i8]*), i64 33, %"core::panic::location::Location"* align 8 bitcast (<{ i8*, [16 x i8] }>* @alloc956 to %"core::panic::location::Location"*)) #7, !dbg !960
  unreachable, !dbg !960

bb46:                                             ; preds = %bb45
; call structs_tests::bitfields::padded_bitfield::x
  %_125 = call i64 @_ZN13structs_tests9bitfields15padded_bitfield1x17hb81cbb4e8cb7b48fE(%"bitfields::padded_bitfield"* align 1 %bf), !dbg !962
  br label %bb47, !dbg !962

bb47:                                             ; preds = %bb46
  %35 = call { i64, i1 } @llvm.ssub.with.overflow.i64(i64 %_125, i64 1), !dbg !962
  %_128.0 = extractvalue { i64, i1 } %35, 0, !dbg !962
  %_128.1 = extractvalue { i64, i1 } %35, 1, !dbg !962
  %36 = call i1 @llvm.expect.i1(i1 %_128.1, i1 false), !dbg !962
  br i1 %36, label %panic10, label %bb48, !dbg !962

bb48:                                             ; preds = %bb47
; call structs_tests::bitfields::padded_bitfield::set_x
  call void @_ZN13structs_tests9bitfields15padded_bitfield5set_x17h4fe52807cf128c5cE(%"bitfields::padded_bitfield"* align 1 %bf, i64 %_128.0), !dbg !963
  br label %bb49, !dbg !963

panic10:                                          ; preds = %bb47
; call core::panicking::panic
  call void @_ZN4core9panicking5panic17hf5844c0338bd061cE([0 x i8]* align 1 bitcast ([33 x i8]* @str.3 to [0 x i8]*), i64 33, %"core::panic::location::Location"* align 8 bitcast (<{ i8*, [16 x i8] }>* @alloc958 to %"core::panic::location::Location"*)) #7, !dbg !962
  unreachable, !dbg !962

bb49:                                             ; preds = %bb48
; call structs_tests::bitfields::padded_bitfield::x
  %_132 = call i64 @_ZN13structs_tests9bitfields15padded_bitfield1x17hb81cbb4e8cb7b48fE(%"bitfields::padded_bitfield"* align 1 %bf), !dbg !964
  br label %bb50, !dbg !964

bb50:                                             ; preds = %bb49
  %_136 = icmp eq i64 %_132, -9223372036854775808, !dbg !964
  %_137 = and i1 false, %_136, !dbg !964
  %37 = call i1 @llvm.expect.i1(i1 %_137, i1 false), !dbg !964
  br i1 %37, label %panic11, label %bb51, !dbg !964

bb51:                                             ; preds = %bb50
  %_131 = sdiv i64 %_132, 2, !dbg !964
; call structs_tests::bitfields::padded_bitfield::set_x
  call void @_ZN13structs_tests9bitfields15padded_bitfield5set_x17h4fe52807cf128c5cE(%"bitfields::padded_bitfield"* align 1 %bf, i64 %_131), !dbg !965
  br label %bb52, !dbg !965

panic11:                                          ; preds = %bb50
; call core::panicking::panic
  call void @_ZN4core9panicking5panic17hf5844c0338bd061cE([0 x i8]* align 1 bitcast ([31 x i8]* @str.4 to [0 x i8]*), i64 31, %"core::panic::location::Location"* align 8 bitcast (<{ i8*, [16 x i8] }>* @alloc960 to %"core::panic::location::Location"*)) #7, !dbg !964
  unreachable, !dbg !964

bb52:                                             ; preds = %bb51
; call structs_tests::bitfields::padded_bitfield::x
  %_141 = call i64 @_ZN13structs_tests9bitfields15padded_bitfield1x17hb81cbb4e8cb7b48fE(%"bitfields::padded_bitfield"* align 1 %bf), !dbg !966
  br label %bb53, !dbg !966

bb53:                                             ; preds = %bb52
  %_140 = xor i64 %_141, 1, !dbg !966
; call structs_tests::bitfields::padded_bitfield::set_x
  call void @_ZN13structs_tests9bitfields15padded_bitfield5set_x17h4fe52807cf128c5cE(%"bitfields::padded_bitfield"* align 1 %bf, i64 %_140), !dbg !967
  br label %bb54, !dbg !967

bb54:                                             ; preds = %bb53
; call structs_tests::bitfields::padded_bitfield::x
  %_147 = call i64 @_ZN13structs_tests9bitfields15padded_bitfield1x17hb81cbb4e8cb7b48fE(%"bitfields::padded_bitfield"* align 1 %bf), !dbg !968
  br label %bb55, !dbg !968

bb55:                                             ; preds = %bb54
  %_150.0 = ashr i64 %_147, 2, !dbg !968
  br label %bb56, !dbg !968

bb56:                                             ; preds = %bb55
; call structs_tests::bitfields::padded_bitfield::set_x
  call void @_ZN13structs_tests9bitfields15padded_bitfield5set_x17h4fe52807cf128c5cE(%"bitfields::padded_bitfield"* align 1 %bf, i64 %_150.0), !dbg !969
  br label %bb57, !dbg !969

bb57:                                             ; preds = %bb56
; call structs_tests::bitfields::padded_bitfield::x
  %_154 = call i64 @_ZN13structs_tests9bitfields15padded_bitfield1x17hb81cbb4e8cb7b48fE(%"bitfields::padded_bitfield"* align 1 %bf), !dbg !970
  br label %bb58, !dbg !970

bb58:                                             ; preds = %bb57
  %_157.0 = shl i64 %_154, 1, !dbg !970
  br label %bb59, !dbg !970

bb59:                                             ; preds = %bb58
; call structs_tests::bitfields::padded_bitfield::set_x
  call void @_ZN13structs_tests9bitfields15padded_bitfield5set_x17h4fe52807cf128c5cE(%"bitfields::padded_bitfield"* align 1 %bf, i64 %_157.0), !dbg !971
  br label %bb60, !dbg !971

bb60:                                             ; preds = %bb59
; call structs_tests::bitfields::padded_bitfield::x
  %_161 = call i64 @_ZN13structs_tests9bitfields15padded_bitfield1x17hb81cbb4e8cb7b48fE(%"bitfields::padded_bitfield"* align 1 %bf), !dbg !972
  br label %bb61, !dbg !972

bb61:                                             ; preds = %bb60
  %_160 = and i64 %_161, 1, !dbg !972
; call structs_tests::bitfields::padded_bitfield::set_x
  call void @_ZN13structs_tests9bitfields15padded_bitfield5set_x17h4fe52807cf128c5cE(%"bitfields::padded_bitfield"* align 1 %bf, i64 %_160), !dbg !973
  br label %bb62, !dbg !973

bb62:                                             ; preds = %bb61
; call structs_tests::bitfields::padded_bitfield::x
  %_167 = call i64 @_ZN13structs_tests9bitfields15padded_bitfield1x17hb81cbb4e8cb7b48fE(%"bitfields::padded_bitfield"* align 1 %bf), !dbg !974
  br label %bb63, !dbg !974

bb63:                                             ; preds = %bb62
  %_166 = or i64 %_167, 2, !dbg !974
; call structs_tests::bitfields::padded_bitfield::set_x
  call void @_ZN13structs_tests9bitfields15padded_bitfield5set_x17h4fe52807cf128c5cE(%"bitfields::padded_bitfield"* align 1 %bf, i64 %_166), !dbg !975
  br label %bb64, !dbg !975

bb64:                                             ; preds = %bb63
  %38 = bitcast %"bitfields::padded_bitfield"* %bf to i64*, !dbg !976
  %39 = load i64, i64* %38, align 1, !dbg !976
  ret i64 %39, !dbg !976
}

; Function Attrs: nonlazybind uwtable
define i64 @rust_size_of_mixed_bitfields() unnamed_addr #0 !dbg !977 {
start:
  br label %bb1, !dbg !978

bb1:                                              ; preds = %start
  ret i64 16, !dbg !979
}

; Function Attrs: nonlazybind uwtable
define double* @rust_init_bitfield_array(%"bitfields::mixed_bitfields"* %bfs, i64 %size) unnamed_addr #0 !dbg !980 {
start:
  %0 = alloca %"bitfields::mixed_bitfields"*, align 8
  %count.dbg.spill.i7 = alloca i64, align 8
  %self.dbg.spill.i8 = alloca %"bitfields::mixed_bitfields"*, align 8
  %1 = alloca %"bitfields::mixed_bitfields"*, align 8
  %count.dbg.spill.i4 = alloca i64, align 8
  %self.dbg.spill.i5 = alloca %"bitfields::mixed_bitfields"*, align 8
  %2 = alloca %"bitfields::mixed_bitfields"*, align 8
  %count.dbg.spill.i = alloca i64, align 8
  %self.dbg.spill.i3 = alloca %"bitfields::mixed_bitfields"*, align 8
  %rhs.dbg.spill.i1 = alloca i64, align 8
  %self.dbg.spill.i2 = alloca i64, align 8
  %rhs.dbg.spill.i = alloca i64, align 8
  %self.dbg.spill.i = alloca i64, align 8
  %fresh0.dbg.spill = alloca %"bitfields::mixed_bitfields"*, align 8
  %size.dbg.spill = alloca i64, align 8
  %bfs.dbg.spill = alloca %"bitfields::mixed_bitfields"*, align 8
  %i = alloca i64, align 8
  store %"bitfields::mixed_bitfields"* %bfs, %"bitfields::mixed_bitfields"** %bfs.dbg.spill, align 8
  call void @llvm.dbg.declare(metadata %"bitfields::mixed_bitfields"** %bfs.dbg.spill, metadata !995, metadata !DIExpression()), !dbg !1002
  store i64 %size, i64* %size.dbg.spill, align 8
  call void @llvm.dbg.declare(metadata i64* %size.dbg.spill, metadata !996, metadata !DIExpression()), !dbg !1003
  call void @llvm.dbg.declare(metadata i64* %i, metadata !997, metadata !DIExpression()), !dbg !1004
  store i64 0, i64* %i, align 8, !dbg !1005
  br label %bb1, !dbg !1006

bb1:                                              ; preds = %bb6, %start
  %_5 = load i64, i64* %i, align 8, !dbg !1007
  %_4 = icmp ult i64 %_5, %size, !dbg !1007
  br i1 %_4, label %bb2, label %bb7, !dbg !1007

bb7:                                              ; preds = %bb1
  store i64 %size, i64* %self.dbg.spill.i2, align 8
  call void @llvm.dbg.declare(metadata i64* %self.dbg.spill.i2, metadata !1008, metadata !DIExpression()), !dbg !1017
  store i64 1, i64* %rhs.dbg.spill.i1, align 8
  call void @llvm.dbg.declare(metadata i64* %rhs.dbg.spill.i1, metadata !1016, metadata !DIExpression()), !dbg !1019
  %3 = sub i64 %size, 1, !dbg !1020
  br label %bb8, !dbg !1021

bb2:                                              ; preds = %bb1
  %_11 = load i64, i64* %i, align 8, !dbg !1022
  store %"bitfields::mixed_bitfields"* %bfs, %"bitfields::mixed_bitfields"** %self.dbg.spill.i8, align 8
  call void @llvm.dbg.declare(metadata %"bitfields::mixed_bitfields"** %self.dbg.spill.i8, metadata !1023, metadata !DIExpression()), !dbg !1031
  store i64 %_11, i64* %count.dbg.spill.i7, align 8
  call void @llvm.dbg.declare(metadata i64* %count.dbg.spill.i7, metadata !1028, metadata !DIExpression()), !dbg !1033
  %4 = getelementptr inbounds %"bitfields::mixed_bitfields", %"bitfields::mixed_bitfields"* %bfs, i64 %_11, !dbg !1034
  store %"bitfields::mixed_bitfields"* %4, %"bitfields::mixed_bitfields"** %0, align 8, !dbg !1034
  %_3.i9 = load %"bitfields::mixed_bitfields"*, %"bitfields::mixed_bitfields"** %0, align 8, !dbg !1034
  br label %bb3, !dbg !1035

bb3:                                              ; preds = %bb2
  store %"bitfields::mixed_bitfields"* %_3.i9, %"bitfields::mixed_bitfields"** %fresh0.dbg.spill, align 8, !dbg !1036
  call void @llvm.dbg.declare(metadata %"bitfields::mixed_bitfields"** %fresh0.dbg.spill, metadata !999, metadata !DIExpression()), !dbg !1037
  %_14 = load i64, i64* %i, align 8, !dbg !1038
; call structs_tests::bitfields::mixed_bitfields::set_x
  call void @_ZN13structs_tests9bitfields15mixed_bitfields5set_x17ha1dd00bbb8643ce1E(%"bitfields::mixed_bitfields"* align 8 %_3.i9, i64 %_14), !dbg !1039
  br label %bb4, !dbg !1039

bb4:                                              ; preds = %bb3
  %_16 = load i64, i64* %i, align 8, !dbg !1040
  %_15 = uitofp i64 %_16 to double, !dbg !1040
  %_20 = load i64, i64* %i, align 8, !dbg !1041
  store %"bitfields::mixed_bitfields"* %bfs, %"bitfields::mixed_bitfields"** %self.dbg.spill.i5, align 8
  call void @llvm.dbg.declare(metadata %"bitfields::mixed_bitfields"** %self.dbg.spill.i5, metadata !1023, metadata !DIExpression()), !dbg !1042
  store i64 %_20, i64* %count.dbg.spill.i4, align 8
  call void @llvm.dbg.declare(metadata i64* %count.dbg.spill.i4, metadata !1028, metadata !DIExpression()), !dbg !1044
  %5 = getelementptr inbounds %"bitfields::mixed_bitfields", %"bitfields::mixed_bitfields"* %bfs, i64 %_20, !dbg !1045
  store %"bitfields::mixed_bitfields"* %5, %"bitfields::mixed_bitfields"** %1, align 8, !dbg !1045
