; ModuleID = 'unicode_ident.b0a01f0e-cgu.0'
source_filename = "unicode_ident.b0a01f0e-cgu.0"
target datalayout = "e-m:e-p270:32:32-p271:32:32-p272:64:64-i64:64-f80:128-n8:16:32:64-S128"
target triple = "x86_64-unknown-linux-gnu"

%"tables::Align64<[bool; 128]>" = type { [128 x i8] }
%"core::panic::location::Location" = type { { [0 x i8]*, i64 }, i32, i32 }

@alloc38 = private unnamed_addr constant <{ [92 x i8] }> <{ [92 x i8] c"/home/calvin/.cargo/registry/src/github.com-1ecc6299db9ec823/unicode-ident-1.0.18/src/lib.rs" }>, align 1
@alloc33 = private unnamed_addr constant <{ i8*, [16 x i8] }> <{ i8* getelementptr inbounds (<{ [92 x i8] }>, <{ [92 x i8] }>* @alloc38, i32 0, i32 0, i32 0), [16 x i8] c"\\\00\00\00\00\00\00\00\00\01\00\00\10\00\00\00" }>, align 8
@alloc30 = private unnamed_addr constant <{ [1 x i8] }> zeroinitializer, align 1
@alloc35 = private unnamed_addr constant <{ i8*, [16 x i8] }> <{ i8* getelementptr inbounds (<{ [92 x i8] }>, <{ [92 x i8] }>* @alloc38, i32 0, i32 0, i32 0), [16 x i8] c"\\\00\00\00\00\00\00\00\03\01\00\00\12\00\00\00" }>, align 8
@str.0 = internal constant [33 x i8] c"attempt to multiply with overflow"
@str.1 = internal constant [28 x i8] c"attempt to add with overflow"
@alloc37 = private unnamed_addr constant <{ i8*, [16 x i8] }> <{ i8* getelementptr inbounds (<{ [92 x i8] }>, <{ [92 x i8] }>* @alloc38, i32 0, i32 0, i32 0), [16 x i8] c"\\\00\00\00\00\00\00\00\0A\01\00\00\10\00\00\00" }>, align 8
@alloc39 = private unnamed_addr constant <{ i8*, [16 x i8] }> <{ i8* getelementptr inbounds (<{ [92 x i8] }>, <{ [92 x i8] }>* @alloc38, i32 0, i32 0, i32 0), [16 x i8] c"\\\00\00\00\00\00\00\00\0D\01\00\00\12\00\00\00" }>, align 8
@_ZN13unicode_ident6tables11ASCII_START17hfc0fe11ca7923adcE = internal constant <{ [128 x i8] }> <{ [128 x i8] c"\00\00\00\00\00\00\00\00\00\00\00\00\00\00\00\00\00\00\00\00\00\00\00\00\00\00\00\00\00\00\00\00\00\00\00\00\00\00\00\00\00\00\00\00\00\00\00\00\00\00\00\00\00\00\00\00\00\00\00\00\00\00\00\00\00\01\01\01\01\01\01\01\01\01\01\01\01\01\01\01\01\01\01\01\01\01\01\01\01\01\01\00\00\00\00\00\00\01\01\01\01\01\01\01\01\01\01\01\01\01\01\01\01\01\01\01\01\01\01\01\01\01\01\00\00\00\00\00" }>, align 64, !dbg !0
@_ZN13unicode_ident6tables14ASCII_CONTINUE17he78b3f1f79437491E = internal constant <{ [128 x i8] }> <{ [128 x i8] c"\00\00\00\00\00\00\00\00\00\00\00\00\00\00\00\00\00\00\00\00\00\00\00\00\00\00\00\00\00\00\00\00\00\00\00\00\00\00\00\00\00\00\00\00\00\00\00\00\01\01\01\01\01\01\01\01\01\01\00\00\00\00\00\00\00\01\01\01\01\01\01\01\01\01\01\01\01\01\01\01\01\01\01\01\01\01\01\01\01\01\01\00\00\00\00\01\00\01\01\01\01\01\01\01\01\01\01\01\01\01\01\01\01\01\01\01\01\01\01\01\01\01\01\00\00\00\00\00" }>, align 64, !dbg !15
@_ZN13unicode_ident6tables10TRIE_START17h6d78c345c34d45d5E = internal constant <{ [402 x i8], [6 x i8] }> <{ [402 x i8] c"\04\0B\0F\13\17\1B\1F#'-148<@\02E\00\00\00\00\00I\00M\00\05\05\05\05\05\05\05\05\05\05\05\05\06\05\05\05\05\05\05\05\05\05\05\05\05\05\05\05\05\05\05\05\05\05\05\05\05\05\05\05\05\05\05\05\05\05\05\05\05\05\05\05\05\05\05\05QTX\\\05\05\05\05\05\05\05\05\05\05\05\05\05\05\05\05\05\05\05\05\05\09\00\00\00\00\00\00\00\00\00\00\00\00\00\00\00\00\01`dfjnr(vx|\80\84\88\8C\90\94\98\9C\A0\05+\A4\00\00\00\00\A6\05\05\A8\05\05\05\05\05\052\05\AE\00\00\00\00\00\00\00\00\00\00\00\00\AF\00\00\00\05\B3\B7\BB\05\05\05\05\05\05\05\05\05\05\05C\05\05\BF\00\00\00\00\00\00\00\00\00\00\00\00\00\00\00\00\C1R\C3\00\00\00\00\C6\00\00\00\00\00\00\00\00\00\00\00\D2\D4\00\00\00\CA\DB\DF\E3\CD\E7\00\00\EB\00\00\00\00\00\00\00\00\05\05\05\05\05\05\05\05\05\05\05\05\05\05\05\05\05\05\05\05\05\05\05\05\05\05\05\05\05\05\05\05\05\05\05\05\05\05\05\05\05\05\05\05\05\05\05\05\05\05\05\05\05\05\05\05\05\05\05\05\05\05\05\05\05\05\05\05\05\05\05\05\05\05\05\05\05\05\05\05\05\05\05\ED\05\05\05\05\05\05\05\A9\F0\05\05\05\05\05\05\05\05\05\05\F3\05\05\05\05\05\05\05\05\05\05\05\05\05\AC\05\F5\00\00\00\00\05\B0\00\00\05\05\05\05\05\05\05\05\05\EE\05\05\05\05\05\05\05\F1", [6 x i8] undef }>, align 8, !dbg !17
@_ZN13unicode_ident6tables13TRIE_CONTINUE17h7681533a737d62c9E = internal constant <{ [1793 x i8], [7 x i8] }> <{ [1793 x i8] c"\08\0D\11\15\19\1D!%*/16:>B\02G\00\00\00\00\00K\00O\00\05\05\05\05\05\05\05\05\05\05\05\05\06\05\05\05\05\05\05\05\05\05\05\05\05\05\05\05\05\05\05\05\05\05\05\05\05\05\05\05\05\05\05\05\05\05\05\05\05\05\05\05\05\05\05\05QVZ^\05\05\05\05\05\05\05\05\05\05\05\05\05\05\05\05\05\05\05\05\05\09\00\00\00\00\00\00\00\00\00\00\00\00\00\00\00\00\01bdhlpt(vz~\82\86\8A\8E\92\96\9A\9E\A2\05+\A4\00\00\00\00\A6\05\05\AB\05\05\05\05\05\052\05\AE\00\00\00\00\00\00\00\00\00\00\00\00\B1\00\00\00\05\B5\B9\BD\05\05\05\05\05\05\05\05\05\05\05C\05\05\BF\00\00\00\00\00\00\00\00\00\00\00\00\00\00\00\00\C1R\C3\00\00\00\00\C9\00\00\00\00\00\00\00\CC\C4\C7\CF\D2\D6\00\D8\00\CA\DD\E1\E5\CD\E9\00\00\EB\00\00\00\00\00\D0\00\00\05\05\05\05\05\05\05\05\05\05\05\05\05\05\05\05\05\05\05\05\05\05\05\05\05\05\05\05\05\05\05\05\05\05\05\05\05\05\05\05\05\05\05\05\05\05\05\05\05\05\05\05\05\05\05\05\05\05\05\05\05\05\05\05\05\05\05\05\05\05\05\05\05\05\05\05\05\05\05\05\05\05\05\ED\05\05\05\05\05\05\05\A9\F0\05\05\05\05\05\05\05\05\05\05\F3\05\05\05\05\05\05\05\05\05\05\05\05\05\AC\05\F5\00\00\00\00\05\B0\00\00\05\05\05\05\05\05\05\05\05\EE\05\05\05\05\05\05\05\F1\00\00\00\00\00\00\00\00\00\00\00\00\00\00\00\00\00\00\00\00\00\00\00\00\00\00\00\00\00\00\00\00\00\00\00\00\00\00\00\00\00\00\00\00\00\00\00\00\00\00\00\00\00\00\00\00\00\00\00\00\00\00\00\00\00\00\00\00\00\00\00\00\00\00\00\00\00\00\00\00\00\00\00\00\00\00\00\00\00\00\00\00\00\00\00\00\00\00\00\00\00\00\00\00\00\00\00\00\00\00\00\00\00\00\00\00\00\00\00\00\00\00\00\00\00\00\00\00\00\00\00\00\00\00\00\00\00\00\00\00\00\00\00\00\00\00\00\00\00\00\00\00\00\00\00\00\00\00\00\00\00\00\00\00\00\00\00\00\00\00\00\00\00\00\00\00\00\00\00\00\00\00\00\00\00\00\00\00\00\00\00\00\00\00\00\00\00\00\00\00\00\00\00\00\00\00\00\00\00\00\00\00\00\00\00\00\00\00\00\00\00\00\00\00\00\00\00\00\00\00\00\00\00\00\00\00\00\00\00\00\00\00\00\00\00\00\00\00\00\00\00\00\00\00\00\00\00\00\00\00\00\00\00\00\00\00\00\00\00\00\00\00\00\00\00\00\00\00\00\00\00\00\00\00\00\00\00\00\00\00\00\00\00\00\00\00\00\00\00\00\00\00\00\00\00\00\00\00\00\00\00\00\00\00\00\00\00\00\00\00\00\00\00\00\00\00\00\00\00\00\00\00\00\00\00\00\00\00\00\00\00\00\00\00\00\00\00\00\00\00\00\00\00\00\00\00\00\00\00\00\00\00\00\00\00\00\00\00\00\00\00\00\00\00\00\00\00\00\00\00\00\00\00\00\00\00\00\00\00\00\00\00\00\00\00\00\00\00\00\00\00\00\00\00\00\00\00\00\00\00\00\00\00\00\00\00\00\00\00\00\00\00\00\00\00\00\00\00\00\00\00\00\00\00\00\00\00\00\00\00\00\00\00\00\00\00\00\00\00\00\00\00\00\00\00\00\00\00\00\00\00\00\00\00\00\00\00\00\00\00\00\00\00\00\00\00\00\00\00\00\00\00\00\00\00\00\00\00\00\00\00\00\00\00\00\00\00\00\00\00\00\00\00\00\00\00\00\00\00\00\00\00\00\00\00\00\00\00\00\00\00\00\00\00\00\00\00\00\00\00\00\00\00\00\00\00\00\00\00\00\00\00\00\00\00\00\00\00\00\00\00\00\00\00\00\00\00\00\00\00\00\00\00\00\00\00\00\00\00\00\00\00\00\00\00\00\00\00\00\00\00\00\00\00\00\00\00\00\00\00\00\00\00\00\00\00\00\00\00\00\00\00\00\00\00\00\00\00\00\00\00\00\00\00\00\00\00\00\00\00\00\00\00\00\00\00\00\00\00\00\00\00\00\00\00\00\00\00\00\00\00\00\00\00\00\00\00\00\00\00\00\00\00\00\00\00\00\00\00\00\00\00\00\00\00\00\00\00\00\00\00\00\00\00\00\00\00\00\00\00\00\00\00\00\00\00\00\00\00\00\00\00\00\00\00\00\00\00\00\00\00\00\00\00\00\00\00\00\00\00\00\00\00\00\00\00\00\00\00\00\00\00\00\00\00\00\00\00\00\00\00\00\00\00\00\00\00\00\00\00\00\00\00\00\00\00\00\00\00\00\00\00\00\00\00\00\00\00\00\00\00\00\00\00\00\00\00\00\00\00\00\00\00\00\00\00\00\00\00\00\00\00\00\00\00\00\00\00\00\00\00\00\00\00\00\00\00\00\00\00\00\00\00\00\00\00\00\00\00\00\00\00\00\00\00\00\00\00\00\00\00\00\00\00\00\00\00\00\00\00\00\00\00\00\00\00\00\00\00\00\00\00\00\00\00\00\00\00\00\00\00\00\00\00\00\00\00\00\00\00\00\00\00\00\00\00\00\00\00\00\00\00\00\00\00\00\00\00\00\00\00\00\00\00\00\00\00\00\00\00\00\00\00\00\00\00\00\00\00\00\00\00\00\00\00\00\00\00\00\00\00\00\00\00\00\00\00\00\00\00\00\00\00\00\00\00\00\00\00\00\00\00\00\00\00\00\00\00\00\00\00\00\00\00\00\00\00\00\00\00\00\00\00\00\00\00\00\00\00\00\00\00\00\00\00\00\00\00\00\00\00\00\00\00\00\00\00\00\00\00\00\00\00\00\00\00\00\00\00\00\00\00\00\00\00\00\00\00\00\00\00\00\00\00\00\00\00\00\00\00\00\00\00\00\00\00\00\00\00\00\00\00\00\00\00\00\00\00\00\00\00\00\00\00\00\00\00\00\00\00\00\00\00\00\00\00\00\00\00\00\00\00\00\00\00\00\00\00\00\00\00\00\00\00\00\00\00\00\00\00\00\00\00\00\00\00\00\00\00\00\00\00\00\00\00\00\00\00\00\00\00\00\00\00\00\00\00\00\00\00\00\00\00\00\00\00\00\00\00\00\00\00\00\00\00\00\00\00\00\00\00\00\00\00\00\00\00\00\00\00\00\00\00\00\00\00\00\00\00\00\00\00\00\00\00\00\00\00\00\00\00\00\00\00\00\00\00\00\00\00\00\00\00\00\00\00\00\00\00\00\00\00\00\00\00\00\00\00\00\00\00\00\00\00\00\00\00\00\00\00\00\00\00\00\00\00\00\00\00\00\00\00\00\00\00\00\00\00\00\00\00\00\00\00\00\00\00\00\00\00\00\00\00\00\00\00\00\00\00\00\00\00\00\00\00\00\00\00\00\00\00\00\00\00\00\00\00\00\00\00\00\00\00\00\00\00\00\00\00\00\00\00\00\00\00\00\00\00\00\00\00\00\00\00\00\00\00\00\00\00\00\00\00\00\00\00\00\00\00\00\00\00\00\00\00\00\00\00\00\00\00\00\00\00\00\00\00\00\00\00\00\00\00\00\00\00\00\00\00\00\00\00\00\00\00\00\00\00\00\00\00\00\00\00\00\00\00\00\00\00\00\00\00\00\00\00\00\00\00\00\00\00\00\00\00\00\00\00\00\00\00\00\00\00\00\00\00\00\00\00\00\00\00\00\00\00\00\00\00\00\00\00\00\00\00\00\00\00\00\00\D9", [7 x i8] undef }>, align 8, !dbg !28
@_ZN13unicode_ident6tables4LEAF17hee431b6d117aa602E = internal constant <{ [7904 x i8], [32 x i8] }> <{ [7904 x i8] c"\00\00\00\00\00\00\00\00\00\00\00\00\00\00\00\00\00\00\00\00\00\00\00\00\00\00\00\00\00\00\00\00\00\00\00\00\00\00\00\00\00\00\00\00\00\00\00\00\00\00\00\00\00\00\00\00\00\00\00\00\00\00\00\00\FF\FF\FF\FF\FF\FF\FF\FF\FF\FF\FF\FF\FF\FF\FF\FF\FF\FF\FF\FF\FF\FF\FF\FF\FF\FF\FF\FF\FF\FF\FF\FF\FF\FF??\FF\FF\FF\FF??\FF\AA\FF\FF\FF?\FF\FF\FF\FF\FF\FF\DF_\DC\1F\CF\0F\FF\1F\DC\1F\00\00\00\00\00\00\00\00\00\00\00\00\00\00\00\00\00\00\00\00\00\04 \04\FF\FF\7F\FF\FF\FF\7F\FF\FF\FF\FF\FF\FF\FF\FF\FF\FF\FF\FF\FF\FF\FF\FF\FF\FF\FF\FF\FF\FF\FF\FF\FF\FF\FF\FF\FF\FF\FF\FF\FF\FF\FF\FF\FF\FF\FF\FF\FF\FF\FF\FF\FF\FF\FF\FF\FF\FF\FF\FF\FF\FF\FF\FF\FF\FF\FF\FF\FF\FF\FF\FF\FF\FF\FF\FF\FF\FF\FF\FF\FF\FF\FF\FF\FF\FF\FF\FF\FF\FF\FF\FF\FF\FF\FF\FF\FF\00\00\00\00\00\00\00\00\00\00\00\00\00\00\00\00\00\00\00\00\00\00\00\00\00\00\00\00\00\04\A0\04\FF\FF\7F\FF\FF\FF\7F\FF\FF\FF\FF\FF\FF\FF\FF\FF\FF\FF\FF\FF\FF\FF\FF\FF\FF\FF\FF\FF\FF\FF\FF\FF\FF\FF\FF\FF\FF\FF\FF\FF\FF\FF\FF\FF\FF\FF\FF\FF\FF\FF\FF\FF\FF\FF\FF\FF\FF\FF\FF\FF\0F\00\FF\FF\7F\F8\FF\FF\FF\FF\FF\0F\FF\FF\FF\FF\FF\FF\FF\FF\FF\FF\FF\FF\FF\FF\FF\FF\FF\FF\FF\FF\FF\FF\FF\FF\C3\FF\03\00\1FP\00\00\00\00\00\00\00\00\00\00\00\00\00\00\00\00\DF\B8@\D7\FF\FF\FB\FF\FF\FF\FF\FF\FF\FF\FF\FF\BF\FF\FF\FF\FF\FF\FF\FF\FF\FF\FF\FF\FF\FF\FF\FF\FF\FF\FF\FF\FF\FF\FF\FF\FF\FF\C3\FF\03\00\1FP\00\00\FF\FF\FF\FF\FF\FF\FF\FF\FF\FF\FF\FF\FF\FF\DF\B8\C0\D7\FF\FF\FB\FF\FF\FF\FF\FF\FF\FF\FF\FF\BF\FF\FF\FF\FF\FF\FF\FF\FF\FF\FF\FF\FF\FF\FF\FF\FF\FF\03\FC\FF\FF\FF\FF\FF\FF\FF\FF\FF\FF\FF\FF\FF\FF\FF\FF\FF\FF\FF\FF\FE\FF\FF\FF\7F\02\FF\FF\FF\FF\FF\01\00\00\00\00\00\00\00\00\FF\FF\FF\87\07\00\FF\FF\FF\FF\FF\FF\FF\FF\FF\FF\FF\FF\FF\FF\FF\FF\FB\FC\FF\FF\FF\FF\FF\FF\FF\FF\FF\FF\FF\FF\FF\FF\FF\FF\FF\FF\FF\FF\FE\FF\FF\FF\7F\02\FF\FF\FF\FF\FF\01\FE\FF\FF\FF\FF\BF\B6\00\FF\FF\FF\87\07\00\00\00\00\00\FF\FF\FF\FF\FF\07\00\00\00\C0\FE\FF\FF\FF\FF\FF\FF\FF\FF\FF\FF\FF/\00`\C0\00\9C\00\00\FD\FF\FF\FF\00\00\00\E0\FF\FF\FF\FF\FF\FF\FF\FF\FF\FF?\00\02\00\00\FC\FF\FF\FF\070\04\00\00\FF\07\FF\FF\FF\FF\FF\FF\FF\FF\FF\C3\FF\FF\FF\FF\FF\FF\FF\FF\FF\FF\FF\FF\EF\9F\FF\FD\FF\9F\00\00\FF\FF\FF\FF\FF\FF\FF\E7\FF\FF\FF\FF\FF\FF\FF\FF\FF\FF\FF\FF\03\00\FF\FF\FF\FF\FF\FF?$\FF\FF?\04\10\01\00\00\FF\FF\FF\01\FF\07\FF\FF\FF~\00\00\FF\FF\FF\FF\FF\03\00\00\00\00\00\00\F0\FF\FF\FF\FF\FF\FF#\00\00\01\FF\03\00\FE\FF\E1\9F\F9\FF\FF\FD\C5#\00@\00\B0\03\00\03\10\FF\FF\FF\FF\FF?\00\00\FF\FF\FF\0F\FF\07\FF\FF\FF~\80\FF\FF\FF\FF\FF\FF\FF\FF\FF\FB\FF\FF\FF\FF\FF\FF\FF\FF\FF\FF\FF\FF\FF\FF\FF\CF\FF\FE\FF\EF\9F\F9\FF\FF\FD\C5\F3\9Fy\80\B0\CF\FF\03P\E0\87\F9\FF\FF\FDm\03\00\00\00^\00\00\1C\00\E0\BF\FB\FF\FF\FD\ED#\00\00\01\00\03\00\00\02\E0\9F\F9\FF\FF\FD\ED#\00\00\00\B0\03\00\02\00\E8\C7=\D6\18\C7\FF\03\00\00\01\00\00\00\00\00\EE\87\F9\FF\FF\FDm\D3\879\02^\C0\FF?\00\EE\BF\FB\FF\FF\FD\ED\F3\BF;\01\00\CF\FF\00\FE\EE\9F\F9\FF\FF\FD\ED\F3\9F9\E0\B0\CF\FF\02\00\EC\C7=\D6\18\C7\FF\C3\C7=\81\00\C0\FF\00\00\E0\DF\FD\FF\FF\FD\FF#\00\00\00'\03\00\00\00\E1\DF\FD\FF\FF\FD\EF#\00\00\00`\03\00\06\00\F0\DF\FD\FF\FF\FF\FF'\00@p\80\03\00\00\FC\E0\FF\7F\FC\FF\FF\FB/\7F\00\00\00\00\00\00\00\FF\DF\FD\FF\FF\FD\FF\F3\DF=`'\CF\FF\00\00\EF\DF\FD\FF\FF\FD\EF\F3\DF=``\CF\FF\0E\00\FF\DF\FD\FF\FF\FF\FF\FF\DF}\F0\80\CF\FF\00\FC\EE\FF\7F\FC\FF\FF\FB/\7F\84_\FF\C0\FF\0C\00\FE\FF\FF\FF\FF\FF\05\00\7F\00\00\00\00\00\00\00\D6\F7\FF\FF\AF\FF\05 _\00\00\F0\00\00\00\00\01\00\00\00\00\00\00\00\FF\FE\FF\FF\FF\1F\00\00\00\1F\00\00\00\00\00\00\00\00\00\00\00\00\00\00\FE\FF\FF\FF\FF\FF\FF\07\FF\7F\FF\03\00\00\00\00\D6\F7\FF\FF\AF\FF\FF?_\7F\FF\F3\00\00\00\00\01\00\00\03\FF\03\A0\C2\FF\FE\FF\FF\FF\1F\FE\FF\DF\FF\FF\FE\FF\FF\FF\1F@\00\00\00\00\00\00\00\FF\FF\FF\FF\FF\07\00\80\00\00?<b\C0\E1\FF\03@\00\00\FF\FF\FF\FF\BF \FF\FF\FF\FF\FF\F7\FF\FF\FF\FF\FF\FF\FF\FF\FF\FF\FF\FF\FF\FF\FF\FF\FF\FF\FF\FF\FF\FF\FF\FF\FF\FF\FF\FF\FF\FF\FF\FF\FF\FF\FF\FF\FF\FF\7F\00\FF\FF?\00\FF\00\00\00\BF\FF\FF\FF\FF\FF\FD\07\00\00\00\00\00\00\00\00\FF\FF\FF\FF\FF\FF\FF\FF\FF\03\FF\FF\FF\FF\FF\FF\FF\FF\FF?\FF\FF\FF\FF\BF \FF\FF\FF\FF\FF\F7\FF\FF\FF\FF\FF\FF\FF\FF\FF\FF\FF\FF\FF\FF\FF\FF\FF\FF\FF\FF\FF\FF\FF\FF\FF\FF\FF\FF\FF\FF\FF\FF\FF\FF\FF\FF\FF\FF\FF\FF\FF\FF\FF\FF\FF\FF\FF\FF\FF\FF\FF\03\00\00\00\00\00\00\00\00\00\00\00\00\FF\FF\FF\FF\FF\FF\FF\FF\FF=\7F=\FF\FF\FF\FF\FF=\FF\FF\FF\FF=\7F=\FF\7F\FF\FF\FF\FF\FF\FF\FF=\FF\FF\FF\FF\FF\FF\FF\FF\07\00\00\00\00\FF\FF\00\00\FF\FF\FF\FF\FF\FF\FF\FF\FF\FF??\FF\FF\FF\FF\FF\FF\FF\FF\FF=\7F=\FF\FF\FF\FF\FF=\FF\FF\FF\FF=\7F=\FF\7F\FF\FF\FF\FF\FF\FF\FF=\FF\FF\FF\FF\FF\FF\FF\FF\E7\00\FE\03\00\FF\FF\00\00\FF\FF\FF\FF\FF\FF\FF\FF\FF\FF??\FE\FF\FF\FF\FF\FF\FF\FF\FF\FF\FF\FF\FF\FF\FF\FF\FF\FF\FF\FF\FF\FF\FF\FF\FF\FF\FF\FF\FF\FF\FF\FF\FF\FF\FF\FF\FF\FF\FF\FF\FF\FF\FF\FF\FF\FF\FF\FF\FF\FF\FF\FF\FF\FF\FF\FF\FF\FF\FF\FF\FF\FF\FF\FF\FF\FF\FF\FF\FF\FF\FF\FF\FF\FF\FF\FF\FF\FF\FF\FF\FF\FF\FF\FF\FF\FF\FF\FF\FF\FF\FF\FF\FF\FF\FF\07\FF\FF\FF\FF\FF\FF\FF\FF\FF\FF\FF\FF\FF\9F\FF\FF\FE\FF\FF\07\FF\FF\FF\FF\FF\FF\FF\FF\FF\C7\FF\01\FF\FF\03\80\FF\FF\03\00\FF\FF\03\00\FF\DF\01\00\FF\FF\FF\FF\FF\FF\0F\00\00\00\80\10\00\00\00\00\FF\FF\FF\FF\FF\FF\FF\FF\FF\FF\FF\FF\FF\9F\FF\FF\FE\FF\FF\07\FF\FF\FF\FF\FF\FF\FF\FF\FF\C7\FF\01\FF\FF?\80\FF\FF\1F\00\FF\FF\0F\00\FF\DF\0D\00\FF\FF\FF\FF\FF\FF\FF\FF\FF\FF\8F0\FF\03\00\00\00\00\00\00\FF\FF\FF\FF\FF\FF\FF\FF\FF\FF\FF\01\FF\FF\FF\FF\FF\05\FF\FF\FF\FF\FF\FF\FF\FF?\00\FF\FF\FF\7F\00\00\00\00\00\00\FF\FF\FF?\1F\00\FF\FF\FF\FF\FF\0F\FF\FF\FF\03\00\00\00\00\00\00\00\B8\FF\03\FF\FF\FF\FF\FF\FF\FF\FF\FF\FF\FF\01\FF\FF\FF\FF\FF\07\FF\FF\FF\FF\FF\FF\FF\FF?\00\FF\FF\FF\7F\FF\0F\FF\0F\C0\FF\FF\FF\FF?\1F\00\FF\FF\FF\FF\FF\0F\FF\FF\FF\03\FF\07\00\00\00\00\FF\FF\7F\00\FF\FF\FF\FF\FF\FF\1F\00\00\00\00\00\00\00\00\00\80\00\00\00\00\00\00\00\00\00\00\00\E0\FF\FF\FF\FF\FF\0F\00\E0\1F\00\00\00\00\00\00\F8\FF\FF\FF\01\C0\00\FC\FF\FF\FF\FF?\00\00\00\FF\FF\FF\0F\FF\FF\FF\FF\FF\FF\FF\7F\FF\FF\FF\9F\FF\03\FF\03\80\00\FF\BF\FF\7F\00\00\00\00\00\00\FF\FF\FF\FF\FF\FF\FF\FF\FF\1F\FF\03\00\F8\0F\00\FF\FF\FF\FF\FF\FF\FF\FF\FF\FF\FF\FF\FF\FF\0F\00\FF\FF\FF\FF\0F\00\00\00\00\E0\00\FC\FF\FF\FF?\FF\07\FF\FF\FF\FF\FF\E7\00\00\00\00\00\DEo\04\FF\FF\FF\FF\FF\FF\FF\FF\FF\FF\FF\FF\FF\FF\FF\FF\FF\FF\FF\FF\FF\FF\FF\FF\00\00\00\00\00\00\00\00\FF\FF\FF\FF\FF\FF\FF\00\FF\E3\FF\FF\FF\FF\FF?\FF\07\FF\FF\FF\FF\FF\E7\00\00\F7\FF\FF\FF\FF\07\FF\FF\FF\FF\FF\FF\FF\FF\FF\FF\FF\FF\FF\FF\FF\FF\FF\FF\FF\FF\FF\FF\FF\FF\FF\FF\FF\FF\FF\FF\FF\FF\FF\FF\FF\FF\FF\FF\FF\FF\FF\FF\FF\FF\FF\FF\FF\FF\FF\FF\FF\FF\FF\FF\FF\FF\FF\FF\FF\FF\FF\FF\FF\00\00\00\00\00\00\00\00\00\00\00\00\00\00\00\02\80\00\00\FF\1F\00\00\00\00\00\00\00\00\00\00\00\00\84\FC/?P\FD\FF\F3\E0C\00\00\FF\FF\FF\FF\FF\01\00\00\00\00\00\00\00\00\00\00\00\00\00\00\000\00\00\00\00\00\80\01\00\10\00\00\00\02\80\00\00\FF\1F\00\00\00\00\00\00\FF\1F\E2\FF\01\00\84\FC/?P\FD\FF\F3\E0C\00\00\FF\FF\FF\FF\FF\01\00\00\00\00\00\00\00\00\00\00\00\00\00\00\FF\FF\FF\FF\FF\FF\FF\FF\FF\FF\FF\FF\FF\FF\FF\FF\FF\FF\FF\FF\FF\FF\FF\FF\FF\FF\FF\FF\1Fx\0C\00\FF\FF\FF\FF\BF \FF\FF\FF\FF\FF\FF\FF\80\00\00\FF\FF\7F\00\7F\7F\7F\7F\7F\7F\7F\7F\00\00\00\00\FF\FF\FF\FF\FF\FF\FF\FF\FF\FF\FF\FF\FF\FF\FF\FF\FF\FF\FF\FF\FF\FF\FF\FF\FF\FF\FF\FF\1F\F8\0F\00\FF\FF\FF\FF\BF \FF\FF\FF\FF\FF\FF\FF\80\00\80\FF\FF\7F\00\7F\7F\7F\7F\7F\7F\7F\7F\FF\FF\FF\FF\E0\00\00\00\FE\03>\1F\FE\FF\FF\FF\FF\FF\FF\FF\FF\FF\7F\E0\FE\FF\FF\FF\FF\FF\FF\FF\FF\FF\FF\F7\E0\FF\FF\FF\FF\FF\FE\FF\FF\FF\FF\FF\FF\FF\FF\FF\FF\7F\00\00\FF\FF\FF\FF\00\00\00\00\00\00\FF\FF\E0\00\00\00\FE\FF>\1F\FE\FF\FF\FF\FF\FF\FF\FF\FF\FF\7F\E6\FE\FF\FF\FF\FF\FF\FF\FF\FF\FF\FF\FF\E0\FF\FF\FF\FF\FF\FE\FF\FF\FF\FF\FF\FF\FF\FF\FF\FF\7F\00\00\FF\FF\FF\FF\00\00\00\00\00\00\FF\FF\FF\FF\FF\FF\FF\FF\FF\FF\FF\FF\FF\FF\FF\FF\FF\FF\FF\1F\00\00\00\00\00\00\00\00\FF\FF\FF\FF\FF?\FF\FF\FF\FF\FF\FF\FF\FF\FF\FF\FF\FF\FF\FF\FF\FF\FF\FF\FF\FF\FF\FF\FF\FF\FF\FF\FF\FF\FF\FF\FF\FF\FF\FF\FF\FF\07\00\04\00\00\00'\00\F0\00\FF\FF\FF\FF\FF\FF\FF\FF\FF\FF\FF\FF\FF\FF\FF\FF\FF\FF\FF\1F\FF\FF\00\0C\00\00\FF\FF\FF\FF\FF\7F\00\80\FF\FF\FF?\FF\FF\FF\FF\FF\FF\FF\FF\FF\FF\00\00\00\00\80\FF\FC\FF\FF\FF\FF\FF\FF\FF\FF\FF\FF\FF\FF\F9\FF\FF\FF\FF\FF\FF\FF?\EB\1F\00\00\FC\FF\FF\1F\FF\FF\FF\0F\00\00\FF\FF\FF\FF\FF\FF\F0\BF\FF\FF\FF\FF\FF\FF\FF\FF\FF\FF\FF\FF\FF\FF\03\00\00\00\80\FF\FC\FF\FF\FF\FF\FF\FF\FF\FF\FF\FF\FF\FF\F9\FF\FF\FF\FF\FF\FF\FF?\EB\1F\00\00\FC\FF\BB\F7\FF\FF\07\00\00\00\FF\FF\FF\FF\FF\FF\0F\00\FC\FF\FF\FF\FF\FF\0F\00\00\00\00\00\00\00\FCh\00\FC\FF\FF?\00\FF\FF\7F\00\00\00\FF\FF\FF\1F\F0\FF\FF\FF\FF\FF\07\00\00\80\00\00\DF\FF\00|\FF\FF\FF\FF\FF\10\00\00\FF\FF\FF\FF\FF\FF\0F\00\FF\FF\FF\FF\FF\FF\FF\FF?\00\FF\03\FF\FF\FF\E8\FF\FF\FF\FF\FF?\FF\FF\FF\FF\0F\00\FF\FF\FF\1F\FF\FF\FF\FF\FF\FF\FF\FF\01\80\FF\03\FF\FF\FF\7F\FF\FF\FF\FF\FF\01\00\00\F7\0F\00\00\FF\FF\7F\C4\FF\FF\FF\FF\FF\FFb>\05\00\008\FF\07\1C\00~~~\00\7F\7F\FF\FF\FF\FF\FF\F7\FF\03\FF\FF\FF\FF\FF\FF\FF\FF\FF\FF\FF\FF\FF\FF\07\00\00\00\FF\FF\FF\FF\FF\FF\7F\00\FF?\FF\03\FF\FF\7F\FC\FF\FF\FF\FF\FF\FF\FF\FF\07\00\008\FF\FF|\00~~~\00\7F\7F\FF\FF\FF\FF\FF\F7\FF\03\FF\FF\FF\FF\FF\FF\FF\FF\FF\FF\FF\FF\FF\FF\FF7\FF\03\FF\FF\FF\FF\FF\FF\FF\FF\FF\FF\FF\FF\FF?\FF\FF\FF\FF\FF\FF\FF\FF\FF\FF\FF\FF\FF\03\00\00\00\00\7F\00\F8\A0\FF\FD\7F_\DB\FF\FF\FF\FF\FF\FF\FF\FF\FF\FF\FF\FF\FF\03\00\00\00\F8\FF\FF\FF\FF\FF\FF\FF\FF\FF\FF\FF\FF\FF\FF\FF\FF\FF\FF?\FF\FF\FF\FF\FF\FF\FF\FF\FF\FF\FF\FF\FF\03\00\00\00\00\7F\00\F8\E0\FF\FD\7F_\DB\FF\FF\FF\FF\FF\FF\FF\FF\FF\FF\FF\FF\FF\03\00\00\00\F8\FF\FF\FF\FF\FF\FF\FF\FF\FF\FF\FF\FF\FF\FF\FF\FF?\F0\FF\FF\FF\FF\FF\FF\FF\FF\FF\FF\FF\FF\FF\FF\FF\FF\FF\FF\FF\FF\FF\FF\FF\FF\FF\FF?\00\00\FF\FF\FF\FF\FF\FF\FF\FF\FC\FF\FF\FF\FF\FF\FF\00\00\00\00\00\FF\03\00\00\00\00\00\00\00\00\00\00\00\00\00\00\8A\AA\FF\FF\FF\FF\FF\FF\FF\FF\FF\FF\FF\FF\FF\FF\FF\1F\00\00\00\00\FE\FF\FF\07\FE\FF\FF\07\C0\FF\FF\FF\FF\FF\FF?\FF\FF\FF\7F\FC\FC\FC\1C\00\00\00\00\FF\FF\00\00\FF\FF\18\00\00\E0\00\00\00\00\8A\AA\FF\FF\FF\FF\FF\FF\FF\FF\FF\FF\FF\FF\FF\FF\FF\1F\00\00\FF\03\FE\FF\FF\87\FE\FF\FF\07\E0\FF\FF\FF\FF\FF\FF\FF\FF\FF\FF\7F\FC\FC\FC\1C\00\00\00\00\FF\EF\FF\FF\7F\FF\FF\B7\FF?\FF?\00\00\00\00\FF\FF\FF\FF\FF\FF\FF\FF\FF\FF\FF\FF\FF\FF\FF\07\00\00\00\00\00\00\00\00\FF\FF\FF\FF\FF\FF\1F\00\00\00\00\00\00\00\00\00\00\00\00\00\00\00\00\00\FF\EF\FF\FF\7F\FF\FF\B7\FF?\FF?\00\00\00\00\FF\FF\FF\FF\FF\FF\FF\FF\FF\FF\FF\FF\FF\FF\FF\07\00\00\00\00\00\00\00\00\FF\FF\FF\FF\FF\FF\1F\00\00\00\00\00\00\00\00\00\00\00\00\00\00\00\00 \00\00\00\00\00\00\00\00\00\00\00\00\00\00\00\00\FF\FF\FF\1F\FF\FF\FF\FF\FF\FF\01\00\00\00\00\00\FF\FF\FF\FF\00\E0\FF\FF\FF\07\FF\FF\FF\FF?\00\FF\FF\FF?\FF\FF\FF\FF\0F\FF>\00\00\00\00\00\00\00\00\00\00\00\00\00\00\00\00\00\00\00\00\00\FF\FF\FF\1F\FF\FF\FF\FF\FF\FF\01\00\01\00\00\00\FF\FF\FF\FF\00\E0\FF\FF\FF\07\FF\FF\FF\FF\FF\07\FF\FF\FF?\FF\FF\FF\FF\0F\FF>\00\00\00\00\00\FF\FF\FF\FF\FF\FF\FF\FF\FF\FF\FF\FF\FF\FF\FF\FF\FF\FF\FF?\00\00\FF\FF\FF\FF\0F\FF\FF\FF\FF\0F\FF\FF\FF\FF\FF\00\FF\FF\FF\FF\FF\FF\0F\00\FF\F7\FF\F7\B7\FF\FB\FF\FB\1B\FF\FF\FF\FF\FF\FF\0F\00\FF\FF\FF\FF\FF\FF\FF\FF\FF\FF\FF\FF\FF\FF\FF\FF\FF\FF\FF?\FF\03\FF\FF\FF\FF\0F\FF\FF\FF\FF\0F\FF\FF\FF\FF\FF\00\FF\FF\FF\FF\FF\FF\0F\00\FF\F7\FF\F7\B7\FF\FB\FF\FB\1B\FF\FF\FF\FF\FF\FF\0F\00?\FD\FF\FF\FF\FF\BF\91\FF\FF?\00\FF\FF\7F\00\FF\FF\FF\7F\00\00\00\00\00\00\00\00\FF\FF7\00\FF\FF?\00\FF\FF\FF\03\00\00\00\00\00\00\00\00\FF\FF\FF\FF\FF\FF\FF\C0\00\00\00\00\00\00\00\00\01\00\EF\FE\FF\FF?\00\00\00\00\00\FF\FF\FF\1F\FF\FF\FF\1F\00\00\00\00\FF\FE\FF\FF\1F\00\00\00\FF\FF\FF\FF\FF\FF?\00\FF\FF?\00\FF\FF\07\00\FF\FF\03\00\00\00\00\00\00\00\00\00\00\00\00\00o\F0\EF\FE\FF\FF?\87\00\00\00\00\FF\FF\FF\1F\FF\FF\FF\1F\00\00\00\00\FF\FE\FF\FF\7F\00\00\00\FF\FF\FF\FF\FF\FF?\00\FF\FF?\00\FF\FF\07\00\FF\FF\03\00\00\00\00\00\00\00\00\00\00\00\00\00\FF\FF\FF\FF\FF\FF\FF\FF\FF\01\00\00\00\00\00\00\FF\FF\FF\FF\FF\FF\07\00\FF\FF\FF\FF\FF\FF\07\00\FF\FF\FF\FF\0F\00\00\00\00\FC\FF\FF?\80\FF\FF?\00\00\00\00\00\00\00\00\00\00\00\00\00\00\00\FF\FF\FF\FF\FF\FF\FF\FF\FF\01\00\00\00\00\00\00\FF\FF\FF\FF\FF\FF\07\00\FF\FF\FF\FF\FF\FF\07\00\FF\FF\FF\FF\FF\00\FF\03\FF\FF\FF\FF?\BE\FF\FF?\00\00\00\00\00\00\00\00\00\00\00\00\00\00\00\00\00\00\00\00\00\00\00\00\00\00\00\00\00\00\00\FF\FF\FF\FF\FF\03\03\00\1C\00\00\00\00\00\00\00\FF\FF\FF\1F\80\00\FF\FF?\00\00\00\00\00\FF\FF\03\00\00\00\00\00\FF\FF\1F\00\00\00\FF\FF\7F\00\00\00\00\00\00\00\00\00\00\00\00\00\00\00\00\00\FF\FF\FF\FF\FF\1B\03\00\1C\00\00\00\00\00\00\F0\FF\FF\FF\1F\80\00\FF\FF\FF\FF\01\00\00\00\FF\FF?\00\00\00\00\00\FF\FF\1F\00\00\00\FF\FF\7F\00\F8\FF\FF\FF\FF\FF\FF\00\00\00\00\00\00\00&\00\F8\FF\FF\FF\FF\FF\00\00\00\00\FF\FF\FF\01\00\00\F8\FF\FF\FF\7F\00\00\00\90\00\FF\FF\FF\FFG\00\F8\FF\FF\FF\FF\FF\07\00\1E\00\00\14\00\00\00\00\FF\FF\FF\FF\FF\FF\FF\FF\7F\00\00\00\C0\FF?\80\FF\FF\FF\FF\FF\FF\FF\07\04\00\FF\FF\FF\01\FF\03\FF\FF\FF\FF\FF\FF\DF\FF\F0\00\FF\FF\FF\FFO\00\FF\FF\FF\FF\FF\FF\FF\FF\1F\DE\FF\17\00\00\00\00\FF\FF\FB\FF\FF\0F\00\80\01\00\00\00\00\00\00\00\7F\BD\FF\BF\FF\01\FF\FF\FF\FF\FF\7F\00\00\00\00\E0\9F\F9\FF\FF\FD\ED#\00\00\01\E0\03\00\00\00\FFK\FF\FF\FF\FF\BF\00\00\00\0A\00\00\00\00\00\FF\FF\FB\FF\FF\FF\FF\C0\03\00\00\00\00\00\00\00\7F\BD\FF\BF\FF\01\FF\FF\FF\FF\FF\FF\FF\07\FF\03\EF\9F\F9\FF\FF\FD\ED\FB\9F9\81\E0\CF\1F\1F\00\FFK\FF\FF\FF\FF\BF\FF\A5\F7\0F\00\06\00\00\00\FF\FF\FF\FF\FF\FF\1F\00\80\07\00\80\03\00\00\00\FF\FF\FF\FF\FF\FF\00\00\B0\00\00\00\00\00\00\00\00\00\00\00\00\00\00\00\00\00\00\00\00\00\00\00\FF\FF\FF\FF\FF\7F\00\00\00\00\00\0F\00\00\00\00\FF\FF\FF\FF\FF\FF\FF\FF\FF\07\FF\C3\03\00\00\00\FF\FF\FF\FF\FF\FF\FF\FF\BF\00\FF\03\00\00\00\00\00\00\00\00\00\00\00\00\00\00\00\00\00\00\00\00\FF\FF\FF\FF\FF\FF?\FF\01\00\00?\00\00\00\00\FF\FF\FF\FF\FF\FF\00\00\10\00\00\00\00\00\00\00\FF\FF\FF\FF\FF\07\00\01\00\00\00\00\00\00\00\00\FF\FF\FF\07\00\00\00\00\7F\00\00\00\00\00\00\00\00\00\00\00\00\00\00\00\00\00\00\00\00\00\00\00\FF\FF\FF\FF\FF\FF\FF\FF\11\00\FF\03\00\00\00\00\FF\FF\FF\FF\FF\FF\FF\01\FF\03\FF\FF\0F\00\00\00\FF\FF\FF\E7\FF\0F\FF\03\7F\00\00\00\00\00\00\00\00\00\00\00\00\00\00\00\00\00\00\00\00\00\00\00\FF\FF\FF\FF\FF\0F\00\00\00\00\00\00\00\00\00\00\00\00\00\00\FF\FF\FF\FF\FF\FF\FF\FF\00\00\00\80\7F\F2o\FF\FF\FF\00\80\02\00\00\00\00\00\00\00\00\00\00\00\FF\FC\FF\FF\FF\FF\01\00\0A\00\00\00\FF\FF\FF\FF\FF\FF\FF\07\00\00\00\00\00\00\00\00\00\00\00\00\FF\FF\FF\FF\FF\FF\FF\FF\FF\03\00\80\7F\F2o\FF\FF\FF\BF\F9\0F\00\FF\03\00\00\00\00\00\00\00\00\FF\FC\FF\FF\FF\FF\FF\FC\1B\00\00\00\01\F8\FF\FF\FF\FF\07\04\00\00\01\F0\FF\FF\FF\FF\FF\03\00 \00\00\FF\FF\FF\FF\FF\FF\FF\FF\FF\01\00\00\00\00\00\00\00\00\00\00\00\00\00\00\00\00\00\00\00\00\00\00\00\00\FF\FF\FF\FF\01\00\00\00\FF\FF\FF\FF\FF\FF\FF\7F\80\00\FF\FF\FF\FF\FF\FF\FF\FF\FF#\00\00\FF\FF\FF\FF\FF\FF\FF\FF\FF\01\00\00\00\00\00\00\00\00\00\00\00\00\00\00\00\00\00\00\00\00\00\00\00\00\FF\FF\FF\FF\01\00\FF\03\FF\FD\FF\FF\FF\7F\00\00\01\00\00\00\00\00\FC\FF\FF\FF\00\00\00\00\00\00\00\00\00\00\00\00\00\00\7F\FB\FF\FF\FF\FF\01\00@\00\00\00\BF\FD\FF\FF\FF\03\00\01\00\00\00\00\00\00\00\00\00\00\00\00\FF\FD\FF\FF\FF\FF\7F\FF\01\00\FF\03\00\00\FC\FF\FF\FF\FC\FF\FF\FE\7F\00\00\00\00\00\00\00\00\00\7F\FB\FF\FF\FF\FF\7F\B4\FF\00\FF\03\BF\FD\FF\FF\FF\7F\FB\01\FF\03\00\00\00\00\00\00\00\00\00\00\00\00\00\00\00\00\00\00\00\00\00\00\00\00\00\00\00\00\00\00\00\00\00\00\00\00\00\00\FF\FF\07\00\F4\FF\FD\FF\FF\FF\0F\00\00\00\00\00\00\00\00\00\00\00\00\00\00\00\01\00\00\00\00\00\00\00\00\00\00\00\00\00\00\00\00\00\00\00\00\00\00\00\00\00\00\00\00\00\00\00\00\00\00\00\00\00\FF\FF\7F\00\FF\FF\FD\FF\FF\FF\FF\C7\07\00\FF\07\00\00\00\00\00\00\00\00\00\00\01\00\00\00\00\00\00\00\00\00\FF\FF\FF\FF\FF\FF\FF\FF\FF\FF\FF\FF\FF\7F\00\00\FF\FF\FF\FF\FF\FF\FF\FF\FF\FF\FF\FF\FF\FF\FF\FF\FF\FF\FF\FF\FF\FF\FF\FF\0F\00\00\00\00\00\00\00\00\00\00\00\00\00\00\00\00\00\00\00\00\00\00\00\00\00\00\00\00\00\00\00\00\00\00\00\00\00\00\00\00\00\00\00\00\00\00\00\00\00\00\00\00\00\00\00\00\00\00\00\00\00\00\00\00\00\00\00\00\00\00\00\00\00\FF\FF\FF\FF\FF\FF\FF\FF\FF\FF\FF\FF\01\00\FF\FF\FF\FF\FF\FF\00\00~\00\00\00\FF\FF\FF\FF\FF\FF\FF\FF\FF\FF\FF\FF\FF\FF\FF\FF\FF\FF\FF\FF\FF\FF\FF\FF\FF\FF\FF\FF\FF\FF\FF\FF\FF\FF\FF\FF\FF\FF\FF\FF\FF\FF\FF\FF\FF\FF\FF\FF\FF\FF\FF\FF\FF\FF\FF\FF\FF\FF\FF\03\FF\FF\FF\FF\FF\FF\FF\FF\FF\FF\FF\FF\FF\FF\FF\FF\FF\FF\FF\FF\FF\FF\FF\FF\FF\FF\FF\FF\FF\FF\00\00\FF\FF?\00\FF\FF\FF\FF\FF\FF\FF\FF\FF\FF\FF\FF\FF\FF\FF\FF\FF\FF\FF\FF\FF\FF\FF\FF\FF\FF\FF\FF\FF\FF\FF\FF\FF\FF\FF\FF\FF\FF\FF\FF\FF\FF\FF\FF\FF\FF\FF\FF\FF\FF\FF\FF\FF\FF\FF\FF\FF\FF\FF\FF\FF\FF\FF\FF\FF\FF\FF\FF\FF\FF\FF\FF\FF\FF\FF\FF\FF\FF\FF\FF\01\00\FF\FF\FF\FF\FF\FF\FF\FF\FF\FF\7F\00\00\00\00\00\00\00\00\00\00\00\00\00\00\00\00\00\00\00\00\00\00\00\00\00\00\00\00\00\00\00\00\00\00\00\00\00\00\00\00\00\00\00\00\00\00\00\00\00\00\00\00\00\00\00\FF\FF\FF?\00\00\00\00\00\00\00\00\00\00\00\00\00\00\00\00\00\00\00\00\00\00\00\00\00\00\00\00\00\00\00\00\00\00\00\00\00\00\00\00\00\00\00\00\00\00\00\00\00\00\00\00\00\00\00\00\00\00\00\00\FF\FF\FF\FF\FF\FF\FF\03\00\00\00\00\00\00\00\00\00\00\00\00\00\00\00\00\00\00\00\00\00\00\00\00\FF\FF\FF\FF\FF\FF\FF\01\FF\FF\FF\7F\00\00\FF\FF\FF\FF\FF\FF\FF\FF\FF\7F\00\00\FF\FF\FF?\00\00\FF\FF\FF\FF\FF\FF\00\00\0F\00\00\00\F8\FF\FF\E0\FF\FF\00\00\00\00\00\00\00\00\00\00\00\00\00\00\FF\FF\FF\FF\FF\FF\FF\01\FF\FF\FF\7F\FF\03\FF\FF\FF\FF\FF\FF\FF\FF\FF\7F\FF\03\FF\FF\FF?\1F\00\FF\FF\FF\FF\FF\FF\7F\00\0F\00\FF\03\F8\FF\FF\E0\FF\FF\00\00\00\00\00\00\00\00\00\00\00\00\00\00\00\00\00\00\00\00\00\00\00\00\00\00\00\00\00\00\00\00\00\00\00\00\00\00\00\00\00\00\00\00\00\00\00\00\00\00\00\00\00\00\FF\FF\FF\FF\FF\1F\00\00\00\00\00\00\00\00\00\00\00\00\00\00\00\00\00\00\00\00\00\00\00\00\00\00\00\00\00\00\00\00\00\00\00\00\00\00\00\00\00\00\00\00\00\00\00\00\00\00\00\00\00\00\00\00\00\00\FF\FF\FF\FF\FF\1F\FF\03\00\00\00\00\00\00\00\00\00\00\00\00\00\00\00\00\00\00\00\00\00\00\00\00\FF\FF\FF\FF\FF\FF\FF\FF\00\00\00\00\00\00\00\00\00\00\00\00\00\00\00\00\FF\FF\FF\FF\FF\FF\FF\FF\FF\07\01\00\00\00\00\00\00\00\F8\FF\00\00\00\00\00\00\00\00\0B\00\00\00\00\00\00\00\00\00\00\00\FF\FF\FF\FF\FF\FF\FF\FF\00\00\00\00\00\00\00\00\00\00\00\00\00\00\00\00\FF\FF\FF\FF\FF\FF\FF\FF\FF\87\FF\FF\FF\FF\FF\FF\FF\80\FF\FF\00\00\00\00\00\00\00\00\1B\00\03\00\FF\FF\FF\FF\FF\FF\FF\FF\FF\FF\FF\FF\FF\FF\FF\FF\FF\FF\FF\FF\FF\FF\FF\FF\FF\FF?\00\00\00\00\80\FF\01\00\00\00\00\00\00\00\00\00\00\00\00\00\00\00\00\00\00\00\00\00\00\00\00\00\00\00\00\00\00\00\00\00\00\00\00\00\00\00\00\00\00\00\00\00\00\00\00\00\00\00\00\00\00\00\00\00\00\00\00\00\00\00\00\00\00\00\00\00\00\00\00\00\00\00\00\00\00\00\00\00\00\00\00\00\00\00\00\00\00\00\00\EFo\FF\FF\FF\FF\FF\FF\FF\FF\FF\FF\FF\FF\FF\FF\FF\FF\FF\FF\FF\FF\FF\FF\FF\FF\FF\FF\FF\FF\FF\FF\FF\0F\00\00\00\00\00\00\00\00\00\00\00\00\00\00\00\00\00\00\00\00\00\00\00\00\00\00\00\00\00\00\00\00\FF\FF\FF\FF\FF?\FF\FF\7F\00\00\00\00\00\00\00\00\00\00\00\00\00\00\00\00\00\00\00\00\00\00\00\FF\FF\FF\FF\FF\FF\FF\FF\FF\FF\FF\FF\FF\07\FF\1F\FF\01\FF\03\00\00\00\00\00\00\00\00\00\00\00\00\00\00\00\00\00\00\00\00\00\00\00\00\00\00\00\00\00\00\00\00\00\00\00\00\00\00\00\00\00\00\00\00\00\00\00\00\00\00\00\00\00\00\00\00\E0\E3\07\F8\E7\0F\00\00\00<\00\00\00\00\00\00\00\00\00\00\FF\FF\FF\FF\FF\FF\FF\FF\FF\FF\FF\FF\FF\07\FF\1F\FF\01\FFc\00\00\00\00\00\00\00\00\00\00\00\00\00\00\00\00\00\00\00\00\00\00\00\00\00\00\00\00\00\00\00\00\00\00\00\00\00\00\00\00\00\00\00\00\FF\FF\FF\7F\E0\07\00\00\00\00\00\00\00\00\00\00\00\00\00\00\00\00\00\00\00\00\00\00\00\00\00\00\00\00\00\00\00\00\00\00\00\00\00\00\00\00\00\00\00\00\00\00\00\00\00\00\00\00\00\00\00\00\FF\03\00\00\00\00\00\00\00\00\00\00\00\00\00\00\00\00\00\00\00\00\00\00\00\00\00\00\00\00\00\00\00\00\00\00\00\00\00\00\00\00\00\00\00\00\00\00\00\00\00\00\00\00\00\00\00\00\00\00\00\00\7Fo\FF\7F\00\00\00\00\00\00\00\00\1C\00\00\00\00\00\00\00\00\00\00\00\00\00\00\00\00\00\00\00\00\00\00\00\00\00\00\00\00\00\00\00\00\00\00\00\00\00\00\00\00\00\00\00\00\00\00\00\00\00\00\00\00\00\00\00\00\00\00\00\00\00\00\00\00\00\00\00\00\00\00\00\00\00\00\00\00\00\00\00\00\00\00\00\00\00\FF\03\FF\FF\FF\FF\FF\FF\FF\FF\FF\FF\DF\FF\FF\FF\FF\FF\FF\FF\FF\DFd\DE\FF\EB\EF\FF\FF\FF\FF\FF\FF\FF\BF\E7\DF\DF\FF\FF\FF{_\FC\FD\FF\FF\FF\FF\FF\FF\FF\FF\FF\FF\FF\FF\FF\FF\FF\FF\FF\FF\FF\FF\FF\FF\FF\FF\FF\FF\FF\FF\FF\FF\FF\FF\FF\FF\FF\FF\FF\FF\FF\FF\FF?\FF\FF\FF\FD\FF\FF\F7\FF\FF\FF\F7\FF\FF\DF\FF\FF\FF\DF\FF\FF\7F\FF\FF\FF\7F\FF\FF\FF\FD\FF\FF\FF\FD\FF\FF\F7\0F\00\00\00\00\00\00\FF\FF\FF\FF\FF\FF\FF\FF\FF\FF\FF\FF\FF\FF\FF\FF\FF\FF\FF\FF?\FF\FF\FF\FD\FF\FF\F7\FF\FF\FF\F7\FF\FF\DF\FF\FF\FF\DF\FF\FF\7F\FF\FF\FF\7F\FF\FF\FF\FD\FF\FF\FF\FD\FF\FF\F7\CF\FF\FF\FF\FF\FF\FF\FF\FF\FF\FF\FF\FF\7F\F8\FF\FF\FF\FF\FF\1F \00\10\00\00\F8\FE\FF\00\00\00\00\00\00\00\00\00\00\00\00\00\00\00\00\00\00\00\00\00\00\00\00\00\00\00\00\00\00\00\00\00\00\00\00\00\00\00\00\00\00\FF\FF\FF\FF\FF\FF\FF\FF\FF\FF\FF\FF\FF\FF\FF\FF\FF\FF\FF\FF\FF\FF\FF\FF\FF\FF\FF\FF\FF\FF\00\00\00\00\00\00\00\00\FF\FF\FF\FF\FF\FF\FF?\00\00\00\00\00\00\00\00\00\00\00\00\00\00\00\00\00\00\FF\FF\FF\FF\FF\1F\80?\00@\00\00\00\00\00\00\00\00\00\00\00\00\00\00\00\00\00\00\00\00\00\00\7F\FF\FF\F9\DB\07\FF\FF\FF\FF\FF\FF\FF?\00\00\00\80\00\00\00\00\00\00\00\00\00\00\00\00\00\00\FF\FF\FF\FF\FF\1F\FF?\FFC\00\00\00\00\00\00\00\00\00\00\00\00\00\00\00\00\00\00\00\00\00\00\00\00\00\00\00\00\00\00\00\00\00\00\00\00\00\00\00\00\FF\FF\FF?\00\00\FF\FF\FF\FF\FF\0F\00\00\00\00\00\00\00\00\00\00\00\00\00\00\00\00\00\00\00\00\00\00\00\00\00\00\00\00\00\00\00\00\00\00\00\00\00\00\00\00\00\00\00\00\00\00\00\00\00\00\00\00\FF\FF\FF\7F\00\00\FF\FF\FF\FF\FF\FF\FF\03\00\00\00\00\00\00\00\00\00\00\00\00\00\00\00\00\00\00\00\00\00\00\00\00\00\00\00\00\00\00\00\00\00\00\00\00\00\00\00\00\00\00\00\00\00\00\00\00\00\00\00\00\00\00\00\00\00\00\FF\FF\FF\0F\00\00\00\00\00\00\00\00\00\00\00\00\00\00\00\00\00\00\00\00\00\00\00\00\00\00\00\00\FF\FF\FF?\01\00\00\00\00\00\00\00\00\00\00\00\00\00\00\00\00\00\00\00\00\00\00\00\00\00\00\00\FF\FF\FF\FF\FF\03\00\00\00\00\00\00\00\00\00\00\00\00\00\00\00\00\00\00\00\00\00\00\00\00\00\00\FF\FF\FF\FF\FF\07\FF\FF\FF\FF\FF\FF\FF\FF\FF\FF\FF\FF\FF\FF\FF\FF\FF\FF\FF\FF\FF\FF\FF\FF\1F\00\00\00\00\00\00\00\FF\FF\FF\FF\FF\FF\FF\FF\0F\08\00\00\00\00\00\00\00\00\00\00\00\00\00\00\00\00\00\00\00\00\00\00\FF\FF\FF\FF\FF\FF\FF\FF\FF\FF\FF\FF\FF\FF\FF\FF\FF\FF\FF\FF\FF\FF\FF\FF\1F\00\7F\00\00\00\00\00\FF\FF\FF\FF\FF\FF\FF\FF\FF\0F\FF\03\00\00\00\00\00\00\00\00\00\00\00\00\00\00\00\00\00\00\00\00\EF\FF\FF\FF\96\FE\F7\0A\84\EA\96\AA\96\F7\F7^\FF\FB\FF\0F\EE\FB\FF\0F\00\00\00\00\00\00\00\00\00\00\00\00\00\00\00\00\00\00\00\00\00\00\00\00\00\00\00\00\00\00\00\00\00\00\00\00\00\00\00\00\FF\FF\FF\FF\FF\FF\FF\FF\FF\FF\FF\FF\FF\FF\FF\FF\FF\FF\FF\FF\FF\FF\FF\FF\FF\FF\FF\FF\00\00\00\00\FF\FF\FF\FF\FF\FF\FF\FF\FF\FF\FF\FF\FF\FF\FF\FF\FF\FF\FF\FF\FF\FF\FF\FF\FF\FF\FF\FF\FF\FF\FF\FF\FF\FF\FF\FF\FF\FF\FF\FF\FF\07\FF\FF\FF\FF\FF\FF\FF\FF\FF\FF\FF\FF\FF\FF\FF\FF\FF\FF\FF\FF\FF\FF\FF\FF\FF?\FF\FF\FF\FF\FF\FF\FF\FF\FF\FF\FF\FF\FF\FF\FF\FF\FF\FF\FF\FF\FF\FF\FF\FF\FF\FF\FF\FF\FF\FF\FF\FF\FF\FF\FF\FF\FF\FF\FF\FF\FF\FF\FF\FF\FF\FF\FF\FF\FF\FF\FF\FF\FF\FF\FF\FF\FF\FF\FF\FF\FF\FF\FF\FF\FF\FF\FF\FF\FF\FF\FF\FF\FF\FF\FF\FF\FF\FF\FF\FF\FF\FF\00\00\00\00\00\00\00\00\00\00\FF\FF\FF\FF\FF\FF\FF\FF\FF\FF\FF\FF\FF\FF\FF\FF\FF\FF\FF\FF\03\00\FF\FF\FF\FF\FF\FF\FF\FF\FF\FF\FF\FF\FF\FF\FF\FF\FF\FF\FF\FF\FF\FF\FF\FF\FF\FF\FF\FF\FF\FF\FF\FF\FF\FF\FF\FF\FF\FF\FF\FF\FF\FF\FF\FF\FF\FF\FF\FF\FF\FF\FF\FF\FF?\00\00\00\00\00\00\00\00\00\00\00\00\00\00\00\00\00\00\00\00\00\00\00\00\00\00\00\00\00\00\00\00\00\00\00\00\00\00\00\00\00\00\00\00\00\00\00\00\00\00\00\00", [32 x i8] undef }>, align 64, !dbg !38

; core::char::methods::<impl char>::is_ascii
; Function Attrs: inlinehint nonlazybind uwtable
define internal zeroext i1 @"_ZN4core4char7methods22_$LT$impl$u20$char$GT$8is_ascii17ha6d0c51c8761f2aaE"(i32* align 4 %self) unnamed_addr #0 !dbg !55 {
start:
  %self.dbg.spill = alloca i32*, align 8
  store i32* %self, i32** %self.dbg.spill, align 8
  call void @llvm.dbg.declare(metadata i32** %self.dbg.spill, metadata !66, metadata !DIExpression()), !dbg !68
  %_3 = load i32, i32* %self, align 4, !dbg !69, !range !70, !noundef !67
  %0 = icmp ule i32 %_3, 127, !dbg !69
  ret i1 %0, !dbg !71
}

; core::slice::<impl [T]>::get_unchecked
; Function Attrs: inlinehint nonlazybind uwtable
define align 1 i8* @"_ZN4core5slice29_$LT$impl$u20$$u5b$T$u5d$$GT$13get_unchecked17h758975d9483e0323E"([0 x i8]* align 1 %self.0, i64 %self.1, i64 %index) unnamed_addr #0 !dbg !72 {
start:
  %index.dbg.spill = alloca i64, align 8
  %self.dbg.spill = alloca { [0 x i8]*, i64 }, align 8
  %0 = getelementptr inbounds { [0 x i8]*, i64 }, { [0 x i8]*, i64 }* %self.dbg.spill, i32 0, i32 0
  store [0 x i8]* %self.0, [0 x i8]** %0, align 8
  %1 = getelementptr inbounds { [0 x i8]*, i64 }, { [0 x i8]*, i64 }* %self.dbg.spill, i32 0, i32 1
  store i64 %self.1, i64* %1, align 8
  call void @llvm.dbg.declare(metadata { [0 x i8]*, i64 }* %self.dbg.spill, metadata !86, metadata !DIExpression()), !dbg !91
  store i64 %index, i64* %index.dbg.spill, align 8
  call void @llvm.dbg.declare(metadata i64* %index.dbg.spill, metadata !87, metadata !DIExpression()), !dbg !92
; call <usize as core::slice::index::SliceIndex<[T]>>::get_unchecked
  %_3 = call i8* @"_ZN75_$LT$usize$u20$as$u20$core..slice..index..SliceIndex$LT$$u5b$T$u5d$$GT$$GT$13get_unchecked17h1371a45aa2872b8bE"(i64 %index, [0 x i8]* %self.0, i64 %self.1), !dbg !93
  br label %bb1, !dbg !93

bb1:                                              ; preds = %start
  ret i8* %_3, !dbg !94
}

; core::slice::<impl [T]>::get
; Function Attrs: inlinehint nonlazybind uwtable
define align 1 i8* @"_ZN4core5slice29_$LT$impl$u20$$u5b$T$u5d$$GT$3get17h7d951c0c71cd221aE"([0 x i8]* align 1 %self.0, i64 %self.1, i64 %index) unnamed_addr #0 !dbg !95 {
start:
  %index.dbg.spill = alloca i64, align 8
  %self.dbg.spill = alloca { [0 x i8]*, i64 }, align 8
  %0 = getelementptr inbounds { [0 x i8]*, i64 }, { [0 x i8]*, i64 }* %self.dbg.spill, i32 0, i32 0
  store [0 x i8]* %self.0, [0 x i8]** %0, align 8
  %1 = getelementptr inbounds { [0 x i8]*, i64 }, { [0 x i8]*, i64 }* %self.dbg.spill, i32 0, i32 1
  store i64 %self.1, i64* %1, align 8
  call void @llvm.dbg.declare(metadata { [0 x i8]*, i64 }* %self.dbg.spill, metadata !114, metadata !DIExpression()), !dbg !116
  store i64 %index, i64* %index.dbg.spill, align 8
  call void @llvm.dbg.declare(metadata i64* %index.dbg.spill, metadata !115, metadata !DIExpression()), !dbg !117
; call <usize as core::slice::index::SliceIndex<[T]>>::get
  %2 = call align 1 i8* @"_ZN75_$LT$usize$u20$as$u20$core..slice..index..SliceIndex$LT$$u5b$T$u5d$$GT$$GT$3get17h9ba6b9bbc3bb2c7eE"(i64 %index, [0 x i8]* align 1 %self.0, i64 %self.1), !dbg !118
  br label %bb1, !dbg !118

bb1:                                              ; preds = %start
  ret i8* %2, !dbg !119
}

; core::option::Option<T>::unwrap_or
; Function Attrs: inlinehint nonlazybind uwtable
define align 1 i8* @"_ZN4core6option15Option$LT$T$GT$9unwrap_or17hec137c6653bce853E"(i8* align 1 %0, i8* align 1 %default) unnamed_addr #0 !dbg !120 {
start:
  %x.dbg.spill = alloca i8*, align 8
  %default.dbg.spill = alloca i8*, align 8
  %_5 = alloca i8, align 1
  %1 = alloca i8*, align 8
  %self = alloca i8*, align 8
  store i8* %0, i8** %self, align 8
  call void @llvm.dbg.declare(metadata i8** %self, metadata !125, metadata !DIExpression()), !dbg !129
  store i8* %default, i8** %default.dbg.spill, align 8
  call void @llvm.dbg.declare(metadata i8** %default.dbg.spill, metadata !126, metadata !DIExpression()), !dbg !130
  store i8 1, i8* %_5, align 1, !dbg !131
  %2 = bitcast i8** %self to {}**, !dbg !131
  %3 = load {}*, {}** %2, align 8, !dbg !131
  %4 = icmp eq {}* %3, null, !dbg !131
  %_3 = select i1 %4, i64 0, i64 1, !dbg !131
  switch i64 %_3, label %bb2 [
    i64 0, label %bb1
    i64 1, label %bb3
  ], !dbg !132

bb2:                                              ; preds = %start
  unreachable, !dbg !131

bb1:                                              ; preds = %start
  store i8 0, i8* %_5, align 1, !dbg !133
  store i8* %default, i8** %1, align 8, !dbg !133
  br label %bb6, !dbg !133

bb3:                                              ; preds = %start
  %x = load i8*, i8** %self, align 8, !dbg !134, !nonnull !67, !align !135, !noundef !67
  store i8* %x, i8** %x.dbg.spill, align 8, !dbg !134
  call void @llvm.dbg.declare(metadata i8** %x.dbg.spill, metadata !127, metadata !DIExpression()), !dbg !136
  store i8* %x, i8** %1, align 8, !dbg !137
  br label %bb6, !dbg !138

bb6:                                              ; preds = %bb1, %bb3
  %5 = load i8, i8* %_5, align 1, !dbg !139, !range !140, !noundef !67
  %6 = trunc i8 %5 to i1, !dbg !139
  br i1 %6, label %bb5, label %bb4, !dbg !139

bb4:                                              ; preds = %bb5, %bb6
  %7 = load i8*, i8** %1, align 8, !dbg !141, !nonnull !67, !align !135, !noundef !67
  ret i8* %7, !dbg !141

bb5:                                              ; preds = %bb6
  br label %bb4, !dbg !139
}

; <usize as core::slice::index::SliceIndex<[T]>>::get_unchecked
; Function Attrs: inlinehint nonlazybind uwtable
define i8* @"_ZN75_$LT$usize$u20$as$u20$core..slice..index..SliceIndex$LT$$u5b$T$u5d$$GT$$GT$13get_unchecked17h1371a45aa2872b8bE"(i64 %self, [0 x i8]* %slice.0, i64 %slice.1) unnamed_addr #0 !dbg !142 {
start:
  %0 = alloca i8*, align 8
  %count.dbg.spill5 = alloca i64, align 8
  %self.dbg.spill4 = alloca i8*, align 8
  %count.dbg.spill = alloca i64, align 8
  %self.dbg.spill3 = alloca i8*, align 8
  %self.dbg.spill1 = alloca { [0 x i8]*, i64 }, align 8
  %slice.dbg.spill = alloca { [0 x i8]*, i64 }, align 8
  %self.dbg.spill = alloca i64, align 8
  store i64 %self, i64* %self.dbg.spill, align 8
  call void @llvm.dbg.declare(metadata i64* %self.dbg.spill, metadata !154, metadata !DIExpression()), !dbg !168
  %1 = getelementptr inbounds { [0 x i8]*, i64 }, { [0 x i8]*, i64 }* %slice.dbg.spill, i32 0, i32 0
  store [0 x i8]* %slice.0, [0 x i8]** %1, align 8
  %2 = getelementptr inbounds { [0 x i8]*, i64 }, { [0 x i8]*, i64 }* %slice.dbg.spill, i32 0, i32 1
  store i64 %slice.1, i64* %2, align 8
  call void @llvm.dbg.declare(metadata { [0 x i8]*, i64 }* %slice.dbg.spill, metadata !155, metadata !DIExpression()), !dbg !169
  %3 = getelementptr inbounds { [0 x i8]*, i64 }, { [0 x i8]*, i64 }* %self.dbg.spill1, i32 0, i32 0, !dbg !170
  store [0 x i8]* %slice.0, [0 x i8]** %3, align 8, !dbg !170
  %4 = getelementptr inbounds { [0 x i8]*, i64 }, { [0 x i8]*, i64 }* %self.dbg.spill1, i32 0, i32 1, !dbg !170
  store i64 %slice.1, i64* %4, align 8, !dbg !170
  call void @llvm.dbg.declare(metadata { [0 x i8]*, i64 }* %self.dbg.spill1, metadata !171, metadata !DIExpression()), !dbg !181
  %self2 = bitcast [0 x i8]* %slice.0 to i8*, !dbg !181
  store i8* %self2, i8** %self.dbg.spill3, align 8, !dbg !181
  call void @llvm.dbg.declare(metadata i8** %self.dbg.spill3, metadata !182, metadata !DIExpression()), !dbg !190
  store i64 %self, i64* %count.dbg.spill, align 8, !dbg !191
  call void @llvm.dbg.declare(metadata i64* %count.dbg.spill, metadata !189, metadata !DIExpression()), !dbg !190
  store i8* %self2, i8** %self.dbg.spill4, align 8, !dbg !190
  call void @llvm.dbg.declare(metadata i8** %self.dbg.spill4, metadata !192, metadata !DIExpression()), !dbg !200
  store i64 %self, i64* %count.dbg.spill5, align 8, !dbg !190
  call void @llvm.dbg.declare(metadata i64* %count.dbg.spill5, metadata !199, metadata !DIExpression()), !dbg !200
  %5 = getelementptr inbounds i8, i8* %self2, i64 %self, !dbg !200
  store i8* %5, i8** %0, align 8, !dbg !200
  %6 = load i8*, i8** %0, align 8, !dbg !200
  br label %bb1, !dbg !200

bb1:                                              ; preds = %start
  ret i8* %6, !dbg !202
}

; <usize as core::slice::index::SliceIndex<[T]>>::get
; Function Attrs: inlinehint nonlazybind uwtable
define align 1 i8* @"_ZN75_$LT$usize$u20$as$u20$core..slice..index..SliceIndex$LT$$u5b$T$u5d$$GT$$GT$3get17h9ba6b9bbc3bb2c7eE"(i64 %self, [0 x i8]* align 1 %slice.0, i64 %slice.1) unnamed_addr #0 !dbg !203 {
start:
  %0 = alloca i8*, align 8
  %count.dbg.spill7 = alloca i64, align 8
  %self.dbg.spill6 = alloca i8*, align 8
  %count.dbg.spill = alloca i64, align 8
  %self.dbg.spill5 = alloca i8*, align 8
  %self.dbg.spill3 = alloca { [0 x i8]*, i64 }, align 8
  %slice.dbg.spill2 = alloca { [0 x i8]*, i64 }, align 8
  %self.dbg.spill1 = alloca i64, align 8
  %slice.dbg.spill = alloca { [0 x i8]*, i64 }, align 8
  %self.dbg.spill = alloca i64, align 8
  %1 = alloca i8*, align 8
  store i64 %self, i64* %self.dbg.spill, align 8
  call void @llvm.dbg.declare(metadata i64* %self.dbg.spill, metadata !207, metadata !DIExpression()), !dbg !209
  %2 = getelementptr inbounds { [0 x i8]*, i64 }, { [0 x i8]*, i64 }* %slice.dbg.spill, i32 0, i32 0
  store [0 x i8]* %slice.0, [0 x i8]** %2, align 8
  %3 = getelementptr inbounds { [0 x i8]*, i64 }, { [0 x i8]*, i64 }* %slice.dbg.spill, i32 0, i32 1
  store i64 %slice.1, i64* %3, align 8
  call void @llvm.dbg.declare(metadata { [0 x i8]*, i64 }* %slice.dbg.spill, metadata !208, metadata !DIExpression()), !dbg !210
  %_3 = icmp ult i64 %self, %slice.1, !dbg !211
  br i1 %_3, label %bb1, label %bb2, !dbg !211

bb2:                                              ; preds = %start
  %4 = bitcast i8** %1 to {}**, !dbg !212
  store {}* null, {}** %4, align 8, !dbg !212
  br label %bb3, !dbg !213

bb1:                                              ; preds = %start
  store i64 %self, i64* %self.dbg.spill1, align 8, !dbg !214
  call void @llvm.dbg.declare(metadata i64* %self.dbg.spill1, metadata !215, metadata !DIExpression()), !dbg !222
  %5 = getelementptr inbounds { [0 x i8]*, i64 }, { [0 x i8]*, i64 }* %slice.dbg.spill2, i32 0, i32 0, !dbg !223
  store [0 x i8]* %slice.0, [0 x i8]** %5, align 8, !dbg !223
  %6 = getelementptr inbounds { [0 x i8]*, i64 }, { [0 x i8]*, i64 }* %slice.dbg.spill2, i32 0, i32 1, !dbg !223
  store i64 %slice.1, i64* %6, align 8, !dbg !223
  call void @llvm.dbg.declare(metadata { [0 x i8]*, i64 }* %slice.dbg.spill2, metadata !218, metadata !DIExpression()), !dbg !222
  %7 = getelementptr inbounds { [0 x i8]*, i64 }, { [0 x i8]*, i64 }* %self.dbg.spill3, i32 0, i32 0, !dbg !222
  store [0 x i8]* %slice.0, [0 x i8]** %7, align 8, !dbg !222
  %8 = getelementptr inbounds { [0 x i8]*, i64 }, { [0 x i8]*, i64 }* %self.dbg.spill3, i32 0, i32 1, !dbg !222
  store i64 %slice.1, i64* %8, align 8, !dbg !222
  call void @llvm.dbg.declare(metadata { [0 x i8]*, i64 }* %self.dbg.spill3, metadata !224, metadata !DIExpression()), !dbg !228
  %self4 = bitcast [0 x i8]* %slice.0 to i8*, !dbg !228
  store i8* %self4, i8** %self.dbg.spill5, align 8, !dbg !228
  call void @llvm.dbg.declare(metadata i8** %self.dbg.spill5, metadata !230, metadata !DIExpression()), !dbg !235
  store i64 %self, i64* %count.dbg.spill, align 8, !dbg !222
  call void @llvm.dbg.declare(metadata i64* %count.dbg.spill, metadata !234, metadata !DIExpression()), !dbg !235
  store i8* %self4, i8** %self.dbg.spill6, align 8, !dbg !235
  call void @llvm.dbg.declare(metadata i8** %self.dbg.spill6, metadata !236, metadata !DIExpression()), !dbg !241
  store i64 %self, i64* %count.dbg.spill7, align 8, !dbg !235
  call void @llvm.dbg.declare(metadata i64* %count.dbg.spill7, metadata !240, metadata !DIExpression()), !dbg !241
  %9 = getelementptr inbounds i8, i8* %self4, i64 %self, !dbg !241
  store i8* %9, i8** %0, align 8, !dbg !241
  %_9 = load i8*, i8** %0, align 8, !dbg !241
  br label %bb4, !dbg !241

bb4:                                              ; preds = %bb1
  store i8* %_9, i8** %1, align 8, !dbg !243
  br label %bb3, !dbg !213

bb3:                                              ; preds = %bb2, %bb4
  %10 = load i8*, i8** %1, align 8, !dbg !244, !align !135
  ret i8* %10, !dbg !244
}

; unicode_ident::is_xid_start
; Function Attrs: nonlazybind uwtable
define zeroext i1 @_ZN13unicode_ident12is_xid_start17h65663c2d7b278ffbE(i32 %0) unnamed_addr #1 !dbg !245 {
start:
  %1 = alloca i8, align 1
  %rhs.dbg.spill.i = alloca i32, align 4
  %self.dbg.spill.i = alloca i8, align 1
  %offset.dbg.spill = alloca i64, align 8
  %chunk.dbg.spill = alloca i8, align 1
  %2 = alloca i8, align 1
  %ch = alloca i32, align 4
  store i32 %0, i32* %ch, align 4
  call void @llvm.dbg.declare(metadata i32* %ch, metadata !250, metadata !DIExpression()), !dbg !255
; call core::char::methods::<impl char>::is_ascii
  %_2 = call zeroext i1 @"_ZN4core4char7methods22_$LT$impl$u20$char$GT$8is_ascii17ha6d0c51c8761f2aaE"(i32* align 4 %ch), !dbg !256
  br label %bb1, !dbg !256

bb1:                                              ; preds = %start
  br i1 %_2, label %bb2, label %bb4, !dbg !256

bb4:                                              ; preds = %bb1
  %_18 = load i32, i32* %ch, align 4, !dbg !257, !range !70, !noundef !67
  %_17 = zext i32 %_18 to i64, !dbg !257
  %_16 = udiv i64 %_17, 8, !dbg !257
  %_15 = udiv i64 %_16, 64, !dbg !257
; call core::slice::<impl [T]>::get
  %_11 = call align 1 i8* @"_ZN4core5slice29_$LT$impl$u20$$u5b$T$u5d$$GT$3get17h7d951c0c71cd221aE"([0 x i8]* align 1 bitcast (<{ [402 x i8], [6 x i8] }>* @_ZN13unicode_ident6tables10TRIE_START17h6d78c345c34d45d5E to [0 x i8]*), i64 402, i64 %_15), !dbg !258
  br label %bb5, !dbg !258

bb2:                                              ; preds = %bb1
  %_6 = load i32, i32* %ch, align 4, !dbg !259, !range !70, !noundef !67
  %_5 = zext i32 %_6 to i64, !dbg !259
  %_8 = icmp ult i64 %_5, 128, !dbg !260
  %3 = call i1 @llvm.expect.i1(i1 %_8, i1 true), !dbg !260
  br i1 %3, label %bb3, label %panic, !dbg !260

bb3:                                              ; preds = %bb2
  %4 = getelementptr inbounds [128 x i8], [128 x i8]* getelementptr inbounds (%"tables::Align64<[bool; 128]>", %"tables::Align64<[bool; 128]>"* bitcast (<{ [128 x i8] }>* @_ZN13unicode_ident6tables11ASCII_START17hfc0fe11ca7923adcE to %"tables::Align64<[bool; 128]>"*), i32 0, i32 0), i64 0, i64 %_5, !dbg !260
  %5 = load i8, i8* %4, align 1, !dbg !260, !range !140, !noundef !67
  %6 = trunc i8 %5 to i1, !dbg !260
  %7 = zext i1 %6 to i8, !dbg !260
  store i8 %7, i8* %2, align 1, !dbg !260
  br label %bb11, !dbg !261

panic:                                            ; preds = %bb2
; call core::panicking::panic_bounds_check
  call void @_ZN4core9panicking18panic_bounds_check17h66852fee8138fdc4E(i64 %_5, i64 128, %"core::panic::location::Location"* align 8 bitcast (<{ i8*, [16 x i8] }>* @alloc33 to %"core::panic::location::Location"*)) #5, !dbg !260
  unreachable, !dbg !260

bb11:                                             ; preds = %bb10, %bb3
  %8 = load i8, i8* %2, align 1, !dbg !261, !range !140, !noundef !67
  %9 = trunc i8 %8 to i1, !dbg !261
  ret i1 %9, !dbg !261

bb5:                                              ; preds = %bb4
; call core::option::Option<T>::unwrap_or
  %_10 = call align 1 i8* @"_ZN4core6option15Option$LT$T$GT$9unwrap_or17hec137c6653bce853E"(i8* align 1 %_11, i8* align 1 getelementptr inbounds (<{ [1 x i8] }>, <{ [1 x i8] }>* @alloc30, i32 0, i32 0, i32 0)), !dbg !258
  br label %bb6, !dbg !258

bb6:                                              ; preds = %bb5
  %chunk = load i8, i8* %_10, align 1, !dbg !262
  store i8 %chunk, i8* %chunk.dbg.spill, align 1, !dbg !262
  call void @llvm.dbg.declare(metadata i8* %chunk.dbg.spill, metadata !251, metadata !DIExpression()), !dbg !263
  %_24 = zext i8 %chunk to i64, !dbg !264
  %10 = call { i64, i1 } @llvm.umul.with.overflow.i64(i64 %_24, i64 64), !dbg !264
  %_26.0 = extractvalue { i64, i1 } %10, 0, !dbg !264
  %_26.1 = extractvalue { i64, i1 } %10, 1, !dbg !264
  %11 = call i1 @llvm.expect.i1(i1 %_26.1, i1 false), !dbg !264
  br i1 %11, label %panic1, label %bb7, !dbg !264

bb7:                                              ; preds = %bb6
  %_22 = udiv i64 %_26.0, 2, !dbg !264
  %_30 = load i32, i32* %ch, align 4, !dbg !265, !range !70, !noundef !67
  %_29 = zext i32 %_30 to i64, !dbg !265
  %_28 = udiv i64 %_29, 8, !dbg !265
  %_27 = urem i64 %_28, 64, !dbg !265
  %12 = call { i64, i1 } @llvm.uadd.with.overflow.i64(i64 %_22, i64 %_27), !dbg !264
  %_31.0 = extractvalue { i64, i1 } %12, 0, !dbg !264
  %_31.1 = extractvalue { i64, i1 } %12, 1, !dbg !264
  %13 = call i1 @llvm.expect.i1(i1 %_31.1, i1 false), !dbg !264
  br i1 %13, label %panic2, label %bb8, !dbg !264

panic1:                                           ; preds = %bb6
; call core::panicking::panic
  call void @_ZN4core9panicking5panic17hf5844c0338bd061cE([0 x i8]* align 1 bitcast ([33 x i8]* @str.0 to [0 x i8]*), i64 33, %"core::panic::location::Location"* align 8 bitcast (<{ i8*, [16 x i8] }>* @alloc35 to %"core::panic::location::Location"*)) #5, !dbg !264
  unreachable, !dbg !264

bb8:                                              ; preds = %bb7
  store i64 %_31.0, i64* %offset.dbg.spill, align 8, !dbg !264
  call void @llvm.dbg.declare(metadata i64* %offset.dbg.spill, metadata !253, metadata !DIExpression()), !dbg !266
; call core::slice::<impl [T]>::get_unchecked
  %_35 = call align 1 i8* @"_ZN4core5slice29_$LT$impl$u20$$u5b$T$u5d$$GT$13get_unchecked17h758975d9483e0323E"([0 x i8]* align 1 bitcast (<{ [7904 x i8], [32 x i8] }>* @_ZN13unicode_ident6tables4LEAF17hee431b6d117aa602E to [0 x i8]*), i64 7904, i64 %_31.0), !dbg !267
  br label %bb9, !dbg !267

panic2:                                           ; preds = %bb7
; call core::panicking::panic
  call void @_ZN4core9panicking5panic17hf5844c0338bd061cE([0 x i8]* align 1 bitcast ([28 x i8]* @str.1 to [0 x i8]*), i64 28, %"core::panic::location::Location"* align 8 bitcast (<{ i8*, [16 x i8] }>* @alloc35 to %"core::panic::location::Location"*)) #5, !dbg !264
  unreachable, !dbg !264

bb9:                                              ; preds = %bb8
  %_34 = load i8, i8* %_35, align 1, !dbg !267
  %_42 = load i32, i32* %ch, align 4, !dbg !268, !range !70, !noundef !67
  %_40 = urem i32 %_42, 8, !dbg !268
  store i8 %_34, i8* %self.dbg.spill.i, align 1
  call void @llvm.dbg.declare(metadata i8* %self.dbg.spill.i, metadata !269, metadata !DIExpression()), !dbg !279
  store i32 %_40, i32* %rhs.dbg.spill.i, align 4
  call void @llvm.dbg.declare(metadata i32* %rhs.dbg.spill.i, metadata !278, metadata !DIExpression()), !dbg !281
  %_5.i = and i32 %_40, 7, !dbg !282
  %_4.i = trunc i32 %_5.i to i8, !dbg !282
  %14 = lshr i8 %_34, %_4.i, !dbg !283
  store i8 %14, i8* %1, align 1, !dbg !283
  %15 = load i8, i8* %1, align 1, !dbg !283
  br label %bb10, !dbg !284

bb10:                                             ; preds = %bb9
  %_32 = and i8 %15, 1, !dbg !284
  %16 = icmp ne i8 %_32, 0, !dbg !284
  %17 = zext i1 %16 to i8, !dbg !284
  store i8 %17, i8* %2, align 1, !dbg !284
  br label %bb11, !dbg !261
}

; unicode_ident::is_xid_continue
; Function Attrs: nonlazybind uwtable
define zeroext i1 @_ZN13unicode_ident15is_xid_continue17he6abddd54891004cE(i32 %0) unnamed_addr #1 !dbg !285 {
start:
  %1 = alloca i8, align 1
  %rhs.dbg.spill.i = alloca i32, align 4
  %self.dbg.spill.i = alloca i8, align 1
  %offset.dbg.spill = alloca i64, align 8
  %chunk.dbg.spill = alloca i8, align 1
  %2 = alloca i8, align 1
  %ch = alloca i32, align 4
  store i32 %0, i32* %ch, align 4
  call void @llvm.dbg.declare(metadata i32* %ch, metadata !287, metadata !DIExpression()), !dbg !292
; call core::char::methods::<impl char>::is_ascii
  %_2 = call zeroext i1 @"_ZN4core4char7methods22_$LT$impl$u20$char$GT$8is_ascii17ha6d0c51c8761f2aaE"(i32* align 4 %ch), !dbg !293
  br label %bb1, !dbg !293

bb1:                                              ; preds = %start
  br i1 %_2, label %bb2, label %bb4, !dbg !293

bb4:                                              ; preds = %bb1
  %_18 = load i32, i32* %ch, align 4, !dbg !294, !range !70, !noundef !67
  %_17 = zext i32 %_18 to i64, !dbg !294
  %_16 = udiv i64 %_17, 8, !dbg !294
  %_15 = udiv i64 %_16, 64, !dbg !294
; call core::slice::<impl [T]>::get
  %_11 = call align 1 i8* @"_ZN4core5slice29_$LT$impl$u20$$u5b$T$u5d$$GT$3get17h7d951c0c71cd221aE"([0 x i8]* align 1 bitcast (<{ [1793 x i8], [7 x i8] }>* @_ZN13unicode_ident6tables13TRIE_CONTINUE17h7681533a737d62c9E to [0 x i8]*), i64 1793, i64 %_15), !dbg !295
  br label %bb5, !dbg !295

bb2:                                              ; preds = %bb1
  %_6 = load i32, i32* %ch, align 4, !dbg !296, !range !70, !noundef !67
  %_5 = zext i32 %_6 to i64, !dbg !296
  %_8 = icmp ult i64 %_5, 128, !dbg !297
  %3 = call i1 @llvm.expect.i1(i1 %_8, i1 true), !dbg !297
  br i1 %3, label %bb3, label %panic, !dbg !297

bb3:                                              ; preds = %bb2
  %4 = getelementptr inbounds [128 x i8], [128 x i8]* getelementptr inbounds (%"tables::Align64<[bool; 128]>", %"tables::Align64<[bool; 128]>"* bitcast (<{ [128 x i8] }>* @_ZN13unicode_ident6tables14ASCII_CONTINUE17he78b3f1f79437491E to %"tables::Align64<[bool; 128]>"*), i32 0, i32 0), i64 0, i64 %_5, !dbg !297
  %5 = load i8, i8* %4, align 1, !dbg !297, !range !140, !noundef !67
  %6 = trunc i8 %5 to i1, !dbg !297
  %7 = zext i1 %6 to i8, !dbg !297
  store i8 %7, i8* %2, align 1, !dbg !297
  br label %bb11, !dbg !298

panic:                                            ; preds = %bb2
; call core::panicking::panic_bounds_check
  call void @_ZN4core9panicking18panic_bounds_check17h66852fee8138fdc4E(i64 %_5, i64 128, %"core::panic::location::Location"* align 8 bitcast (<{ i8*, [16 x i8] }>* @alloc37 to %"core::panic::location::Location"*)) #5, !dbg !297
  unreachable, !dbg !297

bb11:                                             ; preds = %bb10, %bb3
  %8 = load i8, i8* %2, align 1, !dbg !298, !range !140, !noundef !67
  %9 = trunc i8 %8 to i1, !dbg !298
  ret i1 %9, !dbg !298

bb5:                                              ; preds = %bb4
; call core::option::Option<T>::unwrap_or
  %_10 = call align 1 i8* @"_ZN4core6option15Option$LT$T$GT$9unwrap_or17hec137c6653bce853E"(i8* align 1 %_11, i8* align 1 getelementptr inbounds (<{ [1 x i8] }>, <{ [1 x i8] }>* @alloc30, i32 0, i32 0, i32 0)), !dbg !295
  br label %bb6, !dbg !295

bb6:                                              ; preds = %bb5
  %chunk = load i8, i8* %_10, align 1, !dbg !299
  store i8 %chunk, i8* %chunk.dbg.spill, align 1, !dbg !299
  call void @llvm.dbg.declare(metadata i8* %chunk.dbg.spill, metadata !288, metadata !DIExpression()), !dbg !300
  %_24 = zext i8 %chunk to i64, !dbg !301
  %10 = call { i64, i1 } @llvm.umul.with.overflow.i64(i64 %_24, i64 64), !dbg !301
  %_26.0 = extractvalue { i64, i1 } %10, 0, !dbg !301
  %_26.1 = extractvalue { i64, i1 } %10, 1, !dbg !301
  %11 = call i1 @llvm.expect.i1(i1 %_26.1, i1 false), !dbg !301
  br i1 %11, label %panic1, label %bb7, !dbg !301

bb7:                                              ; preds = %bb6
  %_22 = udiv i64 %_26.0, 2, !dbg !301
  %_30 = load i32, i32* %ch, align 4, !dbg !302, !range !70, !noundef !67
  %_29 = zext i32 %_30 to i64, !dbg !302
  %_28 = udiv i64 %_29, 8, !dbg !302
  %_27 = urem i64 %_28, 64, !dbg !302
  %12 = call { i64, i1 } @llvm.uadd.with.overflow.i64(i64 %_22, i64 %_27), !dbg !301
  %_31.0 = extractvalue { i64, i1 } %12, 0, !dbg !301
  %_31.1 = extractvalue { i64, i1 } %12, 1, !dbg !301
  %13 = call i1 @llvm.expect.i1(i1 %_31.1, i1 false), !dbg !301
  br i1 %13, label %panic2, label %bb8, !dbg !301

panic1:                                           ; preds = %bb6
; call core::panicking::panic
  call void @_ZN4core9panicking5panic17hf5844c0338bd061cE([0 x i8]* align 1 bitcast ([33 x i8]* @str.0 to [0 x i8]*), i64 33, %"core::panic::location::Location"* align 8 bitcast (<{ i8*, [16 x i8] }>* @alloc39 to %"core::panic::location::Location"*)) #5, !dbg !301
  unreachable, !dbg !301

bb8:                                              ; preds = %bb7
  store i64 %_31.0, i64* %offset.dbg.spill, align 8, !dbg !301
  call void @llvm.dbg.declare(metadata i64* %offset.dbg.spill, metadata !290, metadata !DIExpression()), !dbg !303
; call core::slice::<impl [T]>::get_unchecked
  %_35 = call align 1 i8* @"_ZN4core5slice29_$LT$impl$u20$$u5b$T$u5d$$GT$13get_unchecked17h758975d9483e0323E"([0 x i8]* align 1 bitcast (<{ [7904 x i8], [32 x i8] }>* @_ZN13unicode_ident6tables4LEAF17hee431b6d117aa602E to [0 x i8]*), i64 7904, i64 %_31.0), !dbg !304
  br label %bb9, !dbg !304

panic2:                                           ; preds = %bb7
; call core::panicking::panic
  call void @_ZN4core9panicking5panic17hf5844c0338bd061cE([0 x i8]* align 1 bitcast ([28 x i8]* @str.1 to [0 x i8]*), i64 28, %"core::panic::location::Location"* align 8 bitcast (<{ i8*, [16 x i8] }>* @alloc39 to %"core::panic::location::Location"*)) #5, !dbg !301
  unreachable, !dbg !301

bb9:                                              ; preds = %bb8
  %_34 = load i8, i8* %_35, align 1, !dbg !304
  %_42 = load i32, i32* %ch, align 4, !dbg !305, !range !70, !noundef !67
  %_40 = urem i32 %_42, 8, !dbg !305
  store i8 %_34, i8* %self.dbg.spill.i, align 1
  call void @llvm.dbg.declare(metadata i8* %self.dbg.spill.i, metadata !269, metadata !DIExpression()), !dbg !306
  store i32 %_40, i32* %rhs.dbg.spill.i, align 4
  call void @llvm.dbg.declare(metadata i32* %rhs.dbg.spill.i, metadata !278, metadata !DIExpression()), !dbg !308
  %_5.i = and i32 %_40, 7, !dbg !309
  %_4.i = trunc i32 %_5.i to i8, !dbg !309
  %14 = lshr i8 %_34, %_4.i, !dbg !310
  store i8 %14, i8* %1, align 1, !dbg !310
  %15 = load i8, i8* %1, align 1, !dbg !310
  br label %bb10, !dbg !311

bb10:                                             ; preds = %bb9
  %_32 = and i8 %15, 1, !dbg !311
  %16 = icmp ne i8 %_32, 0, !dbg !311
  %17 = zext i1 %16 to i8, !dbg !311
  store i8 %17, i8* %2, align 1, !dbg !311
  br label %bb11, !dbg !298
}

; Function Attrs: nofree nosync nounwind readnone speculatable willreturn
declare void @llvm.dbg.declare(metadata, metadata, metadata) #2

; Function Attrs: nofree nosync nounwind readnone willreturn
declare i1 @llvm.expect.i1(i1, i1) #3

; core::panicking::panic_bounds_check
; Function Attrs: cold noinline noreturn nonlazybind uwtable
declare void @_ZN4core9panicking18panic_bounds_check17h66852fee8138fdc4E(i64, i64, %"core::panic::location::Location"* align 8) unnamed_addr #4

; Function Attrs: nofree nosync nounwind readnone speculatable willreturn
declare { i64, i1 } @llvm.umul.with.overflow.i64(i64, i64) #2

; core::panicking::panic
; Function Attrs: cold noinline noreturn nonlazybind uwtable
declare void @_ZN4core9panicking5panic17hf5844c0338bd061cE([0 x i8]* align 1, i64, %"core::panic::location::Location"* align 8) unnamed_addr #4

; Function Attrs: nofree nosync nounwind readnone speculatable willreturn
declare { i64, i1 } @llvm.uadd.with.overflow.i64(i64, i64) #2

attributes #0 = { inlinehint nonlazybind uwtable "probe-stack"="__rust_probestack" "target-cpu"="x86-64" }
attributes #1 = { nonlazybind uwtable "probe-stack"="__rust_probestack" "target-cpu"="x86-64" }
attributes #2 = { nofree nosync nounwind readnone speculatable willreturn }
attributes #3 = { nofree nosync nounwind readnone willreturn }
attributes #4 = { cold noinline noreturn nonlazybind uwtable "probe-stack"="__rust_probestack" "target-cpu"="x86-64" }
attributes #5 = { noreturn }

!llvm.module.flags = !{!48, !49, !50, !51}
!llvm.dbg.cu = !{!52}

!0 = !DIGlobalVariableExpression(var: !1, expr: !DIExpression())
!1 = distinct !DIGlobalVariable(name: "ASCII_START", linkageName: "_ZN13unicode_ident6tables11ASCII_START17hfc0fe11ca7923adcE", scope: !2, file: !4, line: 15, type: !5, isLocal: true, isDefinition: true, align: 512)
!2 = !DINamespace(name: "tables", scope: !3)
!3 = !DINamespace(name: "unicode_ident", scope: null)
!4 = !DIFile(filename: "src/tables.rs", directory: "/home/calvin/.cargo/registry/src/github.com-1ecc6299db9ec823/unicode-ident-1.0.18", checksumkind: CSK_MD5, checksum: "1c6e8e9b61de10abbda91425158c563d")
!5 = !DICompositeType(tag: DW_TAG_structure_type, name: "Align64<[bool; 128]>", scope: !2, file: !6, size: 1024, align: 512, elements: !7, templateParams: !13, identifier: "1f5a1c77550f8eb2ef5307c8adb19368")
!6 = !DIFile(filename: "<unknown>", directory: "")
!7 = !{!8}
!8 = !DIDerivedType(tag: DW_TAG_member, name: "__0", scope: !5, file: !6, baseType: !9, size: 1024, align: 8)
!9 = !DICompositeType(tag: DW_TAG_array_type, baseType: !10, size: 1024, align: 8, elements: !11)
!10 = !DIBasicType(name: "bool", size: 8, encoding: DW_ATE_boolean)
!11 = !{!12}
!12 = !DISubrange(count: 128, lowerBound: 0)
!13 = !{!14}
!14 = !DITemplateTypeParameter(name: "T", type: !9)
!15 = !DIGlobalVariableExpression(var: !16, expr: !DIExpression())
!16 = distinct !DIGlobalVariable(name: "ASCII_CONTINUE", linkageName: "_ZN13unicode_ident6tables14ASCII_CONTINUE17he78b3f1f79437491E", scope: !2, file: !4, line: 22, type: !5, isLocal: true, isDefinition: true, align: 512)
!17 = !DIGlobalVariableExpression(var: !18, expr: !DIExpression())
!18 = distinct !DIGlobalVariable(name: "TRIE_START", linkageName: "_ZN13unicode_ident6tables10TRIE_START17h6d78c345c34d45d5E", scope: !2, file: !4, line: 31, type: !19, isLocal: true, isDefinition: true, align: 64)
!19 = !DICompositeType(tag: DW_TAG_structure_type, name: "Align8<[u8; 402]>", scope: !2, file: !6, size: 3264, align: 64, elements: !20, templateParams: !26, identifier: "46bbb78596159f04b3b9ffc8c948a477")
!20 = !{!21}
!21 = !DIDerivedType(tag: DW_TAG_member, name: "__0", scope: !19, file: !6, baseType: !22, size: 3216, align: 8)
!22 = !DICompositeType(tag: DW_TAG_array_type, baseType: !23, size: 3216, align: 8, elements: !24)
!23 = !DIBasicType(name: "u8", size: 8, encoding: DW_ATE_unsigned)
!24 = !{!25}
!25 = !DISubrange(count: 402, lowerBound: 0)
!26 = !{!27}
!27 = !DITemplateTypeParameter(name: "T", type: !22)
!28 = !DIGlobalVariableExpression(var: !29, expr: !DIExpression())
!29 = distinct !DIGlobalVariable(name: "TRIE_CONTINUE", linkageName: "_ZN13unicode_ident6tables13TRIE_CONTINUE17h7681533a737d62c9E", scope: !2, file: !4, line: 60, type: !30, isLocal: true, isDefinition: true, align: 64)
!30 = !DICompositeType(tag: DW_TAG_structure_type, name: "Align8<[u8; 1793]>", scope: !2, file: !6, size: 14400, align: 64, elements: !31, templateParams: !36, identifier: "bbf966aac6f2e2f3a6374a336f5c4532")
!31 = !{!32}
!32 = !DIDerivedType(tag: DW_TAG_member, name: "__0", scope: !30, file: !6, baseType: !33, size: 14344, align: 8)
!33 = !DICompositeType(tag: DW_TAG_array_type, baseType: !23, size: 14344, align: 8, elements: !34)
!34 = !{!35}
!35 = !DISubrange(count: 1793, lowerBound: 0)
!36 = !{!37}
!37 = !DITemplateTypeParameter(name: "T", type: !33)
!38 = !DIGlobalVariableExpression(var: !39, expr: !DIExpression())
!39 = distinct !DIGlobalVariable(name: "LEAF", linkageName: "_ZN13unicode_ident6tables4LEAF17hee431b6d117aa602E", scope: !2, file: !4, line: 176, type: !40, isLocal: true, isDefinition: true, align: 512)
!40 = !DICompositeType(tag: DW_TAG_structure_type, name: "Align64<[u8; 7904]>", scope: !2, file: !6, size: 63488, align: 512, elements: !41, templateParams: !46, identifier: "5a0844e169bd96381f2f2834922eaf1")
!41 = !{!42}
!42 = !DIDerivedType(tag: DW_TAG_member, name: "__0", scope: !40, file: !6, baseType: !43, size: 63232, align: 8)
!43 = !DICompositeType(tag: DW_TAG_array_type, baseType: !23, size: 63232, align: 8, elements: !44)
!44 = !{!45}
!45 = !DISubrange(count: 7904, lowerBound: 0)
!46 = !{!47}
!47 = !DITemplateTypeParameter(name: "T", type: !43)
!48 = !{i32 7, !"PIC Level", i32 2}
!49 = !{i32 2, !"RtLibUseGOT", i32 1}
!50 = !{i32 2, !"Dwarf Version", i32 4}
!51 = !{i32 2, !"Debug Info Version", i32 3}
!52 = distinct !DICompileUnit(language: DW_LANG_Rust, file: !53, producer: "clang LLVM (rustc version 1.65.0-nightly (d394408fb 2022-08-07))", isOptimized: false, runtimeVersion: 0, emissionKind: FullDebug, globals: !54)
!53 = !DIFile(filename: "/home/calvin/.cargo/registry/src/github.com-1ecc6299db9ec823/unicode-ident-1.0.18/src/lib.rs/@/unicode_ident.b0a01f0e-cgu.0", directory: "/home/calvin/.cargo/registry/src/github.com-1ecc6299db9ec823/unicode-ident-1.0.18")
!54 = !{!0, !15, !17, !28, !38}
!55 = distinct !DISubprogram(name: "is_ascii", linkageName: "_ZN4core4char7methods22_$LT$impl$u20$char$GT$8is_ascii17ha6d0c51c8761f2aaE", scope: !57, file: !56, line: 1109, type: !61, scopeLine: 1109, flags: DIFlagPrototyped, spFlags: DISPFlagLocalToUnit | DISPFlagDefinition, unit: !52, templateParams: !67, retainedNodes: !65)
!56 = !DIFile(filename: "/rustc/d394408fb38c4de61f765a3ed5189d2731a1da91/library/core/src/char/methods.rs", directory: "", checksumkind: CSK_MD5, checksum: "f022f296c6d29fd4ac1963268a3eecbc")
!57 = !DINamespace(name: "{impl#0}", scope: !58)
!58 = !DINamespace(name: "methods", scope: !59)
!59 = !DINamespace(name: "char", scope: !60)
!60 = !DINamespace(name: "core", scope: null)
!61 = !DISubroutineType(types: !62)
!62 = !{!10, !63}
!63 = !DIDerivedType(tag: DW_TAG_pointer_type, name: "&char", baseType: !64, size: 64, align: 64, dwarfAddressSpace: 0)
!64 = !DIBasicType(name: "char", size: 32, encoding: DW_ATE_UTF)
!65 = !{!66}
!66 = !DILocalVariable(name: "self", arg: 1, scope: !55, file: !56, line: 1109, type: !63)
!67 = !{}
!68 = !DILocation(line: 1109, column: 27, scope: !55)
!69 = !DILocation(line: 1110, column: 9, scope: !55)
!70 = !{i32 0, i32 1114112}
!71 = !DILocation(line: 1111, column: 6, scope: !55)
!72 = distinct !DISubprogram(name: "get_unchecked<u8, usize>", linkageName: "_ZN4core5slice29_$LT$impl$u20$$u5b$T$u5d$$GT$13get_unchecked17h758975d9483e0323E", scope: !74, file: !73, line: 398, type: !76, scopeLine: 398, flags: DIFlagPrototyped, spFlags: DISPFlagLocalToUnit | DISPFlagDefinition, unit: !52, templateParams: !88, retainedNodes: !85)
!73 = !DIFile(filename: "/rustc/d394408fb38c4de61f765a3ed5189d2731a1da91/library/core/src/slice/mod.rs", directory: "", checksumkind: CSK_MD5, checksum: "7e4712ab5341970456c5be6b0829b712")
!74 = !DINamespace(name: "{impl#0}", scope: !75)
!75 = !DINamespace(name: "slice", scope: !60)
!76 = !DISubroutineType(types: !77)
!77 = !{!78, !79, !84}
!78 = !DIDerivedType(tag: DW_TAG_pointer_type, name: "&u8", baseType: !23, size: 64, align: 64, dwarfAddressSpace: 0)
!79 = !DICompositeType(tag: DW_TAG_structure_type, name: "&[u8]", file: !6, size: 128, align: 64, elements: !80, templateParams: !67, identifier: "7d49e60d2ca720f66806f7375f860e2")
!80 = !{!81, !83}
!81 = !DIDerivedType(tag: DW_TAG_member, name: "data_ptr", scope: !79, file: !6, baseType: !82, size: 64, align: 64)
!82 = !DIDerivedType(tag: DW_TAG_pointer_type, baseType: !23, size: 64, align: 64, dwarfAddressSpace: 0)
!83 = !DIDerivedType(tag: DW_TAG_member, name: "length", scope: !79, file: !6, baseType: !84, size: 64, align: 64, offset: 64)
!84 = !DIBasicType(name: "usize", size: 64, encoding: DW_ATE_unsigned)
!85 = !{!86, !87}
!86 = !DILocalVariable(name: "self", arg: 1, scope: !72, file: !73, line: 398, type: !79)
!87 = !DILocalVariable(name: "index", arg: 2, scope: !72, file: !73, line: 398, type: !84)
!88 = !{!89, !90}
!89 = !DITemplateTypeParameter(name: "T", type: !23)
!90 = !DITemplateTypeParameter(name: "I", type: !84)
!91 = !DILocation(line: 398, column: 42, scope: !72)
!92 = !DILocation(line: 398, column: 49, scope: !72)
!93 = !DILocation(line: 405, column: 20, scope: !72)
!94 = !DILocation(line: 406, column: 6, scope: !72)
!95 = distinct !DISubprogram(name: "get<u8, usize>", linkageName: "_ZN4core5slice29_$LT$impl$u20$$u5b$T$u5d$$GT$3get17h7d951c0c71cd221aE", scope: !74, file: !73, line: 339, type: !96, scopeLine: 339, flags: DIFlagPrototyped, spFlags: DISPFlagLocalToUnit | DISPFlagDefinition, unit: !52, templateParams: !88, retainedNodes: !113)
!96 = !DISubroutineType(types: !97)
!97 = !{!98, !79, !84}
!98 = !DICompositeType(tag: DW_TAG_structure_type, name: "Option<&u8>", scope: !99, file: !6, size: 64, align: 64, elements: !100, templateParams: !67, identifier: "bbf278434900ebc767cf4d1ba91a7023")
!99 = !DINamespace(name: "option", scope: !60)
!100 = !{!101}
!101 = !DICompositeType(tag: DW_TAG_variant_part, scope: !98, file: !6, size: 64, align: 64, elements: !102, templateParams: !67, identifier: "101fb69dcd65b49303b4d10b55dcffb", discriminator: !111)
!102 = !{!103, !107}
!103 = !DIDerivedType(tag: DW_TAG_member, name: "None", scope: !101, file: !6, baseType: !104, size: 64, align: 64, extraData: i64 0)
!104 = !DICompositeType(tag: DW_TAG_structure_type, name: "None", scope: !98, file: !6, size: 64, align: 64, elements: !67, templateParams: !105, identifier: "bd32561e41222bd8701ecbec194b1aa7")
!105 = !{!106}
!106 = !DITemplateTypeParameter(name: "T", type: !78)
!107 = !DIDerivedType(tag: DW_TAG_member, name: "Some", scope: !101, file: !6, baseType: !108, size: 64, align: 64)
!108 = !DICompositeType(tag: DW_TAG_structure_type, name: "Some", scope: !98, file: !6, size: 64, align: 64, elements: !109, templateParams: !105, identifier: "728806a049c182f2a5c33d7fd0303de1")
!109 = !{!110}
!110 = !DIDerivedType(tag: DW_TAG_member, name: "__0", scope: !108, file: !6, baseType: !78, size: 64, align: 64)
!111 = !DIDerivedType(tag: DW_TAG_member, scope: !98, file: !6, baseType: !112, size: 64, align: 64, flags: DIFlagArtificial)
!112 = !DIBasicType(name: "u64", size: 64, encoding: DW_ATE_unsigned)
!113 = !{!114, !115}
!114 = !DILocalVariable(name: "self", arg: 1, scope: !95, file: !73, line: 339, type: !79)
!115 = !DILocalVariable(name: "index", arg: 2, scope: !95, file: !73, line: 339, type: !84)
!116 = !DILocation(line: 339, column: 25, scope: !95)
!117 = !DILocation(line: 339, column: 32, scope: !95)
!118 = !DILocation(line: 343, column: 9, scope: !95)
!119 = !DILocation(line: 344, column: 6, scope: !95)
!120 = distinct !DISubprogram(name: "unwrap_or<&u8>", linkageName: "_ZN4core6option15Option$LT$T$GT$9unwrap_or17hec137c6653bce853E", scope: !98, file: !121, line: 796, type: !122, scopeLine: 796, flags: DIFlagPrototyped, spFlags: DISPFlagLocalToUnit | DISPFlagDefinition, unit: !52, templateParams: !105, retainedNodes: !124)
!121 = !DIFile(filename: "/rustc/d394408fb38c4de61f765a3ed5189d2731a1da91/library/core/src/option.rs", directory: "", checksumkind: CSK_MD5, checksum: "86a5483c3993f03690545387e943de77")
!122 = !DISubroutineType(types: !123)
!123 = !{!78, !98, !78}
!124 = !{!125, !126, !127}
!125 = !DILocalVariable(name: "self", arg: 1, scope: !120, file: !121, line: 796, type: !98)
!126 = !DILocalVariable(name: "default", arg: 2, scope: !120, file: !121, line: 796, type: !78)
!127 = !DILocalVariable(name: "x", scope: !128, file: !121, line: 801, type: !78, align: 8)
!128 = distinct !DILexicalBlock(scope: !120, file: !121, line: 801, column: 13)
!129 = !DILocation(line: 796, column: 28, scope: !120)
!130 = !DILocation(line: 796, column: 34, scope: !120)
!131 = !DILocation(line: 800, column: 15, scope: !120)
!132 = !DILocation(line: 800, column: 9, scope: !120)
!133 = !DILocation(line: 802, column: 21, scope: !120)
!134 = !DILocation(line: 801, column: 18, scope: !120)
!135 = !{i64 1}
!136 = !DILocation(line: 801, column: 18, scope: !128)
!137 = !DILocation(line: 801, column: 24, scope: !128)
!138 = !DILocation(line: 801, column: 24, scope: !120)
!139 = !DILocation(line: 804, column: 5, scope: !120)
!140 = !{i8 0, i8 2}
!141 = !DILocation(line: 804, column: 6, scope: !120)
!142 = distinct !DISubprogram(name: "get_unchecked<u8>", linkageName: "_ZN75_$LT$usize$u20$as$u20$core..slice..index..SliceIndex$LT$$u5b$T$u5d$$GT$$GT$13get_unchecked17h1371a45aa2872b8bE", scope: !144, file: !143, line: 219, type: !146, scopeLine: 219, flags: DIFlagPrototyped, spFlags: DISPFlagLocalToUnit | DISPFlagDefinition, unit: !52, templateParams: !167, retainedNodes: !153)
!143 = !DIFile(filename: "/rustc/d394408fb38c4de61f765a3ed5189d2731a1da91/library/core/src/slice/index.rs", directory: "", checksumkind: CSK_MD5, checksum: "22a04328eca3d78fd2bf5357f9150928")
!144 = !DINamespace(name: "{impl#2}", scope: !145)
!145 = !DINamespace(name: "index", scope: !75)
!146 = !DISubroutineType(types: !147)
!147 = !{!148, !84, !149}
!148 = !DIDerivedType(tag: DW_TAG_pointer_type, name: "*const u8", baseType: !23, size: 64, align: 64, dwarfAddressSpace: 0)
!149 = !DICompositeType(tag: DW_TAG_structure_type, name: "*const [u8]", file: !6, size: 128, align: 64, elements: !150, templateParams: !67, identifier: "7b54d414f2f329e57c9aa3e4ca07f4")
!150 = !{!151, !152}
!151 = !DIDerivedType(tag: DW_TAG_member, name: "data_ptr", scope: !149, file: !6, baseType: !82, size: 64, align: 64)
!152 = !DIDerivedType(tag: DW_TAG_member, name: "length", scope: !149, file: !6, baseType: !84, size: 64, align: 64, offset: 64)
!153 = !{!154, !155, !156}
!154 = !DILocalVariable(name: "self", arg: 1, scope: !142, file: !143, line: 219, type: !84)
!155 = !DILocalVariable(name: "slice", arg: 2, scope: !142, file: !143, line: 219, type: !149)
!156 = !DILocalVariable(name: "runtime", scope: !157, file: !143, line: 225, type: !160, align: 8)
!157 = !DILexicalBlockFile(scope: !158, file: !143, discriminator: 0)
!158 = distinct !DILexicalBlock(scope: !142, file: !159, line: 2336, column: 13)
!159 = !DIFile(filename: "/rustc/d394408fb38c4de61f765a3ed5189d2731a1da91/library/core/src/intrinsics.rs", directory: "", checksumkind: CSK_MD5, checksum: "f96ba730d7cf23ae45fdc72e7caf5f1b")
!160 = !DICompositeType(tag: DW_TAG_structure_type, name: "{closure_env#0}<u8>", scope: !161, file: !6, size: 128, align: 64, elements: !162, templateParams: !67, identifier: "7104d3ced1030246c65aea384aa33b26")
!161 = !DINamespace(name: "get_unchecked", scope: !144)
!162 = !{!163, !165}
!163 = !DIDerivedType(tag: DW_TAG_member, name: "_ref__self", scope: !160, file: !6, baseType: !164, size: 64, align: 64)
!164 = !DIDerivedType(tag: DW_TAG_pointer_type, name: "&usize", baseType: !84, size: 64, align: 64, dwarfAddressSpace: 0)
!165 = !DIDerivedType(tag: DW_TAG_member, name: "_ref__slice", scope: !160, file: !6, baseType: !166, size: 64, align: 64, offset: 64)
!166 = !DIDerivedType(tag: DW_TAG_pointer_type, name: "&*const [u8]", baseType: !149, size: 64, align: 64, dwarfAddressSpace: 0)
!167 = !{!89}
!168 = !DILocation(line: 219, column: 29, scope: !142)
!169 = !DILocation(line: 219, column: 35, scope: !142)
!170 = !DILocation(line: 226, column: 13, scope: !142)
!171 = !DILocalVariable(name: "self", scope: !172, file: !143, line: 226, type: !149, align: 8)
!172 = !DILexicalBlockFile(scope: !173, file: !143, discriminator: 0)
!173 = distinct !DISubprogram(name: "as_ptr<u8>", linkageName: "_ZN4core3ptr9const_ptr43_$LT$impl$u20$$BP$const$u20$$u5b$T$u5d$$GT$6as_ptr17hfd30987ce951a4baE", scope: !175, file: !174, line: 1385, type: !178, scopeLine: 1385, flags: DIFlagPrototyped, spFlags: DISPFlagLocalToUnit | DISPFlagDefinition, unit: !52, templateParams: !167, retainedNodes: !180)
!174 = !DIFile(filename: "/rustc/d394408fb38c4de61f765a3ed5189d2731a1da91/library/core/src/ptr/const_ptr.rs", directory: "", checksumkind: CSK_MD5, checksum: "1874e43cb83f8af3048974827047cb9c")
!175 = !DINamespace(name: "{impl#1}", scope: !176)
!176 = !DINamespace(name: "const_ptr", scope: !177)
!177 = !DINamespace(name: "ptr", scope: !60)
!178 = !DISubroutineType(types: !179)
!179 = !{!148, !149}
!180 = !{!171}
!181 = !DILocation(line: 226, column: 13, scope: !172, inlinedAt: !170)
!182 = !DILocalVariable(name: "self", scope: !183, file: !143, line: 226, type: !148, align: 8)
!183 = !DILexicalBlockFile(scope: !184, file: !143, discriminator: 0)
!184 = distinct !DISubprogram(name: "add<u8>", linkageName: "_ZN4core3ptr9const_ptr33_$LT$impl$u20$$BP$const$u20$T$GT$3add17hea9c3276408a6c9cE", scope: !185, file: !174, line: 871, type: !186, scopeLine: 871, flags: DIFlagPrototyped, spFlags: DISPFlagLocalToUnit | DISPFlagDefinition, unit: !52, templateParams: !167, retainedNodes: !188)
!185 = !DINamespace(name: "{impl#0}", scope: !176)
!186 = !DISubroutineType(types: !187)
!187 = !{!148, !148, !84}
!188 = !{!182, !189}
!189 = !DILocalVariable(name: "count", scope: !183, file: !143, line: 226, type: !84, align: 8)
!190 = !DILocation(line: 226, column: 13, scope: !183, inlinedAt: !170)
!191 = !DILocation(line: 226, column: 32, scope: !142)
!192 = !DILocalVariable(name: "self", scope: !193, file: !143, line: 226, type: !148, align: 8)
!193 = !DILexicalBlockFile(scope: !194, file: !143, discriminator: 0)
!194 = distinct !DISubprogram(name: "offset<u8>", linkageName: "_ZN4core3ptr9const_ptr33_$LT$impl$u20$$BP$const$u20$T$GT$6offset17h077faefcecb1fe9cE", scope: !185, file: !174, line: 453, type: !195, scopeLine: 453, flags: DIFlagPrototyped, spFlags: DISPFlagLocalToUnit | DISPFlagDefinition, unit: !52, templateParams: !167, retainedNodes: !198)
!195 = !DISubroutineType(types: !196)
!196 = !{!148, !148, !197}
!197 = !DIBasicType(name: "isize", size: 64, encoding: DW_ATE_signed)
!198 = !{!192, !199}
!199 = !DILocalVariable(name: "count", scope: !193, file: !143, line: 226, type: !197, align: 8)
!200 = !DILocation(line: 226, column: 13, scope: !193, inlinedAt: !201)
!201 = !DILocation(line: 876, column: 18, scope: !184, inlinedAt: !170)
!202 = !DILocation(line: 228, column: 6, scope: !142)
!203 = distinct !DISubprogram(name: "get<u8>", linkageName: "_ZN75_$LT$usize$u20$as$u20$core..slice..index..SliceIndex$LT$$u5b$T$u5d$$GT$$GT$3get17h9ba6b9bbc3bb2c7eE", scope: !144, file: !143, line: 207, type: !204, scopeLine: 207, flags: DIFlagPrototyped, spFlags: DISPFlagLocalToUnit | DISPFlagDefinition, unit: !52, templateParams: !167, retainedNodes: !206)
!204 = !DISubroutineType(types: !205)
!205 = !{!98, !84, !79}
!206 = !{!207, !208}
!207 = !DILocalVariable(name: "self", arg: 1, scope: !203, file: !143, line: 207, type: !84)
!208 = !DILocalVariable(name: "slice", arg: 2, scope: !203, file: !143, line: 207, type: !79)
!209 = !DILocation(line: 207, column: 12, scope: !203)
!210 = !DILocation(line: 207, column: 18, scope: !203)
!211 = !DILocation(line: 209, column: 12, scope: !203)
!212 = !DILocation(line: 209, column: 87, scope: !203)
!213 = !DILocation(line: 209, column: 9, scope: !203)
!214 = !DILocation(line: 209, column: 49, scope: !203)
!215 = !DILocalVariable(name: "self", scope: !216, file: !143, line: 209, type: !84, align: 8)
!216 = distinct !DISubprogram(name: "get_unchecked<u8>", linkageName: "_ZN75_$LT$usize$u20$as$u20$core..slice..index..SliceIndex$LT$$u5b$T$u5d$$GT$$GT$13get_unchecked17h1371a45aa2872b8bE", scope: !144, file: !143, line: 219, type: !146, scopeLine: 219, flags: DIFlagPrototyped, spFlags: DISPFlagLocalToUnit | DISPFlagDefinition, unit: !52, templateParams: !167, retainedNodes: !217)
!217 = !{!215, !218, !219}
!218 = !DILocalVariable(name: "slice", scope: !216, file: !143, line: 209, type: !149, align: 8)
!219 = !DILocalVariable(name: "runtime", scope: !220, file: !143, line: 209, type: !160, align: 8)
!220 = !DILexicalBlockFile(scope: !221, file: !143, discriminator: 0)
!221 = distinct !DILexicalBlock(scope: !216, file: !159, line: 2336, column: 13)
!222 = !DILocation(line: 209, column: 49, scope: !216, inlinedAt: !214)
!223 = !DILocation(line: 209, column: 68, scope: !203)
!224 = !DILocalVariable(name: "self", scope: !225, file: !143, line: 209, type: !149, align: 8)
!225 = !DILexicalBlockFile(scope: !226, file: !143, discriminator: 0)
!226 = distinct !DISubprogram(name: "as_ptr<u8>", linkageName: "_ZN4core3ptr9const_ptr43_$LT$impl$u20$$BP$const$u20$$u5b$T$u5d$$GT$6as_ptr17hfd30987ce951a4baE", scope: !175, file: !174, line: 1385, type: !178, scopeLine: 1385, flags: DIFlagPrototyped, spFlags: DISPFlagLocalToUnit | DISPFlagDefinition, unit: !52, templateParams: !167, retainedNodes: !227)
!227 = !{!224}
!228 = !DILocation(line: 209, column: 49, scope: !225, inlinedAt: !229)
!229 = !DILocation(line: 226, column: 13, scope: !216, inlinedAt: !214)
!230 = !DILocalVariable(name: "self", scope: !231, file: !143, line: 209, type: !148, align: 8)
!231 = !DILexicalBlockFile(scope: !232, file: !143, discriminator: 0)
!232 = distinct !DISubprogram(name: "add<u8>", linkageName: "_ZN4core3ptr9const_ptr33_$LT$impl$u20$$BP$const$u20$T$GT$3add17hea9c3276408a6c9cE", scope: !185, file: !174, line: 871, type: !186, scopeLine: 871, flags: DIFlagPrototyped, spFlags: DISPFlagLocalToUnit | DISPFlagDefinition, unit: !52, templateParams: !167, retainedNodes: !233)
!233 = !{!230, !234}
!234 = !DILocalVariable(name: "count", scope: !231, file: !143, line: 209, type: !84, align: 8)
!235 = !DILocation(line: 209, column: 49, scope: !231, inlinedAt: !229)
!236 = !DILocalVariable(name: "self", scope: !237, file: !143, line: 209, type: !148, align: 8)
!237 = !DILexicalBlockFile(scope: !238, file: !143, discriminator: 0)
!238 = distinct !DISubprogram(name: "offset<u8>", linkageName: "_ZN4core3ptr9const_ptr33_$LT$impl$u20$$BP$const$u20$T$GT$6offset17h077faefcecb1fe9cE", scope: !185, file: !174, line: 453, type: !195, scopeLine: 453, flags: DIFlagPrototyped, spFlags: DISPFlagLocalToUnit | DISPFlagDefinition, unit: !52, templateParams: !167, retainedNodes: !239)
!239 = !{!236, !240}
!240 = !DILocalVariable(name: "count", scope: !237, file: !143, line: 209, type: !197, align: 8)
!241 = !DILocation(line: 209, column: 49, scope: !237, inlinedAt: !242)
!242 = !DILocation(line: 876, column: 18, scope: !232, inlinedAt: !229)
!243 = !DILocation(line: 209, column: 42, scope: !203)
!244 = !DILocation(line: 210, column: 6, scope: !203)
!245 = distinct !DISubprogram(name: "is_xid_start", linkageName: "_ZN13unicode_ident12is_xid_start17h65663c2d7b278ffbE", scope: !3, file: !246, line: 254, type: !247, scopeLine: 254, flags: DIFlagPrototyped, spFlags: DISPFlagDefinition, unit: !52, templateParams: !67, retainedNodes: !249)
!246 = !DIFile(filename: "src/lib.rs", directory: "/home/calvin/.cargo/registry/src/github.com-1ecc6299db9ec823/unicode-ident-1.0.18", checksumkind: CSK_MD5, checksum: "fcdfaa74083a9ec177106080cabd6399")
!247 = !DISubroutineType(types: !248)
!248 = !{!10, !64}
!249 = !{!250, !251, !253}
!250 = !DILocalVariable(name: "ch", arg: 1, scope: !245, file: !246, line: 254, type: !64)
!251 = !DILocalVariable(name: "chunk", scope: !252, file: !246, line: 258, type: !23, align: 1)
!252 = distinct !DILexicalBlock(scope: !245, file: !246, line: 258, column: 5)
!253 = !DILocalVariable(name: "offset", scope: !254, file: !246, line: 259, type: !84, align: 8)
!254 = distinct !DILexicalBlock(scope: !252, file: !246, line: 259, column: 5)
!255 = !DILocation(line: 254, column: 21, scope: !245)
!256 = !DILocation(line: 255, column: 8, scope: !245)
!257 = !DILocation(line: 258, column: 35, scope: !245)
!258 = !DILocation(line: 258, column: 18, scope: !245)
!259 = !DILocation(line: 256, column: 30, scope: !245)
!260 = !DILocation(line: 256, column: 16, scope: !245)
!261 = !DILocation(line: 261, column: 2, scope: !245)
!262 = !DILocation(line: 258, column: 17, scope: !245)
!263 = !DILocation(line: 258, column: 9, scope: !252)
!264 = !DILocation(line: 259, column: 18, scope: !252)
!265 = !DILocation(line: 259, column: 47, scope: !252)
!266 = !DILocation(line: 259, column: 9, scope: !254)
!267 = !DILocation(line: 260, column: 14, scope: !254)
!268 = !DILocation(line: 260, column: 58, scope: !254)
!269 = !DILocalVariable(name: "self", arg: 1, scope: !270, file: !271, line: 1440, type: !23)
!270 = distinct !DISubprogram(name: "wrapping_shr", linkageName: "_ZN4core3num20_$LT$impl$u20$u8$GT$12wrapping_shr17hb543af5d370b36afE", scope: !272, file: !271, line: 1440, type: !274, scopeLine: 1440, flags: DIFlagPrototyped, spFlags: DISPFlagLocalToUnit | DISPFlagDefinition, unit: !52, templateParams: !67, retainedNodes: !277)
!271 = !DIFile(filename: "/rustc/d394408fb38c4de61f765a3ed5189d2731a1da91/library/core/src/num/uint_macros.rs", directory: "", checksumkind: CSK_MD5, checksum: "510cfe98475d713af9de72a29146058c")
!272 = !DINamespace(name: "{impl#6}", scope: !273)
!273 = !DINamespace(name: "num", scope: !60)
!274 = !DISubroutineType(types: !275)
!275 = !{!23, !23, !276}
!276 = !DIBasicType(name: "u32", size: 32, encoding: DW_ATE_unsigned)
!277 = !{!269, !278}
!278 = !DILocalVariable(name: "rhs", arg: 2, scope: !270, file: !271, line: 1440, type: !276)
!279 = !DILocation(line: 1440, column: 35, scope: !270, inlinedAt: !280)
!280 = distinct !DILocation(line: 260, column: 5, scope: !254)
!281 = !DILocation(line: 1440, column: 41, scope: !270, inlinedAt: !280)
!282 = !DILocation(line: 1444, column: 49, scope: !270, inlinedAt: !280)
!283 = !DILocation(line: 1444, column: 17, scope: !270, inlinedAt: !280)
!284 = !DILocation(line: 260, column: 5, scope: !254)
!285 = distinct !DISubprogram(name: "is_xid_continue", linkageName: "_ZN13unicode_ident15is_xid_continue17he6abddd54891004cE", scope: !3, file: !246, line: 264, type: !247, scopeLine: 264, flags: DIFlagPrototyped, spFlags: DISPFlagDefinition, unit: !52, templateParams: !67, retainedNodes: !286)
!286 = !{!287, !288, !290}
!287 = !DILocalVariable(name: "ch", arg: 1, scope: !285, file: !246, line: 264, type: !64)
!288 = !DILocalVariable(name: "chunk", scope: !289, file: !246, line: 268, type: !23, align: 1)
!289 = distinct !DILexicalBlock(scope: !285, file: !246, line: 268, column: 5)
!290 = !DILocalVariable(name: "offset", scope: !291, file: !246, line: 269, type: !84, align: 8)
!291 = distinct !DILexicalBlock(scope: !289, file: !246, line: 269, column: 5)
!292 = !DILocation(line: 264, column: 24, scope: !285)
!293 = !DILocation(line: 265, column: 8, scope: !285)
!294 = !DILocation(line: 268, column: 38, scope: !285)
!295 = !DILocation(line: 268, column: 18, scope: !285)
!296 = !DILocation(line: 266, column: 33, scope: !285)
!297 = !DILocation(line: 266, column: 16, scope: !285)
!298 = !DILocation(line: 271, column: 2, scope: !285)
!299 = !DILocation(line: 268, column: 17, scope: !285)
!300 = !DILocation(line: 268, column: 9, scope: !289)
!301 = !DILocation(line: 269, column: 18, scope: !289)
!302 = !DILocation(line: 269, column: 47, scope: !289)
!303 = !DILocation(line: 269, column: 9, scope: !291)
!304 = !DILocation(line: 270, column: 14, scope: !291)
!305 = !DILocation(line: 270, column: 58, scope: !291)
!306 = !DILocation(line: 1440, column: 35, scope: !270, inlinedAt: !307)
!307 = distinct !DILocation(line: 270, column: 5, scope: !291)
!308 = !DILocation(line: 1440, column: 41, scope: !270, inlinedAt: !307)
!309 = !DILocation(line: 1444, column: 49, scope: !270, inlinedAt: !307)
!310 = !DILocation(line: 1444, column: 17, scope: !270, inlinedAt: !307)
!311 = !DILocation(line: 270, column: 5, scope: !291)
