; ModuleID = '3gumy9dk7qfx8kb1'
source_filename = "3gumy9dk7qfx8kb1"
target datalayout = "e-m:e-p270:32:32-p271:32:32-p272:64:64-i64:64-f80:128-n8:16:32:64-S128"
target triple = "x86_64-unknown-linux-gnu"

%"core::fmt::Formatter" = type { { i64, i64 }, { i64, i64 }, { {}*, [3 x i64]* }, i32, i32, i8, [7 x i8] }
%"core::fmt::Opaque" = type {}
%"core::fmt::Arguments" = type { { [0 x { [0 x i8]*, i64 }]*, i64 }, { i64*, i64 }, { [0 x { i8*, i64* }]*, i64 } }
%"core::panic::location::Location" = type { { [0 x i8]*, i64 }, i32, i32 }
%"[closure@src/test_builtins.rs:93:1: 127:2]" = type {}
%"[closure@src/test_builtins.rs:25:1: 37:2]" = type {}
%"[closure@src/test_builtins.rs:56:1: 70:2]" = type {}
%"[closure@src/test_builtins.rs:40:1: 53:2]" = type {}
%"[closure@src/test_builtins.rs:73:1: 90:2]" = type {}
%"[closure@src/test_builtins.rs:130:1: 136:2]" = type {}
%"core::ptr::metadata::PtrComponents<u8>" = type { {}*, {} }
%"core::ptr::metadata::PtrRepr<u8>" = type { [1 x i64] }
%"core::option::Option<core::fmt::Arguments>" = type { {}*, [5 x i64] }
%"core::option::Option<core::fmt::Arguments>::Some" = type { %"core::fmt::Arguments" }
%"core::ptr::metadata::PtrComponents<core::ffi::c_void>" = type { {}*, {} }
%"core::ptr::metadata::PtrRepr<core::ffi::c_void>" = type { [1 x i64] }
%"test::types::TestDescAndFn" = type { %"test::types::TestDesc", %"test::types::TestFn" }
%"test::types::TestDesc" = type { %"test::types::TestName", { i8*, i64 }, %"test::options::ShouldPanic", i8, i8, i8, i8, [4 x i8] }
%"test::types::TestName" = type { i8, [39 x i8] }
%"test::options::ShouldPanic" = type { i64, [2 x i64] }
%"test::types::TestFn" = type { i64, [2 x i64] }
%"unwind::libunwind::_Unwind_Exception" = type { i64, void (i32, %"unwind::libunwind::_Unwind_Exception"*)*, [6 x i64] }
%"unwind::libunwind::_Unwind_Context" = type { [0 x i8] }

@vtable.0 = private unnamed_addr constant <{ i8*, [16 x i8], i8*, i8*, i8* }> <{ i8* bitcast (void (i64**)* @"_ZN4core3ptr85drop_in_place$LT$std..rt..lang_start$LT$$LP$$RP$$GT$..$u7b$$u7b$closure$u7d$$u7d$$GT$17h4e0e4df21fecd268E" to i8*), [16 x i8] c"\08\00\00\00\00\00\00\00\08\00\00\00\00\00\00\00", i8* bitcast (i32 (i64**)* @"_ZN4core3ops8function6FnOnce40call_once$u7b$$u7b$vtable.shim$u7d$$u7d$17h59d6fc368ad400ebE" to i8*), i8* bitcast (i32 (i64**)* @"_ZN3std2rt10lang_start28_$u7b$$u7b$closure$u7d$$u7d$17h812f3e79cb835fdfE" to i8*), i8* bitcast (i32 (i64**)* @"_ZN3std2rt10lang_start28_$u7b$$u7b$closure$u7d$$u7d$17h812f3e79cb835fdfE" to i8*) }>, align 8, !dbg !0
@alloc116 = private unnamed_addr constant <{ [12 x i8] }> <{ [12 x i8] c"invalid args" }>, align 1
@alloc117 = private unnamed_addr constant <{ i8*, [8 x i8] }> <{ i8* getelementptr inbounds (<{ [12 x i8] }>, <{ [12 x i8] }>* @alloc116, i32 0, i32 0, i32 0), [8 x i8] c"\0C\00\00\00\00\00\00\00" }>, align 8
@alloc119 = private unnamed_addr constant <{}> zeroinitializer, align 8
@alloc263 = private unnamed_addr constant <{ [75 x i8] }> <{ [75 x i8] c"/rustc/d394408fb38c4de61f765a3ed5189d2731a1da91/library/core/src/fmt/mod.rs" }>, align 1
@alloc264 = private unnamed_addr constant <{ i8*, [16 x i8] }> <{ i8* getelementptr inbounds (<{ [75 x i8] }>, <{ [75 x i8] }>* @alloc263, i32 0, i32 0, i32 0), [16 x i8] c"K\00\00\00\00\00\00\00\88\01\00\00\0D\00\00\00" }>, align 8
@vtable.1 = private unnamed_addr constant <{ i8*, [16 x i8], i8* }> <{ i8* bitcast (void (i8**)* @"_ZN4core3ptr27drop_in_place$LT$$RF$i8$GT$17he5f26b4130c5ce45E" to i8*), [16 x i8] c"\08\00\00\00\00\00\00\00\08\00\00\00\00\00\00\00", i8* bitcast (i1 (i8**, %"core::fmt::Formatter"*)* @"_ZN42_$LT$$RF$T$u20$as$u20$core..fmt..Debug$GT$3fmt17h5cf0eda63010df00E" to i8*) }>, align 8, !dbg !24
@vtable.2 = private unnamed_addr constant <{ i8*, [16 x i8], i8* }> <{ i8* bitcast (void (i32**)* @"_ZN4core3ptr28drop_in_place$LT$$RF$i32$GT$17hfe364e6a76e07b2cE" to i8*), [16 x i8] c"\08\00\00\00\00\00\00\00\08\00\00\00\00\00\00\00", i8* bitcast (i1 (i32**, %"core::fmt::Formatter"*)* @"_ZN42_$LT$$RF$T$u20$as$u20$core..fmt..Debug$GT$3fmt17h22e57aa275c6fca6E" to i8*) }>, align 8, !dbg !34
@vtable.3 = private unnamed_addr constant <{ i8*, [16 x i8], i8* }> <{ i8* bitcast (void (i8***)* @"_ZN4core3ptr54drop_in_place$LT$$RF$$BP$mut$u20$core..ffi..c_void$GT$17h8f8bb7f94d82159cE" to i8*), [16 x i8] c"\08\00\00\00\00\00\00\00\08\00\00\00\00\00\00\00", i8* bitcast (i1 (i8***, %"core::fmt::Formatter"*)* @"_ZN42_$LT$$RF$T$u20$as$u20$core..fmt..Debug$GT$3fmt17h66fce1f5a3097eb2E" to i8*) }>, align 8, !dbg !44
@alloc105 = private unnamed_addr constant <{ [4 x i8] }> zeroinitializer, align 4
@alloc107 = private unnamed_addr constant <{ [67 x i8] }> <{ [67 x i8] c"the test returned a termination value with a non-zero status code (" }>, align 1
@alloc109 = private unnamed_addr constant <{ [27 x i8] }> <{ [27 x i8] c") which indicates a failure" }>, align 1
@alloc108 = private unnamed_addr constant <{ i8*, [8 x i8], i8*, [8 x i8] }> <{ i8* getelementptr inbounds (<{ [67 x i8] }>, <{ [67 x i8] }>* @alloc107, i32 0, i32 0, i32 0), [8 x i8] c"C\00\00\00\00\00\00\00", i8* getelementptr inbounds (<{ [27 x i8] }>, <{ [27 x i8] }>* @alloc109, i32 0, i32 0, i32 0), [8 x i8] c"\1B\00\00\00\00\00\00\00" }>, align 8
@alloc274 = private unnamed_addr constant <{ [71 x i8] }> <{ [71 x i8] c"/rustc/d394408fb38c4de61f765a3ed5189d2731a1da91/library/test/src/lib.rs" }>, align 1
@alloc275 = private unnamed_addr constant <{ i8*, [16 x i8] }> <{ i8* getelementptr inbounds (<{ [71 x i8] }>, <{ [71 x i8] }>* @alloc274, i32 0, i32 0, i32 0), [16 x i8] c"G\00\00\00\00\00\00\00\B8\00\00\00\05\00\00\00" }>, align 8
@alloc280 = private unnamed_addr constant <{ [11 x i8] }> <{ [11 x i8] c"src/math.rs" }>, align 1
@alloc277 = private unnamed_addr constant <{ i8*, [16 x i8] }> <{ i8* getelementptr inbounds (<{ [11 x i8] }>, <{ [11 x i8] }>* @alloc280, i32 0, i32 0, i32 0), [16 x i8] c"\0B\00\00\00\00\00\00\00\0C\00\00\00#\00\00\00" }>, align 8
@str.4 = internal constant [28 x i8] c"attempt to add with overflow"
@alloc279 = private unnamed_addr constant <{ i8*, [16 x i8] }> <{ i8* getelementptr inbounds (<{ [11 x i8] }>, <{ [11 x i8] }>* @alloc280, i32 0, i32 0, i32 0), [16 x i8] c"\0B\00\00\00\00\00\00\00\10\00\00\00#\00\00\00" }>, align 8
@alloc281 = private unnamed_addr constant <{ i8*, [16 x i8] }> <{ i8* getelementptr inbounds (<{ [11 x i8] }>, <{ [11 x i8] }>* @alloc280, i32 0, i32 0, i32 0), [16 x i8] c"\0B\00\00\00\00\00\00\00\14\00\00\00#\00\00\00" }>, align 8
@alloc422 = private unnamed_addr constant <{ [14 x i8] }> <{ [14 x i8] c"src/atomics.rs" }>, align 1
@alloc283 = private unnamed_addr constant <{ i8*, [16 x i8] }> <{ i8* getelementptr inbounds (<{ [14 x i8] }>, <{ [14 x i8] }>* @alloc422, i32 0, i32 0, i32 0), [16 x i8] c"\0E\00\00\00\00\00\00\00\19\00\00\00\09\00\00\00" }>, align 8
@alloc285 = private unnamed_addr constant <{ i8*, [16 x i8] }> <{ i8* getelementptr inbounds (<{ [14 x i8] }>, <{ [14 x i8] }>* @alloc422, i32 0, i32 0, i32 0), [16 x i8] c"\0E\00\00\00\00\00\00\00\1C\00\00\00\09\00\00\00" }>, align 8
@alloc287 = private unnamed_addr constant <{ i8*, [16 x i8] }> <{ i8* getelementptr inbounds (<{ [14 x i8] }>, <{ [14 x i8] }>* @alloc422, i32 0, i32 0, i32 0), [16 x i8] c"\0E\00\00\00\00\00\00\00\22\00\00\00\09\00\00\00" }>, align 8
@alloc289 = private unnamed_addr constant <{ i8*, [16 x i8] }> <{ i8* getelementptr inbounds (<{ [14 x i8] }>, <{ [14 x i8] }>* @alloc422, i32 0, i32 0, i32 0), [16 x i8] c"\0E\00\00\00\00\00\00\00%\00\00\00\09\00\00\00" }>, align 8
@alloc291 = private unnamed_addr constant <{ i8*, [16 x i8] }> <{ i8* getelementptr inbounds (<{ [14 x i8] }>, <{ [14 x i8] }>* @alloc422, i32 0, i32 0, i32 0), [16 x i8] c"\0E\00\00\00\00\00\00\00+\00\00\00\09\00\00\00" }>, align 8
@alloc293 = private unnamed_addr constant <{ i8*, [16 x i8] }> <{ i8* getelementptr inbounds (<{ [14 x i8] }>, <{ [14 x i8] }>* @alloc422, i32 0, i32 0, i32 0), [16 x i8] c"\0E\00\00\00\00\00\00\00.\00\00\00\09\00\00\00" }>, align 8
@alloc295 = private unnamed_addr constant <{ i8*, [16 x i8] }> <{ i8* getelementptr inbounds (<{ [14 x i8] }>, <{ [14 x i8] }>* @alloc422, i32 0, i32 0, i32 0), [16 x i8] c"\0E\00\00\00\00\00\00\004\00\00\00\09\00\00\00" }>, align 8
@alloc297 = private unnamed_addr constant <{ i8*, [16 x i8] }> <{ i8* getelementptr inbounds (<{ [14 x i8] }>, <{ [14 x i8] }>* @alloc422, i32 0, i32 0, i32 0), [16 x i8] c"\0E\00\00\00\00\00\00\007\00\00\00\09\00\00\00" }>, align 8
@alloc299 = private unnamed_addr constant <{ i8*, [16 x i8] }> <{ i8* getelementptr inbounds (<{ [14 x i8] }>, <{ [14 x i8] }>* @alloc422, i32 0, i32 0, i32 0), [16 x i8] c"\0E\00\00\00\00\00\00\00=\00\00\00\09\00\00\00" }>, align 8
@alloc301 = private unnamed_addr constant <{ i8*, [16 x i8] }> <{ i8* getelementptr inbounds (<{ [14 x i8] }>, <{ [14 x i8] }>* @alloc422, i32 0, i32 0, i32 0), [16 x i8] c"\0E\00\00\00\00\00\00\00@\00\00\00\09\00\00\00" }>, align 8
@alloc303 = private unnamed_addr constant <{ i8*, [16 x i8] }> <{ i8* getelementptr inbounds (<{ [14 x i8] }>, <{ [14 x i8] }>* @alloc422, i32 0, i32 0, i32 0), [16 x i8] c"\0E\00\00\00\00\00\00\00F\00\00\00\09\00\00\00" }>, align 8
@alloc305 = private unnamed_addr constant <{ i8*, [16 x i8] }> <{ i8* getelementptr inbounds (<{ [14 x i8] }>, <{ [14 x i8] }>* @alloc422, i32 0, i32 0, i32 0), [16 x i8] c"\0E\00\00\00\00\00\00\00K\00\00\00\09\00\00\00" }>, align 8
@alloc307 = private unnamed_addr constant <{ i8*, [16 x i8] }> <{ i8* getelementptr inbounds (<{ [14 x i8] }>, <{ [14 x i8] }>* @alloc422, i32 0, i32 0, i32 0), [16 x i8] c"\0E\00\00\00\00\00\00\00L\00\00\00(\00\00\00" }>, align 8
@alloc309 = private unnamed_addr constant <{ i8*, [16 x i8] }> <{ i8* getelementptr inbounds (<{ [14 x i8] }>, <{ [14 x i8] }>* @alloc422, i32 0, i32 0, i32 0), [16 x i8] c"\0E\00\00\00\00\00\00\00Q\00\00\00\09\00\00\00" }>, align 8
@alloc311 = private unnamed_addr constant <{ i8*, [16 x i8] }> <{ i8* getelementptr inbounds (<{ [14 x i8] }>, <{ [14 x i8] }>* @alloc422, i32 0, i32 0, i32 0), [16 x i8] c"\0E\00\00\00\00\00\00\00V\00\00\00\09\00\00\00" }>, align 8
@alloc313 = private unnamed_addr constant <{ i8*, [16 x i8] }> <{ i8* getelementptr inbounds (<{ [14 x i8] }>, <{ [14 x i8] }>* @alloc422, i32 0, i32 0, i32 0), [16 x i8] c"\0E\00\00\00\00\00\00\00W\00\00\00(\00\00\00" }>, align 8
@str.5 = internal constant [33 x i8] c"attempt to subtract with overflow"
@alloc315 = private unnamed_addr constant <{ i8*, [16 x i8] }> <{ i8* getelementptr inbounds (<{ [14 x i8] }>, <{ [14 x i8] }>* @alloc422, i32 0, i32 0, i32 0), [16 x i8] c"\0E\00\00\00\00\00\00\00\\\00\00\00\09\00\00\00" }>, align 8
@alloc317 = private unnamed_addr constant <{ i8*, [16 x i8] }> <{ i8* getelementptr inbounds (<{ [14 x i8] }>, <{ [14 x i8] }>* @alloc422, i32 0, i32 0, i32 0), [16 x i8] c"\0E\00\00\00\00\00\00\00a\00\00\00\09\00\00\00" }>, align 8
@alloc319 = private unnamed_addr constant <{ i8*, [16 x i8] }> <{ i8* getelementptr inbounds (<{ [14 x i8] }>, <{ [14 x i8] }>* @alloc422, i32 0, i32 0, i32 0), [16 x i8] c"\0E\00\00\00\00\00\00\00g\00\00\00\09\00\00\00" }>, align 8
@alloc321 = private unnamed_addr constant <{ i8*, [16 x i8] }> <{ i8* getelementptr inbounds (<{ [14 x i8] }>, <{ [14 x i8] }>* @alloc422, i32 0, i32 0, i32 0), [16 x i8] c"\0E\00\00\00\00\00\00\00l\00\00\00\09\00\00\00" }>, align 8
@alloc323 = private unnamed_addr constant <{ i8*, [16 x i8] }> <{ i8* getelementptr inbounds (<{ [14 x i8] }>, <{ [14 x i8] }>* @alloc422, i32 0, i32 0, i32 0), [16 x i8] c"\0E\00\00\00\00\00\00\00r\00\00\00\09\00\00\00" }>, align 8
@alloc325 = private unnamed_addr constant <{ i8*, [16 x i8] }> <{ i8* getelementptr inbounds (<{ [14 x i8] }>, <{ [14 x i8] }>* @alloc422, i32 0, i32 0, i32 0), [16 x i8] c"\0E\00\00\00\00\00\00\00w\00\00\00\09\00\00\00" }>, align 8
@alloc327 = private unnamed_addr constant <{ i8*, [16 x i8] }> <{ i8* getelementptr inbounds (<{ [14 x i8] }>, <{ [14 x i8] }>* @alloc422, i32 0, i32 0, i32 0), [16 x i8] c"\0E\00\00\00\00\00\00\00}\00\00\00\09\00\00\00" }>, align 8
@alloc329 = private unnamed_addr constant <{ i8*, [16 x i8] }> <{ i8* getelementptr inbounds (<{ [14 x i8] }>, <{ [14 x i8] }>* @alloc422, i32 0, i32 0, i32 0), [16 x i8] c"\0E\00\00\00\00\00\00\00\82\00\00\00\09\00\00\00" }>, align 8
@alloc331 = private unnamed_addr constant <{ i8*, [16 x i8] }> <{ i8* getelementptr inbounds (<{ [14 x i8] }>, <{ [14 x i8] }>* @alloc422, i32 0, i32 0, i32 0), [16 x i8] c"\0E\00\00\00\00\00\00\00\88\00\00\00\09\00\00\00" }>, align 8
@alloc333 = private unnamed_addr constant <{ i8*, [16 x i8] }> <{ i8* getelementptr inbounds (<{ [14 x i8] }>, <{ [14 x i8] }>* @alloc422, i32 0, i32 0, i32 0), [16 x i8] c"\0E\00\00\00\00\00\00\00\8C\00\00\00\09\00\00\00" }>, align 8
@alloc335 = private unnamed_addr constant <{ i8*, [16 x i8] }> <{ i8* getelementptr inbounds (<{ [14 x i8] }>, <{ [14 x i8] }>* @alloc422, i32 0, i32 0, i32 0), [16 x i8] c"\0E\00\00\00\00\00\00\00\91\00\00\00\0D\00\00\00" }>, align 8
@alloc337 = private unnamed_addr constant <{ i8*, [16 x i8] }> <{ i8* getelementptr inbounds (<{ [14 x i8] }>, <{ [14 x i8] }>* @alloc422, i32 0, i32 0, i32 0), [16 x i8] c"\0E\00\00\00\00\00\00\00\99\00\00\00\0D\00\00\00" }>, align 8
@alloc339 = private unnamed_addr constant <{ i8*, [16 x i8] }> <{ i8* getelementptr inbounds (<{ [14 x i8] }>, <{ [14 x i8] }>* @alloc422, i32 0, i32 0, i32 0), [16 x i8] c"\0E\00\00\00\00\00\00\00\9B\00\00\00\09\00\00\00" }>, align 8
@alloc341 = private unnamed_addr constant <{ i8*, [16 x i8] }> <{ i8* getelementptr inbounds (<{ [14 x i8] }>, <{ [14 x i8] }>* @alloc422, i32 0, i32 0, i32 0), [16 x i8] c"\0E\00\00\00\00\00\00\00\A1\00\00\00\0D\00\00\00" }>, align 8
@alloc343 = private unnamed_addr constant <{ i8*, [16 x i8] }> <{ i8* getelementptr inbounds (<{ [14 x i8] }>, <{ [14 x i8] }>* @alloc422, i32 0, i32 0, i32 0), [16 x i8] c"\0E\00\00\00\00\00\00\00\A9\00\00\00\0D\00\00\00" }>, align 8
@alloc345 = private unnamed_addr constant <{ i8*, [16 x i8] }> <{ i8* getelementptr inbounds (<{ [14 x i8] }>, <{ [14 x i8] }>* @alloc422, i32 0, i32 0, i32 0), [16 x i8] c"\0E\00\00\00\00\00\00\00\AB\00\00\00\09\00\00\00" }>, align 8
@alloc347 = private unnamed_addr constant <{ i8*, [16 x i8] }> <{ i8* getelementptr inbounds (<{ [14 x i8] }>, <{ [14 x i8] }>* @alloc422, i32 0, i32 0, i32 0), [16 x i8] c"\0E\00\00\00\00\00\00\00\AF\00\00\00\09\00\00\00" }>, align 8
@alloc349 = private unnamed_addr constant <{ i8*, [16 x i8] }> <{ i8* getelementptr inbounds (<{ [14 x i8] }>, <{ [14 x i8] }>* @alloc422, i32 0, i32 0, i32 0), [16 x i8] c"\0E\00\00\00\00\00\00\00\B5\00\00\00\09\00\00\00" }>, align 8
@alloc351 = private unnamed_addr constant <{ i8*, [16 x i8] }> <{ i8* getelementptr inbounds (<{ [14 x i8] }>, <{ [14 x i8] }>* @alloc422, i32 0, i32 0, i32 0), [16 x i8] c"\0E\00\00\00\00\00\00\00\B9\00\00\00\09\00\00\00" }>, align 8
@alloc353 = private unnamed_addr constant <{ i8*, [16 x i8] }> <{ i8* getelementptr inbounds (<{ [14 x i8] }>, <{ [14 x i8] }>* @alloc422, i32 0, i32 0, i32 0), [16 x i8] c"\0E\00\00\00\00\00\00\00\C4\00\00\00\09\00\00\00" }>, align 8
@alloc355 = private unnamed_addr constant <{ i8*, [16 x i8] }> <{ i8* getelementptr inbounds (<{ [14 x i8] }>, <{ [14 x i8] }>* @alloc422, i32 0, i32 0, i32 0), [16 x i8] c"\0E\00\00\00\00\00\00\00\CA\00\00\00\09\00\00\00" }>, align 8
@alloc357 = private unnamed_addr constant <{ i8*, [16 x i8] }> <{ i8* getelementptr inbounds (<{ [14 x i8] }>, <{ [14 x i8] }>* @alloc422, i32 0, i32 0, i32 0), [16 x i8] c"\0E\00\00\00\00\00\00\00\CD\00\00\00\09\00\00\00" }>, align 8
@alloc359 = private unnamed_addr constant <{ i8*, [16 x i8] }> <{ i8* getelementptr inbounds (<{ [14 x i8] }>, <{ [14 x i8] }>* @alloc422, i32 0, i32 0, i32 0), [16 x i8] c"\0E\00\00\00\00\00\00\00\D3\00\00\00\09\00\00\00" }>, align 8
@alloc361 = private unnamed_addr constant <{ i8*, [16 x i8] }> <{ i8* getelementptr inbounds (<{ [14 x i8] }>, <{ [14 x i8] }>* @alloc422, i32 0, i32 0, i32 0), [16 x i8] c"\0E\00\00\00\00\00\00\00\D6\00\00\00\09\00\00\00" }>, align 8
@alloc363 = private unnamed_addr constant <{ i8*, [16 x i8] }> <{ i8* getelementptr inbounds (<{ [14 x i8] }>, <{ [14 x i8] }>* @alloc422, i32 0, i32 0, i32 0), [16 x i8] c"\0E\00\00\00\00\00\00\00\DC\00\00\00\09\00\00\00" }>, align 8
@alloc365 = private unnamed_addr constant <{ i8*, [16 x i8] }> <{ i8* getelementptr inbounds (<{ [14 x i8] }>, <{ [14 x i8] }>* @alloc422, i32 0, i32 0, i32 0), [16 x i8] c"\0E\00\00\00\00\00\00\00\DF\00\00\00\09\00\00\00" }>, align 8
@alloc367 = private unnamed_addr constant <{ i8*, [16 x i8] }> <{ i8* getelementptr inbounds (<{ [14 x i8] }>, <{ [14 x i8] }>* @alloc422, i32 0, i32 0, i32 0), [16 x i8] c"\0E\00\00\00\00\00\00\00\E5\00\00\00\09\00\00\00" }>, align 8
@alloc369 = private unnamed_addr constant <{ i8*, [16 x i8] }> <{ i8* getelementptr inbounds (<{ [14 x i8] }>, <{ [14 x i8] }>* @alloc422, i32 0, i32 0, i32 0), [16 x i8] c"\0E\00\00\00\00\00\00\00\E8\00\00\00\09\00\00\00" }>, align 8
@alloc371 = private unnamed_addr constant <{ i8*, [16 x i8] }> <{ i8* getelementptr inbounds (<{ [14 x i8] }>, <{ [14 x i8] }>* @alloc422, i32 0, i32 0, i32 0), [16 x i8] c"\0E\00\00\00\00\00\00\00\EE\00\00\00\09\00\00\00" }>, align 8
@alloc373 = private unnamed_addr constant <{ i8*, [16 x i8] }> <{ i8* getelementptr inbounds (<{ [14 x i8] }>, <{ [14 x i8] }>* @alloc422, i32 0, i32 0, i32 0), [16 x i8] c"\0E\00\00\00\00\00\00\00\F1\00\00\00\09\00\00\00" }>, align 8
@alloc375 = private unnamed_addr constant <{ i8*, [16 x i8] }> <{ i8* getelementptr inbounds (<{ [14 x i8] }>, <{ [14 x i8] }>* @alloc422, i32 0, i32 0, i32 0), [16 x i8] c"\0E\00\00\00\00\00\00\00\F7\00\00\00\09\00\00\00" }>, align 8
@alloc377 = private unnamed_addr constant <{ i8*, [16 x i8] }> <{ i8* getelementptr inbounds (<{ [14 x i8] }>, <{ [14 x i8] }>* @alloc422, i32 0, i32 0, i32 0), [16 x i8] c"\0E\00\00\00\00\00\00\00\FC\00\00\00\09\00\00\00" }>, align 8
@alloc379 = private unnamed_addr constant <{ i8*, [16 x i8] }> <{ i8* getelementptr inbounds (<{ [14 x i8] }>, <{ [14 x i8] }>* @alloc422, i32 0, i32 0, i32 0), [16 x i8] c"\0E\00\00\00\00\00\00\00\FD\00\00\00(\00\00\00" }>, align 8
@alloc381 = private unnamed_addr constant <{ i8*, [16 x i8] }> <{ i8* getelementptr inbounds (<{ [14 x i8] }>, <{ [14 x i8] }>* @alloc422, i32 0, i32 0, i32 0), [16 x i8] c"\0E\00\00\00\00\00\00\00\02\01\00\00\09\00\00\00" }>, align 8
@alloc383 = private unnamed_addr constant <{ i8*, [16 x i8] }> <{ i8* getelementptr inbounds (<{ [14 x i8] }>, <{ [14 x i8] }>* @alloc422, i32 0, i32 0, i32 0), [16 x i8] c"\0E\00\00\00\00\00\00\00\07\01\00\00\09\00\00\00" }>, align 8
@alloc385 = private unnamed_addr constant <{ i8*, [16 x i8] }> <{ i8* getelementptr inbounds (<{ [14 x i8] }>, <{ [14 x i8] }>* @alloc422, i32 0, i32 0, i32 0), [16 x i8] c"\0E\00\00\00\00\00\00\00\08\01\00\00(\00\00\00" }>, align 8
@alloc387 = private unnamed_addr constant <{ i8*, [16 x i8] }> <{ i8* getelementptr inbounds (<{ [14 x i8] }>, <{ [14 x i8] }>* @alloc422, i32 0, i32 0, i32 0), [16 x i8] c"\0E\00\00\00\00\00\00\00\0D\01\00\00\09\00\00\00" }>, align 8
@alloc389 = private unnamed_addr constant <{ i8*, [16 x i8] }> <{ i8* getelementptr inbounds (<{ [14 x i8] }>, <{ [14 x i8] }>* @alloc422, i32 0, i32 0, i32 0), [16 x i8] c"\0E\00\00\00\00\00\00\00\12\01\00\00\09\00\00\00" }>, align 8
@alloc391 = private unnamed_addr constant <{ i8*, [16 x i8] }> <{ i8* getelementptr inbounds (<{ [14 x i8] }>, <{ [14 x i8] }>* @alloc422, i32 0, i32 0, i32 0), [16 x i8] c"\0E\00\00\00\00\00\00\00\18\01\00\00\09\00\00\00" }>, align 8
@alloc393 = private unnamed_addr constant <{ i8*, [16 x i8] }> <{ i8* getelementptr inbounds (<{ [14 x i8] }>, <{ [14 x i8] }>* @alloc422, i32 0, i32 0, i32 0), [16 x i8] c"\0E\00\00\00\00\00\00\00\1D\01\00\00\09\00\00\00" }>, align 8
@alloc395 = private unnamed_addr constant <{ i8*, [16 x i8] }> <{ i8* getelementptr inbounds (<{ [14 x i8] }>, <{ [14 x i8] }>* @alloc422, i32 0, i32 0, i32 0), [16 x i8] c"\0E\00\00\00\00\00\00\00#\01\00\00\09\00\00\00" }>, align 8
@alloc397 = private unnamed_addr constant <{ i8*, [16 x i8] }> <{ i8* getelementptr inbounds (<{ [14 x i8] }>, <{ [14 x i8] }>* @alloc422, i32 0, i32 0, i32 0), [16 x i8] c"\0E\00\00\00\00\00\00\00(\01\00\00\09\00\00\00" }>, align 8
@alloc399 = private unnamed_addr constant <{ i8*, [16 x i8] }> <{ i8* getelementptr inbounds (<{ [14 x i8] }>, <{ [14 x i8] }>* @alloc422, i32 0, i32 0, i32 0), [16 x i8] c"\0E\00\00\00\00\00\00\00.\01\00\00\09\00\00\00" }>, align 8
@alloc401 = private unnamed_addr constant <{ i8*, [16 x i8] }> <{ i8* getelementptr inbounds (<{ [14 x i8] }>, <{ [14 x i8] }>* @alloc422, i32 0, i32 0, i32 0), [16 x i8] c"\0E\00\00\00\00\00\00\003\01\00\00\09\00\00\00" }>, align 8
@alloc403 = private unnamed_addr constant <{ i8*, [16 x i8] }> <{ i8* getelementptr inbounds (<{ [14 x i8] }>, <{ [14 x i8] }>* @alloc422, i32 0, i32 0, i32 0), [16 x i8] c"\0E\00\00\00\00\00\00\009\01\00\00\09\00\00\00" }>, align 8
@alloc405 = private unnamed_addr constant <{ i8*, [16 x i8] }> <{ i8* getelementptr inbounds (<{ [14 x i8] }>, <{ [14 x i8] }>* @alloc422, i32 0, i32 0, i32 0), [16 x i8] c"\0E\00\00\00\00\00\00\00=\01\00\00\09\00\00\00" }>, align 8
@alloc407 = private unnamed_addr constant <{ i8*, [16 x i8] }> <{ i8* getelementptr inbounds (<{ [14 x i8] }>, <{ [14 x i8] }>* @alloc422, i32 0, i32 0, i32 0), [16 x i8] c"\0E\00\00\00\00\00\00\00H\01\00\00\0D\00\00\00" }>, align 8
@alloc409 = private unnamed_addr constant <{ i8*, [16 x i8] }> <{ i8* getelementptr inbounds (<{ [14 x i8] }>, <{ [14 x i8] }>* @alloc422, i32 0, i32 0, i32 0), [16 x i8] c"\0E\00\00\00\00\00\00\00K\01\00\00\0D\00\00\00" }>, align 8
@alloc411 = private unnamed_addr constant <{ i8*, [16 x i8] }> <{ i8* getelementptr inbounds (<{ [14 x i8] }>, <{ [14 x i8] }>* @alloc422, i32 0, i32 0, i32 0), [16 x i8] c"\0E\00\00\00\00\00\00\00M\01\00\00\09\00\00\00" }>, align 8
@alloc413 = private unnamed_addr constant <{ i8*, [16 x i8] }> <{ i8* getelementptr inbounds (<{ [14 x i8] }>, <{ [14 x i8] }>* @alloc422, i32 0, i32 0, i32 0), [16 x i8] c"\0E\00\00\00\00\00\00\00Z\01\00\00\0D\00\00\00" }>, align 8
@alloc415 = private unnamed_addr constant <{ i8*, [16 x i8] }> <{ i8* getelementptr inbounds (<{ [14 x i8] }>, <{ [14 x i8] }>* @alloc422, i32 0, i32 0, i32 0), [16 x i8] c"\0E\00\00\00\00\00\00\00]\01\00\00\0D\00\00\00" }>, align 8
@alloc417 = private unnamed_addr constant <{ i8*, [16 x i8] }> <{ i8* getelementptr inbounds (<{ [14 x i8] }>, <{ [14 x i8] }>* @alloc422, i32 0, i32 0, i32 0), [16 x i8] c"\0E\00\00\00\00\00\00\00_\01\00\00\09\00\00\00" }>, align 8
@alloc419 = private unnamed_addr constant <{ i8*, [16 x i8] }> <{ i8* getelementptr inbounds (<{ [14 x i8] }>, <{ [14 x i8] }>* @alloc422, i32 0, i32 0, i32 0), [16 x i8] c"\0E\00\00\00\00\00\00\00c\01\00\00\09\00\00\00" }>, align 8
@alloc421 = private unnamed_addr constant <{ i8*, [16 x i8] }> <{ i8* getelementptr inbounds (<{ [14 x i8] }>, <{ [14 x i8] }>* @alloc422, i32 0, i32 0, i32 0), [16 x i8] c"\0E\00\00\00\00\00\00\00i\01\00\00\09\00\00\00" }>, align 8
@alloc423 = private unnamed_addr constant <{ i8*, [16 x i8] }> <{ i8* getelementptr inbounds (<{ [14 x i8] }>, <{ [14 x i8] }>* @alloc422, i32 0, i32 0, i32 0), [16 x i8] c"\0E\00\00\00\00\00\00\00m\01\00\00\09\00\00\00" }>, align 8
@alloc9 = private unnamed_addr constant <{ [2 x i8] }> <{ [2 x i8] c"a\00" }>, align 1
@alloc457 = private unnamed_addr constant <{ [20 x i8] }> <{ [20 x i8] c"src/test_builtins.rs" }>, align 1
@alloc425 = private unnamed_addr constant <{ i8*, [16 x i8] }> <{ i8* getelementptr inbounds (<{ [20 x i8] }>, <{ [20 x i8] }>* @alloc457, i32 0, i32 0, i32 0), [16 x i8] c"\14\00\00\00\00\00\00\00#\00\00\00\14\00\00\00" }>, align 8
@alloc427 = private unnamed_addr constant <{ i8*, [16 x i8] }> <{ i8* getelementptr inbounds (<{ [20 x i8] }>, <{ [20 x i8] }>* @alloc457, i32 0, i32 0, i32 0), [16 x i8] c"\14\00\00\00\00\00\00\00#\00\00\00#\00\00\00" }>, align 8
@alloc429 = private unnamed_addr constant <{ i8*, [16 x i8] }> <{ i8* getelementptr inbounds (<{ [20 x i8] }>, <{ [20 x i8] }>* @alloc457, i32 0, i32 0, i32 0), [16 x i8] c"\14\00\00\00\00\00\00\00#\00\00\00\09\00\00\00" }>, align 8
@alloc125 = private unnamed_addr constant <{ [7 x i8] }> <{ [7 x i8] c"buffer[" }>, align 1
@alloc127 = private unnamed_addr constant <{ [4 x i8] }> <{ [4 x i8] c"] = " }>, align 1
@alloc128 = private unnamed_addr constant <{ [1 x i8] }> <{ [1 x i8] c"\0A" }>, align 1
@alloc126 = private unnamed_addr constant <{ i8*, [8 x i8], i8*, [8 x i8], i8*, [8 x i8] }> <{ i8* getelementptr inbounds (<{ [7 x i8] }>, <{ [7 x i8] }>* @alloc125, i32 0, i32 0, i32 0), [8 x i8] c"\07\00\00\00\00\00\00\00", i8* getelementptr inbounds (<{ [4 x i8] }>, <{ [4 x i8] }>* @alloc127, i32 0, i32 0, i32 0), [8 x i8] c"\04\00\00\00\00\00\00\00", i8* getelementptr inbounds (<{ [1 x i8] }>, <{ [1 x i8] }>* @alloc128, i32 0, i32 0, i32 0), [8 x i8] c"\01\00\00\00\00\00\00\00" }>, align 8
@alloc431 = private unnamed_addr constant <{ i8*, [16 x i8] }> <{ i8* getelementptr inbounds (<{ [20 x i8] }>, <{ [20 x i8] }>* @alloc457, i32 0, i32 0, i32 0), [16 x i8] c"\14\00\00\00\00\00\00\002\00\00\00-\00\00\00" }>, align 8
@alloc433 = private unnamed_addr constant <{ i8*, [16 x i8] }> <{ i8* getelementptr inbounds (<{ [20 x i8] }>, <{ [20 x i8] }>* @alloc457, i32 0, i32 0, i32 0), [16 x i8] c"\14\00\00\00\00\00\00\003\00\00\00\14\00\00\00" }>, align 8
@alloc435 = private unnamed_addr constant <{ i8*, [16 x i8] }> <{ i8* getelementptr inbounds (<{ [20 x i8] }>, <{ [20 x i8] }>* @alloc457, i32 0, i32 0, i32 0), [16 x i8] c"\14\00\00\00\00\00\00\003\00\00\00#\00\00\00" }>, align 8
@alloc437 = private unnamed_addr constant <{ i8*, [16 x i8] }> <{ i8* getelementptr inbounds (<{ [20 x i8] }>, <{ [20 x i8] }>* @alloc457, i32 0, i32 0, i32 0), [16 x i8] c"\14\00\00\00\00\00\00\003\00\00\00\09\00\00\00" }>, align 8
@alloc438 = private unnamed_addr constant <{ [10 x i8] }> <{ [10 x i8] c"I am ten!\00" }>, align 1
@alloc440 = private unnamed_addr constant <{ i8*, [16 x i8] }> <{ i8* getelementptr inbounds (<{ [20 x i8] }>, <{ [20 x i8] }>* @alloc457, i32 0, i32 0, i32 0), [16 x i8] c"\14\00\00\00\00\00\00\00D\00\00\00\14\00\00\00" }>, align 8
@alloc442 = private unnamed_addr constant <{ i8*, [16 x i8] }> <{ i8* getelementptr inbounds (<{ [20 x i8] }>, <{ [20 x i8] }>* @alloc457, i32 0, i32 0, i32 0), [16 x i8] c"\14\00\00\00\00\00\00\00D\00\00\00#\00\00\00" }>, align 8
@alloc444 = private unnamed_addr constant <{ i8*, [16 x i8] }> <{ i8* getelementptr inbounds (<{ [20 x i8] }>, <{ [20 x i8] }>* @alloc457, i32 0, i32 0, i32 0), [16 x i8] c"\14\00\00\00\00\00\00\00D\00\00\00\09\00\00\00" }>, align 8
@alloc446 = private unnamed_addr constant <{ i8*, [16 x i8] }> <{ i8* getelementptr inbounds (<{ [20 x i8] }>, <{ [20 x i8] }>* @alloc457, i32 0, i32 0, i32 0), [16 x i8] c"\14\00\00\00\00\00\00\00N\00\00\00\09\00\00\00" }>, align 8
@alloc448 = private unnamed_addr constant <{ i8*, [16 x i8] }> <{ i8* getelementptr inbounds (<{ [20 x i8] }>, <{ [20 x i8] }>* @alloc457, i32 0, i32 0, i32 0), [16 x i8] c"\14\00\00\00\00\00\00\00S\00\00\00\09\00\00\00" }>, align 8
@alloc450 = private unnamed_addr constant <{ i8*, [16 x i8] }> <{ i8* getelementptr inbounds (<{ [20 x i8] }>, <{ [20 x i8] }>* @alloc457, i32 0, i32 0, i32 0), [16 x i8] c"\14\00\00\00\00\00\00\00X\00\00\00\09\00\00\00" }>, align 8
@alloc452 = private unnamed_addr constant <{ i8*, [16 x i8] }> <{ i8* getelementptr inbounds (<{ [20 x i8] }>, <{ [20 x i8] }>* @alloc457, i32 0, i32 0, i32 0), [16 x i8] c"\14\00\00\00\00\00\00\00h\00\00\00\09\00\00\00" }>, align 8
@alloc454 = private unnamed_addr constant <{ i8*, [16 x i8] }> <{ i8* getelementptr inbounds (<{ [20 x i8] }>, <{ [20 x i8] }>* @alloc457, i32 0, i32 0, i32 0), [16 x i8] c"\14\00\00\00\00\00\00\00t\00\00\00\09\00\00\00" }>, align 8
@alloc456 = private unnamed_addr constant <{ i8*, [16 x i8] }> <{ i8* getelementptr inbounds (<{ [20 x i8] }>, <{ [20 x i8] }>* @alloc457, i32 0, i32 0, i32 0), [16 x i8] c"\14\00\00\00\00\00\00\00}\00\00\00\09\00\00\00" }>, align 8
@alloc458 = private unnamed_addr constant <{ i8*, [16 x i8] }> <{ i8* getelementptr inbounds (<{ [20 x i8] }>, <{ [20 x i8] }>* @alloc457, i32 0, i32 0, i32 0), [16 x i8] c"\14\00\00\00\00\00\00\00\86\00\00\00\09\00\00\00" }>, align 8
@alloc12 = private unnamed_addr constant <{ [27 x i8] }> <{ [27 x i8] c"test_builtins::test_atomics" }>, align 1
@alloc233 = private unnamed_addr constant <{ [1 x i8], [7 x i8], i8*, [8 x i8], [16 x i8], [8 x i8], [8 x i8], [8 x i8], [16 x i8], [4 x i8], [4 x i8], [8 x i8], i8*, [8 x i8] }> <{ [1 x i8] zeroinitializer, [7 x i8] undef, i8* getelementptr inbounds (<{ [27 x i8] }>, <{ [27 x i8] }>* @alloc12, i32 0, i32 0, i32 0), [8 x i8] c"\1B\00\00\00\00\00\00\00", [16 x i8] undef, [8 x i8] zeroinitializer, [8 x i8] undef, [8 x i8] zeroinitializer, [16 x i8] undef, [4 x i8] zeroinitializer, [4 x i8] undef, [8 x i8] zeroinitializer, i8* bitcast (void ()* @_ZN4core3ops8function6FnOnce9call_once17h5dd6d7556bd877beE to i8*), [8 x i8] undef }>, align 8
@alloc22 = private unnamed_addr constant <{ [31 x i8] }> <{ [31 x i8] c"test_builtins::test_new_atomics" }>, align 1
@alloc234 = private unnamed_addr constant <{ [1 x i8], [7 x i8], i8*, [8 x i8], [16 x i8], [8 x i8], [8 x i8], [8 x i8], [16 x i8], [4 x i8], [4 x i8], [8 x i8], i8*, [8 x i8] }> <{ [1 x i8] zeroinitializer, [7 x i8] undef, i8* getelementptr inbounds (<{ [31 x i8] }>, <{ [31 x i8] }>* @alloc22, i32 0, i32 0, i32 0), [8 x i8] c"\1F\00\00\00\00\00\00\00", [16 x i8] undef, [8 x i8] zeroinitializer, [8 x i8] undef, [8 x i8] zeroinitializer, [16 x i8] undef, [4 x i8] zeroinitializer, [4 x i8] undef, [8 x i8] zeroinitializer, i8* bitcast (void ()* @_ZN4core3ops8function6FnOnce9call_once17hd40acabd5de17d45E to i8*), [8 x i8] undef }>, align 8
@alloc32 = private unnamed_addr constant <{ [27 x i8] }> <{ [27 x i8] c"test_builtins::test_mem_fns" }>, align 1
@alloc235 = private unnamed_addr constant <{ [1 x i8], [7 x i8], i8*, [8 x i8], [16 x i8], [8 x i8], [8 x i8], [8 x i8], [16 x i8], [4 x i8], [4 x i8], [8 x i8], i8*, [8 x i8] }> <{ [1 x i8] zeroinitializer, [7 x i8] undef, i8* getelementptr inbounds (<{ [27 x i8] }>, <{ [27 x i8] }>* @alloc32, i32 0, i32 0, i32 0), [8 x i8] c"\1B\00\00\00\00\00\00\00", [16 x i8] undef, [8 x i8] zeroinitializer, [8 x i8] undef, [8 x i8] zeroinitializer, [16 x i8] undef, [4 x i8] zeroinitializer, [4 x i8] undef, [8 x i8] zeroinitializer, i8* bitcast (void ()* @_ZN4core3ops8function6FnOnce9call_once17h97c60de9603a7f92E to i8*), [8 x i8] undef }>, align 8
@alloc42 = private unnamed_addr constant <{ [23 x i8] }> <{ [23 x i8] c"test_builtins::test_ffs" }>, align 1
@alloc236 = private unnamed_addr constant <{ [1 x i8], [7 x i8], i8*, [8 x i8], [16 x i8], [8 x i8], [8 x i8], [8 x i8], [16 x i8], [4 x i8], [4 x i8], [8 x i8], i8*, [8 x i8] }> <{ [1 x i8] zeroinitializer, [7 x i8] undef, i8* getelementptr inbounds (<{ [23 x i8] }>, <{ [23 x i8] }>* @alloc42, i32 0, i32 0, i32 0), [8 x i8] c"\17\00\00\00\00\00\00\00", [16 x i8] undef, [8 x i8] zeroinitializer, [8 x i8] undef, [8 x i8] zeroinitializer, [16 x i8] undef, [4 x i8] zeroinitializer, [4 x i8] undef, [8 x i8] zeroinitializer, i8* bitcast (void ()* @_ZN4core3ops8function6FnOnce9call_once17hf32868d83ef7a250E to i8*), [8 x i8] undef }>, align 8
@alloc52 = private unnamed_addr constant <{ [37 x i8] }> <{ [37 x i8] c"test_builtins::test_clang9_intrinsics" }>, align 1
@alloc237 = private unnamed_addr constant <{ [1 x i8], [7 x i8], i8*, [8 x i8], [16 x i8], [8 x i8], [8 x i8], [8 x i8], [16 x i8], [4 x i8], [4 x i8], [8 x i8], i8*, [8 x i8] }> <{ [1 x i8] zeroinitializer, [7 x i8] undef, i8* getelementptr inbounds (<{ [37 x i8] }>, <{ [37 x i8] }>* @alloc52, i32 0, i32 0, i32 0), [8 x i8] c"%\00\00\00\00\00\00\00", [16 x i8] undef, [8 x i8] zeroinitializer, [8 x i8] undef, [8 x i8] zeroinitializer, [16 x i8] undef, [4 x i8] zeroinitializer, [4 x i8] undef, [8 x i8] zeroinitializer, i8* bitcast (void ()* @_ZN4core3ops8function6FnOnce9call_once17h42c3da1e729528cdE to i8*), [8 x i8] undef }>, align 8
@alloc62 = private unnamed_addr constant <{ [34 x i8] }> <{ [34 x i8] c"test_builtins::test_assume_aligned" }>, align 1
@alloc238 = private unnamed_addr constant <{ [1 x i8], [7 x i8], i8*, [8 x i8], [16 x i8], [8 x i8], [8 x i8], [8 x i8], [16 x i8], [4 x i8], [4 x i8], [8 x i8], i8*, [8 x i8] }> <{ [1 x i8] zeroinitializer, [7 x i8] undef, i8* getelementptr inbounds (<{ [34 x i8] }>, <{ [34 x i8] }>* @alloc62, i32 0, i32 0, i32 0), [8 x i8] c"\22\00\00\00\00\00\00\00", [16 x i8] undef, [8 x i8] zeroinitializer, [8 x i8] undef, [8 x i8] zeroinitializer, [16 x i8] undef, [4 x i8] zeroinitializer, [4 x i8] undef, [8 x i8] zeroinitializer, i8* bitcast (void ()* @_ZN4core3ops8function6FnOnce9call_once17hfb85b7228e7b23c6E to i8*), [8 x i8] undef }>, align 8
@alloc239 = private unnamed_addr constant <{ i8*, i8*, i8*, i8*, i8*, i8* }> <{ i8* getelementptr inbounds (<{ [1 x i8], [7 x i8], i8*, [8 x i8], [16 x i8], [8 x i8], [8 x i8], [8 x i8], [16 x i8], [4 x i8], [4 x i8], [8 x i8], i8*, [8 x i8] }>, <{ [1 x i8], [7 x i8], i8*, [8 x i8], [16 x i8], [8 x i8], [8 x i8], [8 x i8], [16 x i8], [4 x i8], [4 x i8], [8 x i8], i8*, [8 x i8] }>* @alloc233, i32 0, i32 0, i32 0), i8* getelementptr inbounds (<{ [1 x i8], [7 x i8], i8*, [8 x i8], [16 x i8], [8 x i8], [8 x i8], [8 x i8], [16 x i8], [4 x i8], [4 x i8], [8 x i8], i8*, [8 x i8] }>, <{ [1 x i8], [7 x i8], i8*, [8 x i8], [16 x i8], [8 x i8], [8 x i8], [8 x i8], [16 x i8], [4 x i8], [4 x i8], [8 x i8], i8*, [8 x i8] }>* @alloc234, i32 0, i32 0, i32 0), i8* getelementptr inbounds (<{ [1 x i8], [7 x i8], i8*, [8 x i8], [16 x i8], [8 x i8], [8 x i8], [8 x i8], [16 x i8], [4 x i8], [4 x i8], [8 x i8], i8*, [8 x i8] }>, <{ [1 x i8], [7 x i8], i8*, [8 x i8], [16 x i8], [8 x i8], [8 x i8], [8 x i8], [16 x i8], [4 x i8], [4 x i8], [8 x i8], i8*, [8 x i8] }>* @alloc235, i32 0, i32 0, i32 0), i8* getelementptr inbounds (<{ [1 x i8], [7 x i8], i8*, [8 x i8], [16 x i8], [8 x i8], [8 x i8], [8 x i8], [16 x i8], [4 x i8], [4 x i8], [8 x i8], i8*, [8 x i8] }>, <{ [1 x i8], [7 x i8], i8*, [8 x i8], [16 x i8], [8 x i8], [8 x i8], [8 x i8], [16 x i8], [4 x i8], [4 x i8], [8 x i8], i8*, [8 x i8] }>* @alloc236, i32 0, i32 0, i32 0), i8* getelementptr inbounds (<{ [1 x i8], [7 x i8], i8*, [8 x i8], [16 x i8], [8 x i8], [8 x i8], [8 x i8], [16 x i8], [4 x i8], [4 x i8], [8 x i8], i8*, [8 x i8] }>, <{ [1 x i8], [7 x i8], i8*, [8 x i8], [16 x i8], [8 x i8], [8 x i8], [8 x i8], [16 x i8], [4 x i8], [4 x i8], [8 x i8], i8*, [8 x i8] }>* @alloc237, i32 0, i32 0, i32 0), i8* getelementptr inbounds (<{ [1 x i8], [7 x i8], i8*, [8 x i8], [16 x i8], [8 x i8], [8 x i8], [8 x i8], [16 x i8], [4 x i8], [4 x i8], [8 x i8], i8*, [8 x i8] }>, <{ [1 x i8], [7 x i8], i8*, [8 x i8], [16 x i8], [8 x i8], [8 x i8], [8 x i8], [16 x i8], [4 x i8], [4 x i8], [8 x i8], i8*, [8 x i8] }>* @alloc238, i32 0, i32 0, i32 0) }>, align 8
@__rustc_debug_gdb_scripts_section__ = linkonce_odr unnamed_addr constant [34 x i8] c"\01gdb_load_rust_pretty_printers.py\00", section ".debug_gdb_scripts", align 1

; std::sys_common::backtrace::__rust_begin_short_backtrace
; Function Attrs: noinline nonlazybind uwtable
define internal void @_ZN3std10sys_common9backtrace28__rust_begin_short_backtrace17h08a5347d56569079E(void ()* %f) unnamed_addr #0 personality i32 (i32, i32, i64, %"unwind::libunwind::_Unwind_Exception"*, %"unwind::libunwind::_Unwind_Context"*)* @rust_eh_personality !dbg !85 {
start:
  %0 = alloca { i8*, i32 }, align 8
  %dummy.dbg.spill = alloca {}, align 1
  %f.dbg.spill = alloca void ()*, align 8
  %result.dbg.spill = alloca {}, align 1
  call void @llvm.dbg.declare(metadata {}* %result.dbg.spill, metadata !93, metadata !DIExpression()), !dbg !98
  store void ()* %f, void ()** %f.dbg.spill, align 8
  call void @llvm.dbg.declare(metadata void ()** %f.dbg.spill, metadata !92, metadata !DIExpression()), !dbg !99
  call void @llvm.dbg.declare(metadata {}* %dummy.dbg.spill, metadata !100, metadata !DIExpression()), !dbg !109
; call core::ops::function::FnOnce::call_once
  call void @_ZN4core3ops8function6FnOnce9call_once17hb12cdb3783d52b0cE(void ()* %f), !dbg !111
  br label %bb1, !dbg !111

bb1:                                              ; preds = %start
  call void asm sideeffect "", "r,~{memory}"({}* undef), !dbg !109, !srcloc !112
  br label %bb4, !dbg !109

bb4:                                              ; preds = %bb1
  ret void, !dbg !113

bb2:                                              ; No predecessors!
  br label %bb3, !dbg !114

bb3:                                              ; preds = %bb2
  %1 = bitcast { i8*, i32 }* %0 to i8**, !dbg !115
  %2 = load i8*, i8** %1, align 8, !dbg !115
  %3 = getelementptr inbounds { i8*, i32 }, { i8*, i32 }* %0, i32 0, i32 1, !dbg !115
  %4 = load i32, i32* %3, align 8, !dbg !115
  %5 = insertvalue { i8*, i32 } undef, i8* %2, 0, !dbg !115
  %6 = insertvalue { i8*, i32 } %5, i32 %4, 1, !dbg !115
  resume { i8*, i32 } %6, !dbg !115
}

; std::rt::lang_start
; Function Attrs: nonlazybind uwtable
define hidden i64 @_ZN3std2rt10lang_start17h463f04302d66d370E(void ()* %main, i64 %argc, i8** %argv) unnamed_addr #1 !dbg !116 {
start:
  %v.dbg.spill = alloca i64, align 8
  %argv.dbg.spill = alloca i8**, align 8
  %argc.dbg.spill = alloca i64, align 8
  %main.dbg.spill = alloca void ()*, align 8
  %_8 = alloca i64*, align 8
  %_4 = alloca i64, align 8
  store void ()* %main, void ()** %main.dbg.spill, align 8
  call void @llvm.dbg.declare(metadata void ()** %main.dbg.spill, metadata !124, metadata !DIExpression()), !dbg !129
  store i64 %argc, i64* %argc.dbg.spill, align 8
  call void @llvm.dbg.declare(metadata i64* %argc.dbg.spill, metadata !125, metadata !DIExpression()), !dbg !130
  store i8** %argv, i8*** %argv.dbg.spill, align 8
  call void @llvm.dbg.declare(metadata i8*** %argv.dbg.spill, metadata !126, metadata !DIExpression()), !dbg !131
  %0 = bitcast i64** %_8 to void ()**, !dbg !132
  store void ()* %main, void ()** %0, align 8, !dbg !132
  %_5.0 = bitcast i64** %_8 to {}*, !dbg !133
; call std::rt::lang_start_internal
  %1 = call i64 @_ZN3std2rt19lang_start_internal17h498f9556b87c8e5fE({}* align 1 %_5.0, [3 x i64]* align 8 bitcast (<{ i8*, [16 x i8], i8*, i8*, i8* }>* @vtable.0 to [3 x i64]*), i64 %argc, i8** %argv), !dbg !134
  store i64 %1, i64* %_4, align 8, !dbg !134
  br label %bb1, !dbg !134

bb1:                                              ; preds = %start
  %v = load i64, i64* %_4, align 8, !dbg !135
  store i64 %v, i64* %v.dbg.spill, align 8, !dbg !135
  call void @llvm.dbg.declare(metadata i64* %v.dbg.spill, metadata !127, metadata !DIExpression()), !dbg !136
  ret i64 %v, !dbg !137
}

; std::rt::lang_start::{{closure}}
; Function Attrs: inlinehint nonlazybind uwtable
define internal i32 @"_ZN3std2rt10lang_start28_$u7b$$u7b$closure$u7d$$u7d$17h812f3e79cb835fdfE"(i64** align 8 %_1) unnamed_addr #2 !dbg !138 {
start:
  %self.dbg.spill = alloca i8*, align 8
  %_1.dbg.spill = alloca i64**, align 8
  %self = alloca i8, align 1
  store i64** %_1, i64*** %_1.dbg.spill, align 8
  %0 = load i64**, i64*** %_1.dbg.spill, align 8, !nonnull !23, !align !144, !noundef !23
  %1 = bitcast i64** %0 to void ()**
  call void @llvm.dbg.declare(metadata i64*** %_1.dbg.spill, metadata !143, metadata !DIExpression(DW_OP_deref)), !dbg !145
  call void @llvm.dbg.declare(metadata i8* %self, metadata !146, metadata !DIExpression()), !dbg !164
  %2 = bitcast i64** %_1 to void ()**, !dbg !166
  %_4 = load void ()*, void ()** %2, align 8, !dbg !166, !nonnull !23, !noundef !23
; call std::sys_common::backtrace::__rust_begin_short_backtrace
  call void @_ZN3std10sys_common9backtrace28__rust_begin_short_backtrace17h08a5347d56569079E(void ()* %_4), !dbg !165
  br label %bb1, !dbg !165

bb1:                                              ; preds = %start
; call <() as std::process::Termination>::report
  %3 = call i8 @"_ZN54_$LT$$LP$$RP$$u20$as$u20$std..process..Termination$GT$6report17h039a9e491ba2ff7fE"(), !dbg !165
  store i8 %3, i8* %self, align 1, !dbg !165
  br label %bb2, !dbg !165

bb2:                                              ; preds = %bb1
  store i8* %self, i8** %self.dbg.spill, align 8, !dbg !164
  call void @llvm.dbg.declare(metadata i8** %self.dbg.spill, metadata !167, metadata !DIExpression()), !dbg !175
  %_6 = load i8, i8* %self, align 1, !dbg !175
  %4 = zext i8 %_6 to i32, !dbg !175
  ret i32 %4, !dbg !177
}

; <&T as core::fmt::Debug>::fmt
; Function Attrs: nonlazybind uwtable
define internal zeroext i1 @"_ZN42_$LT$$RF$T$u20$as$u20$core..fmt..Debug$GT$3fmt17h22e57aa275c6fca6E"(i32** align 8 %self, %"core::fmt::Formatter"* align 8 %f) unnamed_addr #1 !dbg !178 {
start:
  %f.dbg.spill = alloca %"core::fmt::Formatter"*, align 8
  %self.dbg.spill = alloca i32**, align 8
  store i32** %self, i32*** %self.dbg.spill, align 8
  call void @llvm.dbg.declare(metadata i32*** %self.dbg.spill, metadata !238, metadata !DIExpression()), !dbg !242
  store %"core::fmt::Formatter"* %f, %"core::fmt::Formatter"** %f.dbg.spill, align 8
  call void @llvm.dbg.declare(metadata %"core::fmt::Formatter"** %f.dbg.spill, metadata !239, metadata !DIExpression()), !dbg !243
  %_6 = load i32*, i32** %self, align 8, !dbg !244, !nonnull !23, !align !245, !noundef !23
; call core::fmt::num::<impl core::fmt::Debug for i32>::fmt
  %0 = call zeroext i1 @"_ZN4core3fmt3num50_$LT$impl$u20$core..fmt..Debug$u20$for$u20$i32$GT$3fmt17h5f3c4d2e229a49c7E"(i32* align 4 %_6, %"core::fmt::Formatter"* align 8 %f), !dbg !246
  br label %bb1, !dbg !246

bb1:                                              ; preds = %start
  ret i1 %0, !dbg !247
}

; <&T as core::fmt::Debug>::fmt
; Function Attrs: nonlazybind uwtable
define internal zeroext i1 @"_ZN42_$LT$$RF$T$u20$as$u20$core..fmt..Debug$GT$3fmt17h5cf0eda63010df00E"(i8** align 8 %self, %"core::fmt::Formatter"* align 8 %f) unnamed_addr #1 !dbg !248 {
start:
  %f.dbg.spill = alloca %"core::fmt::Formatter"*, align 8
  %self.dbg.spill = alloca i8**, align 8
  store i8** %self, i8*** %self.dbg.spill, align 8
  call void @llvm.dbg.declare(metadata i8*** %self.dbg.spill, metadata !253, metadata !DIExpression()), !dbg !257
  store %"core::fmt::Formatter"* %f, %"core::fmt::Formatter"** %f.dbg.spill, align 8
  call void @llvm.dbg.declare(metadata %"core::fmt::Formatter"** %f.dbg.spill, metadata !254, metadata !DIExpression()), !dbg !258
  %_6 = load i8*, i8** %self, align 8, !dbg !259, !nonnull !23, !align !260, !noundef !23
; call core::fmt::num::<impl core::fmt::Debug for i8>::fmt
  %0 = call zeroext i1 @"_ZN4core3fmt3num49_$LT$impl$u20$core..fmt..Debug$u20$for$u20$i8$GT$3fmt17h3fa553ca0d403feaE"(i8* align 1 %_6, %"core::fmt::Formatter"* align 8 %f), !dbg !261
  br label %bb1, !dbg !261

bb1:                                              ; preds = %start
  ret i1 %0, !dbg !262
}

; <&T as core::fmt::Debug>::fmt
; Function Attrs: nonlazybind uwtable
define internal zeroext i1 @"_ZN42_$LT$$RF$T$u20$as$u20$core..fmt..Debug$GT$3fmt17h66fce1f5a3097eb2E"(i8*** align 8 %self, %"core::fmt::Formatter"* align 8 %f) unnamed_addr #1 !dbg !263 {
start:
  %f.dbg.spill = alloca %"core::fmt::Formatter"*, align 8
  %self.dbg.spill = alloca i8***, align 8
  store i8*** %self, i8**** %self.dbg.spill, align 8
  call void @llvm.dbg.declare(metadata i8**** %self.dbg.spill, metadata !268, metadata !DIExpression()), !dbg !272
  store %"core::fmt::Formatter"* %f, %"core::fmt::Formatter"** %f.dbg.spill, align 8
  call void @llvm.dbg.declare(metadata %"core::fmt::Formatter"** %f.dbg.spill, metadata !269, metadata !DIExpression()), !dbg !273
  %_6 = load i8**, i8*** %self, align 8, !dbg !274, !nonnull !23, !align !144, !noundef !23
; call <*mut T as core::fmt::Debug>::fmt
  %0 = call zeroext i1 @"_ZN50_$LT$$BP$mut$u20$T$u20$as$u20$core..fmt..Debug$GT$3fmt17hb0f07914bd25b43fE"(i8** align 8 %_6, %"core::fmt::Formatter"* align 8 %f), !dbg !275
  br label %bb1, !dbg !275

bb1:                                              ; preds = %start
  ret i1 %0, !dbg !276
}

; <i32 as core::iter::range::Step>::forward_unchecked
; Function Attrs: inlinehint nonlazybind uwtable
define internal i32 @"_ZN47_$LT$i32$u20$as$u20$core..iter..range..Step$GT$17forward_unchecked17hb338384235ee35b1E"(i32 %start1, i64 %n) unnamed_addr #2 !dbg !277 {
start:
  %0 = alloca i32, align 4
  %rhs.dbg.spill = alloca i32, align 4
  %self.dbg.spill = alloca i32, align 4
  %n.dbg.spill = alloca i64, align 8
  %start.dbg.spill = alloca i32, align 4
  store i32 %start1, i32* %start.dbg.spill, align 4
  call void @llvm.dbg.declare(metadata i32* %start.dbg.spill, metadata !285, metadata !DIExpression()), !dbg !287
  store i64 %n, i64* %n.dbg.spill, align 8
  call void @llvm.dbg.declare(metadata i64* %n.dbg.spill, metadata !286, metadata !DIExpression()), !dbg !288
  store i32 %start1, i32* %self.dbg.spill, align 4, !dbg !289
  call void @llvm.dbg.declare(metadata i32* %self.dbg.spill, metadata !290, metadata !DIExpression()), !dbg !300
  %rhs = trunc i64 %n to i32, !dbg !301
  store i32 %rhs, i32* %rhs.dbg.spill, align 4, !dbg !301
  call void @llvm.dbg.declare(metadata i32* %rhs.dbg.spill, metadata !299, metadata !DIExpression()), !dbg !300
  %1 = add nsw i32 %start1, %rhs, !dbg !300
  store i32 %1, i32* %0, align 4, !dbg !300
  %2 = load i32, i32* %0, align 4, !dbg !300
  br label %bb1, !dbg !300

bb1:                                              ; preds = %start
  ret i32 %2, !dbg !302
}

; <usize as core::iter::range::Step>::forward_unchecked
; Function Attrs: inlinehint nonlazybind uwtable
define internal i64 @"_ZN49_$LT$usize$u20$as$u20$core..iter..range..Step$GT$17forward_unchecked17he3681b3449577bc1E"(i64 %start1, i64 %n) unnamed_addr #2 !dbg !303 {
start:
  %0 = alloca i64, align 8
  %rhs.dbg.spill = alloca i64, align 8
  %self.dbg.spill = alloca i64, align 8
  %n.dbg.spill = alloca i64, align 8
  %start.dbg.spill = alloca i64, align 8
  store i64 %start1, i64* %start.dbg.spill, align 8
  call void @llvm.dbg.declare(metadata i64* %start.dbg.spill, metadata !308, metadata !DIExpression()), !dbg !310
  store i64 %n, i64* %n.dbg.spill, align 8
  call void @llvm.dbg.declare(metadata i64* %n.dbg.spill, metadata !309, metadata !DIExpression()), !dbg !311
  store i64 %start1, i64* %self.dbg.spill, align 8, !dbg !312
  call void @llvm.dbg.declare(metadata i64* %self.dbg.spill, metadata !313, metadata !DIExpression()), !dbg !320
  store i64 %n, i64* %rhs.dbg.spill, align 8, !dbg !321
  call void @llvm.dbg.declare(metadata i64* %rhs.dbg.spill, metadata !319, metadata !DIExpression()), !dbg !320
  %1 = add nuw i64 %start1, %n, !dbg !320
  store i64 %1, i64* %0, align 8, !dbg !320
  %2 = load i64, i64* %0, align 8, !dbg !320
  br label %bb1, !dbg !320

bb1:                                              ; preds = %start
  ret i64 %2, !dbg !322
}

; core::cmp::impls::<impl core::cmp::PartialOrd for i32>::lt
; Function Attrs: inlinehint nonlazybind uwtable
define internal zeroext i1 @"_ZN4core3cmp5impls55_$LT$impl$u20$core..cmp..PartialOrd$u20$for$u20$i32$GT$2lt17h133a613cfd37860bE"(i32* align 4 %self, i32* align 4 %other) unnamed_addr #2 !dbg !323 {
start:
  %other.dbg.spill = alloca i32*, align 8
  %self.dbg.spill = alloca i32*, align 8
  store i32* %self, i32** %self.dbg.spill, align 8
  call void @llvm.dbg.declare(metadata i32** %self.dbg.spill, metadata !332, metadata !DIExpression()), !dbg !334
  store i32* %other, i32** %other.dbg.spill, align 8
  call void @llvm.dbg.declare(metadata i32** %other.dbg.spill, metadata !333, metadata !DIExpression()), !dbg !335
  %_3 = load i32, i32* %self, align 4, !dbg !336
  %_4 = load i32, i32* %other, align 4, !dbg !337
  %0 = icmp slt i32 %_3, %_4, !dbg !336
  ret i1 %0, !dbg !338
}

; core::cmp::impls::<impl core::cmp::PartialOrd for usize>::lt
; Function Attrs: inlinehint nonlazybind uwtable
define internal zeroext i1 @"_ZN4core3cmp5impls57_$LT$impl$u20$core..cmp..PartialOrd$u20$for$u20$usize$GT$2lt17h29d5a4ed65c7f8b5E"(i64* align 8 %self, i64* align 8 %other) unnamed_addr #2 !dbg !339 {
start:
  %other.dbg.spill = alloca i64*, align 8
  %self.dbg.spill = alloca i64*, align 8
  store i64* %self, i64** %self.dbg.spill, align 8
  call void @llvm.dbg.declare(metadata i64** %self.dbg.spill, metadata !345, metadata !DIExpression()), !dbg !347
  store i64* %other, i64** %other.dbg.spill, align 8
  call void @llvm.dbg.declare(metadata i64** %other.dbg.spill, metadata !346, metadata !DIExpression()), !dbg !348
  %_3 = load i64, i64* %self, align 8, !dbg !349
  %_4 = load i64, i64* %other, align 8, !dbg !350
  %0 = icmp ult i64 %_3, %_4, !dbg !349
  ret i1 %0, !dbg !351
}

; core::f64::<impl f64>::is_infinite
; Function Attrs: inlinehint nonlazybind uwtable
define internal zeroext i1 @"_ZN4core3f6421_$LT$impl$u20$f64$GT$11is_infinite17hf53a56ab45e2ce57E"(double %self) unnamed_addr #2 !dbg !352 {
start:
  %self.dbg.spill = alloca double, align 8
  store double %self, double* %self.dbg.spill, align 8
  call void @llvm.dbg.declare(metadata double* %self.dbg.spill, metadata !360, metadata !DIExpression()), !dbg !361
  %_2 = fcmp oeq double %self, 0x7FF0000000000000, !dbg !362
  %_4 = fcmp oeq double %self, 0xFFF0000000000000, !dbg !363
  %0 = or i1 %_2, %_4, !dbg !362
  ret i1 %0, !dbg !364
}

; core::f64::<impl f64>::is_sign_positive
; Function Attrs: inlinehint nonlazybind uwtable
define internal zeroext i1 @"_ZN4core3f6421_$LT$impl$u20$f64$GT$16is_sign_positive17h399d3f3f2dbfd242E"(double %self) unnamed_addr #2 !dbg !365 {
start:
  %0 = alloca i64, align 8
  %self.dbg.spill1 = alloca double, align 8
  %self.dbg.spill = alloca double, align 8
  store double %self, double* %self.dbg.spill, align 8
  call void @llvm.dbg.declare(metadata double* %self.dbg.spill, metadata !367, metadata !DIExpression()), !dbg !368
  store double %self, double* %self.dbg.spill1, align 8, !dbg !369
  call void @llvm.dbg.declare(metadata double* %self.dbg.spill1, metadata !370, metadata !DIExpression()), !dbg !373
  %1 = bitcast double %self to i64, !dbg !373
  store i64 %1, i64* %0, align 8, !dbg !373
  %_5 = load i64, i64* %0, align 8, !dbg !373
  br label %bb1, !dbg !373

bb1:                                              ; preds = %start
  %_4 = and i64 %_5, -9223372036854775808, !dbg !373
  %_2 = icmp ne i64 %_4, 0, !dbg !373
  %2 = xor i1 %_2, true, !dbg !374
  ret i1 %2, !dbg !375
}

; core::f64::<impl f64>::is_nan
; Function Attrs: inlinehint nonlazybind uwtable
define internal zeroext i1 @"_ZN4core3f6421_$LT$impl$u20$f64$GT$6is_nan17h3d1205a72f351995E"(double %self) unnamed_addr #2 !dbg !376 {
start:
  %self.dbg.spill = alloca double, align 8
  store double %self, double* %self.dbg.spill, align 8
  call void @llvm.dbg.declare(metadata double* %self.dbg.spill, metadata !378, metadata !DIExpression()), !dbg !379
  %0 = fcmp une double %self, %self, !dbg !380
  ret i1 %0, !dbg !381
}

; core::f64::<impl f64>::is_finite
; Function Attrs: inlinehint nonlazybind uwtable
define internal zeroext i1 @"_ZN4core3f6421_$LT$impl$u20$f64$GT$9is_finite17hb16350ab710f8936E"(double %self) unnamed_addr #2 !dbg !382 {
start:
  %0 = alloca double, align 8
  %1 = alloca i64, align 8
  %self.dbg.spill1 = alloca double, align 8
  %self.dbg.spill = alloca double, align 8
  store double %self, double* %self.dbg.spill, align 8
  call void @llvm.dbg.declare(metadata double* %self.dbg.spill, metadata !384, metadata !DIExpression()), !dbg !385
  store double %self, double* %self.dbg.spill1, align 8, !dbg !386
  call void @llvm.dbg.declare(metadata double* %self.dbg.spill1, metadata !387, metadata !DIExpression()), !dbg !392
  %2 = bitcast double %self to i64, !dbg !392
  store i64 %2, i64* %1, align 8, !dbg !392
  %_5 = load i64, i64* %1, align 8, !dbg !392
  br label %bb1, !dbg !392

bb1:                                              ; preds = %start
  %_4 = and i64 %_5, 9223372036854775807, !dbg !392
  %3 = bitcast i64 %_4 to double, !dbg !392
  store double %3, double* %0, align 8, !dbg !392
  %_2 = load double, double* %0, align 8, !dbg !392
  br label %bb2, !dbg !392

bb2:                                              ; preds = %bb1
  %4 = fcmp olt double %_2, 0x7FF0000000000000, !dbg !386
  ret i1 %4, !dbg !393
}

; core::fmt::ArgumentV1::new_display
; Function Attrs: inlinehint nonlazybind uwtable
define internal { i8*, i64* } @_ZN4core3fmt10ArgumentV111new_display17h0531faed7d7172b9E(i64* align 8 %x) unnamed_addr #2 !dbg !394 {
start:
  %0 = alloca %"core::fmt::Opaque"*, align 8
  %1 = alloca i1 (%"core::fmt::Opaque"*, %"core::fmt::Formatter"*)*, align 8
  %f.dbg.spill = alloca i1 (i64*, %"core::fmt::Formatter"*)*, align 8
  %x.dbg.spill1 = alloca i64*, align 8
  %x.dbg.spill = alloca i64*, align 8
  %2 = alloca { i8*, i64* }, align 8
  store i64* %x, i64** %x.dbg.spill, align 8
  call void @llvm.dbg.declare(metadata i64** %x.dbg.spill, metadata !408, metadata !DIExpression()), !dbg !409
  store i64* %x, i64** %x.dbg.spill1, align 8, !dbg !410
  call void @llvm.dbg.declare(metadata i64** %x.dbg.spill1, metadata !411, metadata !DIExpression()), !dbg !420
  store i1 (i64*, %"core::fmt::Formatter"*)* @"_ZN4core3fmt3num3imp54_$LT$impl$u20$core..fmt..Display$u20$for$u20$usize$GT$3fmt17h13884cc54f932e9aE", i1 (i64*, %"core::fmt::Formatter"*)** %f.dbg.spill, align 8, !dbg !422
  call void @llvm.dbg.declare(metadata i1 (i64*, %"core::fmt::Formatter"*)** %f.dbg.spill, metadata !419, metadata !DIExpression()), !dbg !420
  store i1 (%"core::fmt::Opaque"*, %"core::fmt::Formatter"*)* bitcast (i1 (i64*, %"core::fmt::Formatter"*)* @"_ZN4core3fmt3num3imp54_$LT$impl$u20$core..fmt..Display$u20$for$u20$usize$GT$3fmt17h13884cc54f932e9aE" to i1 (%"core::fmt::Opaque"*, %"core::fmt::Formatter"*)*), i1 (%"core::fmt::Opaque"*, %"core::fmt::Formatter"*)** %1, align 8, !dbg !420
  %_4 = load i1 (%"core::fmt::Opaque"*, %"core::fmt::Formatter"*)*, i1 (%"core::fmt::Opaque"*, %"core::fmt::Formatter"*)** %1, align 8, !dbg !420, !nonnull !23, !noundef !23
  br label %bb1, !dbg !420

bb1:                                              ; preds = %start
  %3 = bitcast i64* %x to %"core::fmt::Opaque"*, !dbg !420
  store %"core::fmt::Opaque"* %3, %"core::fmt::Opaque"** %0, align 8, !dbg !420
  %_6 = load %"core::fmt::Opaque"*, %"core::fmt::Opaque"** %0, align 8, !dbg !420, !nonnull !23, !align !260, !noundef !23
  br label %bb2, !dbg !420

bb2:                                              ; preds = %bb1
  %4 = bitcast { i8*, i64* }* %2 to %"core::fmt::Opaque"**, !dbg !420
  store %"core::fmt::Opaque"* %_6, %"core::fmt::Opaque"** %4, align 8, !dbg !420
  %5 = getelementptr inbounds { i8*, i64* }, { i8*, i64* }* %2, i32 0, i32 1, !dbg !420
  %6 = bitcast i64** %5 to i1 (%"core::fmt::Opaque"*, %"core::fmt::Formatter"*)**, !dbg !420
  store i1 (%"core::fmt::Opaque"*, %"core::fmt::Formatter"*)* %_4, i1 (%"core::fmt::Opaque"*, %"core::fmt::Formatter"*)** %6, align 8, !dbg !420
  %7 = getelementptr inbounds { i8*, i64* }, { i8*, i64* }* %2, i32 0, i32 0, !dbg !423
  %8 = load i8*, i8** %7, align 8, !dbg !423, !nonnull !23, !align !260, !noundef !23
  %9 = getelementptr inbounds { i8*, i64* }, { i8*, i64* }* %2, i32 0, i32 1, !dbg !423
  %10 = load i64*, i64** %9, align 8, !dbg !423, !nonnull !23, !noundef !23
  %11 = insertvalue { i8*, i64* } undef, i8* %8, 0, !dbg !423
  %12 = insertvalue { i8*, i64* } %11, i64* %10, 1, !dbg !423
  ret { i8*, i64* } %12, !dbg !423
}

; core::fmt::ArgumentV1::new_display
; Function Attrs: inlinehint nonlazybind uwtable
define internal { i8*, i64* } @_ZN4core3fmt10ArgumentV111new_display17hceec64f62003c15dE(i32* align 4 %x) unnamed_addr #2 !dbg !424 {
start:
  %0 = alloca %"core::fmt::Opaque"*, align 8
  %1 = alloca i1 (%"core::fmt::Opaque"*, %"core::fmt::Formatter"*)*, align 8
  %f.dbg.spill = alloca i1 (i32*, %"core::fmt::Formatter"*)*, align 8
  %x.dbg.spill1 = alloca i32*, align 8
  %x.dbg.spill = alloca i32*, align 8
  %2 = alloca { i8*, i64* }, align 8
  store i32* %x, i32** %x.dbg.spill, align 8
  call void @llvm.dbg.declare(metadata i32** %x.dbg.spill, metadata !428, metadata !DIExpression()), !dbg !429
  store i32* %x, i32** %x.dbg.spill1, align 8, !dbg !430
  call void @llvm.dbg.declare(metadata i32** %x.dbg.spill1, metadata !431, metadata !DIExpression()), !dbg !440
  store i1 (i32*, %"core::fmt::Formatter"*)* @"_ZN4core3fmt3num3imp52_$LT$impl$u20$core..fmt..Display$u20$for$u20$i32$GT$3fmt17h52a4838d0eaa2babE", i1 (i32*, %"core::fmt::Formatter"*)** %f.dbg.spill, align 8, !dbg !442
  call void @llvm.dbg.declare(metadata i1 (i32*, %"core::fmt::Formatter"*)** %f.dbg.spill, metadata !439, metadata !DIExpression()), !dbg !440
  store i1 (%"core::fmt::Opaque"*, %"core::fmt::Formatter"*)* bitcast (i1 (i32*, %"core::fmt::Formatter"*)* @"_ZN4core3fmt3num3imp52_$LT$impl$u20$core..fmt..Display$u20$for$u20$i32$GT$3fmt17h52a4838d0eaa2babE" to i1 (%"core::fmt::Opaque"*, %"core::fmt::Formatter"*)*), i1 (%"core::fmt::Opaque"*, %"core::fmt::Formatter"*)** %1, align 8, !dbg !440
  %_4 = load i1 (%"core::fmt::Opaque"*, %"core::fmt::Formatter"*)*, i1 (%"core::fmt::Opaque"*, %"core::fmt::Formatter"*)** %1, align 8, !dbg !440, !nonnull !23, !noundef !23
  br label %bb1, !dbg !440

bb1:                                              ; preds = %start
  %3 = bitcast i32* %x to %"core::fmt::Opaque"*, !dbg !440
  store %"core::fmt::Opaque"* %3, %"core::fmt::Opaque"** %0, align 8, !dbg !440
  %_6 = load %"core::fmt::Opaque"*, %"core::fmt::Opaque"** %0, align 8, !dbg !440, !nonnull !23, !align !260, !noundef !23
  br label %bb2, !dbg !440

bb2:                                              ; preds = %bb1
  %4 = bitcast { i8*, i64* }* %2 to %"core::fmt::Opaque"**, !dbg !440
  store %"core::fmt::Opaque"* %_6, %"core::fmt::Opaque"** %4, align 8, !dbg !440
  %5 = getelementptr inbounds { i8*, i64* }, { i8*, i64* }* %2, i32 0, i32 1, !dbg !440
  %6 = bitcast i64** %5 to i1 (%"core::fmt::Opaque"*, %"core::fmt::Formatter"*)**, !dbg !440
  store i1 (%"core::fmt::Opaque"*, %"core::fmt::Formatter"*)* %_4, i1 (%"core::fmt::Opaque"*, %"core::fmt::Formatter"*)** %6, align 8, !dbg !440
  %7 = getelementptr inbounds { i8*, i64* }, { i8*, i64* }* %2, i32 0, i32 0, !dbg !443
  %8 = load i8*, i8** %7, align 8, !dbg !443, !nonnull !23, !align !260, !noundef !23
  %9 = getelementptr inbounds { i8*, i64* }, { i8*, i64* }* %2, i32 0, i32 1, !dbg !443
  %10 = load i64*, i64** %9, align 8, !dbg !443, !nonnull !23, !noundef !23
  %11 = insertvalue { i8*, i64* } undef, i8* %8, 0, !dbg !443
  %12 = insertvalue { i8*, i64* } %11, i64* %10, 1, !dbg !443
  ret { i8*, i64* } %12, !dbg !443
}

; core::fmt::num::<impl core::fmt::Debug for i8>::fmt
; Function Attrs: inlinehint nonlazybind uwtable
define internal zeroext i1 @"_ZN4core3fmt3num49_$LT$impl$u20$core..fmt..Debug$u20$for$u20$i8$GT$3fmt17h3fa553ca0d403feaE"(i8* align 1 %self, %"core::fmt::Formatter"* align 8 %f) unnamed_addr #2 !dbg !444 {
start:
  %f.dbg.spill = alloca %"core::fmt::Formatter"*, align 8
  %self.dbg.spill = alloca i8*, align 8
  %0 = alloca i8, align 1
  store i8* %self, i8** %self.dbg.spill, align 8
  call void @llvm.dbg.declare(metadata i8** %self.dbg.spill, metadata !451, metadata !DIExpression()), !dbg !453
  store %"core::fmt::Formatter"* %f, %"core::fmt::Formatter"** %f.dbg.spill, align 8
  call void @llvm.dbg.declare(metadata %"core::fmt::Formatter"** %f.dbg.spill, metadata !452, metadata !DIExpression()), !dbg !454
; call core::fmt::Formatter::debug_lower_hex
  %_3 = call zeroext i1 @_ZN4core3fmt9Formatter15debug_lower_hex17h861f5ddbf758e4f9E(%"core::fmt::Formatter"* align 8 %f), !dbg !455
  br label %bb1, !dbg !455

bb1:                                              ; preds = %start
  br i1 %_3, label %bb2, label %bb4, !dbg !455

bb4:                                              ; preds = %bb1
; call core::fmt::Formatter::debug_upper_hex
  %_7 = call zeroext i1 @_ZN4core3fmt9Formatter15debug_upper_hex17h21ddf2be2e6a0fd5E(%"core::fmt::Formatter"* align 8 %f), !dbg !456
  br label %bb5, !dbg !456

bb2:                                              ; preds = %bb1
; call core::fmt::num::<impl core::fmt::LowerHex for i8>::fmt
  %1 = call zeroext i1 @"_ZN4core3fmt3num52_$LT$impl$u20$core..fmt..LowerHex$u20$for$u20$i8$GT$3fmt17hc0e197f1458f2d1cE"(i8* align 1 %self, %"core::fmt::Formatter"* align 8 %f), !dbg !457
  %2 = zext i1 %1 to i8, !dbg !457
  store i8 %2, i8* %0, align 1, !dbg !457
  br label %bb3, !dbg !457

bb3:                                              ; preds = %bb2
  br label %bb11, !dbg !458

bb11:                                             ; preds = %bb10, %bb3
  %3 = load i8, i8* %0, align 1, !dbg !459, !range !460, !noundef !23
  %4 = trunc i8 %3 to i1, !dbg !459
  ret i1 %4, !dbg !459

bb5:                                              ; preds = %bb4
  br i1 %_7, label %bb6, label %bb8, !dbg !456

bb8:                                              ; preds = %bb5
; call core::fmt::num::imp::<impl core::fmt::Display for i8>::fmt
  %5 = call zeroext i1 @"_ZN4core3fmt3num3imp51_$LT$impl$u20$core..fmt..Display$u20$for$u20$i8$GT$3fmt17h166992cd8ba294e6E"(i8* align 1 %self, %"core::fmt::Formatter"* align 8 %f), !dbg !461
  %6 = zext i1 %5 to i8, !dbg !461
  store i8 %6, i8* %0, align 1, !dbg !461
  br label %bb9, !dbg !461

bb6:                                              ; preds = %bb5
; call core::fmt::num::<impl core::fmt::UpperHex for i8>::fmt
  %7 = call zeroext i1 @"_ZN4core3fmt3num52_$LT$impl$u20$core..fmt..UpperHex$u20$for$u20$i8$GT$3fmt17h2b2c1b03689ff303E"(i8* align 1 %self, %"core::fmt::Formatter"* align 8 %f), !dbg !462
  %8 = zext i1 %7 to i8, !dbg !462
  store i8 %8, i8* %0, align 1, !dbg !462
  br label %bb7, !dbg !462

bb7:                                              ; preds = %bb6
  br label %bb10, !dbg !463

bb10:                                             ; preds = %bb9, %bb7
  br label %bb11, !dbg !458

bb9:                                              ; preds = %bb8
  br label %bb10, !dbg !463
}

; core::fmt::num::<impl core::fmt::Debug for i32>::fmt
; Function Attrs: inlinehint nonlazybind uwtable
define internal zeroext i1 @"_ZN4core3fmt3num50_$LT$impl$u20$core..fmt..Debug$u20$for$u20$i32$GT$3fmt17h5f3c4d2e229a49c7E"(i32* align 4 %self, %"core::fmt::Formatter"* align 8 %f) unnamed_addr #2 !dbg !464 {
start:
  %f.dbg.spill = alloca %"core::fmt::Formatter"*, align 8
  %self.dbg.spill = alloca i32*, align 8
  %0 = alloca i8, align 1
  store i32* %self, i32** %self.dbg.spill, align 8
  call void @llvm.dbg.declare(metadata i32** %self.dbg.spill, metadata !467, metadata !DIExpression()), !dbg !469
  store %"core::fmt::Formatter"* %f, %"core::fmt::Formatter"** %f.dbg.spill, align 8
  call void @llvm.dbg.declare(metadata %"core::fmt::Formatter"** %f.dbg.spill, metadata !468, metadata !DIExpression()), !dbg !470
; call core::fmt::Formatter::debug_lower_hex
  %_3 = call zeroext i1 @_ZN4core3fmt9Formatter15debug_lower_hex17h861f5ddbf758e4f9E(%"core::fmt::Formatter"* align 8 %f), !dbg !471
  br label %bb1, !dbg !471

bb1:                                              ; preds = %start
  br i1 %_3, label %bb2, label %bb4, !dbg !471

bb4:                                              ; preds = %bb1
; call core::fmt::Formatter::debug_upper_hex
  %_7 = call zeroext i1 @_ZN4core3fmt9Formatter15debug_upper_hex17h21ddf2be2e6a0fd5E(%"core::fmt::Formatter"* align 8 %f), !dbg !472
  br label %bb5, !dbg !472

bb2:                                              ; preds = %bb1
; call core::fmt::num::<impl core::fmt::LowerHex for i32>::fmt
  %1 = call zeroext i1 @"_ZN4core3fmt3num53_$LT$impl$u20$core..fmt..LowerHex$u20$for$u20$i32$GT$3fmt17h46ab6094afed2354E"(i32* align 4 %self, %"core::fmt::Formatter"* align 8 %f), !dbg !473
  %2 = zext i1 %1 to i8, !dbg !473
  store i8 %2, i8* %0, align 1, !dbg !473
  br label %bb3, !dbg !473

bb3:                                              ; preds = %bb2
  br label %bb11, !dbg !474

bb11:                                             ; preds = %bb10, %bb3
  %3 = load i8, i8* %0, align 1, !dbg !475, !range !460, !noundef !23
  %4 = trunc i8 %3 to i1, !dbg !475
  ret i1 %4, !dbg !475

bb5:                                              ; preds = %bb4
  br i1 %_7, label %bb6, label %bb8, !dbg !472

bb8:                                              ; preds = %bb5
; call core::fmt::num::imp::<impl core::fmt::Display for i32>::fmt
  %5 = call zeroext i1 @"_ZN4core3fmt3num3imp52_$LT$impl$u20$core..fmt..Display$u20$for$u20$i32$GT$3fmt17h52a4838d0eaa2babE"(i32* align 4 %self, %"core::fmt::Formatter"* align 8 %f), !dbg !476
  %6 = zext i1 %5 to i8, !dbg !476
  store i8 %6, i8* %0, align 1, !dbg !476
  br label %bb9, !dbg !476

bb6:                                              ; preds = %bb5
; call core::fmt::num::<impl core::fmt::UpperHex for i32>::fmt
  %7 = call zeroext i1 @"_ZN4core3fmt3num53_$LT$impl$u20$core..fmt..UpperHex$u20$for$u20$i32$GT$3fmt17h827553a54a7e037dE"(i32* align 4 %self, %"core::fmt::Formatter"* align 8 %f), !dbg !477
  %8 = zext i1 %7 to i8, !dbg !477
  store i8 %8, i8* %0, align 1, !dbg !477
  br label %bb7, !dbg !477

bb7:                                              ; preds = %bb6
  br label %bb10, !dbg !478

bb10:                                             ; preds = %bb9, %bb7
  br label %bb11, !dbg !474

bb9:                                              ; preds = %bb8
  br label %bb10, !dbg !478
}

; core::fmt::Arguments::new_v1
; Function Attrs: inlinehint nonlazybind uwtable
define internal void @_ZN4core3fmt9Arguments6new_v117h36498085c8e9127fE(%"core::fmt::Arguments"* sret(%"core::fmt::Arguments") %0, [0 x { [0 x i8]*, i64 }]* align 8 %pieces.0, i64 %pieces.1, [0 x { i8*, i64* }]* align 8 %args.0, i64 %args.1) unnamed_addr #2 !dbg !479 {
start:
  %args.dbg.spill = alloca { [0 x { i8*, i64* }]*, i64 }, align 8
  %pieces.dbg.spill = alloca { [0 x { [0 x i8]*, i64 }]*, i64 }, align 8
  %_24 = alloca { i64*, i64 }, align 8
  %_16 = alloca %"core::fmt::Arguments", align 8
  %_3 = alloca i8, align 1
  %1 = getelementptr inbounds { [0 x { [0 x i8]*, i64 }]*, i64 }, { [0 x { [0 x i8]*, i64 }]*, i64 }* %pieces.dbg.spill, i32 0, i32 0
  store [0 x { [0 x i8]*, i64 }]* %pieces.0, [0 x { [0 x i8]*, i64 }]** %1, align 8
  %2 = getelementptr inbounds { [0 x { [0 x i8]*, i64 }]*, i64 }, { [0 x { [0 x i8]*, i64 }]*, i64 }* %pieces.dbg.spill, i32 0, i32 1
  store i64 %pieces.1, i64* %2, align 8
  call void @llvm.dbg.declare(metadata { [0 x { [0 x i8]*, i64 }]*, i64 }* %pieces.dbg.spill, metadata !547, metadata !DIExpression()), !dbg !549
  %3 = getelementptr inbounds { [0 x { i8*, i64* }]*, i64 }, { [0 x { i8*, i64* }]*, i64 }* %args.dbg.spill, i32 0, i32 0
  store [0 x { i8*, i64* }]* %args.0, [0 x { i8*, i64* }]** %3, align 8
  %4 = getelementptr inbounds { [0 x { i8*, i64* }]*, i64 }, { [0 x { i8*, i64* }]*, i64 }* %args.dbg.spill, i32 0, i32 1
  store i64 %args.1, i64* %4, align 8
  call void @llvm.dbg.declare(metadata { [0 x { i8*, i64* }]*, i64 }* %args.dbg.spill, metadata !548, metadata !DIExpression()), !dbg !550
  %_4 = icmp ult i64 %pieces.1, %args.1, !dbg !551
  br i1 %_4, label %bb1, label %bb2, !dbg !551

bb2:                                              ; preds = %start
  %_12 = add i64 %args.1, 1, !dbg !552
  %_9 = icmp ugt i64 %pieces.1, %_12, !dbg !553
  %5 = zext i1 %_9 to i8, !dbg !551
  store i8 %5, i8* %_3, align 1, !dbg !551
  br label %bb3, !dbg !551

bb1:                                              ; preds = %start
  store i8 1, i8* %_3, align 1, !dbg !551
  br label %bb3, !dbg !551

bb3:                                              ; preds = %bb2, %bb1
  %6 = load i8, i8* %_3, align 1, !dbg !551, !range !460, !noundef !23
  %7 = trunc i8 %6 to i1, !dbg !551
  br i1 %7, label %bb4, label %bb6, !dbg !551

bb6:                                              ; preds = %bb3
  %8 = bitcast { i64*, i64 }* %_24 to {}**, !dbg !554
  store {}* null, {}** %8, align 8, !dbg !554
  %9 = bitcast %"core::fmt::Arguments"* %0 to { [0 x { [0 x i8]*, i64 }]*, i64 }*, !dbg !555
  %10 = getelementptr inbounds { [0 x { [0 x i8]*, i64 }]*, i64 }, { [0 x { [0 x i8]*, i64 }]*, i64 }* %9, i32 0, i32 0, !dbg !555
  store [0 x { [0 x i8]*, i64 }]* %pieces.0, [0 x { [0 x i8]*, i64 }]** %10, align 8, !dbg !555
  %11 = getelementptr inbounds { [0 x { [0 x i8]*, i64 }]*, i64 }, { [0 x { [0 x i8]*, i64 }]*, i64 }* %9, i32 0, i32 1, !dbg !555
  store i64 %pieces.1, i64* %11, align 8, !dbg !555
  %12 = getelementptr inbounds %"core::fmt::Arguments", %"core::fmt::Arguments"* %0, i32 0, i32 1, !dbg !555
  %13 = getelementptr inbounds { i64*, i64 }, { i64*, i64 }* %_24, i32 0, i32 0, !dbg !555
  %14 = load i64*, i64** %13, align 8, !dbg !555, !align !144
  %15 = getelementptr inbounds { i64*, i64 }, { i64*, i64 }* %_24, i32 0, i32 1, !dbg !555
  %16 = load i64, i64* %15, align 8, !dbg !555
  %17 = getelementptr inbounds { i64*, i64 }, { i64*, i64 }* %12, i32 0, i32 0, !dbg !555
  store i64* %14, i64** %17, align 8, !dbg !555
  %18 = getelementptr inbounds { i64*, i64 }, { i64*, i64 }* %12, i32 0, i32 1, !dbg !555
  store i64 %16, i64* %18, align 8, !dbg !555
  %19 = getelementptr inbounds %"core::fmt::Arguments", %"core::fmt::Arguments"* %0, i32 0, i32 2, !dbg !555
  %20 = getelementptr inbounds { [0 x { i8*, i64* }]*, i64 }, { [0 x { i8*, i64* }]*, i64 }* %19, i32 0, i32 0, !dbg !555
  store [0 x { i8*, i64* }]* %args.0, [0 x { i8*, i64* }]** %20, align 8, !dbg !555
  %21 = getelementptr inbounds { [0 x { i8*, i64* }]*, i64 }, { [0 x { i8*, i64* }]*, i64 }* %19, i32 0, i32 1, !dbg !555
  store i64 %args.1, i64* %21, align 8, !dbg !555
  ret void, !dbg !556

bb4:                                              ; preds = %bb3
; call core::fmt::Arguments::new_v1
  call void @_ZN4core3fmt9Arguments6new_v117h36498085c8e9127fE(%"core::fmt::Arguments"* sret(%"core::fmt::Arguments") %_16, [0 x { [0 x i8]*, i64 }]* align 8 bitcast (<{ i8*, [8 x i8] }>* @alloc117 to [0 x { [0 x i8]*, i64 }]*), i64 1, [0 x { i8*, i64* }]* align 8 bitcast (<{}>* @alloc119 to [0 x { i8*, i64* }]*), i64 0), !dbg !557
  br label %bb5, !dbg !557

bb5:                                              ; preds = %bb4
; call core::panicking::panic_fmt
  call void @_ZN4core9panicking9panic_fmt17h62ccf03c8a8a51b5E(%"core::fmt::Arguments"* %_16, %"core::panic::location::Location"* align 8 bitcast (<{ i8*, [16 x i8] }>* @alloc264 to %"core::panic::location::Location"*)) #12, !dbg !557
  unreachable, !dbg !557
}

; core::mem::replace
; Function Attrs: inlinehint nonlazybind uwtable
define internal i32 @_ZN4core3mem7replace17h63694cabc1c9f1edE(i32* align 4 %dest, i32 %src) unnamed_addr #2 personality i32 (i32, i32, i64, %"unwind::libunwind::_Unwind_Exception"*, %"unwind::libunwind::_Unwind_Context"*)* @rust_eh_personality !dbg !558 {
start:
  %dst.dbg.spill = alloca i32*, align 8
  %result.dbg.spill = alloca i32, align 4
  %slot.dbg.spill = alloca i32, align 4
  %0 = alloca { i8*, i32 }, align 8
  %self.dbg.spill3 = alloca i32, align 4
  %self.dbg.spill = alloca i32*, align 8
  %src.dbg.spill2 = alloca i32*, align 8
  %src.dbg.spill = alloca i32, align 4
  %dest.dbg.spill = alloca i32*, align 8
  %tmp = alloca i32, align 4
  %src1 = alloca i32, align 4
  store i32* %dest, i32** %dest.dbg.spill, align 8
  call void @llvm.dbg.declare(metadata i32** %dest.dbg.spill, metadata !565, metadata !DIExpression()), !dbg !569
  store i32 %src, i32* %src.dbg.spill, align 4
  call void @llvm.dbg.declare(metadata i32* %src.dbg.spill, metadata !566, metadata !DIExpression()), !dbg !570
  call void @llvm.dbg.declare(metadata i32* %src1, metadata !571, metadata !DIExpression()), !dbg !581
  call void @llvm.dbg.declare(metadata i32* %tmp, metadata !583, metadata !DIExpression()), !dbg !602
  store i32* %dest, i32** %src.dbg.spill2, align 8, !dbg !604
  call void @llvm.dbg.declare(metadata i32** %src.dbg.spill2, metadata !591, metadata !DIExpression()), !dbg !605
  %1 = bitcast i32* %tmp to {}*, !dbg !606
  store i32* %tmp, i32** %self.dbg.spill, align 8, !dbg !602
  call void @llvm.dbg.declare(metadata i32** %self.dbg.spill, metadata !613, metadata !DIExpression()), !dbg !620
  %2 = bitcast i32* %tmp to i8*, !dbg !602
  %3 = bitcast i32* %dest to i8*, !dbg !602
  call void @llvm.memcpy.p0i8.p0i8.i64(i8* align 4 %2, i8* align 4 %3, i64 4, i1 false), !dbg !602
  %self = load i32, i32* %tmp, align 4, !dbg !602
  store i32 %self, i32* %self.dbg.spill3, align 4, !dbg !602
  call void @llvm.dbg.declare(metadata i32* %self.dbg.spill3, metadata !622, metadata !DIExpression()), !dbg !636
  br label %bb4, !dbg !636

bb4:                                              ; preds = %start
  store i32 %self, i32* %slot.dbg.spill, align 4, !dbg !636
  call void @llvm.dbg.declare(metadata i32* %slot.dbg.spill, metadata !638, metadata !DIExpression()), !dbg !645
  store i32 %self, i32* %result.dbg.spill, align 4, !dbg !645
  call void @llvm.dbg.declare(metadata i32* %result.dbg.spill, metadata !567, metadata !DIExpression()), !dbg !647
  store i32* %dest, i32** %dst.dbg.spill, align 8, !dbg !648
  call void @llvm.dbg.declare(metadata i32** %dst.dbg.spill, metadata !580, metadata !DIExpression()), !dbg !581
  store i32 %src, i32* %src1, align 4, !dbg !649
  %4 = bitcast i32* %dest to i8*, !dbg !581
  %5 = bitcast i32* %src1 to i8*, !dbg !581
  call void @llvm.memcpy.p0i8.p0i8.i64(i8* align 4 %4, i8* align 4 %5, i64 4, i1 false), !dbg !581
  ret i32 %self, !dbg !650

bb3:                                              ; No predecessors!
  br i1 true, label %bb2, label %bb1, !dbg !651

bb1:                                              ; preds = %bb2, %bb3
  %6 = bitcast { i8*, i32 }* %0 to i8**, !dbg !652
  %7 = load i8*, i8** %6, align 8, !dbg !652
  %8 = getelementptr inbounds { i8*, i32 }, { i8*, i32 }* %0, i32 0, i32 1, !dbg !652
  %9 = load i32, i32* %8, align 8, !dbg !652
  %10 = insertvalue { i8*, i32 } undef, i8* %7, 0, !dbg !652
  %11 = insertvalue { i8*, i32 } %10, i32 %9, 1, !dbg !652
  resume { i8*, i32 } %11, !dbg !652

bb2:                                              ; preds = %bb3
  br label %bb1, !dbg !651
}

; core::mem::replace
; Function Attrs: inlinehint nonlazybind uwtable
define internal i64 @_ZN4core3mem7replace17h8481783c9e7afbc0E(i64* align 8 %dest, i64 %src) unnamed_addr #2 personality i32 (i32, i32, i64, %"unwind::libunwind::_Unwind_Exception"*, %"unwind::libunwind::_Unwind_Context"*)* @rust_eh_personality !dbg !653 {
start:
  %dst.dbg.spill = alloca i64*, align 8
  %result.dbg.spill = alloca i64, align 8
  %slot.dbg.spill = alloca i64, align 8
  %0 = alloca { i8*, i32 }, align 8
  %self.dbg.spill3 = alloca i64, align 8
  %self.dbg.spill = alloca i64*, align 8
  %src.dbg.spill2 = alloca i64*, align 8
  %src.dbg.spill = alloca i64, align 8
  %dest.dbg.spill = alloca i64*, align 8
  %tmp = alloca i64, align 8
  %src1 = alloca i64, align 8
  store i64* %dest, i64** %dest.dbg.spill, align 8
  call void @llvm.dbg.declare(metadata i64** %dest.dbg.spill, metadata !658, metadata !DIExpression()), !dbg !662
  store i64 %src, i64* %src.dbg.spill, align 8
  call void @llvm.dbg.declare(metadata i64* %src.dbg.spill, metadata !659, metadata !DIExpression()), !dbg !663
  call void @llvm.dbg.declare(metadata i64* %src1, metadata !664, metadata !DIExpression()), !dbg !672
  call void @llvm.dbg.declare(metadata i64* %tmp, metadata !674, metadata !DIExpression()), !dbg !691
  store i64* %dest, i64** %src.dbg.spill2, align 8, !dbg !693
  call void @llvm.dbg.declare(metadata i64** %src.dbg.spill2, metadata !682, metadata !DIExpression()), !dbg !694
  %1 = bitcast i64* %tmp to {}*, !dbg !695
  store i64* %tmp, i64** %self.dbg.spill, align 8, !dbg !691
  call void @llvm.dbg.declare(metadata i64** %self.dbg.spill, metadata !701, metadata !DIExpression()), !dbg !708
  %2 = bitcast i64* %tmp to i8*, !dbg !691
  %3 = bitcast i64* %dest to i8*, !dbg !691
  call void @llvm.memcpy.p0i8.p0i8.i64(i8* align 8 %2, i8* align 8 %3, i64 8, i1 false), !dbg !691
  %self = load i64, i64* %tmp, align 8, !dbg !691
  store i64 %self, i64* %self.dbg.spill3, align 8, !dbg !691
  call void @llvm.dbg.declare(metadata i64* %self.dbg.spill3, metadata !710, metadata !DIExpression()), !dbg !716
  br label %bb4, !dbg !716

bb4:                                              ; preds = %start
  store i64 %self, i64* %slot.dbg.spill, align 8, !dbg !716
  call void @llvm.dbg.declare(metadata i64* %slot.dbg.spill, metadata !718, metadata !DIExpression()), !dbg !724
  store i64 %self, i64* %result.dbg.spill, align 8, !dbg !724
  call void @llvm.dbg.declare(metadata i64* %result.dbg.spill, metadata !660, metadata !DIExpression()), !dbg !726
  store i64* %dest, i64** %dst.dbg.spill, align 8, !dbg !727
  call void @llvm.dbg.declare(metadata i64** %dst.dbg.spill, metadata !671, metadata !DIExpression()), !dbg !672
  store i64 %src, i64* %src1, align 8, !dbg !728
  %4 = bitcast i64* %dest to i8*, !dbg !672
  %5 = bitcast i64* %src1 to i8*, !dbg !672
  call void @llvm.memcpy.p0i8.p0i8.i64(i8* align 8 %4, i8* align 8 %5, i64 8, i1 false), !dbg !672
  ret i64 %self, !dbg !729

bb3:                                              ; No predecessors!
  br i1 true, label %bb2, label %bb1, !dbg !730

bb1:                                              ; preds = %bb2, %bb3
  %6 = bitcast { i8*, i32 }* %0 to i8**, !dbg !731
  %7 = load i8*, i8** %6, align 8, !dbg !731
  %8 = getelementptr inbounds { i8*, i32 }, { i8*, i32 }* %0, i32 0, i32 1, !dbg !731
  %9 = load i32, i32* %8, align 8, !dbg !731
  %10 = insertvalue { i8*, i32 } undef, i8* %7, 0, !dbg !731
  %11 = insertvalue { i8*, i32 } %10, i32 %9, 1, !dbg !731
  resume { i8*, i32 } %11, !dbg !731

bb2:                                              ; preds = %bb3
  br label %bb1, !dbg !730
}

; core::ops::function::FnOnce::call_once{{vtable.shim}}
; Function Attrs: inlinehint nonlazybind uwtable
define internal i32 @"_ZN4core3ops8function6FnOnce40call_once$u7b$$u7b$vtable.shim$u7d$$u7d$17h59d6fc368ad400ebE"(i64** %_1) unnamed_addr #2 !dbg !732 {
start:
  %_1.dbg.spill = alloca i64**, align 8
  %_2 = alloca {}, align 1
  store i64** %_1, i64*** %_1.dbg.spill, align 8
  call void @llvm.dbg.declare(metadata i64*** %_1.dbg.spill, metadata !741, metadata !DIExpression()), !dbg !746
  call void @llvm.dbg.declare(metadata {}* %_2, metadata !742, metadata !DIExpression()), !dbg !746
  %0 = load i64*, i64** %_1, align 8, !dbg !746, !nonnull !23, !noundef !23
; call core::ops::function::FnOnce::call_once
  %1 = call i32 @_ZN4core3ops8function6FnOnce9call_once17h8d72da5db875d6bcE(i64* %0), !dbg !746
  br label %bb1, !dbg !746

bb1:                                              ; preds = %start
  ret i32 %1, !dbg !746
}

; core::ops::function::FnOnce::call_once
; Function Attrs: inlinehint nonlazybind uwtable
define internal void @_ZN4core3ops8function6FnOnce9call_once17h42c3da1e729528cdE() unnamed_addr #2 personality i32 (i32, i32, i64, %"unwind::libunwind::_Unwind_Exception"*, %"unwind::libunwind::_Unwind_Context"*)* @rust_eh_personality !dbg !747 {
start:
  %0 = alloca { i8*, i32 }, align 8
  %_2 = alloca {}, align 1
  %_1 = alloca %"[closure@src/test_builtins.rs:93:1: 127:2]", align 1
  call void @llvm.dbg.declare(metadata %"[closure@src/test_builtins.rs:93:1: 127:2]"* %_1, metadata !755, metadata !DIExpression()), !dbg !759
  call void @llvm.dbg.declare(metadata {}* %_2, metadata !756, metadata !DIExpression()), !dbg !759
; invoke builtins_tests::test_builtins::test_clang9_intrinsics::{{closure}}
  invoke void @"_ZN14builtins_tests13test_builtins22test_clang9_intrinsics28_$u7b$$u7b$closure$u7d$$u7d$17hf9429aa3994460c9E"(%"[closure@src/test_builtins.rs:93:1: 127:2]"* align 1 %_1)
          to label %bb1 unwind label %cleanup, !dbg !759

bb3:                                              ; preds = %cleanup
  br label %bb4, !dbg !759

cleanup:                                          ; preds = %start
  %1 = landingpad { i8*, i32 }
          cleanup
  %2 = extractvalue { i8*, i32 } %1, 0
  %3 = extractvalue { i8*, i32 } %1, 1
  %4 = getelementptr inbounds { i8*, i32 }, { i8*, i32 }* %0, i32 0, i32 0
  store i8* %2, i8** %4, align 8
  %5 = getelementptr inbounds { i8*, i32 }, { i8*, i32 }* %0, i32 0, i32 1
  store i32 %3, i32* %5, align 8
  br label %bb3

bb1:                                              ; preds = %start
  br label %bb2, !dbg !759

bb4:                                              ; preds = %bb3
  %6 = bitcast { i8*, i32 }* %0 to i8**, !dbg !759
  %7 = load i8*, i8** %6, align 8, !dbg !759
  %8 = getelementptr inbounds { i8*, i32 }, { i8*, i32 }* %0, i32 0, i32 1, !dbg !759
  %9 = load i32, i32* %8, align 8, !dbg !759
  %10 = insertvalue { i8*, i32 } undef, i8* %7, 0, !dbg !759
  %11 = insertvalue { i8*, i32 } %10, i32 %9, 1, !dbg !759
  resume { i8*, i32 } %11, !dbg !759

bb2:                                              ; preds = %bb1
  ret void, !dbg !759
}

; core::ops::function::FnOnce::call_once
; Function Attrs: inlinehint nonlazybind uwtable
define internal void @_ZN4core3ops8function6FnOnce9call_once17h5dd6d7556bd877beE() unnamed_addr #2 personality i32 (i32, i32, i64, %"unwind::libunwind::_Unwind_Exception"*, %"unwind::libunwind::_Unwind_Context"*)* @rust_eh_personality !dbg !760 {
start:
  %0 = alloca { i8*, i32 }, align 8
  %_2 = alloca {}, align 1
  %_1 = alloca %"[closure@src/test_builtins.rs:25:1: 37:2]", align 1
  call void @llvm.dbg.declare(metadata %"[closure@src/test_builtins.rs:25:1: 37:2]"* %_1, metadata !766, metadata !DIExpression()), !dbg !770
  call void @llvm.dbg.declare(metadata {}* %_2, metadata !767, metadata !DIExpression()), !dbg !770
; invoke builtins_tests::test_builtins::test_atomics::{{closure}}
  invoke void @"_ZN14builtins_tests13test_builtins12test_atomics28_$u7b$$u7b$closure$u7d$$u7d$17h938a08e8598536baE"(%"[closure@src/test_builtins.rs:25:1: 37:2]"* align 1 %_1)
          to label %bb1 unwind label %cleanup, !dbg !770

bb3:                                              ; preds = %cleanup
  br label %bb4, !dbg !770

cleanup:                                          ; preds = %start
  %1 = landingpad { i8*, i32 }
          cleanup
  %2 = extractvalue { i8*, i32 } %1, 0
  %3 = extractvalue { i8*, i32 } %1, 1
  %4 = getelementptr inbounds { i8*, i32 }, { i8*, i32 }* %0, i32 0, i32 0
  store i8* %2, i8** %4, align 8
  %5 = getelementptr inbounds { i8*, i32 }, { i8*, i32 }* %0, i32 0, i32 1
  store i32 %3, i32* %5, align 8
  br label %bb3

bb1:                                              ; preds = %start
  br label %bb2, !dbg !770

bb4:                                              ; preds = %bb3
  %6 = bitcast { i8*, i32 }* %0 to i8**, !dbg !770
  %7 = load i8*, i8** %6, align 8, !dbg !770
  %8 = getelementptr inbounds { i8*, i32 }, { i8*, i32 }* %0, i32 0, i32 1, !dbg !770
  %9 = load i32, i32* %8, align 8, !dbg !770
  %10 = insertvalue { i8*, i32 } undef, i8* %7, 0, !dbg !770
  %11 = insertvalue { i8*, i32 } %10, i32 %9, 1, !dbg !770
  resume { i8*, i32 } %11, !dbg !770

bb2:                                              ; preds = %bb1
  ret void, !dbg !770
}

; core::ops::function::FnOnce::call_once
; Function Attrs: inlinehint nonlazybind uwtable
define internal i32 @_ZN4core3ops8function6FnOnce9call_once17h8d72da5db875d6bcE(i64* %0) unnamed_addr #2 personality i32 (i32, i32, i64, %"unwind::libunwind::_Unwind_Exception"*, %"unwind::libunwind::_Unwind_Context"*)* @rust_eh_personality !dbg !771 {
start:
  %1 = alloca { i8*, i32 }, align 8
  %_2 = alloca {}, align 1
  %_1 = alloca i64*, align 8
  store i64* %0, i64** %_1, align 8
  call void @llvm.dbg.declare(metadata i64** %_1, metadata !775, metadata !DIExpression()), !dbg !777
  call void @llvm.dbg.declare(metadata {}* %_2, metadata !776, metadata !DIExpression()), !dbg !777
; invoke std::rt::lang_start::{{closure}}
  %2 = invoke i32 @"_ZN3std2rt10lang_start28_$u7b$$u7b$closure$u7d$$u7d$17h812f3e79cb835fdfE"(i64** align 8 %_1)
          to label %bb1 unwind label %cleanup, !dbg !777

bb3:                                              ; preds = %cleanup
  br label %bb4, !dbg !777

cleanup:                                          ; preds = %start
  %3 = landingpad { i8*, i32 }
          cleanup
  %4 = extractvalue { i8*, i32 } %3, 0
  %5 = extractvalue { i8*, i32 } %3, 1
  %6 = getelementptr inbounds { i8*, i32 }, { i8*, i32 }* %1, i32 0, i32 0
  store i8* %4, i8** %6, align 8
  %7 = getelementptr inbounds { i8*, i32 }, { i8*, i32 }* %1, i32 0, i32 1
  store i32 %5, i32* %7, align 8
  br label %bb3

bb1:                                              ; preds = %start
  br label %bb2, !dbg !777

bb4:                                              ; preds = %bb3
  %8 = bitcast { i8*, i32 }* %1 to i8**, !dbg !777
  %9 = load i8*, i8** %8, align 8, !dbg !777
  %10 = getelementptr inbounds { i8*, i32 }, { i8*, i32 }* %1, i32 0, i32 1, !dbg !777
  %11 = load i32, i32* %10, align 8, !dbg !777
  %12 = insertvalue { i8*, i32 } undef, i8* %9, 0, !dbg !777
  %13 = insertvalue { i8*, i32 } %12, i32 %11, 1, !dbg !777
  resume { i8*, i32 } %13, !dbg !777

bb2:                                              ; preds = %bb1
  ret i32 %2, !dbg !777
}

; core::ops::function::FnOnce::call_once
; Function Attrs: inlinehint nonlazybind uwtable
define internal void @_ZN4core3ops8function6FnOnce9call_once17h97c60de9603a7f92E() unnamed_addr #2 personality i32 (i32, i32, i64, %"unwind::libunwind::_Unwind_Exception"*, %"unwind::libunwind::_Unwind_Context"*)* @rust_eh_personality !dbg !778 {
start:
  %0 = alloca { i8*, i32 }, align 8
  %_2 = alloca {}, align 1
  %_1 = alloca %"[closure@src/test_builtins.rs:56:1: 70:2]", align 1
  call void @llvm.dbg.declare(metadata %"[closure@src/test_builtins.rs:56:1: 70:2]"* %_1, metadata !784, metadata !DIExpression()), !dbg !788
  call void @llvm.dbg.declare(metadata {}* %_2, metadata !785, metadata !DIExpression()), !dbg !788
; invoke builtins_tests::test_builtins::test_mem_fns::{{closure}}
  invoke void @"_ZN14builtins_tests13test_builtins12test_mem_fns28_$u7b$$u7b$closure$u7d$$u7d$17h75b23ec488bf982fE"(%"[closure@src/test_builtins.rs:56:1: 70:2]"* align 1 %_1)
          to label %bb1 unwind label %cleanup, !dbg !788

bb3:                                              ; preds = %cleanup
  br label %bb4, !dbg !788

cleanup:                                          ; preds = %start
  %1 = landingpad { i8*, i32 }
          cleanup
  %2 = extractvalue { i8*, i32 } %1, 0
  %3 = extractvalue { i8*, i32 } %1, 1
  %4 = getelementptr inbounds { i8*, i32 }, { i8*, i32 }* %0, i32 0, i32 0
  store i8* %2, i8** %4, align 8
  %5 = getelementptr inbounds { i8*, i32 }, { i8*, i32 }* %0, i32 0, i32 1
  store i32 %3, i32* %5, align 8
  br label %bb3

bb1:                                              ; preds = %start
  br label %bb2, !dbg !788

bb4:                                              ; preds = %bb3
  %6 = bitcast { i8*, i32 }* %0 to i8**, !dbg !788
  %7 = load i8*, i8** %6, align 8, !dbg !788
  %8 = getelementptr inbounds { i8*, i32 }, { i8*, i32 }* %0, i32 0, i32 1, !dbg !788
  %9 = load i32, i32* %8, align 8, !dbg !788
  %10 = insertvalue { i8*, i32 } undef, i8* %7, 0, !dbg !788
  %11 = insertvalue { i8*, i32 } %10, i32 %9, 1, !dbg !788
  resume { i8*, i32 } %11, !dbg !788

bb2:                                              ; preds = %bb1
  ret void, !dbg !788
}

; core::ops::function::FnOnce::call_once
; Function Attrs: inlinehint nonlazybind uwtable
define internal void @_ZN4core3ops8function6FnOnce9call_once17hb12cdb3783d52b0cE(void ()* %_1) unnamed_addr #2 !dbg !789 {
start:
  %_1.dbg.spill = alloca void ()*, align 8
  %_2 = alloca {}, align 1
  store void ()* %_1, void ()** %_1.dbg.spill, align 8
  call void @llvm.dbg.declare(metadata void ()** %_1.dbg.spill, metadata !791, metadata !DIExpression()), !dbg !795
  call void @llvm.dbg.declare(metadata {}* %_2, metadata !792, metadata !DIExpression()), !dbg !795
  call void %_1(), !dbg !795
  br label %bb1, !dbg !795

bb1:                                              ; preds = %start
  ret void, !dbg !795
}

; core::ops::function::FnOnce::call_once
; Function Attrs: inlinehint nonlazybind uwtable
define internal void @_ZN4core3ops8function6FnOnce9call_once17hd40acabd5de17d45E() unnamed_addr #2 personality i32 (i32, i32, i64, %"unwind::libunwind::_Unwind_Exception"*, %"unwind::libunwind::_Unwind_Context"*)* @rust_eh_personality !dbg !796 {
start:
  %0 = alloca { i8*, i32 }, align 8
  %_2 = alloca {}, align 1
  %_1 = alloca %"[closure@src/test_builtins.rs:40:1: 53:2]", align 1
  call void @llvm.dbg.declare(metadata %"[closure@src/test_builtins.rs:40:1: 53:2]"* %_1, metadata !802, metadata !DIExpression()), !dbg !806
  call void @llvm.dbg.declare(metadata {}* %_2, metadata !803, metadata !DIExpression()), !dbg !806
; invoke builtins_tests::test_builtins::test_new_atomics::{{closure}}
  invoke void @"_ZN14builtins_tests13test_builtins16test_new_atomics28_$u7b$$u7b$closure$u7d$$u7d$17h4027537008cbe658E"(%"[closure@src/test_builtins.rs:40:1: 53:2]"* align 1 %_1)
          to label %bb1 unwind label %cleanup, !dbg !806

bb3:                                              ; preds = %cleanup
  br label %bb4, !dbg !806

cleanup:                                          ; preds = %start
  %1 = landingpad { i8*, i32 }
          cleanup
  %2 = extractvalue { i8*, i32 } %1, 0
  %3 = extractvalue { i8*, i32 } %1, 1
  %4 = getelementptr inbounds { i8*, i32 }, { i8*, i32 }* %0, i32 0, i32 0
  store i8* %2, i8** %4, align 8
  %5 = getelementptr inbounds { i8*, i32 }, { i8*, i32 }* %0, i32 0, i32 1
  store i32 %3, i32* %5, align 8
  br label %bb3

bb1:                                              ; preds = %start
  br label %bb2, !dbg !806

bb4:                                              ; preds = %bb3
  %6 = bitcast { i8*, i32 }* %0 to i8**, !dbg !806
  %7 = load i8*, i8** %6, align 8, !dbg !806
  %8 = getelementptr inbounds { i8*, i32 }, { i8*, i32 }* %0, i32 0, i32 1, !dbg !806
  %9 = load i32, i32* %8, align 8, !dbg !806
  %10 = insertvalue { i8*, i32 } undef, i8* %7, 0, !dbg !806
  %11 = insertvalue { i8*, i32 } %10, i32 %9, 1, !dbg !806
  resume { i8*, i32 } %11, !dbg !806

bb2:                                              ; preds = %bb1
  ret void, !dbg !806
}

; core::ops::function::FnOnce::call_once
; Function Attrs: inlinehint nonlazybind uwtable
define internal void @_ZN4core3ops8function6FnOnce9call_once17hf32868d83ef7a250E() unnamed_addr #2 personality i32 (i32, i32, i64, %"unwind::libunwind::_Unwind_Exception"*, %"unwind::libunwind::_Unwind_Context"*)* @rust_eh_personality !dbg !807 {
start:
  %0 = alloca { i8*, i32 }, align 8
  %_2 = alloca {}, align 1
  %_1 = alloca %"[closure@src/test_builtins.rs:73:1: 90:2]", align 1
  call void @llvm.dbg.declare(metadata %"[closure@src/test_builtins.rs:73:1: 90:2]"* %_1, metadata !813, metadata !DIExpression()), !dbg !817
  call void @llvm.dbg.declare(metadata {}* %_2, metadata !814, metadata !DIExpression()), !dbg !817
; invoke builtins_tests::test_builtins::test_ffs::{{closure}}
  invoke void @"_ZN14builtins_tests13test_builtins8test_ffs28_$u7b$$u7b$closure$u7d$$u7d$17h68a1ba5db44f1c3fE"(%"[closure@src/test_builtins.rs:73:1: 90:2]"* align 1 %_1)
          to label %bb1 unwind label %cleanup, !dbg !817

bb3:                                              ; preds = %cleanup
  br label %bb4, !dbg !817

cleanup:                                          ; preds = %start
  %1 = landingpad { i8*, i32 }
          cleanup
  %2 = extractvalue { i8*, i32 } %1, 0
  %3 = extractvalue { i8*, i32 } %1, 1
  %4 = getelementptr inbounds { i8*, i32 }, { i8*, i32 }* %0, i32 0, i32 0
  store i8* %2, i8** %4, align 8
  %5 = getelementptr inbounds { i8*, i32 }, { i8*, i32 }* %0, i32 0, i32 1
  store i32 %3, i32* %5, align 8
  br label %bb3

bb1:                                              ; preds = %start
  br label %bb2, !dbg !817

bb4:                                              ; preds = %bb3
  %6 = bitcast { i8*, i32 }* %0 to i8**, !dbg !817
  %7 = load i8*, i8** %6, align 8, !dbg !817
  %8 = getelementptr inbounds { i8*, i32 }, { i8*, i32 }* %0, i32 0, i32 1, !dbg !817
  %9 = load i32, i32* %8, align 8, !dbg !817
  %10 = insertvalue { i8*, i32 } undef, i8* %7, 0, !dbg !817
  %11 = insertvalue { i8*, i32 } %10, i32 %9, 1, !dbg !817
  resume { i8*, i32 } %11, !dbg !817

bb2:                                              ; preds = %bb1
  ret void, !dbg !817
}

; core::ops::function::FnOnce::call_once
; Function Attrs: inlinehint nonlazybind uwtable
define internal void @_ZN4core3ops8function6FnOnce9call_once17hfb85b7228e7b23c6E() unnamed_addr #2 personality i32 (i32, i32, i64, %"unwind::libunwind::_Unwind_Exception"*, %"unwind::libunwind::_Unwind_Context"*)* @rust_eh_personality !dbg !818 {
start:
  %0 = alloca { i8*, i32 }, align 8
  %_2 = alloca {}, align 1
  %_1 = alloca %"[closure@src/test_builtins.rs:130:1: 136:2]", align 1
  call void @llvm.dbg.declare(metadata %"[closure@src/test_builtins.rs:130:1: 136:2]"* %_1, metadata !824, metadata !DIExpression()), !dbg !828
  call void @llvm.dbg.declare(metadata {}* %_2, metadata !825, metadata !DIExpression()), !dbg !828
; invoke builtins_tests::test_builtins::test_assume_aligned::{{closure}}
  invoke void @"_ZN14builtins_tests13test_builtins19test_assume_aligned28_$u7b$$u7b$closure$u7d$$u7d$17h90d00b6425ed4203E"(%"[closure@src/test_builtins.rs:130:1: 136:2]"* align 1 %_1)
          to label %bb1 unwind label %cleanup, !dbg !828

bb3:                                              ; preds = %cleanup
  br label %bb4, !dbg !828

cleanup:                                          ; preds = %start
  %1 = landingpad { i8*, i32 }
          cleanup
  %2 = extractvalue { i8*, i32 } %1, 0
  %3 = extractvalue { i8*, i32 } %1, 1
  %4 = getelementptr inbounds { i8*, i32 }, { i8*, i32 }* %0, i32 0, i32 0
  store i8* %2, i8** %4, align 8
  %5 = getelementptr inbounds { i8*, i32 }, { i8*, i32 }* %0, i32 0, i32 1
  store i32 %3, i32* %5, align 8
  br label %bb3

bb1:                                              ; preds = %start
  br label %bb2, !dbg !828

bb4:                                              ; preds = %bb3
  %6 = bitcast { i8*, i32 }* %0 to i8**, !dbg !828
  %7 = load i8*, i8** %6, align 8, !dbg !828
  %8 = getelementptr inbounds { i8*, i32 }, { i8*, i32 }* %0, i32 0, i32 1, !dbg !828
  %9 = load i32, i32* %8, align 8, !dbg !828
  %10 = insertvalue { i8*, i32 } undef, i8* %7, 0, !dbg !828
  %11 = insertvalue { i8*, i32 } %10, i32 %9, 1, !dbg !828
  resume { i8*, i32 } %11, !dbg !828

bb2:                                              ; preds = %bb1
  ret void, !dbg !828
}

; core::ptr::drop_in_place<&i8>
; Function Attrs: inlinehint nonlazybind uwtable
define internal void @"_ZN4core3ptr27drop_in_place$LT$$RF$i8$GT$17he5f26b4130c5ce45E"(i8** %_1) unnamed_addr #2 !dbg !829 {
start:
  %_1.dbg.spill = alloca i8**, align 8
  store i8** %_1, i8*** %_1.dbg.spill, align 8
  call void @llvm.dbg.declare(metadata i8*** %_1.dbg.spill, metadata !834, metadata !DIExpression()), !dbg !837
  ret void, !dbg !837
}

; core::ptr::drop_in_place<&i32>
; Function Attrs: inlinehint nonlazybind uwtable
define internal void @"_ZN4core3ptr28drop_in_place$LT$$RF$i32$GT$17hfe364e6a76e07b2cE"(i32** %_1) unnamed_addr #2 !dbg !838 {
start:
  %_1.dbg.spill = alloca i32**, align 8
  store i32** %_1, i32*** %_1.dbg.spill, align 8
  call void @llvm.dbg.declare(metadata i32*** %_1.dbg.spill, metadata !843, metadata !DIExpression()), !dbg !846
  ret void, !dbg !846
}

; core::ptr::drop_in_place<&*mut core::ffi::c_void>
; Function Attrs: inlinehint nonlazybind uwtable
define internal void @"_ZN4core3ptr54drop_in_place$LT$$RF$$BP$mut$u20$core..ffi..c_void$GT$17h8f8bb7f94d82159cE"(i8*** %_1) unnamed_addr #2 !dbg !847 {
start:
  %_1.dbg.spill = alloca i8***, align 8
  store i8*** %_1, i8**** %_1.dbg.spill, align 8
  call void @llvm.dbg.declare(metadata i8**** %_1.dbg.spill, metadata !852, metadata !DIExpression()), !dbg !855
  ret void, !dbg !855
}

; core::ptr::drop_in_place<std::rt::lang_start<()>::{{closure}}>
; Function Attrs: inlinehint nonlazybind uwtable
define internal void @"_ZN4core3ptr85drop_in_place$LT$std..rt..lang_start$LT$$LP$$RP$$GT$..$u7b$$u7b$closure$u7d$$u7d$$GT$17h4e0e4df21fecd268E"(i64** %_1) unnamed_addr #2 !dbg !856 {
start:
  %_1.dbg.spill = alloca i64**, align 8
  store i64** %_1, i64*** %_1.dbg.spill, align 8
  call void @llvm.dbg.declare(metadata i64*** %_1.dbg.spill, metadata !860, metadata !DIExpression()), !dbg !863
  ret void, !dbg !863
}

; core::str::<impl str>::as_ptr
; Function Attrs: inlinehint nonlazybind uwtable
define internal i8* @"_ZN4core3str21_$LT$impl$u20$str$GT$6as_ptr17hde334ddc346fcabfE"([0 x i8]* align 1 %self.0, i64 %self.1) unnamed_addr #2 !dbg !864 {
start:
  %self.dbg.spill = alloca { [0 x i8]*, i64 }, align 8
  %0 = getelementptr inbounds { [0 x i8]*, i64 }, { [0 x i8]*, i64 }* %self.dbg.spill, i32 0, i32 0
  store [0 x i8]* %self.0, [0 x i8]** %0, align 8
  %1 = getelementptr inbounds { [0 x i8]*, i64 }, { [0 x i8]*, i64 }* %self.dbg.spill, i32 0, i32 1
  store i64 %self.1, i64* %1, align 8
  call void @llvm.dbg.declare(metadata { [0 x i8]*, i64 }* %self.dbg.spill, metadata !871, metadata !DIExpression()), !dbg !872
  %2 = bitcast [0 x i8]* %self.0 to i8*, !dbg !873
  ret i8* %2, !dbg !874
}

; core::iter::range::<impl core::iter::traits::iterator::Iterator for core::ops::range::Range<A>>::next
; Function Attrs: inlinehint nonlazybind uwtable
define internal { i64, i64 } @"_ZN4core4iter5range101_$LT$impl$u20$core..iter..traits..iterator..Iterator$u20$for$u20$core..ops..range..Range$LT$A$GT$$GT$4next17h0791ddd868e533a6E"({ i64, i64 }* align 8 %self) unnamed_addr #2 !dbg !875 {
start:
  %self.dbg.spill = alloca { i64, i64 }*, align 8
  store { i64, i64 }* %self, { i64, i64 }** %self.dbg.spill, align 8
  call void @llvm.dbg.declare(metadata { i64, i64 }** %self.dbg.spill, metadata !888, metadata !DIExpression()), !dbg !891
; call <core::ops::range::Range<T> as core::iter::range::RangeIteratorImpl>::spec_next
  %0 = call { i64, i64 } @"_ZN89_$LT$core..ops..range..Range$LT$T$GT$$u20$as$u20$core..iter..range..RangeIteratorImpl$GT$9spec_next17h11de1e4c768636d7E"({ i64, i64 }* align 8 %self), !dbg !892
  %1 = extractvalue { i64, i64 } %0, 0, !dbg !892
  %2 = extractvalue { i64, i64 } %0, 1, !dbg !892
  br label %bb1, !dbg !892

bb1:                                              ; preds = %start
  %3 = insertvalue { i64, i64 } undef, i64 %1, 0, !dbg !893
  %4 = insertvalue { i64, i64 } %3, i64 %2, 1, !dbg !893
  ret { i64, i64 } %4, !dbg !893
}

; core::iter::range::<impl core::iter::traits::iterator::Iterator for core::ops::range::Range<A>>::next
; Function Attrs: inlinehint nonlazybind uwtable
define internal { i32, i32 } @"_ZN4core4iter5range101_$LT$impl$u20$core..iter..traits..iterator..Iterator$u20$for$u20$core..ops..range..Range$LT$A$GT$$GT$4next17h69cdc1f6b36b12a7E"({ i32, i32 }* align 4 %self) unnamed_addr #2 !dbg !894 {
start:
  %self.dbg.spill = alloca { i32, i32 }*, align 8
  store { i32, i32 }* %self, { i32, i32 }** %self.dbg.spill, align 8
  call void @llvm.dbg.declare(metadata { i32, i32 }** %self.dbg.spill, metadata !916, metadata !DIExpression()), !dbg !919
; call <core::ops::range::Range<T> as core::iter::range::RangeIteratorImpl>::spec_next
  %0 = call { i32, i32 } @"_ZN89_$LT$core..ops..range..Range$LT$T$GT$$u20$as$u20$core..iter..range..RangeIteratorImpl$GT$9spec_next17hc1fcffe543513bd3E"({ i32, i32 }* align 4 %self), !dbg !920
  %1 = extractvalue { i32, i32 } %0, 0, !dbg !920
  %2 = extractvalue { i32, i32 } %0, 1, !dbg !920
  br label %bb1, !dbg !920

bb1:                                              ; preds = %start
  %3 = insertvalue { i32, i32 } undef, i32 %1, 0, !dbg !921
  %4 = insertvalue { i32, i32 } %3, i32 %2, 1, !dbg !921
  ret { i32, i32 } %4, !dbg !921
}

; core::array::<impl core::iter::traits::collect::IntoIterator for &[T; N]>::into_iter
; Function Attrs: nonlazybind uwtable
define internal { i64*, i64* } @"_ZN4core5array98_$LT$impl$u20$core..iter..traits..collect..IntoIterator$u20$for$u20$$RF$$u5b$T$u3b$$u20$N$u5d$$GT$9into_iter17h06be7494ab323530E"([2 x double]* align 8 %self) unnamed_addr #1 !dbg !922 {
start:
  %self.dbg.spill1 = alloca { [0 x double]*, i64 }, align 8
  %self.dbg.spill = alloca [2 x double]*, align 8
  store [2 x double]* %self, [2 x double]** %self.dbg.spill, align 8
  call void @llvm.dbg.declare(metadata [2 x double]** %self.dbg.spill, metadata !952, metadata !DIExpression()), !dbg !953
  %self.0 = bitcast [2 x double]* %self to [0 x double]*, !dbg !954
  %0 = getelementptr inbounds { [0 x double]*, i64 }, { [0 x double]*, i64 }* %self.dbg.spill1, i32 0, i32 0, !dbg !954
  store [0 x double]* %self.0, [0 x double]** %0, align 8, !dbg !954
  %1 = getelementptr inbounds { [0 x double]*, i64 }, { [0 x double]*, i64 }* %self.dbg.spill1, i32 0, i32 1, !dbg !954
  store i64 2, i64* %1, align 8, !dbg !954
  call void @llvm.dbg.declare(metadata { [0 x double]*, i64 }* %self.dbg.spill1, metadata !955, metadata !DIExpression()), !dbg !968
; call core::slice::iter::Iter<T>::new
  %2 = call { i64*, i64* } @"_ZN4core5slice4iter13Iter$LT$T$GT$3new17hf5e7bd578a2dbb62E"([0 x double]* align 8 %self.0, i64 2), !dbg !968
  %3 = extractvalue { i64*, i64* } %2, 0, !dbg !968
  %4 = extractvalue { i64*, i64* } %2, 1, !dbg !968
  br label %bb1, !dbg !968

bb1:                                              ; preds = %start
  %5 = insertvalue { i64*, i64* } undef, i64* %3, 0, !dbg !969
  %6 = insertvalue { i64*, i64* } %5, i64* %4, 1, !dbg !969
  ret { i64*, i64* } %6, !dbg !969
}

; core::array::<impl core::iter::traits::collect::IntoIterator for &[T; N]>::into_iter
; Function Attrs: nonlazybind uwtable
define internal { i64*, i64* } @"_ZN4core5array98_$LT$impl$u20$core..iter..traits..collect..IntoIterator$u20$for$u20$$RF$$u5b$T$u3b$$u20$N$u5d$$GT$9into_iter17h65251ed2253f0918E"([3 x double]* align 8 %self) unnamed_addr #1 !dbg !970 {
start:
  %self.dbg.spill1 = alloca { [0 x double]*, i64 }, align 8
  %self.dbg.spill = alloca [3 x double]*, align 8
  store [3 x double]* %self, [3 x double]** %self.dbg.spill, align 8
  call void @llvm.dbg.declare(metadata [3 x double]** %self.dbg.spill, metadata !976, metadata !DIExpression()), !dbg !977
  %self.0 = bitcast [3 x double]* %self to [0 x double]*, !dbg !978
  %0 = getelementptr inbounds { [0 x double]*, i64 }, { [0 x double]*, i64 }* %self.dbg.spill1, i32 0, i32 0, !dbg !978
  store [0 x double]* %self.0, [0 x double]** %0, align 8, !dbg !978
  %1 = getelementptr inbounds { [0 x double]*, i64 }, { [0 x double]*, i64 }* %self.dbg.spill1, i32 0, i32 1, !dbg !978
  store i64 3, i64* %1, align 8, !dbg !978
  call void @llvm.dbg.declare(metadata { [0 x double]*, i64 }* %self.dbg.spill1, metadata !979, metadata !DIExpression()), !dbg !983
; call core::slice::iter::Iter<T>::new
  %2 = call { i64*, i64* } @"_ZN4core5slice4iter13Iter$LT$T$GT$3new17hf5e7bd578a2dbb62E"([0 x double]* align 8 %self.0, i64 3), !dbg !983
  %3 = extractvalue { i64*, i64* } %2, 0, !dbg !983
  %4 = extractvalue { i64*, i64* } %2, 1, !dbg !983
  br label %bb1, !dbg !983

bb1:                                              ; preds = %start
  %5 = insertvalue { i64*, i64* } undef, i64* %3, 0, !dbg !984
  %6 = insertvalue { i64*, i64* } %5, i64* %4, 1, !dbg !984
  ret { i64*, i64* } %6, !dbg !984
}

; core::clone::impls::<impl core::clone::Clone for i32>::clone
; Function Attrs: inlinehint nonlazybind uwtable
define internal i32 @"_ZN4core5clone5impls52_$LT$impl$u20$core..clone..Clone$u20$for$u20$i32$GT$5clone17hee669c77613d124fE"(i32* align 4 %self) unnamed_addr #2 !dbg !985 {
start:
  %self.dbg.spill = alloca i32*, align 8
  store i32* %self, i32** %self.dbg.spill, align 8
  call void @llvm.dbg.declare(metadata i32** %self.dbg.spill, metadata !993, metadata !DIExpression()), !dbg !994
  %0 = load i32, i32* %self, align 4, !dbg !995
  ret i32 %0, !dbg !996
}

; core::clone::impls::<impl core::clone::Clone for usize>::clone
; Function Attrs: inlinehint nonlazybind uwtable
define internal i64 @"_ZN4core5clone5impls54_$LT$impl$u20$core..clone..Clone$u20$for$u20$usize$GT$5clone17h09756b7b20e8b0edE"(i64* align 8 %self) unnamed_addr #2 !dbg !997 {
start:
  %self.dbg.spill = alloca i64*, align 8
  store i64* %self, i64** %self.dbg.spill, align 8
  call void @llvm.dbg.declare(metadata i64** %self.dbg.spill, metadata !1002, metadata !DIExpression()), !dbg !1003
  %0 = load i64, i64* %self, align 8, !dbg !1004
  ret i64 %0, !dbg !1005
}

; core::slice::<impl [T]>::as_mut_ptr
; Function Attrs: inlinehint nonlazybind uwtable
define internal i8* @"_ZN4core5slice29_$LT$impl$u20$$u5b$T$u5d$$GT$10as_mut_ptr17h70d06df5e26fdb0aE"([0 x i8]* align 1 %self.0, i64 %self.1) unnamed_addr #2 !dbg !1006 {
start:
  %self.dbg.spill = alloca { [0 x i8]*, i64 }, align 8
  %0 = getelementptr inbounds { [0 x i8]*, i64 }, { [0 x i8]*, i64 }* %self.dbg.spill, i32 0, i32 0
  store [0 x i8]* %self.0, [0 x i8]** %0, align 8
  %1 = getelementptr inbounds { [0 x i8]*, i64 }, { [0 x i8]*, i64 }* %self.dbg.spill, i32 0, i32 1
  store i64 %self.1, i64* %1, align 8
  call void @llvm.dbg.declare(metadata { [0 x i8]*, i64 }* %self.dbg.spill, metadata !1016, metadata !DIExpression()), !dbg !1017
  %2 = bitcast [0 x i8]* %self.0 to i8*, !dbg !1018
  ret i8* %2, !dbg !1019
}

; core::slice::<impl [T]>::as_mut_ptr
; Function Attrs: inlinehint nonlazybind uwtable
define internal i32* @"_ZN4core5slice29_$LT$impl$u20$$u5b$T$u5d$$GT$10as_mut_ptr17he94d0b7947b9d4b8E"([0 x i32]* align 4 %self.0, i64 %self.1) unnamed_addr #2 !dbg !1020 {
start:
  %self.dbg.spill = alloca { [0 x i32]*, i64 }, align 8
  %0 = getelementptr inbounds { [0 x i32]*, i64 }, { [0 x i32]*, i64 }* %self.dbg.spill, i32 0, i32 0
  store [0 x i32]* %self.0, [0 x i32]** %0, align 8
  %1 = getelementptr inbounds { [0 x i32]*, i64 }, { [0 x i32]*, i64 }* %self.dbg.spill, i32 0, i32 1
  store i64 %self.1, i64* %1, align 8
  call void @llvm.dbg.declare(metadata { [0 x i32]*, i64 }* %self.dbg.spill, metadata !1029, metadata !DIExpression()), !dbg !1030
  %2 = bitcast [0 x i32]* %self.0 to i32*, !dbg !1031
  ret i32* %2, !dbg !1032
}

; core::slice::iter::Iter<T>::new
; Function Attrs: inlinehint nonlazybind uwtable
define internal { i64*, i64* } @"_ZN4core5slice4iter13Iter$LT$T$GT$3new17hf5e7bd578a2dbb62E"([0 x double]* align 8 %slice.0, i64 %slice.1) unnamed_addr #2 !dbg !1033 {
start:
  %ptr.dbg.spill11 = alloca double*, align 8
  %0 = alloca i8*, align 8
  %count.dbg.spill10 = alloca i64, align 8
  %self.dbg.spill9 = alloca i8*, align 8
  %count.dbg.spill8 = alloca i64, align 8
  %self.dbg.spill7 = alloca i8*, align 8
  %count.dbg.spill5 = alloca i64, align 8
  %self.dbg.spill4 = alloca double*, align 8
  %count.dbg.spill = alloca i64, align 8
  %self.dbg.spill3 = alloca double*, align 8
  %1 = alloca i8, align 1
  %other.dbg.spill = alloca i8*, align 8
  %data_address.dbg.spill = alloca {}*, align 8
  %2 = alloca {}*, align 8
  %self.dbg.spill2 = alloca i8*, align 8
  %self.dbg.spill1 = alloca double*, align 8
  %ptr.dbg.spill = alloca double*, align 8
  %self.dbg.spill = alloca { [0 x double]*, i64 }, align 8
  %metadata.dbg.spill = alloca {}, align 1
  %slice.dbg.spill = alloca { [0 x double]*, i64 }, align 8
  %_31 = alloca %"core::ptr::metadata::PtrComponents<u8>", align 8
  %_30 = alloca %"core::ptr::metadata::PtrRepr<u8>", align 8
  %_18 = alloca i64*, align 8
  %end = alloca double*, align 8
  %3 = alloca { i64*, i64* }, align 8
  %4 = getelementptr inbounds { [0 x double]*, i64 }, { [0 x double]*, i64 }* %slice.dbg.spill, i32 0, i32 0
  store [0 x double]* %slice.0, [0 x double]** %4, align 8
  %5 = getelementptr inbounds { [0 x double]*, i64 }, { [0 x double]*, i64 }* %slice.dbg.spill, i32 0, i32 1
  store i64 %slice.1, i64* %5, align 8
  call void @llvm.dbg.declare(metadata { [0 x double]*, i64 }* %slice.dbg.spill, metadata !1036, metadata !DIExpression()), !dbg !1041
  call void @llvm.dbg.declare(metadata double** %end, metadata !1039, metadata !DIExpression()), !dbg !1042
  call void @llvm.dbg.declare(metadata {}* %metadata.dbg.spill, metadata !1043, metadata !DIExpression()), !dbg !1054
  %6 = getelementptr inbounds { [0 x double]*, i64 }, { [0 x double]*, i64 }* %self.dbg.spill, i32 0, i32 0, !dbg !1070
  store [0 x double]* %slice.0, [0 x double]** %6, align 8, !dbg !1070
  %7 = getelementptr inbounds { [0 x double]*, i64 }, { [0 x double]*, i64 }* %self.dbg.spill, i32 0, i32 1, !dbg !1070
  store i64 %slice.1, i64* %7, align 8, !dbg !1070
  call void @llvm.dbg.declare(metadata { [0 x double]*, i64 }* %self.dbg.spill, metadata !1071, metadata !DIExpression()), !dbg !1077
  %ptr = bitcast [0 x double]* %slice.0 to double*, !dbg !1077
  store double* %ptr, double** %ptr.dbg.spill, align 8, !dbg !1077
  call void @llvm.dbg.declare(metadata double** %ptr.dbg.spill, metadata !1037, metadata !DIExpression()), !dbg !1078
  store double* %ptr, double** %self.dbg.spill1, align 8, !dbg !1069
  call void @llvm.dbg.declare(metadata double** %self.dbg.spill1, metadata !1067, metadata !DIExpression()), !dbg !1079
  %self = bitcast double* %ptr to i8*, !dbg !1079
  store i8* %self, i8** %self.dbg.spill2, align 8, !dbg !1079
  call void @llvm.dbg.declare(metadata i8** %self.dbg.spill2, metadata !1080, metadata !DIExpression()), !dbg !1087
  %8 = bitcast {}** %2 to i64*, !dbg !1089
  store i64 0, i64* %8, align 8, !dbg !1089
  %data_address = load {}*, {}** %2, align 8, !dbg !1089
  store {}* %data_address, {}** %data_address.dbg.spill, align 8, !dbg !1089
  call void @llvm.dbg.declare(metadata {}** %data_address.dbg.spill, metadata !1051, metadata !DIExpression()), !dbg !1054
  br label %bb5, !dbg !1089

bb5:                                              ; preds = %start
  %9 = bitcast %"core::ptr::metadata::PtrComponents<u8>"* %_31 to {}**, !dbg !1054
  store {}* %data_address, {}** %9, align 8, !dbg !1054
  %10 = bitcast %"core::ptr::metadata::PtrRepr<u8>"* %_30 to %"core::ptr::metadata::PtrComponents<u8>"*, !dbg !1054
  %11 = bitcast %"core::ptr::metadata::PtrComponents<u8>"* %10 to i8*, !dbg !1054
  %12 = bitcast %"core::ptr::metadata::PtrComponents<u8>"* %_31 to i8*, !dbg !1054
  call void @llvm.memcpy.p0i8.p0i8.i64(i8* align 8 %11, i8* align 8 %12, i64 8, i1 false), !dbg !1054
  %13 = bitcast %"core::ptr::metadata::PtrRepr<u8>"* %_30 to i8**, !dbg !1054
  %other = load i8*, i8** %13, align 8, !dbg !1054
  store i8* %other, i8** %other.dbg.spill, align 8, !dbg !1054
  call void @llvm.dbg.declare(metadata i8** %other.dbg.spill, metadata !1086, metadata !DIExpression()), !dbg !1087
  %14 = icmp eq i8* %self, %other, !dbg !1087
  %15 = zext i1 %14 to i8, !dbg !1087
  store i8 %15, i8* %1, align 1, !dbg !1087
  %16 = load i8, i8* %1, align 1, !dbg !1087, !range !460, !noundef !23
  %_6 = trunc i8 %16 to i1, !dbg !1087
  br label %bb6, !dbg !1087

bb6:                                              ; preds = %bb5
  %_5 = xor i1 %_6, true, !dbg !1097
  call void @llvm.assume(i1 %_5), !dbg !1098
  br label %bb1, !dbg !1098

bb1:                                              ; preds = %bb6
  br i1 false, label %bb2, label %bb3, !dbg !1099

bb2:                                              ; preds = %bb1
  %self6 = bitcast double* %ptr to i8*, !dbg !1100
  store i8* %self6, i8** %self.dbg.spill7, align 8, !dbg !1100
  call void @llvm.dbg.declare(metadata i8** %self.dbg.spill7, metadata !1101, metadata !DIExpression()), !dbg !1108
  store i64 %slice.1, i64* %count.dbg.spill8, align 8, !dbg !1109
  call void @llvm.dbg.declare(metadata i64* %count.dbg.spill8, metadata !1107, metadata !DIExpression()), !dbg !1108
  store i8* %self6, i8** %self.dbg.spill9, align 8, !dbg !1108
  call void @llvm.dbg.declare(metadata i8** %self.dbg.spill9, metadata !1110, metadata !DIExpression()), !dbg !1117
  store i64 %slice.1, i64* %count.dbg.spill10, align 8, !dbg !1108
  call void @llvm.dbg.declare(metadata i64* %count.dbg.spill10, metadata !1116, metadata !DIExpression()), !dbg !1117
  %17 = getelementptr i8, i8* %self6, i64 %slice.1, !dbg !1117
  store i8* %17, i8** %0, align 8, !dbg !1117
  %_10 = load i8*, i8** %0, align 8, !dbg !1117
  br label %bb7, !dbg !1117

bb3:                                              ; preds = %bb1
  store double* %ptr, double** %self.dbg.spill3, align 8, !dbg !1119
  call void @llvm.dbg.declare(metadata double** %self.dbg.spill3, metadata !1120, metadata !DIExpression()), !dbg !1127
  store i64 %slice.1, i64* %count.dbg.spill, align 8, !dbg !1128
  call void @llvm.dbg.declare(metadata i64* %count.dbg.spill, metadata !1126, metadata !DIExpression()), !dbg !1127
  store double* %ptr, double** %self.dbg.spill4, align 8, !dbg !1127
  call void @llvm.dbg.declare(metadata double** %self.dbg.spill4, metadata !1129, metadata !DIExpression()), !dbg !1136
  store i64 %slice.1, i64* %count.dbg.spill5, align 8, !dbg !1127
  call void @llvm.dbg.declare(metadata i64* %count.dbg.spill5, metadata !1135, metadata !DIExpression()), !dbg !1136
  %18 = getelementptr inbounds double, double* %ptr, i64 %slice.1, !dbg !1136
  store double* %18, double** %end, align 8, !dbg !1136
  br label %bb8, !dbg !1136

bb8:                                              ; preds = %bb3
  br label %bb4, !dbg !1138

bb4:                                              ; preds = %bb7, %bb8
  store double* %ptr, double** %ptr.dbg.spill11, align 8, !dbg !1139
  call void @llvm.dbg.declare(metadata double** %ptr.dbg.spill11, metadata !1140, metadata !DIExpression()), !dbg !1148
  %19 = bitcast i64** %_18 to double**, !dbg !1148
  store double* %ptr, double** %19, align 8, !dbg !1148
  %_21 = load double*, double** %end, align 8, !dbg !1150
  %20 = bitcast { i64*, i64* }* %3 to i64**, !dbg !1151
  %21 = load i64*, i64** %_18, align 8, !dbg !1151, !nonnull !23, !noundef !23
  store i64* %21, i64** %20, align 8, !dbg !1151
  %22 = getelementptr inbounds { i64*, i64* }, { i64*, i64* }* %3, i32 0, i32 1, !dbg !1151
  %23 = bitcast i64** %22 to double**, !dbg !1151
  store double* %_21, double** %23, align 8, !dbg !1151
  %24 = getelementptr inbounds { i64*, i64* }, { i64*, i64* }* %3, i32 0, i32 0, !dbg !1152
  %25 = load i64*, i64** %24, align 8, !dbg !1152, !nonnull !23, !noundef !23
  %26 = getelementptr inbounds { i64*, i64* }, { i64*, i64* }* %3, i32 0, i32 1, !dbg !1152
  %27 = load i64*, i64** %26, align 8, !dbg !1152
  %28 = insertvalue { i64*, i64* } undef, i64* %25, 0, !dbg !1152
  %29 = insertvalue { i64*, i64* } %28, i64* %27, 1, !dbg !1152
  ret { i64*, i64* } %29, !dbg !1152

bb7:                                              ; preds = %bb2
  %30 = bitcast i8* %_10 to double*, !dbg !1100
  store double* %30, double** %end, align 8, !dbg !1100
  br label %bb4, !dbg !1138
}

; core::panicking::assert_failed
; Function Attrs: cold noreturn nonlazybind uwtable
define internal void @_ZN4core9panicking13assert_failed17h3af7a8feed00bea4E(i8 %kind, i8* align 1 %0, i8* align 1 %1, %"core::option::Option<core::fmt::Arguments>"* %args, %"core::panic::location::Location"* align 8 %2) unnamed_addr #3 !dbg !1153 {
start:
  %kind.dbg.spill = alloca i8, align 1
  %_13 = alloca %"core::option::Option<core::fmt::Arguments>", align 8
  %right = alloca i8*, align 8
  %left = alloca i8*, align 8
  store i8* %0, i8** %left, align 8
  store i8* %1, i8** %right, align 8
  store i8 %kind, i8* %kind.dbg.spill, align 1
  call void @llvm.dbg.declare(metadata i8* %kind.dbg.spill, metadata !1171, metadata !DIExpression()), !dbg !1177
  call void @llvm.dbg.declare(metadata i8** %left, metadata !1172, metadata !DIExpression()), !dbg !1178
  call void @llvm.dbg.declare(metadata i8** %right, metadata !1173, metadata !DIExpression()), !dbg !1179
  call void @llvm.dbg.declare(metadata %"core::option::Option<core::fmt::Arguments>"* %args, metadata !1174, metadata !DIExpression()), !dbg !1180
  %_7.0 = bitcast i8** %left to {}*, !dbg !1181
  %_10.0 = bitcast i8** %right to {}*, !dbg !1182
  %3 = bitcast %"core::option::Option<core::fmt::Arguments>"* %_13 to i8*, !dbg !1183
  %4 = bitcast %"core::option::Option<core::fmt::Arguments>"* %args to i8*, !dbg !1183
  call void @llvm.memcpy.p0i8.p0i8.i64(i8* align 8 %3, i8* align 8 %4, i64 48, i1 false), !dbg !1183
; call core::panicking::assert_failed_inner
  call void @_ZN4core9panicking19assert_failed_inner17h2784388051aff910E(i8 %kind, {}* align 1 %_7.0, [3 x i64]* align 8 bitcast (<{ i8*, [16 x i8], i8* }>* @vtable.1 to [3 x i64]*), {}* align 1 %_10.0, [3 x i64]* align 8 bitcast (<{ i8*, [16 x i8], i8* }>* @vtable.1 to [3 x i64]*), %"core::option::Option<core::fmt::Arguments>"* %_13, %"core::panic::location::Location"* align 8 %2) #12, !dbg !1184
  unreachable, !dbg !1184
}

; core::panicking::assert_failed
; Function Attrs: cold noreturn nonlazybind uwtable
define internal void @_ZN4core9panicking13assert_failed17h837969f3f4548b57E(i8 %kind, i32* align 4 %0, i32* align 4 %1, %"core::option::Option<core::fmt::Arguments>"* %args, %"core::panic::location::Location"* align 8 %2) unnamed_addr #3 !dbg !1185 {
start:
  %kind.dbg.spill = alloca i8, align 1
  %_13 = alloca %"core::option::Option<core::fmt::Arguments>", align 8
  %right = alloca i32*, align 8
  %left = alloca i32*, align 8
  store i32* %0, i32** %left, align 8
  store i32* %1, i32** %right, align 8
  store i8 %kind, i8* %kind.dbg.spill, align 1
  call void @llvm.dbg.declare(metadata i8* %kind.dbg.spill, metadata !1189, metadata !DIExpression()), !dbg !1195
  call void @llvm.dbg.declare(metadata i32** %left, metadata !1190, metadata !DIExpression()), !dbg !1196
  call void @llvm.dbg.declare(metadata i32** %right, metadata !1191, metadata !DIExpression()), !dbg !1197
  call void @llvm.dbg.declare(metadata %"core::option::Option<core::fmt::Arguments>"* %args, metadata !1192, metadata !DIExpression()), !dbg !1198
  %_7.0 = bitcast i32** %left to {}*, !dbg !1199
  %_10.0 = bitcast i32** %right to {}*, !dbg !1200
  %3 = bitcast %"core::option::Option<core::fmt::Arguments>"* %_13 to i8*, !dbg !1201
  %4 = bitcast %"core::option::Option<core::fmt::Arguments>"* %args to i8*, !dbg !1201
  call void @llvm.memcpy.p0i8.p0i8.i64(i8* align 8 %3, i8* align 8 %4, i64 48, i1 false), !dbg !1201
; call core::panicking::assert_failed_inner
  call void @_ZN4core9panicking19assert_failed_inner17h2784388051aff910E(i8 %kind, {}* align 1 %_7.0, [3 x i64]* align 8 bitcast (<{ i8*, [16 x i8], i8* }>* @vtable.2 to [3 x i64]*), {}* align 1 %_10.0, [3 x i64]* align 8 bitcast (<{ i8*, [16 x i8], i8* }>* @vtable.2 to [3 x i64]*), %"core::option::Option<core::fmt::Arguments>"* %_13, %"core::panic::location::Location"* align 8 %2) #12, !dbg !1202
  unreachable, !dbg !1202
}

; core::panicking::assert_failed
; Function Attrs: cold noreturn nonlazybind uwtable
define internal void @_ZN4core9panicking13assert_failed17h9ce10f1aa44c1cd6E(i8 %kind, i8** align 8 %0, i8** align 8 %1, %"core::option::Option<core::fmt::Arguments>"* %args, %"core::panic::location::Location"* align 8 %2) unnamed_addr #3 !dbg !1203 {
start:
  %kind.dbg.spill = alloca i8, align 1
  %_13 = alloca %"core::option::Option<core::fmt::Arguments>", align 8
  %right = alloca i8**, align 8
  %left = alloca i8**, align 8
  store i8** %0, i8*** %left, align 8
  store i8** %1, i8*** %right, align 8
  store i8 %kind, i8* %kind.dbg.spill, align 1
  call void @llvm.dbg.declare(metadata i8* %kind.dbg.spill, metadata !1207, metadata !DIExpression()), !dbg !1213
  call void @llvm.dbg.declare(metadata i8*** %left, metadata !1208, metadata !DIExpression()), !dbg !1214
  call void @llvm.dbg.declare(metadata i8*** %right, metadata !1209, metadata !DIExpression()), !dbg !1215
  call void @llvm.dbg.declare(metadata %"core::option::Option<core::fmt::Arguments>"* %args, metadata !1210, metadata !DIExpression()), !dbg !1216
  %_7.0 = bitcast i8*** %left to {}*, !dbg !1217
  %_10.0 = bitcast i8*** %right to {}*, !dbg !1218
  %3 = bitcast %"core::option::Option<core::fmt::Arguments>"* %_13 to i8*, !dbg !1219
  %4 = bitcast %"core::option::Option<core::fmt::Arguments>"* %args to i8*, !dbg !1219
  call void @llvm.memcpy.p0i8.p0i8.i64(i8* align 8 %3, i8* align 8 %4, i64 48, i1 false), !dbg !1219
; call core::panicking::assert_failed_inner
  call void @_ZN4core9panicking19assert_failed_inner17h2784388051aff910E(i8 %kind, {}* align 1 %_7.0, [3 x i64]* align 8 bitcast (<{ i8*, [16 x i8], i8* }>* @vtable.3 to [3 x i64]*), {}* align 1 %_10.0, [3 x i64]* align 8 bitcast (<{ i8*, [16 x i8], i8* }>* @vtable.3 to [3 x i64]*), %"core::option::Option<core::fmt::Arguments>"* %_13, %"core::panic::location::Location"* align 8 %2) #12, !dbg !1220
  unreachable, !dbg !1220
}

; test::assert_test_result
; Function Attrs: nonlazybind uwtable
define internal void @_ZN4test18assert_test_result17h0d8ef63baff1c316E() unnamed_addr #1 !dbg !1221 {
start:
  %0 = alloca %"core::fmt::Opaque"*, align 8
  %1 = alloca i1 (%"core::fmt::Opaque"*, %"core::fmt::Formatter"*)*, align 8
  %f.dbg.spill = alloca i1 (i32*, %"core::fmt::Formatter"*)*, align 8
  %x.dbg.spill1 = alloca i32*, align 8
  %x.dbg.spill = alloca i32*, align 8
  %right_val.dbg.spill = alloca i32*, align 8
  %left_val.dbg.spill = alloca i32*, align 8
  %self.dbg.spill = alloca i8*, align 8
  %result.dbg.spill = alloca {}, align 1
  %_30 = alloca { i8*, i64* }, align 8
  %_29 = alloca [1 x { i8*, i64* }], align 8
  %_22 = alloca %"core::fmt::Arguments", align 8
  %_21 = alloca %"core::option::Option<core::fmt::Arguments>", align 8
  %_5 = alloca { i32*, i32* }, align 8
  %self = alloca i8, align 1
  %code = alloca i32, align 4
  call void @llvm.dbg.declare(metadata {}* %result.dbg.spill, metadata !1225, metadata !DIExpression()), !dbg !1236
  call void @llvm.dbg.declare(metadata i32* %code, metadata !1226, metadata !DIExpression()), !dbg !1237
  call void @llvm.dbg.declare(metadata i8* %self, metadata !1238, metadata !DIExpression()), !dbg !1242
; call <() as std::process::Termination>::report
  %2 = call i8 @"_ZN54_$LT$$LP$$RP$$u20$as$u20$std..process..Termination$GT$6report17h039a9e491ba2ff7fE"(), !dbg !1243
  store i8 %2, i8* %self, align 1, !dbg !1243
  br label %bb1, !dbg !1243

bb1:                                              ; preds = %start
  store i8* %self, i8** %self.dbg.spill, align 8, !dbg !1242
  call void @llvm.dbg.declare(metadata i8** %self.dbg.spill, metadata !1244, metadata !DIExpression()), !dbg !1248
  %_36 = load i8, i8* %self, align 1, !dbg !1248
  %3 = zext i8 %_36 to i32, !dbg !1248
  store i32 %3, i32* %code, align 4, !dbg !1248
  %4 = bitcast { i32*, i32* }* %_5 to i32**, !dbg !1250
  store i32* %code, i32** %4, align 8, !dbg !1250
  %5 = getelementptr inbounds { i32*, i32* }, { i32*, i32* }* %_5, i32 0, i32 1, !dbg !1250
  store i32* bitcast (<{ [4 x i8] }>* @alloc105 to i32*), i32** %5, align 8, !dbg !1250
  %6 = bitcast { i32*, i32* }* %_5 to i32**, !dbg !1250
  %left_val = load i32*, i32** %6, align 8, !dbg !1250, !nonnull !23, !align !245, !noundef !23
  store i32* %left_val, i32** %left_val.dbg.spill, align 8, !dbg !1250
  call void @llvm.dbg.declare(metadata i32** %left_val.dbg.spill, metadata !1228, metadata !DIExpression()), !dbg !1251
  %7 = getelementptr inbounds { i32*, i32* }, { i32*, i32* }* %_5, i32 0, i32 1, !dbg !1250
  %right_val = load i32*, i32** %7, align 8, !dbg !1250, !nonnull !23, !align !245, !noundef !23
  store i32* %right_val, i32** %right_val.dbg.spill, align 8, !dbg !1250
  call void @llvm.dbg.declare(metadata i32** %right_val.dbg.spill, metadata !1232, metadata !DIExpression()), !dbg !1251
  %_12 = load i32, i32* %left_val, align 4, !dbg !1251
  %_13 = load i32, i32* %right_val, align 4, !dbg !1251
  %_11 = icmp eq i32 %_12, %_13, !dbg !1251
  %_10 = xor i1 %_11, true, !dbg !1251
  br i1 %_10, label %bb2, label %bb4, !dbg !1251

bb4:                                              ; preds = %bb1
  ret void, !dbg !1252

bb2:                                              ; preds = %bb1
  store i32* %code, i32** %x.dbg.spill, align 8, !dbg !1253
  call void @llvm.dbg.declare(metadata i32** %x.dbg.spill, metadata !1254, metadata !DIExpression()), !dbg !1258
  store i32* %code, i32** %x.dbg.spill1, align 8, !dbg !1258
  call void @llvm.dbg.declare(metadata i32** %x.dbg.spill1, metadata !1260, metadata !DIExpression()), !dbg !1265
  store i1 (i32*, %"core::fmt::Formatter"*)* @"_ZN4core3fmt3num3imp52_$LT$impl$u20$core..fmt..Display$u20$for$u20$i32$GT$3fmt17h52a4838d0eaa2babE", i1 (i32*, %"core::fmt::Formatter"*)** %f.dbg.spill, align 8, !dbg !1258
  call void @llvm.dbg.declare(metadata i1 (i32*, %"core::fmt::Formatter"*)** %f.dbg.spill, metadata !1264, metadata !DIExpression()), !dbg !1265
  store i1 (%"core::fmt::Opaque"*, %"core::fmt::Formatter"*)* bitcast (i1 (i32*, %"core::fmt::Formatter"*)* @"_ZN4core3fmt3num3imp52_$LT$impl$u20$core..fmt..Display$u20$for$u20$i32$GT$3fmt17h52a4838d0eaa2babE" to i1 (%"core::fmt::Opaque"*, %"core::fmt::Formatter"*)*), i1 (%"core::fmt::Opaque"*, %"core::fmt::Formatter"*)** %1, align 8, !dbg !1265
  %_39 = load i1 (%"core::fmt::Opaque"*, %"core::fmt::Formatter"*)*, i1 (%"core::fmt::Opaque"*, %"core::fmt::Formatter"*)** %1, align 8, !dbg !1265, !nonnull !23, !noundef !23
  br label %bb5, !dbg !1265

bb5:                                              ; preds = %bb2
  %8 = bitcast i32* %code to %"core::fmt::Opaque"*, !dbg !1265
  store %"core::fmt::Opaque"* %8, %"core::fmt::Opaque"** %0, align 8, !dbg !1265
  %_41 = load %"core::fmt::Opaque"*, %"core::fmt::Opaque"** %0, align 8, !dbg !1265, !nonnull !23, !align !260, !noundef !23
  br label %bb6, !dbg !1265

bb6:                                              ; preds = %bb5
  %9 = bitcast { i8*, i64* }* %_30 to %"core::fmt::Opaque"**, !dbg !1265
  store %"core::fmt::Opaque"* %_41, %"core::fmt::Opaque"** %9, align 8, !dbg !1265
  %10 = getelementptr inbounds { i8*, i64* }, { i8*, i64* }* %_30, i32 0, i32 1, !dbg !1265
  %11 = bitcast i64** %10 to i1 (%"core::fmt::Opaque"*, %"core::fmt::Formatter"*)**, !dbg !1265
  store i1 (%"core::fmt::Opaque"*, %"core::fmt::Formatter"*)* %_39, i1 (%"core::fmt::Opaque"*, %"core::fmt::Formatter"*)** %11, align 8, !dbg !1265
  %12 = getelementptr inbounds { i8*, i64* }, { i8*, i64* }* %_30, i32 0, i32 0, !dbg !1253
  %13 = load i8*, i8** %12, align 8, !dbg !1253, !nonnull !23, !align !260, !noundef !23
  %14 = getelementptr inbounds { i8*, i64* }, { i8*, i64* }* %_30, i32 0, i32 1, !dbg !1253
  %15 = load i64*, i64** %14, align 8, !dbg !1253, !nonnull !23, !noundef !23
  %16 = getelementptr inbounds [1 x { i8*, i64* }], [1 x { i8*, i64* }]* %_29, i64 0, i64 0, !dbg !1253
  %17 = getelementptr inbounds { i8*, i64* }, { i8*, i64* }* %16, i32 0, i32 0, !dbg !1253
  store i8* %13, i8** %17, align 8, !dbg !1253
  %18 = getelementptr inbounds { i8*, i64* }, { i8*, i64* }* %16, i32 0, i32 1, !dbg !1253
  store i64* %15, i64** %18, align 8, !dbg !1253
  %_26.0 = bitcast [1 x { i8*, i64* }]* %_29 to [0 x { i8*, i64* }]*, !dbg !1253
; call core::fmt::Arguments::new_v1
  call void @_ZN4core3fmt9Arguments6new_v117h36498085c8e9127fE(%"core::fmt::Arguments"* sret(%"core::fmt::Arguments") %_22, [0 x { [0 x i8]*, i64 }]* align 8 bitcast (<{ i8*, [8 x i8], i8*, [8 x i8] }>* @alloc108 to [0 x { [0 x i8]*, i64 }]*), i64 2, [0 x { i8*, i64* }]* align 8 %_26.0, i64 1), !dbg !1253
  br label %bb3, !dbg !1253

bb3:                                              ; preds = %bb6
  %19 = bitcast %"core::option::Option<core::fmt::Arguments>"* %_21 to %"core::option::Option<core::fmt::Arguments>::Some"*, !dbg !1253
  %20 = bitcast %"core::option::Option<core::fmt::Arguments>::Some"* %19 to %"core::fmt::Arguments"*, !dbg !1253
  %21 = bitcast %"core::fmt::Arguments"* %20 to i8*, !dbg !1253
  %22 = bitcast %"core::fmt::Arguments"* %_22 to i8*, !dbg !1253
  call void @llvm.memcpy.p0i8.p0i8.i64(i8* align 8 %21, i8* align 8 %22, i64 48, i1 false), !dbg !1253
; call core::panicking::assert_failed
  call void @_ZN4core9panicking13assert_failed17h837969f3f4548b57E(i8 0, i32* align 4 %left_val, i32* align 4 %right_val, %"core::option::Option<core::fmt::Arguments>"* %_21, %"core::panic::location::Location"* align 8 bitcast (<{ i8*, [16 x i8] }>* @alloc275 to %"core::panic::location::Location"*)) #12, !dbg !1253
  unreachable, !dbg !1253
}

; <*mut T as core::fmt::Debug>::fmt
; Function Attrs: nonlazybind uwtable
define internal zeroext i1 @"_ZN50_$LT$$BP$mut$u20$T$u20$as$u20$core..fmt..Debug$GT$3fmt17hb0f07914bd25b43fE"(i8** align 8 %self, %"core::fmt::Formatter"* align 8 %f) unnamed_addr #1 !dbg !1267 {
start:
  %f.dbg.spill = alloca %"core::fmt::Formatter"*, align 8
  %self.dbg.spill = alloca i8**, align 8
  store i8** %self, i8*** %self.dbg.spill, align 8
  call void @llvm.dbg.declare(metadata i8*** %self.dbg.spill, metadata !1272, metadata !DIExpression()), !dbg !1276
  store %"core::fmt::Formatter"* %f, %"core::fmt::Formatter"** %f.dbg.spill, align 8
  call void @llvm.dbg.declare(metadata %"core::fmt::Formatter"** %f.dbg.spill, metadata !1273, metadata !DIExpression()), !dbg !1277
; call <*mut T as core::fmt::Pointer>::fmt
  %0 = call zeroext i1 @"_ZN52_$LT$$BP$mut$u20$T$u20$as$u20$core..fmt..Pointer$GT$3fmt17hf8afc44f77b07f3dE"(i8** align 8 %self, %"core::fmt::Formatter"* align 8 %f), !dbg !1278
  br label %bb1, !dbg !1278

bb1:                                              ; preds = %start
  ret i1 %0, !dbg !1279
}

; <*mut T as core::fmt::Pointer>::fmt
; Function Attrs: nonlazybind uwtable
define internal zeroext i1 @"_ZN52_$LT$$BP$mut$u20$T$u20$as$u20$core..fmt..Pointer$GT$3fmt17hf8afc44f77b07f3dE"(i8** align 8 %self, %"core::fmt::Formatter"* align 8 %f) unnamed_addr #1 !dbg !1280 {
start:
  %f.dbg.spill = alloca %"core::fmt::Formatter"*, align 8
  %self.dbg.spill = alloca i8**, align 8
  %_5 = alloca i8*, align 8
  store i8** %self, i8*** %self.dbg.spill, align 8
  call void @llvm.dbg.declare(metadata i8*** %self.dbg.spill, metadata !1283, metadata !DIExpression()), !dbg !1285
  store %"core::fmt::Formatter"* %f, %"core::fmt::Formatter"** %f.dbg.spill, align 8
  call void @llvm.dbg.declare(metadata %"core::fmt::Formatter"** %f.dbg.spill, metadata !1284, metadata !DIExpression()), !dbg !1286
  %_6 = load i8*, i8** %self, align 8, !dbg !1287
  store i8* %_6, i8** %_5, align 8, !dbg !1287
; call <*const T as core::fmt::Pointer>::fmt
  %0 = call zeroext i1 @"_ZN54_$LT$$BP$const$u20$T$u20$as$u20$core..fmt..Pointer$GT$3fmt17h9083f6fb4bd87a21E"(i8** align 8 %_5, %"core::fmt::Formatter"* align 8 %f), !dbg !1288
  br label %bb1, !dbg !1288

bb1:                                              ; preds = %start
  ret i1 %0, !dbg !1289
}

; <*const T as core::fmt::Pointer>::fmt
; Function Attrs: nonlazybind uwtable
define internal zeroext i1 @"_ZN54_$LT$$BP$const$u20$T$u20$as$u20$core..fmt..Pointer$GT$3fmt17h9083f6fb4bd87a21E"(i8** align 8 %self, %"core::fmt::Formatter"* align 8 %f) unnamed_addr #1 !dbg !1290 {
start:
  %0 = alloca i64, align 8
  %self.dbg.spill2 = alloca {}*, align 8
  %f.dbg.spill = alloca %"core::fmt::Formatter"*, align 8
  %self.dbg.spill = alloca i8**, align 8
  store i8** %self, i8*** %self.dbg.spill, align 8
  call void @llvm.dbg.declare(metadata i8*** %self.dbg.spill, metadata !1297, metadata !DIExpression()), !dbg !1299
  store %"core::fmt::Formatter"* %f, %"core::fmt::Formatter"** %f.dbg.spill, align 8
  call void @llvm.dbg.declare(metadata %"core::fmt::Formatter"** %f.dbg.spill, metadata !1298, metadata !DIExpression()), !dbg !1300
  %_5 = load i8*, i8** %self, align 8, !dbg !1301
  %self1 = bitcast i8* %_5 to {}*, !dbg !1302
  store {}* %self1, {}** %self.dbg.spill2, align 8, !dbg !1302
  call void @llvm.dbg.declare(metadata {}** %self.dbg.spill2, metadata !1303, metadata !DIExpression()), !dbg !1309
  %1 = bitcast i64* %0 to {}**, !dbg !1309
  store {}* %self1, {}** %1, align 8, !dbg !1309
  %_3 = load i64, i64* %0, align 8, !dbg !1309
  br label %bb2, !dbg !1309

bb2:                                              ; preds = %start
; call core::fmt::pointer_fmt_inner
  %2 = call zeroext i1 @_ZN4core3fmt17pointer_fmt_inner17h84ca843cfd72e1d0E(i64 %_3, %"core::fmt::Formatter"* align 8 %f), !dbg !1310
  br label %bb1, !dbg !1310

bb1:                                              ; preds = %bb2
  ret i1 %2, !dbg !1311
}

; <() as std::process::Termination>::report
; Function Attrs: inlinehint nonlazybind uwtable
define internal i8 @"_ZN54_$LT$$LP$$RP$$u20$as$u20$std..process..Termination$GT$6report17h039a9e491ba2ff7fE"() unnamed_addr #2 !dbg !1312 {
start:
  %self.dbg.spill = alloca {}, align 1
  call void @llvm.dbg.declare(metadata {}* %self.dbg.spill, metadata !1317, metadata !DIExpression()), !dbg !1318
  ret i8 0, !dbg !1319
}

; <I as core::iter::traits::collect::IntoIterator>::into_iter
; Function Attrs: inlinehint nonlazybind uwtable
define internal { i32, i32 } @"_ZN63_$LT$I$u20$as$u20$core..iter..traits..collect..IntoIterator$GT$9into_iter17h24c793f0c4d76b51E"(i32 %self.0, i32 %self.1) unnamed_addr #2 !dbg !1320 {
start:
  %self.dbg.spill = alloca { i32, i32 }, align 4
  %0 = getelementptr inbounds { i32, i32 }, { i32, i32 }* %self.dbg.spill, i32 0, i32 0
  store i32 %self.0, i32* %0, align 4
  %1 = getelementptr inbounds { i32, i32 }, { i32, i32 }* %self.dbg.spill, i32 0, i32 1
  store i32 %self.1, i32* %1, align 4
  call void @llvm.dbg.declare(metadata { i32, i32 }* %self.dbg.spill, metadata !1328, metadata !DIExpression()), !dbg !1331
  %2 = insertvalue { i32, i32 } undef, i32 %self.0, 0, !dbg !1332
  %3 = insertvalue { i32, i32 } %2, i32 %self.1, 1, !dbg !1332
  ret { i32, i32 } %3, !dbg !1332
}

; <I as core::iter::traits::collect::IntoIterator>::into_iter
; Function Attrs: inlinehint nonlazybind uwtable
define internal { i64, i64 } @"_ZN63_$LT$I$u20$as$u20$core..iter..traits..collect..IntoIterator$GT$9into_iter17hef31a4b98b48c086E"(i64 %self.0, i64 %self.1) unnamed_addr #2 !dbg !1333 {
start:
  %self.dbg.spill = alloca { i64, i64 }, align 8
  %0 = getelementptr inbounds { i64, i64 }, { i64, i64 }* %self.dbg.spill, i32 0, i32 0
  store i64 %self.0, i64* %0, align 8
  %1 = getelementptr inbounds { i64, i64 }, { i64, i64 }* %self.dbg.spill, i32 0, i32 1
  store i64 %self.1, i64* %1, align 8
  call void @llvm.dbg.declare(metadata { i64, i64 }* %self.dbg.spill, metadata !1337, metadata !DIExpression()), !dbg !1340
  %2 = insertvalue { i64, i64 } undef, i64 %self.0, 0, !dbg !1341
  %3 = insertvalue { i64, i64 } %2, i64 %self.1, 1, !dbg !1341
  ret { i64, i64 } %3, !dbg !1341
}

; <core::ops::range::Range<T> as core::iter::range::RangeIteratorImpl>::spec_next
; Function Attrs: inlinehint nonlazybind uwtable
define internal { i64, i64 } @"_ZN89_$LT$core..ops..range..Range$LT$T$GT$$u20$as$u20$core..iter..range..RangeIteratorImpl$GT$9spec_next17h11de1e4c768636d7E"({ i64, i64 }* align 8 %self) unnamed_addr #2 !dbg !1342 {
start:
  %n.dbg.spill = alloca i64, align 8
  %self.dbg.spill = alloca { i64, i64 }*, align 8
  %0 = alloca { i64, i64 }, align 8
  store { i64, i64 }* %self, { i64, i64 }** %self.dbg.spill, align 8
  call void @llvm.dbg.declare(metadata { i64, i64 }** %self.dbg.spill, metadata !1345, metadata !DIExpression()), !dbg !1348
  %_3 = bitcast { i64, i64 }* %self to i64*, !dbg !1349
  %_4 = getelementptr inbounds { i64, i64 }, { i64, i64 }* %self, i32 0, i32 1, !dbg !1350
; call core::cmp::impls::<impl core::cmp::PartialOrd for usize>::lt
  %_2 = call zeroext i1 @"_ZN4core3cmp5impls57_$LT$impl$u20$core..cmp..PartialOrd$u20$for$u20$usize$GT$2lt17h29d5a4ed65c7f8b5E"(i64* align 8 %_3, i64* align 8 %_4), !dbg !1349
  br label %bb1, !dbg !1349

bb1:                                              ; preds = %start
  br i1 %_2, label %bb2, label %bb6, !dbg !1349

bb6:                                              ; preds = %bb1
  %1 = bitcast { i64, i64 }* %0 to i64*, !dbg !1351
  store i64 0, i64* %1, align 8, !dbg !1351
  br label %bb7, !dbg !1352

bb2:                                              ; preds = %bb1
  %_7 = bitcast { i64, i64 }* %self to i64*, !dbg !1353
; call core::clone::impls::<impl core::clone::Clone for usize>::clone
  %_6 = call i64 @"_ZN4core5clone5impls54_$LT$impl$u20$core..clone..Clone$u20$for$u20$usize$GT$5clone17h09756b7b20e8b0edE"(i64* align 8 %_7), !dbg !1353
  br label %bb3, !dbg !1353

bb3:                                              ; preds = %bb2
; call <usize as core::iter::range::Step>::forward_unchecked
  %n = call i64 @"_ZN49_$LT$usize$u20$as$u20$core..iter..range..Step$GT$17forward_unchecked17he3681b3449577bc1E"(i64 %_6, i64 1), !dbg !1354
  store i64 %n, i64* %n.dbg.spill, align 8, !dbg !1354
  call void @llvm.dbg.declare(metadata i64* %n.dbg.spill, metadata !1346, metadata !DIExpression()), !dbg !1355
  br label %bb4, !dbg !1354

bb4:                                              ; preds = %bb3
  %_10 = bitcast { i64, i64 }* %self to i64*, !dbg !1356
; call core::mem::replace
  %_8 = call i64 @_ZN4core3mem7replace17h8481783c9e7afbc0E(i64* align 8 %_10, i64 %n), !dbg !1357
  br label %bb5, !dbg !1357

bb5:                                              ; preds = %bb4
  %2 = getelementptr inbounds { i64, i64 }, { i64, i64 }* %0, i32 0, i32 1, !dbg !1358
  store i64 %_8, i64* %2, align 8, !dbg !1358
  %3 = bitcast { i64, i64 }* %0 to i64*, !dbg !1358
  store i64 1, i64* %3, align 8, !dbg !1358
  br label %bb7, !dbg !1352

bb7:                                              ; preds = %bb6, %bb5
  %4 = getelementptr inbounds { i64, i64 }, { i64, i64 }* %0, i32 0, i32 0, !dbg !1359
  %5 = load i64, i64* %4, align 8, !dbg !1359, !range !1360, !noundef !23
  %6 = getelementptr inbounds { i64, i64 }, { i64, i64 }* %0, i32 0, i32 1, !dbg !1359
  %7 = load i64, i64* %6, align 8, !dbg !1359
  %8 = insertvalue { i64, i64 } undef, i64 %5, 0, !dbg !1359
  %9 = insertvalue { i64, i64 } %8, i64 %7, 1, !dbg !1359
  ret { i64, i64 } %9, !dbg !1359
}

; <core::ops::range::Range<T> as core::iter::range::RangeIteratorImpl>::spec_next
; Function Attrs: inlinehint nonlazybind uwtable
define internal { i32, i32 } @"_ZN89_$LT$core..ops..range..Range$LT$T$GT$$u20$as$u20$core..iter..range..RangeIteratorImpl$GT$9spec_next17hc1fcffe543513bd3E"({ i32, i32 }* align 4 %self) unnamed_addr #2 !dbg !1361 {
start:
  %n.dbg.spill = alloca i32, align 4
  %self.dbg.spill = alloca { i32, i32 }*, align 8
  %0 = alloca { i32, i32 }, align 4
  store { i32, i32 }* %self, { i32, i32 }** %self.dbg.spill, align 8
  call void @llvm.dbg.declare(metadata { i32, i32 }** %self.dbg.spill, metadata !1363, metadata !DIExpression()), !dbg !1366
  %_3 = bitcast { i32, i32 }* %self to i32*, !dbg !1367
  %_4 = getelementptr inbounds { i32, i32 }, { i32, i32 }* %self, i32 0, i32 1, !dbg !1368
; call core::cmp::impls::<impl core::cmp::PartialOrd for i32>::lt
  %_2 = call zeroext i1 @"_ZN4core3cmp5impls55_$LT$impl$u20$core..cmp..PartialOrd$u20$for$u20$i32$GT$2lt17h133a613cfd37860bE"(i32* align 4 %_3, i32* align 4 %_4), !dbg !1367
  br label %bb1, !dbg !1367

bb1:                                              ; preds = %start
  br i1 %_2, label %bb2, label %bb6, !dbg !1367

bb6:                                              ; preds = %bb1
  %1 = bitcast { i32, i32 }* %0 to i32*, !dbg !1369
  store i32 0, i32* %1, align 4, !dbg !1369
  br label %bb7, !dbg !1370

bb2:                                              ; preds = %bb1
  %_7 = bitcast { i32, i32 }* %self to i32*, !dbg !1371
; call core::clone::impls::<impl core::clone::Clone for i32>::clone
  %_6 = call i32 @"_ZN4core5clone5impls52_$LT$impl$u20$core..clone..Clone$u20$for$u20$i32$GT$5clone17hee669c77613d124fE"(i32* align 4 %_7), !dbg !1371
  br label %bb3, !dbg !1371

bb3:                                              ; preds = %bb2
; call <i32 as core::iter::range::Step>::forward_unchecked
  %n = call i32 @"_ZN47_$LT$i32$u20$as$u20$core..iter..range..Step$GT$17forward_unchecked17hb338384235ee35b1E"(i32 %_6, i64 1), !dbg !1372
  store i32 %n, i32* %n.dbg.spill, align 4, !dbg !1372
  call void @llvm.dbg.declare(metadata i32* %n.dbg.spill, metadata !1364, metadata !DIExpression()), !dbg !1373
  br label %bb4, !dbg !1372

bb4:                                              ; preds = %bb3
  %_10 = bitcast { i32, i32 }* %self to i32*, !dbg !1374
; call core::mem::replace
  %_8 = call i32 @_ZN4core3mem7replace17h63694cabc1c9f1edE(i32* align 4 %_10, i32 %n), !dbg !1375
  br label %bb5, !dbg !1375

bb5:                                              ; preds = %bb4
  %2 = getelementptr inbounds { i32, i32 }, { i32, i32 }* %0, i32 0, i32 1, !dbg !1376
  store i32 %_8, i32* %2, align 4, !dbg !1376
  %3 = bitcast { i32, i32 }* %0 to i32*, !dbg !1376
  store i32 1, i32* %3, align 4, !dbg !1376
  br label %bb7, !dbg !1370

bb7:                                              ; preds = %bb6, %bb5
  %4 = getelementptr inbounds { i32, i32 }, { i32, i32 }* %0, i32 0, i32 0, !dbg !1377
  %5 = load i32, i32* %4, align 4, !dbg !1377, !range !1378, !noundef !23
  %6 = getelementptr inbounds { i32, i32 }, { i32, i32 }* %0, i32 0, i32 1, !dbg !1377
  %7 = load i32, i32* %6, align 4, !dbg !1377
  %8 = insertvalue { i32, i32 } undef, i32 %5, 0, !dbg !1377
  %9 = insertvalue { i32, i32 } %8, i32 %7, 1, !dbg !1377
  ret { i32, i32 } %9, !dbg !1377
}

; <core::slice::iter::Iter<T> as core::iter::traits::iterator::Iterator>::next
; Function Attrs: inlinehint nonlazybind uwtable
define internal align 8 i64* @"_ZN91_$LT$core..slice..iter..Iter$LT$T$GT$$u20$as$u20$core..iter..traits..iterator..Iterator$GT$4next17h5167c7970715fb0eE"({ i64*, i64* }* align 8 %self) unnamed_addr #2 !dbg !1379 {
start:
  %self.dbg.spill26 = alloca i64*, align 8
  %0 = alloca i8*, align 8
  %self.dbg.spill24 = alloca i8*, align 8
  %ptr.dbg.spill = alloca double*, align 8
  %1 = alloca double*, align 8
  %self.dbg.spill22 = alloca double*, align 8
  %self.dbg.spill21 = alloca i64*, align 8
  %old.dbg.spill = alloca double*, align 8
  %self.dbg.spill19 = alloca i64*, align 8
  %self.dbg.spill17 = alloca { i64*, i64* }*, align 8
  %self.dbg.spill16 = alloca i64*, align 8
  %2 = alloca i8, align 1
  %other.dbg.spill14 = alloca i8*, align 8
  %data_address.dbg.spill12 = alloca {}*, align 8
  %3 = alloca {}*, align 8
  %self.dbg.spill10 = alloca i8*, align 8
  %self.dbg.spill8 = alloca double*, align 8
  %4 = alloca i8, align 1
  %other.dbg.spill = alloca i8*, align 8
  %data_address.dbg.spill = alloca {}*, align 8
  %5 = alloca {}*, align 8
  %self.dbg.spill6 = alloca i8*, align 8
  %self.dbg.spill4 = alloca double*, align 8
  %self.dbg.spill3 = alloca i64*, align 8
  %metadata.dbg.spill1 = alloca {}, align 1
  %metadata.dbg.spill = alloca {}, align 1
  %self.dbg.spill = alloca { i64*, i64* }*, align 8
  %_62 = alloca i64*, align 8
  %_47 = alloca %"core::ptr::metadata::PtrComponents<u8>", align 8
  %_46 = alloca %"core::ptr::metadata::PtrRepr<u8>", align 8
  %_30 = alloca %"core::ptr::metadata::PtrComponents<u8>", align 8
  %_29 = alloca %"core::ptr::metadata::PtrRepr<u8>", align 8
  %_19 = alloca double*, align 8
  %6 = alloca i64*, align 8
  store { i64*, i64* }* %self, { i64*, i64* }** %self.dbg.spill, align 8
  call void @llvm.dbg.declare(metadata { i64*, i64* }** %self.dbg.spill, metadata !1397, metadata !DIExpression()), !dbg !1398
  call void @llvm.dbg.declare(metadata {}* %metadata.dbg.spill, metadata !1399, metadata !DIExpression()), !dbg !1408
  call void @llvm.dbg.declare(metadata {}* %metadata.dbg.spill1, metadata !1424, metadata !DIExpression()), !dbg !1429
  %7 = bitcast { i64*, i64* }* %self to i64**, !dbg !1423
  %self2 = load i64*, i64** %7, align 8, !dbg !1423, !nonnull !23, !noundef !23
  store i64* %self2, i64** %self.dbg.spill3, align 8, !dbg !1423
  call void @llvm.dbg.declare(metadata i64** %self.dbg.spill3, metadata !1438, metadata !DIExpression()), !dbg !1444
  %_21 = bitcast i64* %self2 to double*, !dbg !1444
  store double* %_21, double** %self.dbg.spill4, align 8, !dbg !1444
  call void @llvm.dbg.declare(metadata double** %self.dbg.spill4, metadata !1421, metadata !DIExpression()), !dbg !1445
  %self5 = bitcast double* %_21 to i8*, !dbg !1445
  store i8* %self5, i8** %self.dbg.spill6, align 8, !dbg !1445
  call void @llvm.dbg.declare(metadata i8** %self.dbg.spill6, metadata !1446, metadata !DIExpression()), !dbg !1453
  %8 = bitcast {}** %5 to i64*, !dbg !1455
  store i64 0, i64* %8, align 8, !dbg !1455
  %data_address = load {}*, {}** %5, align 8, !dbg !1455
  store {}* %data_address, {}** %data_address.dbg.spill, align 8, !dbg !1455
  call void @llvm.dbg.declare(metadata {}** %data_address.dbg.spill, metadata !1407, metadata !DIExpression()), !dbg !1408
  br label %bb9, !dbg !1455

bb9:                                              ; preds = %start
  %9 = bitcast %"core::ptr::metadata::PtrComponents<u8>"* %_30 to {}**, !dbg !1408
  store {}* %data_address, {}** %9, align 8, !dbg !1408
  %10 = bitcast %"core::ptr::metadata::PtrRepr<u8>"* %_29 to %"core::ptr::metadata::PtrComponents<u8>"*, !dbg !1408
  %11 = bitcast %"core::ptr::metadata::PtrComponents<u8>"* %10 to i8*, !dbg !1408
  %12 = bitcast %"core::ptr::metadata::PtrComponents<u8>"* %_30 to i8*, !dbg !1408
  call void @llvm.memcpy.p0i8.p0i8.i64(i8* align 8 %11, i8* align 8 %12, i64 8, i1 false), !dbg !1408
  %13 = bitcast %"core::ptr::metadata::PtrRepr<u8>"* %_29 to i8**, !dbg !1408
  %other = load i8*, i8** %13, align 8, !dbg !1408
  store i8* %other, i8** %other.dbg.spill, align 8, !dbg !1408
  call void @llvm.dbg.declare(metadata i8** %other.dbg.spill, metadata !1452, metadata !DIExpression()), !dbg !1453
  %14 = icmp eq i8* %self5, %other, !dbg !1453
  %15 = zext i1 %14 to i8, !dbg !1453
  store i8 %15, i8* %4, align 1, !dbg !1453
  %16 = load i8, i8* %4, align 1, !dbg !1453, !range !460, !noundef !23
  %_4 = trunc i8 %16 to i1, !dbg !1453
  br label %bb10, !dbg !1453

bb10:                                             ; preds = %bb9
  %_3 = xor i1 %_4, true, !dbg !1463
  call void @llvm.assume(i1 %_3), !dbg !1464
  br label %bb1, !dbg !1464

bb1:                                              ; preds = %bb10
  br i1 false, label %bb4, label %bb2, !dbg !1465

bb4:                                              ; preds = %bb1
  br label %bb5, !dbg !1466

bb2:                                              ; preds = %bb1
  %17 = getelementptr inbounds { i64*, i64* }, { i64*, i64* }* %self, i32 0, i32 1, !dbg !1437
  %18 = bitcast i64** %17 to double**, !dbg !1437
  %self7 = load double*, double** %18, align 8, !dbg !1437
  store double* %self7, double** %self.dbg.spill8, align 8, !dbg !1437
  call void @llvm.dbg.declare(metadata double** %self.dbg.spill8, metadata !1435, metadata !DIExpression()), !dbg !1467
  %self9 = bitcast double* %self7 to i8*, !dbg !1467
  store i8* %self9, i8** %self.dbg.spill10, align 8, !dbg !1467
  call void @llvm.dbg.declare(metadata i8** %self.dbg.spill10, metadata !1468, metadata !DIExpression()), !dbg !1473
  %19 = bitcast {}** %3 to i64*, !dbg !1475
  store i64 0, i64* %19, align 8, !dbg !1475
  %data_address11 = load {}*, {}** %3, align 8, !dbg !1475
  store {}* %data_address11, {}** %data_address.dbg.spill12, align 8, !dbg !1475
  call void @llvm.dbg.declare(metadata {}** %data_address.dbg.spill12, metadata !1428, metadata !DIExpression()), !dbg !1429
  br label %bb11, !dbg !1475

bb11:                                             ; preds = %bb2
  %20 = bitcast %"core::ptr::metadata::PtrComponents<u8>"* %_47 to {}**, !dbg !1429
  store {}* %data_address11, {}** %20, align 8, !dbg !1429
  %21 = bitcast %"core::ptr::metadata::PtrRepr<u8>"* %_46 to %"core::ptr::metadata::PtrComponents<u8>"*, !dbg !1429
  %22 = bitcast %"core::ptr::metadata::PtrComponents<u8>"* %21 to i8*, !dbg !1429
  %23 = bitcast %"core::ptr::metadata::PtrComponents<u8>"* %_47 to i8*, !dbg !1429
  call void @llvm.memcpy.p0i8.p0i8.i64(i8* align 8 %22, i8* align 8 %23, i64 8, i1 false), !dbg !1429
  %24 = bitcast %"core::ptr::metadata::PtrRepr<u8>"* %_46 to i8**, !dbg !1429
  %other13 = load i8*, i8** %24, align 8, !dbg !1429
  store i8* %other13, i8** %other.dbg.spill14, align 8, !dbg !1429
  call void @llvm.dbg.declare(metadata i8** %other.dbg.spill14, metadata !1472, metadata !DIExpression()), !dbg !1473
  %25 = icmp eq i8* %self9, %other13, !dbg !1473
  %26 = zext i1 %25 to i8, !dbg !1473
  store i8 %26, i8* %2, align 1, !dbg !1473
  %27 = load i8, i8* %2, align 1, !dbg !1473, !range !460, !noundef !23
  %_10 = trunc i8 %27 to i1, !dbg !1473
  br label %bb12, !dbg !1473

bb12:                                             ; preds = %bb11
  %_9 = xor i1 %_10, true, !dbg !1481
  call void @llvm.assume(i1 %_9), !dbg !1482
  br label %bb3, !dbg !1482

bb3:                                              ; preds = %bb12
  br label %bb5, !dbg !1466

bb5:                                              ; preds = %bb4, %bb3
  %28 = bitcast { i64*, i64* }* %self to i64**, !dbg !1483
  %self15 = load i64*, i64** %28, align 8, !dbg !1483, !nonnull !23, !noundef !23
  store i64* %self15, i64** %self.dbg.spill16, align 8, !dbg !1483
  call void @llvm.dbg.declare(metadata i64** %self.dbg.spill16, metadata !1484, metadata !DIExpression()), !dbg !1488
  %_51 = bitcast i64* %self15 to double*, !dbg !1488
  %29 = getelementptr inbounds { i64*, i64* }, { i64*, i64* }* %self, i32 0, i32 1, !dbg !1483
  %30 = bitcast i64** %29 to double**, !dbg !1483
  %_16 = load double*, double** %30, align 8, !dbg !1483
  %_12 = icmp eq double* %_51, %_16, !dbg !1483
  br i1 %_12, label %bb6, label %bb7, !dbg !1483

bb7:                                              ; preds = %bb5
  store { i64*, i64* }* %self, { i64*, i64* }** %self.dbg.spill17, align 8, !dbg !1490
  call void @llvm.dbg.declare(metadata { i64*, i64* }** %self.dbg.spill17, metadata !1491, metadata !DIExpression()), !dbg !1499
  br i1 false, label %bb13, label %bb14, !dbg !1499

bb6:                                              ; preds = %bb5
  %31 = bitcast i64** %6 to {}**, !dbg !1501
  store {}* null, {}** %31, align 8, !dbg !1501
  br label %bb8, !dbg !1502

bb8:                                              ; preds = %bb15, %bb6
  %32 = load i64*, i64** %6, align 8, !dbg !1503, !align !144
  ret i64* %32, !dbg !1503

bb13:                                             ; preds = %bb7
  %33 = getelementptr inbounds { i64*, i64* }, { i64*, i64* }* %self, i32 0, i32 1, !dbg !1499
  %34 = bitcast i64** %33 to double**, !dbg !1499
  %_56 = load double*, double** %34, align 8, !dbg !1499
  %self23 = bitcast double* %_56 to i8*, !dbg !1499
  store i8* %self23, i8** %self.dbg.spill24, align 8, !dbg !1499
  call void @llvm.dbg.declare(metadata i8** %self.dbg.spill24, metadata !1504, metadata !DIExpression()), !dbg !1509
  %35 = getelementptr i8, i8* %self23, i64 -1, !dbg !1509
  store i8* %35, i8** %0, align 8, !dbg !1509
  %_54 = load i8*, i8** %0, align 8, !dbg !1509
  br label %bb16, !dbg !1509

bb14:                                             ; preds = %bb7
  %36 = bitcast { i64*, i64* }* %self to i64**, !dbg !1499
  %self18 = load i64*, i64** %36, align 8, !dbg !1499, !nonnull !23, !noundef !23
  store i64* %self18, i64** %self.dbg.spill19, align 8, !dbg !1499
  call void @llvm.dbg.declare(metadata i64** %self.dbg.spill19, metadata !1511, metadata !DIExpression()), !dbg !1515
  %_71 = bitcast i64* %self18 to double*, !dbg !1515
  store double* %_71, double** %old.dbg.spill, align 8, !dbg !1515
  call void @llvm.dbg.declare(metadata double** %old.dbg.spill, metadata !1497, metadata !DIExpression()), !dbg !1517
  %37 = bitcast { i64*, i64* }* %self to i64**, !dbg !1517
  %self20 = load i64*, i64** %37, align 8, !dbg !1517, !nonnull !23, !noundef !23
  store i64* %self20, i64** %self.dbg.spill21, align 8, !dbg !1517
  call void @llvm.dbg.declare(metadata i64** %self.dbg.spill21, metadata !1518, metadata !DIExpression()), !dbg !1522
  %_72 = bitcast i64* %self20 to double*, !dbg !1522
  store double* %_72, double** %self.dbg.spill22, align 8, !dbg !1522
  call void @llvm.dbg.declare(metadata double** %self.dbg.spill22, metadata !1524, metadata !DIExpression()), !dbg !1531
  %38 = getelementptr inbounds double, double* %_72, i64 1, !dbg !1531
  store double* %38, double** %1, align 8, !dbg !1531
  %_73 = load double*, double** %1, align 8, !dbg !1531
  br label %bb17, !dbg !1531

bb17:                                             ; preds = %bb14
  store double* %_73, double** %ptr.dbg.spill, align 8, !dbg !1531
  call void @llvm.dbg.declare(metadata double** %ptr.dbg.spill, metadata !1532, metadata !DIExpression()), !dbg !1536
  %39 = bitcast i64** %_62 to double**, !dbg !1536
  store double* %_73, double** %39, align 8, !dbg !1536
  %40 = bitcast { i64*, i64* }* %self to i64**, !dbg !1517
  %41 = load i64*, i64** %_62, align 8, !dbg !1517, !nonnull !23, !noundef !23
  store i64* %41, i64** %40, align 8, !dbg !1517
  store double* %_71, double** %_19, align 8, !dbg !1517
  br label %bb15, !dbg !1499

bb15:                                             ; preds = %bb16, %bb17
  %_18 = load double*, double** %_19, align 8, !dbg !1490
  %42 = bitcast i64** %6 to double**, !dbg !1538
  store double* %_18, double** %42, align 8, !dbg !1538
  br label %bb8, !dbg !1502

bb16:                                             ; preds = %bb13
  %43 = getelementptr inbounds { i64*, i64* }, { i64*, i64* }* %self, i32 0, i32 1, !dbg !1499
  %44 = bitcast i64** %43 to double**, !dbg !1499
  %45 = bitcast i8* %_54 to double*, !dbg !1499
  store double* %45, double** %44, align 8, !dbg !1499
  %46 = bitcast { i64*, i64* }* %self to i64**, !dbg !1499
  %self25 = load i64*, i64** %46, align 8, !dbg !1499, !nonnull !23, !noundef !23
  store i64* %self25, i64** %self.dbg.spill26, align 8, !dbg !1499
  call void @llvm.dbg.declare(metadata i64** %self.dbg.spill26, metadata !1539, metadata !DIExpression()), !dbg !1543
  %_70 = bitcast i64* %self25 to double*, !dbg !1543
  store double* %_70, double** %_19, align 8, !dbg !1499
  br label %bb15, !dbg !1499
}

; Function Attrs: nonlazybind uwtable
define dso_local i32 @rust_ffs(i32 %a) unnamed_addr #1 !dbg !1545 {
start:
  %0 = alloca i32, align 4
  %self.dbg.spill1.i = alloca i32, align 4
  %self.dbg.spill.i = alloca i32, align 4
  %a.dbg.spill = alloca i32, align 4
  %1 = alloca i32, align 4
  store i32 %a, i32* %a.dbg.spill, align 4
  call void @llvm.dbg.declare(metadata i32* %a.dbg.spill, metadata !1551, metadata !DIExpression()), !dbg !1552
  %2 = icmp eq i32 %a, 0, !dbg !1553
  br i1 %2, label %bb1, label %bb2, !dbg !1553

bb1:                                              ; preds = %start
  store i32 0, i32* %1, align 4, !dbg !1554
  br label %bb5, !dbg !1555

bb2:                                              ; preds = %start
  store i32 %a, i32* %self.dbg.spill.i, align 4
  call void @llvm.dbg.declare(metadata i32* %self.dbg.spill.i, metadata !1556, metadata !DIExpression()), !dbg !1561
  store i32 %a, i32* %self.dbg.spill1.i, align 4, !dbg !1563
  call void @llvm.dbg.declare(metadata i32* %self.dbg.spill1.i, metadata !1564, metadata !DIExpression()), !dbg !1571
  %3 = call i32 @llvm.cttz.i32(i32 %a, i1 false), !dbg !1571
  store i32 %3, i32* %0, align 4, !dbg !1571
  %4 = load i32, i32* %0, align 4, !dbg !1571
  br label %bb3, !dbg !1573

bb3:                                              ; preds = %bb2
  %5 = call { i32, i1 } @llvm.sadd.with.overflow.i32(i32 %4, i32 1), !dbg !1573
  %_6.0 = extractvalue { i32, i1 } %5, 0, !dbg !1573
  %_6.1 = extractvalue { i32, i1 } %5, 1, !dbg !1573
  %6 = call i1 @llvm.expect.i1(i1 %_6.1, i1 false), !dbg !1573
  br i1 %6, label %panic, label %bb4, !dbg !1573

bb4:                                              ; preds = %bb3
  store i32 %_6.0, i32* %1, align 4, !dbg !1573
  br label %bb5, !dbg !1555

panic:                                            ; preds = %bb3
; call core::panicking::panic
  call void @_ZN4core9panicking5panic17hf5844c0338bd061cE([0 x i8]* align 1 bitcast ([28 x i8]* @str.4 to [0 x i8]*), i64 28, %"core::panic::location::Location"* align 8 bitcast (<{ i8*, [16 x i8] }>* @alloc277 to %"core::panic::location::Location"*)) #12, !dbg !1573
  unreachable, !dbg !1573

bb5:                                              ; preds = %bb1, %bb4
  %7 = load i32, i32* %1, align 4, !dbg !1574
  ret i32 %7, !dbg !1574
}

; Function Attrs: nonlazybind uwtable
define dso_local i32 @rust_ffsl(i64 %a) unnamed_addr #1 !dbg !1575 {
start:
  %0 = alloca i64, align 8
  %self.dbg.spill1.i = alloca i64, align 8
  %self.dbg.spill.i = alloca i64, align 8
  %a.dbg.spill = alloca i64, align 8
  %1 = alloca i32, align 4
  store i64 %a, i64* %a.dbg.spill, align 8
  call void @llvm.dbg.declare(metadata i64* %a.dbg.spill, metadata !1580, metadata !DIExpression()), !dbg !1581
  %2 = icmp eq i64 %a, 0, !dbg !1582
  br i1 %2, label %bb1, label %bb2, !dbg !1582

bb1:                                              ; preds = %start
  store i32 0, i32* %1, align 4, !dbg !1583
  br label %bb5, !dbg !1584

bb2:                                              ; preds = %start
  store i64 %a, i64* %self.dbg.spill.i, align 8
  call void @llvm.dbg.declare(metadata i64* %self.dbg.spill.i, metadata !1585, metadata !DIExpression()), !dbg !1591
  store i64 %a, i64* %self.dbg.spill1.i, align 8, !dbg !1593
  call void @llvm.dbg.declare(metadata i64* %self.dbg.spill1.i, metadata !1594, metadata !DIExpression()), !dbg !1601
  %3 = call i64 @llvm.cttz.i64(i64 %a, i1 false), !dbg !1601
  store i64 %3, i64* %0, align 8, !dbg !1601
  %_4.i = load i64, i64* %0, align 8, !dbg !1601
  %4 = trunc i64 %_4.i to i32, !dbg !1601
  br label %bb3, !dbg !1603

bb3:                                              ; preds = %bb2
  %5 = call { i32, i1 } @llvm.sadd.with.overflow.i32(i32 %4, i32 1), !dbg !1603
  %_6.0 = extractvalue { i32, i1 } %5, 0, !dbg !1603
  %_6.1 = extractvalue { i32, i1 } %5, 1, !dbg !1603
  %6 = call i1 @llvm.expect.i1(i1 %_6.1, i1 false), !dbg !1603
  br i1 %6, label %panic, label %bb4, !dbg !1603

bb4:                                              ; preds = %bb3
  store i32 %_6.0, i32* %1, align 4, !dbg !1603
  br label %bb5, !dbg !1584

panic:                                            ; preds = %bb3
; call core::panicking::panic
  call void @_ZN4core9panicking5panic17hf5844c0338bd061cE([0 x i8]* align 1 bitcast ([28 x i8]* @str.4 to [0 x i8]*), i64 28, %"core::panic::location::Location"* align 8 bitcast (<{ i8*, [16 x i8] }>* @alloc279 to %"core::panic::location::Location"*)) #12, !dbg !1603
  unreachable, !dbg !1603

bb5:                                              ; preds = %bb1, %bb4
  %7 = load i32, i32* %1, align 4, !dbg !1604
  ret i32 %7, !dbg !1604
}

; Function Attrs: nonlazybind uwtable
define dso_local i32 @rust_ffsll(i64 %a) unnamed_addr #1 !dbg !1605 {
start:
  %0 = alloca i64, align 8
  %self.dbg.spill1.i = alloca i64, align 8
  %self.dbg.spill.i = alloca i64, align 8
  %a.dbg.spill = alloca i64, align 8
  %1 = alloca i32, align 4
  store i64 %a, i64* %a.dbg.spill, align 8
  call void @llvm.dbg.declare(metadata i64* %a.dbg.spill, metadata !1607, metadata !DIExpression()), !dbg !1608
  %2 = icmp eq i64 %a, 0, !dbg !1609
  br i1 %2, label %bb1, label %bb2, !dbg !1609

bb1:                                              ; preds = %start
  store i32 0, i32* %1, align 4, !dbg !1610
  br label %bb5, !dbg !1611

bb2:                                              ; preds = %start
  store i64 %a, i64* %self.dbg.spill.i, align 8
  call void @llvm.dbg.declare(metadata i64* %self.dbg.spill.i, metadata !1585, metadata !DIExpression()), !dbg !1612
  store i64 %a, i64* %self.dbg.spill1.i, align 8, !dbg !1614
  call void @llvm.dbg.declare(metadata i64* %self.dbg.spill1.i, metadata !1594, metadata !DIExpression()), !dbg !1615
  %3 = call i64 @llvm.cttz.i64(i64 %a, i1 false), !dbg !1615
  store i64 %3, i64* %0, align 8, !dbg !1615
  %_4.i = load i64, i64* %0, align 8, !dbg !1615
  %4 = trunc i64 %_4.i to i32, !dbg !1615
  br label %bb3, !dbg !1617

bb3:                                              ; preds = %bb2
  %5 = call { i32, i1 } @llvm.sadd.with.overflow.i32(i32 %4, i32 1), !dbg !1617
  %_6.0 = extractvalue { i32, i1 } %5, 0, !dbg !1617
  %_6.1 = extractvalue { i32, i1 } %5, 1, !dbg !1617
  %6 = call i1 @llvm.expect.i1(i1 %_6.1, i1 false), !dbg !1617
  br i1 %6, label %panic, label %bb4, !dbg !1617

bb4:                                              ; preds = %bb3
  store i32 %_6.0, i32* %1, align 4, !dbg !1617
  br label %bb5, !dbg !1611

panic:                                            ; preds = %bb3
; call core::panicking::panic
  call void @_ZN4core9panicking5panic17hf5844c0338bd061cE([0 x i8]* align 1 bitcast ([28 x i8]* @str.4 to [0 x i8]*), i64 28, %"core::panic::location::Location"* align 8 bitcast (<{ i8*, [16 x i8] }>* @alloc281 to %"core::panic::location::Location"*)) #12, !dbg !1617
  unreachable, !dbg !1617

bb5:                                              ; preds = %bb1, %bb4
  %7 = load i32, i32* %1, align 4, !dbg !1618
  ret i32 %7, !dbg !1618
}

; Function Attrs: nonlazybind uwtable
define dso_local i32 @rust_isfinite(double %a) unnamed_addr #1 !dbg !1619 {
start:
  %a.dbg.spill = alloca double, align 8
  store double %a, double* %a.dbg.spill, align 8
  call void @llvm.dbg.declare(metadata double* %a.dbg.spill, metadata !1623, metadata !DIExpression()), !dbg !1624
; call core::f64::<impl f64>::is_finite
  %_2 = call zeroext i1 @"_ZN4core3f6421_$LT$impl$u20$f64$GT$9is_finite17hb16350ab710f8936E"(double %a), !dbg !1625
  br label %bb1, !dbg !1625

bb1:                                              ; preds = %start
  %0 = zext i1 %_2 to i32, !dbg !1625
  ret i32 %0, !dbg !1626
}

; Function Attrs: nonlazybind uwtable
define dso_local i32 @rust_isnan(double %a) unnamed_addr #1 !dbg !1627 {
start:
  %a.dbg.spill = alloca double, align 8
  store double %a, double* %a.dbg.spill, align 8
  call void @llvm.dbg.declare(metadata double* %a.dbg.spill, metadata !1629, metadata !DIExpression()), !dbg !1630
; call core::f64::<impl f64>::is_nan
  %_2 = call zeroext i1 @"_ZN4core3f6421_$LT$impl$u20$f64$GT$6is_nan17h3d1205a72f351995E"(double %a), !dbg !1631
  br label %bb1, !dbg !1631

bb1:                                              ; preds = %start
  %0 = zext i1 %_2 to i32, !dbg !1631
  ret i32 %0, !dbg !1632
}

; Function Attrs: nonlazybind uwtable
define dso_local i32 @rust_isinf_sign(double %a) unnamed_addr #1 !dbg !1633 {
start:
  %a.dbg.spill = alloca double, align 8
  %0 = alloca i32, align 4
  store double %a, double* %a.dbg.spill, align 8
  call void @llvm.dbg.declare(metadata double* %a.dbg.spill, metadata !1635, metadata !DIExpression()), !dbg !1636
; call core::f64::<impl f64>::is_infinite
  %_2 = call zeroext i1 @"_ZN4core3f6421_$LT$impl$u20$f64$GT$11is_infinite17hf53a56ab45e2ce57E"(double %a), !dbg !1637
  br label %bb1, !dbg !1637

bb1:                                              ; preds = %start
  br i1 %_2, label %bb2, label %bb6, !dbg !1637

bb6:                                              ; preds = %bb1
  store i32 0, i32* %0, align 4, !dbg !1638
  br label %bb7, !dbg !1639

bb2:                                              ; preds = %bb1
; call core::f64::<impl f64>::is_sign_positive
  %_4 = call zeroext i1 @"_ZN4core3f6421_$LT$impl$u20$f64$GT$16is_sign_positive17h399d3f3f2dbfd242E"(double %a), !dbg !1640
  br label %bb3, !dbg !1640

bb3:                                              ; preds = %bb2
  br i1 %_4, label %bb4, label %bb5, !dbg !1640

bb5:                                              ; preds = %bb3
  store i32 -1, i32* %0, align 4, !dbg !1641
  br label %bb7, !dbg !1642

bb4:                                              ; preds = %bb3
  store i32 1, i32* %0, align 4, !dbg !1643
  br label %bb7, !dbg !1642

bb7:                                              ; preds = %bb6, %bb5, %bb4
  %1 = load i32, i32* %0, align 4, !dbg !1644
  ret i32 %1, !dbg !1644
}

; Function Attrs: nonlazybind uwtable
define dso_local void @rust_atomics_entry(i32 %buffer_size, i32* %buffer) unnamed_addr #1 !dbg !1645 {
start:
  %0 = alloca i32*, align 8
  %count.dbg.spill.i125 = alloca i64, align 8
  %self.dbg.spill.i126 = alloca i32*, align 8
  %1 = alloca i32*, align 8
  %count.dbg.spill.i122 = alloca i64, align 8
  %self.dbg.spill.i123 = alloca i32*, align 8
  %2 = alloca i32*, align 8
  %count.dbg.spill.i119 = alloca i64, align 8
  %self.dbg.spill.i120 = alloca i32*, align 8
  %3 = alloca i32*, align 8
  %count.dbg.spill.i116 = alloca i64, align 8
  %self.dbg.spill.i117 = alloca i32*, align 8
  %4 = alloca i32*, align 8
  %count.dbg.spill.i113 = alloca i64, align 8
  %self.dbg.spill.i114 = alloca i32*, align 8
  %5 = alloca i32*, align 8
  %count.dbg.spill.i110 = alloca i64, align 8
  %self.dbg.spill.i111 = alloca i32*, align 8
  %6 = alloca i32*, align 8
  %count.dbg.spill.i107 = alloca i64, align 8
  %self.dbg.spill.i108 = alloca i32*, align 8
  %7 = alloca i32*, align 8
  %count.dbg.spill.i104 = alloca i64, align 8
  %self.dbg.spill.i105 = alloca i32*, align 8
  %8 = alloca i32*, align 8
  %count.dbg.spill.i101 = alloca i64, align 8
  %self.dbg.spill.i102 = alloca i32*, align 8
  %9 = alloca i32*, align 8
  %count.dbg.spill.i98 = alloca i64, align 8
  %self.dbg.spill.i99 = alloca i32*, align 8
  %10 = alloca i32*, align 8
  %count.dbg.spill.i95 = alloca i64, align 8
  %self.dbg.spill.i96 = alloca i32*, align 8
  %11 = alloca i32*, align 8
  %count.dbg.spill.i92 = alloca i64, align 8
  %self.dbg.spill.i93 = alloca i32*, align 8
  %12 = alloca i32*, align 8
  %count.dbg.spill.i89 = alloca i64, align 8
  %self.dbg.spill.i90 = alloca i32*, align 8
  %13 = alloca i32*, align 8
  %count.dbg.spill.i86 = alloca i64, align 8
  %self.dbg.spill.i87 = alloca i32*, align 8
  %14 = alloca i32*, align 8
  %count.dbg.spill.i83 = alloca i64, align 8
  %self.dbg.spill.i84 = alloca i32*, align 8
  %15 = alloca i32*, align 8
  %count.dbg.spill.i80 = alloca i64, align 8
  %self.dbg.spill.i81 = alloca i32*, align 8
  %16 = alloca i32*, align 8
  %count.dbg.spill.i77 = alloca i64, align 8
  %self.dbg.spill.i78 = alloca i32*, align 8
  %17 = alloca i32*, align 8
  %count.dbg.spill.i74 = alloca i64, align 8
  %self.dbg.spill.i75 = alloca i32*, align 8
  %18 = alloca i32*, align 8
  %count.dbg.spill.i71 = alloca i64, align 8
  %self.dbg.spill.i72 = alloca i32*, align 8
  %19 = alloca i32*, align 8
  %count.dbg.spill.i68 = alloca i64, align 8
  %self.dbg.spill.i69 = alloca i32*, align 8
  %20 = alloca i32*, align 8
  %count.dbg.spill.i65 = alloca i64, align 8
  %self.dbg.spill.i66 = alloca i32*, align 8
  %21 = alloca i32*, align 8
  %count.dbg.spill.i62 = alloca i64, align 8
  %self.dbg.spill.i63 = alloca i32*, align 8
  %22 = alloca i32*, align 8
  %count.dbg.spill.i59 = alloca i64, align 8
  %self.dbg.spill.i60 = alloca i32*, align 8
  %23 = alloca i32*, align 8
  %count.dbg.spill.i56 = alloca i64, align 8
  %self.dbg.spill.i57 = alloca i32*, align 8
  %24 = alloca i32*, align 8
  %count.dbg.spill.i53 = alloca i64, align 8
  %self.dbg.spill.i54 = alloca i32*, align 8
  %25 = alloca i32*, align 8
  %count.dbg.spill.i50 = alloca i64, align 8
  %self.dbg.spill.i51 = alloca i32*, align 8
  %26 = alloca i32*, align 8
  %count.dbg.spill.i47 = alloca i64, align 8
  %self.dbg.spill.i48 = alloca i32*, align 8
  %27 = alloca i32*, align 8
  %count.dbg.spill.i44 = alloca i64, align 8
  %self.dbg.spill.i45 = alloca i32*, align 8
  %28 = alloca i32*, align 8
  %count.dbg.spill.i41 = alloca i64, align 8
  %self.dbg.spill.i42 = alloca i32*, align 8
  %29 = alloca i32*, align 8
  %count.dbg.spill.i38 = alloca i64, align 8
  %self.dbg.spill.i39 = alloca i32*, align 8
  %30 = alloca i32*, align 8
  %count.dbg.spill.i35 = alloca i64, align 8
  %self.dbg.spill.i36 = alloca i32*, align 8
  %31 = alloca i32*, align 8
  %count.dbg.spill.i = alloca i64, align 8
  %self.dbg.spill.i = alloca i32*, align 8
  %fresh43.dbg.spill = alloca i32, align 4
  %fresh42.dbg.spill = alloca i32, align 4
  %32 = alloca i32, align 4
  %fresh41.dbg.spill = alloca i32, align 4
  %fresh40.dbg.spill = alloca i32, align 4
  %33 = alloca { i32, i8 }, align 4
  %fresh39.dbg.spill = alloca i32, align 4
  %fresh38.dbg.spill = alloca i32, align 4
  %34 = alloca { i32, i8 }, align 4
  %fresh37.dbg.spill = alloca i32, align 4
  %fresh36.dbg.spill = alloca i32, align 4
  %fresh35.dbg.spill = alloca i32, align 4
  %35 = alloca i32, align 4
  %fresh34.dbg.spill = alloca i32, align 4
  %fresh33.dbg.spill = alloca i32, align 4
  %fresh32.dbg.spill = alloca i32*, align 8
  %fresh31.dbg.spill = alloca i32, align 4
  %36 = alloca i32, align 4
  %fresh30.dbg.spill = alloca i32, align 4
  %fresh29.dbg.spill = alloca i32, align 4
  %fresh28.dbg.spill = alloca i32*, align 8
  %fresh27.dbg.spill = alloca i32, align 4
  %37 = alloca i32, align 4
  %fresh26.dbg.spill = alloca i32, align 4
  %fresh25.dbg.spill = alloca i32, align 4
  %fresh24.dbg.spill = alloca i32*, align 8
  %fresh23.dbg.spill = alloca i32, align 4
  %38 = alloca i32, align 4
  %fresh22.dbg.spill = alloca i32, align 4
  %fresh21.dbg.spill = alloca i32, align 4
  %fresh20.dbg.spill = alloca i32*, align 8
  %fresh19.dbg.spill = alloca i32, align 4
  %39 = alloca i32, align 4
  %fresh18.dbg.spill = alloca i32, align 4
  %fresh17.dbg.spill = alloca i32, align 4
  %fresh16.dbg.spill = alloca i32*, align 8
  %fresh15.dbg.spill = alloca i32, align 4
  %40 = alloca i32, align 4
  %fresh14.dbg.spill = alloca i32, align 4
  %fresh13.dbg.spill = alloca i32, align 4
  %fresh12.dbg.spill = alloca i32*, align 8
  %fresh11.dbg.spill = alloca i32, align 4
  %41 = alloca i32, align 4
  %fresh10.dbg.spill = alloca i32, align 4
  %fresh9.dbg.spill = alloca i32, align 4
  %42 = alloca i32, align 4
  %fresh8.dbg.spill = alloca i32, align 4
  %fresh7.dbg.spill = alloca i32, align 4
  %43 = alloca i32, align 4
  %fresh6.dbg.spill = alloca i32, align 4
  %fresh5.dbg.spill = alloca i32, align 4
  %44 = alloca i32, align 4
  %fresh4.dbg.spill = alloca i32, align 4
  %fresh3.dbg.spill = alloca i32, align 4
  %45 = alloca i32, align 4
  %fresh2.dbg.spill = alloca i32, align 4
  %fresh1.dbg.spill = alloca i32, align 4
  %46 = alloca i32, align 4
  %fresh0.dbg.spill = alloca i32, align 4
  %buffer.dbg.spill = alloca i32*, align 8
  %buffer_size.dbg.spill = alloca i32, align 4
  %x_1 = alloca i32, align 4
  %x_0 = alloca i32, align 4
  %x = alloca i32, align 4
  %i = alloca i32, align 4
  store i32 %buffer_size, i32* %buffer_size.dbg.spill, align 4
  call void @llvm.dbg.declare(metadata i32* %buffer_size.dbg.spill, metadata !1651, metadata !DIExpression()), !dbg !1749
  store i32* %buffer, i32** %buffer.dbg.spill, align 8
  call void @llvm.dbg.declare(metadata i32** %buffer.dbg.spill, metadata !1652, metadata !DIExpression()), !dbg !1750
  call void @llvm.dbg.declare(metadata i32* %i, metadata !1653, metadata !DIExpression()), !dbg !1751
  call void @llvm.dbg.declare(metadata i32* %x, metadata !1655, metadata !DIExpression()), !dbg !1752
  call void @llvm.dbg.declare(metadata i32* %x_0, metadata !1731, metadata !DIExpression()), !dbg !1753
  call void @llvm.dbg.declare(metadata i32* %x_1, metadata !1737, metadata !DIExpression()), !dbg !1754
  store i32 0, i32* %i, align 4, !dbg !1755
  store i32 34, i32* %x, align 4, !dbg !1756
  store i32 0, i32* %fresh0.dbg.spill, align 4, !dbg !1757
  call void @llvm.dbg.declare(metadata i32* %fresh0.dbg.spill, metadata !1657, metadata !DIExpression()), !dbg !1758
  store i32 1, i32* %i, align 4, !dbg !1759
  %47 = atomicrmw add i32* %x, i32 55 seq_cst, align 4, !dbg !1760
  store i32 %47, i32* %46, align 4, !dbg !1760
  %_6 = load i32, i32* %46, align 4, !dbg !1760
  br label %bb1, !dbg !1760

bb1:                                              ; preds = %start
  store i32* %buffer, i32** %self.dbg.spill.i126, align 8
  call void @llvm.dbg.declare(metadata i32** %self.dbg.spill.i126, metadata !1761, metadata !DIExpression()), !dbg !1767
  store i64 0, i64* %count.dbg.spill.i125, align 8
  call void @llvm.dbg.declare(metadata i64* %count.dbg.spill.i125, metadata !1766, metadata !DIExpression()), !dbg !1769
  store i32* %buffer, i32** %0, align 8, !dbg !1770
  %_3.i127 = load i32*, i32** %0, align 8, !dbg !1770
  br label %bb2, !dbg !1771

bb2:                                              ; preds = %bb1
  store i32 %_6, i32* %_3.i127, align 4, !dbg !1772
  %fresh1 = load i32, i32* %i, align 4, !dbg !1773
  store i32 %fresh1, i32* %fresh1.dbg.spill, align 4, !dbg !1773
  call void @llvm.dbg.declare(metadata i32* %fresh1.dbg.spill, metadata !1659, metadata !DIExpression()), !dbg !1774
  %_15 = load i32, i32* %i, align 4, !dbg !1775
  %48 = call { i32, i1 } @llvm.sadd.with.overflow.i32(i32 %_15, i32 1), !dbg !1775
  %_16.0 = extractvalue { i32, i1 } %48, 0, !dbg !1775
  %_16.1 = extractvalue { i32, i1 } %48, 1, !dbg !1775
  %49 = call i1 @llvm.expect.i1(i1 %_16.1, i1 false), !dbg !1775
  br i1 %49, label %panic, label %bb3, !dbg !1775

bb3:                                              ; preds = %bb2
  store i32 %_16.0, i32* %i, align 4, !dbg !1776
  %_17 = load i32, i32* %x, align 4, !dbg !1777
  %_20 = sext i32 %fresh1 to i64, !dbg !1778
  store i32* %buffer, i32** %self.dbg.spill.i123, align 8
  call void @llvm.dbg.declare(metadata i32** %self.dbg.spill.i123, metadata !1761, metadata !DIExpression()), !dbg !1779
  store i64 %_20, i64* %count.dbg.spill.i122, align 8
  call void @llvm.dbg.declare(metadata i64* %count.dbg.spill.i122, metadata !1766, metadata !DIExpression()), !dbg !1781
  %50 = getelementptr inbounds i32, i32* %buffer, i64 %_20, !dbg !1782
  store i32* %50, i32** %1, align 8, !dbg !1782
  %_3.i124 = load i32*, i32** %1, align 8, !dbg !1782
  br label %bb4, !dbg !1783

panic:                                            ; preds = %bb2
; call core::panicking::panic
  call void @_ZN4core9panicking5panic17hf5844c0338bd061cE([0 x i8]* align 1 bitcast ([28 x i8]* @str.4 to [0 x i8]*), i64 28, %"core::panic::location::Location"* align 8 bitcast (<{ i8*, [16 x i8] }>* @alloc283 to %"core::panic::location::Location"*)) #12, !dbg !1775
  unreachable, !dbg !1775

bb4:                                              ; preds = %bb3
  store i32 %_17, i32* %_3.i124, align 4, !dbg !1784
  %fresh2 = load i32, i32* %i, align 4, !dbg !1785
  store i32 %fresh2, i32* %fresh2.dbg.spill, align 4, !dbg !1785
  call void @llvm.dbg.declare(metadata i32* %fresh2.dbg.spill, metadata !1661, metadata !DIExpression()), !dbg !1786
  %_23 = load i32, i32* %i, align 4, !dbg !1787
  %51 = call { i32, i1 } @llvm.sadd.with.overflow.i32(i32 %_23, i32 1), !dbg !1787
  %_24.0 = extractvalue { i32, i1 } %51, 0, !dbg !1787
  %_24.1 = extractvalue { i32, i1 } %51, 1, !dbg !1787
  %52 = call i1 @llvm.expect.i1(i1 %_24.1, i1 false), !dbg !1787
  br i1 %52, label %panic1, label %bb5, !dbg !1787

bb5:                                              ; preds = %bb4
  store i32 %_24.0, i32* %i, align 4, !dbg !1788
  %53 = atomicrmw sub i32* %x, i32 17 seq_cst, align 4, !dbg !1789
  store i32 %53, i32* %45, align 4, !dbg !1789
  %_25 = load i32, i32* %45, align 4, !dbg !1789
  br label %bb6, !dbg !1789

panic1:                                           ; preds = %bb4
; call core::panicking::panic
  call void @_ZN4core9panicking5panic17hf5844c0338bd061cE([0 x i8]* align 1 bitcast ([28 x i8]* @str.4 to [0 x i8]*), i64 28, %"core::panic::location::Location"* align 8 bitcast (<{ i8*, [16 x i8] }>* @alloc285 to %"core::panic::location::Location"*)) #12, !dbg !1787
  unreachable, !dbg !1787

bb6:                                              ; preds = %bb5
  %_31 = sext i32 %fresh2 to i64, !dbg !1790
  store i32* %buffer, i32** %self.dbg.spill.i120, align 8
  call void @llvm.dbg.declare(metadata i32** %self.dbg.spill.i120, metadata !1761, metadata !DIExpression()), !dbg !1791
  store i64 %_31, i64* %count.dbg.spill.i119, align 8
  call void @llvm.dbg.declare(metadata i64* %count.dbg.spill.i119, metadata !1766, metadata !DIExpression()), !dbg !1793
  %54 = getelementptr inbounds i32, i32* %buffer, i64 %_31, !dbg !1794
  store i32* %54, i32** %2, align 8, !dbg !1794
  %_3.i121 = load i32*, i32** %2, align 8, !dbg !1794
  br label %bb7, !dbg !1795

bb7:                                              ; preds = %bb6
  store i32 %_25, i32* %_3.i121, align 4, !dbg !1796
  %fresh3 = load i32, i32* %i, align 4, !dbg !1797
  store i32 %fresh3, i32* %fresh3.dbg.spill, align 4, !dbg !1797
  call void @llvm.dbg.declare(metadata i32* %fresh3.dbg.spill, metadata !1663, metadata !DIExpression()), !dbg !1798
  %_34 = load i32, i32* %i, align 4, !dbg !1799
  %55 = call { i32, i1 } @llvm.sadd.with.overflow.i32(i32 %_34, i32 1), !dbg !1799
  %_35.0 = extractvalue { i32, i1 } %55, 0, !dbg !1799
  %_35.1 = extractvalue { i32, i1 } %55, 1, !dbg !1799
  %56 = call i1 @llvm.expect.i1(i1 %_35.1, i1 false), !dbg !1799
  br i1 %56, label %panic2, label %bb8, !dbg !1799

bb8:                                              ; preds = %bb7
  store i32 %_35.0, i32* %i, align 4, !dbg !1800
  %_36 = load i32, i32* %x, align 4, !dbg !1801
  %_39 = sext i32 %fresh3 to i64, !dbg !1802
  store i32* %buffer, i32** %self.dbg.spill.i117, align 8
  call void @llvm.dbg.declare(metadata i32** %self.dbg.spill.i117, metadata !1761, metadata !DIExpression()), !dbg !1803
  store i64 %_39, i64* %count.dbg.spill.i116, align 8
  call void @llvm.dbg.declare(metadata i64* %count.dbg.spill.i116, metadata !1766, metadata !DIExpression()), !dbg !1805
  %57 = getelementptr inbounds i32, i32* %buffer, i64 %_39, !dbg !1806
  store i32* %57, i32** %3, align 8, !dbg !1806
  %_3.i118 = load i32*, i32** %3, align 8, !dbg !1806
  br label %bb9, !dbg !1807

panic2:                                           ; preds = %bb7
; call core::panicking::panic
  call void @_ZN4core9panicking5panic17hf5844c0338bd061cE([0 x i8]* align 1 bitcast ([28 x i8]* @str.4 to [0 x i8]*), i64 28, %"core::panic::location::Location"* align 8 bitcast (<{ i8*, [16 x i8] }>* @alloc287 to %"core::panic::location::Location"*)) #12, !dbg !1799
  unreachable, !dbg !1799

bb9:                                              ; preds = %bb8
  store i32 %_36, i32* %_3.i118, align 4, !dbg !1808
  %fresh4 = load i32, i32* %i, align 4, !dbg !1809
  store i32 %fresh4, i32* %fresh4.dbg.spill, align 4, !dbg !1809
  call void @llvm.dbg.declare(metadata i32* %fresh4.dbg.spill, metadata !1665, metadata !DIExpression()), !dbg !1810
  %_42 = load i32, i32* %i, align 4, !dbg !1811
  %58 = call { i32, i1 } @llvm.sadd.with.overflow.i32(i32 %_42, i32 1), !dbg !1811
  %_43.0 = extractvalue { i32, i1 } %58, 0, !dbg !1811
  %_43.1 = extractvalue { i32, i1 } %58, 1, !dbg !1811
  %59 = call i1 @llvm.expect.i1(i1 %_43.1, i1 false), !dbg !1811
  br i1 %59, label %panic3, label %bb10, !dbg !1811

bb10:                                             ; preds = %bb9
  store i32 %_43.0, i32* %i, align 4, !dbg !1812
  %60 = atomicrmw or i32* %x, i32 128 seq_cst, align 4, !dbg !1813
  store i32 %60, i32* %44, align 4, !dbg !1813
  %_44 = load i32, i32* %44, align 4, !dbg !1813
  br label %bb11, !dbg !1813

panic3:                                           ; preds = %bb9
; call core::panicking::panic
  call void @_ZN4core9panicking5panic17hf5844c0338bd061cE([0 x i8]* align 1 bitcast ([28 x i8]* @str.4 to [0 x i8]*), i64 28, %"core::panic::location::Location"* align 8 bitcast (<{ i8*, [16 x i8] }>* @alloc289 to %"core::panic::location::Location"*)) #12, !dbg !1811
  unreachable, !dbg !1811

bb11:                                             ; preds = %bb10
  %_50 = sext i32 %fresh4 to i64, !dbg !1814
  store i32* %buffer, i32** %self.dbg.spill.i114, align 8
  call void @llvm.dbg.declare(metadata i32** %self.dbg.spill.i114, metadata !1761, metadata !DIExpression()), !dbg !1815
  store i64 %_50, i64* %count.dbg.spill.i113, align 8
  call void @llvm.dbg.declare(metadata i64* %count.dbg.spill.i113, metadata !1766, metadata !DIExpression()), !dbg !1817
  %61 = getelementptr inbounds i32, i32* %buffer, i64 %_50, !dbg !1818
  store i32* %61, i32** %4, align 8, !dbg !1818
  %_3.i115 = load i32*, i32** %4, align 8, !dbg !1818
  br label %bb12, !dbg !1819

bb12:                                             ; preds = %bb11
  store i32 %_44, i32* %_3.i115, align 4, !dbg !1820
  %fresh5 = load i32, i32* %i, align 4, !dbg !1821
  store i32 %fresh5, i32* %fresh5.dbg.spill, align 4, !dbg !1821
  call void @llvm.dbg.declare(metadata i32* %fresh5.dbg.spill, metadata !1667, metadata !DIExpression()), !dbg !1822
  %_53 = load i32, i32* %i, align 4, !dbg !1823
  %62 = call { i32, i1 } @llvm.sadd.with.overflow.i32(i32 %_53, i32 1), !dbg !1823
  %_54.0 = extractvalue { i32, i1 } %62, 0, !dbg !1823
  %_54.1 = extractvalue { i32, i1 } %62, 1, !dbg !1823
  %63 = call i1 @llvm.expect.i1(i1 %_54.1, i1 false), !dbg !1823
  br i1 %63, label %panic4, label %bb13, !dbg !1823

bb13:                                             ; preds = %bb12
  store i32 %_54.0, i32* %i, align 4, !dbg !1824
  %_55 = load i32, i32* %x, align 4, !dbg !1825
  %_58 = sext i32 %fresh5 to i64, !dbg !1826
  store i32* %buffer, i32** %self.dbg.spill.i111, align 8
  call void @llvm.dbg.declare(metadata i32** %self.dbg.spill.i111, metadata !1761, metadata !DIExpression()), !dbg !1827
  store i64 %_58, i64* %count.dbg.spill.i110, align 8
  call void @llvm.dbg.declare(metadata i64* %count.dbg.spill.i110, metadata !1766, metadata !DIExpression()), !dbg !1829
  %64 = getelementptr inbounds i32, i32* %buffer, i64 %_58, !dbg !1830
  store i32* %64, i32** %5, align 8, !dbg !1830
  %_3.i112 = load i32*, i32** %5, align 8, !dbg !1830
  br label %bb14, !dbg !1831

panic4:                                           ; preds = %bb12
; call core::panicking::panic
  call void @_ZN4core9panicking5panic17hf5844c0338bd061cE([0 x i8]* align 1 bitcast ([28 x i8]* @str.4 to [0 x i8]*), i64 28, %"core::panic::location::Location"* align 8 bitcast (<{ i8*, [16 x i8] }>* @alloc291 to %"core::panic::location::Location"*)) #12, !dbg !1823
  unreachable, !dbg !1823

bb14:                                             ; preds = %bb13
  store i32 %_55, i32* %_3.i112, align 4, !dbg !1832
  %fresh6 = load i32, i32* %i, align 4, !dbg !1833
  store i32 %fresh6, i32* %fresh6.dbg.spill, align 4, !dbg !1833
  call void @llvm.dbg.declare(metadata i32* %fresh6.dbg.spill, metadata !1669, metadata !DIExpression()), !dbg !1834
  %_61 = load i32, i32* %i, align 4, !dbg !1835
  %65 = call { i32, i1 } @llvm.sadd.with.overflow.i32(i32 %_61, i32 1), !dbg !1835
  %_62.0 = extractvalue { i32, i1 } %65, 0, !dbg !1835
  %_62.1 = extractvalue { i32, i1 } %65, 1, !dbg !1835
  %66 = call i1 @llvm.expect.i1(i1 %_62.1, i1 false), !dbg !1835
  br i1 %66, label %panic5, label %bb15, !dbg !1835

bb15:                                             ; preds = %bb14
  store i32 %_62.0, i32* %i, align 4, !dbg !1836
  %67 = atomicrmw xor i32* %x, i32 165 seq_cst, align 4, !dbg !1837
  store i32 %67, i32* %43, align 4, !dbg !1837
  %_63 = load i32, i32* %43, align 4, !dbg !1837
  br label %bb16, !dbg !1837

panic5:                                           ; preds = %bb14
; call core::panicking::panic
  call void @_ZN4core9panicking5panic17hf5844c0338bd061cE([0 x i8]* align 1 bitcast ([28 x i8]* @str.4 to [0 x i8]*), i64 28, %"core::panic::location::Location"* align 8 bitcast (<{ i8*, [16 x i8] }>* @alloc293 to %"core::panic::location::Location"*)) #12, !dbg !1835
  unreachable, !dbg !1835

bb16:                                             ; preds = %bb15
  %_69 = sext i32 %fresh6 to i64, !dbg !1838
  store i32* %buffer, i32** %self.dbg.spill.i108, align 8
  call void @llvm.dbg.declare(metadata i32** %self.dbg.spill.i108, metadata !1761, metadata !DIExpression()), !dbg !1839
  store i64 %_69, i64* %count.dbg.spill.i107, align 8
  call void @llvm.dbg.declare(metadata i64* %count.dbg.spill.i107, metadata !1766, metadata !DIExpression()), !dbg !1841
  %68 = getelementptr inbounds i32, i32* %buffer, i64 %_69, !dbg !1842
  store i32* %68, i32** %6, align 8, !dbg !1842
  %_3.i109 = load i32*, i32** %6, align 8, !dbg !1842
  br label %bb17, !dbg !1843

bb17:                                             ; preds = %bb16
  store i32 %_63, i32* %_3.i109, align 4, !dbg !1844
  %fresh7 = load i32, i32* %i, align 4, !dbg !1845
  store i32 %fresh7, i32* %fresh7.dbg.spill, align 4, !dbg !1845
  call void @llvm.dbg.declare(metadata i32* %fresh7.dbg.spill, metadata !1671, metadata !DIExpression()), !dbg !1846
  %_72 = load i32, i32* %i, align 4, !dbg !1847
  %69 = call { i32, i1 } @llvm.sadd.with.overflow.i32(i32 %_72, i32 1), !dbg !1847
  %_73.0 = extractvalue { i32, i1 } %69, 0, !dbg !1847
  %_73.1 = extractvalue { i32, i1 } %69, 1, !dbg !1847
  %70 = call i1 @llvm.expect.i1(i1 %_73.1, i1 false), !dbg !1847
  br i1 %70, label %panic6, label %bb18, !dbg !1847

bb18:                                             ; preds = %bb17
  store i32 %_73.0, i32* %i, align 4, !dbg !1848
  %_74 = load i32, i32* %x, align 4, !dbg !1849
  %_77 = sext i32 %fresh7 to i64, !dbg !1850
  store i32* %buffer, i32** %self.dbg.spill.i105, align 8
  call void @llvm.dbg.declare(metadata i32** %self.dbg.spill.i105, metadata !1761, metadata !DIExpression()), !dbg !1851
  store i64 %_77, i64* %count.dbg.spill.i104, align 8
  call void @llvm.dbg.declare(metadata i64* %count.dbg.spill.i104, metadata !1766, metadata !DIExpression()), !dbg !1853
  %71 = getelementptr inbounds i32, i32* %buffer, i64 %_77, !dbg !1854
  store i32* %71, i32** %7, align 8, !dbg !1854
  %_3.i106 = load i32*, i32** %7, align 8, !dbg !1854
  br label %bb19, !dbg !1855

panic6:                                           ; preds = %bb17
; call core::panicking::panic
  call void @_ZN4core9panicking5panic17hf5844c0338bd061cE([0 x i8]* align 1 bitcast ([28 x i8]* @str.4 to [0 x i8]*), i64 28, %"core::panic::location::Location"* align 8 bitcast (<{ i8*, [16 x i8] }>* @alloc295 to %"core::panic::location::Location"*)) #12, !dbg !1847
  unreachable, !dbg !1847

bb19:                                             ; preds = %bb18
  store i32 %_74, i32* %_3.i106, align 4, !dbg !1856
  %fresh8 = load i32, i32* %i, align 4, !dbg !1857
  store i32 %fresh8, i32* %fresh8.dbg.spill, align 4, !dbg !1857
  call void @llvm.dbg.declare(metadata i32* %fresh8.dbg.spill, metadata !1673, metadata !DIExpression()), !dbg !1858
  %_80 = load i32, i32* %i, align 4, !dbg !1859
  %72 = call { i32, i1 } @llvm.sadd.with.overflow.i32(i32 %_80, i32 1), !dbg !1859
  %_81.0 = extractvalue { i32, i1 } %72, 0, !dbg !1859
  %_81.1 = extractvalue { i32, i1 } %72, 1, !dbg !1859
  %73 = call i1 @llvm.expect.i1(i1 %_81.1, i1 false), !dbg !1859
  br i1 %73, label %panic7, label %bb20, !dbg !1859

bb20:                                             ; preds = %bb19
  store i32 %_81.0, i32* %i, align 4, !dbg !1860
  %74 = atomicrmw and i32* %x, i32 170 seq_cst, align 4, !dbg !1861
  store i32 %74, i32* %42, align 4, !dbg !1861
  %_82 = load i32, i32* %42, align 4, !dbg !1861
  br label %bb21, !dbg !1861

panic7:                                           ; preds = %bb19
; call core::panicking::panic
  call void @_ZN4core9panicking5panic17hf5844c0338bd061cE([0 x i8]* align 1 bitcast ([28 x i8]* @str.4 to [0 x i8]*), i64 28, %"core::panic::location::Location"* align 8 bitcast (<{ i8*, [16 x i8] }>* @alloc297 to %"core::panic::location::Location"*)) #12, !dbg !1859
  unreachable, !dbg !1859

bb21:                                             ; preds = %bb20
  %_88 = sext i32 %fresh8 to i64, !dbg !1862
  store i32* %buffer, i32** %self.dbg.spill.i102, align 8
  call void @llvm.dbg.declare(metadata i32** %self.dbg.spill.i102, metadata !1761, metadata !DIExpression()), !dbg !1863
  store i64 %_88, i64* %count.dbg.spill.i101, align 8
  call void @llvm.dbg.declare(metadata i64* %count.dbg.spill.i101, metadata !1766, metadata !DIExpression()), !dbg !1865
  %75 = getelementptr inbounds i32, i32* %buffer, i64 %_88, !dbg !1866
  store i32* %75, i32** %8, align 8, !dbg !1866
  %_3.i103 = load i32*, i32** %8, align 8, !dbg !1866
  br label %bb22, !dbg !1867

bb22:                                             ; preds = %bb21
  store i32 %_82, i32* %_3.i103, align 4, !dbg !1868
  %fresh9 = load i32, i32* %i, align 4, !dbg !1869
  store i32 %fresh9, i32* %fresh9.dbg.spill, align 4, !dbg !1869
  call void @llvm.dbg.declare(metadata i32* %fresh9.dbg.spill, metadata !1675, metadata !DIExpression()), !dbg !1870
  %_91 = load i32, i32* %i, align 4, !dbg !1871
  %76 = call { i32, i1 } @llvm.sadd.with.overflow.i32(i32 %_91, i32 1), !dbg !1871
  %_92.0 = extractvalue { i32, i1 } %76, 0, !dbg !1871
  %_92.1 = extractvalue { i32, i1 } %76, 1, !dbg !1871
  %77 = call i1 @llvm.expect.i1(i1 %_92.1, i1 false), !dbg !1871
  br i1 %77, label %panic8, label %bb23, !dbg !1871

bb23:                                             ; preds = %bb22
  store i32 %_92.0, i32* %i, align 4, !dbg !1872
  %_93 = load i32, i32* %x, align 4, !dbg !1873
  %_96 = sext i32 %fresh9 to i64, !dbg !1874
  store i32* %buffer, i32** %self.dbg.spill.i99, align 8
  call void @llvm.dbg.declare(metadata i32** %self.dbg.spill.i99, metadata !1761, metadata !DIExpression()), !dbg !1875
  store i64 %_96, i64* %count.dbg.spill.i98, align 8
  call void @llvm.dbg.declare(metadata i64* %count.dbg.spill.i98, metadata !1766, metadata !DIExpression()), !dbg !1877
  %78 = getelementptr inbounds i32, i32* %buffer, i64 %_96, !dbg !1878
  store i32* %78, i32** %9, align 8, !dbg !1878
  %_3.i100 = load i32*, i32** %9, align 8, !dbg !1878
  br label %bb24, !dbg !1879

panic8:                                           ; preds = %bb22
; call core::panicking::panic
  call void @_ZN4core9panicking5panic17hf5844c0338bd061cE([0 x i8]* align 1 bitcast ([28 x i8]* @str.4 to [0 x i8]*), i64 28, %"core::panic::location::Location"* align 8 bitcast (<{ i8*, [16 x i8] }>* @alloc299 to %"core::panic::location::Location"*)) #12, !dbg !1871
  unreachable, !dbg !1871

bb24:                                             ; preds = %bb23
  store i32 %_93, i32* %_3.i100, align 4, !dbg !1880
  %fresh10 = load i32, i32* %i, align 4, !dbg !1881
  store i32 %fresh10, i32* %fresh10.dbg.spill, align 4, !dbg !1881
  call void @llvm.dbg.declare(metadata i32* %fresh10.dbg.spill, metadata !1677, metadata !DIExpression()), !dbg !1882
  %_99 = load i32, i32* %i, align 4, !dbg !1883
  %79 = call { i32, i1 } @llvm.sadd.with.overflow.i32(i32 %_99, i32 1), !dbg !1883
  %_100.0 = extractvalue { i32, i1 } %79, 0, !dbg !1883
  %_100.1 = extractvalue { i32, i1 } %79, 1, !dbg !1883
  %80 = call i1 @llvm.expect.i1(i1 %_100.1, i1 false), !dbg !1883
  br i1 %80, label %panic9, label %bb25, !dbg !1883

bb25:                                             ; preds = %bb24
  store i32 %_100.0, i32* %i, align 4, !dbg !1884
  %81 = atomicrmw nand i32* %x, i32 160 seq_cst, align 4, !dbg !1885
  store i32 %81, i32* %41, align 4, !dbg !1885
  %_101 = load i32, i32* %41, align 4, !dbg !1885
  br label %bb26, !dbg !1885

panic9:                                           ; preds = %bb24
; call core::panicking::panic
  call void @_ZN4core9panicking5panic17hf5844c0338bd061cE([0 x i8]* align 1 bitcast ([28 x i8]* @str.4 to [0 x i8]*), i64 28, %"core::panic::location::Location"* align 8 bitcast (<{ i8*, [16 x i8] }>* @alloc301 to %"core::panic::location::Location"*)) #12, !dbg !1883
  unreachable, !dbg !1883

bb26:                                             ; preds = %bb25
  %_107 = sext i32 %fresh10 to i64, !dbg !1886
  store i32* %buffer, i32** %self.dbg.spill.i96, align 8
  call void @llvm.dbg.declare(metadata i32** %self.dbg.spill.i96, metadata !1761, metadata !DIExpression()), !dbg !1887
  store i64 %_107, i64* %count.dbg.spill.i95, align 8
  call void @llvm.dbg.declare(metadata i64* %count.dbg.spill.i95, metadata !1766, metadata !DIExpression()), !dbg !1889
  %82 = getelementptr inbounds i32, i32* %buffer, i64 %_107, !dbg !1890
  store i32* %82, i32** %10, align 8, !dbg !1890
  %_3.i97 = load i32*, i32** %10, align 8, !dbg !1890
  br label %bb27, !dbg !1891

bb27:                                             ; preds = %bb26
  store i32 %_101, i32* %_3.i97, align 4, !dbg !1892
  %fresh11 = load i32, i32* %i, align 4, !dbg !1893
  store i32 %fresh11, i32* %fresh11.dbg.spill, align 4, !dbg !1893
  call void @llvm.dbg.declare(metadata i32* %fresh11.dbg.spill, metadata !1679, metadata !DIExpression()), !dbg !1894
  %_110 = load i32, i32* %i, align 4, !dbg !1895
  %83 = call { i32, i1 } @llvm.sadd.with.overflow.i32(i32 %_110, i32 1), !dbg !1895
  %_111.0 = extractvalue { i32, i1 } %83, 0, !dbg !1895
  %_111.1 = extractvalue { i32, i1 } %83, 1, !dbg !1895
  %84 = call i1 @llvm.expect.i1(i1 %_111.1, i1 false), !dbg !1895
  br i1 %84, label %panic10, label %bb28, !dbg !1895

bb28:                                             ; preds = %bb27
  store i32 %_111.0, i32* %i, align 4, !dbg !1896
  %_112 = load i32, i32* %x, align 4, !dbg !1897
  %_115 = sext i32 %fresh11 to i64, !dbg !1898
  store i32* %buffer, i32** %self.dbg.spill.i93, align 8
  call void @llvm.dbg.declare(metadata i32** %self.dbg.spill.i93, metadata !1761, metadata !DIExpression()), !dbg !1899
  store i64 %_115, i64* %count.dbg.spill.i92, align 8
  call void @llvm.dbg.declare(metadata i64* %count.dbg.spill.i92, metadata !1766, metadata !DIExpression()), !dbg !1901
  %85 = getelementptr inbounds i32, i32* %buffer, i64 %_115, !dbg !1902
  store i32* %85, i32** %11, align 8, !dbg !1902
  %_3.i94 = load i32*, i32** %11, align 8, !dbg !1902
  br label %bb29, !dbg !1903

panic10:                                          ; preds = %bb27
; call core::panicking::panic
  call void @_ZN4core9panicking5panic17hf5844c0338bd061cE([0 x i8]* align 1 bitcast ([28 x i8]* @str.4 to [0 x i8]*), i64 28, %"core::panic::location::Location"* align 8 bitcast (<{ i8*, [16 x i8] }>* @alloc303 to %"core::panic::location::Location"*)) #12, !dbg !1895
  unreachable, !dbg !1895

bb29:                                             ; preds = %bb28
  store i32 %_112, i32* %_3.i94, align 4, !dbg !1904
  store i32* %x, i32** %fresh12.dbg.spill, align 8, !dbg !1905
  call void @llvm.dbg.declare(metadata i32** %fresh12.dbg.spill, metadata !1681, metadata !DIExpression()), !dbg !1906
  store i32 55, i32* %fresh13.dbg.spill, align 4, !dbg !1907
  call void @llvm.dbg.declare(metadata i32* %fresh13.dbg.spill, metadata !1683, metadata !DIExpression()), !dbg !1908
  %fresh14 = load i32, i32* %i, align 4, !dbg !1909
  store i32 %fresh14, i32* %fresh14.dbg.spill, align 4, !dbg !1909
  call void @llvm.dbg.declare(metadata i32* %fresh14.dbg.spill, metadata !1685, metadata !DIExpression()), !dbg !1910
  %_120 = load i32, i32* %i, align 4, !dbg !1911
  %86 = call { i32, i1 } @llvm.sadd.with.overflow.i32(i32 %_120, i32 1), !dbg !1911
  %_121.0 = extractvalue { i32, i1 } %86, 0, !dbg !1911
  %_121.1 = extractvalue { i32, i1 } %86, 1, !dbg !1911
  %87 = call i1 @llvm.expect.i1(i1 %_121.1, i1 false), !dbg !1911
  br i1 %87, label %panic11, label %bb30, !dbg !1911

bb30:                                             ; preds = %bb29
  store i32 %_121.0, i32* %i, align 4, !dbg !1912
  %88 = atomicrmw add i32* %x, i32 55 seq_cst, align 4, !dbg !1913
  store i32 %88, i32* %40, align 4, !dbg !1913
  %_122 = load i32, i32* %40, align 4, !dbg !1913
  br label %bb31, !dbg !1913

panic11:                                          ; preds = %bb29
; call core::panicking::panic
  call void @_ZN4core9panicking5panic17hf5844c0338bd061cE([0 x i8]* align 1 bitcast ([28 x i8]* @str.4 to [0 x i8]*), i64 28, %"core::panic::location::Location"* align 8 bitcast (<{ i8*, [16 x i8] }>* @alloc305 to %"core::panic::location::Location"*)) #12, !dbg !1911
  unreachable, !dbg !1911

bb31:                                             ; preds = %bb30
  %89 = call { i32, i1 } @llvm.sadd.with.overflow.i32(i32 %_122, i32 55), !dbg !1913
  %_126.0 = extractvalue { i32, i1 } %89, 0, !dbg !1913
  %_126.1 = extractvalue { i32, i1 } %89, 1, !dbg !1913
  %90 = call i1 @llvm.expect.i1(i1 %_126.1, i1 false), !dbg !1913
  br i1 %90, label %panic12, label %bb32, !dbg !1913

bb32:                                             ; preds = %bb31
  %_129 = sext i32 %fresh14 to i64, !dbg !1914
  store i32* %buffer, i32** %self.dbg.spill.i90, align 8
  call void @llvm.dbg.declare(metadata i32** %self.dbg.spill.i90, metadata !1761, metadata !DIExpression()), !dbg !1915
  store i64 %_129, i64* %count.dbg.spill.i89, align 8
  call void @llvm.dbg.declare(metadata i64* %count.dbg.spill.i89, metadata !1766, metadata !DIExpression()), !dbg !1917
  %91 = getelementptr inbounds i32, i32* %buffer, i64 %_129, !dbg !1918
  store i32* %91, i32** %12, align 8, !dbg !1918
  %_3.i91 = load i32*, i32** %12, align 8, !dbg !1918
  br label %bb33, !dbg !1919

panic12:                                          ; preds = %bb31
; call core::panicking::panic
  call void @_ZN4core9panicking5panic17hf5844c0338bd061cE([0 x i8]* align 1 bitcast ([28 x i8]* @str.4 to [0 x i8]*), i64 28, %"core::panic::location::Location"* align 8 bitcast (<{ i8*, [16 x i8] }>* @alloc307 to %"core::panic::location::Location"*)) #12, !dbg !1913
  unreachable, !dbg !1913

bb33:                                             ; preds = %bb32
  store i32 %_126.0, i32* %_3.i91, align 4, !dbg !1920
  %fresh15 = load i32, i32* %i, align 4, !dbg !1921
  store i32 %fresh15, i32* %fresh15.dbg.spill, align 4, !dbg !1921
  call void @llvm.dbg.declare(metadata i32* %fresh15.dbg.spill, metadata !1687, metadata !DIExpression()), !dbg !1922
  %_132 = load i32, i32* %i, align 4, !dbg !1923
  %92 = call { i32, i1 } @llvm.sadd.with.overflow.i32(i32 %_132, i32 1), !dbg !1923
  %_133.0 = extractvalue { i32, i1 } %92, 0, !dbg !1923
  %_133.1 = extractvalue { i32, i1 } %92, 1, !dbg !1923
  %93 = call i1 @llvm.expect.i1(i1 %_133.1, i1 false), !dbg !1923
  br i1 %93, label %panic13, label %bb34, !dbg !1923

bb34:                                             ; preds = %bb33
  store i32 %_133.0, i32* %i, align 4, !dbg !1924
  %_134 = load i32, i32* %x, align 4, !dbg !1925
  %_137 = sext i32 %fresh15 to i64, !dbg !1926
  store i32* %buffer, i32** %self.dbg.spill.i87, align 8
  call void @llvm.dbg.declare(metadata i32** %self.dbg.spill.i87, metadata !1761, metadata !DIExpression()), !dbg !1927
  store i64 %_137, i64* %count.dbg.spill.i86, align 8
  call void @llvm.dbg.declare(metadata i64* %count.dbg.spill.i86, metadata !1766, metadata !DIExpression()), !dbg !1929
  %94 = getelementptr inbounds i32, i32* %buffer, i64 %_137, !dbg !1930
  store i32* %94, i32** %13, align 8, !dbg !1930
  %_3.i88 = load i32*, i32** %13, align 8, !dbg !1930
  br label %bb35, !dbg !1931

panic13:                                          ; preds = %bb33
; call core::panicking::panic
  call void @_ZN4core9panicking5panic17hf5844c0338bd061cE([0 x i8]* align 1 bitcast ([28 x i8]* @str.4 to [0 x i8]*), i64 28, %"core::panic::location::Location"* align 8 bitcast (<{ i8*, [16 x i8] }>* @alloc309 to %"core::panic::location::Location"*)) #12, !dbg !1923
  unreachable, !dbg !1923

bb35:                                             ; preds = %bb34
  store i32 %_134, i32* %_3.i88, align 4, !dbg !1932
  store i32* %x, i32** %fresh16.dbg.spill, align 8, !dbg !1933
  call void @llvm.dbg.declare(metadata i32** %fresh16.dbg.spill, metadata !1689, metadata !DIExpression()), !dbg !1934
  store i32 17, i32* %fresh17.dbg.spill, align 4, !dbg !1935
  call void @llvm.dbg.declare(metadata i32* %fresh17.dbg.spill, metadata !1691, metadata !DIExpression()), !dbg !1936
  %fresh18 = load i32, i32* %i, align 4, !dbg !1937
  store i32 %fresh18, i32* %fresh18.dbg.spill, align 4, !dbg !1937
  call void @llvm.dbg.declare(metadata i32* %fresh18.dbg.spill, metadata !1693, metadata !DIExpression()), !dbg !1938
  %_142 = load i32, i32* %i, align 4, !dbg !1939
  %95 = call { i32, i1 } @llvm.sadd.with.overflow.i32(i32 %_142, i32 1), !dbg !1939
  %_143.0 = extractvalue { i32, i1 } %95, 0, !dbg !1939
  %_143.1 = extractvalue { i32, i1 } %95, 1, !dbg !1939
  %96 = call i1 @llvm.expect.i1(i1 %_143.1, i1 false), !dbg !1939
  br i1 %96, label %panic14, label %bb36, !dbg !1939

bb36:                                             ; preds = %bb35
  store i32 %_143.0, i32* %i, align 4, !dbg !1940
  %97 = atomicrmw sub i32* %x, i32 17 seq_cst, align 4, !dbg !1941
  store i32 %97, i32* %39, align 4, !dbg !1941
  %_144 = load i32, i32* %39, align 4, !dbg !1941
  br label %bb37, !dbg !1941

panic14:                                          ; preds = %bb35
; call core::panicking::panic
  call void @_ZN4core9panicking5panic17hf5844c0338bd061cE([0 x i8]* align 1 bitcast ([28 x i8]* @str.4 to [0 x i8]*), i64 28, %"core::panic::location::Location"* align 8 bitcast (<{ i8*, [16 x i8] }>* @alloc311 to %"core::panic::location::Location"*)) #12, !dbg !1939
  unreachable, !dbg !1939

bb37:                                             ; preds = %bb36
  %98 = call { i32, i1 } @llvm.ssub.with.overflow.i32(i32 %_144, i32 17), !dbg !1941
  %_148.0 = extractvalue { i32, i1 } %98, 0, !dbg !1941
  %_148.1 = extractvalue { i32, i1 } %98, 1, !dbg !1941
  %99 = call i1 @llvm.expect.i1(i1 %_148.1, i1 false), !dbg !1941
  br i1 %99, label %panic15, label %bb38, !dbg !1941

bb38:                                             ; preds = %bb37
  %_151 = sext i32 %fresh18 to i64, !dbg !1942
  store i32* %buffer, i32** %self.dbg.spill.i84, align 8
  call void @llvm.dbg.declare(metadata i32** %self.dbg.spill.i84, metadata !1761, metadata !DIExpression()), !dbg !1943
  store i64 %_151, i64* %count.dbg.spill.i83, align 8
  call void @llvm.dbg.declare(metadata i64* %count.dbg.spill.i83, metadata !1766, metadata !DIExpression()), !dbg !1945
  %100 = getelementptr inbounds i32, i32* %buffer, i64 %_151, !dbg !1946
  store i32* %100, i32** %14, align 8, !dbg !1946
  %_3.i85 = load i32*, i32** %14, align 8, !dbg !1946
  br label %bb39, !dbg !1947

panic15:                                          ; preds = %bb37
; call core::panicking::panic
  call void @_ZN4core9panicking5panic17hf5844c0338bd061cE([0 x i8]* align 1 bitcast ([33 x i8]* @str.5 to [0 x i8]*), i64 33, %"core::panic::location::Location"* align 8 bitcast (<{ i8*, [16 x i8] }>* @alloc313 to %"core::panic::location::Location"*)) #12, !dbg !1941
  unreachable, !dbg !1941

bb39:                                             ; preds = %bb38
  store i32 %_148.0, i32* %_3.i85, align 4, !dbg !1948
  %fresh19 = load i32, i32* %i, align 4, !dbg !1949
  store i32 %fresh19, i32* %fresh19.dbg.spill, align 4, !dbg !1949
  call void @llvm.dbg.declare(metadata i32* %fresh19.dbg.spill, metadata !1695, metadata !DIExpression()), !dbg !1950
  %_154 = load i32, i32* %i, align 4, !dbg !1951
  %101 = call { i32, i1 } @llvm.sadd.with.overflow.i32(i32 %_154, i32 1), !dbg !1951
  %_155.0 = extractvalue { i32, i1 } %101, 0, !dbg !1951
  %_155.1 = extractvalue { i32, i1 } %101, 1, !dbg !1951
  %102 = call i1 @llvm.expect.i1(i1 %_155.1, i1 false), !dbg !1951
  br i1 %102, label %panic16, label %bb40, !dbg !1951

bb40:                                             ; preds = %bb39
  store i32 %_155.0, i32* %i, align 4, !dbg !1952
  %_156 = load i32, i32* %x, align 4, !dbg !1953
  %_159 = sext i32 %fresh19 to i64, !dbg !1954
  store i32* %buffer, i32** %self.dbg.spill.i81, align 8
  call void @llvm.dbg.declare(metadata i32** %self.dbg.spill.i81, metadata !1761, metadata !DIExpression()), !dbg !1955
  store i64 %_159, i64* %count.dbg.spill.i80, align 8
  call void @llvm.dbg.declare(metadata i64* %count.dbg.spill.i80, metadata !1766, metadata !DIExpression()), !dbg !1957
  %103 = getelementptr inbounds i32, i32* %buffer, i64 %_159, !dbg !1958
  store i32* %103, i32** %15, align 8, !dbg !1958
  %_3.i82 = load i32*, i32** %15, align 8, !dbg !1958
  br label %bb41, !dbg !1959

panic16:                                          ; preds = %bb39
; call core::panicking::panic
  call void @_ZN4core9panicking5panic17hf5844c0338bd061cE([0 x i8]* align 1 bitcast ([28 x i8]* @str.4 to [0 x i8]*), i64 28, %"core::panic::location::Location"* align 8 bitcast (<{ i8*, [16 x i8] }>* @alloc315 to %"core::panic::location::Location"*)) #12, !dbg !1951
  unreachable, !dbg !1951

bb41:                                             ; preds = %bb40
  store i32 %_156, i32* %_3.i82, align 4, !dbg !1960
  store i32* %x, i32** %fresh20.dbg.spill, align 8, !dbg !1961
  call void @llvm.dbg.declare(metadata i32** %fresh20.dbg.spill, metadata !1697, metadata !DIExpression()), !dbg !1962
  store i32 128, i32* %fresh21.dbg.spill, align 4, !dbg !1963
  call void @llvm.dbg.declare(metadata i32* %fresh21.dbg.spill, metadata !1699, metadata !DIExpression()), !dbg !1964
  %fresh22 = load i32, i32* %i, align 4, !dbg !1965
  store i32 %fresh22, i32* %fresh22.dbg.spill, align 4, !dbg !1965
  call void @llvm.dbg.declare(metadata i32* %fresh22.dbg.spill, metadata !1701, metadata !DIExpression()), !dbg !1966
  %_164 = load i32, i32* %i, align 4, !dbg !1967
  %104 = call { i32, i1 } @llvm.sadd.with.overflow.i32(i32 %_164, i32 1), !dbg !1967
  %_165.0 = extractvalue { i32, i1 } %104, 0, !dbg !1967
  %_165.1 = extractvalue { i32, i1 } %104, 1, !dbg !1967
  %105 = call i1 @llvm.expect.i1(i1 %_165.1, i1 false), !dbg !1967
  br i1 %105, label %panic17, label %bb42, !dbg !1967

bb42:                                             ; preds = %bb41
  store i32 %_165.0, i32* %i, align 4, !dbg !1968
  %106 = atomicrmw or i32* %x, i32 128 seq_cst, align 4, !dbg !1969
  store i32 %106, i32* %38, align 4, !dbg !1969
  %_166 = load i32, i32* %38, align 4, !dbg !1969
  br label %bb43, !dbg !1969

panic17:                                          ; preds = %bb41
; call core::panicking::panic
  call void @_ZN4core9panicking5panic17hf5844c0338bd061cE([0 x i8]* align 1 bitcast ([28 x i8]* @str.4 to [0 x i8]*), i64 28, %"core::panic::location::Location"* align 8 bitcast (<{ i8*, [16 x i8] }>* @alloc317 to %"core::panic::location::Location"*)) #12, !dbg !1967
  unreachable, !dbg !1967

bb43:                                             ; preds = %bb42
  %_172 = sext i32 %fresh22 to i64, !dbg !1970
  store i32* %buffer, i32** %self.dbg.spill.i78, align 8
  call void @llvm.dbg.declare(metadata i32** %self.dbg.spill.i78, metadata !1761, metadata !DIExpression()), !dbg !1971
  store i64 %_172, i64* %count.dbg.spill.i77, align 8
  call void @llvm.dbg.declare(metadata i64* %count.dbg.spill.i77, metadata !1766, metadata !DIExpression()), !dbg !1973
  %107 = getelementptr inbounds i32, i32* %buffer, i64 %_172, !dbg !1974
  store i32* %107, i32** %16, align 8, !dbg !1974
  %_3.i79 = load i32*, i32** %16, align 8, !dbg !1974
  br label %bb44, !dbg !1975

bb44:                                             ; preds = %bb43
  %108 = or i32 %_166, 128, !dbg !1976
  store i32 %108, i32* %_3.i79, align 4, !dbg !1976
  %fresh23 = load i32, i32* %i, align 4, !dbg !1977
  store i32 %fresh23, i32* %fresh23.dbg.spill, align 4, !dbg !1977
  call void @llvm.dbg.declare(metadata i32* %fresh23.dbg.spill, metadata !1703, metadata !DIExpression()), !dbg !1978
  %_175 = load i32, i32* %i, align 4, !dbg !1979
  %109 = call { i32, i1 } @llvm.sadd.with.overflow.i32(i32 %_175, i32 1), !dbg !1979
  %_176.0 = extractvalue { i32, i1 } %109, 0, !dbg !1979
  %_176.1 = extractvalue { i32, i1 } %109, 1, !dbg !1979
  %110 = call i1 @llvm.expect.i1(i1 %_176.1, i1 false), !dbg !1979
  br i1 %110, label %panic18, label %bb45, !dbg !1979

bb45:                                             ; preds = %bb44
  store i32 %_176.0, i32* %i, align 4, !dbg !1980
  %_177 = load i32, i32* %x, align 4, !dbg !1981
  %_180 = sext i32 %fresh23 to i64, !dbg !1982
  store i32* %buffer, i32** %self.dbg.spill.i75, align 8
  call void @llvm.dbg.declare(metadata i32** %self.dbg.spill.i75, metadata !1761, metadata !DIExpression()), !dbg !1983
  store i64 %_180, i64* %count.dbg.spill.i74, align 8
  call void @llvm.dbg.declare(metadata i64* %count.dbg.spill.i74, metadata !1766, metadata !DIExpression()), !dbg !1985
  %111 = getelementptr inbounds i32, i32* %buffer, i64 %_180, !dbg !1986
  store i32* %111, i32** %17, align 8, !dbg !1986
  %_3.i76 = load i32*, i32** %17, align 8, !dbg !1986
  br label %bb46, !dbg !1987

panic18:                                          ; preds = %bb44
; call core::panicking::panic
  call void @_ZN4core9panicking5panic17hf5844c0338bd061cE([0 x i8]* align 1 bitcast ([28 x i8]* @str.4 to [0 x i8]*), i64 28, %"core::panic::location::Location"* align 8 bitcast (<{ i8*, [16 x i8] }>* @alloc319 to %"core::panic::location::Location"*)) #12, !dbg !1979
  unreachable, !dbg !1979

bb46:                                             ; preds = %bb45
  store i32 %_177, i32* %_3.i76, align 4, !dbg !1988
  store i32* %x, i32** %fresh24.dbg.spill, align 8, !dbg !1989
  call void @llvm.dbg.declare(metadata i32** %fresh24.dbg.spill, metadata !1705, metadata !DIExpression()), !dbg !1990
  store i32 165, i32* %fresh25.dbg.spill, align 4, !dbg !1991
  call void @llvm.dbg.declare(metadata i32* %fresh25.dbg.spill, metadata !1707, metadata !DIExpression()), !dbg !1992
  %fresh26 = load i32, i32* %i, align 4, !dbg !1993
  store i32 %fresh26, i32* %fresh26.dbg.spill, align 4, !dbg !1993
  call void @llvm.dbg.declare(metadata i32* %fresh26.dbg.spill, metadata !1709, metadata !DIExpression()), !dbg !1994
  %_185 = load i32, i32* %i, align 4, !dbg !1995
  %112 = call { i32, i1 } @llvm.sadd.with.overflow.i32(i32 %_185, i32 1), !dbg !1995
  %_186.0 = extractvalue { i32, i1 } %112, 0, !dbg !1995
  %_186.1 = extractvalue { i32, i1 } %112, 1, !dbg !1995
  %113 = call i1 @llvm.expect.i1(i1 %_186.1, i1 false), !dbg !1995
  br i1 %113, label %panic19, label %bb47, !dbg !1995

bb47:                                             ; preds = %bb46
  store i32 %_186.0, i32* %i, align 4, !dbg !1996
  %114 = atomicrmw xor i32* %x, i32 165 seq_cst, align 4, !dbg !1997
  store i32 %114, i32* %37, align 4, !dbg !1997
  %_187 = load i32, i32* %37, align 4, !dbg !1997
  br label %bb48, !dbg !1997

panic19:                                          ; preds = %bb46
; call core::panicking::panic
  call void @_ZN4core9panicking5panic17hf5844c0338bd061cE([0 x i8]* align 1 bitcast ([28 x i8]* @str.4 to [0 x i8]*), i64 28, %"core::panic::location::Location"* align 8 bitcast (<{ i8*, [16 x i8] }>* @alloc321 to %"core::panic::location::Location"*)) #12, !dbg !1995
  unreachable, !dbg !1995

bb48:                                             ; preds = %bb47
  %_193 = sext i32 %fresh26 to i64, !dbg !1998
  store i32* %buffer, i32** %self.dbg.spill.i72, align 8
  call void @llvm.dbg.declare(metadata i32** %self.dbg.spill.i72, metadata !1761, metadata !DIExpression()), !dbg !1999
  store i64 %_193, i64* %count.dbg.spill.i71, align 8
  call void @llvm.dbg.declare(metadata i64* %count.dbg.spill.i71, metadata !1766, metadata !DIExpression()), !dbg !2001
  %115 = getelementptr inbounds i32, i32* %buffer, i64 %_193, !dbg !2002
  store i32* %115, i32** %18, align 8, !dbg !2002
  %_3.i73 = load i32*, i32** %18, align 8, !dbg !2002
  br label %bb49, !dbg !2003

bb49:                                             ; preds = %bb48
  %116 = xor i32 %_187, 165, !dbg !2004
  store i32 %116, i32* %_3.i73, align 4, !dbg !2004
  %fresh27 = load i32, i32* %i, align 4, !dbg !2005
  store i32 %fresh27, i32* %fresh27.dbg.spill, align 4, !dbg !2005
  call void @llvm.dbg.declare(metadata i32* %fresh27.dbg.spill, metadata !1711, metadata !DIExpression()), !dbg !2006
  %_196 = load i32, i32* %i, align 4, !dbg !2007
  %117 = call { i32, i1 } @llvm.sadd.with.overflow.i32(i32 %_196, i32 1), !dbg !2007
  %_197.0 = extractvalue { i32, i1 } %117, 0, !dbg !2007
  %_197.1 = extractvalue { i32, i1 } %117, 1, !dbg !2007
  %118 = call i1 @llvm.expect.i1(i1 %_197.1, i1 false), !dbg !2007
  br i1 %118, label %panic20, label %bb50, !dbg !2007

bb50:                                             ; preds = %bb49
  store i32 %_197.0, i32* %i, align 4, !dbg !2008
  %_198 = load i32, i32* %x, align 4, !dbg !2009
  %_201 = sext i32 %fresh27 to i64, !dbg !2010
  store i32* %buffer, i32** %self.dbg.spill.i69, align 8
  call void @llvm.dbg.declare(metadata i32** %self.dbg.spill.i69, metadata !1761, metadata !DIExpression()), !dbg !2011
  store i64 %_201, i64* %count.dbg.spill.i68, align 8
  call void @llvm.dbg.declare(metadata i64* %count.dbg.spill.i68, metadata !1766, metadata !DIExpression()), !dbg !2013
  %119 = getelementptr inbounds i32, i32* %buffer, i64 %_201, !dbg !2014
  store i32* %119, i32** %19, align 8, !dbg !2014
  %_3.i70 = load i32*, i32** %19, align 8, !dbg !2014
  br label %bb51, !dbg !2015

panic20:                                          ; preds = %bb49
; call core::panicking::panic
  call void @_ZN4core9panicking5panic17hf5844c0338bd061cE([0 x i8]* align 1 bitcast ([28 x i8]* @str.4 to [0 x i8]*), i64 28, %"core::panic::location::Location"* align 8 bitcast (<{ i8*, [16 x i8] }>* @alloc323 to %"core::panic::location::Location"*)) #12, !dbg !2007
  unreachable, !dbg !2007

bb51:                                             ; preds = %bb50
  store i32 %_198, i32* %_3.i70, align 4, !dbg !2016
  store i32* %x, i32** %fresh28.dbg.spill, align 8, !dbg !2017
  call void @llvm.dbg.declare(metadata i32** %fresh28.dbg.spill, metadata !1713, metadata !DIExpression()), !dbg !2018
  store i32 170, i32* %fresh29.dbg.spill, align 4, !dbg !2019
  call void @llvm.dbg.declare(metadata i32* %fresh29.dbg.spill, metadata !1715, metadata !DIExpression()), !dbg !2020
  %fresh30 = load i32, i32* %i, align 4, !dbg !2021
  store i32 %fresh30, i32* %fresh30.dbg.spill, align 4, !dbg !2021
  call void @llvm.dbg.declare(metadata i32* %fresh30.dbg.spill, metadata !1717, metadata !DIExpression()), !dbg !2022
  %_206 = load i32, i32* %i, align 4, !dbg !2023
  %120 = call { i32, i1 } @llvm.sadd.with.overflow.i32(i32 %_206, i32 1), !dbg !2023
  %_207.0 = extractvalue { i32, i1 } %120, 0, !dbg !2023
  %_207.1 = extractvalue { i32, i1 } %120, 1, !dbg !2023
  %121 = call i1 @llvm.expect.i1(i1 %_207.1, i1 false), !dbg !2023
  br i1 %121, label %panic21, label %bb52, !dbg !2023

bb52:                                             ; preds = %bb51
  store i32 %_207.0, i32* %i, align 4, !dbg !2024
  %122 = atomicrmw and i32* %x, i32 170 seq_cst, align 4, !dbg !2025
  store i32 %122, i32* %36, align 4, !dbg !2025
  %_208 = load i32, i32* %36, align 4, !dbg !2025
  br label %bb53, !dbg !2025

panic21:                                          ; preds = %bb51
; call core::panicking::panic
  call void @_ZN4core9panicking5panic17hf5844c0338bd061cE([0 x i8]* align 1 bitcast ([28 x i8]* @str.4 to [0 x i8]*), i64 28, %"core::panic::location::Location"* align 8 bitcast (<{ i8*, [16 x i8] }>* @alloc325 to %"core::panic::location::Location"*)) #12, !dbg !2023
  unreachable, !dbg !2023

bb53:                                             ; preds = %bb52
  %_214 = sext i32 %fresh30 to i64, !dbg !2026
  store i32* %buffer, i32** %self.dbg.spill.i66, align 8
  call void @llvm.dbg.declare(metadata i32** %self.dbg.spill.i66, metadata !1761, metadata !DIExpression()), !dbg !2027
  store i64 %_214, i64* %count.dbg.spill.i65, align 8
  call void @llvm.dbg.declare(metadata i64* %count.dbg.spill.i65, metadata !1766, metadata !DIExpression()), !dbg !2029
  %123 = getelementptr inbounds i32, i32* %buffer, i64 %_214, !dbg !2030
  store i32* %123, i32** %20, align 8, !dbg !2030
  %_3.i67 = load i32*, i32** %20, align 8, !dbg !2030
  br label %bb54, !dbg !2031

bb54:                                             ; preds = %bb53
  %124 = and i32 %_208, 170, !dbg !2032
  store i32 %124, i32* %_3.i67, align 4, !dbg !2032
  %fresh31 = load i32, i32* %i, align 4, !dbg !2033
  store i32 %fresh31, i32* %fresh31.dbg.spill, align 4, !dbg !2033
  call void @llvm.dbg.declare(metadata i32* %fresh31.dbg.spill, metadata !1719, metadata !DIExpression()), !dbg !2034
  %_217 = load i32, i32* %i, align 4, !dbg !2035
  %125 = call { i32, i1 } @llvm.sadd.with.overflow.i32(i32 %_217, i32 1), !dbg !2035
  %_218.0 = extractvalue { i32, i1 } %125, 0, !dbg !2035
  %_218.1 = extractvalue { i32, i1 } %125, 1, !dbg !2035
  %126 = call i1 @llvm.expect.i1(i1 %_218.1, i1 false), !dbg !2035
  br i1 %126, label %panic22, label %bb55, !dbg !2035

bb55:                                             ; preds = %bb54
  store i32 %_218.0, i32* %i, align 4, !dbg !2036
  %_219 = load i32, i32* %x, align 4, !dbg !2037
  %_222 = sext i32 %fresh31 to i64, !dbg !2038
  store i32* %buffer, i32** %self.dbg.spill.i63, align 8
  call void @llvm.dbg.declare(metadata i32** %self.dbg.spill.i63, metadata !1761, metadata !DIExpression()), !dbg !2039
  store i64 %_222, i64* %count.dbg.spill.i62, align 8
  call void @llvm.dbg.declare(metadata i64* %count.dbg.spill.i62, metadata !1766, metadata !DIExpression()), !dbg !2041
  %127 = getelementptr inbounds i32, i32* %buffer, i64 %_222, !dbg !2042
  store i32* %127, i32** %21, align 8, !dbg !2042
  %_3.i64 = load i32*, i32** %21, align 8, !dbg !2042
  br label %bb56, !dbg !2043

panic22:                                          ; preds = %bb54
; call core::panicking::panic
  call void @_ZN4core9panicking5panic17hf5844c0338bd061cE([0 x i8]* align 1 bitcast ([28 x i8]* @str.4 to [0 x i8]*), i64 28, %"core::panic::location::Location"* align 8 bitcast (<{ i8*, [16 x i8] }>* @alloc327 to %"core::panic::location::Location"*)) #12, !dbg !2035
  unreachable, !dbg !2035

bb56:                                             ; preds = %bb55
  store i32 %_219, i32* %_3.i64, align 4, !dbg !2044
  store i32* %x, i32** %fresh32.dbg.spill, align 8, !dbg !2045
  call void @llvm.dbg.declare(metadata i32** %fresh32.dbg.spill, metadata !1721, metadata !DIExpression()), !dbg !2046
  store i32 160, i32* %fresh33.dbg.spill, align 4, !dbg !2047
  call void @llvm.dbg.declare(metadata i32* %fresh33.dbg.spill, metadata !1723, metadata !DIExpression()), !dbg !2048
  %fresh34 = load i32, i32* %i, align 4, !dbg !2049
  store i32 %fresh34, i32* %fresh34.dbg.spill, align 4, !dbg !2049
  call void @llvm.dbg.declare(metadata i32* %fresh34.dbg.spill, metadata !1725, metadata !DIExpression()), !dbg !2050
  %_227 = load i32, i32* %i, align 4, !dbg !2051
  %128 = call { i32, i1 } @llvm.sadd.with.overflow.i32(i32 %_227, i32 1), !dbg !2051
  %_228.0 = extractvalue { i32, i1 } %128, 0, !dbg !2051
  %_228.1 = extractvalue { i32, i1 } %128, 1, !dbg !2051
  %129 = call i1 @llvm.expect.i1(i1 %_228.1, i1 false), !dbg !2051
  br i1 %129, label %panic23, label %bb57, !dbg !2051

bb57:                                             ; preds = %bb56
  store i32 %_228.0, i32* %i, align 4, !dbg !2052
  %130 = atomicrmw nand i32* %x, i32 160 seq_cst, align 4, !dbg !2053
  store i32 %130, i32* %35, align 4, !dbg !2053
  %_230 = load i32, i32* %35, align 4, !dbg !2053
  br label %bb58, !dbg !2053

panic23:                                          ; preds = %bb56
; call core::panicking::panic
  call void @_ZN4core9panicking5panic17hf5844c0338bd061cE([0 x i8]* align 1 bitcast ([28 x i8]* @str.4 to [0 x i8]*), i64 28, %"core::panic::location::Location"* align 8 bitcast (<{ i8*, [16 x i8] }>* @alloc329 to %"core::panic::location::Location"*)) #12, !dbg !2051
  unreachable, !dbg !2051

bb58:                                             ; preds = %bb57
  %_229 = and i32 %_230, 160, !dbg !2054
  %_236 = sext i32 %fresh34 to i64, !dbg !2055
  store i32* %buffer, i32** %self.dbg.spill.i60, align 8
  call void @llvm.dbg.declare(metadata i32** %self.dbg.spill.i60, metadata !1761, metadata !DIExpression()), !dbg !2056
  store i64 %_236, i64* %count.dbg.spill.i59, align 8
  call void @llvm.dbg.declare(metadata i64* %count.dbg.spill.i59, metadata !1766, metadata !DIExpression()), !dbg !2058
  %131 = getelementptr inbounds i32, i32* %buffer, i64 %_236, !dbg !2059
  store i32* %131, i32** %22, align 8, !dbg !2059
  %_3.i61 = load i32*, i32** %22, align 8, !dbg !2059
  br label %bb59, !dbg !2060

bb59:                                             ; preds = %bb58
  %132 = xor i32 %_229, -1, !dbg !2061
  store i32 %132, i32* %_3.i61, align 4, !dbg !2061
  %fresh35 = load i32, i32* %i, align 4, !dbg !2062
  store i32 %fresh35, i32* %fresh35.dbg.spill, align 4, !dbg !2062
  call void @llvm.dbg.declare(metadata i32* %fresh35.dbg.spill, metadata !1727, metadata !DIExpression()), !dbg !2063
  %_239 = load i32, i32* %i, align 4, !dbg !2064
  %133 = call { i32, i1 } @llvm.sadd.with.overflow.i32(i32 %_239, i32 1), !dbg !2064
  %_240.0 = extractvalue { i32, i1 } %133, 0, !dbg !2064
  %_240.1 = extractvalue { i32, i1 } %133, 1, !dbg !2064
  %134 = call i1 @llvm.expect.i1(i1 %_240.1, i1 false), !dbg !2064
  br i1 %134, label %panic24, label %bb60, !dbg !2064

bb60:                                             ; preds = %bb59
  store i32 %_240.0, i32* %i, align 4, !dbg !2065
  %_241 = load i32, i32* %x, align 4, !dbg !2066
  %_244 = sext i32 %fresh35 to i64, !dbg !2067
  store i32* %buffer, i32** %self.dbg.spill.i57, align 8
  call void @llvm.dbg.declare(metadata i32** %self.dbg.spill.i57, metadata !1761, metadata !DIExpression()), !dbg !2068
  store i64 %_244, i64* %count.dbg.spill.i56, align 8
  call void @llvm.dbg.declare(metadata i64* %count.dbg.spill.i56, metadata !1766, metadata !DIExpression()), !dbg !2070
  %135 = getelementptr inbounds i32, i32* %buffer, i64 %_244, !dbg !2071
  store i32* %135, i32** %23, align 8, !dbg !2071
  %_3.i58 = load i32*, i32** %23, align 8, !dbg !2071
  br label %bb61, !dbg !2072

panic24:                                          ; preds = %bb59
; call core::panicking::panic
  call void @_ZN4core9panicking5panic17hf5844c0338bd061cE([0 x i8]* align 1 bitcast ([28 x i8]* @str.4 to [0 x i8]*), i64 28, %"core::panic::location::Location"* align 8 bitcast (<{ i8*, [16 x i8] }>* @alloc331 to %"core::panic::location::Location"*)) #12, !dbg !2064
  unreachable, !dbg !2064

bb61:                                             ; preds = %bb60
  store i32 %_241, i32* %_3.i58, align 4, !dbg !2073
  %136 = load i32, i32* %x, align 4, !dbg !2074
  %137 = and i32 %136, 255, !dbg !2074
  store i32 %137, i32* %x, align 4, !dbg !2074
  %fresh36 = load i32, i32* %i, align 4, !dbg !2075
  store i32 %fresh36, i32* %fresh36.dbg.spill, align 4, !dbg !2075
  call void @llvm.dbg.declare(metadata i32* %fresh36.dbg.spill, metadata !1729, metadata !DIExpression()), !dbg !2076
  %_248 = load i32, i32* %i, align 4, !dbg !2077
  %138 = call { i32, i1 } @llvm.sadd.with.overflow.i32(i32 %_248, i32 1), !dbg !2077
  %_249.0 = extractvalue { i32, i1 } %138, 0, !dbg !2077
  %_249.1 = extractvalue { i32, i1 } %138, 1, !dbg !2077
  %139 = call i1 @llvm.expect.i1(i1 %_249.1, i1 false), !dbg !2077
  br i1 %139, label %panic25, label %bb62, !dbg !2077

bb62:                                             ; preds = %bb61
  store i32 %_249.0, i32* %i, align 4, !dbg !2078
  %_250 = load i32, i32* %x, align 4, !dbg !2079
  %_253 = sext i32 %fresh36 to i64, !dbg !2080
  store i32* %buffer, i32** %self.dbg.spill.i54, align 8
  call void @llvm.dbg.declare(metadata i32** %self.dbg.spill.i54, metadata !1761, metadata !DIExpression()), !dbg !2081
  store i64 %_253, i64* %count.dbg.spill.i53, align 8
  call void @llvm.dbg.declare(metadata i64* %count.dbg.spill.i53, metadata !1766, metadata !DIExpression()), !dbg !2083
  %140 = getelementptr inbounds i32, i32* %buffer, i64 %_253, !dbg !2084
  store i32* %140, i32** %24, align 8, !dbg !2084
  %_3.i55 = load i32*, i32** %24, align 8, !dbg !2084
  br label %bb63, !dbg !2085

panic25:                                          ; preds = %bb61
; call core::panicking::panic
  call void @_ZN4core9panicking5panic17hf5844c0338bd061cE([0 x i8]* align 1 bitcast ([28 x i8]* @str.4 to [0 x i8]*), i64 28, %"core::panic::location::Location"* align 8 bitcast (<{ i8*, [16 x i8] }>* @alloc333 to %"core::panic::location::Location"*)) #12, !dbg !2077
  unreachable, !dbg !2077

bb63:                                             ; preds = %bb62
  store i32 %_250, i32* %_3.i55, align 4, !dbg !2086
  store i32 0, i32* %x_0, align 4, !dbg !2087
  br label %bb64, !dbg !2088

bb64:                                             ; preds = %bb71, %bb63
  %_257 = load i32, i32* %x_0, align 4, !dbg !2089
  %_256 = icmp slt i32 %_257, 256, !dbg !2089
  br i1 %_256, label %bb65, label %bb72, !dbg !2089

bb72:                                             ; preds = %bb64
  store i32 130, i32* %x_1, align 4, !dbg !2090
  br label %bb73, !dbg !2091

bb65:                                             ; preds = %bb64
  %fresh37 = load i32, i32* %i, align 4, !dbg !2092
  store i32 %fresh37, i32* %fresh37.dbg.spill, align 4, !dbg !2092
  call void @llvm.dbg.declare(metadata i32* %fresh37.dbg.spill, metadata !1733, metadata !DIExpression()), !dbg !2093
  %_260 = load i32, i32* %i, align 4, !dbg !2094
  %141 = call { i32, i1 } @llvm.sadd.with.overflow.i32(i32 %_260, i32 1), !dbg !2094
  %_261.0 = extractvalue { i32, i1 } %141, 0, !dbg !2094
  %_261.1 = extractvalue { i32, i1 } %141, 1, !dbg !2094
  %142 = call i1 @llvm.expect.i1(i1 %_261.1, i1 false), !dbg !2094
  br i1 %142, label %panic26, label %bb66, !dbg !2094

bb66:                                             ; preds = %bb65
  store i32 %_261.0, i32* %i, align 4, !dbg !2095
  %_266 = load i32, i32* %i, align 4, !dbg !2096
  %143 = cmpxchg i32* %x_0, i32 %_266, i32 137 seq_cst seq_cst, align 4, !dbg !2097
  %144 = extractvalue { i32, i1 } %143, 0, !dbg !2097
  %145 = extractvalue { i32, i1 } %143, 1, !dbg !2097
  %146 = zext i1 %145 to i8, !dbg !2097
  %147 = bitcast { i32, i8 }* %34 to i32*, !dbg !2097
  store i32 %144, i32* %147, align 4, !dbg !2097
  %148 = getelementptr inbounds { i32, i8 }, { i32, i8 }* %34, i32 0, i32 1, !dbg !2097
  store i8 %146, i8* %148, align 4, !dbg !2097
  %149 = getelementptr inbounds { i32, i8 }, { i32, i8 }* %34, i32 0, i32 0, !dbg !2097
  %_263.0 = load i32, i32* %149, align 4, !dbg !2097
  %150 = getelementptr inbounds { i32, i8 }, { i32, i8 }* %34, i32 0, i32 1, !dbg !2097
  %151 = load i8, i8* %150, align 4, !dbg !2097, !range !460, !noundef !23
  %_263.1 = trunc i8 %151 to i1, !dbg !2097
  br label %bb67, !dbg !2097

panic26:                                          ; preds = %bb65
; call core::panicking::panic
  call void @_ZN4core9panicking5panic17hf5844c0338bd061cE([0 x i8]* align 1 bitcast ([28 x i8]* @str.4 to [0 x i8]*), i64 28, %"core::panic::location::Location"* align 8 bitcast (<{ i8*, [16 x i8] }>* @alloc335 to %"core::panic::location::Location"*)) #12, !dbg !2094
  unreachable, !dbg !2094

bb67:                                             ; preds = %bb66
  %_270 = sext i32 %fresh37 to i64, !dbg !2098
  store i32* %buffer, i32** %self.dbg.spill.i51, align 8
  call void @llvm.dbg.declare(metadata i32** %self.dbg.spill.i51, metadata !1761, metadata !DIExpression()), !dbg !2099
  store i64 %_270, i64* %count.dbg.spill.i50, align 8
  call void @llvm.dbg.declare(metadata i64* %count.dbg.spill.i50, metadata !1766, metadata !DIExpression()), !dbg !2101
  %152 = getelementptr inbounds i32, i32* %buffer, i64 %_270, !dbg !2102
  store i32* %152, i32** %25, align 8, !dbg !2102
  %_3.i52 = load i32*, i32** %25, align 8, !dbg !2102
  br label %bb68, !dbg !2103

bb68:                                             ; preds = %bb67
  store i32 %_263.0, i32* %_3.i52, align 4, !dbg !2104
  %fresh38 = load i32, i32* %i, align 4, !dbg !2105
  store i32 %fresh38, i32* %fresh38.dbg.spill, align 4, !dbg !2105
  call void @llvm.dbg.declare(metadata i32* %fresh38.dbg.spill, metadata !1735, metadata !DIExpression()), !dbg !2106
  %_273 = load i32, i32* %i, align 4, !dbg !2107
  %153 = call { i32, i1 } @llvm.sadd.with.overflow.i32(i32 %_273, i32 1), !dbg !2107
  %_274.0 = extractvalue { i32, i1 } %153, 0, !dbg !2107
  %_274.1 = extractvalue { i32, i1 } %153, 1, !dbg !2107
  %154 = call i1 @llvm.expect.i1(i1 %_274.1, i1 false), !dbg !2107
  br i1 %154, label %panic27, label %bb69, !dbg !2107

bb69:                                             ; preds = %bb68
  store i32 %_274.0, i32* %i, align 4, !dbg !2108
  %_275 = load i32, i32* %x_0, align 4, !dbg !2109
  %_278 = sext i32 %fresh38 to i64, !dbg !2110
  store i32* %buffer, i32** %self.dbg.spill.i48, align 8
  call void @llvm.dbg.declare(metadata i32** %self.dbg.spill.i48, metadata !1761, metadata !DIExpression()), !dbg !2111
  store i64 %_278, i64* %count.dbg.spill.i47, align 8
  call void @llvm.dbg.declare(metadata i64* %count.dbg.spill.i47, metadata !1766, metadata !DIExpression()), !dbg !2113
  %155 = getelementptr inbounds i32, i32* %buffer, i64 %_278, !dbg !2114
  store i32* %155, i32** %26, align 8, !dbg !2114
  %_3.i49 = load i32*, i32** %26, align 8, !dbg !2114
  br label %bb70, !dbg !2115

panic27:                                          ; preds = %bb68
; call core::panicking::panic
  call void @_ZN4core9panicking5panic17hf5844c0338bd061cE([0 x i8]* align 1 bitcast ([28 x i8]* @str.4 to [0 x i8]*), i64 28, %"core::panic::location::Location"* align 8 bitcast (<{ i8*, [16 x i8] }>* @alloc337 to %"core::panic::location::Location"*)) #12, !dbg !2107
  unreachable, !dbg !2107

bb70:                                             ; preds = %bb69
  store i32 %_275, i32* %_3.i49, align 4, !dbg !2116
  %156 = load i32, i32* %x_0, align 4, !dbg !2117
  %157 = call { i32, i1 } @llvm.sadd.with.overflow.i32(i32 %156, i32 1), !dbg !2117
  %_280.0 = extractvalue { i32, i1 } %157, 0, !dbg !2117
  %_280.1 = extractvalue { i32, i1 } %157, 1, !dbg !2117
  %158 = call i1 @llvm.expect.i1(i1 %_280.1, i1 false), !dbg !2117
  br i1 %158, label %panic28, label %bb71, !dbg !2117

bb71:                                             ; preds = %bb70
  store i32 %_280.0, i32* %x_0, align 4, !dbg !2117
  br label %bb64, !dbg !2088

panic28:                                          ; preds = %bb70
; call core::panicking::panic
  call void @_ZN4core9panicking5panic17hf5844c0338bd061cE([0 x i8]* align 1 bitcast ([28 x i8]* @str.4 to [0 x i8]*), i64 28, %"core::panic::location::Location"* align 8 bitcast (<{ i8*, [16 x i8] }>* @alloc339 to %"core::panic::location::Location"*)) #12, !dbg !2117
  unreachable, !dbg !2117

bb73:                                             ; preds = %bb80, %bb72
  %_283 = load i32, i32* %x_1, align 4, !dbg !2118
  %_282 = icmp slt i32 %_283, 140, !dbg !2118
  br i1 %_282, label %bb74, label %bb81, !dbg !2118

bb81:                                             ; preds = %bb73
  %fresh41 = load i32, i32* %i, align 4, !dbg !2119
  store i32 %fresh41, i32* %fresh41.dbg.spill, align 4, !dbg !2119
  call void @llvm.dbg.declare(metadata i32* %fresh41.dbg.spill, metadata !1743, metadata !DIExpression()), !dbg !2120
  %_308 = load i32, i32* %i, align 4, !dbg !2121
  %159 = call { i32, i1 } @llvm.sadd.with.overflow.i32(i32 %_308, i32 1), !dbg !2121
  %_309.0 = extractvalue { i32, i1 } %159, 0, !dbg !2121
  %_309.1 = extractvalue { i32, i1 } %159, 1, !dbg !2121
  %160 = call i1 @llvm.expect.i1(i1 %_309.1, i1 false), !dbg !2121
  br i1 %160, label %panic32, label %bb82, !dbg !2121

bb74:                                             ; preds = %bb73
  %fresh39 = load i32, i32* %i, align 4, !dbg !2122
  store i32 %fresh39, i32* %fresh39.dbg.spill, align 4, !dbg !2122
  call void @llvm.dbg.declare(metadata i32* %fresh39.dbg.spill, metadata !1739, metadata !DIExpression()), !dbg !2123
  %_286 = load i32, i32* %i, align 4, !dbg !2124
  %161 = call { i32, i1 } @llvm.sadd.with.overflow.i32(i32 %_286, i32 1), !dbg !2124
  %_287.0 = extractvalue { i32, i1 } %161, 0, !dbg !2124
  %_287.1 = extractvalue { i32, i1 } %161, 1, !dbg !2124
  %162 = call i1 @llvm.expect.i1(i1 %_287.1, i1 false), !dbg !2124
  br i1 %162, label %panic29, label %bb75, !dbg !2124

bb75:                                             ; preds = %bb74
  store i32 %_287.0, i32* %i, align 4, !dbg !2125
  %_292 = load i32, i32* %i, align 4, !dbg !2126
  %163 = cmpxchg i32* %x_1, i32 %_292, i32 87 seq_cst seq_cst, align 4, !dbg !2127
  %164 = extractvalue { i32, i1 } %163, 0, !dbg !2127
  %165 = extractvalue { i32, i1 } %163, 1, !dbg !2127
  %166 = zext i1 %165 to i8, !dbg !2127
  %167 = bitcast { i32, i8 }* %33 to i32*, !dbg !2127
  store i32 %164, i32* %167, align 4, !dbg !2127
  %168 = getelementptr inbounds { i32, i8 }, { i32, i8 }* %33, i32 0, i32 1, !dbg !2127
  store i8 %166, i8* %168, align 4, !dbg !2127
  %169 = getelementptr inbounds { i32, i8 }, { i32, i8 }* %33, i32 0, i32 0, !dbg !2127
  %_289.0 = load i32, i32* %169, align 4, !dbg !2127
  %170 = getelementptr inbounds { i32, i8 }, { i32, i8 }* %33, i32 0, i32 1, !dbg !2127
  %171 = load i8, i8* %170, align 4, !dbg !2127, !range !460, !noundef !23
  %_289.1 = trunc i8 %171 to i1, !dbg !2127
  br label %bb76, !dbg !2127

panic29:                                          ; preds = %bb74
; call core::panicking::panic
  call void @_ZN4core9panicking5panic17hf5844c0338bd061cE([0 x i8]* align 1 bitcast ([28 x i8]* @str.4 to [0 x i8]*), i64 28, %"core::panic::location::Location"* align 8 bitcast (<{ i8*, [16 x i8] }>* @alloc341 to %"core::panic::location::Location"*)) #12, !dbg !2124
  unreachable, !dbg !2124

bb76:                                             ; preds = %bb75
  %_296 = sext i32 %fresh39 to i64, !dbg !2128
  store i32* %buffer, i32** %self.dbg.spill.i45, align 8
  call void @llvm.dbg.declare(metadata i32** %self.dbg.spill.i45, metadata !1761, metadata !DIExpression()), !dbg !2129
  store i64 %_296, i64* %count.dbg.spill.i44, align 8
  call void @llvm.dbg.declare(metadata i64* %count.dbg.spill.i44, metadata !1766, metadata !DIExpression()), !dbg !2131
  %172 = getelementptr inbounds i32, i32* %buffer, i64 %_296, !dbg !2132
  store i32* %172, i32** %27, align 8, !dbg !2132
  %_3.i46 = load i32*, i32** %27, align 8, !dbg !2132
  br label %bb77, !dbg !2133

bb77:                                             ; preds = %bb76
  %173 = zext i1 %_289.1 to i32, !dbg !2134
  store i32 %173, i32* %_3.i46, align 4, !dbg !2134
  %fresh40 = load i32, i32* %i, align 4, !dbg !2135
  store i32 %fresh40, i32* %fresh40.dbg.spill, align 4, !dbg !2135
  call void @llvm.dbg.declare(metadata i32* %fresh40.dbg.spill, metadata !1741, metadata !DIExpression()), !dbg !2136
  %_299 = load i32, i32* %i, align 4, !dbg !2137
  %174 = call { i32, i1 } @llvm.sadd.with.overflow.i32(i32 %_299, i32 1), !dbg !2137
  %_300.0 = extractvalue { i32, i1 } %174, 0, !dbg !2137
  %_300.1 = extractvalue { i32, i1 } %174, 1, !dbg !2137
  %175 = call i1 @llvm.expect.i1(i1 %_300.1, i1 false), !dbg !2137
  br i1 %175, label %panic30, label %bb78, !dbg !2137

bb78:                                             ; preds = %bb77
  store i32 %_300.0, i32* %i, align 4, !dbg !2138
  %_301 = load i32, i32* %x_1, align 4, !dbg !2139
  %_304 = sext i32 %fresh40 to i64, !dbg !2140
  store i32* %buffer, i32** %self.dbg.spill.i42, align 8
  call void @llvm.dbg.declare(metadata i32** %self.dbg.spill.i42, metadata !1761, metadata !DIExpression()), !dbg !2141
  store i64 %_304, i64* %count.dbg.spill.i41, align 8
  call void @llvm.dbg.declare(metadata i64* %count.dbg.spill.i41, metadata !1766, metadata !DIExpression()), !dbg !2143
  %176 = getelementptr inbounds i32, i32* %buffer, i64 %_304, !dbg !2144
  store i32* %176, i32** %28, align 8, !dbg !2144
  %_3.i43 = load i32*, i32** %28, align 8, !dbg !2144
  br label %bb79, !dbg !2145

panic30:                                          ; preds = %bb77
; call core::panicking::panic
  call void @_ZN4core9panicking5panic17hf5844c0338bd061cE([0 x i8]* align 1 bitcast ([28 x i8]* @str.4 to [0 x i8]*), i64 28, %"core::panic::location::Location"* align 8 bitcast (<{ i8*, [16 x i8] }>* @alloc343 to %"core::panic::location::Location"*)) #12, !dbg !2137
  unreachable, !dbg !2137

bb79:                                             ; preds = %bb78
  store i32 %_301, i32* %_3.i43, align 4, !dbg !2146
  %177 = load i32, i32* %x_1, align 4, !dbg !2147
  %178 = call { i32, i1 } @llvm.sadd.with.overflow.i32(i32 %177, i32 1), !dbg !2147
  %_306.0 = extractvalue { i32, i1 } %178, 0, !dbg !2147
  %_306.1 = extractvalue { i32, i1 } %178, 1, !dbg !2147
  %179 = call i1 @llvm.expect.i1(i1 %_306.1, i1 false), !dbg !2147
  br i1 %179, label %panic31, label %bb80, !dbg !2147

bb80:                                             ; preds = %bb79
  store i32 %_306.0, i32* %x_1, align 4, !dbg !2147
  br label %bb73, !dbg !2091

panic31:                                          ; preds = %bb79
; call core::panicking::panic
  call void @_ZN4core9panicking5panic17hf5844c0338bd061cE([0 x i8]* align 1 bitcast ([28 x i8]* @str.4 to [0 x i8]*), i64 28, %"core::panic::location::Location"* align 8 bitcast (<{ i8*, [16 x i8] }>* @alloc345 to %"core::panic::location::Location"*)) #12, !dbg !2147
  unreachable, !dbg !2147

bb82:                                             ; preds = %bb81
  store i32 %_309.0, i32* %i, align 4, !dbg !2148
  %180 = atomicrmw xchg i32* %x, i32 33 acquire, align 4, !dbg !2149
  store i32 %180, i32* %32, align 4, !dbg !2149
  %_310 = load i32, i32* %32, align 4, !dbg !2149
  br label %bb83, !dbg !2149

panic32:                                          ; preds = %bb81
; call core::panicking::panic
  call void @_ZN4core9panicking5panic17hf5844c0338bd061cE([0 x i8]* align 1 bitcast ([28 x i8]* @str.4 to [0 x i8]*), i64 28, %"core::panic::location::Location"* align 8 bitcast (<{ i8*, [16 x i8] }>* @alloc347 to %"core::panic::location::Location"*)) #12, !dbg !2121
  unreachable, !dbg !2121

bb83:                                             ; preds = %bb82
  %_316 = sext i32 %fresh41 to i64, !dbg !2150
  store i32* %buffer, i32** %self.dbg.spill.i39, align 8
  call void @llvm.dbg.declare(metadata i32** %self.dbg.spill.i39, metadata !1761, metadata !DIExpression()), !dbg !2151
  store i64 %_316, i64* %count.dbg.spill.i38, align 8
  call void @llvm.dbg.declare(metadata i64* %count.dbg.spill.i38, metadata !1766, metadata !DIExpression()), !dbg !2153
  %181 = getelementptr inbounds i32, i32* %buffer, i64 %_316, !dbg !2154
  store i32* %181, i32** %29, align 8, !dbg !2154
  %_3.i40 = load i32*, i32** %29, align 8, !dbg !2154
  br label %bb84, !dbg !2155

bb84:                                             ; preds = %bb83
  store i32 %_310, i32* %_3.i40, align 4, !dbg !2156
  %fresh42 = load i32, i32* %i, align 4, !dbg !2157
  store i32 %fresh42, i32* %fresh42.dbg.spill, align 4, !dbg !2157
  call void @llvm.dbg.declare(metadata i32* %fresh42.dbg.spill, metadata !1745, metadata !DIExpression()), !dbg !2158
  %_319 = load i32, i32* %i, align 4, !dbg !2159
  %182 = call { i32, i1 } @llvm.sadd.with.overflow.i32(i32 %_319, i32 1), !dbg !2159
  %_320.0 = extractvalue { i32, i1 } %182, 0, !dbg !2159
  %_320.1 = extractvalue { i32, i1 } %182, 1, !dbg !2159
  %183 = call i1 @llvm.expect.i1(i1 %_320.1, i1 false), !dbg !2159
  br i1 %183, label %panic33, label %bb85, !dbg !2159

bb85:                                             ; preds = %bb84
  store i32 %_320.0, i32* %i, align 4, !dbg !2160
  %_321 = load i32, i32* %x, align 4, !dbg !2161
  %_324 = sext i32 %fresh42 to i64, !dbg !2162
  store i32* %buffer, i32** %self.dbg.spill.i36, align 8
  call void @llvm.dbg.declare(metadata i32** %self.dbg.spill.i36, metadata !1761, metadata !DIExpression()), !dbg !2163
  store i64 %_324, i64* %count.dbg.spill.i35, align 8
  call void @llvm.dbg.declare(metadata i64* %count.dbg.spill.i35, metadata !1766, metadata !DIExpression()), !dbg !2165
  %184 = getelementptr inbounds i32, i32* %buffer, i64 %_324, !dbg !2166
  store i32* %184, i32** %30, align 8, !dbg !2166
  %_3.i37 = load i32*, i32** %30, align 8, !dbg !2166
  br label %bb86, !dbg !2167

panic33:                                          ; preds = %bb84
; call core::panicking::panic
  call void @_ZN4core9panicking5panic17hf5844c0338bd061cE([0 x i8]* align 1 bitcast ([28 x i8]* @str.4 to [0 x i8]*), i64 28, %"core::panic::location::Location"* align 8 bitcast (<{ i8*, [16 x i8] }>* @alloc349 to %"core::panic::location::Location"*)) #12, !dbg !2159
  unreachable, !dbg !2159

bb86:                                             ; preds = %bb85
  store i32 %_321, i32* %_3.i37, align 4, !dbg !2168
  store atomic i32 0, i32* %x release, align 4, !dbg !2169
  br label %bb87, !dbg !2169

bb87:                                             ; preds = %bb86
  %fresh43 = load i32, i32* %i, align 4, !dbg !2170
  store i32 %fresh43, i32* %fresh43.dbg.spill, align 4, !dbg !2170
  call void @llvm.dbg.declare(metadata i32* %fresh43.dbg.spill, metadata !1747, metadata !DIExpression()), !dbg !2171
  %_330 = load i32, i32* %i, align 4, !dbg !2172
  %185 = call { i32, i1 } @llvm.sadd.with.overflow.i32(i32 %_330, i32 1), !dbg !2172
  %_331.0 = extractvalue { i32, i1 } %185, 0, !dbg !2172
  %_331.1 = extractvalue { i32, i1 } %185, 1, !dbg !2172
  %186 = call i1 @llvm.expect.i1(i1 %_331.1, i1 false), !dbg !2172
  br i1 %186, label %panic34, label %bb88, !dbg !2172

bb88:                                             ; preds = %bb87
  store i32 %_331.0, i32* %i, align 4, !dbg !2173
  %_332 = load i32, i32* %x, align 4, !dbg !2174
  %_335 = sext i32 %fresh43 to i64, !dbg !2175
  store i32* %buffer, i32** %self.dbg.spill.i, align 8
  call void @llvm.dbg.declare(metadata i32** %self.dbg.spill.i, metadata !1761, metadata !DIExpression()), !dbg !2176
  store i64 %_335, i64* %count.dbg.spill.i, align 8
  call void @llvm.dbg.declare(metadata i64* %count.dbg.spill.i, metadata !1766, metadata !DIExpression()), !dbg !2178
  %187 = getelementptr inbounds i32, i32* %buffer, i64 %_335, !dbg !2179
  store i32* %187, i32** %31, align 8, !dbg !2179
  %_3.i = load i32*, i32** %31, align 8, !dbg !2179
  br label %bb89, !dbg !2180

panic34:                                          ; preds = %bb87
; call core::panicking::panic
  call void @_ZN4core9panicking5panic17hf5844c0338bd061cE([0 x i8]* align 1 bitcast ([28 x i8]* @str.4 to [0 x i8]*), i64 28, %"core::panic::location::Location"* align 8 bitcast (<{ i8*, [16 x i8] }>* @alloc351 to %"core::panic::location::Location"*)) #12, !dbg !2172
  unreachable, !dbg !2172

bb89:                                             ; preds = %bb88
  store i32 %_332, i32* %_3.i, align 4, !dbg !2181
  ret void, !dbg !2182
}

; Function Attrs: nonlazybind uwtable
define dso_local void @rust_new_atomics(i32 %buffer_size, i32* %buffer) unnamed_addr #1 !dbg !2183 {
start:
  %0 = alloca i32*, align 8
  %count.dbg.spill.i126 = alloca i64, align 8
  %self.dbg.spill.i127 = alloca i32*, align 8
  %1 = alloca i32*, align 8
  %count.dbg.spill.i123 = alloca i64, align 8
  %self.dbg.spill.i124 = alloca i32*, align 8
  %2 = alloca i32*, align 8
  %count.dbg.spill.i120 = alloca i64, align 8
  %self.dbg.spill.i121 = alloca i32*, align 8
  %3 = alloca i32*, align 8
  %count.dbg.spill.i117 = alloca i64, align 8
  %self.dbg.spill.i118 = alloca i32*, align 8
  %4 = alloca i32*, align 8
  %count.dbg.spill.i114 = alloca i64, align 8
  %self.dbg.spill.i115 = alloca i32*, align 8
  %5 = alloca i32*, align 8
  %count.dbg.spill.i111 = alloca i64, align 8
  %self.dbg.spill.i112 = alloca i32*, align 8
  %6 = alloca i32*, align 8
  %count.dbg.spill.i108 = alloca i64, align 8
  %self.dbg.spill.i109 = alloca i32*, align 8
  %7 = alloca i32*, align 8
  %count.dbg.spill.i105 = alloca i64, align 8
  %self.dbg.spill.i106 = alloca i32*, align 8
  %8 = alloca i32*, align 8
  %count.dbg.spill.i102 = alloca i64, align 8
  %self.dbg.spill.i103 = alloca i32*, align 8
  %9 = alloca i32*, align 8
  %count.dbg.spill.i99 = alloca i64, align 8
  %self.dbg.spill.i100 = alloca i32*, align 8
  %10 = alloca i32*, align 8
  %count.dbg.spill.i96 = alloca i64, align 8
  %self.dbg.spill.i97 = alloca i32*, align 8
  %11 = alloca i32*, align 8
  %count.dbg.spill.i93 = alloca i64, align 8
  %self.dbg.spill.i94 = alloca i32*, align 8
  %12 = alloca i32*, align 8
  %count.dbg.spill.i90 = alloca i64, align 8
  %self.dbg.spill.i91 = alloca i32*, align 8
  %13 = alloca i32*, align 8
  %count.dbg.spill.i87 = alloca i64, align 8
  %self.dbg.spill.i88 = alloca i32*, align 8
  %14 = alloca i32*, align 8
  %count.dbg.spill.i84 = alloca i64, align 8
  %self.dbg.spill.i85 = alloca i32*, align 8
  %15 = alloca i32*, align 8
  %count.dbg.spill.i81 = alloca i64, align 8
  %self.dbg.spill.i82 = alloca i32*, align 8
  %16 = alloca i32*, align 8
  %count.dbg.spill.i78 = alloca i64, align 8
  %self.dbg.spill.i79 = alloca i32*, align 8
  %17 = alloca i32*, align 8
  %count.dbg.spill.i75 = alloca i64, align 8
  %self.dbg.spill.i76 = alloca i32*, align 8
  %18 = alloca i32*, align 8
  %count.dbg.spill.i72 = alloca i64, align 8
  %self.dbg.spill.i73 = alloca i32*, align 8
  %19 = alloca i32*, align 8
  %count.dbg.spill.i69 = alloca i64, align 8
  %self.dbg.spill.i70 = alloca i32*, align 8
  %20 = alloca i32*, align 8
  %count.dbg.spill.i66 = alloca i64, align 8
  %self.dbg.spill.i67 = alloca i32*, align 8
  %21 = alloca i32*, align 8
  %count.dbg.spill.i63 = alloca i64, align 8
  %self.dbg.spill.i64 = alloca i32*, align 8
  %22 = alloca i32*, align 8
  %count.dbg.spill.i60 = alloca i64, align 8
  %self.dbg.spill.i61 = alloca i32*, align 8
  %23 = alloca i32*, align 8
  %count.dbg.spill.i57 = alloca i64, align 8
  %self.dbg.spill.i58 = alloca i32*, align 8
  %24 = alloca i32*, align 8
  %count.dbg.spill.i54 = alloca i64, align 8
  %self.dbg.spill.i55 = alloca i32*, align 8
  %25 = alloca i32*, align 8
  %count.dbg.spill.i51 = alloca i64, align 8
  %self.dbg.spill.i52 = alloca i32*, align 8
  %26 = alloca i32*, align 8
  %count.dbg.spill.i48 = alloca i64, align 8
  %self.dbg.spill.i49 = alloca i32*, align 8
  %27 = alloca i32*, align 8
  %count.dbg.spill.i45 = alloca i64, align 8
  %self.dbg.spill.i46 = alloca i32*, align 8
  %28 = alloca i32*, align 8
  %count.dbg.spill.i42 = alloca i64, align 8
  %self.dbg.spill.i43 = alloca i32*, align 8
  %29 = alloca i32*, align 8
  %count.dbg.spill.i39 = alloca i64, align 8
  %self.dbg.spill.i40 = alloca i32*, align 8
  %30 = alloca i32*, align 8
  %count.dbg.spill.i36 = alloca i64, align 8
  %self.dbg.spill.i37 = alloca i32*, align 8
  %31 = alloca i32*, align 8
  %count.dbg.spill.i = alloca i64, align 8
  %self.dbg.spill.i = alloca i32*, align 8
  %fresh89.dbg.spill = alloca i32, align 4
  %fresh88.dbg.spill = alloca i32, align 4
  %32 = alloca i32, align 4
  %fresh87.dbg.spill = alloca i32, align 4
  %fresh86.dbg.spill = alloca i32, align 4
  %fresh85.dbg.spill = alloca i32, align 4
  %fresh84.dbg.spill = alloca { i32, i8 }, align 4
  %33 = alloca { i32, i8 }, align 4
  %fresh83.dbg.spill = alloca i32, align 4
  %fresh82.dbg.spill = alloca i32, align 4
  %fresh81.dbg.spill = alloca { i32, i8 }, align 4
  %34 = alloca { i32, i8 }, align 4
  %fresh80.dbg.spill = alloca i32, align 4
  %fresh79.dbg.spill = alloca i32, align 4
  %35 = alloca i32, align 4
  %fresh78.dbg.spill = alloca i32, align 4
  %fresh77.dbg.spill = alloca i32, align 4
  %fresh76.dbg.spill = alloca i32*, align 8
  %fresh75.dbg.spill = alloca i32, align 4
  %36 = alloca i32, align 4
  %fresh74.dbg.spill = alloca i32, align 4
  %fresh73.dbg.spill = alloca i32, align 4
  %fresh72.dbg.spill = alloca i32*, align 8
  %fresh71.dbg.spill = alloca i32, align 4
  %37 = alloca i32, align 4
  %fresh70.dbg.spill = alloca i32, align 4
  %fresh69.dbg.spill = alloca i32, align 4
  %fresh68.dbg.spill = alloca i32*, align 8
  %fresh67.dbg.spill = alloca i32, align 4
  %38 = alloca i32, align 4
  %fresh66.dbg.spill = alloca i32, align 4
  %fresh65.dbg.spill = alloca i32, align 4
  %fresh64.dbg.spill = alloca i32*, align 8
  %fresh63.dbg.spill = alloca i32, align 4
  %39 = alloca i32, align 4
  %fresh62.dbg.spill = alloca i32, align 4
  %fresh61.dbg.spill = alloca i32, align 4
  %fresh60.dbg.spill = alloca i32*, align 8
  %fresh59.dbg.spill = alloca i32, align 4
  %40 = alloca i32, align 4
  %fresh58.dbg.spill = alloca i32, align 4
  %fresh57.dbg.spill = alloca i32, align 4
  %fresh56.dbg.spill = alloca i32*, align 8
  %fresh55.dbg.spill = alloca i32, align 4
  %41 = alloca i32, align 4
  %fresh54.dbg.spill = alloca i32, align 4
  %fresh53.dbg.spill = alloca i32, align 4
  %42 = alloca i32, align 4
  %fresh52.dbg.spill = alloca i32, align 4
  %fresh51.dbg.spill = alloca i32, align 4
  %43 = alloca i32, align 4
  %fresh50.dbg.spill = alloca i32, align 4
  %fresh49.dbg.spill = alloca i32, align 4
  %44 = alloca i32, align 4
  %fresh48.dbg.spill = alloca i32, align 4
  %fresh47.dbg.spill = alloca i32, align 4
  %45 = alloca i32, align 4
  %fresh46.dbg.spill = alloca i32, align 4
  %fresh45.dbg.spill = alloca i32, align 4
  %46 = alloca i32, align 4
  %fresh44.dbg.spill = alloca i32, align 4
  %buffer.dbg.spill = alloca i32*, align 8
  %buffer_size.dbg.spill = alloca i32, align 4
  %x_1 = alloca i32, align 4
  %val = alloca i32, align 4
  %x_0 = alloca i32, align 4
  %x = alloca i32, align 4
  %i = alloca i32, align 4
  store i32 %buffer_size, i32* %buffer_size.dbg.spill, align 4
  call void @llvm.dbg.declare(metadata i32* %buffer_size.dbg.spill, metadata !2185, metadata !DIExpression()), !dbg !2293
  store i32* %buffer, i32** %buffer.dbg.spill, align 8
  call void @llvm.dbg.declare(metadata i32** %buffer.dbg.spill, metadata !2186, metadata !DIExpression()), !dbg !2294
  call void @llvm.dbg.declare(metadata i32* %i, metadata !2187, metadata !DIExpression()), !dbg !2295
  call void @llvm.dbg.declare(metadata i32* %x, metadata !2189, metadata !DIExpression()), !dbg !2296
  call void @llvm.dbg.declare(metadata i32* %x_0, metadata !2265, metadata !DIExpression()), !dbg !2297
  call void @llvm.dbg.declare(metadata i32* %val, metadata !2277, metadata !DIExpression()), !dbg !2298
  call void @llvm.dbg.declare(metadata i32* %x_1, metadata !2279, metadata !DIExpression()), !dbg !2299
  store i32 0, i32* %i, align 4, !dbg !2300
  store i32 34, i32* %x, align 4, !dbg !2301
  %fresh44 = load i32, i32* %i, align 4, !dbg !2302
  store i32 %fresh44, i32* %fresh44.dbg.spill, align 4, !dbg !2302
  call void @llvm.dbg.declare(metadata i32* %fresh44.dbg.spill, metadata !2191, metadata !DIExpression()), !dbg !2303
  %_6 = load i32, i32* %i, align 4, !dbg !2304
  %47 = call { i32, i1 } @llvm.sadd.with.overflow.i32(i32 %_6, i32 1), !dbg !2304
  %_7.0 = extractvalue { i32, i1 } %47, 0, !dbg !2304
  %_7.1 = extractvalue { i32, i1 } %47, 1, !dbg !2304
  %48 = call i1 @llvm.expect.i1(i1 %_7.1, i1 false), !dbg !2304
  br i1 %48, label %panic, label %bb1, !dbg !2304

bb1:                                              ; preds = %start
  store i32 %_7.0, i32* %i, align 4, !dbg !2305
  %49 = atomicrmw add i32* %x, i32 55 monotonic, align 4, !dbg !2306
  store i32 %49, i32* %46, align 4, !dbg !2306
  %_8 = load i32, i32* %46, align 4, !dbg !2306
  br label %bb2, !dbg !2306

panic:                                            ; preds = %start
