; ModuleID = '1okgkgp8buxkjonj'
source_filename = "1okgkgp8buxkjonj"
target datalayout = "e-m:e-p270:32:32-p271:32:32-p272:64:64-i64:64-f80:128-n8:16:32:64-S128"
target triple = "x86_64-unknown-linux-gnu"

%"core::fmt::Formatter" = type { { i64, i64 }, { i64, i64 }, { {}*, [3 x i64]* }, i32, i32, i8, [7 x i8] }
%"core::fmt::builders::DebugList" = type { %"core::fmt::builders::DebugInner" }
%"core::fmt::builders::DebugInner" = type { %"core::fmt::Formatter"*, i8, i8, [6 x i8] }
%"core::fmt::Opaque" = type {}
%"core::fmt::Arguments" = type { { [0 x { [0 x i8]*, i64 }]*, i64 }, { i64*, i64 }, { [0 x { i8*, i64* }]*, i64 } }
%"core::panic::location::Location" = type { { [0 x i8]*, i64 }, i32, i32 }
%"[closure@src/test_goto.rs:49:1: 60:2]" = type {}
%"[closure@src/test_loops.rs:12:1: 30:2]" = type {}
%"[closure@src/test_switch.rs:10:1: 28:2]" = type {}
%"[closure@src/test_goto.rs:21:1: 32:2]" = type {}
%"[closure@src/test_goto.rs:35:1: 46:2]" = type {}
%"core::ops::range::RangeFull" = type {}
%"core::ptr::metadata::PtrComponents<u8>" = type { {}*, {} }
%"core::ptr::metadata::PtrRepr<u8>" = type { [1 x i64] }
%"core::option::Option<core::fmt::Arguments>" = type { {}*, [5 x i64] }
%"core::option::Option<core::fmt::Arguments>::Some" = type { %"core::fmt::Arguments" }
%"test::types::TestDescAndFn" = type { %"test::types::TestDesc", %"test::types::TestFn" }
%"test::types::TestDesc" = type { %"test::types::TestName", { i8*, i64 }, %"test::options::ShouldPanic", i8, i8, i8, i8, [4 x i8] }
%"test::types::TestName" = type { i8, [39 x i8] }
%"test::options::ShouldPanic" = type { i64, [2 x i64] }
%"test::types::TestFn" = type { i64, [2 x i64] }
%"unwind::libunwind::_Unwind_Exception" = type { i64, void (i32, %"unwind::libunwind::_Unwind_Exception"*)*, [6 x i64] }
%"unwind::libunwind::_Unwind_Context" = type { [0 x i8] }

@vtable.0 = private unnamed_addr constant <{ i8*, [16 x i8], i8*, i8*, i8* }> <{ i8* bitcast (void (i64**)* @"_ZN4core3ptr85drop_in_place$LT$std..rt..lang_start$LT$$LP$$RP$$GT$..$u7b$$u7b$closure$u7d$$u7d$$GT$17h2a9cbcc4a095d991E" to i8*), [16 x i8] c"\08\00\00\00\00\00\00\00\08\00\00\00\00\00\00\00", i8* bitcast (i32 (i64**)* @"_ZN4core3ops8function6FnOnce40call_once$u7b$$u7b$vtable.shim$u7d$$u7d$17h6c7521fa448cb4c7E" to i8*), i8* bitcast (i32 (i64**)* @"_ZN3std2rt10lang_start28_$u7b$$u7b$closure$u7d$$u7d$17hcf995a3f0c831d74E" to i8*), i8* bitcast (i32 (i64**)* @"_ZN3std2rt10lang_start28_$u7b$$u7b$closure$u7d$$u7d$17hcf995a3f0c831d74E" to i8*) }>, align 8, !dbg !0
@vtable.1 = private unnamed_addr constant <{ i8*, [16 x i8], i8* }> <{ i8* bitcast (void (i32**)* @"_ZN4core3ptr28drop_in_place$LT$$RF$i32$GT$17hd1fd4c1fd9717dbfE" to i8*), [16 x i8] c"\08\00\00\00\00\00\00\00\08\00\00\00\00\00\00\00", i8* bitcast (i1 (i32**, %"core::fmt::Formatter"*)* @"_ZN42_$LT$$RF$T$u20$as$u20$core..fmt..Debug$GT$3fmt17h93d58beb3edfd989E" to i8*) }>, align 8, !dbg !24
@alloc137 = private unnamed_addr constant <{ [12 x i8] }> <{ [12 x i8] c"invalid args" }>, align 1
@alloc138 = private unnamed_addr constant <{ i8*, [8 x i8] }> <{ i8* getelementptr inbounds (<{ [12 x i8] }>, <{ [12 x i8] }>* @alloc137, i32 0, i32 0, i32 0), [8 x i8] c"\0C\00\00\00\00\00\00\00" }>, align 8
@alloc140 = private unnamed_addr constant <{}> zeroinitializer, align 8
@alloc274 = private unnamed_addr constant <{ [75 x i8] }> <{ [75 x i8] c"/rustc/d394408fb38c4de61f765a3ed5189d2731a1da91/library/core/src/fmt/mod.rs" }>, align 1
@alloc275 = private unnamed_addr constant <{ i8*, [16 x i8] }> <{ i8* getelementptr inbounds (<{ [75 x i8] }>, <{ [75 x i8] }>* @alloc274, i32 0, i32 0, i32 0), [16 x i8] c"K\00\00\00\00\00\00\00\88\01\00\00\0D\00\00\00" }>, align 8
@vtable.2 = private unnamed_addr constant <{ i8*, [16 x i8], i8* }> <{ i8* bitcast (void ([12 x i32]**)* @"_ZN4core3ptr50drop_in_place$LT$$RF$$u5b$i32$u3b$$u20$12$u5d$$GT$17h71e61bf3eaa14744E" to i8*), [16 x i8] c"\08\00\00\00\00\00\00\00\08\00\00\00\00\00\00\00", i8* bitcast (i1 ([12 x i32]**, %"core::fmt::Formatter"*)* @"_ZN42_$LT$$RF$T$u20$as$u20$core..fmt..Debug$GT$3fmt17h1904fca8808438abE" to i8*) }>, align 8, !dbg !34
@vtable.3 = private unnamed_addr constant <{ i8*, [16 x i8], i8* }> <{ i8* bitcast (void ([6 x i32]**)* @"_ZN4core3ptr49drop_in_place$LT$$RF$$u5b$i32$u3b$$u20$6$u5d$$GT$17h7cfbb3791a1affb3E" to i8*), [16 x i8] c"\08\00\00\00\00\00\00\00\08\00\00\00\00\00\00\00", i8* bitcast (i1 ([6 x i32]**, %"core::fmt::Formatter"*)* @"_ZN42_$LT$$RF$T$u20$as$u20$core..fmt..Debug$GT$3fmt17h4e5239e1f5fafb82E" to i8*) }>, align 8, !dbg !46
@vtable.4 = private unnamed_addr constant <{ i8*, [16 x i8], i8* }> <{ i8* bitcast (void ([4 x i32]**)* @"_ZN4core3ptr49drop_in_place$LT$$RF$$u5b$i32$u3b$$u20$4$u5d$$GT$17h2ff979966a08d14bE" to i8*), [16 x i8] c"\08\00\00\00\00\00\00\00\08\00\00\00\00\00\00\00", i8* bitcast (i1 ([4 x i32]**, %"core::fmt::Formatter"*)* @"_ZN42_$LT$$RF$T$u20$as$u20$core..fmt..Debug$GT$3fmt17h96e665ed33f15194E" to i8*) }>, align 8, !dbg !58
@alloc126 = private unnamed_addr constant <{ [4 x i8] }> zeroinitializer, align 4
@alloc128 = private unnamed_addr constant <{ [67 x i8] }> <{ [67 x i8] c"the test returned a termination value with a non-zero status code (" }>, align 1
@alloc130 = private unnamed_addr constant <{ [27 x i8] }> <{ [27 x i8] c") which indicates a failure" }>, align 1
@alloc129 = private unnamed_addr constant <{ i8*, [8 x i8], i8*, [8 x i8] }> <{ i8* getelementptr inbounds (<{ [67 x i8] }>, <{ [67 x i8] }>* @alloc128, i32 0, i32 0, i32 0), [8 x i8] c"C\00\00\00\00\00\00\00", i8* getelementptr inbounds (<{ [27 x i8] }>, <{ [27 x i8] }>* @alloc130, i32 0, i32 0, i32 0), [8 x i8] c"\1B\00\00\00\00\00\00\00" }>, align 8
@alloc285 = private unnamed_addr constant <{ [71 x i8] }> <{ [71 x i8] c"/rustc/d394408fb38c4de61f765a3ed5189d2731a1da91/library/test/src/lib.rs" }>, align 1
@alloc286 = private unnamed_addr constant <{ i8*, [16 x i8] }> <{ i8* getelementptr inbounds (<{ [71 x i8] }>, <{ [71 x i8] }>* @alloc285, i32 0, i32 0, i32 0), [16 x i8] c"G\00\00\00\00\00\00\00\B8\00\00\00\05\00\00\00" }>, align 8
@alloc289 = private unnamed_addr constant <{ [19 x i8] }> <{ [19 x i8] c"src/goto_loop_cf.rs" }>, align 1
@alloc288 = private unnamed_addr constant <{ i8*, [16 x i8] }> <{ i8* getelementptr inbounds (<{ [19 x i8] }>, <{ [19 x i8] }>* @alloc289, i32 0, i32 0, i32 0), [16 x i8] c"\13\00\00\00\00\00\00\00\11\00\00\00\09\00\00\00" }>, align 8
@str.5 = internal constant [28 x i8] c"attempt to add with overflow"
@alloc290 = private unnamed_addr constant <{ i8*, [16 x i8] }> <{ i8* getelementptr inbounds (<{ [19 x i8] }>, <{ [19 x i8] }>* @alloc289, i32 0, i32 0, i32 0), [16 x i8] c"\13\00\00\00\00\00\00\00\16\00\00\00\09\00\00\00" }>, align 8
@alloc293 = private unnamed_addr constant <{ [21 x i8] }> <{ [21 x i8] c"src/goto_linear_cf.rs" }>, align 1
@alloc292 = private unnamed_addr constant <{ i8*, [16 x i8] }> <{ i8* getelementptr inbounds (<{ [21 x i8] }>, <{ [21 x i8] }>* @alloc293, i32 0, i32 0, i32 0), [16 x i8] c"\15\00\00\00\00\00\00\00\12\00\00\00\05\00\00\00" }>, align 8
@alloc294 = private unnamed_addr constant <{ i8*, [16 x i8] }> <{ i8* getelementptr inbounds (<{ [21 x i8] }>, <{ [21 x i8] }>* @alloc293, i32 0, i32 0, i32 0), [16 x i8] c"\15\00\00\00\00\00\00\00\14\00\00\00\05\00\00\00" }>, align 8
@alloc295 = private unnamed_addr constant <{ [13 x i8] }> <{ [13 x i8] c"src/switch.rs" }>, align 1
@alloc296 = private unnamed_addr constant <{ i8*, [16 x i8] }> <{ i8* getelementptr inbounds (<{ [13 x i8] }>, <{ [13 x i8] }>* @alloc295, i32 0, i32 0, i32 0), [16 x i8] c"\0D\00\00\00\00\00\00\00\0F\00\00\00\15\00\00\00" }>, align 8
@alloc309 = private unnamed_addr constant <{ [21 x i8] }> <{ [21 x i8] c"src/goto_switch_cf.rs" }>, align 1
@alloc298 = private unnamed_addr constant <{ i8*, [16 x i8] }> <{ i8* getelementptr inbounds (<{ [21 x i8] }>, <{ [21 x i8] }>* @alloc309, i32 0, i32 0, i32 0), [16 x i8] c"\15\00\00\00\00\00\00\00&\00\00\00\11\00\00\00" }>, align 8
@alloc300 = private unnamed_addr constant <{ i8*, [16 x i8] }> <{ i8* getelementptr inbounds (<{ [21 x i8] }>, <{ [21 x i8] }>* @alloc309, i32 0, i32 0, i32 0), [16 x i8] c"\15\00\00\00\00\00\00\00(\00\00\00 \00\00\00" }>, align 8
@alloc302 = private unnamed_addr constant <{ i8*, [16 x i8] }> <{ i8* getelementptr inbounds (<{ [21 x i8] }>, <{ [21 x i8] }>* @alloc309, i32 0, i32 0, i32 0), [16 x i8] c"\15\00\00\00\00\00\00\00 \00\00\00 \00\00\00" }>, align 8
@alloc304 = private unnamed_addr constant <{ i8*, [16 x i8] }> <{ i8* getelementptr inbounds (<{ [21 x i8] }>, <{ [21 x i8] }>* @alloc309, i32 0, i32 0, i32 0), [16 x i8] c"\15\00\00\00\00\00\00\00\14\00\00\00\11\00\00\00" }>, align 8
@alloc306 = private unnamed_addr constant <{ i8*, [16 x i8] }> <{ i8* getelementptr inbounds (<{ [21 x i8] }>, <{ [21 x i8] }>* @alloc309, i32 0, i32 0, i32 0), [16 x i8] c"\15\00\00\00\00\00\00\00\16\00\00\00 \00\00\00" }>, align 8
@alloc308 = private unnamed_addr constant <{ i8*, [16 x i8] }> <{ i8* getelementptr inbounds (<{ [21 x i8] }>, <{ [21 x i8] }>* @alloc309, i32 0, i32 0, i32 0), [16 x i8] c"\15\00\00\00\00\00\00\00/\00\00\00\0D\00\00\00" }>, align 8
@alloc310 = private unnamed_addr constant <{ i8*, [16 x i8] }> <{ i8* getelementptr inbounds (<{ [21 x i8] }>, <{ [21 x i8] }>* @alloc309, i32 0, i32 0, i32 0), [16 x i8] c"\15\00\00\00\00\00\00\001\00\00\00\1C\00\00\00" }>, align 8
@alloc313 = private unnamed_addr constant <{ [18 x i8] }> <{ [18 x i8] c"src/nested_goto.rs" }>, align 1
@alloc312 = private unnamed_addr constant <{ i8*, [16 x i8] }> <{ i8* getelementptr inbounds (<{ [18 x i8] }>, <{ [18 x i8] }>* @alloc313, i32 0, i32 0, i32 0), [16 x i8] c"\12\00\00\00\00\00\00\00-\00\00\00\19\00\00\00" }>, align 8
@str.6 = internal constant [33 x i8] c"attempt to subtract with overflow"
@alloc13 = private unnamed_addr constant <{ [16 x i8] }> <{ [16 x i8] c"didn't hit goto\00" }>, align 1
@alloc14 = private unnamed_addr constant <{ [12 x i8] }> <{ [12 x i8] c"after label\00" }>, align 1
@alloc314 = private unnamed_addr constant <{ i8*, [16 x i8] }> <{ i8* getelementptr inbounds (<{ [18 x i8] }>, <{ [18 x i8] }>* @alloc313, i32 0, i32 0, i32 0), [16 x i8] c"\12\00\00\00\00\00\00\005\00\00\00\09\00\00\00" }>, align 8
@alloc331 = private unnamed_addr constant <{ [21 x i8] }> <{ [21 x i8] c"src/break_continue.rs" }>, align 1
@alloc316 = private unnamed_addr constant <{ i8*, [16 x i8] }> <{ i8* getelementptr inbounds (<{ [21 x i8] }>, <{ [21 x i8] }>* @alloc331, i32 0, i32 0, i32 0), [16 x i8] c"\15\00\00\00\00\00\00\00\13\00\00\00\11\00\00\00" }>, align 8
@alloc318 = private unnamed_addr constant <{ i8*, [16 x i8] }> <{ i8* getelementptr inbounds (<{ [21 x i8] }>, <{ [21 x i8] }>* @alloc331, i32 0, i32 0, i32 0), [16 x i8] c"\15\00\00\00\00\00\00\00\18\00\00\00\11\00\00\00" }>, align 8
@alloc320 = private unnamed_addr constant <{ i8*, [16 x i8] }> <{ i8* getelementptr inbounds (<{ [21 x i8] }>, <{ [21 x i8] }>* @alloc331, i32 0, i32 0, i32 0), [16 x i8] c"\15\00\00\00\00\00\00\00 \00\00\00\11\00\00\00" }>, align 8
@alloc322 = private unnamed_addr constant <{ i8*, [16 x i8] }> <{ i8* getelementptr inbounds (<{ [21 x i8] }>, <{ [21 x i8] }>* @alloc331, i32 0, i32 0, i32 0), [16 x i8] c"\15\00\00\00\00\00\00\00(\00\00\00\11\00\00\00" }>, align 8
@alloc324 = private unnamed_addr constant <{ i8*, [16 x i8] }> <{ i8* getelementptr inbounds (<{ [21 x i8] }>, <{ [21 x i8] }>* @alloc331, i32 0, i32 0, i32 0), [16 x i8] c"\15\00\00\00\00\00\00\00/\00\00\00\0D\00\00\00" }>, align 8
@alloc326 = private unnamed_addr constant <{ i8*, [16 x i8] }> <{ i8* getelementptr inbounds (<{ [21 x i8] }>, <{ [21 x i8] }>* @alloc331, i32 0, i32 0, i32 0), [16 x i8] c"\15\00\00\00\00\00\00\004\00\00\00\0D\00\00\00" }>, align 8
@alloc328 = private unnamed_addr constant <{ i8*, [16 x i8] }> <{ i8* getelementptr inbounds (<{ [21 x i8] }>, <{ [21 x i8] }>* @alloc331, i32 0, i32 0, i32 0), [16 x i8] c"\15\00\00\00\00\00\00\007\00\00\00\0D\00\00\00" }>, align 8
@alloc330 = private unnamed_addr constant <{ i8*, [16 x i8] }> <{ i8* getelementptr inbounds (<{ [21 x i8] }>, <{ [21 x i8] }>* @alloc331, i32 0, i32 0, i32 0), [16 x i8] c"\15\00\00\00\00\00\00\00<\00\00\00\0D\00\00\00" }>, align 8
@alloc332 = private unnamed_addr constant <{ i8*, [16 x i8] }> <{ i8* getelementptr inbounds (<{ [21 x i8] }>, <{ [21 x i8] }>* @alloc331, i32 0, i32 0, i32 0), [16 x i8] c"\15\00\00\00\00\00\00\00D\00\00\00\0D\00\00\00" }>, align 8
@alloc343 = private unnamed_addr constant <{ [18 x i8] }> <{ [18 x i8] c"src/test_switch.rs" }>, align 1
@alloc334 = private unnamed_addr constant <{ i8*, [16 x i8] }> <{ i8* getelementptr inbounds (<{ [18 x i8] }>, <{ [18 x i8] }>* @alloc343, i32 0, i32 0, i32 0), [16 x i8] c"\12\00\00\00\00\00\00\00\0E\00\00\00\05\00\00\00" }>, align 8
@alloc73 = private unnamed_addr constant <{ [4 x i8] }> <{ [4 x i8] c"\02\00\00\00" }>, align 4
@alloc336 = private unnamed_addr constant <{ i8*, [16 x i8] }> <{ i8* getelementptr inbounds (<{ [18 x i8] }>, <{ [18 x i8] }>* @alloc343, i32 0, i32 0, i32 0), [16 x i8] c"\12\00\00\00\00\00\00\00\0F\00\00\00\05\00\00\00" }>, align 8
@alloc338 = private unnamed_addr constant <{ i8*, [16 x i8] }> <{ i8* getelementptr inbounds (<{ [18 x i8] }>, <{ [18 x i8] }>* @alloc343, i32 0, i32 0, i32 0), [16 x i8] c"\12\00\00\00\00\00\00\00\14\00\00\00\05\00\00\00" }>, align 8
@alloc83 = private unnamed_addr constant <{ [4 x i8] }> <{ [4 x i8] c"\04\00\00\00" }>, align 4
@alloc340 = private unnamed_addr constant <{ i8*, [16 x i8] }> <{ i8* getelementptr inbounds (<{ [18 x i8] }>, <{ [18 x i8] }>* @alloc343, i32 0, i32 0, i32 0), [16 x i8] c"\12\00\00\00\00\00\00\00\15\00\00\00\05\00\00\00" }>, align 8
@alloc342 = private unnamed_addr constant <{ i8*, [16 x i8] }> <{ i8* getelementptr inbounds (<{ [18 x i8] }>, <{ [18 x i8] }>* @alloc343, i32 0, i32 0, i32 0), [16 x i8] c"\12\00\00\00\00\00\00\00\1A\00\00\00\05\00\00\00" }>, align 8
@alloc93 = private unnamed_addr constant <{ [4 x i8] }> <{ [4 x i8] c"\0B\00\00\00" }>, align 4
@alloc344 = private unnamed_addr constant <{ i8*, [16 x i8] }> <{ i8* getelementptr inbounds (<{ [18 x i8] }>, <{ [18 x i8] }>* @alloc343, i32 0, i32 0, i32 0), [16 x i8] c"\12\00\00\00\00\00\00\00\1B\00\00\00\05\00\00\00" }>, align 8
@alloc355 = private unnamed_addr constant <{ [16 x i8] }> <{ [16 x i8] c"src/test_goto.rs" }>, align 1
@alloc346 = private unnamed_addr constant <{ i8*, [16 x i8] }> <{ i8* getelementptr inbounds (<{ [16 x i8] }>, <{ [16 x i8] }>* @alloc355, i32 0, i32 0, i32 0), [16 x i8] c"\10\00\00\00\00\00\00\00\1E\00\00\00\05\00\00\00" }>, align 8
@alloc348 = private unnamed_addr constant <{ i8*, [16 x i8] }> <{ i8* getelementptr inbounds (<{ [16 x i8] }>, <{ [16 x i8] }>* @alloc355, i32 0, i32 0, i32 0), [16 x i8] c"\10\00\00\00\00\00\00\00\1F\00\00\00\05\00\00\00" }>, align 8
@alloc350 = private unnamed_addr constant <{ i8*, [16 x i8] }> <{ i8* getelementptr inbounds (<{ [16 x i8] }>, <{ [16 x i8] }>* @alloc355, i32 0, i32 0, i32 0), [16 x i8] c"\10\00\00\00\00\00\00\00,\00\00\00\05\00\00\00" }>, align 8
@alloc352 = private unnamed_addr constant <{ i8*, [16 x i8] }> <{ i8* getelementptr inbounds (<{ [16 x i8] }>, <{ [16 x i8] }>* @alloc355, i32 0, i32 0, i32 0), [16 x i8] c"\10\00\00\00\00\00\00\00-\00\00\00\05\00\00\00" }>, align 8
@alloc354 = private unnamed_addr constant <{ i8*, [16 x i8] }> <{ i8* getelementptr inbounds (<{ [16 x i8] }>, <{ [16 x i8] }>* @alloc355, i32 0, i32 0, i32 0), [16 x i8] c"\10\00\00\00\00\00\00\00:\00\00\00\05\00\00\00" }>, align 8
@alloc356 = private unnamed_addr constant <{ i8*, [16 x i8] }> <{ i8* getelementptr inbounds (<{ [16 x i8] }>, <{ [16 x i8] }>* @alloc355, i32 0, i32 0, i32 0), [16 x i8] c"\10\00\00\00\00\00\00\00;\00\00\00\05\00\00\00" }>, align 8
@alloc367 = private unnamed_addr constant <{ [17 x i8] }> <{ [17 x i8] c"src/test_loops.rs" }>, align 1
@alloc358 = private unnamed_addr constant <{ i8*, [16 x i8] }> <{ i8* getelementptr inbounds (<{ [17 x i8] }>, <{ [17 x i8] }>* @alloc367, i32 0, i32 0, i32 0), [16 x i8] c"\11\00\00\00\00\00\00\00\1B\00\00\00\14\00\00\00" }>, align 8
@alloc360 = private unnamed_addr constant <{ i8*, [16 x i8] }> <{ i8* getelementptr inbounds (<{ [17 x i8] }>, <{ [17 x i8] }>* @alloc367, i32 0, i32 0, i32 0), [16 x i8] c"\11\00\00\00\00\00\00\00\1B\00\00\00#\00\00\00" }>, align 8
@alloc362 = private unnamed_addr constant <{ i8*, [16 x i8] }> <{ i8* getelementptr inbounds (<{ [17 x i8] }>, <{ [17 x i8] }>* @alloc367, i32 0, i32 0, i32 0), [16 x i8] c"\11\00\00\00\00\00\00\00\1B\00\00\00\09\00\00\00" }>, align 8
@alloc364 = private unnamed_addr constant <{ i8*, [16 x i8] }> <{ i8* getelementptr inbounds (<{ [17 x i8] }>, <{ [17 x i8] }>* @alloc367, i32 0, i32 0, i32 0), [16 x i8] c"\11\00\00\00\00\00\00\00\1C\00\00\00\14\00\00\00" }>, align 8
@alloc366 = private unnamed_addr constant <{ i8*, [16 x i8] }> <{ i8* getelementptr inbounds (<{ [17 x i8] }>, <{ [17 x i8] }>* @alloc367, i32 0, i32 0, i32 0), [16 x i8] c"\11\00\00\00\00\00\00\00\1C\00\00\00#\00\00\00" }>, align 8
@alloc222 = private unnamed_addr constant <{ [7 x i8] }> <{ [7 x i8] c"index: " }>, align 1
@alloc223 = private unnamed_addr constant <{ i8*, [8 x i8] }> <{ i8* getelementptr inbounds (<{ [7 x i8] }>, <{ [7 x i8] }>* @alloc222, i32 0, i32 0, i32 0), [8 x i8] c"\07\00\00\00\00\00\00\00" }>, align 8
@alloc368 = private unnamed_addr constant <{ i8*, [16 x i8] }> <{ i8* getelementptr inbounds (<{ [17 x i8] }>, <{ [17 x i8] }>* @alloc367, i32 0, i32 0, i32 0), [16 x i8] c"\11\00\00\00\00\00\00\00\1C\00\00\00\09\00\00\00" }>, align 8
@alloc17 = private unnamed_addr constant <{ [24 x i8] }> <{ [24 x i8] c"test_switch::test_switch" }>, align 1
@alloc242 = private unnamed_addr constant <{ [1 x i8], [7 x i8], i8*, [8 x i8], [16 x i8], [8 x i8], [8 x i8], [8 x i8], [16 x i8], [4 x i8], [4 x i8], [8 x i8], i8*, [8 x i8] }> <{ [1 x i8] zeroinitializer, [7 x i8] undef, i8* getelementptr inbounds (<{ [24 x i8] }>, <{ [24 x i8] }>* @alloc17, i32 0, i32 0, i32 0), [8 x i8] c"\18\00\00\00\00\00\00\00", [16 x i8] undef, [8 x i8] zeroinitializer, [8 x i8] undef, [8 x i8] zeroinitializer, [16 x i8] undef, [4 x i8] zeroinitializer, [4 x i8] undef, [8 x i8] zeroinitializer, i8* bitcast (void ()* @_ZN4core3ops8function6FnOnce9call_once17h68a50a2691f39650E to i8*), [8 x i8] undef }>, align 8
@alloc27 = private unnamed_addr constant <{ [27 x i8] }> <{ [27 x i8] c"test_goto::test_goto_linear" }>, align 1
@alloc243 = private unnamed_addr constant <{ [1 x i8], [7 x i8], i8*, [8 x i8], [16 x i8], [8 x i8], [8 x i8], [8 x i8], [16 x i8], [4 x i8], [4 x i8], [8 x i8], i8*, [8 x i8] }> <{ [1 x i8] zeroinitializer, [7 x i8] undef, i8* getelementptr inbounds (<{ [27 x i8] }>, <{ [27 x i8] }>* @alloc27, i32 0, i32 0, i32 0), [8 x i8] c"\1B\00\00\00\00\00\00\00", [16 x i8] undef, [8 x i8] zeroinitializer, [8 x i8] undef, [8 x i8] zeroinitializer, [16 x i8] undef, [4 x i8] zeroinitializer, [4 x i8] undef, [8 x i8] zeroinitializer, i8* bitcast (void ()* @_ZN4core3ops8function6FnOnce9call_once17hd136748216eeb8c2E to i8*), [8 x i8] undef }>, align 8
@alloc37 = private unnamed_addr constant <{ [25 x i8] }> <{ [25 x i8] c"test_goto::test_goto_loop" }>, align 1
@alloc244 = private unnamed_addr constant <{ [1 x i8], [7 x i8], i8*, [8 x i8], [16 x i8], [8 x i8], [8 x i8], [8 x i8], [16 x i8], [4 x i8], [4 x i8], [8 x i8], i8*, [8 x i8] }> <{ [1 x i8] zeroinitializer, [7 x i8] undef, i8* getelementptr inbounds (<{ [25 x i8] }>, <{ [25 x i8] }>* @alloc37, i32 0, i32 0, i32 0), [8 x i8] c"\19\00\00\00\00\00\00\00", [16 x i8] undef, [8 x i8] zeroinitializer, [8 x i8] undef, [8 x i8] zeroinitializer, [16 x i8] undef, [4 x i8] zeroinitializer, [4 x i8] undef, [8 x i8] zeroinitializer, i8* bitcast (void ()* @_ZN4core3ops8function6FnOnce9call_once17hf1ce68b9552fbb43E to i8*), [8 x i8] undef }>, align 8
@alloc47 = private unnamed_addr constant <{ [27 x i8] }> <{ [27 x i8] c"test_goto::test_goto_switch" }>, align 1
@alloc245 = private unnamed_addr constant <{ [1 x i8], [7 x i8], i8*, [8 x i8], [16 x i8], [8 x i8], [8 x i8], [8 x i8], [16 x i8], [4 x i8], [4 x i8], [8 x i8], i8*, [8 x i8] }> <{ [1 x i8] zeroinitializer, [7 x i8] undef, i8* getelementptr inbounds (<{ [27 x i8] }>, <{ [27 x i8] }>* @alloc47, i32 0, i32 0, i32 0), [8 x i8] c"\1B\00\00\00\00\00\00\00", [16 x i8] undef, [8 x i8] zeroinitializer, [8 x i8] undef, [8 x i8] zeroinitializer, [16 x i8] undef, [4 x i8] zeroinitializer, [4 x i8] undef, [8 x i8] zeroinitializer, i8* bitcast (void ()* @_ZN4core3ops8function6FnOnce9call_once17h468325a8ed4d5a4cE to i8*), [8 x i8] undef }>, align 8
@alloc57 = private unnamed_addr constant <{ [23 x i8] }> <{ [23 x i8] c"test_loops::test_buffer" }>, align 1
@alloc246 = private unnamed_addr constant <{ [1 x i8], [7 x i8], i8*, [8 x i8], [16 x i8], [8 x i8], [8 x i8], [8 x i8], [16 x i8], [4 x i8], [4 x i8], [8 x i8], i8*, [8 x i8] }> <{ [1 x i8] zeroinitializer, [7 x i8] undef, i8* getelementptr inbounds (<{ [23 x i8] }>, <{ [23 x i8] }>* @alloc57, i32 0, i32 0, i32 0), [8 x i8] c"\17\00\00\00\00\00\00\00", [16 x i8] undef, [8 x i8] zeroinitializer, [8 x i8] undef, [8 x i8] zeroinitializer, [16 x i8] undef, [4 x i8] zeroinitializer, [4 x i8] undef, [8 x i8] zeroinitializer, i8* bitcast (void ()* @_ZN4core3ops8function6FnOnce9call_once17h61dccf1a9f47caabE to i8*), [8 x i8] undef }>, align 8
@alloc247 = private unnamed_addr constant <{ i8*, i8*, i8*, i8*, i8* }> <{ i8* getelementptr inbounds (<{ [1 x i8], [7 x i8], i8*, [8 x i8], [16 x i8], [8 x i8], [8 x i8], [8 x i8], [16 x i8], [4 x i8], [4 x i8], [8 x i8], i8*, [8 x i8] }>, <{ [1 x i8], [7 x i8], i8*, [8 x i8], [16 x i8], [8 x i8], [8 x i8], [8 x i8], [16 x i8], [4 x i8], [4 x i8], [8 x i8], i8*, [8 x i8] }>* @alloc242, i32 0, i32 0, i32 0), i8* getelementptr inbounds (<{ [1 x i8], [7 x i8], i8*, [8 x i8], [16 x i8], [8 x i8], [8 x i8], [8 x i8], [16 x i8], [4 x i8], [4 x i8], [8 x i8], i8*, [8 x i8] }>, <{ [1 x i8], [7 x i8], i8*, [8 x i8], [16 x i8], [8 x i8], [8 x i8], [8 x i8], [16 x i8], [4 x i8], [4 x i8], [8 x i8], i8*, [8 x i8] }>* @alloc243, i32 0, i32 0, i32 0), i8* getelementptr inbounds (<{ [1 x i8], [7 x i8], i8*, [8 x i8], [16 x i8], [8 x i8], [8 x i8], [8 x i8], [16 x i8], [4 x i8], [4 x i8], [8 x i8], i8*, [8 x i8] }>, <{ [1 x i8], [7 x i8], i8*, [8 x i8], [16 x i8], [8 x i8], [8 x i8], [8 x i8], [16 x i8], [4 x i8], [4 x i8], [8 x i8], i8*, [8 x i8] }>* @alloc244, i32 0, i32 0, i32 0), i8* getelementptr inbounds (<{ [1 x i8], [7 x i8], i8*, [8 x i8], [16 x i8], [8 x i8], [8 x i8], [8 x i8], [16 x i8], [4 x i8], [4 x i8], [8 x i8], i8*, [8 x i8] }>, <{ [1 x i8], [7 x i8], i8*, [8 x i8], [16 x i8], [8 x i8], [8 x i8], [8 x i8], [16 x i8], [4 x i8], [4 x i8], [8 x i8], i8*, [8 x i8] }>* @alloc245, i32 0, i32 0, i32 0), i8* getelementptr inbounds (<{ [1 x i8], [7 x i8], i8*, [8 x i8], [16 x i8], [8 x i8], [8 x i8], [8 x i8], [16 x i8], [4 x i8], [4 x i8], [8 x i8], i8*, [8 x i8] }>, <{ [1 x i8], [7 x i8], i8*, [8 x i8], [16 x i8], [8 x i8], [8 x i8], [8 x i8], [16 x i8], [4 x i8], [4 x i8], [8 x i8], i8*, [8 x i8] }>* @alloc246, i32 0, i32 0, i32 0) }>, align 8
@__rustc_debug_gdb_scripts_section__ = linkonce_odr unnamed_addr constant [34 x i8] c"\01gdb_load_rust_pretty_printers.py\00", section ".debug_gdb_scripts", align 1

; std::sys_common::backtrace::__rust_begin_short_backtrace
; Function Attrs: noinline nonlazybind uwtable
define internal void @_ZN3std10sys_common9backtrace28__rust_begin_short_backtrace17h13ab60c3a7b5f772E(void ()* %f) unnamed_addr #0 personality i32 (i32, i32, i64, %"unwind::libunwind::_Unwind_Exception"*, %"unwind::libunwind::_Unwind_Context"*)* @rust_eh_personality !dbg !96 {
start:
  %0 = alloca { i8*, i32 }, align 8
  %dummy.dbg.spill = alloca {}, align 1
  %f.dbg.spill = alloca void ()*, align 8
  %result.dbg.spill = alloca {}, align 1
  call void @llvm.dbg.declare(metadata {}* %result.dbg.spill, metadata !104, metadata !DIExpression()), !dbg !109
  store void ()* %f, void ()** %f.dbg.spill, align 8
  call void @llvm.dbg.declare(metadata void ()** %f.dbg.spill, metadata !103, metadata !DIExpression()), !dbg !110
  call void @llvm.dbg.declare(metadata {}* %dummy.dbg.spill, metadata !111, metadata !DIExpression()), !dbg !120
; call core::ops::function::FnOnce::call_once
  call void @_ZN4core3ops8function6FnOnce9call_once17h3cf4981bfad132abE(void ()* %f), !dbg !122
  br label %bb1, !dbg !122

bb1:                                              ; preds = %start
  call void asm sideeffect "", "r,~{memory}"({}* undef), !dbg !120, !srcloc !123
  br label %bb4, !dbg !120

bb4:                                              ; preds = %bb1
  ret void, !dbg !124

bb2:                                              ; No predecessors!
  br label %bb3, !dbg !125

bb3:                                              ; preds = %bb2
  %1 = bitcast { i8*, i32 }* %0 to i8**, !dbg !126
  %2 = load i8*, i8** %1, align 8, !dbg !126
  %3 = getelementptr inbounds { i8*, i32 }, { i8*, i32 }* %0, i32 0, i32 1, !dbg !126
  %4 = load i32, i32* %3, align 8, !dbg !126
  %5 = insertvalue { i8*, i32 } undef, i8* %2, 0, !dbg !126
  %6 = insertvalue { i8*, i32 } %5, i32 %4, 1, !dbg !126
  resume { i8*, i32 } %6, !dbg !126
}

; std::rt::lang_start
; Function Attrs: nonlazybind uwtable
define hidden i64 @_ZN3std2rt10lang_start17h7adf9f9a254f1d27E(void ()* %main, i64 %argc, i8** %argv) unnamed_addr #1 !dbg !127 {
start:
  %v.dbg.spill = alloca i64, align 8
  %argv.dbg.spill = alloca i8**, align 8
  %argc.dbg.spill = alloca i64, align 8
  %main.dbg.spill = alloca void ()*, align 8
  %_8 = alloca i64*, align 8
  %_4 = alloca i64, align 8
  store void ()* %main, void ()** %main.dbg.spill, align 8
  call void @llvm.dbg.declare(metadata void ()** %main.dbg.spill, metadata !135, metadata !DIExpression()), !dbg !140
  store i64 %argc, i64* %argc.dbg.spill, align 8
  call void @llvm.dbg.declare(metadata i64* %argc.dbg.spill, metadata !136, metadata !DIExpression()), !dbg !141
  store i8** %argv, i8*** %argv.dbg.spill, align 8
  call void @llvm.dbg.declare(metadata i8*** %argv.dbg.spill, metadata !137, metadata !DIExpression()), !dbg !142
  %0 = bitcast i64** %_8 to void ()**, !dbg !143
  store void ()* %main, void ()** %0, align 8, !dbg !143
  %_5.0 = bitcast i64** %_8 to {}*, !dbg !144
; call std::rt::lang_start_internal
  %1 = call i64 @_ZN3std2rt19lang_start_internal17h498f9556b87c8e5fE({}* align 1 %_5.0, [3 x i64]* align 8 bitcast (<{ i8*, [16 x i8], i8*, i8*, i8* }>* @vtable.0 to [3 x i64]*), i64 %argc, i8** %argv), !dbg !145
  store i64 %1, i64* %_4, align 8, !dbg !145
  br label %bb1, !dbg !145

bb1:                                              ; preds = %start
  %v = load i64, i64* %_4, align 8, !dbg !146
  store i64 %v, i64* %v.dbg.spill, align 8, !dbg !146
  call void @llvm.dbg.declare(metadata i64* %v.dbg.spill, metadata !138, metadata !DIExpression()), !dbg !147
  ret i64 %v, !dbg !148
}

; std::rt::lang_start::{{closure}}
; Function Attrs: inlinehint nonlazybind uwtable
define internal i32 @"_ZN3std2rt10lang_start28_$u7b$$u7b$closure$u7d$$u7d$17hcf995a3f0c831d74E"(i64** align 8 %_1) unnamed_addr #2 !dbg !149 {
start:
  %self.dbg.spill = alloca i8*, align 8
  %_1.dbg.spill = alloca i64**, align 8
  %self = alloca i8, align 1
  store i64** %_1, i64*** %_1.dbg.spill, align 8
  %0 = load i64**, i64*** %_1.dbg.spill, align 8, !nonnull !23, !align !155, !noundef !23
  %1 = bitcast i64** %0 to void ()**
  call void @llvm.dbg.declare(metadata i64*** %_1.dbg.spill, metadata !154, metadata !DIExpression(DW_OP_deref)), !dbg !156
  call void @llvm.dbg.declare(metadata i8* %self, metadata !157, metadata !DIExpression()), !dbg !175
  %2 = bitcast i64** %_1 to void ()**, !dbg !177
  %_4 = load void ()*, void ()** %2, align 8, !dbg !177, !nonnull !23, !noundef !23
; call std::sys_common::backtrace::__rust_begin_short_backtrace
  call void @_ZN3std10sys_common9backtrace28__rust_begin_short_backtrace17h13ab60c3a7b5f772E(void ()* %_4), !dbg !176
  br label %bb1, !dbg !176

bb1:                                              ; preds = %start
; call <() as std::process::Termination>::report
  %3 = call i8 @"_ZN54_$LT$$LP$$RP$$u20$as$u20$std..process..Termination$GT$6report17hda60c2f19858c165E"(), !dbg !176
  store i8 %3, i8* %self, align 1, !dbg !176
  br label %bb2, !dbg !176

bb2:                                              ; preds = %bb1
  store i8* %self, i8** %self.dbg.spill, align 8, !dbg !175
  call void @llvm.dbg.declare(metadata i8** %self.dbg.spill, metadata !178, metadata !DIExpression()), !dbg !186
  %_6 = load i8, i8* %self, align 1, !dbg !186
  %4 = zext i8 %_6 to i32, !dbg !186
  ret i32 %4, !dbg !188
}

; <&T as core::fmt::Debug>::fmt
; Function Attrs: nonlazybind uwtable
define internal zeroext i1 @"_ZN42_$LT$$RF$T$u20$as$u20$core..fmt..Debug$GT$3fmt17h1904fca8808438abE"([12 x i32]** align 8 %self, %"core::fmt::Formatter"* align 8 %f) unnamed_addr #1 !dbg !189 {
start:
  %f.dbg.spill = alloca %"core::fmt::Formatter"*, align 8
  %self.dbg.spill = alloca [12 x i32]**, align 8
  store [12 x i32]** %self, [12 x i32]*** %self.dbg.spill, align 8
  call void @llvm.dbg.declare(metadata [12 x i32]*** %self.dbg.spill, metadata !249, metadata !DIExpression()), !dbg !253
  store %"core::fmt::Formatter"* %f, %"core::fmt::Formatter"** %f.dbg.spill, align 8
  call void @llvm.dbg.declare(metadata %"core::fmt::Formatter"** %f.dbg.spill, metadata !250, metadata !DIExpression()), !dbg !254
  %_6 = load [12 x i32]*, [12 x i32]** %self, align 8, !dbg !255, !nonnull !23, !align !256, !noundef !23
; call core::array::<impl core::fmt::Debug for [T; N]>::fmt
  %0 = call zeroext i1 @"_ZN4core5array69_$LT$impl$u20$core..fmt..Debug$u20$for$u20$$u5b$T$u3b$$u20$N$u5d$$GT$3fmt17h62dbafde69f86181E"([12 x i32]* align 4 %_6, %"core::fmt::Formatter"* align 8 %f), !dbg !257
  br label %bb1, !dbg !257

bb1:                                              ; preds = %start
  ret i1 %0, !dbg !258
}

; <&T as core::fmt::Debug>::fmt
; Function Attrs: nonlazybind uwtable
define internal zeroext i1 @"_ZN42_$LT$$RF$T$u20$as$u20$core..fmt..Debug$GT$3fmt17h4e5239e1f5fafb82E"([6 x i32]** align 8 %self, %"core::fmt::Formatter"* align 8 %f) unnamed_addr #1 !dbg !259 {
start:
  %f.dbg.spill = alloca %"core::fmt::Formatter"*, align 8
  %self.dbg.spill = alloca [6 x i32]**, align 8
  store [6 x i32]** %self, [6 x i32]*** %self.dbg.spill, align 8
  call void @llvm.dbg.declare(metadata [6 x i32]*** %self.dbg.spill, metadata !264, metadata !DIExpression()), !dbg !268
  store %"core::fmt::Formatter"* %f, %"core::fmt::Formatter"** %f.dbg.spill, align 8
  call void @llvm.dbg.declare(metadata %"core::fmt::Formatter"** %f.dbg.spill, metadata !265, metadata !DIExpression()), !dbg !269
  %_6 = load [6 x i32]*, [6 x i32]** %self, align 8, !dbg !270, !nonnull !23, !align !256, !noundef !23
; call core::array::<impl core::fmt::Debug for [T; N]>::fmt
  %0 = call zeroext i1 @"_ZN4core5array69_$LT$impl$u20$core..fmt..Debug$u20$for$u20$$u5b$T$u3b$$u20$N$u5d$$GT$3fmt17h7336e8117b367aabE"([6 x i32]* align 4 %_6, %"core::fmt::Formatter"* align 8 %f), !dbg !271
  br label %bb1, !dbg !271

bb1:                                              ; preds = %start
  ret i1 %0, !dbg !272
}

; <&T as core::fmt::Debug>::fmt
; Function Attrs: nonlazybind uwtable
define internal zeroext i1 @"_ZN42_$LT$$RF$T$u20$as$u20$core..fmt..Debug$GT$3fmt17h62f3834bd06bb1efE"({ [0 x i32]*, i64 }* align 8 %self, %"core::fmt::Formatter"* align 8 %f) unnamed_addr #1 !dbg !273 {
start:
  %f.dbg.spill = alloca %"core::fmt::Formatter"*, align 8
  %self.dbg.spill = alloca { [0 x i32]*, i64 }*, align 8
  store { [0 x i32]*, i64 }* %self, { [0 x i32]*, i64 }** %self.dbg.spill, align 8
  call void @llvm.dbg.declare(metadata { [0 x i32]*, i64 }** %self.dbg.spill, metadata !283, metadata !DIExpression()), !dbg !287
  store %"core::fmt::Formatter"* %f, %"core::fmt::Formatter"** %f.dbg.spill, align 8
  call void @llvm.dbg.declare(metadata %"core::fmt::Formatter"** %f.dbg.spill, metadata !284, metadata !DIExpression()), !dbg !288
  %0 = getelementptr inbounds { [0 x i32]*, i64 }, { [0 x i32]*, i64 }* %self, i32 0, i32 0, !dbg !289
  %_6.0 = load [0 x i32]*, [0 x i32]** %0, align 8, !dbg !289, !nonnull !23, !align !256, !noundef !23
  %1 = getelementptr inbounds { [0 x i32]*, i64 }, { [0 x i32]*, i64 }* %self, i32 0, i32 1, !dbg !289
  %_6.1 = load i64, i64* %1, align 8, !dbg !289
; call <[T] as core::fmt::Debug>::fmt
  %2 = call zeroext i1 @"_ZN48_$LT$$u5b$T$u5d$$u20$as$u20$core..fmt..Debug$GT$3fmt17h9fef10a5afd40f03E"([0 x i32]* align 4 %_6.0, i64 %_6.1, %"core::fmt::Formatter"* align 8 %f), !dbg !290
  br label %bb1, !dbg !290

bb1:                                              ; preds = %start
  ret i1 %2, !dbg !291
}

; <&T as core::fmt::Debug>::fmt
; Function Attrs: nonlazybind uwtable
define internal zeroext i1 @"_ZN42_$LT$$RF$T$u20$as$u20$core..fmt..Debug$GT$3fmt17h93d58beb3edfd989E"(i32** align 8 %self, %"core::fmt::Formatter"* align 8 %f) unnamed_addr #1 !dbg !292 {
start:
  %f.dbg.spill = alloca %"core::fmt::Formatter"*, align 8
  %self.dbg.spill = alloca i32**, align 8
  store i32** %self, i32*** %self.dbg.spill, align 8
  call void @llvm.dbg.declare(metadata i32*** %self.dbg.spill, metadata !297, metadata !DIExpression()), !dbg !299
  store %"core::fmt::Formatter"* %f, %"core::fmt::Formatter"** %f.dbg.spill, align 8
  call void @llvm.dbg.declare(metadata %"core::fmt::Formatter"** %f.dbg.spill, metadata !298, metadata !DIExpression()), !dbg !300
  %_6 = load i32*, i32** %self, align 8, !dbg !301, !nonnull !23, !align !256, !noundef !23
; call core::fmt::num::<impl core::fmt::Debug for i32>::fmt
  %0 = call zeroext i1 @"_ZN4core3fmt3num50_$LT$impl$u20$core..fmt..Debug$u20$for$u20$i32$GT$3fmt17h247bbd8e9899a4dfE"(i32* align 4 %_6, %"core::fmt::Formatter"* align 8 %f), !dbg !302
  br label %bb1, !dbg !302

bb1:                                              ; preds = %start
  ret i1 %0, !dbg !303
}

; <&T as core::fmt::Debug>::fmt
; Function Attrs: nonlazybind uwtable
define internal zeroext i1 @"_ZN42_$LT$$RF$T$u20$as$u20$core..fmt..Debug$GT$3fmt17h96e665ed33f15194E"([4 x i32]** align 8 %self, %"core::fmt::Formatter"* align 8 %f) unnamed_addr #1 !dbg !304 {
start:
  %f.dbg.spill = alloca %"core::fmt::Formatter"*, align 8
  %self.dbg.spill = alloca [4 x i32]**, align 8
  store [4 x i32]** %self, [4 x i32]*** %self.dbg.spill, align 8
  call void @llvm.dbg.declare(metadata [4 x i32]*** %self.dbg.spill, metadata !309, metadata !DIExpression()), !dbg !313
  store %"core::fmt::Formatter"* %f, %"core::fmt::Formatter"** %f.dbg.spill, align 8
  call void @llvm.dbg.declare(metadata %"core::fmt::Formatter"** %f.dbg.spill, metadata !310, metadata !DIExpression()), !dbg !314
  %_6 = load [4 x i32]*, [4 x i32]** %self, align 8, !dbg !315, !nonnull !23, !align !256, !noundef !23
; call core::array::<impl core::fmt::Debug for [T; N]>::fmt
  %0 = call zeroext i1 @"_ZN4core5array69_$LT$impl$u20$core..fmt..Debug$u20$for$u20$$u5b$T$u3b$$u20$N$u5d$$GT$3fmt17h77b2a20561b9b162E"([4 x i32]* align 4 %_6, %"core::fmt::Formatter"* align 8 %f), !dbg !316
  br label %bb1, !dbg !316

bb1:                                              ; preds = %start
  ret i1 %0, !dbg !317
}

; <[T] as core::fmt::Debug>::fmt
; Function Attrs: nonlazybind uwtable
define internal zeroext i1 @"_ZN48_$LT$$u5b$T$u5d$$u20$as$u20$core..fmt..Debug$GT$3fmt17h9fef10a5afd40f03E"([0 x i32]* align 4 %self.0, i64 %self.1, %"core::fmt::Formatter"* align 8 %f) unnamed_addr #1 !dbg !318 {
start:
  %self.dbg.spill1 = alloca { [0 x i32]*, i64 }, align 8
  %f.dbg.spill = alloca %"core::fmt::Formatter"*, align 8
  %self.dbg.spill = alloca { [0 x i32]*, i64 }, align 8
  %_6 = alloca %"core::fmt::builders::DebugList", align 8
  %0 = getelementptr inbounds { [0 x i32]*, i64 }, { [0 x i32]*, i64 }* %self.dbg.spill, i32 0, i32 0
  store [0 x i32]* %self.0, [0 x i32]** %0, align 8
  %1 = getelementptr inbounds { [0 x i32]*, i64 }, { [0 x i32]*, i64 }* %self.dbg.spill, i32 0, i32 1
  store i64 %self.1, i64* %1, align 8
  call void @llvm.dbg.declare(metadata { [0 x i32]*, i64 }* %self.dbg.spill, metadata !323, metadata !DIExpression()), !dbg !325
  store %"core::fmt::Formatter"* %f, %"core::fmt::Formatter"** %f.dbg.spill, align 8
  call void @llvm.dbg.declare(metadata %"core::fmt::Formatter"** %f.dbg.spill, metadata !324, metadata !DIExpression()), !dbg !326
; call core::fmt::Formatter::debug_list
  call void @_ZN4core3fmt9Formatter10debug_list17h2e70d1c34e8cb782E(%"core::fmt::builders::DebugList"* sret(%"core::fmt::builders::DebugList") %_6, %"core::fmt::Formatter"* align 8 %f), !dbg !327
  br label %bb1, !dbg !327

bb1:                                              ; preds = %start
  %2 = getelementptr inbounds { [0 x i32]*, i64 }, { [0 x i32]*, i64 }* %self.dbg.spill1, i32 0, i32 0, !dbg !328
  store [0 x i32]* %self.0, [0 x i32]** %2, align 8, !dbg !328
  %3 = getelementptr inbounds { [0 x i32]*, i64 }, { [0 x i32]*, i64 }* %self.dbg.spill1, i32 0, i32 1, !dbg !328
  store i64 %self.1, i64* %3, align 8, !dbg !328
  call void @llvm.dbg.declare(metadata { [0 x i32]*, i64 }* %self.dbg.spill1, metadata !329, metadata !DIExpression()), !dbg !354
; call core::slice::iter::Iter<T>::new
  %4 = call { i32*, i32* } @"_ZN4core5slice4iter13Iter$LT$T$GT$3new17h4786ffb3a681aed8E"([0 x i32]* align 4 %self.0, i64 %self.1), !dbg !354
  %_8.0 = extractvalue { i32*, i32* } %4, 0, !dbg !354
  %_8.1 = extractvalue { i32*, i32* } %4, 1, !dbg !354
  br label %bb4, !dbg !354

bb4:                                              ; preds = %bb1
; call core::fmt::builders::DebugList::entries
  %_4 = call align 8 %"core::fmt::builders::DebugList"* @_ZN4core3fmt8builders9DebugList7entries17h2487864b19f8e0ccE(%"core::fmt::builders::DebugList"* align 8 %_6, i32* %_8.0, i32* %_8.1), !dbg !327
  br label %bb2, !dbg !327

bb2:                                              ; preds = %bb4
; call core::fmt::builders::DebugList::finish
  %5 = call zeroext i1 @_ZN4core3fmt8builders9DebugList6finish17ha896c0aa3642bf32E(%"core::fmt::builders::DebugList"* align 8 %_4), !dbg !327
  br label %bb3, !dbg !327

bb3:                                              ; preds = %bb2
  ret i1 %5, !dbg !355
}

; <usize as core::iter::range::Step>::forward_unchecked
; Function Attrs: inlinehint nonlazybind uwtable
define internal i64 @"_ZN49_$LT$usize$u20$as$u20$core..iter..range..Step$GT$17forward_unchecked17he2fa4606fee0c508E"(i64 %start1, i64 %n) unnamed_addr #2 !dbg !356 {
start:
  %0 = alloca i64, align 8
  %rhs.dbg.spill = alloca i64, align 8
  %self.dbg.spill = alloca i64, align 8
  %n.dbg.spill = alloca i64, align 8
  %start.dbg.spill = alloca i64, align 8
  store i64 %start1, i64* %start.dbg.spill, align 8
  call void @llvm.dbg.declare(metadata i64* %start.dbg.spill, metadata !364, metadata !DIExpression()), !dbg !366
  store i64 %n, i64* %n.dbg.spill, align 8
  call void @llvm.dbg.declare(metadata i64* %n.dbg.spill, metadata !365, metadata !DIExpression()), !dbg !367
  store i64 %start1, i64* %self.dbg.spill, align 8, !dbg !368
  call void @llvm.dbg.declare(metadata i64* %self.dbg.spill, metadata !369, metadata !DIExpression()), !dbg !377
  store i64 %n, i64* %rhs.dbg.spill, align 8, !dbg !378
  call void @llvm.dbg.declare(metadata i64* %rhs.dbg.spill, metadata !376, metadata !DIExpression()), !dbg !377
  %1 = add nuw i64 %start1, %n, !dbg !377
  store i64 %1, i64* %0, align 8, !dbg !377
  %2 = load i64, i64* %0, align 8, !dbg !377
  br label %bb1, !dbg !377

bb1:                                              ; preds = %start
  ret i64 %2, !dbg !379
}

; core::cmp::impls::<impl core::cmp::PartialOrd for usize>::lt
; Function Attrs: inlinehint nonlazybind uwtable
define internal zeroext i1 @"_ZN4core3cmp5impls57_$LT$impl$u20$core..cmp..PartialOrd$u20$for$u20$usize$GT$2lt17hde245c4c762e48bfE"(i64* align 8 %self, i64* align 8 %other) unnamed_addr #2 !dbg !380 {
start:
  %other.dbg.spill = alloca i64*, align 8
  %self.dbg.spill = alloca i64*, align 8
  store i64* %self, i64** %self.dbg.spill, align 8
  call void @llvm.dbg.declare(metadata i64** %self.dbg.spill, metadata !390, metadata !DIExpression()), !dbg !392
  store i64* %other, i64** %other.dbg.spill, align 8
  call void @llvm.dbg.declare(metadata i64** %other.dbg.spill, metadata !391, metadata !DIExpression()), !dbg !393
  %_3 = load i64, i64* %self, align 8, !dbg !394
  %_4 = load i64, i64* %other, align 8, !dbg !395
  %0 = icmp ult i64 %_3, %_4, !dbg !394
  ret i1 %0, !dbg !396
}

; core::fmt::ArgumentV1::new_display
; Function Attrs: inlinehint nonlazybind uwtable
define internal { i8*, i64* } @_ZN4core3fmt10ArgumentV111new_display17h1cdf7b46141f26ddE(i64* align 8 %x) unnamed_addr #2 !dbg !397 {
start:
  %0 = alloca %"core::fmt::Opaque"*, align 8
  %1 = alloca i1 (%"core::fmt::Opaque"*, %"core::fmt::Formatter"*)*, align 8
  %f.dbg.spill = alloca i1 (i64*, %"core::fmt::Formatter"*)*, align 8
  %x.dbg.spill1 = alloca i64*, align 8
  %x.dbg.spill = alloca i64*, align 8
  %2 = alloca { i8*, i64* }, align 8
  store i64* %x, i64** %x.dbg.spill, align 8
  call void @llvm.dbg.declare(metadata i64** %x.dbg.spill, metadata !411, metadata !DIExpression()), !dbg !412
  store i64* %x, i64** %x.dbg.spill1, align 8, !dbg !413
  call void @llvm.dbg.declare(metadata i64** %x.dbg.spill1, metadata !414, metadata !DIExpression()), !dbg !423
  store i1 (i64*, %"core::fmt::Formatter"*)* @"_ZN4core3fmt3num3imp54_$LT$impl$u20$core..fmt..Display$u20$for$u20$usize$GT$3fmt17h13884cc54f932e9aE", i1 (i64*, %"core::fmt::Formatter"*)** %f.dbg.spill, align 8, !dbg !425
  call void @llvm.dbg.declare(metadata i1 (i64*, %"core::fmt::Formatter"*)** %f.dbg.spill, metadata !422, metadata !DIExpression()), !dbg !423
  store i1 (%"core::fmt::Opaque"*, %"core::fmt::Formatter"*)* bitcast (i1 (i64*, %"core::fmt::Formatter"*)* @"_ZN4core3fmt3num3imp54_$LT$impl$u20$core..fmt..Display$u20$for$u20$usize$GT$3fmt17h13884cc54f932e9aE" to i1 (%"core::fmt::Opaque"*, %"core::fmt::Formatter"*)*), i1 (%"core::fmt::Opaque"*, %"core::fmt::Formatter"*)** %1, align 8, !dbg !423
  %_4 = load i1 (%"core::fmt::Opaque"*, %"core::fmt::Formatter"*)*, i1 (%"core::fmt::Opaque"*, %"core::fmt::Formatter"*)** %1, align 8, !dbg !423, !nonnull !23, !noundef !23
  br label %bb1, !dbg !423

bb1:                                              ; preds = %start
  %3 = bitcast i64* %x to %"core::fmt::Opaque"*, !dbg !423
  store %"core::fmt::Opaque"* %3, %"core::fmt::Opaque"** %0, align 8, !dbg !423
  %_6 = load %"core::fmt::Opaque"*, %"core::fmt::Opaque"** %0, align 8, !dbg !423, !nonnull !23, !align !426, !noundef !23
  br label %bb2, !dbg !423

bb2:                                              ; preds = %bb1
  %4 = bitcast { i8*, i64* }* %2 to %"core::fmt::Opaque"**, !dbg !423
  store %"core::fmt::Opaque"* %_6, %"core::fmt::Opaque"** %4, align 8, !dbg !423
  %5 = getelementptr inbounds { i8*, i64* }, { i8*, i64* }* %2, i32 0, i32 1, !dbg !423
  %6 = bitcast i64** %5 to i1 (%"core::fmt::Opaque"*, %"core::fmt::Formatter"*)**, !dbg !423
  store i1 (%"core::fmt::Opaque"*, %"core::fmt::Formatter"*)* %_4, i1 (%"core::fmt::Opaque"*, %"core::fmt::Formatter"*)** %6, align 8, !dbg !423
  %7 = getelementptr inbounds { i8*, i64* }, { i8*, i64* }* %2, i32 0, i32 0, !dbg !427
  %8 = load i8*, i8** %7, align 8, !dbg !427, !nonnull !23, !align !426, !noundef !23
  %9 = getelementptr inbounds { i8*, i64* }, { i8*, i64* }* %2, i32 0, i32 1, !dbg !427
  %10 = load i64*, i64** %9, align 8, !dbg !427, !nonnull !23, !noundef !23
  %11 = insertvalue { i8*, i64* } undef, i8* %8, 0, !dbg !427
  %12 = insertvalue { i8*, i64* } %11, i64* %10, 1, !dbg !427
  ret { i8*, i64* } %12, !dbg !427
}

; core::fmt::num::<impl core::fmt::Debug for i32>::fmt
; Function Attrs: inlinehint nonlazybind uwtable
define internal zeroext i1 @"_ZN4core3fmt3num50_$LT$impl$u20$core..fmt..Debug$u20$for$u20$i32$GT$3fmt17h247bbd8e9899a4dfE"(i32* align 4 %self, %"core::fmt::Formatter"* align 8 %f) unnamed_addr #2 !dbg !428 {
start:
  %f.dbg.spill = alloca %"core::fmt::Formatter"*, align 8
  %self.dbg.spill = alloca i32*, align 8
  %0 = alloca i8, align 1
  store i32* %self, i32** %self.dbg.spill, align 8
  call void @llvm.dbg.declare(metadata i32** %self.dbg.spill, metadata !435, metadata !DIExpression()), !dbg !437
  store %"core::fmt::Formatter"* %f, %"core::fmt::Formatter"** %f.dbg.spill, align 8
  call void @llvm.dbg.declare(metadata %"core::fmt::Formatter"** %f.dbg.spill, metadata !436, metadata !DIExpression()), !dbg !438
; call core::fmt::Formatter::debug_lower_hex
  %_3 = call zeroext i1 @_ZN4core3fmt9Formatter15debug_lower_hex17h861f5ddbf758e4f9E(%"core::fmt::Formatter"* align 8 %f), !dbg !439
  br label %bb1, !dbg !439

bb1:                                              ; preds = %start
  br i1 %_3, label %bb2, label %bb4, !dbg !439

bb4:                                              ; preds = %bb1
; call core::fmt::Formatter::debug_upper_hex
  %_7 = call zeroext i1 @_ZN4core3fmt9Formatter15debug_upper_hex17h21ddf2be2e6a0fd5E(%"core::fmt::Formatter"* align 8 %f), !dbg !440
  br label %bb5, !dbg !440

bb2:                                              ; preds = %bb1
; call core::fmt::num::<impl core::fmt::LowerHex for i32>::fmt
  %1 = call zeroext i1 @"_ZN4core3fmt3num53_$LT$impl$u20$core..fmt..LowerHex$u20$for$u20$i32$GT$3fmt17h46ab6094afed2354E"(i32* align 4 %self, %"core::fmt::Formatter"* align 8 %f), !dbg !441
  %2 = zext i1 %1 to i8, !dbg !441
  store i8 %2, i8* %0, align 1, !dbg !441
  br label %bb3, !dbg !441

bb3:                                              ; preds = %bb2
  br label %bb11, !dbg !442

bb11:                                             ; preds = %bb10, %bb3
  %3 = load i8, i8* %0, align 1, !dbg !443, !range !444, !noundef !23
  %4 = trunc i8 %3 to i1, !dbg !443
  ret i1 %4, !dbg !443

bb5:                                              ; preds = %bb4
  br i1 %_7, label %bb6, label %bb8, !dbg !440

bb8:                                              ; preds = %bb5
; call core::fmt::num::imp::<impl core::fmt::Display for i32>::fmt
  %5 = call zeroext i1 @"_ZN4core3fmt3num3imp52_$LT$impl$u20$core..fmt..Display$u20$for$u20$i32$GT$3fmt17h52a4838d0eaa2babE"(i32* align 4 %self, %"core::fmt::Formatter"* align 8 %f), !dbg !445
  %6 = zext i1 %5 to i8, !dbg !445
  store i8 %6, i8* %0, align 1, !dbg !445
  br label %bb9, !dbg !445

bb6:                                              ; preds = %bb5
; call core::fmt::num::<impl core::fmt::UpperHex for i32>::fmt
  %7 = call zeroext i1 @"_ZN4core3fmt3num53_$LT$impl$u20$core..fmt..UpperHex$u20$for$u20$i32$GT$3fmt17h827553a54a7e037dE"(i32* align 4 %self, %"core::fmt::Formatter"* align 8 %f), !dbg !446
  %8 = zext i1 %7 to i8, !dbg !446
  store i8 %8, i8* %0, align 1, !dbg !446
  br label %bb7, !dbg !446

bb7:                                              ; preds = %bb6
  br label %bb10, !dbg !447

bb10:                                             ; preds = %bb9, %bb7
  br label %bb11, !dbg !442

bb9:                                              ; preds = %bb8
  br label %bb10, !dbg !447
}

; core::fmt::builders::DebugList::entries
; Function Attrs: nonlazybind uwtable
define internal align 8 %"core::fmt::builders::DebugList"* @_ZN4core3fmt8builders9DebugList7entries17h2487864b19f8e0ccE(%"core::fmt::builders::DebugList"* align 8 %self, i32* %entries.0, i32* %entries.1) unnamed_addr #1 personality i32 (i32, i32, i64, %"unwind::libunwind::_Unwind_Exception"*, %"unwind::libunwind::_Unwind_Context"*)* @rust_eh_personality !dbg !448 {
start:
  %0 = alloca { i8*, i32 }, align 8
  %entries.dbg.spill = alloca { i32*, i32* }, align 8
  %self.dbg.spill = alloca %"core::fmt::builders::DebugList"*, align 8
  %entry = alloca i32*, align 8
  %_7 = alloca i32*, align 8
  %iter = alloca { i32*, i32* }, align 8
  store %"core::fmt::builders::DebugList"* %self, %"core::fmt::builders::DebugList"** %self.dbg.spill, align 8
  call void @llvm.dbg.declare(metadata %"core::fmt::builders::DebugList"** %self.dbg.spill, metadata !463, metadata !DIExpression()), !dbg !472
  %1 = getelementptr inbounds { i32*, i32* }, { i32*, i32* }* %entries.dbg.spill, i32 0, i32 0
  store i32* %entries.0, i32** %1, align 8
  %2 = getelementptr inbounds { i32*, i32* }, { i32*, i32* }* %entries.dbg.spill, i32 0, i32 1
  store i32* %entries.1, i32** %2, align 8
  call void @llvm.dbg.declare(metadata { i32*, i32* }* %entries.dbg.spill, metadata !464, metadata !DIExpression()), !dbg !473
  call void @llvm.dbg.declare(metadata { i32*, i32* }* %iter, metadata !465, metadata !DIExpression()), !dbg !474
  call void @llvm.dbg.declare(metadata i32** %entry, metadata !467, metadata !DIExpression()), !dbg !475
; call <I as core::iter::traits::collect::IntoIterator>::into_iter
  %3 = call { i32*, i32* } @"_ZN63_$LT$I$u20$as$u20$core..iter..traits..collect..IntoIterator$GT$9into_iter17h2021e07566ab6762E"(i32* %entries.0, i32* %entries.1), !dbg !476
  %_4.0 = extractvalue { i32*, i32* } %3, 0, !dbg !476
  %_4.1 = extractvalue { i32*, i32* } %3, 1, !dbg !476
  br label %bb1, !dbg !476

bb1:                                              ; preds = %start
  %4 = getelementptr inbounds { i32*, i32* }, { i32*, i32* }* %iter, i32 0, i32 0, !dbg !476
  store i32* %_4.0, i32** %4, align 8, !dbg !476
  %5 = getelementptr inbounds { i32*, i32* }, { i32*, i32* }* %iter, i32 0, i32 1, !dbg !476
  store i32* %_4.1, i32** %5, align 8, !dbg !476
  br label %bb2, !dbg !477

bb2:                                              ; preds = %bb8, %bb1
; invoke <core::slice::iter::Iter<T> as core::iter::traits::iterator::Iterator>::next
  %6 = invoke align 4 i32* @"_ZN91_$LT$core..slice..iter..Iter$LT$T$GT$$u20$as$u20$core..iter..traits..iterator..Iterator$GT$4next17h819d6e3bc6bd919fE"({ i32*, i32* }* align 8 %iter)
          to label %bb3 unwind label %cleanup, !dbg !474

bb11:                                             ; preds = %bb10, %cleanup
  br label %bb12, !dbg !478

cleanup:                                          ; preds = %bb2
  %7 = landingpad { i8*, i32 }
          cleanup
  %8 = extractvalue { i8*, i32 } %7, 0
  %9 = extractvalue { i8*, i32 } %7, 1
  %10 = getelementptr inbounds { i8*, i32 }, { i8*, i32 }* %0, i32 0, i32 0
  store i8* %8, i8** %10, align 8
  %11 = getelementptr inbounds { i8*, i32 }, { i8*, i32 }* %0, i32 0, i32 1
  store i32 %9, i32* %11, align 8
  br label %bb11

bb3:                                              ; preds = %bb2
  store i32* %6, i32** %_7, align 8, !dbg !474
  %12 = bitcast i32** %_7 to {}**, !dbg !474
  %13 = load {}*, {}** %12, align 8, !dbg !474
  %14 = icmp eq {}* %13, null, !dbg !474
  %_10 = select i1 %14, i64 0, i64 1, !dbg !474
  switch i64 %_10, label %bb5 [
    i64 0, label %bb6
    i64 1, label %bb4
  ], !dbg !474

bb5:                                              ; preds = %bb3
  unreachable, !dbg !474

bb6:                                              ; preds = %bb3
  br label %bb9, !dbg !478

bb4:                                              ; preds = %bb3
  %15 = load i32*, i32** %_7, align 8, !dbg !479, !nonnull !23, !align !256, !noundef !23
  store i32* %15, i32** %entry, align 8, !dbg !479
  %_14.0 = bitcast i32** %entry to {}*, !dbg !480
; invoke core::fmt::builders::DebugList::entry
  %_12 = invoke align 8 %"core::fmt::builders::DebugList"* @_ZN4core3fmt8builders9DebugList5entry17h5007920add23274dE(%"core::fmt::builders::DebugList"* align 8 %self, {}* align 1 %_14.0, [3 x i64]* align 8 bitcast (<{ i8*, [16 x i8], i8* }>* @vtable.1 to [3 x i64]*))
          to label %bb7 unwind label %cleanup1, !dbg !481

bb10:                                             ; preds = %cleanup1
  br label %bb11, !dbg !482

cleanup1:                                         ; preds = %bb4
  %16 = landingpad { i8*, i32 }
          cleanup
  %17 = extractvalue { i8*, i32 } %16, 0
  %18 = extractvalue { i8*, i32 } %16, 1
  %19 = getelementptr inbounds { i8*, i32 }, { i8*, i32 }* %0, i32 0, i32 0
  store i8* %17, i8** %19, align 8
  %20 = getelementptr inbounds { i8*, i32 }, { i8*, i32 }* %0, i32 0, i32 1
  store i32 %18, i32* %20, align 8
  br label %bb10

bb7:                                              ; preds = %bb4
  br label %bb8, !dbg !482

bb8:                                              ; preds = %bb7
  br label %bb2, !dbg !477

bb12:                                             ; preds = %bb11
  %21 = bitcast { i8*, i32 }* %0 to i8**, !dbg !483
  %22 = load i8*, i8** %21, align 8, !dbg !483
  %23 = getelementptr inbounds { i8*, i32 }, { i8*, i32 }* %0, i32 0, i32 1, !dbg !483
  %24 = load i32, i32* %23, align 8, !dbg !483
  %25 = insertvalue { i8*, i32 } undef, i8* %22, 0, !dbg !483
  %26 = insertvalue { i8*, i32 } %25, i32 %24, 1, !dbg !483
  resume { i8*, i32 } %26, !dbg !483

bb9:                                              ; preds = %bb6
  ret %"core::fmt::builders::DebugList"* %self, !dbg !484
}

; core::fmt::Arguments::new_v1
; Function Attrs: inlinehint nonlazybind uwtable
define internal void @_ZN4core3fmt9Arguments6new_v117ha8987609521698f9E(%"core::fmt::Arguments"* sret(%"core::fmt::Arguments") %0, [0 x { [0 x i8]*, i64 }]* align 8 %pieces.0, i64 %pieces.1, [0 x { i8*, i64* }]* align 8 %args.0, i64 %args.1) unnamed_addr #2 !dbg !485 {
start:
  %args.dbg.spill = alloca { [0 x { i8*, i64* }]*, i64 }, align 8
  %pieces.dbg.spill = alloca { [0 x { [0 x i8]*, i64 }]*, i64 }, align 8
  %_24 = alloca { i64*, i64 }, align 8
  %_16 = alloca %"core::fmt::Arguments", align 8
  %_3 = alloca i8, align 1
  %1 = getelementptr inbounds { [0 x { [0 x i8]*, i64 }]*, i64 }, { [0 x { [0 x i8]*, i64 }]*, i64 }* %pieces.dbg.spill, i32 0, i32 0
  store [0 x { [0 x i8]*, i64 }]* %pieces.0, [0 x { [0 x i8]*, i64 }]** %1, align 8
  %2 = getelementptr inbounds { [0 x { [0 x i8]*, i64 }]*, i64 }, { [0 x { [0 x i8]*, i64 }]*, i64 }* %pieces.dbg.spill, i32 0, i32 1
  store i64 %pieces.1, i64* %2, align 8
  call void @llvm.dbg.declare(metadata { [0 x { [0 x i8]*, i64 }]*, i64 }* %pieces.dbg.spill, metadata !553, metadata !DIExpression()), !dbg !555
  %3 = getelementptr inbounds { [0 x { i8*, i64* }]*, i64 }, { [0 x { i8*, i64* }]*, i64 }* %args.dbg.spill, i32 0, i32 0
  store [0 x { i8*, i64* }]* %args.0, [0 x { i8*, i64* }]** %3, align 8
  %4 = getelementptr inbounds { [0 x { i8*, i64* }]*, i64 }, { [0 x { i8*, i64* }]*, i64 }* %args.dbg.spill, i32 0, i32 1
  store i64 %args.1, i64* %4, align 8
  call void @llvm.dbg.declare(metadata { [0 x { i8*, i64* }]*, i64 }* %args.dbg.spill, metadata !554, metadata !DIExpression()), !dbg !556
  %_4 = icmp ult i64 %pieces.1, %args.1, !dbg !557
  br i1 %_4, label %bb1, label %bb2, !dbg !557

bb2:                                              ; preds = %start
  %_12 = add i64 %args.1, 1, !dbg !558
  %_9 = icmp ugt i64 %pieces.1, %_12, !dbg !559
  %5 = zext i1 %_9 to i8, !dbg !557
  store i8 %5, i8* %_3, align 1, !dbg !557
  br label %bb3, !dbg !557

bb1:                                              ; preds = %start
  store i8 1, i8* %_3, align 1, !dbg !557
  br label %bb3, !dbg !557

bb3:                                              ; preds = %bb2, %bb1
  %6 = load i8, i8* %_3, align 1, !dbg !557, !range !444, !noundef !23
  %7 = trunc i8 %6 to i1, !dbg !557
  br i1 %7, label %bb4, label %bb6, !dbg !557

bb6:                                              ; preds = %bb3
  %8 = bitcast { i64*, i64 }* %_24 to {}**, !dbg !560
  store {}* null, {}** %8, align 8, !dbg !560
  %9 = bitcast %"core::fmt::Arguments"* %0 to { [0 x { [0 x i8]*, i64 }]*, i64 }*, !dbg !561
  %10 = getelementptr inbounds { [0 x { [0 x i8]*, i64 }]*, i64 }, { [0 x { [0 x i8]*, i64 }]*, i64 }* %9, i32 0, i32 0, !dbg !561
  store [0 x { [0 x i8]*, i64 }]* %pieces.0, [0 x { [0 x i8]*, i64 }]** %10, align 8, !dbg !561
  %11 = getelementptr inbounds { [0 x { [0 x i8]*, i64 }]*, i64 }, { [0 x { [0 x i8]*, i64 }]*, i64 }* %9, i32 0, i32 1, !dbg !561
  store i64 %pieces.1, i64* %11, align 8, !dbg !561
  %12 = getelementptr inbounds %"core::fmt::Arguments", %"core::fmt::Arguments"* %0, i32 0, i32 1, !dbg !561
  %13 = getelementptr inbounds { i64*, i64 }, { i64*, i64 }* %_24, i32 0, i32 0, !dbg !561
  %14 = load i64*, i64** %13, align 8, !dbg !561, !align !155
  %15 = getelementptr inbounds { i64*, i64 }, { i64*, i64 }* %_24, i32 0, i32 1, !dbg !561
  %16 = load i64, i64* %15, align 8, !dbg !561
  %17 = getelementptr inbounds { i64*, i64 }, { i64*, i64 }* %12, i32 0, i32 0, !dbg !561
  store i64* %14, i64** %17, align 8, !dbg !561
  %18 = getelementptr inbounds { i64*, i64 }, { i64*, i64 }* %12, i32 0, i32 1, !dbg !561
  store i64 %16, i64* %18, align 8, !dbg !561
  %19 = getelementptr inbounds %"core::fmt::Arguments", %"core::fmt::Arguments"* %0, i32 0, i32 2, !dbg !561
  %20 = getelementptr inbounds { [0 x { i8*, i64* }]*, i64 }, { [0 x { i8*, i64* }]*, i64 }* %19, i32 0, i32 0, !dbg !561
  store [0 x { i8*, i64* }]* %args.0, [0 x { i8*, i64* }]** %20, align 8, !dbg !561
  %21 = getelementptr inbounds { [0 x { i8*, i64* }]*, i64 }, { [0 x { i8*, i64* }]*, i64 }* %19, i32 0, i32 1, !dbg !561
  store i64 %args.1, i64* %21, align 8, !dbg !561
  ret void, !dbg !562

bb4:                                              ; preds = %bb3
; call core::fmt::Arguments::new_v1
  call void @_ZN4core3fmt9Arguments6new_v117ha8987609521698f9E(%"core::fmt::Arguments"* sret(%"core::fmt::Arguments") %_16, [0 x { [0 x i8]*, i64 }]* align 8 bitcast (<{ i8*, [8 x i8] }>* @alloc138 to [0 x { [0 x i8]*, i64 }]*), i64 1, [0 x { i8*, i64* }]* align 8 bitcast (<{}>* @alloc140 to [0 x { i8*, i64* }]*), i64 0), !dbg !563
  br label %bb5, !dbg !563

bb5:                                              ; preds = %bb4
; call core::panicking::panic_fmt
  call void @_ZN4core9panicking9panic_fmt17h62ccf03c8a8a51b5E(%"core::fmt::Arguments"* %_16, %"core::panic::location::Location"* align 8 bitcast (<{ i8*, [16 x i8] }>* @alloc275 to %"core::panic::location::Location"*)) #13, !dbg !563
  unreachable, !dbg !563
}

; core::mem::replace
; Function Attrs: inlinehint nonlazybind uwtable
define internal i64 @_ZN4core3mem7replace17hcecb3a8ba50fc797E(i64* align 8 %dest, i64 %src) unnamed_addr #2 personality i32 (i32, i32, i64, %"unwind::libunwind::_Unwind_Exception"*, %"unwind::libunwind::_Unwind_Context"*)* @rust_eh_personality !dbg !564 {
start:
  %dst.dbg.spill = alloca i64*, align 8
  %result.dbg.spill = alloca i64, align 8
  %slot.dbg.spill = alloca i64, align 8
  %0 = alloca { i8*, i32 }, align 8
  %self.dbg.spill3 = alloca i64, align 8
  %self.dbg.spill = alloca i64*, align 8
  %src.dbg.spill2 = alloca i64*, align 8
  %src.dbg.spill = alloca i64, align 8
  %dest.dbg.spill = alloca i64*, align 8
  %tmp = alloca i64, align 8
  %src1 = alloca i64, align 8
  store i64* %dest, i64** %dest.dbg.spill, align 8
  call void @llvm.dbg.declare(metadata i64** %dest.dbg.spill, metadata !571, metadata !DIExpression()), !dbg !575
  store i64 %src, i64* %src.dbg.spill, align 8
  call void @llvm.dbg.declare(metadata i64* %src.dbg.spill, metadata !572, metadata !DIExpression()), !dbg !576
  call void @llvm.dbg.declare(metadata i64* %src1, metadata !577, metadata !DIExpression()), !dbg !586
  call void @llvm.dbg.declare(metadata i64* %tmp, metadata !588, metadata !DIExpression()), !dbg !607
  store i64* %dest, i64** %src.dbg.spill2, align 8, !dbg !609
  call void @llvm.dbg.declare(metadata i64** %src.dbg.spill2, metadata !596, metadata !DIExpression()), !dbg !610
  %1 = bitcast i64* %tmp to {}*, !dbg !611
  store i64* %tmp, i64** %self.dbg.spill, align 8, !dbg !607
  call void @llvm.dbg.declare(metadata i64** %self.dbg.spill, metadata !618, metadata !DIExpression()), !dbg !625
  %2 = bitcast i64* %tmp to i8*, !dbg !607
  %3 = bitcast i64* %dest to i8*, !dbg !607
  call void @llvm.memcpy.p0i8.p0i8.i64(i8* align 8 %2, i8* align 8 %3, i64 8, i1 false), !dbg !607
  %self = load i64, i64* %tmp, align 8, !dbg !607
  store i64 %self, i64* %self.dbg.spill3, align 8, !dbg !607
  call void @llvm.dbg.declare(metadata i64* %self.dbg.spill3, metadata !627, metadata !DIExpression()), !dbg !641
  br label %bb4, !dbg !641

bb4:                                              ; preds = %start
  store i64 %self, i64* %slot.dbg.spill, align 8, !dbg !641
  call void @llvm.dbg.declare(metadata i64* %slot.dbg.spill, metadata !643, metadata !DIExpression()), !dbg !650
  store i64 %self, i64* %result.dbg.spill, align 8, !dbg !650
  call void @llvm.dbg.declare(metadata i64* %result.dbg.spill, metadata !573, metadata !DIExpression()), !dbg !652
  store i64* %dest, i64** %dst.dbg.spill, align 8, !dbg !653
  call void @llvm.dbg.declare(metadata i64** %dst.dbg.spill, metadata !585, metadata !DIExpression()), !dbg !586
  store i64 %src, i64* %src1, align 8, !dbg !654
  %4 = bitcast i64* %dest to i8*, !dbg !586
  %5 = bitcast i64* %src1 to i8*, !dbg !586
  call void @llvm.memcpy.p0i8.p0i8.i64(i8* align 8 %4, i8* align 8 %5, i64 8, i1 false), !dbg !586
  ret i64 %self, !dbg !655

bb3:                                              ; No predecessors!
  br i1 true, label %bb2, label %bb1, !dbg !656

bb1:                                              ; preds = %bb2, %bb3
  %6 = bitcast { i8*, i32 }* %0 to i8**, !dbg !657
  %7 = load i8*, i8** %6, align 8, !dbg !657
  %8 = getelementptr inbounds { i8*, i32 }, { i8*, i32 }* %0, i32 0, i32 1, !dbg !657
  %9 = load i32, i32* %8, align 8, !dbg !657
  %10 = insertvalue { i8*, i32 } undef, i8* %7, 0, !dbg !657
  %11 = insertvalue { i8*, i32 } %10, i32 %9, 1, !dbg !657
  resume { i8*, i32 } %11, !dbg !657

bb2:                                              ; preds = %bb3
  br label %bb1, !dbg !656
}

; core::ops::function::FnOnce::call_once{{vtable.shim}}
; Function Attrs: inlinehint nonlazybind uwtable
define internal i32 @"_ZN4core3ops8function6FnOnce40call_once$u7b$$u7b$vtable.shim$u7d$$u7d$17h6c7521fa448cb4c7E"(i64** %_1) unnamed_addr #2 !dbg !658 {
start:
  %_1.dbg.spill = alloca i64**, align 8
  %_2 = alloca {}, align 1
  store i64** %_1, i64*** %_1.dbg.spill, align 8
  call void @llvm.dbg.declare(metadata i64*** %_1.dbg.spill, metadata !667, metadata !DIExpression()), !dbg !672
  call void @llvm.dbg.declare(metadata {}* %_2, metadata !668, metadata !DIExpression()), !dbg !672
  %0 = load i64*, i64** %_1, align 8, !dbg !672, !nonnull !23, !noundef !23
; call core::ops::function::FnOnce::call_once
  %1 = call i32 @_ZN4core3ops8function6FnOnce9call_once17h2550e1207b63a6c9E(i64* %0), !dbg !672
  br label %bb1, !dbg !672

bb1:                                              ; preds = %start
  ret i32 %1, !dbg !672
}

; core::ops::function::FnOnce::call_once
; Function Attrs: inlinehint nonlazybind uwtable
define internal i32 @_ZN4core3ops8function6FnOnce9call_once17h2550e1207b63a6c9E(i64* %0) unnamed_addr #2 personality i32 (i32, i32, i64, %"unwind::libunwind::_Unwind_Exception"*, %"unwind::libunwind::_Unwind_Context"*)* @rust_eh_personality !dbg !673 {
start:
  %1 = alloca { i8*, i32 }, align 8
  %_2 = alloca {}, align 1
  %_1 = alloca i64*, align 8
  store i64* %0, i64** %_1, align 8
  call void @llvm.dbg.declare(metadata i64** %_1, metadata !677, metadata !DIExpression()), !dbg !679
  call void @llvm.dbg.declare(metadata {}* %_2, metadata !678, metadata !DIExpression()), !dbg !679
; invoke std::rt::lang_start::{{closure}}
  %2 = invoke i32 @"_ZN3std2rt10lang_start28_$u7b$$u7b$closure$u7d$$u7d$17hcf995a3f0c831d74E"(i64** align 8 %_1)
          to label %bb1 unwind label %cleanup, !dbg !679

bb3:                                              ; preds = %cleanup
  br label %bb4, !dbg !679

cleanup:                                          ; preds = %start
  %3 = landingpad { i8*, i32 }
          cleanup
  %4 = extractvalue { i8*, i32 } %3, 0
  %5 = extractvalue { i8*, i32 } %3, 1
  %6 = getelementptr inbounds { i8*, i32 }, { i8*, i32 }* %1, i32 0, i32 0
  store i8* %4, i8** %6, align 8
  %7 = getelementptr inbounds { i8*, i32 }, { i8*, i32 }* %1, i32 0, i32 1
  store i32 %5, i32* %7, align 8
  br label %bb3

bb1:                                              ; preds = %start
  br label %bb2, !dbg !679

bb4:                                              ; preds = %bb3
  %8 = bitcast { i8*, i32 }* %1 to i8**, !dbg !679
  %9 = load i8*, i8** %8, align 8, !dbg !679
  %10 = getelementptr inbounds { i8*, i32 }, { i8*, i32 }* %1, i32 0, i32 1, !dbg !679
  %11 = load i32, i32* %10, align 8, !dbg !679
  %12 = insertvalue { i8*, i32 } undef, i8* %9, 0, !dbg !679
  %13 = insertvalue { i8*, i32 } %12, i32 %11, 1, !dbg !679
  resume { i8*, i32 } %13, !dbg !679

bb2:                                              ; preds = %bb1
  ret i32 %2, !dbg !679
}

; core::ops::function::FnOnce::call_once
; Function Attrs: inlinehint nonlazybind uwtable
define internal void @_ZN4core3ops8function6FnOnce9call_once17h3cf4981bfad132abE(void ()* %_1) unnamed_addr #2 !dbg !680 {
start:
  %_1.dbg.spill = alloca void ()*, align 8
  %_2 = alloca {}, align 1
  store void ()* %_1, void ()** %_1.dbg.spill, align 8
  call void @llvm.dbg.declare(metadata void ()** %_1.dbg.spill, metadata !682, metadata !DIExpression()), !dbg !686
  call void @llvm.dbg.declare(metadata {}* %_2, metadata !683, metadata !DIExpression()), !dbg !686
  call void %_1(), !dbg !686
  br label %bb1, !dbg !686

bb1:                                              ; preds = %start
  ret void, !dbg !686
}

; core::ops::function::FnOnce::call_once
; Function Attrs: inlinehint nonlazybind uwtable
define internal void @_ZN4core3ops8function6FnOnce9call_once17h468325a8ed4d5a4cE() unnamed_addr #2 personality i32 (i32, i32, i64, %"unwind::libunwind::_Unwind_Exception"*, %"unwind::libunwind::_Unwind_Context"*)* @rust_eh_personality !dbg !687 {
start:
  %0 = alloca { i8*, i32 }, align 8
  %_2 = alloca {}, align 1
  %_1 = alloca %"[closure@src/test_goto.rs:49:1: 60:2]", align 1
  call void @llvm.dbg.declare(metadata %"[closure@src/test_goto.rs:49:1: 60:2]"* %_1, metadata !695, metadata !DIExpression()), !dbg !699
  call void @llvm.dbg.declare(metadata {}* %_2, metadata !696, metadata !DIExpression()), !dbg !699
; invoke loops_tests::test_goto::test_goto_switch::{{closure}}
  invoke void @"_ZN11loops_tests9test_goto16test_goto_switch28_$u7b$$u7b$closure$u7d$$u7d$17h3504bdfc19e44302E"(%"[closure@src/test_goto.rs:49:1: 60:2]"* align 1 %_1)
          to label %bb1 unwind label %cleanup, !dbg !699

bb3:                                              ; preds = %cleanup
  br label %bb4, !dbg !699

cleanup:                                          ; preds = %start
  %1 = landingpad { i8*, i32 }
          cleanup
  %2 = extractvalue { i8*, i32 } %1, 0
  %3 = extractvalue { i8*, i32 } %1, 1
  %4 = getelementptr inbounds { i8*, i32 }, { i8*, i32 }* %0, i32 0, i32 0
  store i8* %2, i8** %4, align 8
  %5 = getelementptr inbounds { i8*, i32 }, { i8*, i32 }* %0, i32 0, i32 1
  store i32 %3, i32* %5, align 8
  br label %bb3

bb1:                                              ; preds = %start
  br label %bb2, !dbg !699

bb4:                                              ; preds = %bb3
  %6 = bitcast { i8*, i32 }* %0 to i8**, !dbg !699
  %7 = load i8*, i8** %6, align 8, !dbg !699
  %8 = getelementptr inbounds { i8*, i32 }, { i8*, i32 }* %0, i32 0, i32 1, !dbg !699
  %9 = load i32, i32* %8, align 8, !dbg !699
  %10 = insertvalue { i8*, i32 } undef, i8* %7, 0, !dbg !699
  %11 = insertvalue { i8*, i32 } %10, i32 %9, 1, !dbg !699
  resume { i8*, i32 } %11, !dbg !699

bb2:                                              ; preds = %bb1
  ret void, !dbg !699
}

; core::ops::function::FnOnce::call_once
; Function Attrs: inlinehint nonlazybind uwtable
define internal void @_ZN4core3ops8function6FnOnce9call_once17h61dccf1a9f47caabE() unnamed_addr #2 personality i32 (i32, i32, i64, %"unwind::libunwind::_Unwind_Exception"*, %"unwind::libunwind::_Unwind_Context"*)* @rust_eh_personality !dbg !700 {
start:
  %0 = alloca { i8*, i32 }, align 8
  %_2 = alloca {}, align 1
  %_1 = alloca %"[closure@src/test_loops.rs:12:1: 30:2]", align 1
  call void @llvm.dbg.declare(metadata %"[closure@src/test_loops.rs:12:1: 30:2]"* %_1, metadata !707, metadata !DIExpression()), !dbg !711
  call void @llvm.dbg.declare(metadata {}* %_2, metadata !708, metadata !DIExpression()), !dbg !711
; invoke loops_tests::test_loops::test_buffer::{{closure}}
  invoke void @"_ZN11loops_tests10test_loops11test_buffer28_$u7b$$u7b$closure$u7d$$u7d$17hdf080631f8f21b94E"(%"[closure@src/test_loops.rs:12:1: 30:2]"* align 1 %_1)
          to label %bb1 unwind label %cleanup, !dbg !711

bb3:                                              ; preds = %cleanup
  br label %bb4, !dbg !711

cleanup:                                          ; preds = %start
  %1 = landingpad { i8*, i32 }
          cleanup
  %2 = extractvalue { i8*, i32 } %1, 0
  %3 = extractvalue { i8*, i32 } %1, 1
  %4 = getelementptr inbounds { i8*, i32 }, { i8*, i32 }* %0, i32 0, i32 0
  store i8* %2, i8** %4, align 8
  %5 = getelementptr inbounds { i8*, i32 }, { i8*, i32 }* %0, i32 0, i32 1
  store i32 %3, i32* %5, align 8
  br label %bb3

bb1:                                              ; preds = %start
  br label %bb2, !dbg !711

bb4:                                              ; preds = %bb3
  %6 = bitcast { i8*, i32 }* %0 to i8**, !dbg !711
  %7 = load i8*, i8** %6, align 8, !dbg !711
  %8 = getelementptr inbounds { i8*, i32 }, { i8*, i32 }* %0, i32 0, i32 1, !dbg !711
  %9 = load i32, i32* %8, align 8, !dbg !711
  %10 = insertvalue { i8*, i32 } undef, i8* %7, 0, !dbg !711
  %11 = insertvalue { i8*, i32 } %10, i32 %9, 1, !dbg !711
  resume { i8*, i32 } %11, !dbg !711

bb2:                                              ; preds = %bb1
  ret void, !dbg !711
}

; core::ops::function::FnOnce::call_once
; Function Attrs: inlinehint nonlazybind uwtable
define internal void @_ZN4core3ops8function6FnOnce9call_once17h68a50a2691f39650E() unnamed_addr #2 personality i32 (i32, i32, i64, %"unwind::libunwind::_Unwind_Exception"*, %"unwind::libunwind::_Unwind_Context"*)* @rust_eh_personality !dbg !712 {
start:
  %0 = alloca { i8*, i32 }, align 8
  %_2 = alloca {}, align 1
  %_1 = alloca %"[closure@src/test_switch.rs:10:1: 28:2]", align 1
  call void @llvm.dbg.declare(metadata %"[closure@src/test_switch.rs:10:1: 28:2]"* %_1, metadata !719, metadata !DIExpression()), !dbg !723
  call void @llvm.dbg.declare(metadata {}* %_2, metadata !720, metadata !DIExpression()), !dbg !723
; invoke loops_tests::test_switch::test_switch::{{closure}}
  invoke void @"_ZN11loops_tests11test_switch11test_switch28_$u7b$$u7b$closure$u7d$$u7d$17h254a4b29e4126a92E"(%"[closure@src/test_switch.rs:10:1: 28:2]"* align 1 %_1)
          to label %bb1 unwind label %cleanup, !dbg !723

bb3:                                              ; preds = %cleanup
  br label %bb4, !dbg !723

cleanup:                                          ; preds = %start
  %1 = landingpad { i8*, i32 }
          cleanup
  %2 = extractvalue { i8*, i32 } %1, 0
  %3 = extractvalue { i8*, i32 } %1, 1
  %4 = getelementptr inbounds { i8*, i32 }, { i8*, i32 }* %0, i32 0, i32 0
  store i8* %2, i8** %4, align 8
  %5 = getelementptr inbounds { i8*, i32 }, { i8*, i32 }* %0, i32 0, i32 1
  store i32 %3, i32* %5, align 8
  br label %bb3

bb1:                                              ; preds = %start
  br label %bb2, !dbg !723

bb4:                                              ; preds = %bb3
  %6 = bitcast { i8*, i32 }* %0 to i8**, !dbg !723
  %7 = load i8*, i8** %6, align 8, !dbg !723
  %8 = getelementptr inbounds { i8*, i32 }, { i8*, i32 }* %0, i32 0, i32 1, !dbg !723
  %9 = load i32, i32* %8, align 8, !dbg !723
  %10 = insertvalue { i8*, i32 } undef, i8* %7, 0, !dbg !723
  %11 = insertvalue { i8*, i32 } %10, i32 %9, 1, !dbg !723
  resume { i8*, i32 } %11, !dbg !723

bb2:                                              ; preds = %bb1
  ret void, !dbg !723
}

; core::ops::function::FnOnce::call_once
; Function Attrs: inlinehint nonlazybind uwtable
define internal void @_ZN4core3ops8function6FnOnce9call_once17hd136748216eeb8c2E() unnamed_addr #2 personality i32 (i32, i32, i64, %"unwind::libunwind::_Unwind_Exception"*, %"unwind::libunwind::_Unwind_Context"*)* @rust_eh_personality !dbg !724 {
start:
  %0 = alloca { i8*, i32 }, align 8
  %_2 = alloca {}, align 1
  %_1 = alloca %"[closure@src/test_goto.rs:21:1: 32:2]", align 1
  call void @llvm.dbg.declare(metadata %"[closure@src/test_goto.rs:21:1: 32:2]"* %_1, metadata !730, metadata !DIExpression()), !dbg !734
  call void @llvm.dbg.declare(metadata {}* %_2, metadata !731, metadata !DIExpression()), !dbg !734
; invoke loops_tests::test_goto::test_goto_linear::{{closure}}
  invoke void @"_ZN11loops_tests9test_goto16test_goto_linear28_$u7b$$u7b$closure$u7d$$u7d$17hdcb261f741fc23c7E"(%"[closure@src/test_goto.rs:21:1: 32:2]"* align 1 %_1)
          to label %bb1 unwind label %cleanup, !dbg !734

bb3:                                              ; preds = %cleanup
  br label %bb4, !dbg !734

cleanup:                                          ; preds = %start
  %1 = landingpad { i8*, i32 }
          cleanup
  %2 = extractvalue { i8*, i32 } %1, 0
  %3 = extractvalue { i8*, i32 } %1, 1
  %4 = getelementptr inbounds { i8*, i32 }, { i8*, i32 }* %0, i32 0, i32 0
  store i8* %2, i8** %4, align 8
  %5 = getelementptr inbounds { i8*, i32 }, { i8*, i32 }* %0, i32 0, i32 1
  store i32 %3, i32* %5, align 8
  br label %bb3

bb1:                                              ; preds = %start
  br label %bb2, !dbg !734

bb4:                                              ; preds = %bb3
  %6 = bitcast { i8*, i32 }* %0 to i8**, !dbg !734
  %7 = load i8*, i8** %6, align 8, !dbg !734
  %8 = getelementptr inbounds { i8*, i32 }, { i8*, i32 }* %0, i32 0, i32 1, !dbg !734
  %9 = load i32, i32* %8, align 8, !dbg !734
  %10 = insertvalue { i8*, i32 } undef, i8* %7, 0, !dbg !734
  %11 = insertvalue { i8*, i32 } %10, i32 %9, 1, !dbg !734
  resume { i8*, i32 } %11, !dbg !734

bb2:                                              ; preds = %bb1
  ret void, !dbg !734
}

; core::ops::function::FnOnce::call_once
; Function Attrs: inlinehint nonlazybind uwtable
define internal void @_ZN4core3ops8function6FnOnce9call_once17hf1ce68b9552fbb43E() unnamed_addr #2 personality i32 (i32, i32, i64, %"unwind::libunwind::_Unwind_Exception"*, %"unwind::libunwind::_Unwind_Context"*)* @rust_eh_personality !dbg !735 {
start:
  %0 = alloca { i8*, i32 }, align 8
  %_2 = alloca {}, align 1
  %_1 = alloca %"[closure@src/test_goto.rs:35:1: 46:2]", align 1
  call void @llvm.dbg.declare(metadata %"[closure@src/test_goto.rs:35:1: 46:2]"* %_1, metadata !741, metadata !DIExpression()), !dbg !745
  call void @llvm.dbg.declare(metadata {}* %_2, metadata !742, metadata !DIExpression()), !dbg !745
; invoke loops_tests::test_goto::test_goto_loop::{{closure}}
  invoke void @"_ZN11loops_tests9test_goto14test_goto_loop28_$u7b$$u7b$closure$u7d$$u7d$17h9a90e2a565ead2ccE"(%"[closure@src/test_goto.rs:35:1: 46:2]"* align 1 %_1)
          to label %bb1 unwind label %cleanup, !dbg !745

bb3:                                              ; preds = %cleanup
  br label %bb4, !dbg !745

cleanup:                                          ; preds = %start
  %1 = landingpad { i8*, i32 }
          cleanup
  %2 = extractvalue { i8*, i32 } %1, 0
  %3 = extractvalue { i8*, i32 } %1, 1
  %4 = getelementptr inbounds { i8*, i32 }, { i8*, i32 }* %0, i32 0, i32 0
  store i8* %2, i8** %4, align 8
  %5 = getelementptr inbounds { i8*, i32 }, { i8*, i32 }* %0, i32 0, i32 1
  store i32 %3, i32* %5, align 8
  br label %bb3

bb1:                                              ; preds = %start
  br label %bb2, !dbg !745

bb4:                                              ; preds = %bb3
  %6 = bitcast { i8*, i32 }* %0 to i8**, !dbg !745
  %7 = load i8*, i8** %6, align 8, !dbg !745
  %8 = getelementptr inbounds { i8*, i32 }, { i8*, i32 }* %0, i32 0, i32 1, !dbg !745
  %9 = load i32, i32* %8, align 8, !dbg !745
  %10 = insertvalue { i8*, i32 } undef, i8* %7, 0, !dbg !745
  %11 = insertvalue { i8*, i32 } %10, i32 %9, 1, !dbg !745
  resume { i8*, i32 } %11, !dbg !745

bb2:                                              ; preds = %bb1
  ret void, !dbg !745
}

; core::ptr::drop_in_place<&i32>
; Function Attrs: inlinehint nonlazybind uwtable
define internal void @"_ZN4core3ptr28drop_in_place$LT$$RF$i32$GT$17hd1fd4c1fd9717dbfE"(i32** %_1) unnamed_addr #2 !dbg !746 {
start:
  %_1.dbg.spill = alloca i32**, align 8
  store i32** %_1, i32*** %_1.dbg.spill, align 8
  call void @llvm.dbg.declare(metadata i32*** %_1.dbg.spill, metadata !751, metadata !DIExpression()), !dbg !752
  ret void, !dbg !752
}

; core::ptr::drop_in_place<&[i32; 4]>
; Function Attrs: inlinehint nonlazybind uwtable
define internal void @"_ZN4core3ptr49drop_in_place$LT$$RF$$u5b$i32$u3b$$u20$4$u5d$$GT$17h2ff979966a08d14bE"([4 x i32]** %_1) unnamed_addr #2 !dbg !753 {
start:
  %_1.dbg.spill = alloca [4 x i32]**, align 8
  store [4 x i32]** %_1, [4 x i32]*** %_1.dbg.spill, align 8
  call void @llvm.dbg.declare(metadata [4 x i32]*** %_1.dbg.spill, metadata !758, metadata !DIExpression()), !dbg !761
  ret void, !dbg !761
}

; core::ptr::drop_in_place<&[i32; 6]>
; Function Attrs: inlinehint nonlazybind uwtable
define internal void @"_ZN4core3ptr49drop_in_place$LT$$RF$$u5b$i32$u3b$$u20$6$u5d$$GT$17h7cfbb3791a1affb3E"([6 x i32]** %_1) unnamed_addr #2 !dbg !762 {
start:
  %_1.dbg.spill = alloca [6 x i32]**, align 8
  store [6 x i32]** %_1, [6 x i32]*** %_1.dbg.spill, align 8
  call void @llvm.dbg.declare(metadata [6 x i32]*** %_1.dbg.spill, metadata !767, metadata !DIExpression()), !dbg !770
  ret void, !dbg !770
}

; core::ptr::drop_in_place<&[i32; 12]>
; Function Attrs: inlinehint nonlazybind uwtable
define internal void @"_ZN4core3ptr50drop_in_place$LT$$RF$$u5b$i32$u3b$$u20$12$u5d$$GT$17h71e61bf3eaa14744E"([12 x i32]** %_1) unnamed_addr #2 !dbg !771 {
start:
  %_1.dbg.spill = alloca [12 x i32]**, align 8
  store [12 x i32]** %_1, [12 x i32]*** %_1.dbg.spill, align 8
  call void @llvm.dbg.declare(metadata [12 x i32]*** %_1.dbg.spill, metadata !776, metadata !DIExpression()), !dbg !779
  ret void, !dbg !779
}

; core::ptr::drop_in_place<std::rt::lang_start<()>::{{closure}}>
; Function Attrs: inlinehint nonlazybind uwtable
define internal void @"_ZN4core3ptr85drop_in_place$LT$std..rt..lang_start$LT$$LP$$RP$$GT$..$u7b$$u7b$closure$u7d$$u7d$$GT$17h2a9cbcc4a095d991E"(i64** %_1) unnamed_addr #2 !dbg !780 {
start:
  %_1.dbg.spill = alloca i64**, align 8
  store i64** %_1, i64*** %_1.dbg.spill, align 8
  call void @llvm.dbg.declare(metadata i64*** %_1.dbg.spill, metadata !784, metadata !DIExpression()), !dbg !787
  ret void, !dbg !787
}

; core::iter::range::<impl core::iter::traits::iterator::Iterator for core::ops::range::Range<A>>::next
; Function Attrs: inlinehint nonlazybind uwtable
define internal { i64, i64 } @"_ZN4core4iter5range101_$LT$impl$u20$core..iter..traits..iterator..Iterator$u20$for$u20$core..ops..range..Range$LT$A$GT$$GT$4next17h8ecef7b8b513c407E"({ i64, i64 }* align 8 %self) unnamed_addr #2 !dbg !788 {
start:
  %self.dbg.spill = alloca { i64, i64 }*, align 8
  store { i64, i64 }* %self, { i64, i64 }** %self.dbg.spill, align 8
  call void @llvm.dbg.declare(metadata { i64, i64 }** %self.dbg.spill, metadata !801, metadata !DIExpression()), !dbg !804
; call <core::ops::range::Range<T> as core::iter::range::RangeIteratorImpl>::spec_next
  %0 = call { i64, i64 } @"_ZN89_$LT$core..ops..range..Range$LT$T$GT$$u20$as$u20$core..iter..range..RangeIteratorImpl$GT$9spec_next17h050ea64677758a38E"({ i64, i64 }* align 8 %self), !dbg !805
  %1 = extractvalue { i64, i64 } %0, 0, !dbg !805
  %2 = extractvalue { i64, i64 } %0, 1, !dbg !805
  br label %bb1, !dbg !805

bb1:                                              ; preds = %start
  %3 = insertvalue { i64, i64 } undef, i64 %1, 0, !dbg !806
  %4 = insertvalue { i64, i64 } %3, i64 %2, 1, !dbg !806
  ret { i64, i64 } %4, !dbg !806
}

; core::array::<impl core::fmt::Debug for [T; N]>::fmt
; Function Attrs: nonlazybind uwtable
define internal zeroext i1 @"_ZN4core5array69_$LT$impl$u20$core..fmt..Debug$u20$for$u20$$u5b$T$u3b$$u20$N$u5d$$GT$3fmt17h62dbafde69f86181E"([12 x i32]* align 4 %self, %"core::fmt::Formatter"* align 8 %f) unnamed_addr #1 !dbg !807 {
start:
  %slice.dbg.spill = alloca { [0 x i32]*, i64 }, align 8
  %self.dbg.spill4 = alloca { [0 x i32]*, i64 }, align 8
  %self.dbg.spill3 = alloca [12 x i32]*, align 8
  %self.dbg.spill2 = alloca %"core::ops::range::RangeFull", align 1
  %index.dbg.spill1 = alloca %"core::ops::range::RangeFull", align 1
  %index.dbg.spill = alloca %"core::ops::range::RangeFull", align 1
  %f.dbg.spill = alloca %"core::fmt::Formatter"*, align 8
  %self.dbg.spill = alloca [12 x i32]*, align 8
  %_5 = alloca { [0 x i32]*, i64 }, align 8
  store [12 x i32]* %self, [12 x i32]** %self.dbg.spill, align 8
  call void @llvm.dbg.declare(metadata [12 x i32]** %self.dbg.spill, metadata !814, metadata !DIExpression()), !dbg !816
  store %"core::fmt::Formatter"* %f, %"core::fmt::Formatter"** %f.dbg.spill, align 8
  call void @llvm.dbg.declare(metadata %"core::fmt::Formatter"** %f.dbg.spill, metadata !815, metadata !DIExpression()), !dbg !817
  call void @llvm.dbg.declare(metadata %"core::ops::range::RangeFull"* %index.dbg.spill, metadata !818, metadata !DIExpression()), !dbg !828
  call void @llvm.dbg.declare(metadata %"core::ops::range::RangeFull"* %index.dbg.spill1, metadata !830, metadata !DIExpression()), !dbg !840
  call void @llvm.dbg.declare(metadata %"core::ops::range::RangeFull"* %self.dbg.spill2, metadata !842, metadata !DIExpression()), !dbg !850
  store [12 x i32]* %self, [12 x i32]** %self.dbg.spill3, align 8, !dbg !829
  call void @llvm.dbg.declare(metadata [12 x i32]** %self.dbg.spill3, metadata !825, metadata !DIExpression()), !dbg !828
  %_11.0 = bitcast [12 x i32]* %self to [0 x i32]*, !dbg !828
  %0 = getelementptr inbounds { [0 x i32]*, i64 }, { [0 x i32]*, i64 }* %self.dbg.spill4, i32 0, i32 0, !dbg !828
  store [0 x i32]* %_11.0, [0 x i32]** %0, align 8, !dbg !828
  %1 = getelementptr inbounds { [0 x i32]*, i64 }, { [0 x i32]*, i64 }* %self.dbg.spill4, i32 0, i32 1, !dbg !828
  store i64 12, i64* %1, align 8, !dbg !828
  call void @llvm.dbg.declare(metadata { [0 x i32]*, i64 }* %self.dbg.spill4, metadata !839, metadata !DIExpression()), !dbg !840
  %2 = getelementptr inbounds { [0 x i32]*, i64 }, { [0 x i32]*, i64 }* %slice.dbg.spill, i32 0, i32 0, !dbg !840
  store [0 x i32]* %_11.0, [0 x i32]** %2, align 8, !dbg !840
  %3 = getelementptr inbounds { [0 x i32]*, i64 }, { [0 x i32]*, i64 }* %slice.dbg.spill, i32 0, i32 1, !dbg !840
  store i64 12, i64* %3, align 8, !dbg !840
  call void @llvm.dbg.declare(metadata { [0 x i32]*, i64 }* %slice.dbg.spill, metadata !849, metadata !DIExpression()), !dbg !850
  %4 = getelementptr inbounds { [0 x i32]*, i64 }, { [0 x i32]*, i64 }* %_5, i32 0, i32 0, !dbg !852
  store [0 x i32]* %_11.0, [0 x i32]** %4, align 8, !dbg !852
  %5 = getelementptr inbounds { [0 x i32]*, i64 }, { [0 x i32]*, i64 }* %_5, i32 0, i32 1, !dbg !852
  store i64 12, i64* %5, align 8, !dbg !852
; call <&T as core::fmt::Debug>::fmt
  %6 = call zeroext i1 @"_ZN42_$LT$$RF$T$u20$as$u20$core..fmt..Debug$GT$3fmt17h62f3834bd06bb1efE"({ [0 x i32]*, i64 }* align 8 %_5, %"core::fmt::Formatter"* align 8 %f), !dbg !853
  br label %bb1, !dbg !853

bb1:                                              ; preds = %start
  ret i1 %6, !dbg !854
}

; core::array::<impl core::fmt::Debug for [T; N]>::fmt
; Function Attrs: nonlazybind uwtable
define internal zeroext i1 @"_ZN4core5array69_$LT$impl$u20$core..fmt..Debug$u20$for$u20$$u5b$T$u3b$$u20$N$u5d$$GT$3fmt17h7336e8117b367aabE"([6 x i32]* align 4 %self, %"core::fmt::Formatter"* align 8 %f) unnamed_addr #1 !dbg !855 {
start:
  %slice.dbg.spill = alloca { [0 x i32]*, i64 }, align 8
  %self.dbg.spill4 = alloca { [0 x i32]*, i64 }, align 8
  %self.dbg.spill3 = alloca [6 x i32]*, align 8
  %self.dbg.spill2 = alloca %"core::ops::range::RangeFull", align 1
  %index.dbg.spill1 = alloca %"core::ops::range::RangeFull", align 1
  %index.dbg.spill = alloca %"core::ops::range::RangeFull", align 1
  %f.dbg.spill = alloca %"core::fmt::Formatter"*, align 8
  %self.dbg.spill = alloca [6 x i32]*, align 8
  %_5 = alloca { [0 x i32]*, i64 }, align 8
  store [6 x i32]* %self, [6 x i32]** %self.dbg.spill, align 8
  call void @llvm.dbg.declare(metadata [6 x i32]** %self.dbg.spill, metadata !859, metadata !DIExpression()), !dbg !861
  store %"core::fmt::Formatter"* %f, %"core::fmt::Formatter"** %f.dbg.spill, align 8
  call void @llvm.dbg.declare(metadata %"core::fmt::Formatter"** %f.dbg.spill, metadata !860, metadata !DIExpression()), !dbg !862
  call void @llvm.dbg.declare(metadata %"core::ops::range::RangeFull"* %index.dbg.spill, metadata !863, metadata !DIExpression()), !dbg !869
  call void @llvm.dbg.declare(metadata %"core::ops::range::RangeFull"* %index.dbg.spill1, metadata !871, metadata !DIExpression()), !dbg !876
  call void @llvm.dbg.declare(metadata %"core::ops::range::RangeFull"* %self.dbg.spill2, metadata !878, metadata !DIExpression()), !dbg !883
  store [6 x i32]* %self, [6 x i32]** %self.dbg.spill3, align 8, !dbg !870
  call void @llvm.dbg.declare(metadata [6 x i32]** %self.dbg.spill3, metadata !868, metadata !DIExpression()), !dbg !869
  %_11.0 = bitcast [6 x i32]* %self to [0 x i32]*, !dbg !869
  %0 = getelementptr inbounds { [0 x i32]*, i64 }, { [0 x i32]*, i64 }* %self.dbg.spill4, i32 0, i32 0, !dbg !869
  store [0 x i32]* %_11.0, [0 x i32]** %0, align 8, !dbg !869
  %1 = getelementptr inbounds { [0 x i32]*, i64 }, { [0 x i32]*, i64 }* %self.dbg.spill4, i32 0, i32 1, !dbg !869
  store i64 6, i64* %1, align 8, !dbg !869
  call void @llvm.dbg.declare(metadata { [0 x i32]*, i64 }* %self.dbg.spill4, metadata !875, metadata !DIExpression()), !dbg !876
  %2 = getelementptr inbounds { [0 x i32]*, i64 }, { [0 x i32]*, i64 }* %slice.dbg.spill, i32 0, i32 0, !dbg !876
  store [0 x i32]* %_11.0, [0 x i32]** %2, align 8, !dbg !876
  %3 = getelementptr inbounds { [0 x i32]*, i64 }, { [0 x i32]*, i64 }* %slice.dbg.spill, i32 0, i32 1, !dbg !876
  store i64 6, i64* %3, align 8, !dbg !876
  call void @llvm.dbg.declare(metadata { [0 x i32]*, i64 }* %slice.dbg.spill, metadata !882, metadata !DIExpression()), !dbg !883
  %4 = getelementptr inbounds { [0 x i32]*, i64 }, { [0 x i32]*, i64 }* %_5, i32 0, i32 0, !dbg !885
  store [0 x i32]* %_11.0, [0 x i32]** %4, align 8, !dbg !885
  %5 = getelementptr inbounds { [0 x i32]*, i64 }, { [0 x i32]*, i64 }* %_5, i32 0, i32 1, !dbg !885
  store i64 6, i64* %5, align 8, !dbg !885
; call <&T as core::fmt::Debug>::fmt
  %6 = call zeroext i1 @"_ZN42_$LT$$RF$T$u20$as$u20$core..fmt..Debug$GT$3fmt17h62f3834bd06bb1efE"({ [0 x i32]*, i64 }* align 8 %_5, %"core::fmt::Formatter"* align 8 %f), !dbg !886
  br label %bb1, !dbg !886

bb1:                                              ; preds = %start
  ret i1 %6, !dbg !887
}

; core::array::<impl core::fmt::Debug for [T; N]>::fmt
; Function Attrs: nonlazybind uwtable
define internal zeroext i1 @"_ZN4core5array69_$LT$impl$u20$core..fmt..Debug$u20$for$u20$$u5b$T$u3b$$u20$N$u5d$$GT$3fmt17h77b2a20561b9b162E"([4 x i32]* align 4 %self, %"core::fmt::Formatter"* align 8 %f) unnamed_addr #1 !dbg !888 {
start:
  %slice.dbg.spill = alloca { [0 x i32]*, i64 }, align 8
  %self.dbg.spill4 = alloca { [0 x i32]*, i64 }, align 8
  %self.dbg.spill3 = alloca [4 x i32]*, align 8
  %self.dbg.spill2 = alloca %"core::ops::range::RangeFull", align 1
  %index.dbg.spill1 = alloca %"core::ops::range::RangeFull", align 1
  %index.dbg.spill = alloca %"core::ops::range::RangeFull", align 1
  %f.dbg.spill = alloca %"core::fmt::Formatter"*, align 8
  %self.dbg.spill = alloca [4 x i32]*, align 8
  %_5 = alloca { [0 x i32]*, i64 }, align 8
  store [4 x i32]* %self, [4 x i32]** %self.dbg.spill, align 8
  call void @llvm.dbg.declare(metadata [4 x i32]** %self.dbg.spill, metadata !892, metadata !DIExpression()), !dbg !894
  store %"core::fmt::Formatter"* %f, %"core::fmt::Formatter"** %f.dbg.spill, align 8
  call void @llvm.dbg.declare(metadata %"core::fmt::Formatter"** %f.dbg.spill, metadata !893, metadata !DIExpression()), !dbg !895
  call void @llvm.dbg.declare(metadata %"core::ops::range::RangeFull"* %index.dbg.spill, metadata !896, metadata !DIExpression()), !dbg !902
  call void @llvm.dbg.declare(metadata %"core::ops::range::RangeFull"* %index.dbg.spill1, metadata !904, metadata !DIExpression()), !dbg !909
  call void @llvm.dbg.declare(metadata %"core::ops::range::RangeFull"* %self.dbg.spill2, metadata !911, metadata !DIExpression()), !dbg !916
  store [4 x i32]* %self, [4 x i32]** %self.dbg.spill3, align 8, !dbg !903
  call void @llvm.dbg.declare(metadata [4 x i32]** %self.dbg.spill3, metadata !901, metadata !DIExpression()), !dbg !902
  %_11.0 = bitcast [4 x i32]* %self to [0 x i32]*, !dbg !902
  %0 = getelementptr inbounds { [0 x i32]*, i64 }, { [0 x i32]*, i64 }* %self.dbg.spill4, i32 0, i32 0, !dbg !902
  store [0 x i32]* %_11.0, [0 x i32]** %0, align 8, !dbg !902
  %1 = getelementptr inbounds { [0 x i32]*, i64 }, { [0 x i32]*, i64 }* %self.dbg.spill4, i32 0, i32 1, !dbg !902
  store i64 4, i64* %1, align 8, !dbg !902
  call void @llvm.dbg.declare(metadata { [0 x i32]*, i64 }* %self.dbg.spill4, metadata !908, metadata !DIExpression()), !dbg !909
  %2 = getelementptr inbounds { [0 x i32]*, i64 }, { [0 x i32]*, i64 }* %slice.dbg.spill, i32 0, i32 0, !dbg !909
  store [0 x i32]* %_11.0, [0 x i32]** %2, align 8, !dbg !909
  %3 = getelementptr inbounds { [0 x i32]*, i64 }, { [0 x i32]*, i64 }* %slice.dbg.spill, i32 0, i32 1, !dbg !909
  store i64 4, i64* %3, align 8, !dbg !909
  call void @llvm.dbg.declare(metadata { [0 x i32]*, i64 }* %slice.dbg.spill, metadata !915, metadata !DIExpression()), !dbg !916
  %4 = getelementptr inbounds { [0 x i32]*, i64 }, { [0 x i32]*, i64 }* %_5, i32 0, i32 0, !dbg !918
  store [0 x i32]* %_11.0, [0 x i32]** %4, align 8, !dbg !918
  %5 = getelementptr inbounds { [0 x i32]*, i64 }, { [0 x i32]*, i64 }* %_5, i32 0, i32 1, !dbg !918
  store i64 4, i64* %5, align 8, !dbg !918
; call <&T as core::fmt::Debug>::fmt
  %6 = call zeroext i1 @"_ZN42_$LT$$RF$T$u20$as$u20$core..fmt..Debug$GT$3fmt17h62f3834bd06bb1efE"({ [0 x i32]*, i64 }* align 8 %_5, %"core::fmt::Formatter"* align 8 %f), !dbg !919
  br label %bb1, !dbg !919

bb1:                                              ; preds = %start
  ret i1 %6, !dbg !920
}

; core::array::equality::<impl core::cmp::PartialEq<[B; N]> for [A; N]>::eq
; Function Attrs: inlinehint nonlazybind uwtable
define internal zeroext i1 @"_ZN4core5array8equality103_$LT$impl$u20$core..cmp..PartialEq$LT$$u5b$B$u3b$$u20$N$u5d$$GT$$u20$for$u20$$u5b$A$u3b$$u20$N$u5d$$GT$2eq17h0b7a421f400c5646E"([4 x i32]* align 4 %self, [4 x i32]* align 4 %other) unnamed_addr #2 !dbg !921 {
start:
  %other.dbg.spill = alloca [4 x i32]*, align 8
  %self.dbg.spill = alloca [4 x i32]*, align 8
  store [4 x i32]* %self, [4 x i32]** %self.dbg.spill, align 8
  call void @llvm.dbg.declare(metadata [4 x i32]** %self.dbg.spill, metadata !928, metadata !DIExpression()), !dbg !933
  store [4 x i32]* %other, [4 x i32]** %other.dbg.spill, align 8
  call void @llvm.dbg.declare(metadata [4 x i32]** %other.dbg.spill, metadata !929, metadata !DIExpression()), !dbg !934
; call <T as core::array::equality::SpecArrayEq<U,_>>::spec_eq
  %0 = call zeroext i1 @"_ZN69_$LT$T$u20$as$u20$core..array..equality..SpecArrayEq$LT$U$C$_$GT$$GT$7spec_eq17hda1dac9c78a045b2E"([4 x i32]* align 4 %self, [4 x i32]* align 4 %other), !dbg !935
  br label %bb1, !dbg !935

bb1:                                              ; preds = %start
  ret i1 %0, !dbg !936
}

; core::array::equality::<impl core::cmp::PartialEq<[B; N]> for [A; N]>::eq
; Function Attrs: inlinehint nonlazybind uwtable
define internal zeroext i1 @"_ZN4core5array8equality103_$LT$impl$u20$core..cmp..PartialEq$LT$$u5b$B$u3b$$u20$N$u5d$$GT$$u20$for$u20$$u5b$A$u3b$$u20$N$u5d$$GT$2eq17h3e1c2a7401ebf6b8E"([6 x i32]* align 4 %self, [6 x i32]* align 4 %other) unnamed_addr #2 !dbg !937 {
start:
  %other.dbg.spill = alloca [6 x i32]*, align 8
  %self.dbg.spill = alloca [6 x i32]*, align 8
  store [6 x i32]* %self, [6 x i32]** %self.dbg.spill, align 8
  call void @llvm.dbg.declare(metadata [6 x i32]** %self.dbg.spill, metadata !941, metadata !DIExpression()), !dbg !943
  store [6 x i32]* %other, [6 x i32]** %other.dbg.spill, align 8
  call void @llvm.dbg.declare(metadata [6 x i32]** %other.dbg.spill, metadata !942, metadata !DIExpression()), !dbg !944
; call <T as core::array::equality::SpecArrayEq<U,_>>::spec_eq
  %0 = call zeroext i1 @"_ZN69_$LT$T$u20$as$u20$core..array..equality..SpecArrayEq$LT$U$C$_$GT$$GT$7spec_eq17hee70a518ee27a5f7E"([6 x i32]* align 4 %self, [6 x i32]* align 4 %other), !dbg !945
  br label %bb1, !dbg !945

bb1:                                              ; preds = %start
  ret i1 %0, !dbg !946
}

; core::array::equality::<impl core::cmp::PartialEq<[B; N]> for [A; N]>::eq
; Function Attrs: inlinehint nonlazybind uwtable
define internal zeroext i1 @"_ZN4core5array8equality103_$LT$impl$u20$core..cmp..PartialEq$LT$$u5b$B$u3b$$u20$N$u5d$$GT$$u20$for$u20$$u5b$A$u3b$$u20$N$u5d$$GT$2eq17hee6ff7352ca572bcE"([12 x i32]* align 4 %self, [12 x i32]* align 4 %other) unnamed_addr #2 !dbg !947 {
start:
  %other.dbg.spill = alloca [12 x i32]*, align 8
  %self.dbg.spill = alloca [12 x i32]*, align 8
  store [12 x i32]* %self, [12 x i32]** %self.dbg.spill, align 8
  call void @llvm.dbg.declare(metadata [12 x i32]** %self.dbg.spill, metadata !951, metadata !DIExpression()), !dbg !953
  store [12 x i32]* %other, [12 x i32]** %other.dbg.spill, align 8
  call void @llvm.dbg.declare(metadata [12 x i32]** %other.dbg.spill, metadata !952, metadata !DIExpression()), !dbg !954
; call <T as core::array::equality::SpecArrayEq<U,_>>::spec_eq
  %0 = call zeroext i1 @"_ZN69_$LT$T$u20$as$u20$core..array..equality..SpecArrayEq$LT$U$C$_$GT$$GT$7spec_eq17h8ccef2d0cf243917E"([12 x i32]* align 4 %self, [12 x i32]* align 4 %other), !dbg !955
  br label %bb1, !dbg !955

bb1:                                              ; preds = %start
  ret i1 %0, !dbg !956
}

; core::clone::impls::<impl core::clone::Clone for usize>::clone
; Function Attrs: inlinehint nonlazybind uwtable
define internal i64 @"_ZN4core5clone5impls54_$LT$impl$u20$core..clone..Clone$u20$for$u20$usize$GT$5clone17he5d5eb55a3ff551fE"(i64* align 8 %self) unnamed_addr #2 !dbg !957 {
start:
  %self.dbg.spill = alloca i64*, align 8
  store i64* %self, i64** %self.dbg.spill, align 8
  call void @llvm.dbg.declare(metadata i64** %self.dbg.spill, metadata !965, metadata !DIExpression()), !dbg !966
  %0 = load i64, i64* %self, align 8, !dbg !967
  ret i64 %0, !dbg !968
}

; core::slice::<impl [T]>::as_mut_ptr
; Function Attrs: inlinehint nonlazybind uwtable
define internal i32* @"_ZN4core5slice29_$LT$impl$u20$$u5b$T$u5d$$GT$10as_mut_ptr17h968bfe739dc0ec04E"([0 x i32]* align 4 %self.0, i64 %self.1) unnamed_addr #2 !dbg !969 {
start:
  %self.dbg.spill = alloca { [0 x i32]*, i64 }, align 8
  %0 = getelementptr inbounds { [0 x i32]*, i64 }, { [0 x i32]*, i64 }* %self.dbg.spill, i32 0, i32 0
  store [0 x i32]* %self.0, [0 x i32]** %0, align 8
  %1 = getelementptr inbounds { [0 x i32]*, i64 }, { [0 x i32]*, i64 }* %self.dbg.spill, i32 0, i32 1
  store i64 %self.1, i64* %1, align 8
  call void @llvm.dbg.declare(metadata { [0 x i32]*, i64 }* %self.dbg.spill, metadata !978, metadata !DIExpression()), !dbg !979
  %2 = bitcast [0 x i32]* %self.0 to i32*, !dbg !980
  ret i32* %2, !dbg !981
}

; core::slice::iter::Iter<T>::new
; Function Attrs: inlinehint nonlazybind uwtable
define internal { i32*, i32* } @"_ZN4core5slice4iter13Iter$LT$T$GT$3new17h4786ffb3a681aed8E"([0 x i32]* align 4 %slice.0, i64 %slice.1) unnamed_addr #2 !dbg !982 {
start:
  %ptr.dbg.spill11 = alloca i32*, align 8
  %0 = alloca i8*, align 8
  %count.dbg.spill10 = alloca i64, align 8
  %self.dbg.spill9 = alloca i8*, align 8
  %count.dbg.spill8 = alloca i64, align 8
  %self.dbg.spill7 = alloca i8*, align 8
  %count.dbg.spill5 = alloca i64, align 8
  %self.dbg.spill4 = alloca i32*, align 8
  %count.dbg.spill = alloca i64, align 8
  %self.dbg.spill3 = alloca i32*, align 8
  %1 = alloca i8, align 1
  %other.dbg.spill = alloca i8*, align 8
  %data_address.dbg.spill = alloca {}*, align 8
  %2 = alloca {}*, align 8
  %self.dbg.spill2 = alloca i8*, align 8
  %self.dbg.spill1 = alloca i32*, align 8
  %ptr.dbg.spill = alloca i32*, align 8
  %self.dbg.spill = alloca { [0 x i32]*, i64 }, align 8
  %metadata.dbg.spill = alloca {}, align 1
  %slice.dbg.spill = alloca { [0 x i32]*, i64 }, align 8
  %_31 = alloca %"core::ptr::metadata::PtrComponents<u8>", align 8
  %_30 = alloca %"core::ptr::metadata::PtrRepr<u8>", align 8
  %_18 = alloca i32*, align 8
  %end = alloca i32*, align 8
  %3 = alloca { i32*, i32* }, align 8
  %4 = getelementptr inbounds { [0 x i32]*, i64 }, { [0 x i32]*, i64 }* %slice.dbg.spill, i32 0, i32 0
  store [0 x i32]* %slice.0, [0 x i32]** %4, align 8
  %5 = getelementptr inbounds { [0 x i32]*, i64 }, { [0 x i32]*, i64 }* %slice.dbg.spill, i32 0, i32 1
  store i64 %slice.1, i64* %5, align 8
  call void @llvm.dbg.declare(metadata { [0 x i32]*, i64 }* %slice.dbg.spill, metadata !985, metadata !DIExpression()), !dbg !990
  call void @llvm.dbg.declare(metadata i32** %end, metadata !988, metadata !DIExpression()), !dbg !991
  call void @llvm.dbg.declare(metadata {}* %metadata.dbg.spill, metadata !992, metadata !DIExpression()), !dbg !1003
  %6 = getelementptr inbounds { [0 x i32]*, i64 }, { [0 x i32]*, i64 }* %self.dbg.spill, i32 0, i32 0, !dbg !1019
  store [0 x i32]* %slice.0, [0 x i32]** %6, align 8, !dbg !1019
  %7 = getelementptr inbounds { [0 x i32]*, i64 }, { [0 x i32]*, i64 }* %self.dbg.spill, i32 0, i32 1, !dbg !1019
  store i64 %slice.1, i64* %7, align 8, !dbg !1019
  call void @llvm.dbg.declare(metadata { [0 x i32]*, i64 }* %self.dbg.spill, metadata !1020, metadata !DIExpression()), !dbg !1026
  %ptr = bitcast [0 x i32]* %slice.0 to i32*, !dbg !1026
  store i32* %ptr, i32** %ptr.dbg.spill, align 8, !dbg !1026
  call void @llvm.dbg.declare(metadata i32** %ptr.dbg.spill, metadata !986, metadata !DIExpression()), !dbg !1027
  store i32* %ptr, i32** %self.dbg.spill1, align 8, !dbg !1018
  call void @llvm.dbg.declare(metadata i32** %self.dbg.spill1, metadata !1016, metadata !DIExpression()), !dbg !1028
  %self = bitcast i32* %ptr to i8*, !dbg !1028
  store i8* %self, i8** %self.dbg.spill2, align 8, !dbg !1028
  call void @llvm.dbg.declare(metadata i8** %self.dbg.spill2, metadata !1029, metadata !DIExpression()), !dbg !1036
  %8 = bitcast {}** %2 to i64*, !dbg !1038
  store i64 0, i64* %8, align 8, !dbg !1038
  %data_address = load {}*, {}** %2, align 8, !dbg !1038
  store {}* %data_address, {}** %data_address.dbg.spill, align 8, !dbg !1038
  call void @llvm.dbg.declare(metadata {}** %data_address.dbg.spill, metadata !1000, metadata !DIExpression()), !dbg !1003
  br label %bb5, !dbg !1038

bb5:                                              ; preds = %start
  %9 = bitcast %"core::ptr::metadata::PtrComponents<u8>"* %_31 to {}**, !dbg !1003
  store {}* %data_address, {}** %9, align 8, !dbg !1003
  %10 = bitcast %"core::ptr::metadata::PtrRepr<u8>"* %_30 to %"core::ptr::metadata::PtrComponents<u8>"*, !dbg !1003
  %11 = bitcast %"core::ptr::metadata::PtrComponents<u8>"* %10 to i8*, !dbg !1003
  %12 = bitcast %"core::ptr::metadata::PtrComponents<u8>"* %_31 to i8*, !dbg !1003
  call void @llvm.memcpy.p0i8.p0i8.i64(i8* align 8 %11, i8* align 8 %12, i64 8, i1 false), !dbg !1003
  %13 = bitcast %"core::ptr::metadata::PtrRepr<u8>"* %_30 to i8**, !dbg !1003
  %other = load i8*, i8** %13, align 8, !dbg !1003
  store i8* %other, i8** %other.dbg.spill, align 8, !dbg !1003
  call void @llvm.dbg.declare(metadata i8** %other.dbg.spill, metadata !1035, metadata !DIExpression()), !dbg !1036
  %14 = icmp eq i8* %self, %other, !dbg !1036
  %15 = zext i1 %14 to i8, !dbg !1036
  store i8 %15, i8* %1, align 1, !dbg !1036
  %16 = load i8, i8* %1, align 1, !dbg !1036, !range !444, !noundef !23
  %_6 = trunc i8 %16 to i1, !dbg !1036
  br label %bb6, !dbg !1036

bb6:                                              ; preds = %bb5
  %_5 = xor i1 %_6, true, !dbg !1046
  call void @llvm.assume(i1 %_5), !dbg !1047
  br label %bb1, !dbg !1047

bb1:                                              ; preds = %bb6
  br i1 false, label %bb2, label %bb3, !dbg !1048

bb2:                                              ; preds = %bb1
  %self6 = bitcast i32* %ptr to i8*, !dbg !1049
  store i8* %self6, i8** %self.dbg.spill7, align 8, !dbg !1049
  call void @llvm.dbg.declare(metadata i8** %self.dbg.spill7, metadata !1050, metadata !DIExpression()), !dbg !1057
  store i64 %slice.1, i64* %count.dbg.spill8, align 8, !dbg !1058
  call void @llvm.dbg.declare(metadata i64* %count.dbg.spill8, metadata !1056, metadata !DIExpression()), !dbg !1057
  store i8* %self6, i8** %self.dbg.spill9, align 8, !dbg !1057
  call void @llvm.dbg.declare(metadata i8** %self.dbg.spill9, metadata !1059, metadata !DIExpression()), !dbg !1066
  store i64 %slice.1, i64* %count.dbg.spill10, align 8, !dbg !1057
  call void @llvm.dbg.declare(metadata i64* %count.dbg.spill10, metadata !1065, metadata !DIExpression()), !dbg !1066
  %17 = getelementptr i8, i8* %self6, i64 %slice.1, !dbg !1066
  store i8* %17, i8** %0, align 8, !dbg !1066
  %_10 = load i8*, i8** %0, align 8, !dbg !1066
  br label %bb7, !dbg !1066

bb3:                                              ; preds = %bb1
  store i32* %ptr, i32** %self.dbg.spill3, align 8, !dbg !1068
  call void @llvm.dbg.declare(metadata i32** %self.dbg.spill3, metadata !1069, metadata !DIExpression()), !dbg !1076
  store i64 %slice.1, i64* %count.dbg.spill, align 8, !dbg !1077
  call void @llvm.dbg.declare(metadata i64* %count.dbg.spill, metadata !1075, metadata !DIExpression()), !dbg !1076
  store i32* %ptr, i32** %self.dbg.spill4, align 8, !dbg !1076
  call void @llvm.dbg.declare(metadata i32** %self.dbg.spill4, metadata !1078, metadata !DIExpression()), !dbg !1085
  store i64 %slice.1, i64* %count.dbg.spill5, align 8, !dbg !1076
  call void @llvm.dbg.declare(metadata i64* %count.dbg.spill5, metadata !1084, metadata !DIExpression()), !dbg !1085
  %18 = getelementptr inbounds i32, i32* %ptr, i64 %slice.1, !dbg !1085
  store i32* %18, i32** %end, align 8, !dbg !1085
  br label %bb8, !dbg !1085

bb8:                                              ; preds = %bb3
  br label %bb4, !dbg !1087

bb4:                                              ; preds = %bb7, %bb8
  store i32* %ptr, i32** %ptr.dbg.spill11, align 8, !dbg !1088
  call void @llvm.dbg.declare(metadata i32** %ptr.dbg.spill11, metadata !1089, metadata !DIExpression()), !dbg !1096
  store i32* %ptr, i32** %_18, align 8, !dbg !1096
  %_21 = load i32*, i32** %end, align 8, !dbg !1098
  %19 = bitcast { i32*, i32* }* %3 to i32**, !dbg !1099
  %20 = load i32*, i32** %_18, align 8, !dbg !1099, !nonnull !23, !noundef !23
  store i32* %20, i32** %19, align 8, !dbg !1099
  %21 = getelementptr inbounds { i32*, i32* }, { i32*, i32* }* %3, i32 0, i32 1, !dbg !1099
  store i32* %_21, i32** %21, align 8, !dbg !1099
  %22 = getelementptr inbounds { i32*, i32* }, { i32*, i32* }* %3, i32 0, i32 0, !dbg !1100
  %23 = load i32*, i32** %22, align 8, !dbg !1100, !nonnull !23, !noundef !23
  %24 = getelementptr inbounds { i32*, i32* }, { i32*, i32* }* %3, i32 0, i32 1, !dbg !1100
  %25 = load i32*, i32** %24, align 8, !dbg !1100
  %26 = insertvalue { i32*, i32* } undef, i32* %23, 0, !dbg !1100
  %27 = insertvalue { i32*, i32* } %26, i32* %25, 1, !dbg !1100
  ret { i32*, i32* } %27, !dbg !1100

bb7:                                              ; preds = %bb2
  %28 = bitcast i8* %_10 to i32*, !dbg !1049
  store i32* %28, i32** %end, align 8, !dbg !1049
  br label %bb4, !dbg !1087
}

; core::panicking::assert_failed
; Function Attrs: cold noreturn nonlazybind uwtable
define internal void @_ZN4core9panicking13assert_failed17h50690f627bd757c0E(i8 %kind, [12 x i32]* align 4 %0, [12 x i32]* align 4 %1, %"core::option::Option<core::fmt::Arguments>"* %args, %"core::panic::location::Location"* align 8 %2) unnamed_addr #3 !dbg !1101 {
start:
  %kind.dbg.spill = alloca i8, align 1
  %_13 = alloca %"core::option::Option<core::fmt::Arguments>", align 8
  %right = alloca [12 x i32]*, align 8
  %left = alloca [12 x i32]*, align 8
  store [12 x i32]* %0, [12 x i32]** %left, align 8
  store [12 x i32]* %1, [12 x i32]** %right, align 8
  store i8 %kind, i8* %kind.dbg.spill, align 1
  call void @llvm.dbg.declare(metadata i8* %kind.dbg.spill, metadata !1119, metadata !DIExpression()), !dbg !1125
  call void @llvm.dbg.declare(metadata [12 x i32]** %left, metadata !1120, metadata !DIExpression()), !dbg !1126
  call void @llvm.dbg.declare(metadata [12 x i32]** %right, metadata !1121, metadata !DIExpression()), !dbg !1127
  call void @llvm.dbg.declare(metadata %"core::option::Option<core::fmt::Arguments>"* %args, metadata !1122, metadata !DIExpression()), !dbg !1128
  %_7.0 = bitcast [12 x i32]** %left to {}*, !dbg !1129
  %_10.0 = bitcast [12 x i32]** %right to {}*, !dbg !1130
  %3 = bitcast %"core::option::Option<core::fmt::Arguments>"* %_13 to i8*, !dbg !1131
  %4 = bitcast %"core::option::Option<core::fmt::Arguments>"* %args to i8*, !dbg !1131
  call void @llvm.memcpy.p0i8.p0i8.i64(i8* align 8 %3, i8* align 8 %4, i64 48, i1 false), !dbg !1131
; call core::panicking::assert_failed_inner
  call void @_ZN4core9panicking19assert_failed_inner17h2784388051aff910E(i8 %kind, {}* align 1 %_7.0, [3 x i64]* align 8 bitcast (<{ i8*, [16 x i8], i8* }>* @vtable.2 to [3 x i64]*), {}* align 1 %_10.0, [3 x i64]* align 8 bitcast (<{ i8*, [16 x i8], i8* }>* @vtable.2 to [3 x i64]*), %"core::option::Option<core::fmt::Arguments>"* %_13, %"core::panic::location::Location"* align 8 %2) #13, !dbg !1132
  unreachable, !dbg !1132
}

; core::panicking::assert_failed
; Function Attrs: cold noreturn nonlazybind uwtable
define internal void @_ZN4core9panicking13assert_failed17h97632e3a1368f9f8E(i8 %kind, [6 x i32]* align 4 %0, [6 x i32]* align 4 %1, %"core::option::Option<core::fmt::Arguments>"* %args, %"core::panic::location::Location"* align 8 %2) unnamed_addr #3 !dbg !1133 {
start:
  %kind.dbg.spill = alloca i8, align 1
  %_13 = alloca %"core::option::Option<core::fmt::Arguments>", align 8
  %right = alloca [6 x i32]*, align 8
  %left = alloca [6 x i32]*, align 8
  store [6 x i32]* %0, [6 x i32]** %left, align 8
  store [6 x i32]* %1, [6 x i32]** %right, align 8
  store i8 %kind, i8* %kind.dbg.spill, align 1
  call void @llvm.dbg.declare(metadata i8* %kind.dbg.spill, metadata !1137, metadata !DIExpression()), !dbg !1143
  call void @llvm.dbg.declare(metadata [6 x i32]** %left, metadata !1138, metadata !DIExpression()), !dbg !1144
  call void @llvm.dbg.declare(metadata [6 x i32]** %right, metadata !1139, metadata !DIExpression()), !dbg !1145
  call void @llvm.dbg.declare(metadata %"core::option::Option<core::fmt::Arguments>"* %args, metadata !1140, metadata !DIExpression()), !dbg !1146
  %_7.0 = bitcast [6 x i32]** %left to {}*, !dbg !1147
  %_10.0 = bitcast [6 x i32]** %right to {}*, !dbg !1148
  %3 = bitcast %"core::option::Option<core::fmt::Arguments>"* %_13 to i8*, !dbg !1149
  %4 = bitcast %"core::option::Option<core::fmt::Arguments>"* %args to i8*, !dbg !1149
  call void @llvm.memcpy.p0i8.p0i8.i64(i8* align 8 %3, i8* align 8 %4, i64 48, i1 false), !dbg !1149
; call core::panicking::assert_failed_inner
  call void @_ZN4core9panicking19assert_failed_inner17h2784388051aff910E(i8 %kind, {}* align 1 %_7.0, [3 x i64]* align 8 bitcast (<{ i8*, [16 x i8], i8* }>* @vtable.3 to [3 x i64]*), {}* align 1 %_10.0, [3 x i64]* align 8 bitcast (<{ i8*, [16 x i8], i8* }>* @vtable.3 to [3 x i64]*), %"core::option::Option<core::fmt::Arguments>"* %_13, %"core::panic::location::Location"* align 8 %2) #13, !dbg !1150
  unreachable, !dbg !1150
}

; core::panicking::assert_failed
; Function Attrs: cold noreturn nonlazybind uwtable
define internal void @_ZN4core9panicking13assert_failed17hc3a026aaa1307e63E(i8 %kind, i32* align 4 %0, i32* align 4 %1, %"core::option::Option<core::fmt::Arguments>"* %args, %"core::panic::location::Location"* align 8 %2) unnamed_addr #3 !dbg !1151 {
start:
  %kind.dbg.spill = alloca i8, align 1
  %_13 = alloca %"core::option::Option<core::fmt::Arguments>", align 8
  %right = alloca i32*, align 8
  %left = alloca i32*, align 8
  store i32* %0, i32** %left, align 8
  store i32* %1, i32** %right, align 8
  store i8 %kind, i8* %kind.dbg.spill, align 1
  call void @llvm.dbg.declare(metadata i8* %kind.dbg.spill, metadata !1155, metadata !DIExpression()), !dbg !1161
  call void @llvm.dbg.declare(metadata i32** %left, metadata !1156, metadata !DIExpression()), !dbg !1162
  call void @llvm.dbg.declare(metadata i32** %right, metadata !1157, metadata !DIExpression()), !dbg !1163
  call void @llvm.dbg.declare(metadata %"core::option::Option<core::fmt::Arguments>"* %args, metadata !1158, metadata !DIExpression()), !dbg !1164
  %_7.0 = bitcast i32** %left to {}*, !dbg !1165
  %_10.0 = bitcast i32** %right to {}*, !dbg !1166
  %3 = bitcast %"core::option::Option<core::fmt::Arguments>"* %_13 to i8*, !dbg !1167
  %4 = bitcast %"core::option::Option<core::fmt::Arguments>"* %args to i8*, !dbg !1167
  call void @llvm.memcpy.p0i8.p0i8.i64(i8* align 8 %3, i8* align 8 %4, i64 48, i1 false), !dbg !1167
; call core::panicking::assert_failed_inner
  call void @_ZN4core9panicking19assert_failed_inner17h2784388051aff910E(i8 %kind, {}* align 1 %_7.0, [3 x i64]* align 8 bitcast (<{ i8*, [16 x i8], i8* }>* @vtable.1 to [3 x i64]*), {}* align 1 %_10.0, [3 x i64]* align 8 bitcast (<{ i8*, [16 x i8], i8* }>* @vtable.1 to [3 x i64]*), %"core::option::Option<core::fmt::Arguments>"* %_13, %"core::panic::location::Location"* align 8 %2) #13, !dbg !1168
  unreachable, !dbg !1168
}

; core::panicking::assert_failed
; Function Attrs: cold noreturn nonlazybind uwtable
define internal void @_ZN4core9panicking13assert_failed17hdf662e81a435205fE(i8 %kind, [4 x i32]* align 4 %0, [4 x i32]* align 4 %1, %"core::option::Option<core::fmt::Arguments>"* %args, %"core::panic::location::Location"* align 8 %2) unnamed_addr #3 !dbg !1169 {
start:
  %kind.dbg.spill = alloca i8, align 1
  %_13 = alloca %"core::option::Option<core::fmt::Arguments>", align 8
  %right = alloca [4 x i32]*, align 8
  %left = alloca [4 x i32]*, align 8
  store [4 x i32]* %0, [4 x i32]** %left, align 8
  store [4 x i32]* %1, [4 x i32]** %right, align 8
  store i8 %kind, i8* %kind.dbg.spill, align 1
  call void @llvm.dbg.declare(metadata i8* %kind.dbg.spill, metadata !1173, metadata !DIExpression()), !dbg !1179
  call void @llvm.dbg.declare(metadata [4 x i32]** %left, metadata !1174, metadata !DIExpression()), !dbg !1180
  call void @llvm.dbg.declare(metadata [4 x i32]** %right, metadata !1175, metadata !DIExpression()), !dbg !1181
  call void @llvm.dbg.declare(metadata %"core::option::Option<core::fmt::Arguments>"* %args, metadata !1176, metadata !DIExpression()), !dbg !1182
  %_7.0 = bitcast [4 x i32]** %left to {}*, !dbg !1183
  %_10.0 = bitcast [4 x i32]** %right to {}*, !dbg !1184
  %3 = bitcast %"core::option::Option<core::fmt::Arguments>"* %_13 to i8*, !dbg !1185
  %4 = bitcast %"core::option::Option<core::fmt::Arguments>"* %args to i8*, !dbg !1185
  call void @llvm.memcpy.p0i8.p0i8.i64(i8* align 8 %3, i8* align 8 %4, i64 48, i1 false), !dbg !1185
; call core::panicking::assert_failed_inner
  call void @_ZN4core9panicking19assert_failed_inner17h2784388051aff910E(i8 %kind, {}* align 1 %_7.0, [3 x i64]* align 8 bitcast (<{ i8*, [16 x i8], i8* }>* @vtable.4 to [3 x i64]*), {}* align 1 %_10.0, [3 x i64]* align 8 bitcast (<{ i8*, [16 x i8], i8* }>* @vtable.4 to [3 x i64]*), %"core::option::Option<core::fmt::Arguments>"* %_13, %"core::panic::location::Location"* align 8 %2) #13, !dbg !1186
  unreachable, !dbg !1186
}

; test::assert_test_result
; Function Attrs: nonlazybind uwtable
define internal void @_ZN4test18assert_test_result17h09bcc020f41652d1E() unnamed_addr #1 !dbg !1187 {
start:
  %0 = alloca %"core::fmt::Opaque"*, align 8
  %1 = alloca i1 (%"core::fmt::Opaque"*, %"core::fmt::Formatter"*)*, align 8
  %f.dbg.spill = alloca i1 (i32*, %"core::fmt::Formatter"*)*, align 8
  %x.dbg.spill1 = alloca i32*, align 8
  %x.dbg.spill = alloca i32*, align 8
  %right_val.dbg.spill = alloca i32*, align 8
  %left_val.dbg.spill = alloca i32*, align 8
  %self.dbg.spill = alloca i8*, align 8
  %result.dbg.spill = alloca {}, align 1
  %_30 = alloca { i8*, i64* }, align 8
  %_29 = alloca [1 x { i8*, i64* }], align 8
  %_22 = alloca %"core::fmt::Arguments", align 8
  %_21 = alloca %"core::option::Option<core::fmt::Arguments>", align 8
  %_5 = alloca { i32*, i32* }, align 8
  %self = alloca i8, align 1
  %code = alloca i32, align 4
  call void @llvm.dbg.declare(metadata {}* %result.dbg.spill, metadata !1191, metadata !DIExpression()), !dbg !1202
  call void @llvm.dbg.declare(metadata i32* %code, metadata !1192, metadata !DIExpression()), !dbg !1203
  call void @llvm.dbg.declare(metadata i8* %self, metadata !1204, metadata !DIExpression()), !dbg !1208
; call <() as std::process::Termination>::report
  %2 = call i8 @"_ZN54_$LT$$LP$$RP$$u20$as$u20$std..process..Termination$GT$6report17hda60c2f19858c165E"(), !dbg !1209
  store i8 %2, i8* %self, align 1, !dbg !1209
  br label %bb1, !dbg !1209

bb1:                                              ; preds = %start
  store i8* %self, i8** %self.dbg.spill, align 8, !dbg !1208
  call void @llvm.dbg.declare(metadata i8** %self.dbg.spill, metadata !1210, metadata !DIExpression()), !dbg !1214
  %_36 = load i8, i8* %self, align 1, !dbg !1214
  %3 = zext i8 %_36 to i32, !dbg !1214
  store i32 %3, i32* %code, align 4, !dbg !1214
  %4 = bitcast { i32*, i32* }* %_5 to i32**, !dbg !1216
  store i32* %code, i32** %4, align 8, !dbg !1216
  %5 = getelementptr inbounds { i32*, i32* }, { i32*, i32* }* %_5, i32 0, i32 1, !dbg !1216
  store i32* bitcast (<{ [4 x i8] }>* @alloc126 to i32*), i32** %5, align 8, !dbg !1216
  %6 = bitcast { i32*, i32* }* %_5 to i32**, !dbg !1216
  %left_val = load i32*, i32** %6, align 8, !dbg !1216, !nonnull !23, !align !256, !noundef !23
  store i32* %left_val, i32** %left_val.dbg.spill, align 8, !dbg !1216
  call void @llvm.dbg.declare(metadata i32** %left_val.dbg.spill, metadata !1194, metadata !DIExpression()), !dbg !1217
  %7 = getelementptr inbounds { i32*, i32* }, { i32*, i32* }* %_5, i32 0, i32 1, !dbg !1216
  %right_val = load i32*, i32** %7, align 8, !dbg !1216, !nonnull !23, !align !256, !noundef !23
  store i32* %right_val, i32** %right_val.dbg.spill, align 8, !dbg !1216
  call void @llvm.dbg.declare(metadata i32** %right_val.dbg.spill, metadata !1198, metadata !DIExpression()), !dbg !1217
  %_12 = load i32, i32* %left_val, align 4, !dbg !1217
  %_13 = load i32, i32* %right_val, align 4, !dbg !1217
  %_11 = icmp eq i32 %_12, %_13, !dbg !1217
  %_10 = xor i1 %_11, true, !dbg !1217
  br i1 %_10, label %bb2, label %bb4, !dbg !1217

bb4:                                              ; preds = %bb1
  ret void, !dbg !1218

bb2:                                              ; preds = %bb1
  store i32* %code, i32** %x.dbg.spill, align 8, !dbg !1219
  call void @llvm.dbg.declare(metadata i32** %x.dbg.spill, metadata !1220, metadata !DIExpression()), !dbg !1226
  store i32* %code, i32** %x.dbg.spill1, align 8, !dbg !1226
  call void @llvm.dbg.declare(metadata i32** %x.dbg.spill1, metadata !1228, metadata !DIExpression()), !dbg !1236
  store i1 (i32*, %"core::fmt::Formatter"*)* @"_ZN4core3fmt3num3imp52_$LT$impl$u20$core..fmt..Display$u20$for$u20$i32$GT$3fmt17h52a4838d0eaa2babE", i1 (i32*, %"core::fmt::Formatter"*)** %f.dbg.spill, align 8, !dbg !1226
  call void @llvm.dbg.declare(metadata i1 (i32*, %"core::fmt::Formatter"*)** %f.dbg.spill, metadata !1235, metadata !DIExpression()), !dbg !1236
  store i1 (%"core::fmt::Opaque"*, %"core::fmt::Formatter"*)* bitcast (i1 (i32*, %"core::fmt::Formatter"*)* @"_ZN4core3fmt3num3imp52_$LT$impl$u20$core..fmt..Display$u20$for$u20$i32$GT$3fmt17h52a4838d0eaa2babE" to i1 (%"core::fmt::Opaque"*, %"core::fmt::Formatter"*)*), i1 (%"core::fmt::Opaque"*, %"core::fmt::Formatter"*)** %1, align 8, !dbg !1236
  %_39 = load i1 (%"core::fmt::Opaque"*, %"core::fmt::Formatter"*)*, i1 (%"core::fmt::Opaque"*, %"core::fmt::Formatter"*)** %1, align 8, !dbg !1236, !nonnull !23, !noundef !23
  br label %bb5, !dbg !1236

bb5:                                              ; preds = %bb2
  %8 = bitcast i32* %code to %"core::fmt::Opaque"*, !dbg !1236
  store %"core::fmt::Opaque"* %8, %"core::fmt::Opaque"** %0, align 8, !dbg !1236
  %_41 = load %"core::fmt::Opaque"*, %"core::fmt::Opaque"** %0, align 8, !dbg !1236, !nonnull !23, !align !426, !noundef !23
  br label %bb6, !dbg !1236

bb6:                                              ; preds = %bb5
  %9 = bitcast { i8*, i64* }* %_30 to %"core::fmt::Opaque"**, !dbg !1236
  store %"core::fmt::Opaque"* %_41, %"core::fmt::Opaque"** %9, align 8, !dbg !1236
  %10 = getelementptr inbounds { i8*, i64* }, { i8*, i64* }* %_30, i32 0, i32 1, !dbg !1236
  %11 = bitcast i64** %10 to i1 (%"core::fmt::Opaque"*, %"core::fmt::Formatter"*)**, !dbg !1236
  store i1 (%"core::fmt::Opaque"*, %"core::fmt::Formatter"*)* %_39, i1 (%"core::fmt::Opaque"*, %"core::fmt::Formatter"*)** %11, align 8, !dbg !1236
  %12 = getelementptr inbounds { i8*, i64* }, { i8*, i64* }* %_30, i32 0, i32 0, !dbg !1219
  %13 = load i8*, i8** %12, align 8, !dbg !1219, !nonnull !23, !align !426, !noundef !23
  %14 = getelementptr inbounds { i8*, i64* }, { i8*, i64* }* %_30, i32 0, i32 1, !dbg !1219
  %15 = load i64*, i64** %14, align 8, !dbg !1219, !nonnull !23, !noundef !23
  %16 = getelementptr inbounds [1 x { i8*, i64* }], [1 x { i8*, i64* }]* %_29, i64 0, i64 0, !dbg !1219
  %17 = getelementptr inbounds { i8*, i64* }, { i8*, i64* }* %16, i32 0, i32 0, !dbg !1219
  store i8* %13, i8** %17, align 8, !dbg !1219
  %18 = getelementptr inbounds { i8*, i64* }, { i8*, i64* }* %16, i32 0, i32 1, !dbg !1219
  store i64* %15, i64** %18, align 8, !dbg !1219
  %_26.0 = bitcast [1 x { i8*, i64* }]* %_29 to [0 x { i8*, i64* }]*, !dbg !1219
; call core::fmt::Arguments::new_v1
  call void @_ZN4core3fmt9Arguments6new_v117ha8987609521698f9E(%"core::fmt::Arguments"* sret(%"core::fmt::Arguments") %_22, [0 x { [0 x i8]*, i64 }]* align 8 bitcast (<{ i8*, [8 x i8], i8*, [8 x i8] }>* @alloc129 to [0 x { [0 x i8]*, i64 }]*), i64 2, [0 x { i8*, i64* }]* align 8 %_26.0, i64 1), !dbg !1219
  br label %bb3, !dbg !1219

bb3:                                              ; preds = %bb6
  %19 = bitcast %"core::option::Option<core::fmt::Arguments>"* %_21 to %"core::option::Option<core::fmt::Arguments>::Some"*, !dbg !1219
  %20 = bitcast %"core::option::Option<core::fmt::Arguments>::Some"* %19 to %"core::fmt::Arguments"*, !dbg !1219
  %21 = bitcast %"core::fmt::Arguments"* %20 to i8*, !dbg !1219
  %22 = bitcast %"core::fmt::Arguments"* %_22 to i8*, !dbg !1219
  call void @llvm.memcpy.p0i8.p0i8.i64(i8* align 8 %21, i8* align 8 %22, i64 48, i1 false), !dbg !1219
; call core::panicking::assert_failed
  call void @_ZN4core9panicking13assert_failed17hc3a026aaa1307e63E(i8 0, i32* align 4 %left_val, i32* align 4 %right_val, %"core::option::Option<core::fmt::Arguments>"* %_21, %"core::panic::location::Location"* align 8 bitcast (<{ i8*, [16 x i8] }>* @alloc286 to %"core::panic::location::Location"*)) #13, !dbg !1219
  unreachable, !dbg !1219
}

; <() as std::process::Termination>::report
; Function Attrs: inlinehint nonlazybind uwtable
define internal i8 @"_ZN54_$LT$$LP$$RP$$u20$as$u20$std..process..Termination$GT$6report17hda60c2f19858c165E"() unnamed_addr #2 !dbg !1238 {
start:
  %self.dbg.spill = alloca {}, align 1
  call void @llvm.dbg.declare(metadata {}* %self.dbg.spill, metadata !1243, metadata !DIExpression()), !dbg !1244
  ret i8 0, !dbg !1245
}

; <I as core::iter::traits::collect::IntoIterator>::into_iter
; Function Attrs: inlinehint nonlazybind uwtable
define internal { i32*, i32* } @"_ZN63_$LT$I$u20$as$u20$core..iter..traits..collect..IntoIterator$GT$9into_iter17h2021e07566ab6762E"(i32* %self.0, i32* %self.1) unnamed_addr #2 !dbg !1246 {
start:
  %self.dbg.spill = alloca { i32*, i32* }, align 8
  %0 = getelementptr inbounds { i32*, i32* }, { i32*, i32* }* %self.dbg.spill, i32 0, i32 0
  store i32* %self.0, i32** %0, align 8
  %1 = getelementptr inbounds { i32*, i32* }, { i32*, i32* }* %self.dbg.spill, i32 0, i32 1
  store i32* %self.1, i32** %1, align 8
  call void @llvm.dbg.declare(metadata { i32*, i32* }* %self.dbg.spill, metadata !1254, metadata !DIExpression()), !dbg !1256
  %2 = insertvalue { i32*, i32* } undef, i32* %self.0, 0, !dbg !1257
  %3 = insertvalue { i32*, i32* } %2, i32* %self.1, 1, !dbg !1257
  ret { i32*, i32* } %3, !dbg !1257
}

; <I as core::iter::traits::collect::IntoIterator>::into_iter
; Function Attrs: inlinehint nonlazybind uwtable
define internal { i64, i64 } @"_ZN63_$LT$I$u20$as$u20$core..iter..traits..collect..IntoIterator$GT$9into_iter17h3433426195a55691E"(i64 %self.0, i64 %self.1) unnamed_addr #2 !dbg !1258 {
start:
  %self.dbg.spill = alloca { i64, i64 }, align 8
  %0 = getelementptr inbounds { i64, i64 }, { i64, i64 }* %self.dbg.spill, i32 0, i32 0
  store i64 %self.0, i64* %0, align 8
  %1 = getelementptr inbounds { i64, i64 }, { i64, i64 }* %self.dbg.spill, i32 0, i32 1
  store i64 %self.1, i64* %1, align 8
  call void @llvm.dbg.declare(metadata { i64, i64 }* %self.dbg.spill, metadata !1262, metadata !DIExpression()), !dbg !1265
  %2 = insertvalue { i64, i64 } undef, i64 %self.0, 0, !dbg !1266
  %3 = insertvalue { i64, i64 } %2, i64 %self.1, 1, !dbg !1266
  ret { i64, i64 } %3, !dbg !1266
}

; <T as core::array::equality::SpecArrayEq<U,_>>::spec_eq
; Function Attrs: nonlazybind uwtable
define internal zeroext i1 @"_ZN69_$LT$T$u20$as$u20$core..array..equality..SpecArrayEq$LT$U$C$_$GT$$GT$7spec_eq17h8ccef2d0cf243917E"([12 x i32]* align 4 %a, [12 x i32]* align 4 %b) unnamed_addr #1 !dbg !1267 {
start:
  %0 = alloca i8, align 1
  %b.dbg.spill2 = alloca [12 x i32]*, align 8
  %self.dbg.spill1 = alloca i32*, align 8
  %self.dbg.spill = alloca { [0 x i32]*, i64 }, align 8
  %b.dbg.spill = alloca [12 x i32]*, align 8
  %a.dbg.spill = alloca [12 x i32]*, align 8
  store [12 x i32]* %a, [12 x i32]** %a.dbg.spill, align 8
  call void @llvm.dbg.declare(metadata [12 x i32]** %a.dbg.spill, metadata !1270, metadata !DIExpression()), !dbg !1274
  store [12 x i32]* %b, [12 x i32]** %b.dbg.spill, align 8
  call void @llvm.dbg.declare(metadata [12 x i32]** %b.dbg.spill, metadata !1271, metadata !DIExpression()), !dbg !1275
  %self.0 = bitcast [12 x i32]* %b to [0 x i32]*, !dbg !1276
  %1 = getelementptr inbounds { [0 x i32]*, i64 }, { [0 x i32]*, i64 }* %self.dbg.spill, i32 0, i32 0, !dbg !1276
  store [0 x i32]* %self.0, [0 x i32]** %1, align 8, !dbg !1276
  %2 = getelementptr inbounds { [0 x i32]*, i64 }, { [0 x i32]*, i64 }* %self.dbg.spill, i32 0, i32 1, !dbg !1276
  store i64 12, i64* %2, align 8, !dbg !1276
  call void @llvm.dbg.declare(metadata { [0 x i32]*, i64 }* %self.dbg.spill, metadata !1277, metadata !DIExpression()), !dbg !1281
  %self = bitcast [0 x i32]* %self.0 to i32*, !dbg !1281
  store i32* %self, i32** %self.dbg.spill1, align 8, !dbg !1281
  call void @llvm.dbg.declare(metadata i32** %self.dbg.spill1, metadata !1282, metadata !DIExpression()), !dbg !1290
  %_4 = bitcast i32* %self to [12 x i32]*, !dbg !1290
  store [12 x i32]* %_4, [12 x i32]** %b.dbg.spill2, align 8, !dbg !1291
  call void @llvm.dbg.declare(metadata [12 x i32]** %b.dbg.spill2, metadata !1272, metadata !DIExpression()), !dbg !1292
  %3 = bitcast [12 x i32]* %a to i8*, !dbg !1293
  %4 = bitcast [12 x i32]* %_4 to i8*, !dbg !1293
  %5 = call i32 @memcmp(i8* %3, i8* %4, i64 48), !dbg !1293
  %6 = icmp eq i32 %5, 0, !dbg !1293
  %7 = zext i1 %6 to i8, !dbg !1293
  store i8 %7, i8* %0, align 1, !dbg !1293
  %8 = load i8, i8* %0, align 1, !dbg !1293, !range !444, !noundef !23
  %9 = trunc i8 %8 to i1, !dbg !1293
  br label %bb1, !dbg !1293

bb1:                                              ; preds = %start
  ret i1 %9, !dbg !1294
}

; <T as core::array::equality::SpecArrayEq<U,_>>::spec_eq
; Function Attrs: nonlazybind uwtable
define internal zeroext i1 @"_ZN69_$LT$T$u20$as$u20$core..array..equality..SpecArrayEq$LT$U$C$_$GT$$GT$7spec_eq17hda1dac9c78a045b2E"([4 x i32]* align 4 %a, [4 x i32]* align 4 %b) unnamed_addr #1 !dbg !1295 {
start:
  %0 = alloca i8, align 1
  %b.dbg.spill2 = alloca [4 x i32]*, align 8
  %self.dbg.spill1 = alloca i32*, align 8
  %self.dbg.spill = alloca { [0 x i32]*, i64 }, align 8
  %b.dbg.spill = alloca [4 x i32]*, align 8
  %a.dbg.spill = alloca [4 x i32]*, align 8
  store [4 x i32]* %a, [4 x i32]** %a.dbg.spill, align 8
  call void @llvm.dbg.declare(metadata [4 x i32]** %a.dbg.spill, metadata !1297, metadata !DIExpression()), !dbg !1301
  store [4 x i32]* %b, [4 x i32]** %b.dbg.spill, align 8
  call void @llvm.dbg.declare(metadata [4 x i32]** %b.dbg.spill, metadata !1298, metadata !DIExpression()), !dbg !1302
  %self.0 = bitcast [4 x i32]* %b to [0 x i32]*, !dbg !1303
  %1 = getelementptr inbounds { [0 x i32]*, i64 }, { [0 x i32]*, i64 }* %self.dbg.spill, i32 0, i32 0, !dbg !1303
  store [0 x i32]* %self.0, [0 x i32]** %1, align 8, !dbg !1303
  %2 = getelementptr inbounds { [0 x i32]*, i64 }, { [0 x i32]*, i64 }* %self.dbg.spill, i32 0, i32 1, !dbg !1303
  store i64 4, i64* %2, align 8, !dbg !1303
  call void @llvm.dbg.declare(metadata { [0 x i32]*, i64 }* %self.dbg.spill, metadata !1304, metadata !DIExpression()), !dbg !1308
  %self = bitcast [0 x i32]* %self.0 to i32*, !dbg !1308
  store i32* %self, i32** %self.dbg.spill1, align 8, !dbg !1308
  call void @llvm.dbg.declare(metadata i32** %self.dbg.spill1, metadata !1309, metadata !DIExpression()), !dbg !1317
  %_4 = bitcast i32* %self to [4 x i32]*, !dbg !1317
  store [4 x i32]* %_4, [4 x i32]** %b.dbg.spill2, align 8, !dbg !1318
  call void @llvm.dbg.declare(metadata [4 x i32]** %b.dbg.spill2, metadata !1299, metadata !DIExpression()), !dbg !1319
  %3 = bitcast [4 x i32]* %a to i128*, !dbg !1320
  %4 = load i128, i128* %3, align 4, !dbg !1320
  %5 = bitcast [4 x i32]* %_4 to i128*, !dbg !1320
  %6 = load i128, i128* %5, align 4, !dbg !1320
  %7 = icmp eq i128 %4, %6, !dbg !1320
  %8 = zext i1 %7 to i8, !dbg !1320
  store i8 %8, i8* %0, align 1, !dbg !1320
  %9 = load i8, i8* %0, align 1, !dbg !1320, !range !444, !noundef !23
  %10 = trunc i8 %9 to i1, !dbg !1320
  br label %bb1, !dbg !1320

bb1:                                              ; preds = %start
  ret i1 %10, !dbg !1321
}

; <T as core::array::equality::SpecArrayEq<U,_>>::spec_eq
; Function Attrs: nonlazybind uwtable
define internal zeroext i1 @"_ZN69_$LT$T$u20$as$u20$core..array..equality..SpecArrayEq$LT$U$C$_$GT$$GT$7spec_eq17hee70a518ee27a5f7E"([6 x i32]* align 4 %a, [6 x i32]* align 4 %b) unnamed_addr #1 !dbg !1322 {
start:
  %0 = alloca i8, align 1
  %b.dbg.spill2 = alloca [6 x i32]*, align 8
  %self.dbg.spill1 = alloca i32*, align 8
  %self.dbg.spill = alloca { [0 x i32]*, i64 }, align 8
  %b.dbg.spill = alloca [6 x i32]*, align 8
  %a.dbg.spill = alloca [6 x i32]*, align 8
  store [6 x i32]* %a, [6 x i32]** %a.dbg.spill, align 8
  call void @llvm.dbg.declare(metadata [6 x i32]** %a.dbg.spill, metadata !1324, metadata !DIExpression()), !dbg !1328
  store [6 x i32]* %b, [6 x i32]** %b.dbg.spill, align 8
  call void @llvm.dbg.declare(metadata [6 x i32]** %b.dbg.spill, metadata !1325, metadata !DIExpression()), !dbg !1329
  %self.0 = bitcast [6 x i32]* %b to [0 x i32]*, !dbg !1330
  %1 = getelementptr inbounds { [0 x i32]*, i64 }, { [0 x i32]*, i64 }* %self.dbg.spill, i32 0, i32 0, !dbg !1330
  store [0 x i32]* %self.0, [0 x i32]** %1, align 8, !dbg !1330
  %2 = getelementptr inbounds { [0 x i32]*, i64 }, { [0 x i32]*, i64 }* %self.dbg.spill, i32 0, i32 1, !dbg !1330
  store i64 6, i64* %2, align 8, !dbg !1330
  call void @llvm.dbg.declare(metadata { [0 x i32]*, i64 }* %self.dbg.spill, metadata !1331, metadata !DIExpression()), !dbg !1335
  %self = bitcast [0 x i32]* %self.0 to i32*, !dbg !1335
  store i32* %self, i32** %self.dbg.spill1, align 8, !dbg !1335
  call void @llvm.dbg.declare(metadata i32** %self.dbg.spill1, metadata !1336, metadata !DIExpression()), !dbg !1344
  %_4 = bitcast i32* %self to [6 x i32]*, !dbg !1344
  store [6 x i32]* %_4, [6 x i32]** %b.dbg.spill2, align 8, !dbg !1345
  call void @llvm.dbg.declare(metadata [6 x i32]** %b.dbg.spill2, metadata !1326, metadata !DIExpression()), !dbg !1346
  %3 = bitcast [6 x i32]* %a to i8*, !dbg !1347
  %4 = bitcast [6 x i32]* %_4 to i8*, !dbg !1347
  %5 = call i32 @memcmp(i8* %3, i8* %4, i64 24), !dbg !1347
  %6 = icmp eq i32 %5, 0, !dbg !1347
  %7 = zext i1 %6 to i8, !dbg !1347
  store i8 %7, i8* %0, align 1, !dbg !1347
  %8 = load i8, i8* %0, align 1, !dbg !1347, !range !444, !noundef !23
  %9 = trunc i8 %8 to i1, !dbg !1347
  br label %bb1, !dbg !1347

bb1:                                              ; preds = %start
  ret i1 %9, !dbg !1348
}

; <core::ops::range::Range<T> as core::iter::range::RangeIteratorImpl>::spec_next
; Function Attrs: inlinehint nonlazybind uwtable
define internal { i64, i64 } @"_ZN89_$LT$core..ops..range..Range$LT$T$GT$$u20$as$u20$core..iter..range..RangeIteratorImpl$GT$9spec_next17h050ea64677758a38E"({ i64, i64 }* align 8 %self) unnamed_addr #2 !dbg !1349 {
start:
  %n.dbg.spill = alloca i64, align 8
  %self.dbg.spill = alloca { i64, i64 }*, align 8
  %0 = alloca { i64, i64 }, align 8
  store { i64, i64 }* %self, { i64, i64 }** %self.dbg.spill, align 8
  call void @llvm.dbg.declare(metadata { i64, i64 }** %self.dbg.spill, metadata !1352, metadata !DIExpression()), !dbg !1355
  %_3 = bitcast { i64, i64 }* %self to i64*, !dbg !1356
  %_4 = getelementptr inbounds { i64, i64 }, { i64, i64 }* %self, i32 0, i32 1, !dbg !1357
; call core::cmp::impls::<impl core::cmp::PartialOrd for usize>::lt
  %_2 = call zeroext i1 @"_ZN4core3cmp5impls57_$LT$impl$u20$core..cmp..PartialOrd$u20$for$u20$usize$GT$2lt17hde245c4c762e48bfE"(i64* align 8 %_3, i64* align 8 %_4), !dbg !1356
  br label %bb1, !dbg !1356

bb1:                                              ; preds = %start
  br i1 %_2, label %bb2, label %bb6, !dbg !1356

bb6:                                              ; preds = %bb1
  %1 = bitcast { i64, i64 }* %0 to i64*, !dbg !1358
  store i64 0, i64* %1, align 8, !dbg !1358
  br label %bb7, !dbg !1359

bb2:                                              ; preds = %bb1
  %_7 = bitcast { i64, i64 }* %self to i64*, !dbg !1360
; call core::clone::impls::<impl core::clone::Clone for usize>::clone
  %_6 = call i64 @"_ZN4core5clone5impls54_$LT$impl$u20$core..clone..Clone$u20$for$u20$usize$GT$5clone17he5d5eb55a3ff551fE"(i64* align 8 %_7), !dbg !1360
  br label %bb3, !dbg !1360

bb3:                                              ; preds = %bb2
; call <usize as core::iter::range::Step>::forward_unchecked
  %n = call i64 @"_ZN49_$LT$usize$u20$as$u20$core..iter..range..Step$GT$17forward_unchecked17he2fa4606fee0c508E"(i64 %_6, i64 1), !dbg !1361
  store i64 %n, i64* %n.dbg.spill, align 8, !dbg !1361
  call void @llvm.dbg.declare(metadata i64* %n.dbg.spill, metadata !1353, metadata !DIExpression()), !dbg !1362
  br label %bb4, !dbg !1361

bb4:                                              ; preds = %bb3
  %_10 = bitcast { i64, i64 }* %self to i64*, !dbg !1363
; call core::mem::replace
  %_8 = call i64 @_ZN4core3mem7replace17hcecb3a8ba50fc797E(i64* align 8 %_10, i64 %n), !dbg !1364
  br label %bb5, !dbg !1364

bb5:                                              ; preds = %bb4
  %2 = getelementptr inbounds { i64, i64 }, { i64, i64 }* %0, i32 0, i32 1, !dbg !1365
  store i64 %_8, i64* %2, align 8, !dbg !1365
  %3 = bitcast { i64, i64 }* %0 to i64*, !dbg !1365
  store i64 1, i64* %3, align 8, !dbg !1365
  br label %bb7, !dbg !1359

bb7:                                              ; preds = %bb6, %bb5
  %4 = getelementptr inbounds { i64, i64 }, { i64, i64 }* %0, i32 0, i32 0, !dbg !1366
  %5 = load i64, i64* %4, align 8, !dbg !1366, !range !1367, !noundef !23
  %6 = getelementptr inbounds { i64, i64 }, { i64, i64 }* %0, i32 0, i32 1, !dbg !1366
  %7 = load i64, i64* %6, align 8, !dbg !1366
  %8 = insertvalue { i64, i64 } undef, i64 %5, 0, !dbg !1366
  %9 = insertvalue { i64, i64 } %8, i64 %7, 1, !dbg !1366
  ret { i64, i64 } %9, !dbg !1366
}

; <core::slice::iter::Iter<T> as core::iter::traits::iterator::Iterator>::next
; Function Attrs: inlinehint nonlazybind uwtable
define internal align 4 i32* @"_ZN91_$LT$core..slice..iter..Iter$LT$T$GT$$u20$as$u20$core..iter..traits..iterator..Iterator$GT$4next17h819d6e3bc6bd919fE"({ i32*, i32* }* align 8 %self) unnamed_addr #2 !dbg !1368 {
start:
  %self.dbg.spill26 = alloca i32*, align 8
  %0 = alloca i8*, align 8
  %self.dbg.spill24 = alloca i8*, align 8
  %ptr.dbg.spill = alloca i32*, align 8
  %1 = alloca i32*, align 8
  %self.dbg.spill22 = alloca i32*, align 8
  %self.dbg.spill21 = alloca i32*, align 8
  %old.dbg.spill = alloca i32*, align 8
  %self.dbg.spill19 = alloca i32*, align 8
  %self.dbg.spill17 = alloca { i32*, i32* }*, align 8
  %self.dbg.spill16 = alloca i32*, align 8
  %2 = alloca i8, align 1
  %other.dbg.spill14 = alloca i8*, align 8
  %data_address.dbg.spill12 = alloca {}*, align 8
  %3 = alloca {}*, align 8
  %self.dbg.spill10 = alloca i8*, align 8
  %self.dbg.spill8 = alloca i32*, align 8
  %4 = alloca i8, align 1
  %other.dbg.spill = alloca i8*, align 8
  %data_address.dbg.spill = alloca {}*, align 8
  %5 = alloca {}*, align 8
  %self.dbg.spill6 = alloca i8*, align 8
  %self.dbg.spill4 = alloca i32*, align 8
  %self.dbg.spill3 = alloca i32*, align 8
  %metadata.dbg.spill1 = alloca {}, align 1
  %metadata.dbg.spill = alloca {}, align 1
  %self.dbg.spill = alloca { i32*, i32* }*, align 8
  %_62 = alloca i32*, align 8
  %_47 = alloca %"core::ptr::metadata::PtrComponents<u8>", align 8
  %_46 = alloca %"core::ptr::metadata::PtrRepr<u8>", align 8
  %_30 = alloca %"core::ptr::metadata::PtrComponents<u8>", align 8
  %_29 = alloca %"core::ptr::metadata::PtrRepr<u8>", align 8
  %_19 = alloca i32*, align 8
  %6 = alloca i32*, align 8
  store { i32*, i32* }* %self, { i32*, i32* }** %self.dbg.spill, align 8
  call void @llvm.dbg.declare(metadata { i32*, i32* }** %self.dbg.spill, metadata !1386, metadata !DIExpression()), !dbg !1387
  call void @llvm.dbg.declare(metadata {}* %metadata.dbg.spill, metadata !1388, metadata !DIExpression()), !dbg !1397
  call void @llvm.dbg.declare(metadata {}* %metadata.dbg.spill1, metadata !1413, metadata !DIExpression()), !dbg !1418
  %7 = bitcast { i32*, i32* }* %self to i32**, !dbg !1412
  %self2 = load i32*, i32** %7, align 8, !dbg !1412, !nonnull !23, !noundef !23
  store i32* %self2, i32** %self.dbg.spill3, align 8, !dbg !1412
  call void @llvm.dbg.declare(metadata i32** %self.dbg.spill3, metadata !1427, metadata !DIExpression()), !dbg !1433
  store i32* %self2, i32** %self.dbg.spill4, align 8, !dbg !1433
  call void @llvm.dbg.declare(metadata i32** %self.dbg.spill4, metadata !1410, metadata !DIExpression()), !dbg !1434
  %self5 = bitcast i32* %self2 to i8*, !dbg !1434
  store i8* %self5, i8** %self.dbg.spill6, align 8, !dbg !1434
  call void @llvm.dbg.declare(metadata i8** %self.dbg.spill6, metadata !1435, metadata !DIExpression()), !dbg !1442
  %8 = bitcast {}** %5 to i64*, !dbg !1444
  store i64 0, i64* %8, align 8, !dbg !1444
  %data_address = load {}*, {}** %5, align 8, !dbg !1444
  store {}* %data_address, {}** %data_address.dbg.spill, align 8, !dbg !1444
  call void @llvm.dbg.declare(metadata {}** %data_address.dbg.spill, metadata !1396, metadata !DIExpression()), !dbg !1397
  br label %bb9, !dbg !1444

bb9:                                              ; preds = %start
  %9 = bitcast %"core::ptr::metadata::PtrComponents<u8>"* %_30 to {}**, !dbg !1397
  store {}* %data_address, {}** %9, align 8, !dbg !1397
  %10 = bitcast %"core::ptr::metadata::PtrRepr<u8>"* %_29 to %"core::ptr::metadata::PtrComponents<u8>"*, !dbg !1397
  %11 = bitcast %"core::ptr::metadata::PtrComponents<u8>"* %10 to i8*, !dbg !1397
  %12 = bitcast %"core::ptr::metadata::PtrComponents<u8>"* %_30 to i8*, !dbg !1397
  call void @llvm.memcpy.p0i8.p0i8.i64(i8* align 8 %11, i8* align 8 %12, i64 8, i1 false), !dbg !1397
  %13 = bitcast %"core::ptr::metadata::PtrRepr<u8>"* %_29 to i8**, !dbg !1397
  %other = load i8*, i8** %13, align 8, !dbg !1397
  store i8* %other, i8** %other.dbg.spill, align 8, !dbg !1397
  call void @llvm.dbg.declare(metadata i8** %other.dbg.spill, metadata !1441, metadata !DIExpression()), !dbg !1442
  %14 = icmp eq i8* %self5, %other, !dbg !1442
  %15 = zext i1 %14 to i8, !dbg !1442
  store i8 %15, i8* %4, align 1, !dbg !1442
  %16 = load i8, i8* %4, align 1, !dbg !1442, !range !444, !noundef !23
  %_4 = trunc i8 %16 to i1, !dbg !1442
  br label %bb10, !dbg !1442

bb10:                                             ; preds = %bb9
  %_3 = xor i1 %_4, true, !dbg !1452
  call void @llvm.assume(i1 %_3), !dbg !1453
  br label %bb1, !dbg !1453

bb1:                                              ; preds = %bb10
  br i1 false, label %bb4, label %bb2, !dbg !1454

bb4:                                              ; preds = %bb1
  br label %bb5, !dbg !1455

bb2:                                              ; preds = %bb1
  %17 = getelementptr inbounds { i32*, i32* }, { i32*, i32* }* %self, i32 0, i32 1, !dbg !1426
  %self7 = load i32*, i32** %17, align 8, !dbg !1426
  store i32* %self7, i32** %self.dbg.spill8, align 8, !dbg !1426
  call void @llvm.dbg.declare(metadata i32** %self.dbg.spill8, metadata !1424, metadata !DIExpression()), !dbg !1456
  %self9 = bitcast i32* %self7 to i8*, !dbg !1456
  store i8* %self9, i8** %self.dbg.spill10, align 8, !dbg !1456
  call void @llvm.dbg.declare(metadata i8** %self.dbg.spill10, metadata !1457, metadata !DIExpression()), !dbg !1462
  %18 = bitcast {}** %3 to i64*, !dbg !1464
  store i64 0, i64* %18, align 8, !dbg !1464
  %data_address11 = load {}*, {}** %3, align 8, !dbg !1464
  store {}* %data_address11, {}** %data_address.dbg.spill12, align 8, !dbg !1464
  call void @llvm.dbg.declare(metadata {}** %data_address.dbg.spill12, metadata !1417, metadata !DIExpression()), !dbg !1418
  br label %bb11, !dbg !1464

bb11:                                             ; preds = %bb2
  %19 = bitcast %"core::ptr::metadata::PtrComponents<u8>"* %_47 to {}**, !dbg !1418
  store {}* %data_address11, {}** %19, align 8, !dbg !1418
  %20 = bitcast %"core::ptr::metadata::PtrRepr<u8>"* %_46 to %"core::ptr::metadata::PtrComponents<u8>"*, !dbg !1418
  %21 = bitcast %"core::ptr::metadata::PtrComponents<u8>"* %20 to i8*, !dbg !1418
  %22 = bitcast %"core::ptr::metadata::PtrComponents<u8>"* %_47 to i8*, !dbg !1418
  call void @llvm.memcpy.p0i8.p0i8.i64(i8* align 8 %21, i8* align 8 %22, i64 8, i1 false), !dbg !1418
  %23 = bitcast %"core::ptr::metadata::PtrRepr<u8>"* %_46 to i8**, !dbg !1418
  %other13 = load i8*, i8** %23, align 8, !dbg !1418
  store i8* %other13, i8** %other.dbg.spill14, align 8, !dbg !1418
  call void @llvm.dbg.declare(metadata i8** %other.dbg.spill14, metadata !1461, metadata !DIExpression()), !dbg !1462
  %24 = icmp eq i8* %self9, %other13, !dbg !1462
  %25 = zext i1 %24 to i8, !dbg !1462
  store i8 %25, i8* %2, align 1, !dbg !1462
  %26 = load i8, i8* %2, align 1, !dbg !1462, !range !444, !noundef !23
  %_10 = trunc i8 %26 to i1, !dbg !1462
  br label %bb12, !dbg !1462

bb12:                                             ; preds = %bb11
  %_9 = xor i1 %_10, true, !dbg !1470
  call void @llvm.assume(i1 %_9), !dbg !1471
  br label %bb3, !dbg !1471

bb3:                                              ; preds = %bb12
  br label %bb5, !dbg !1455

bb5:                                              ; preds = %bb4, %bb3
  %27 = bitcast { i32*, i32* }* %self to i32**, !dbg !1472
  %self15 = load i32*, i32** %27, align 8, !dbg !1472, !nonnull !23, !noundef !23
  store i32* %self15, i32** %self.dbg.spill16, align 8, !dbg !1472
  call void @llvm.dbg.declare(metadata i32** %self.dbg.spill16, metadata !1473, metadata !DIExpression()), !dbg !1477
  %28 = getelementptr inbounds { i32*, i32* }, { i32*, i32* }* %self, i32 0, i32 1, !dbg !1472
  %_16 = load i32*, i32** %28, align 8, !dbg !1472
  %_12 = icmp eq i32* %self15, %_16, !dbg !1472
  br i1 %_12, label %bb6, label %bb7, !dbg !1472

bb7:                                              ; preds = %bb5
  store { i32*, i32* }* %self, { i32*, i32* }** %self.dbg.spill17, align 8, !dbg !1479
  call void @llvm.dbg.declare(metadata { i32*, i32* }** %self.dbg.spill17, metadata !1480, metadata !DIExpression()), !dbg !1488
  br i1 false, label %bb13, label %bb14, !dbg !1488

bb6:                                              ; preds = %bb5
  %29 = bitcast i32** %6 to {}**, !dbg !1490
  store {}* null, {}** %29, align 8, !dbg !1490
  br label %bb8, !dbg !1491

bb8:                                              ; preds = %bb15, %bb6
  %30 = load i32*, i32** %6, align 8, !dbg !1492, !align !256
  ret i32* %30, !dbg !1492

bb13:                                             ; preds = %bb7
  %31 = getelementptr inbounds { i32*, i32* }, { i32*, i32* }* %self, i32 0, i32 1, !dbg !1488
  %_56 = load i32*, i32** %31, align 8, !dbg !1488
  %self23 = bitcast i32* %_56 to i8*, !dbg !1488
  store i8* %self23, i8** %self.dbg.spill24, align 8, !dbg !1488
  call void @llvm.dbg.declare(metadata i8** %self.dbg.spill24, metadata !1493, metadata !DIExpression()), !dbg !1498
  %32 = getelementptr i8, i8* %self23, i64 -1, !dbg !1498
  store i8* %32, i8** %0, align 8, !dbg !1498
  %_54 = load i8*, i8** %0, align 8, !dbg !1498
  br label %bb16, !dbg !1498

bb14:                                             ; preds = %bb7
  %33 = bitcast { i32*, i32* }* %self to i32**, !dbg !1488
  %self18 = load i32*, i32** %33, align 8, !dbg !1488, !nonnull !23, !noundef !23
  store i32* %self18, i32** %self.dbg.spill19, align 8, !dbg !1488
  call void @llvm.dbg.declare(metadata i32** %self.dbg.spill19, metadata !1500, metadata !DIExpression()), !dbg !1504
  store i32* %self18, i32** %old.dbg.spill, align 8, !dbg !1504
  call void @llvm.dbg.declare(metadata i32** %old.dbg.spill, metadata !1486, metadata !DIExpression()), !dbg !1506
  %34 = bitcast { i32*, i32* }* %self to i32**, !dbg !1506
  %self20 = load i32*, i32** %34, align 8, !dbg !1506, !nonnull !23, !noundef !23
  store i32* %self20, i32** %self.dbg.spill21, align 8, !dbg !1506
  call void @llvm.dbg.declare(metadata i32** %self.dbg.spill21, metadata !1507, metadata !DIExpression()), !dbg !1511
  store i32* %self20, i32** %self.dbg.spill22, align 8, !dbg !1511
  call void @llvm.dbg.declare(metadata i32** %self.dbg.spill22, metadata !1513, metadata !DIExpression()), !dbg !1520
  %35 = getelementptr inbounds i32, i32* %self20, i64 1, !dbg !1520
  store i32* %35, i32** %1, align 8, !dbg !1520
  %_73 = load i32*, i32** %1, align 8, !dbg !1520
  br label %bb17, !dbg !1520

bb17:                                             ; preds = %bb14
  store i32* %_73, i32** %ptr.dbg.spill, align 8, !dbg !1520
  call void @llvm.dbg.declare(metadata i32** %ptr.dbg.spill, metadata !1521, metadata !DIExpression()), !dbg !1525
  store i32* %_73, i32** %_62, align 8, !dbg !1525
  %36 = bitcast { i32*, i32* }* %self to i32**, !dbg !1506
  %37 = load i32*, i32** %_62, align 8, !dbg !1506, !nonnull !23, !noundef !23
  store i32* %37, i32** %36, align 8, !dbg !1506
  store i32* %self18, i32** %_19, align 8, !dbg !1506
  br label %bb15, !dbg !1488

bb15:                                             ; preds = %bb16, %bb17
  %_18 = load i32*, i32** %_19, align 8, !dbg !1479
  store i32* %_18, i32** %6, align 8, !dbg !1527
  br label %bb8, !dbg !1491

bb16:                                             ; preds = %bb13
  %38 = getelementptr inbounds { i32*, i32* }, { i32*, i32* }* %self, i32 0, i32 1, !dbg !1488
  %39 = bitcast i8* %_54 to i32*, !dbg !1488
  store i32* %39, i32** %38, align 8, !dbg !1488
  %40 = bitcast { i32*, i32* }* %self to i32**, !dbg !1488
  %self25 = load i32*, i32** %40, align 8, !dbg !1488, !nonnull !23, !noundef !23
  store i32* %self25, i32** %self.dbg.spill26, align 8, !dbg !1488
  call void @llvm.dbg.declare(metadata i32** %self.dbg.spill26, metadata !1528, metadata !DIExpression()), !dbg !1532
  store i32* %self25, i32** %_19, align 8, !dbg !1488
  br label %bb15, !dbg !1488
}

; Function Attrs: nonlazybind uwtable
define dso_local void @rust_goto_loop(i32 %sz, i32* %buffer) unnamed_addr #1 !dbg !1534 {
start:
  %0 = alloca i32*, align 8
  %count.dbg.spill.i2 = alloca i64, align 8
  %self.dbg.spill.i3 = alloca i32*, align 8
  %1 = alloca i32*, align 8
  %count.dbg.spill.i = alloca i64, align 8
  %self.dbg.spill.i = alloca i32*, align 8
  %buffer.dbg.spill = alloca i32*, align 8
  %sz.dbg.spill = alloca i32, align 4
  %i = alloca i32, align 4
  store i32 %sz, i32* %sz.dbg.spill, align 4
  call void @llvm.dbg.declare(metadata i32* %sz.dbg.spill, metadata !1540, metadata !DIExpression()), !dbg !1544
  store i32* %buffer, i32** %buffer.dbg.spill, align 8
  call void @llvm.dbg.declare(metadata i32** %buffer.dbg.spill, metadata !1541, metadata !DIExpression()), !dbg !1545
  call void @llvm.dbg.declare(metadata i32* %i, metadata !1542, metadata !DIExpression()), !dbg !1546
  store i32 0, i32* %i, align 4, !dbg !1547
  br label %bb1, !dbg !1548

bb1:                                              ; preds = %bb7, %start
  %2 = load i32, i32* %i, align 4, !dbg !1549
  %3 = call { i32, i1 } @llvm.sadd.with.overflow.i32(i32 %2, i32 1), !dbg !1549
  %_4.0 = extractvalue { i32, i1 } %3, 0, !dbg !1549
  %_4.1 = extractvalue { i32, i1 } %3, 1, !dbg !1549
  %4 = call i1 @llvm.expect.i1(i1 %_4.1, i1 false), !dbg !1549
  br i1 %4, label %panic, label %bb2, !dbg !1549

bb2:                                              ; preds = %bb1
  store i32 %_4.0, i32* %i, align 4, !dbg !1549
  %_9 = load i32, i32* %i, align 4, !dbg !1550
  %_8 = sext i32 %_9 to i64, !dbg !1550
  store i32* %buffer, i32** %self.dbg.spill.i3, align 8
  call void @llvm.dbg.declare(metadata i32** %self.dbg.spill.i3, metadata !1551, metadata !DIExpression()), !dbg !1555
  store i64 %_8, i64* %count.dbg.spill.i2, align 8
  call void @llvm.dbg.declare(metadata i64* %count.dbg.spill.i2, metadata !1554, metadata !DIExpression()), !dbg !1557
  %5 = getelementptr inbounds i32, i32* %buffer, i64 %_8, !dbg !1558
  store i32* %5, i32** %0, align 8, !dbg !1558
  %_3.i4 = load i32*, i32** %0, align 8, !dbg !1558
  br label %bb3, !dbg !1559

panic:                                            ; preds = %bb1
; call core::panicking::panic
  call void @_ZN4core9panicking5panic17hf5844c0338bd061cE([0 x i8]* align 1 bitcast ([28 x i8]* @str.5 to [0 x i8]*), i64 28, %"core::panic::location::Location"* align 8 bitcast (<{ i8*, [16 x i8] }>* @alloc288 to %"core::panic::location::Location"*)) #13, !dbg !1549
  unreachable, !dbg !1549

bb3:                                              ; preds = %bb2
  store i32 1, i32* %_3.i4, align 4, !dbg !1560
  %_12 = load i32, i32* %i, align 4, !dbg !1561
  %_11 = icmp slt i32 %_12, 10, !dbg !1562
  %_10 = xor i1 %_11, true, !dbg !1563
  br i1 %_10, label %bb4, label %bb5, !dbg !1563

bb5:                                              ; preds = %bb3
  %6 = load i32, i32* %i, align 4, !dbg !1564
  %7 = call { i32, i1 } @llvm.sadd.with.overflow.i32(i32 %6, i32 1), !dbg !1564
  %_14.0 = extractvalue { i32, i1 } %7, 0, !dbg !1564
  %_14.1 = extractvalue { i32, i1 } %7, 1, !dbg !1564
  %8 = call i1 @llvm.expect.i1(i1 %_14.1, i1 false), !dbg !1564
  br i1 %8, label %panic1, label %bb6, !dbg !1564

bb4:                                              ; preds = %bb3
  ret void, !dbg !1565

bb6:                                              ; preds = %bb5
  store i32 %_14.0, i32* %i, align 4, !dbg !1564
  %_19 = load i32, i32* %i, align 4, !dbg !1566
  %_18 = sext i32 %_19 to i64, !dbg !1566
  store i32* %buffer, i32** %self.dbg.spill.i, align 8
  call void @llvm.dbg.declare(metadata i32** %self.dbg.spill.i, metadata !1551, metadata !DIExpression()), !dbg !1567
  store i64 %_18, i64* %count.dbg.spill.i, align 8
  call void @llvm.dbg.declare(metadata i64* %count.dbg.spill.i, metadata !1554, metadata !DIExpression()), !dbg !1569
  %9 = getelementptr inbounds i32, i32* %buffer, i64 %_18, !dbg !1570
  store i32* %9, i32** %1, align 8, !dbg !1570
  %_3.i = load i32*, i32** %1, align 8, !dbg !1570
  br label %bb7, !dbg !1571

panic1:                                           ; preds = %bb5
; call core::panicking::panic
  call void @_ZN4core9panicking5panic17hf5844c0338bd061cE([0 x i8]* align 1 bitcast ([28 x i8]* @str.5 to [0 x i8]*), i64 28, %"core::panic::location::Location"* align 8 bitcast (<{ i8*, [16 x i8] }>* @alloc290 to %"core::panic::location::Location"*)) #13, !dbg !1564
  unreachable, !dbg !1564

bb7:                                              ; preds = %bb6
  store i32 2, i32* %_3.i, align 4, !dbg !1572
  br label %bb1, !dbg !1548
}

; Function Attrs: nonlazybind uwtable
define dso_local void @rust_goto_linear(i32 %sz, i32* %buffer) unnamed_addr #1 !dbg !1573 {
start:
  %0 = alloca i32*, align 8
  %count.dbg.spill.i5 = alloca i64, align 8
  %self.dbg.spill.i6 = alloca i32*, align 8
  %1 = alloca i32*, align 8
  %count.dbg.spill.i2 = alloca i64, align 8
  %self.dbg.spill.i3 = alloca i32*, align 8
  %2 = alloca i32*, align 8
  %count.dbg.spill.i = alloca i64, align 8
  %self.dbg.spill.i = alloca i32*, align 8
  %buffer.dbg.spill = alloca i32*, align 8
  %sz.dbg.spill = alloca i32, align 4
  %i = alloca i32, align 4
  store i32 %sz, i32* %sz.dbg.spill, align 4
  call void @llvm.dbg.declare(metadata i32* %sz.dbg.spill, metadata !1577, metadata !DIExpression()), !dbg !1581
  store i32* %buffer, i32** %buffer.dbg.spill, align 8
  call void @llvm.dbg.declare(metadata i32** %buffer.dbg.spill, metadata !1578, metadata !DIExpression()), !dbg !1582
  call void @llvm.dbg.declare(metadata i32* %i, metadata !1579, metadata !DIExpression()), !dbg !1583
  store i32 0, i32* %i, align 4, !dbg !1584
  store i32 1, i32* %i, align 4, !dbg !1585
  store i32* %buffer, i32** %self.dbg.spill.i6, align 8
  call void @llvm.dbg.declare(metadata i32** %self.dbg.spill.i6, metadata !1551, metadata !DIExpression()), !dbg !1586
  store i64 1, i64* %count.dbg.spill.i5, align 8
  call void @llvm.dbg.declare(metadata i64* %count.dbg.spill.i5, metadata !1554, metadata !DIExpression()), !dbg !1588
  %3 = getelementptr inbounds i32, i32* %buffer, i64 1, !dbg !1589
  store i32* %3, i32** %0, align 8, !dbg !1589
  %_3.i7 = load i32*, i32** %0, align 8, !dbg !1589
  br label %bb1, !dbg !1590

bb1:                                              ; preds = %start
  store i32 1, i32* %_3.i7, align 4, !dbg !1591
  %4 = load i32, i32* %i, align 4, !dbg !1592
  %5 = call { i32, i1 } @llvm.sadd.with.overflow.i32(i32 %4, i32 1), !dbg !1592
  %_8.0 = extractvalue { i32, i1 } %5, 0, !dbg !1592
  %_8.1 = extractvalue { i32, i1 } %5, 1, !dbg !1592
  %6 = call i1 @llvm.expect.i1(i1 %_8.1, i1 false), !dbg !1592
  br i1 %6, label %panic, label %bb2, !dbg !1592

bb2:                                              ; preds = %bb1
  store i32 %_8.0, i32* %i, align 4, !dbg !1592
  %_13 = load i32, i32* %i, align 4, !dbg !1593
  %_12 = sext i32 %_13 to i64, !dbg !1593
  store i32* %buffer, i32** %self.dbg.spill.i3, align 8
  call void @llvm.dbg.declare(metadata i32** %self.dbg.spill.i3, metadata !1551, metadata !DIExpression()), !dbg !1594
  store i64 %_12, i64* %count.dbg.spill.i2, align 8
  call void @llvm.dbg.declare(metadata i64* %count.dbg.spill.i2, metadata !1554, metadata !DIExpression()), !dbg !1596
  %7 = getelementptr inbounds i32, i32* %buffer, i64 %_12, !dbg !1597
  store i32* %7, i32** %1, align 8, !dbg !1597
  %_3.i4 = load i32*, i32** %1, align 8, !dbg !1597
  br label %bb3, !dbg !1598

panic:                                            ; preds = %bb1
; call core::panicking::panic
  call void @_ZN4core9panicking5panic17hf5844c0338bd061cE([0 x i8]* align 1 bitcast ([28 x i8]* @str.5 to [0 x i8]*), i64 28, %"core::panic::location::Location"* align 8 bitcast (<{ i8*, [16 x i8] }>* @alloc292 to %"core::panic::location::Location"*)) #13, !dbg !1592
  unreachable, !dbg !1592

bb3:                                              ; preds = %bb2
  store i32 3, i32* %_3.i4, align 4, !dbg !1599
  %8 = load i32, i32* %i, align 4, !dbg !1600
  %9 = call { i32, i1 } @llvm.sadd.with.overflow.i32(i32 %8, i32 1), !dbg !1600
  %_14.0 = extractvalue { i32, i1 } %9, 0, !dbg !1600
  %_14.1 = extractvalue { i32, i1 } %9, 1, !dbg !1600
  %10 = call i1 @llvm.expect.i1(i1 %_14.1, i1 false), !dbg !1600
  br i1 %10, label %panic1, label %bb4, !dbg !1600

bb4:                                              ; preds = %bb3
  store i32 %_14.0, i32* %i, align 4, !dbg !1600
  %_19 = load i32, i32* %i, align 4, !dbg !1601
  %_18 = sext i32 %_19 to i64, !dbg !1601
  store i32* %buffer, i32** %self.dbg.spill.i, align 8
  call void @llvm.dbg.declare(metadata i32** %self.dbg.spill.i, metadata !1551, metadata !DIExpression()), !dbg !1602
  store i64 %_18, i64* %count.dbg.spill.i, align 8
  call void @llvm.dbg.declare(metadata i64* %count.dbg.spill.i, metadata !1554, metadata !DIExpression()), !dbg !1604
  %11 = getelementptr inbounds i32, i32* %buffer, i64 %_18, !dbg !1605
  store i32* %11, i32** %2, align 8, !dbg !1605
  %_3.i = load i32*, i32** %2, align 8, !dbg !1605
  br label %bb5, !dbg !1606

panic1:                                           ; preds = %bb3
; call core::panicking::panic
  call void @_ZN4core9panicking5panic17hf5844c0338bd061cE([0 x i8]* align 1 bitcast ([28 x i8]* @str.5 to [0 x i8]*), i64 28, %"core::panic::location::Location"* align 8 bitcast (<{ i8*, [16 x i8] }>* @alloc294 to %"core::panic::location::Location"*)) #13, !dbg !1600
  unreachable, !dbg !1600

bb5:                                              ; preds = %bb4
  store i32 2, i32* %_3.i, align 4, !dbg !1607
  ret void, !dbg !1608
}

; Function Attrs: nonlazybind uwtable
define dso_local i32 @rust_switch_val(i32 %val) unnamed_addr #1 !dbg !1609 {
start:
  %val.dbg.spill = alloca i32, align 4
  %0 = alloca i32, align 4
  store i32 %val, i32* %val.dbg.spill, align 4
  call void @llvm.dbg.declare(metadata i32* %val.dbg.spill, metadata !1615, metadata !DIExpression()), !dbg !1616
  switch i32 %val, label %bb1 [
    i32 1, label %bb2
    i32 2, label %bb3
  ], !dbg !1617

bb1:                                              ; preds = %start
  %1 = call { i32, i1 } @llvm.sadd.with.overflow.i32(i32 %val, i32 1), !dbg !1618
  %_4.0 = extractvalue { i32, i1 } %1, 0, !dbg !1618
  %_4.1 = extractvalue { i32, i1 } %1, 1, !dbg !1618
  %2 = call i1 @llvm.expect.i1(i1 %_4.1, i1 false), !dbg !1618
  br i1 %2, label %panic, label %bb4, !dbg !1618

bb2:                                              ; preds = %start
  store i32 2, i32* %0, align 4, !dbg !1619
  br label %bb5, !dbg !1620

bb3:                                              ; preds = %start
  store i32 4, i32* %0, align 4, !dbg !1621
  br label %bb5, !dbg !1622

bb4:                                              ; preds = %bb1
  store i32 %_4.0, i32* %0, align 4, !dbg !1618
  br label %bb5, !dbg !1623

panic:                                            ; preds = %bb1
; call core::panicking::panic
  call void @_ZN4core9panicking5panic17hf5844c0338bd061cE([0 x i8]* align 1 bitcast ([28 x i8]* @str.5 to [0 x i8]*), i64 28, %"core::panic::location::Location"* align 8 bitcast (<{ i8*, [16 x i8] }>* @alloc296 to %"core::panic::location::Location"*)) #13, !dbg !1618
  unreachable, !dbg !1618

bb5:                                              ; preds = %bb2, %bb3, %bb4
  %3 = load i32, i32* %0, align 4, !dbg !1624
  ret i32 %3, !dbg !1624
}

; Function Attrs: nonlazybind uwtable
define dso_local void @rust_goto_switch(i32 %buffer_size, i32* %buffer) unnamed_addr #1 !dbg !1625 {
start:
  %0 = alloca i32*, align 8
  %count.dbg.spill.i13 = alloca i64, align 8
  %self.dbg.spill.i14 = alloca i32*, align 8
  %1 = alloca i32*, align 8
  %count.dbg.spill.i10 = alloca i64, align 8
  %self.dbg.spill.i11 = alloca i32*, align 8
  %2 = alloca i32*, align 8
  %count.dbg.spill.i7 = alloca i64, align 8
  %self.dbg.spill.i8 = alloca i32*, align 8
  %3 = alloca i32*, align 8
  %count.dbg.spill.i = alloca i64, align 8
  %self.dbg.spill.i = alloca i32*, align 8
  %buffer.dbg.spill = alloca i32*, align 8
  %buffer_size.dbg.spill = alloca i32, align 4
  %current_block_6 = alloca i64, align 8
  %i = alloca i32, align 4
  store i32 %buffer_size, i32* %buffer_size.dbg.spill, align 4
  call void @llvm.dbg.declare(metadata i32* %buffer_size.dbg.spill, metadata !1629, metadata !DIExpression()), !dbg !1635
  store i32* %buffer, i32** %buffer.dbg.spill, align 8
  call void @llvm.dbg.declare(metadata i32** %buffer.dbg.spill, metadata !1630, metadata !DIExpression()), !dbg !1636
  call void @llvm.dbg.declare(metadata i32* %i, metadata !1631, metadata !DIExpression()), !dbg !1637
  call void @llvm.dbg.declare(metadata i64* %current_block_6, metadata !1633, metadata !DIExpression()), !dbg !1638
  store i32 -3, i32* %i, align 4, !dbg !1639
  br label %bb1, !dbg !1640

bb1:                                              ; preds = %bb13, %start
  %4 = load i32, i32* %i, align 4, !dbg !1641
  switch i32 %4, label %bb2 [
    i32 0, label %bb3
    i32 4, label %bb7
    i32 1, label %bb7
    i32 3, label %bb8
  ], !dbg !1641

bb2:                                              ; preds = %bb1
  %5 = load i32, i32* %i, align 4, !dbg !1642
  %6 = call { i32, i1 } @llvm.sadd.with.overflow.i32(i32 %5, i32 1), !dbg !1642
  %_22.0 = extractvalue { i32, i1 } %6, 0, !dbg !1642
  %_22.1 = extractvalue { i32, i1 } %6, 1, !dbg !1642
  %7 = call i1 @llvm.expect.i1(i1 %_22.1, i1 false), !dbg !1642
  br i1 %7, label %panic, label %bb11, !dbg !1642

bb3:                                              ; preds = %bb1
  %8 = load i32, i32* %i, align 4, !dbg !1643
  %9 = call { i32, i1 } @llvm.sadd.with.overflow.i32(i32 %8, i32 1), !dbg !1643
  %_5.0 = extractvalue { i32, i1 } %9, 0, !dbg !1643
  %_5.1 = extractvalue { i32, i1 } %9, 1, !dbg !1643
  %10 = call i1 @llvm.expect.i1(i1 %_5.1, i1 false), !dbg !1643
  br i1 %10, label %panic3, label %bb4, !dbg !1643

bb7:                                              ; preds = %bb1, %bb1
  store i64 1794281108337000705, i64* %current_block_6, align 8, !dbg !1644
  br label %bb14, !dbg !1645

bb8:                                              ; preds = %bb1
  %_19 = load i32, i32* %i, align 4, !dbg !1646
  %11 = call { i32, i1 } @llvm.sadd.with.overflow.i32(i32 %_19, i32 3), !dbg !1647
  %_21.0 = extractvalue { i32, i1 } %11, 0, !dbg !1647
  %_21.1 = extractvalue { i32, i1 } %11, 1, !dbg !1647
  %12 = call i1 @llvm.expect.i1(i1 %_21.1, i1 false), !dbg !1647
  br i1 %12, label %panic2, label %bb9, !dbg !1647

bb11:                                             ; preds = %bb2
  store i32 %_22.0, i32* %i, align 4, !dbg !1642
  %_28 = load i32, i32* %i, align 4, !dbg !1648
  %13 = call { i32, i1 } @llvm.sadd.with.overflow.i32(i32 %_28, i32 3), !dbg !1649
  %_30.0 = extractvalue { i32, i1 } %13, 0, !dbg !1649
  %_30.1 = extractvalue { i32, i1 } %13, 1, !dbg !1649
  %14 = call i1 @llvm.expect.i1(i1 %_30.1, i1 false), !dbg !1649
  br i1 %14, label %panic1, label %bb12, !dbg !1649

panic:                                            ; preds = %bb2
; call core::panicking::panic
  call void @_ZN4core9panicking5panic17hf5844c0338bd061cE([0 x i8]* align 1 bitcast ([28 x i8]* @str.5 to [0 x i8]*), i64 28, %"core::panic::location::Location"* align 8 bitcast (<{ i8*, [16 x i8] }>* @alloc298 to %"core::panic::location::Location"*)) #13, !dbg !1642
  unreachable, !dbg !1642

bb12:                                             ; preds = %bb11
  %_26 = sext i32 %_30.0 to i64, !dbg !1649
  store i32* %buffer, i32** %self.dbg.spill.i14, align 8
  call void @llvm.dbg.declare(metadata i32** %self.dbg.spill.i14, metadata !1551, metadata !DIExpression()), !dbg !1650
  store i64 %_26, i64* %count.dbg.spill.i13, align 8
  call void @llvm.dbg.declare(metadata i64* %count.dbg.spill.i13, metadata !1554, metadata !DIExpression()), !dbg !1652
  %15 = getelementptr inbounds i32, i32* %buffer, i64 %_26, !dbg !1653
  store i32* %15, i32** %0, align 8, !dbg !1653
  %_3.i15 = load i32*, i32** %0, align 8, !dbg !1653
  br label %bb13, !dbg !1654

panic1:                                           ; preds = %bb11
; call core::panicking::panic
  call void @_ZN4core9panicking5panic17hf5844c0338bd061cE([0 x i8]* align 1 bitcast ([28 x i8]* @str.5 to [0 x i8]*), i64 28, %"core::panic::location::Location"* align 8 bitcast (<{ i8*, [16 x i8] }>* @alloc300 to %"core::panic::location::Location"*)) #13, !dbg !1649
  unreachable, !dbg !1649

bb13:                                             ; preds = %bb12
  store i32 1, i32* %_3.i15, align 4, !dbg !1655
  br label %bb1, !dbg !1656

bb9:                                              ; preds = %bb8
  %_17 = sext i32 %_21.0 to i64, !dbg !1647
  store i32* %buffer, i32** %self.dbg.spill.i11, align 8
  call void @llvm.dbg.declare(metadata i32** %self.dbg.spill.i11, metadata !1551, metadata !DIExpression()), !dbg !1657
  store i64 %_17, i64* %count.dbg.spill.i10, align 8
  call void @llvm.dbg.declare(metadata i64* %count.dbg.spill.i10, metadata !1554, metadata !DIExpression()), !dbg !1659
  %16 = getelementptr inbounds i32, i32* %buffer, i64 %_17, !dbg !1660
  store i32* %16, i32** %1, align 8, !dbg !1660
  %_3.i12 = load i32*, i32** %1, align 8, !dbg !1660
  br label %bb10, !dbg !1661

panic2:                                           ; preds = %bb8
; call core::panicking::panic
  call void @_ZN4core9panicking5panic17hf5844c0338bd061cE([0 x i8]* align 1 bitcast ([28 x i8]* @str.5 to [0 x i8]*), i64 28, %"core::panic::location::Location"* align 8 bitcast (<{ i8*, [16 x i8] }>* @alloc302 to %"core::panic::location::Location"*)) #13, !dbg !1647
  unreachable, !dbg !1647

bb10:                                             ; preds = %bb9
  store i32 4, i32* %_3.i12, align 4, !dbg !1662
  store i64 -4932925300474773143, i64* %current_block_6, align 8, !dbg !1663
  br label %bb14, !dbg !1664

bb14:                                             ; preds = %bb6, %bb7, %bb10
  %17 = load i64, i64* %current_block_6, align 8, !dbg !1665
  %18 = icmp eq i64 %17, 1794281108337000705, !dbg !1665
  br i1 %18, label %bb15, label %bb19, !dbg !1665

bb4:                                              ; preds = %bb3
  store i32 %_5.0, i32* %i, align 4, !dbg !1643
  %_11 = load i32, i32* %i, align 4, !dbg !1666
  %19 = call { i32, i1 } @llvm.sadd.with.overflow.i32(i32 %_11, i32 3), !dbg !1667
  %_13.0 = extractvalue { i32, i1 } %19, 0, !dbg !1667
  %_13.1 = extractvalue { i32, i1 } %19, 1, !dbg !1667
  %20 = call i1 @llvm.expect.i1(i1 %_13.1, i1 false), !dbg !1667
  br i1 %20, label %panic4, label %bb5, !dbg !1667

panic3:                                           ; preds = %bb3
; call core::panicking::panic
  call void @_ZN4core9panicking5panic17hf5844c0338bd061cE([0 x i8]* align 1 bitcast ([28 x i8]* @str.5 to [0 x i8]*), i64 28, %"core::panic::location::Location"* align 8 bitcast (<{ i8*, [16 x i8] }>* @alloc304 to %"core::panic::location::Location"*)) #13, !dbg !1643
  unreachable, !dbg !1643

bb5:                                              ; preds = %bb4
  %_9 = sext i32 %_13.0 to i64, !dbg !1667
  store i32* %buffer, i32** %self.dbg.spill.i8, align 8
  call void @llvm.dbg.declare(metadata i32** %self.dbg.spill.i8, metadata !1551, metadata !DIExpression()), !dbg !1668
  store i64 %_9, i64* %count.dbg.spill.i7, align 8
  call void @llvm.dbg.declare(metadata i64* %count.dbg.spill.i7, metadata !1554, metadata !DIExpression()), !dbg !1670
  %21 = getelementptr inbounds i32, i32* %buffer, i64 %_9, !dbg !1671
  store i32* %21, i32** %2, align 8, !dbg !1671
  %_3.i9 = load i32*, i32** %2, align 8, !dbg !1671
  br label %bb6, !dbg !1672

panic4:                                           ; preds = %bb4
; call core::panicking::panic
  call void @_ZN4core9panicking5panic17hf5844c0338bd061cE([0 x i8]* align 1 bitcast ([28 x i8]* @str.5 to [0 x i8]*), i64 28, %"core::panic::location::Location"* align 8 bitcast (<{ i8*, [16 x i8] }>* @alloc306 to %"core::panic::location::Location"*)) #13, !dbg !1667
  unreachable, !dbg !1667

bb6:                                              ; preds = %bb5
  store i32 2, i32* %_3.i9, align 4, !dbg !1673
  store i64 1794281108337000705, i64* %current_block_6, align 8, !dbg !1674
  br label %bb14, !dbg !1675

bb15:                                             ; preds = %bb14
  %22 = load i32, i32* %i, align 4, !dbg !1676
  %23 = call { i32, i1 } @llvm.sadd.with.overflow.i32(i32 %22, i32 1), !dbg !1676
  %_31.0 = extractvalue { i32, i1 } %23, 0, !dbg !1676
  %_31.1 = extractvalue { i32, i1 } %23, 1, !dbg !1676
  %24 = call i1 @llvm.expect.i1(i1 %_31.1, i1 false), !dbg !1676
  br i1 %24, label %panic5, label %bb16, !dbg !1676

bb19:                                             ; preds = %bb18, %bb14
  ret void, !dbg !1677

bb16:                                             ; preds = %bb15
  store i32 %_31.0, i32* %i, align 4, !dbg !1676
  %_37 = load i32, i32* %i, align 4, !dbg !1678
  %25 = call { i32, i1 } @llvm.sadd.with.overflow.i32(i32 %_37, i32 3), !dbg !1679
  %_39.0 = extractvalue { i32, i1 } %25, 0, !dbg !1679
  %_39.1 = extractvalue { i32, i1 } %25, 1, !dbg !1679
  %26 = call i1 @llvm.expect.i1(i1 %_39.1, i1 false), !dbg !1679
  br i1 %26, label %panic6, label %bb17, !dbg !1679

panic5:                                           ; preds = %bb15
; call core::panicking::panic
  call void @_ZN4core9panicking5panic17hf5844c0338bd061cE([0 x i8]* align 1 bitcast ([28 x i8]* @str.5 to [0 x i8]*), i64 28, %"core::panic::location::Location"* align 8 bitcast (<{ i8*, [16 x i8] }>* @alloc308 to %"core::panic::location::Location"*)) #13, !dbg !1676
  unreachable, !dbg !1676

bb17:                                             ; preds = %bb16
  %_35 = sext i32 %_39.0 to i64, !dbg !1679
  store i32* %buffer, i32** %self.dbg.spill.i, align 8
  call void @llvm.dbg.declare(metadata i32** %self.dbg.spill.i, metadata !1551, metadata !DIExpression()), !dbg !1680
  store i64 %_35, i64* %count.dbg.spill.i, align 8
  call void @llvm.dbg.declare(metadata i64* %count.dbg.spill.i, metadata !1554, metadata !DIExpression()), !dbg !1682
  %27 = getelementptr inbounds i32, i32* %buffer, i64 %_35, !dbg !1683
  store i32* %27, i32** %3, align 8, !dbg !1683
  %_3.i = load i32*, i32** %3, align 8, !dbg !1683
  br label %bb18, !dbg !1684

panic6:                                           ; preds = %bb16
; call core::panicking::panic
  call void @_ZN4core9panicking5panic17hf5844c0338bd061cE([0 x i8]* align 1 bitcast ([28 x i8]* @str.5 to [0 x i8]*), i64 28, %"core::panic::location::Location"* align 8 bitcast (<{ i8*, [16 x i8] }>* @alloc310 to %"core::panic::location::Location"*)) #13, !dbg !1679
  unreachable, !dbg !1679

bb18:                                             ; preds = %bb17
  store i32 3, i32* %_3.i, align 4, !dbg !1685
  br label %bb19, !dbg !1686
}

; Function Attrs: nonlazybind uwtable
define dso_local void @rust_test_nested_with_goto(i32 %n, i32 %0, i8* %buf) unnamed_addr #1 !dbg !1687 {
start:
  %buf.dbg.spill = alloca i8*, align 8
  %n.dbg.spill = alloca i32, align 4
  %current_block_2 = alloca i64, align 8
  %i = alloca i32, align 4
  %x = alloca i32, align 4
  store i32 %0, i32* %x, align 4
  store i32 %n, i32* %n.dbg.spill, align 4
  call void @llvm.dbg.declare(metadata i32* %n.dbg.spill, metadata !1695, metadata !DIExpression()), !dbg !1702
  call void @llvm.dbg.declare(metadata i32* %x, metadata !1696, metadata !DIExpression()), !dbg !1703
  store i8* %buf, i8** %buf.dbg.spill, align 8
  call void @llvm.dbg.declare(metadata i8** %buf.dbg.spill, metadata !1697, metadata !DIExpression()), !dbg !1704
  call void @llvm.dbg.declare(metadata i32* %i, metadata !1698, metadata !DIExpression()), !dbg !1705
  call void @llvm.dbg.declare(metadata i64* %current_block_2, metadata !1700, metadata !DIExpression()), !dbg !1706
  store i32 0, i32* %i, align 4, !dbg !1707
  store i32 0, i32* %i, align 4, !dbg !1708
  br label %bb1, !dbg !1709

bb1:                                              ; preds = %bb15, %start
  %_6 = load i32, i32* %i, align 4, !dbg !1710
  %_5 = icmp slt i32 %_6, %n, !dbg !1710
  br i1 %_5, label %bb2, label %bb16, !dbg !1710

bb16:                                             ; preds = %bb1
  ret void, !dbg !1711

bb2:                                              ; preds = %bb1
  %_8 = icmp eq i32 %n, 10, !dbg !1712
  br i1 %_8, label %bb3, label %bb14, !dbg !1712

bb14:                                             ; preds = %bb13, %bb2
  %1 = load i32, i32* %i, align 4, !dbg !1713
  %2 = call { i32, i1 } @llvm.sadd.with.overflow.i32(i32 %1, i32 1), !dbg !1713
  %_32.0 = extractvalue { i32, i1 } %2, 0, !dbg !1713
  %_32.1 = extractvalue { i32, i1 } %2, 1, !dbg !1713
  %3 = call i1 @llvm.expect.i1(i1 %_32.1, i1 false), !dbg !1713
  br i1 %3, label %panic1, label %bb15, !dbg !1713

bb3:                                              ; preds = %bb2
  %_13 = load i32, i32* %x, align 4, !dbg !1714
  %_12 = icmp slt i32 %_13, 100, !dbg !1714
  br i1 %_12, label %bb4, label %bb5, !dbg !1714

bb5:                                              ; preds = %bb3
  store i64 7351195479953500246, i64* %current_block_2, align 8, !dbg !1715
  br label %bb6, !dbg !1716

bb4:                                              ; preds = %bb3
  store i64 -7766222745727878750, i64* %current_block_2, align 8, !dbg !1717
  br label %bb6, !dbg !1716

bb6:                                              ; preds = %bb12, %bb10, %bb5, %bb4
  %4 = load i64, i64* %current_block_2, align 8, !dbg !1718
  %5 = icmp eq i64 %4, 7351195479953500246, !dbg !1718
  br i1 %5, label %bb8, label %bb7, !dbg !1718

bb8:                                              ; preds = %bb6
  %_15 = call i32 (i8*, ...) @printf(i8* getelementptr inbounds (<{ [16 x i8] }>, <{ [16 x i8] }>* @alloc13, i32 0, i32 0, i32 0)), !dbg !1719
  br label %bb13, !dbg !1719

bb7:                                              ; preds = %bb6
  %_21 = load i32, i32* %x, align 4, !dbg !1720
  %_22 = load i32, i32* %i, align 4, !dbg !1721
  %_20 = icmp eq i32 %_21, %_22, !dbg !1720
  br i1 %_20, label %bb13, label %bb9, !dbg !1720

bb9:                                              ; preds = %bb7
  %_24 = load i32, i32* %x, align 4, !dbg !1722
  %_23 = icmp eq i32 %_24, 0, !dbg !1722
  br i1 %_23, label %bb10, label %bb11, !dbg !1722

bb13:                                             ; preds = %bb8, %bb7
  %_27 = call i32 (i8*, ...) @printf(i8* getelementptr inbounds (<{ [12 x i8] }>, <{ [12 x i8] }>* @alloc14, i32 0, i32 0, i32 0)), !dbg !1723
  br label %bb14, !dbg !1723

bb11:                                             ; preds = %bb9
  %6 = load i32, i32* %x, align 4, !dbg !1724
  %7 = call { i32, i1 } @llvm.ssub.with.overflow.i32(i32 %6, i32 1), !dbg !1724
  %_26.0 = extractvalue { i32, i1 } %7, 0, !dbg !1724
  %_26.1 = extractvalue { i32, i1 } %7, 1, !dbg !1724
  %8 = call i1 @llvm.expect.i1(i1 %_26.1, i1 false), !dbg !1724
  br i1 %8, label %panic, label %bb12, !dbg !1724

bb10:                                             ; preds = %bb9
  store i64 7351195479953500246, i64* %current_block_2, align 8, !dbg !1725
  br label %bb6, !dbg !1726

bb12:                                             ; preds = %bb11
  store i32 %_26.0, i32* %x, align 4, !dbg !1724
  store i64 -7766222745727878750, i64* %current_block_2, align 8, !dbg !1729
  br label %bb6, !dbg !1730

panic:                                            ; preds = %bb11
; call core::panicking::panic
  call void @_ZN4core9panicking5panic17hf5844c0338bd061cE([0 x i8]* align 1 bitcast ([33 x i8]* @str.6 to [0 x i8]*), i64 33, %"core::panic::location::Location"* align 8 bitcast (<{ i8*, [16 x i8] }>* @alloc312 to %"core::panic::location::Location"*)) #13, !dbg !1724
  unreachable, !dbg !1724

bb15:                                             ; preds = %bb14
  store i32 %_32.0, i32* %i, align 4, !dbg !1713
  br label %bb1, !dbg !1709

panic1:                                           ; preds = %bb14
; call core::panicking::panic
  call void @_ZN4core9panicking5panic17hf5844c0338bd061cE([0 x i8]* align 1 bitcast ([28 x i8]* @str.5 to [0 x i8]*), i64 28, %"core::panic::location::Location"* align 8 bitcast (<{ i8*, [16 x i8] }>* @alloc314 to %"core::panic::location::Location"*)) #13, !dbg !1713
  unreachable, !dbg !1713
}

; Function Attrs: nonlazybind uwtable
define dso_local void @rust_entry(i32 %buffer_size, i32* %buffer) unnamed_addr #1 !dbg !1731 {
start:
  %0 = alloca i32*, align 8
  %count.dbg.spill.i24 = alloca i64, align 8
  %self.dbg.spill.i25 = alloca i32*, align 8
  %1 = alloca i32*, align 8
  %count.dbg.spill.i21 = alloca i64, align 8
  %self.dbg.spill.i22 = alloca i32*, align 8
  %2 = alloca i32*, align 8
  %count.dbg.spill.i18 = alloca i64, align 8
  %self.dbg.spill.i19 = alloca i32*, align 8
  %3 = alloca i32*, align 8
  %count.dbg.spill.i15 = alloca i64, align 8
  %self.dbg.spill.i16 = alloca i32*, align 8
  %4 = alloca i32*, align 8
  %count.dbg.spill.i12 = alloca i64, align 8
  %self.dbg.spill.i13 = alloca i32*, align 8
  %5 = alloca i32*, align 8
  %count.dbg.spill.i9 = alloca i64, align 8
  %self.dbg.spill.i10 = alloca i32*, align 8
  %6 = alloca i32*, align 8
  %count.dbg.spill.i = alloca i64, align 8
  %self.dbg.spill.i = alloca i32*, align 8
  %fresh4.dbg.spill = alloca i32, align 4
  %fresh3.dbg.spill = alloca i32, align 4
  %fresh2.dbg.spill = alloca i32, align 4
  %fresh1.dbg.spill = alloca i32, align 4
  %fresh0.dbg.spill = alloca i32, align 4
  %buffer.dbg.spill = alloca i32*, align 8
  %buffer_size.dbg.spill = alloca i32, align 4
  %i = alloca i32, align 4
  store i32 %buffer_size, i32* %buffer_size.dbg.spill, align 4
  call void @llvm.dbg.declare(metadata i32* %buffer_size.dbg.spill, metadata !1735, metadata !DIExpression()), !dbg !1749
  store i32* %buffer, i32** %buffer.dbg.spill, align 8
  call void @llvm.dbg.declare(metadata i32** %buffer.dbg.spill, metadata !1736, metadata !DIExpression()), !dbg !1750
  call void @llvm.dbg.declare(metadata i32* %i, metadata !1737, metadata !DIExpression()), !dbg !1751
  %_3 = icmp uge i32 %buffer_size, 70, !dbg !1752
  br i1 %_3, label %bb1, label %bb32, !dbg !1752

bb32:                                             ; preds = %bb27, %bb24, %start
  ret void, !dbg !1753

bb1:                                              ; preds = %start
  store i32 0, i32* %i, align 4, !dbg !1754
  br label %bb2, !dbg !1755

bb2:                                              ; preds = %bb5, %bb1
  %_9 = load i32, i32* %i, align 4, !dbg !1756
  %_8 = icmp sgt i32 %_9, 7, !dbg !1757
  %_7 = xor i1 %_8, true, !dbg !1758
  br i1 %_7, label %bb3, label %bb6, !dbg !1758

bb6:                                              ; preds = %bb8, %bb2
  %fresh1 = load i32, i32* %i, align 4, !dbg !1759
  store i32 %fresh1, i32* %fresh1.dbg.spill, align 4, !dbg !1759
  call void @llvm.dbg.declare(metadata i32* %fresh1.dbg.spill, metadata !1741, metadata !DIExpression()), !dbg !1760
  %_20 = load i32, i32* %i, align 4, !dbg !1761
  %7 = call { i32, i1 } @llvm.sadd.with.overflow.i32(i32 %_20, i32 1), !dbg !1761
  %_21.0 = extractvalue { i32, i1 } %7, 0, !dbg !1761
  %_21.1 = extractvalue { i32, i1 } %7, 1, !dbg !1761
  %8 = call i1 @llvm.expect.i1(i1 %_21.1, i1 false), !dbg !1761
  br i1 %8, label %panic1, label %bb7, !dbg !1761

bb3:                                              ; preds = %bb2
  %fresh0 = load i32, i32* %i, align 4, !dbg !1762
  store i32 %fresh0, i32* %fresh0.dbg.spill, align 4, !dbg !1762
  call void @llvm.dbg.declare(metadata i32* %fresh0.dbg.spill, metadata !1739, metadata !DIExpression()), !dbg !1763
  %_12 = load i32, i32* %i, align 4, !dbg !1764
  %9 = call { i32, i1 } @llvm.sadd.with.overflow.i32(i32 %_12, i32 1), !dbg !1764
  %_13.0 = extractvalue { i32, i1 } %9, 0, !dbg !1764
  %_13.1 = extractvalue { i32, i1 } %9, 1, !dbg !1764
  %10 = call i1 @llvm.expect.i1(i1 %_13.1, i1 false), !dbg !1764
  br i1 %10, label %panic, label %bb4, !dbg !1764

bb4:                                              ; preds = %bb3
  store i32 %_13.0, i32* %i, align 4, !dbg !1765
  %_17 = sext i32 %fresh0 to i64, !dbg !1766
  store i32* %buffer, i32** %self.dbg.spill.i25, align 8
  call void @llvm.dbg.declare(metadata i32** %self.dbg.spill.i25, metadata !1551, metadata !DIExpression()), !dbg !1767
  store i64 %_17, i64* %count.dbg.spill.i24, align 8
  call void @llvm.dbg.declare(metadata i64* %count.dbg.spill.i24, metadata !1554, metadata !DIExpression()), !dbg !1769
  %11 = getelementptr inbounds i32, i32* %buffer, i64 %_17, !dbg !1770
  store i32* %11, i32** %0, align 8, !dbg !1770
  %_3.i26 = load i32*, i32** %0, align 8, !dbg !1770
  br label %bb5, !dbg !1771

panic:                                            ; preds = %bb3
; call core::panicking::panic
  call void @_ZN4core9panicking5panic17hf5844c0338bd061cE([0 x i8]* align 1 bitcast ([28 x i8]* @str.5 to [0 x i8]*), i64 28, %"core::panic::location::Location"* align 8 bitcast (<{ i8*, [16 x i8] }>* @alloc316 to %"core::panic::location::Location"*)) #13, !dbg !1764
  unreachable, !dbg !1764

bb5:                                              ; preds = %bb4
  store i32 1, i32* %_3.i26, align 4, !dbg !1772
  br label %bb2, !dbg !1755

bb7:                                              ; preds = %bb6
  store i32 %_21.0, i32* %i, align 4, !dbg !1773
  %_25 = sext i32 %fresh1 to i64, !dbg !1774
  store i32* %buffer, i32** %self.dbg.spill.i22, align 8
  call void @llvm.dbg.declare(metadata i32** %self.dbg.spill.i22, metadata !1551, metadata !DIExpression()), !dbg !1775
  store i64 %_25, i64* %count.dbg.spill.i21, align 8
  call void @llvm.dbg.declare(metadata i64* %count.dbg.spill.i21, metadata !1554, metadata !DIExpression()), !dbg !1777
  %12 = getelementptr inbounds i32, i32* %buffer, i64 %_25, !dbg !1778
  store i32* %12, i32** %1, align 8, !dbg !1778
  %_3.i23 = load i32*, i32** %1, align 8, !dbg !1778
  br label %bb8, !dbg !1779

panic1:                                           ; preds = %bb6
; call core::panicking::panic
  call void @_ZN4core9panicking5panic17hf5844c0338bd061cE([0 x i8]* align 1 bitcast ([28 x i8]* @str.5 to [0 x i8]*), i64 28, %"core::panic::location::Location"* align 8 bitcast (<{ i8*, [16 x i8] }>* @alloc318 to %"core::panic::location::Location"*)) #13, !dbg !1761
  unreachable, !dbg !1761

bb8:                                              ; preds = %bb7
  store i32 2, i32* %_3.i23, align 4, !dbg !1780
  %_29 = load i32, i32* %i, align 4, !dbg !1781
  %_28 = icmp sle i32 %_29, 15, !dbg !1782
  %_27 = xor i1 %_28, true, !dbg !1783
  br i1 %_27, label %bb9, label %bb6, !dbg !1783

bb9:                                              ; preds = %bb11, %bb8
  %fresh2 = load i32, i32* %i, align 4, !dbg !1784
  store i32 %fresh2, i32* %fresh2.dbg.spill, align 4, !dbg !1784
  call void @llvm.dbg.declare(metadata i32* %fresh2.dbg.spill, metadata !1743, metadata !DIExpression()), !dbg !1785
  %_32 = load i32, i32* %i, align 4, !dbg !1786
  %13 = call { i32, i1 } @llvm.sadd.with.overflow.i32(i32 %_32, i32 1), !dbg !1786
  %_33.0 = extractvalue { i32, i1 } %13, 0, !dbg !1786
  %_33.1 = extractvalue { i32, i1 } %13, 1, !dbg !1786
  %14 = call i1 @llvm.expect.i1(i1 %_33.1, i1 false), !dbg !1786
  br i1 %14, label %panic2, label %bb10, !dbg !1786

bb10:                                             ; preds = %bb9
  store i32 %_33.0, i32* %i, align 4, !dbg !1787
  %_37 = sext i32 %fresh2 to i64, !dbg !1788
  store i32* %buffer, i32** %self.dbg.spill.i19, align 8
  call void @llvm.dbg.declare(metadata i32** %self.dbg.spill.i19, metadata !1551, metadata !DIExpression()), !dbg !1789
  store i64 %_37, i64* %count.dbg.spill.i18, align 8
  call void @llvm.dbg.declare(metadata i64* %count.dbg.spill.i18, metadata !1554, metadata !DIExpression()), !dbg !1791
  %15 = getelementptr inbounds i32, i32* %buffer, i64 %_37, !dbg !1792
  store i32* %15, i32** %2, align 8, !dbg !1792
  %_3.i20 = load i32*, i32** %2, align 8, !dbg !1792
  br label %bb11, !dbg !1793

panic2:                                           ; preds = %bb9
; call core::panicking::panic
  call void @_ZN4core9panicking5panic17hf5844c0338bd061cE([0 x i8]* align 1 bitcast ([28 x i8]* @str.5 to [0 x i8]*), i64 28, %"core::panic::location::Location"* align 8 bitcast (<{ i8*, [16 x i8] }>* @alloc320 to %"core::panic::location::Location"*)) #13, !dbg !1786
  unreachable, !dbg !1786

bb11:                                             ; preds = %bb10
  store i32 3, i32* %_3.i20, align 4, !dbg !1794
  %_40 = load i32, i32* %i, align 4, !dbg !1795
  %_39 = icmp sgt i32 %_40, 20, !dbg !1795
  br i1 %_39, label %bb12, label %bb9, !dbg !1795

bb12:                                             ; preds = %bb14, %bb11
  %fresh3 = load i32, i32* %i, align 4, !dbg !1796
  store i32 %fresh3, i32* %fresh3.dbg.spill, align 4, !dbg !1796
  call void @llvm.dbg.declare(metadata i32* %fresh3.dbg.spill, metadata !1745, metadata !DIExpression()), !dbg !1797
  %_43 = load i32, i32* %i, align 4, !dbg !1798
  %16 = call { i32, i1 } @llvm.sadd.with.overflow.i32(i32 %_43, i32 1), !dbg !1798
  %_44.0 = extractvalue { i32, i1 } %16, 0, !dbg !1798
  %_44.1 = extractvalue { i32, i1 } %16, 1, !dbg !1798
  %17 = call i1 @llvm.expect.i1(i1 %_44.1, i1 false), !dbg !1798
  br i1 %17, label %panic3, label %bb13, !dbg !1798

bb13:                                             ; preds = %bb12
  store i32 %_44.0, i32* %i, align 4, !dbg !1799
  %_48 = sext i32 %fresh3 to i64, !dbg !1800
  store i32* %buffer, i32** %self.dbg.spill.i16, align 8
  call void @llvm.dbg.declare(metadata i32** %self.dbg.spill.i16, metadata !1551, metadata !DIExpression()), !dbg !1801
  store i64 %_48, i64* %count.dbg.spill.i15, align 8
  call void @llvm.dbg.declare(metadata i64* %count.dbg.spill.i15, metadata !1554, metadata !DIExpression()), !dbg !1803
  %18 = getelementptr inbounds i32, i32* %buffer, i64 %_48, !dbg !1804
  store i32* %18, i32** %3, align 8, !dbg !1804
  %_3.i17 = load i32*, i32** %3, align 8, !dbg !1804
  br label %bb14, !dbg !1805

panic3:                                           ; preds = %bb12
; call core::panicking::panic
  call void @_ZN4core9panicking5panic17hf5844c0338bd061cE([0 x i8]* align 1 bitcast ([28 x i8]* @str.5 to [0 x i8]*), i64 28, %"core::panic::location::Location"* align 8 bitcast (<{ i8*, [16 x i8] }>* @alloc322 to %"core::panic::location::Location"*)) #13, !dbg !1798
  unreachable, !dbg !1798

bb14:                                             ; preds = %bb13
  store i32 4, i32* %_3.i17, align 4, !dbg !1806
  %_52 = load i32, i32* %i, align 4, !dbg !1807
  %_51 = icmp slt i32 %_52, 30, !dbg !1808
  %_50 = xor i1 %_51, true, !dbg !1809
  br i1 %_50, label %bb15, label %bb12, !dbg !1809

bb15:                                             ; preds = %bb14
  %fresh4 = load i32, i32* %i, align 4, !dbg !1810
  store i32 %fresh4, i32* %fresh4.dbg.spill, align 4, !dbg !1810
  call void @llvm.dbg.declare(metadata i32* %fresh4.dbg.spill, metadata !1747, metadata !DIExpression()), !dbg !1811
  %_55 = load i32, i32* %i, align 4, !dbg !1812
  %19 = call { i32, i1 } @llvm.sadd.with.overflow.i32(i32 %_55, i32 1), !dbg !1812
  %_56.0 = extractvalue { i32, i1 } %19, 0, !dbg !1812
  %_56.1 = extractvalue { i32, i1 } %19, 1, !dbg !1812
  %20 = call i1 @llvm.expect.i1(i1 %_56.1, i1 false), !dbg !1812
  br i1 %20, label %panic4, label %bb16, !dbg !1812

bb16:                                             ; preds = %bb15
  store i32 %_56.0, i32* %i, align 4, !dbg !1813
  %_60 = sext i32 %fresh4 to i64, !dbg !1814
  store i32* %buffer, i32** %self.dbg.spill.i13, align 8
  call void @llvm.dbg.declare(metadata i32** %self.dbg.spill.i13, metadata !1551, metadata !DIExpression()), !dbg !1815
  store i64 %_60, i64* %count.dbg.spill.i12, align 8
  call void @llvm.dbg.declare(metadata i64* %count.dbg.spill.i12, metadata !1554, metadata !DIExpression()), !dbg !1817
  %21 = getelementptr inbounds i32, i32* %buffer, i64 %_60, !dbg !1818
  store i32* %21, i32** %4, align 8, !dbg !1818
  %_3.i14 = load i32*, i32** %4, align 8, !dbg !1818
  br label %bb17, !dbg !1819

panic4:                                           ; preds = %bb15
; call core::panicking::panic
  call void @_ZN4core9panicking5panic17hf5844c0338bd061cE([0 x i8]* align 1 bitcast ([28 x i8]* @str.5 to [0 x i8]*), i64 28, %"core::panic::location::Location"* align 8 bitcast (<{ i8*, [16 x i8] }>* @alloc324 to %"core::panic::location::Location"*)) #13, !dbg !1812
  unreachable, !dbg !1812

bb17:                                             ; preds = %bb16
  store i32 5, i32* %_3.i14, align 4, !dbg !1820
  store i32 40, i32* %i, align 4, !dbg !1821
  br label %bb18, !dbg !1822

bb18:                                             ; preds = %bb22, %bb17
  %_63 = load i32, i32* %i, align 4, !dbg !1823
  %_62 = icmp slt i32 %_63, 50, !dbg !1823
  br i1 %_62, label %bb19, label %bb23, !dbg !1823

bb23:                                             ; preds = %bb18
  store i32 50, i32* %i, align 4, !dbg !1824
  br label %bb24, !dbg !1825

bb19:                                             ; preds = %bb18
  %22 = load i32, i32* %i, align 4, !dbg !1826
  %23 = call { i32, i1 } @llvm.sadd.with.overflow.i32(i32 %22, i32 1), !dbg !1826
  %_65.0 = extractvalue { i32, i1 } %23, 0, !dbg !1826
  %_65.1 = extractvalue { i32, i1 } %23, 1, !dbg !1826
  %24 = call i1 @llvm.expect.i1(i1 %_65.1, i1 false), !dbg !1826
  br i1 %24, label %panic5, label %bb20, !dbg !1826

bb20:                                             ; preds = %bb19
  store i32 %_65.0, i32* %i, align 4, !dbg !1826
  %_70 = load i32, i32* %i, align 4, !dbg !1827
  %_69 = sext i32 %_70 to i64, !dbg !1827
  store i32* %buffer, i32** %self.dbg.spill.i10, align 8
  call void @llvm.dbg.declare(metadata i32** %self.dbg.spill.i10, metadata !1551, metadata !DIExpression()), !dbg !1828
  store i64 %_69, i64* %count.dbg.spill.i9, align 8
  call void @llvm.dbg.declare(metadata i64* %count.dbg.spill.i9, metadata !1554, metadata !DIExpression()), !dbg !1830
  %25 = getelementptr inbounds i32, i32* %buffer, i64 %_69, !dbg !1831
  store i32* %25, i32** %5, align 8, !dbg !1831
  %_3.i11 = load i32*, i32** %5, align 8, !dbg !1831
  br label %bb21, !dbg !1832

panic5:                                           ; preds = %bb19
; call core::panicking::panic
  call void @_ZN4core9panicking5panic17hf5844c0338bd061cE([0 x i8]* align 1 bitcast ([28 x i8]* @str.5 to [0 x i8]*), i64 28, %"core::panic::location::Location"* align 8 bitcast (<{ i8*, [16 x i8] }>* @alloc326 to %"core::panic::location::Location"*)) #13, !dbg !1826
  unreachable, !dbg !1826

bb21:                                             ; preds = %bb20
  store i32 6, i32* %_3.i11, align 4, !dbg !1833
  %26 = load i32, i32* %i, align 4, !dbg !1834
  %27 = call { i32, i1 } @llvm.sadd.with.overflow.i32(i32 %26, i32 1), !dbg !1834
  %_71.0 = extractvalue { i32, i1 } %27, 0, !dbg !1834
  %_71.1 = extractvalue { i32, i1 } %27, 1, !dbg !1834
  %28 = call i1 @llvm.expect.i1(i1 %_71.1, i1 false), !dbg !1834
  br i1 %28, label %panic6, label %bb22, !dbg !1834

bb22:                                             ; preds = %bb21
  store i32 %_71.0, i32* %i, align 4, !dbg !1834
  br label %bb18, !dbg !1822

panic6:                                           ; preds = %bb21
; call core::panicking::panic
  call void @_ZN4core9panicking5panic17hf5844c0338bd061cE([0 x i8]* align 1 bitcast ([28 x i8]* @str.5 to [0 x i8]*), i64 28, %"core::panic::location::Location"* align 8 bitcast (<{ i8*, [16 x i8] }>* @alloc328 to %"core::panic::location::Location"*)) #13, !dbg !1834
  unreachable, !dbg !1834

bb24:                                             ; preds = %bb31, %bb23
  %_73 = load i32, i32* %i, align 4, !dbg !1835
  %_72 = icmp slt i32 %_73, 70, !dbg !1835
  br i1 %_72, label %bb25, label %bb32, !dbg !1835

bb25:                                             ; preds = %bb24
  %29 = load i32, i32* %i, align 4, !dbg !1836
  %30 = call { i32, i1 } @llvm.sadd.with.overflow.i32(i32 %29, i32 1), !dbg !1836
  %_75.0 = extractvalue { i32, i1 } %30, 0, !dbg !1836
  %_75.1 = extractvalue { i32, i1 } %30, 1, !dbg !1836
  %31 = call i1 @llvm.expect.i1(i1 %_75.1, i1 false), !dbg !1836
  br i1 %31, label %panic7, label %bb26, !dbg !1836

bb26:                                             ; preds = %bb25
  store i32 %_75.0, i32* %i, align 4, !dbg !1836
  %_78 = load i32, i32* %i, align 4, !dbg !1837
  %_77 = icmp slt i32 %_78, 55, !dbg !1838
  %_76 = xor i1 %_77, true, !dbg !1839
  br i1 %_76, label %bb27, label %bb30, !dbg !1839

panic7:                                           ; preds = %bb25
; call core::panicking::panic
  call void @_ZN4core9panicking5panic17hf5844c0338bd061cE([0 x i8]* align 1 bitcast ([28 x i8]* @str.5 to [0 x i8]*), i64 28, %"core::panic::location::Location"* align 8 bitcast (<{ i8*, [16 x i8] }>* @alloc330 to %"core::panic::location::Location"*)) #13, !dbg !1836
  unreachable, !dbg !1836

bb30:                                             ; preds = %bb29, %bb26
  %32 = load i32, i32* %i, align 4, !dbg !1840
  %33 = call { i32, i1 } @llvm.sadd.with.overflow.i32(i32 %32, i32 1), !dbg !1840
  %_88.0 = extractvalue { i32, i1 } %33, 0, !dbg !1840
  %_88.1 = extractvalue { i32, i1 } %33, 1, !dbg !1840
  %34 = call i1 @llvm.expect.i1(i1 %_88.1, i1 false), !dbg !1840
  br i1 %34, label %panic8, label %bb31, !dbg !1840

bb27:                                             ; preds = %bb26
  %_81 = load i32, i32* %i, align 4, !dbg !1841
  %_80 = icmp sgt i32 %_81, 65, !dbg !1841
  br i1 %_80, label %bb32, label %bb28, !dbg !1841

bb28:                                             ; preds = %bb27
  %_87 = load i32, i32* %i, align 4, !dbg !1842
  %_86 = sext i32 %_87 to i64, !dbg !1842
  store i32* %buffer, i32** %self.dbg.spill.i, align 8
  call void @llvm.dbg.declare(metadata i32** %self.dbg.spill.i, metadata !1551, metadata !DIExpression()), !dbg !1843
  store i64 %_86, i64* %count.dbg.spill.i, align 8
  call void @llvm.dbg.declare(metadata i64* %count.dbg.spill.i, metadata !1554, metadata !DIExpression()), !dbg !1845
  %35 = getelementptr inbounds i32, i32* %buffer, i64 %_86, !dbg !1846
  store i32* %35, i32** %6, align 8, !dbg !1846
  %_3.i = load i32*, i32** %6, align 8, !dbg !1846
  br label %bb29, !dbg !1847

bb29:                                             ; preds = %bb28
  store i32 7, i32* %_3.i, align 4, !dbg !1848
  br label %bb30, !dbg !1849

bb31:                                             ; preds = %bb30
  store i32 %_88.0, i32* %i, align 4, !dbg !1840
  br label %bb24, !dbg !1825

panic8:                                           ; preds = %bb30
; call core::panicking::panic
  call void @_ZN4core9panicking5panic17hf5844c0338bd061cE([0 x i8]* align 1 bitcast ([28 x i8]* @str.5 to [0 x i8]*), i64 28, %"core::panic::location::Location"* align 8 bitcast (<{ i8*, [16 x i8] }>* @alloc332 to %"core::panic::location::Location"*)) #13, !dbg !1840
  unreachable, !dbg !1840
}

; loops_tests::test_switch::test_switch::{{closure}}
; Function Attrs: inlinehint nonlazybind uwtable
define internal void @"_ZN11loops_tests11test_switch11test_switch28_$u7b$$u7b$closure$u7d$$u7d$17h254a4b29e4126a92E"(%"[closure@src/test_switch.rs:10:1: 28:2]"* align 1 %_1) unnamed_addr #2 !dbg !1850 {
start:
  %_1.dbg.spill = alloca %"[closure@src/test_switch.rs:10:1: 28:2]"*, align 8
  store %"[closure@src/test_switch.rs:10:1: 28:2]"* %_1, %"[closure@src/test_switch.rs:10:1: 28:2]"** %_1.dbg.spill, align 8
  call void @llvm.dbg.declare(metadata %"[closure@src/test_switch.rs:10:1: 28:2]"** %_1.dbg.spill, metadata !1856, metadata !DIExpression()), !dbg !1857
  call void @test_switch(), !dbg !1857
  br label %bb1, !dbg !1857

bb1:                                              ; preds = %start
; call test::assert_test_result
  call void @_ZN4test18assert_test_result17h09bcc020f41652d1E(), !dbg !1857
  br label %bb2, !dbg !1857

bb2:                                              ; preds = %bb1
  ret void, !dbg !1858
}

; Function Attrs: nonlazybind uwtable
define dso_local void @test_switch() unnamed_addr #1 !dbg !1859 {
start:
  %right_val.dbg.spill29 = alloca i32*, align 8
  %left_val.dbg.spill27 = alloca i32*, align 8
  %right_val.dbg.spill25 = alloca i32*, align 8
  %left_val.dbg.spill23 = alloca i32*, align 8
  %right_val.dbg.spill21 = alloca i32*, align 8
  %left_val.dbg.spill19 = alloca i32*, align 8
  %right_val.dbg.spill17 = alloca i32*, align 8
  %left_val.dbg.spill15 = alloca i32*, align 8
  %right_val.dbg.spill13 = alloca i32*, align 8
  %left_val.dbg.spill11 = alloca i32*, align 8
  %right_val.dbg.spill = alloca i32*, align 8
  %left_val.dbg.spill = alloca i32*, align 8
  %_108 = alloca %"core::option::Option<core::fmt::Arguments>", align 8
  %kind9 = alloca i8, align 1
  %_92 = alloca { i32*, i32* }, align 8
  %_91 = alloca %"core::option::Option<core::fmt::Arguments>", align 8
  %kind8 = alloca i8, align 1
  %_75 = alloca { i32*, i32* }, align 8
  %rust_val7 = alloca i32, align 4
  %val6 = alloca i32, align 4
  %_72 = alloca %"core::option::Option<core::fmt::Arguments>", align 8
  %kind5 = alloca i8, align 1
  %_56 = alloca { i32*, i32* }, align 8
  %_55 = alloca %"core::option::Option<core::fmt::Arguments>", align 8
  %kind4 = alloca i8, align 1
  %_39 = alloca { i32*, i32* }, align 8
  %rust_val3 = alloca i32, align 4
  %val2 = alloca i32, align 4
  %_36 = alloca %"core::option::Option<core::fmt::Arguments>", align 8
  %kind1 = alloca i8, align 1
  %_20 = alloca { i32*, i32* }, align 8
  %_19 = alloca %"core::option::Option<core::fmt::Arguments>", align 8
  %kind = alloca i8, align 1
  %_3 = alloca { i32*, i32* }, align 8
  %rust_val = alloca i32, align 4
  %val = alloca i32, align 4
  call void @llvm.dbg.declare(metadata i32* %val, metadata !1861, metadata !DIExpression()), !dbg !1915
  call void @llvm.dbg.declare(metadata i32* %rust_val, metadata !1863, metadata !DIExpression()), !dbg !1916
  call void @llvm.dbg.declare(metadata i8* %kind, metadata !1869, metadata !DIExpression()), !dbg !1917
  call void @llvm.dbg.declare(metadata i8* %kind1, metadata !1876, metadata !DIExpression()), !dbg !1918
  call void @llvm.dbg.declare(metadata i32* %val2, metadata !1879, metadata !DIExpression()), !dbg !1919
  call void @llvm.dbg.declare(metadata i32* %rust_val3, metadata !1881, metadata !DIExpression()), !dbg !1920
  call void @llvm.dbg.declare(metadata i8* %kind4, metadata !1887, metadata !DIExpression()), !dbg !1921
  call void @llvm.dbg.declare(metadata i8* %kind5, metadata !1894, metadata !DIExpression()), !dbg !1922
  call void @llvm.dbg.declare(metadata i32* %val6, metadata !1897, metadata !DIExpression()), !dbg !1923
  call void @llvm.dbg.declare(metadata i32* %rust_val7, metadata !1899, metadata !DIExpression()), !dbg !1924
  call void @llvm.dbg.declare(metadata i8* %kind8, metadata !1905, metadata !DIExpression()), !dbg !1925
  call void @llvm.dbg.declare(metadata i8* %kind9, metadata !1912, metadata !DIExpression()), !dbg !1926
  %0 = call i32 @switch_val(i32 1), !dbg !1927
  store i32 %0, i32* %val, align 4, !dbg !1927
  br label %bb1, !dbg !1927

bb1:                                              ; preds = %start
  %1 = call i32 @rust_switch_val(i32 1), !dbg !1928
  store i32 %1, i32* %rust_val, align 4, !dbg !1928
  br label %bb2, !dbg !1928

bb2:                                              ; preds = %bb1
  %2 = bitcast { i32*, i32* }* %_3 to i32**, !dbg !1929
  store i32* %val, i32** %2, align 8, !dbg !1929
  %3 = getelementptr inbounds { i32*, i32* }, { i32*, i32* }* %_3, i32 0, i32 1, !dbg !1929
  store i32* %rust_val, i32** %3, align 8, !dbg !1929
  %4 = bitcast { i32*, i32* }* %_3 to i32**, !dbg !1929
  %left_val = load i32*, i32** %4, align 8, !dbg !1929, !nonnull !23, !align !256, !noundef !23
  store i32* %left_val, i32** %left_val.dbg.spill, align 8, !dbg !1929
  call void @llvm.dbg.declare(metadata i32** %left_val.dbg.spill, metadata !1865, metadata !DIExpression()), !dbg !1930
  %5 = getelementptr inbounds { i32*, i32* }, { i32*, i32* }* %_3, i32 0, i32 1, !dbg !1929
  %right_val = load i32*, i32** %5, align 8, !dbg !1929, !nonnull !23, !align !256, !noundef !23
  store i32* %right_val, i32** %right_val.dbg.spill, align 8, !dbg !1929
  call void @llvm.dbg.declare(metadata i32** %right_val.dbg.spill, metadata !1868, metadata !DIExpression()), !dbg !1930
  %_10 = load i32, i32* %left_val, align 4, !dbg !1930
  %_11 = load i32, i32* %right_val, align 4, !dbg !1930
  %_9 = icmp eq i32 %_10, %_11, !dbg !1930
  %_8 = xor i1 %_9, true, !dbg !1930
  br i1 %_8, label %bb3, label %bb4, !dbg !1930

bb4:                                              ; preds = %bb2
  %6 = bitcast { i32*, i32* }* %_20 to i32**, !dbg !1931
  store i32* %val, i32** %6, align 8, !dbg !1931
  %7 = getelementptr inbounds { i32*, i32* }, { i32*, i32* }* %_20, i32 0, i32 1, !dbg !1931
  store i32* bitcast (<{ [4 x i8] }>* @alloc73 to i32*), i32** %7, align 8, !dbg !1931
  %8 = bitcast { i32*, i32* }* %_20 to i32**, !dbg !1931
  %left_val10 = load i32*, i32** %8, align 8, !dbg !1931, !nonnull !23, !align !256, !noundef !23
  store i32* %left_val10, i32** %left_val.dbg.spill11, align 8, !dbg !1931
  call void @llvm.dbg.declare(metadata i32** %left_val.dbg.spill11, metadata !1872, metadata !DIExpression()), !dbg !1932
  %9 = getelementptr inbounds { i32*, i32* }, { i32*, i32* }* %_20, i32 0, i32 1, !dbg !1931
  %right_val12 = load i32*, i32** %9, align 8, !dbg !1931, !nonnull !23, !align !256, !noundef !23
  store i32* %right_val12, i32** %right_val.dbg.spill13, align 8, !dbg !1931
  call void @llvm.dbg.declare(metadata i32** %right_val.dbg.spill13, metadata !1875, metadata !DIExpression()), !dbg !1932
  %_27 = load i32, i32* %left_val10, align 4, !dbg !1932
  %_26 = icmp eq i32 %_27, 2, !dbg !1932
  %_25 = xor i1 %_26, true, !dbg !1932
  br i1 %_25, label %bb5, label %bb6, !dbg !1932

bb3:                                              ; preds = %bb2
  store i8 0, i8* %kind, align 1, !dbg !1930
  %10 = bitcast %"core::option::Option<core::fmt::Arguments>"* %_19 to {}**, !dbg !1917
  store {}* null, {}** %10, align 8, !dbg !1917
; call core::panicking::assert_failed
  call void @_ZN4core9panicking13assert_failed17hc3a026aaa1307e63E(i8 0, i32* align 4 %left_val, i32* align 4 %right_val, %"core::option::Option<core::fmt::Arguments>"* %_19, %"core::panic::location::Location"* align 8 bitcast (<{ i8*, [16 x i8] }>* @alloc334 to %"core::panic::location::Location"*)) #13, !dbg !1917
  unreachable, !dbg !1917

bb6:                                              ; preds = %bb4
  %11 = call i32 @switch_val(i32 2), !dbg !1933
  store i32 %11, i32* %val2, align 4, !dbg !1933
  br label %bb7, !dbg !1933

bb5:                                              ; preds = %bb4
  store i8 0, i8* %kind1, align 1, !dbg !1932
  %12 = bitcast %"core::option::Option<core::fmt::Arguments>"* %_36 to {}**, !dbg !1918
  store {}* null, {}** %12, align 8, !dbg !1918
; call core::panicking::assert_failed
  call void @_ZN4core9panicking13assert_failed17hc3a026aaa1307e63E(i8 0, i32* align 4 %left_val10, i32* align 4 %right_val12, %"core::option::Option<core::fmt::Arguments>"* %_36, %"core::panic::location::Location"* align 8 bitcast (<{ i8*, [16 x i8] }>* @alloc336 to %"core::panic::location::Location"*)) #13, !dbg !1918
  unreachable, !dbg !1918

bb7:                                              ; preds = %bb6
  %13 = call i32 @rust_switch_val(i32 2), !dbg !1934
  store i32 %13, i32* %rust_val3, align 4, !dbg !1934
  br label %bb8, !dbg !1934

bb8:                                              ; preds = %bb7
  %14 = bitcast { i32*, i32* }* %_39 to i32**, !dbg !1935
  store i32* %val2, i32** %14, align 8, !dbg !1935
  %15 = getelementptr inbounds { i32*, i32* }, { i32*, i32* }* %_39, i32 0, i32 1, !dbg !1935
  store i32* %rust_val3, i32** %15, align 8, !dbg !1935
  %16 = bitcast { i32*, i32* }* %_39 to i32**, !dbg !1935
  %left_val14 = load i32*, i32** %16, align 8, !dbg !1935, !nonnull !23, !align !256, !noundef !23
  store i32* %left_val14, i32** %left_val.dbg.spill15, align 8, !dbg !1935
  call void @llvm.dbg.declare(metadata i32** %left_val.dbg.spill15, metadata !1883, metadata !DIExpression()), !dbg !1936
  %17 = getelementptr inbounds { i32*, i32* }, { i32*, i32* }* %_39, i32 0, i32 1, !dbg !1935
  %right_val16 = load i32*, i32** %17, align 8, !dbg !1935, !nonnull !23, !align !256, !noundef !23
  store i32* %right_val16, i32** %right_val.dbg.spill17, align 8, !dbg !1935
  call void @llvm.dbg.declare(metadata i32** %right_val.dbg.spill17, metadata !1886, metadata !DIExpression()), !dbg !1936
  %_46 = load i32, i32* %left_val14, align 4, !dbg !1936
  %_47 = load i32, i32* %right_val16, align 4, !dbg !1936
  %_45 = icmp eq i32 %_46, %_47, !dbg !1936
  %_44 = xor i1 %_45, true, !dbg !1936
  br i1 %_44, label %bb9, label %bb10, !dbg !1936

bb10:                                             ; preds = %bb8
  %18 = bitcast { i32*, i32* }* %_56 to i32**, !dbg !1937
  store i32* %val2, i32** %18, align 8, !dbg !1937
  %19 = getelementptr inbounds { i32*, i32* }, { i32*, i32* }* %_56, i32 0, i32 1, !dbg !1937
  store i32* bitcast (<{ [4 x i8] }>* @alloc83 to i32*), i32** %19, align 8, !dbg !1937
  %20 = bitcast { i32*, i32* }* %_56 to i32**, !dbg !1937
  %left_val18 = load i32*, i32** %20, align 8, !dbg !1937, !nonnull !23, !align !256, !noundef !23
  store i32* %left_val18, i32** %left_val.dbg.spill19, align 8, !dbg !1937
  call void @llvm.dbg.declare(metadata i32** %left_val.dbg.spill19, metadata !1890, metadata !DIExpression()), !dbg !1938
  %21 = getelementptr inbounds { i32*, i32* }, { i32*, i32* }* %_56, i32 0, i32 1, !dbg !1937
  %right_val20 = load i32*, i32** %21, align 8, !dbg !1937, !nonnull !23, !align !256, !noundef !23
  store i32* %right_val20, i32** %right_val.dbg.spill21, align 8, !dbg !1937
  call void @llvm.dbg.declare(metadata i32** %right_val.dbg.spill21, metadata !1893, metadata !DIExpression()), !dbg !1938
  %_63 = load i32, i32* %left_val18, align 4, !dbg !1938
  %_62 = icmp eq i32 %_63, 4, !dbg !1938
  %_61 = xor i1 %_62, true, !dbg !1938
  br i1 %_61, label %bb11, label %bb12, !dbg !1938

bb9:                                              ; preds = %bb8
  store i8 0, i8* %kind4, align 1, !dbg !1936
  %22 = bitcast %"core::option::Option<core::fmt::Arguments>"* %_55 to {}**, !dbg !1921
  store {}* null, {}** %22, align 8, !dbg !1921
; call core::panicking::assert_failed
  call void @_ZN4core9panicking13assert_failed17hc3a026aaa1307e63E(i8 0, i32* align 4 %left_val14, i32* align 4 %right_val16, %"core::option::Option<core::fmt::Arguments>"* %_55, %"core::panic::location::Location"* align 8 bitcast (<{ i8*, [16 x i8] }>* @alloc338 to %"core::panic::location::Location"*)) #13, !dbg !1921
  unreachable, !dbg !1921

bb12:                                             ; preds = %bb10
  %23 = call i32 @switch_val(i32 10), !dbg !1939
  store i32 %23, i32* %val6, align 4, !dbg !1939
  br label %bb13, !dbg !1939

bb11:                                             ; preds = %bb10
  store i8 0, i8* %kind5, align 1, !dbg !1938
  %24 = bitcast %"core::option::Option<core::fmt::Arguments>"* %_72 to {}**, !dbg !1922
  store {}* null, {}** %24, align 8, !dbg !1922
; call core::panicking::assert_failed
  call void @_ZN4core9panicking13assert_failed17hc3a026aaa1307e63E(i8 0, i32* align 4 %left_val18, i32* align 4 %right_val20, %"core::option::Option<core::fmt::Arguments>"* %_72, %"core::panic::location::Location"* align 8 bitcast (<{ i8*, [16 x i8] }>* @alloc340 to %"core::panic::location::Location"*)) #13, !dbg !1922
  unreachable, !dbg !1922

bb13:                                             ; preds = %bb12
  %25 = call i32 @rust_switch_val(i32 10), !dbg !1940
  store i32 %25, i32* %rust_val7, align 4, !dbg !1940
  br label %bb14, !dbg !1940

bb14:                                             ; preds = %bb13
  %26 = bitcast { i32*, i32* }* %_75 to i32**, !dbg !1941
  store i32* %val6, i32** %26, align 8, !dbg !1941
  %27 = getelementptr inbounds { i32*, i32* }, { i32*, i32* }* %_75, i32 0, i32 1, !dbg !1941
  store i32* %rust_val7, i32** %27, align 8, !dbg !1941
  %28 = bitcast { i32*, i32* }* %_75 to i32**, !dbg !1941
  %left_val22 = load i32*, i32** %28, align 8, !dbg !1941, !nonnull !23, !align !256, !noundef !23
  store i32* %left_val22, i32** %left_val.dbg.spill23, align 8, !dbg !1941
  call void @llvm.dbg.declare(metadata i32** %left_val.dbg.spill23, metadata !1901, metadata !DIExpression()), !dbg !1942
  %29 = getelementptr inbounds { i32*, i32* }, { i32*, i32* }* %_75, i32 0, i32 1, !dbg !1941
  %right_val24 = load i32*, i32** %29, align 8, !dbg !1941, !nonnull !23, !align !256, !noundef !23
  store i32* %right_val24, i32** %right_val.dbg.spill25, align 8, !dbg !1941
  call void @llvm.dbg.declare(metadata i32** %right_val.dbg.spill25, metadata !1904, metadata !DIExpression()), !dbg !1942
  %_82 = load i32, i32* %left_val22, align 4, !dbg !1942
  %_83 = load i32, i32* %right_val24, align 4, !dbg !1942
  %_81 = icmp eq i32 %_82, %_83, !dbg !1942
  %_80 = xor i1 %_81, true, !dbg !1942
  br i1 %_80, label %bb15, label %bb16, !dbg !1942

bb16:                                             ; preds = %bb14
  %30 = bitcast { i32*, i32* }* %_92 to i32**, !dbg !1943
  store i32* %val6, i32** %30, align 8, !dbg !1943
  %31 = getelementptr inbounds { i32*, i32* }, { i32*, i32* }* %_92, i32 0, i32 1, !dbg !1943
  store i32* bitcast (<{ [4 x i8] }>* @alloc93 to i32*), i32** %31, align 8, !dbg !1943
  %32 = bitcast { i32*, i32* }* %_92 to i32**, !dbg !1943
  %left_val26 = load i32*, i32** %32, align 8, !dbg !1943, !nonnull !23, !align !256, !noundef !23
  store i32* %left_val26, i32** %left_val.dbg.spill27, align 8, !dbg !1943
  call void @llvm.dbg.declare(metadata i32** %left_val.dbg.spill27, metadata !1908, metadata !DIExpression()), !dbg !1944
  %33 = getelementptr inbounds { i32*, i32* }, { i32*, i32* }* %_92, i32 0, i32 1, !dbg !1943
  %right_val28 = load i32*, i32** %33, align 8, !dbg !1943, !nonnull !23, !align !256, !noundef !23
  store i32* %right_val28, i32** %right_val.dbg.spill29, align 8, !dbg !1943
  call void @llvm.dbg.declare(metadata i32** %right_val.dbg.spill29, metadata !1911, metadata !DIExpression()), !dbg !1944
  %_99 = load i32, i32* %left_val26, align 4, !dbg !1944
  %_98 = icmp eq i32 %_99, 11, !dbg !1944
  %_97 = xor i1 %_98, true, !dbg !1944
  br i1 %_97, label %bb17, label %bb18, !dbg !1944

bb15:                                             ; preds = %bb14
  store i8 0, i8* %kind8, align 1, !dbg !1942
  %34 = bitcast %"core::option::Option<core::fmt::Arguments>"* %_91 to {}**, !dbg !1925
  store {}* null, {}** %34, align 8, !dbg !1925
; call core::panicking::assert_failed
  call void @_ZN4core9panicking13assert_failed17hc3a026aaa1307e63E(i8 0, i32* align 4 %left_val22, i32* align 4 %right_val24, %"core::option::Option<core::fmt::Arguments>"* %_91, %"core::panic::location::Location"* align 8 bitcast (<{ i8*, [16 x i8] }>* @alloc342 to %"core::panic::location::Location"*)) #13, !dbg !1925
  unreachable, !dbg !1925

bb18:                                             ; preds = %bb16
  ret void, !dbg !1945

bb17:                                             ; preds = %bb16
  store i8 0, i8* %kind9, align 1, !dbg !1944
  %35 = bitcast %"core::option::Option<core::fmt::Arguments>"* %_108 to {}**, !dbg !1926
  store {}* null, {}** %35, align 8, !dbg !1926
; call core::panicking::assert_failed
  call void @_ZN4core9panicking13assert_failed17hc3a026aaa1307e63E(i8 0, i32* align 4 %left_val26, i32* align 4 %right_val28, %"core::option::Option<core::fmt::Arguments>"* %_108, %"core::panic::location::Location"* align 8 bitcast (<{ i8*, [16 x i8] }>* @alloc344 to %"core::panic::location::Location"*)) #13, !dbg !1926
  unreachable, !dbg !1926
}

; loops_tests::test_goto::test_goto_linear::{{closure}}
; Function Attrs: inlinehint nonlazybind uwtable
define internal void @"_ZN11loops_tests9test_goto16test_goto_linear28_$u7b$$u7b$closure$u7d$$u7d$17hdcb261f741fc23c7E"(%"[closure@src/test_goto.rs:21:1: 32:2]"* align 1 %_1) unnamed_addr #2 !dbg !1946 {
start:
  %_1.dbg.spill = alloca %"[closure@src/test_goto.rs:21:1: 32:2]"*, align 8
  store %"[closure@src/test_goto.rs:21:1: 32:2]"* %_1, %"[closure@src/test_goto.rs:21:1: 32:2]"** %_1.dbg.spill, align 8
  call void @llvm.dbg.declare(metadata %"[closure@src/test_goto.rs:21:1: 32:2]"** %_1.dbg.spill, metadata !1952, metadata !DIExpression()), !dbg !1953
  call void @test_goto_linear(), !dbg !1953
  br label %bb1, !dbg !1953

bb1:                                              ; preds = %start
; call test::assert_test_result
  call void @_ZN4test18assert_test_result17h09bcc020f41652d1E(), !dbg !1953
  br label %bb2, !dbg !1953

bb2:                                              ; preds = %bb1
  ret void, !dbg !1954
}

; Function Attrs: nonlazybind uwtable
define dso_local void @test_goto_linear() unnamed_addr #1 !dbg !1955 {
start:
  %right_val.dbg.spill5 = alloca [4 x i32]*, align 8
  %left_val.dbg.spill3 = alloca [4 x i32]*, align 8
  %right_val.dbg.spill = alloca [4 x i32]*, align 8
  %left_val.dbg.spill = alloca [4 x i32]*, align 8
  %_47 = alloca %"core::option::Option<core::fmt::Arguments>", align 8
  %kind1 = alloca i8, align 1
  %_31 = alloca { i32*, i32* }, align 8
  %_30 = alloca %"core::option::Option<core::fmt::Arguments>", align 8
  %kind = alloca i8, align 1
  %_14 = alloca { i32*, i32* }, align 8
  %expected_buffer = alloca [4 x i32], align 4
  %rust_buffer = alloca [4 x i32], align 4
  %buffer = alloca [4 x i32], align 4
  call void @llvm.dbg.declare(metadata [4 x i32]* %buffer, metadata !1957, metadata !DIExpression()), !dbg !1977
  call void @llvm.dbg.declare(metadata [4 x i32]* %rust_buffer, metadata !1959, metadata !DIExpression()), !dbg !1978
  call void @llvm.dbg.declare(metadata [4 x i32]* %expected_buffer, metadata !1961, metadata !DIExpression()), !dbg !1979
  call void @llvm.dbg.declare(metadata i8* %kind, metadata !1967, metadata !DIExpression()), !dbg !1980
  call void @llvm.dbg.declare(metadata i8* %kind1, metadata !1974, metadata !DIExpression()), !dbg !1981
  %0 = getelementptr inbounds [4 x i32], [4 x i32]* %buffer, i64 0, i64 0, !dbg !1982
  %1 = bitcast i32* %0 to i8*, !dbg !1982
  call void @llvm.memset.p0i8.i64(i8* align 4 %1, i8 0, i64 16, i1 false), !dbg !1982
  %2 = getelementptr inbounds [4 x i32], [4 x i32]* %rust_buffer, i64 0, i64 0, !dbg !1983
  %3 = bitcast i32* %2 to i8*, !dbg !1983
  call void @llvm.memset.p0i8.i64(i8* align 4 %3, i8 0, i64 16, i1 false), !dbg !1983
  %4 = getelementptr inbounds [4 x i32], [4 x i32]* %expected_buffer, i64 0, i64 0, !dbg !1984
  store i32 0, i32* %4, align 4, !dbg !1984
  %5 = getelementptr inbounds [4 x i32], [4 x i32]* %expected_buffer, i64 0, i64 1, !dbg !1984
  store i32 1, i32* %5, align 4, !dbg !1984
  %6 = getelementptr inbounds [4 x i32], [4 x i32]* %expected_buffer, i64 0, i64 2, !dbg !1984
  store i32 3, i32* %6, align 4, !dbg !1984
  %7 = getelementptr inbounds [4 x i32], [4 x i32]* %expected_buffer, i64 0, i64 3, !dbg !1984
  store i32 2, i32* %7, align 4, !dbg !1984
  %_7.0 = bitcast [4 x i32]* %buffer to [0 x i32]*, !dbg !1985
; call core::slice::<impl [T]>::as_mut_ptr
  %_6 = call i32* @"_ZN4core5slice29_$LT$impl$u20$$u5b$T$u5d$$GT$10as_mut_ptr17h968bfe739dc0ec04E"([0 x i32]* align 4 %_7.0, i64 4), !dbg !1985
  br label %bb1, !dbg !1985

bb1:                                              ; preds = %start
  call void @goto_linear(i32 4, i32* %_6), !dbg !1986
  br label %bb2, !dbg !1986

bb2:                                              ; preds = %bb1
  %_12.0 = bitcast [4 x i32]* %rust_buffer to [0 x i32]*, !dbg !1987
; call core::slice::<impl [T]>::as_mut_ptr
  %_11 = call i32* @"_ZN4core5slice29_$LT$impl$u20$$u5b$T$u5d$$GT$10as_mut_ptr17h968bfe739dc0ec04E"([0 x i32]* align 4 %_12.0, i64 4), !dbg !1987
  br label %bb3, !dbg !1987

bb3:                                              ; preds = %bb2
  call void @rust_goto_linear(i32 4, i32* %_11), !dbg !1988
  br label %bb4, !dbg !1988

bb4:                                              ; preds = %bb3
  %8 = bitcast { i32*, i32* }* %_14 to [4 x i32]**, !dbg !1989
  store [4 x i32]* %buffer, [4 x i32]** %8, align 8, !dbg !1989
  %9 = getelementptr inbounds { i32*, i32* }, { i32*, i32* }* %_14, i32 0, i32 1, !dbg !1989
  %10 = bitcast i32** %9 to [4 x i32]**, !dbg !1989
  store [4 x i32]* %rust_buffer, [4 x i32]** %10, align 8, !dbg !1989
  %11 = bitcast { i32*, i32* }* %_14 to [4 x i32]**, !dbg !1989
  %left_val = load [4 x i32]*, [4 x i32]** %11, align 8, !dbg !1989, !nonnull !23, !align !256, !noundef !23
  store [4 x i32]* %left_val, [4 x i32]** %left_val.dbg.spill, align 8, !dbg !1989
  call void @llvm.dbg.declare(metadata [4 x i32]** %left_val.dbg.spill, metadata !1963, metadata !DIExpression()), !dbg !1990
  %12 = getelementptr inbounds { i32*, i32* }, { i32*, i32* }* %_14, i32 0, i32 1, !dbg !1989
  %13 = bitcast i32** %12 to [4 x i32]**, !dbg !1989
  %right_val = load [4 x i32]*, [4 x i32]** %13, align 8, !dbg !1989, !nonnull !23, !align !256, !noundef !23
  store [4 x i32]* %right_val, [4 x i32]** %right_val.dbg.spill, align 8, !dbg !1989
  call void @llvm.dbg.declare(metadata [4 x i32]** %right_val.dbg.spill, metadata !1966, metadata !DIExpression()), !dbg !1990
; call core::array::equality::<impl core::cmp::PartialEq<[B; N]> for [A; N]>::eq
  %_20 = call zeroext i1 @"_ZN4core5array8equality103_$LT$impl$u20$core..cmp..PartialEq$LT$$u5b$B$u3b$$u20$N$u5d$$GT$$u20$for$u20$$u5b$A$u3b$$u20$N$u5d$$GT$2eq17h0b7a421f400c5646E"([4 x i32]* align 4 %left_val, [4 x i32]* align 4 %right_val), !dbg !1990
  br label %bb5, !dbg !1990

bb5:                                              ; preds = %bb4
  %_19 = xor i1 %_20, true, !dbg !1990
  br i1 %_19, label %bb6, label %bb7, !dbg !1990

bb7:                                              ; preds = %bb5
  %14 = bitcast { i32*, i32* }* %_31 to [4 x i32]**, !dbg !1991
  store [4 x i32]* %buffer, [4 x i32]** %14, align 8, !dbg !1991
  %15 = getelementptr inbounds { i32*, i32* }, { i32*, i32* }* %_31, i32 0, i32 1, !dbg !1991
  %16 = bitcast i32** %15 to [4 x i32]**, !dbg !1991
  store [4 x i32]* %expected_buffer, [4 x i32]** %16, align 8, !dbg !1991
  %17 = bitcast { i32*, i32* }* %_31 to [4 x i32]**, !dbg !1991
  %left_val2 = load [4 x i32]*, [4 x i32]** %17, align 8, !dbg !1991, !nonnull !23, !align !256, !noundef !23
  store [4 x i32]* %left_val2, [4 x i32]** %left_val.dbg.spill3, align 8, !dbg !1991
  call void @llvm.dbg.declare(metadata [4 x i32]** %left_val.dbg.spill3, metadata !1970, metadata !DIExpression()), !dbg !1992
  %18 = getelementptr inbounds { i32*, i32* }, { i32*, i32* }* %_31, i32 0, i32 1, !dbg !1991
  %19 = bitcast i32** %18 to [4 x i32]**, !dbg !1991
  %right_val4 = load [4 x i32]*, [4 x i32]** %19, align 8, !dbg !1991, !nonnull !23, !align !256, !noundef !23
  store [4 x i32]* %right_val4, [4 x i32]** %right_val.dbg.spill5, align 8, !dbg !1991
  call void @llvm.dbg.declare(metadata [4 x i32]** %right_val.dbg.spill5, metadata !1973, metadata !DIExpression()), !dbg !1992
; call core::array::equality::<impl core::cmp::PartialEq<[B; N]> for [A; N]>::eq
  %_37 = call zeroext i1 @"_ZN4core5array8equality103_$LT$impl$u20$core..cmp..PartialEq$LT$$u5b$B$u3b$$u20$N$u5d$$GT$$u20$for$u20$$u5b$A$u3b$$u20$N$u5d$$GT$2eq17h0b7a421f400c5646E"([4 x i32]* align 4 %left_val2, [4 x i32]* align 4 %right_val4), !dbg !1992
  br label %bb8, !dbg !1992

bb6:                                              ; preds = %bb5
  store i8 0, i8* %kind, align 1, !dbg !1990
  %20 = bitcast %"core::option::Option<core::fmt::Arguments>"* %_30 to {}**, !dbg !1980
  store {}* null, {}** %20, align 8, !dbg !1980
; call core::panicking::assert_failed
  call void @_ZN4core9panicking13assert_failed17hdf662e81a435205fE(i8 0, [4 x i32]* align 4 %left_val, [4 x i32]* align 4 %right_val, %"core::option::Option<core::fmt::Arguments>"* %_30, %"core::panic::location::Location"* align 8 bitcast (<{ i8*, [16 x i8] }>* @alloc346 to %"core::panic::location::Location"*)) #13, !dbg !1980
  unreachable, !dbg !1980

bb8:                                              ; preds = %bb7
  %_36 = xor i1 %_37, true, !dbg !1992
  br i1 %_36, label %bb9, label %bb10, !dbg !1992

bb10:                                             ; preds = %bb8
  ret void, !dbg !1993

bb9:                                              ; preds = %bb8
  store i8 0, i8* %kind1, align 1, !dbg !1992
  %21 = bitcast %"core::option::Option<core::fmt::Arguments>"* %_47 to {}**, !dbg !1981
  store {}* null, {}** %21, align 8, !dbg !1981
; call core::panicking::assert_failed
  call void @_ZN4core9panicking13assert_failed17hdf662e81a435205fE(i8 0, [4 x i32]* align 4 %left_val2, [4 x i32]* align 4 %right_val4, %"core::option::Option<core::fmt::Arguments>"* %_47, %"core::panic::location::Location"* align 8 bitcast (<{ i8*, [16 x i8] }>* @alloc348 to %"core::panic::location::Location"*)) #13, !dbg !1981
  unreachable, !dbg !1981
}

; loops_tests::test_goto::test_goto_loop::{{closure}}
; Function Attrs: inlinehint nonlazybind uwtable
define internal void @"_ZN11loops_tests9test_goto14test_goto_loop28_$u7b$$u7b$closure$u7d$$u7d$17h9a90e2a565ead2ccE"(%"[closure@src/test_goto.rs:35:1: 46:2]"* align 1 %_1) unnamed_addr #2 !dbg !1994 {
start:
  %_1.dbg.spill = alloca %"[closure@src/test_goto.rs:35:1: 46:2]"*, align 8
  store %"[closure@src/test_goto.rs:35:1: 46:2]"* %_1, %"[closure@src/test_goto.rs:35:1: 46:2]"** %_1.dbg.spill, align 8
  call void @llvm.dbg.declare(metadata %"[closure@src/test_goto.rs:35:1: 46:2]"** %_1.dbg.spill, metadata !1999, metadata !DIExpression()), !dbg !2000
  call void @test_goto_loop(), !dbg !2000
  br label %bb1, !dbg !2000

bb1:                                              ; preds = %start
; call test::assert_test_result
  call void @_ZN4test18assert_test_result17h09bcc020f41652d1E(), !dbg !2000
  br label %bb2, !dbg !2000

bb2:                                              ; preds = %bb1
  ret void, !dbg !2001
}

; Function Attrs: nonlazybind uwtable
define dso_local void @test_goto_loop() unnamed_addr #1 !dbg !2002 {
start:
  %right_val.dbg.spill5 = alloca [12 x i32]*, align 8
  %left_val.dbg.spill3 = alloca [12 x i32]*, align 8
  %right_val.dbg.spill = alloca [12 x i32]*, align 8
  %left_val.dbg.spill = alloca [12 x i32]*, align 8
  %_47 = alloca %"core::option::Option<core::fmt::Arguments>", align 8
  %kind1 = alloca i8, align 1
  %_31 = alloca { i32*, i32* }, align 8
  %_30 = alloca %"core::option::Option<core::fmt::Arguments>", align 8
  %kind = alloca i8, align 1
  %_14 = alloca { i32*, i32* }, align 8
  %expected_buffer = alloca [12 x i32], align 4
  %rust_buffer = alloca [12 x i32], align 4
  %buffer = alloca [12 x i32], align 4
  call void @llvm.dbg.declare(metadata [12 x i32]* %buffer, metadata !2004, metadata !DIExpression()), !dbg !2024
  call void @llvm.dbg.declare(metadata [12 x i32]* %rust_buffer, metadata !2006, metadata !DIExpression()), !dbg !2025
  call void @llvm.dbg.declare(metadata [12 x i32]* %expected_buffer, metadata !2008, metadata !DIExpression()), !dbg !2026
  call void @llvm.dbg.declare(metadata i8* %kind, metadata !2014, metadata !DIExpression()), !dbg !2027
  call void @llvm.dbg.declare(metadata i8* %kind1, metadata !2021, metadata !DIExpression()), !dbg !2028
  %0 = getelementptr inbounds [12 x i32], [12 x i32]* %buffer, i64 0, i64 0, !dbg !2029
  %1 = bitcast i32* %0 to i8*, !dbg !2029
  call void @llvm.memset.p0i8.i64(i8* align 4 %1, i8 0, i64 48, i1 false), !dbg !2029
  %2 = getelementptr inbounds [12 x i32], [12 x i32]* %rust_buffer, i64 0, i64 0, !dbg !2030
  %3 = bitcast i32* %2 to i8*, !dbg !2030
  call void @llvm.memset.p0i8.i64(i8* align 4 %3, i8 0, i64 48, i1 false), !dbg !2030
  %4 = getelementptr inbounds [12 x i32], [12 x i32]* %expected_buffer, i64 0, i64 0, !dbg !2031
  store i32 0, i32* %4, align 4, !dbg !2031
  %5 = getelementptr inbounds [12 x i32], [12 x i32]* %expected_buffer, i64 0, i64 1, !dbg !2031
  store i32 1, i32* %5, align 4, !dbg !2031
  %6 = getelementptr inbounds [12 x i32], [12 x i32]* %expected_buffer, i64 0, i64 2, !dbg !2031
  store i32 2, i32* %6, align 4, !dbg !2031
  %7 = getelementptr inbounds [12 x i32], [12 x i32]* %expected_buffer, i64 0, i64 3, !dbg !2031
  store i32 1, i32* %7, align 4, !dbg !2031
  %8 = getelementptr inbounds [12 x i32], [12 x i32]* %expected_buffer, i64 0, i64 4, !dbg !2031
  store i32 2, i32* %8, align 4, !dbg !2031
  %9 = getelementptr inbounds [12 x i32], [12 x i32]* %expected_buffer, i64 0, i64 5, !dbg !2031
  store i32 1, i32* %9, align 4, !dbg !2031
  %10 = getelementptr inbounds [12 x i32], [12 x i32]* %expected_buffer, i64 0, i64 6, !dbg !2031
  store i32 2, i32* %10, align 4, !dbg !2031
  %11 = getelementptr inbounds [12 x i32], [12 x i32]* %expected_buffer, i64 0, i64 7, !dbg !2031
  store i32 1, i32* %11, align 4, !dbg !2031
  %12 = getelementptr inbounds [12 x i32], [12 x i32]* %expected_buffer, i64 0, i64 8, !dbg !2031
  store i32 2, i32* %12, align 4, !dbg !2031
  %13 = getelementptr inbounds [12 x i32], [12 x i32]* %expected_buffer, i64 0, i64 9, !dbg !2031
  store i32 1, i32* %13, align 4, !dbg !2031
  %14 = getelementptr inbounds [12 x i32], [12 x i32]* %expected_buffer, i64 0, i64 10, !dbg !2031
  store i32 2, i32* %14, align 4, !dbg !2031
  %15 = getelementptr inbounds [12 x i32], [12 x i32]* %expected_buffer, i64 0, i64 11, !dbg !2031
  store i32 1, i32* %15, align 4, !dbg !2031
  %_7.0 = bitcast [12 x i32]* %buffer to [0 x i32]*, !dbg !2032
; call core::slice::<impl [T]>::as_mut_ptr
  %_6 = call i32* @"_ZN4core5slice29_$LT$impl$u20$$u5b$T$u5d$$GT$10as_mut_ptr17h968bfe739dc0ec04E"([0 x i32]* align 4 %_7.0, i64 12), !dbg !2032
  br label %bb1, !dbg !2032

bb1:                                              ; preds = %start
  call void @goto_loop(i32 12, i32* %_6), !dbg !2033
  br label %bb2, !dbg !2033

bb2:                                              ; preds = %bb1
  %_12.0 = bitcast [12 x i32]* %rust_buffer to [0 x i32]*, !dbg !2034
; call core::slice::<impl [T]>::as_mut_ptr
  %_11 = call i32* @"_ZN4core5slice29_$LT$impl$u20$$u5b$T$u5d$$GT$10as_mut_ptr17h968bfe739dc0ec04E"([0 x i32]* align 4 %_12.0, i64 12), !dbg !2034
  br label %bb3, !dbg !2034

bb3:                                              ; preds = %bb2
  call void @rust_goto_loop(i32 12, i32* %_11), !dbg !2035
  br label %bb4, !dbg !2035

bb4:                                              ; preds = %bb3
  %16 = bitcast { i32*, i32* }* %_14 to [12 x i32]**, !dbg !2036
  store [12 x i32]* %buffer, [12 x i32]** %16, align 8, !dbg !2036
  %17 = getelementptr inbounds { i32*, i32* }, { i32*, i32* }* %_14, i32 0, i32 1, !dbg !2036
  %18 = bitcast i32** %17 to [12 x i32]**, !dbg !2036
  store [12 x i32]* %rust_buffer, [12 x i32]** %18, align 8, !dbg !2036
  %19 = bitcast { i32*, i32* }* %_14 to [12 x i32]**, !dbg !2036
  %left_val = load [12 x i32]*, [12 x i32]** %19, align 8, !dbg !2036, !nonnull !23, !align !256, !noundef !23
  store [12 x i32]* %left_val, [12 x i32]** %left_val.dbg.spill, align 8, !dbg !2036
  call void @llvm.dbg.declare(metadata [12 x i32]** %left_val.dbg.spill, metadata !2010, metadata !DIExpression()), !dbg !2037
  %20 = getelementptr inbounds { i32*, i32* }, { i32*, i32* }* %_14, i32 0, i32 1, !dbg !2036
  %21 = bitcast i32** %20 to [12 x i32]**, !dbg !2036
  %right_val = load [12 x i32]*, [12 x i32]** %21, align 8, !dbg !2036, !nonnull !23, !align !256, !noundef !23
  store [12 x i32]* %right_val, [12 x i32]** %right_val.dbg.spill, align 8, !dbg !2036
  call void @llvm.dbg.declare(metadata [12 x i32]** %right_val.dbg.spill, metadata !2013, metadata !DIExpression()), !dbg !2037
; call core::array::equality::<impl core::cmp::PartialEq<[B; N]> for [A; N]>::eq
  %_20 = call zeroext i1 @"_ZN4core5array8equality103_$LT$impl$u20$core..cmp..PartialEq$LT$$u5b$B$u3b$$u20$N$u5d$$GT$$u20$for$u20$$u5b$A$u3b$$u20$N$u5d$$GT$2eq17hee6ff7352ca572bcE"([12 x i32]* align 4 %left_val, [12 x i32]* align 4 %right_val), !dbg !2037
  br label %bb5, !dbg !2037

bb5:                                              ; preds = %bb4
  %_19 = xor i1 %_20, true, !dbg !2037
  br i1 %_19, label %bb6, label %bb7, !dbg !2037

bb7:                                              ; preds = %bb5
  %22 = bitcast { i32*, i32* }* %_31 to [12 x i32]**, !dbg !2038
  store [12 x i32]* %buffer, [12 x i32]** %22, align 8, !dbg !2038
  %23 = getelementptr inbounds { i32*, i32* }, { i32*, i32* }* %_31, i32 0, i32 1, !dbg !2038
  %24 = bitcast i32** %23 to [12 x i32]**, !dbg !2038
  store [12 x i32]* %expected_buffer, [12 x i32]** %24, align 8, !dbg !2038
  %25 = bitcast { i32*, i32* }* %_31 to [12 x i32]**, !dbg !2038
  %left_val2 = load [12 x i32]*, [12 x i32]** %25, align 8, !dbg !2038, !nonnull !23, !align !256, !noundef !23
  store [12 x i32]* %left_val2, [12 x i32]** %left_val.dbg.spill3, align 8, !dbg !2038
  call void @llvm.dbg.declare(metadata [12 x i32]** %left_val.dbg.spill3, metadata !2017, metadata !DIExpression()), !dbg !2039
  %26 = getelementptr inbounds { i32*, i32* }, { i32*, i32* }* %_31, i32 0, i32 1, !dbg !2038
  %27 = bitcast i32** %26 to [12 x i32]**, !dbg !2038
  %right_val4 = load [12 x i32]*, [12 x i32]** %27, align 8, !dbg !2038, !nonnull !23, !align !256, !noundef !23
  store [12 x i32]* %right_val4, [12 x i32]** %right_val.dbg.spill5, align 8, !dbg !2038
  call void @llvm.dbg.declare(metadata [12 x i32]** %right_val.dbg.spill5, metadata !2020, metadata !DIExpression()), !dbg !2039
; call core::array::equality::<impl core::cmp::PartialEq<[B; N]> for [A; N]>::eq
  %_37 = call zeroext i1 @"_ZN4core5array8equality103_$LT$impl$u20$core..cmp..PartialEq$LT$$u5b$B$u3b$$u20$N$u5d$$GT$$u20$for$u20$$u5b$A$u3b$$u20$N$u5d$$GT$2eq17hee6ff7352ca572bcE"([12 x i32]* align 4 %left_val2, [12 x i32]* align 4 %right_val4), !dbg !2039
  br label %bb8, !dbg !2039

bb6:                                              ; preds = %bb5
  store i8 0, i8* %kind, align 1, !dbg !2037
  %28 = bitcast %"core::option::Option<core::fmt::Arguments>"* %_30 to {}**, !dbg !2027
  store {}* null, {}** %28, align 8, !dbg !2027
; call core::panicking::assert_failed
  call void @_ZN4core9panicking13assert_failed17h50690f627bd757c0E(i8 0, [12 x i32]* align 4 %left_val, [12 x i32]* align 4 %right_val, %"core::option::Option<core::fmt::Arguments>"* %_30, %"core::panic::location::Location"* align 8 bitcast (<{ i8*, [16 x i8] }>* @alloc350 to %"core::panic::location::Location"*)) #13, !dbg !2027
  unreachable, !dbg !2027

bb8:                                              ; preds = %bb7
  %_36 = xor i1 %_37, true, !dbg !2039
  br i1 %_36, label %bb9, label %bb10, !dbg !2039

bb10:                                             ; preds = %bb8
  ret void, !dbg !2040

bb9:                                              ; preds = %bb8
  store i8 0, i8* %kind1, align 1, !dbg !2039
  %29 = bitcast %"core::option::Option<core::fmt::Arguments>"* %_47 to {}**, !dbg !2028
  store {}* null, {}** %29, align 8, !dbg !2028
; call core::panicking::assert_failed
  call void @_ZN4core9panicking13assert_failed17h50690f627bd757c0E(i8 0, [12 x i32]* align 4 %left_val2, [12 x i32]* align 4 %right_val4, %"core::option::Option<core::fmt::Arguments>"* %_47, %"core::panic::location::Location"* align 8 bitcast (<{ i8*, [16 x i8] }>* @alloc352 to %"core::panic::location::Location"*)) #13, !dbg !2028
  unreachable, !dbg !2028
}

; loops_tests::test_goto::test_goto_switch::{{closure}}
; Function Attrs: inlinehint nonlazybind uwtable
define internal void @"_ZN11loops_tests9test_goto16test_goto_switch28_$u7b$$u7b$closure$u7d$$u7d$17h3504bdfc19e44302E"(%"[closure@src/test_goto.rs:49:1: 60:2]"* align 1 %_1) unnamed_addr #2 !dbg !2041 {
start:
  %_1.dbg.spill = alloca %"[closure@src/test_goto.rs:49:1: 60:2]"*, align 8
  store %"[closure@src/test_goto.rs:49:1: 60:2]"* %_1, %"[closure@src/test_goto.rs:49:1: 60:2]"** %_1.dbg.spill, align 8
  call void @llvm.dbg.declare(metadata %"[closure@src/test_goto.rs:49:1: 60:2]"** %_1.dbg.spill, metadata !2046, metadata !DIExpression()), !dbg !2047
  call void @test_goto_switch(), !dbg !2047
  br label %bb1, !dbg !2047

bb1:                                              ; preds = %start
; call test::assert_test_result
  call void @_ZN4test18assert_test_result17h09bcc020f41652d1E(), !dbg !2047
  br label %bb2, !dbg !2047

bb2:                                              ; preds = %bb1
  ret void, !dbg !2048
}

; Function Attrs: nonlazybind uwtable
define dso_local void @test_goto_switch() unnamed_addr #1 !dbg !2049 {
start:
  %right_val.dbg.spill5 = alloca [6 x i32]*, align 8
  %left_val.dbg.spill3 = alloca [6 x i32]*, align 8
  %right_val.dbg.spill = alloca [6 x i32]*, align 8
  %left_val.dbg.spill = alloca [6 x i32]*, align 8
  %_47 = alloca %"core::option::Option<core::fmt::Arguments>", align 8
  %kind1 = alloca i8, align 1
  %_31 = alloca { i32*, i32* }, align 8
  %_30 = alloca %"core::option::Option<core::fmt::Arguments>", align 8
  %kind = alloca i8, align 1
  %_14 = alloca { i32*, i32* }, align 8
  %expected_buffer = alloca [6 x i32], align 4
  %rust_buffer = alloca [6 x i32], align 4
  %buffer = alloca [6 x i32], align 4
  call void @llvm.dbg.declare(metadata [6 x i32]* %buffer, metadata !2051, metadata !DIExpression()), !dbg !2071
  call void @llvm.dbg.declare(metadata [6 x i32]* %rust_buffer, metadata !2053, metadata !DIExpression()), !dbg !2072
  call void @llvm.dbg.declare(metadata [6 x i32]* %expected_buffer, metadata !2055, metadata !DIExpression()), !dbg !2073
  call void @llvm.dbg.declare(metadata i8* %kind, metadata !2061, metadata !DIExpression()), !dbg !2074
  call void @llvm.dbg.declare(metadata i8* %kind1, metadata !2068, metadata !DIExpression()), !dbg !2075
  %0 = getelementptr inbounds [6 x i32], [6 x i32]* %buffer, i64 0, i64 0, !dbg !2076
  %1 = bitcast i32* %0 to i8*, !dbg !2076
  call void @llvm.memset.p0i8.i64(i8* align 4 %1, i8 0, i64 24, i1 false), !dbg !2076
  %2 = getelementptr inbounds [6 x i32], [6 x i32]* %rust_buffer, i64 0, i64 0, !dbg !2077
  %3 = bitcast i32* %2 to i8*, !dbg !2077
  call void @llvm.memset.p0i8.i64(i8* align 4 %3, i8 0, i64 24, i1 false), !dbg !2077
  %4 = getelementptr inbounds [6 x i32], [6 x i32]* %expected_buffer, i64 0, i64 0, !dbg !2078
  store i32 0, i32* %4, align 4, !dbg !2078
  %5 = getelementptr inbounds [6 x i32], [6 x i32]* %expected_buffer, i64 0, i64 1, !dbg !2078
  store i32 1, i32* %5, align 4, !dbg !2078
  %6 = getelementptr inbounds [6 x i32], [6 x i32]* %expected_buffer, i64 0, i64 2, !dbg !2078
  store i32 1, i32* %6, align 4, !dbg !2078
  %7 = getelementptr inbounds [6 x i32], [6 x i32]* %expected_buffer, i64 0, i64 3, !dbg !2078
  store i32 1, i32* %7, align 4, !dbg !2078
  %8 = getelementptr inbounds [6 x i32], [6 x i32]* %expected_buffer, i64 0, i64 4, !dbg !2078
  store i32 2, i32* %8, align 4, !dbg !2078
  %9 = getelementptr inbounds [6 x i32], [6 x i32]* %expected_buffer, i64 0, i64 5, !dbg !2078
  store i32 3, i32* %9, align 4, !dbg !2078
  %_7.0 = bitcast [6 x i32]* %buffer to [0 x i32]*, !dbg !2079
; call core::slice::<impl [T]>::as_mut_ptr
  %_6 = call i32* @"_ZN4core5slice29_$LT$impl$u20$$u5b$T$u5d$$GT$10as_mut_ptr17h968bfe739dc0ec04E"([0 x i32]* align 4 %_7.0, i64 6), !dbg !2079
  br label %bb1, !dbg !2079

bb1:                                              ; preds = %start
  call void @goto_switch(i32 6, i32* %_6), !dbg !2080
  br label %bb2, !dbg !2080

bb2:                                              ; preds = %bb1
  %_12.0 = bitcast [6 x i32]* %rust_buffer to [0 x i32]*, !dbg !2081
; call core::slice::<impl [T]>::as_mut_ptr
  %_11 = call i32* @"_ZN4core5slice29_$LT$impl$u20$$u5b$T$u5d$$GT$10as_mut_ptr17h968bfe739dc0ec04E"([0 x i32]* align 4 %_12.0, i64 6), !dbg !2081
  br label %bb3, !dbg !2081

bb3:                                              ; preds = %bb2
  call void @rust_goto_switch(i32 6, i32* %_11), !dbg !2082
  br label %bb4, !dbg !2082

bb4:                                              ; preds = %bb3
  %10 = bitcast { i32*, i32* }* %_14 to [6 x i32]**, !dbg !2083
  store [6 x i32]* %buffer, [6 x i32]** %10, align 8, !dbg !2083
  %11 = getelementptr inbounds { i32*, i32* }, { i32*, i32* }* %_14, i32 0, i32 1, !dbg !2083
  %12 = bitcast i32** %11 to [6 x i32]**, !dbg !2083
  store [6 x i32]* %rust_buffer, [6 x i32]** %12, align 8, !dbg !2083
  %13 = bitcast { i32*, i32* }* %_14 to [6 x i32]**, !dbg !2083
  %left_val = load [6 x i32]*, [6 x i32]** %13, align 8, !dbg !2083, !nonnull !23, !align !256, !noundef !23
  store [6 x i32]* %left_val, [6 x i32]** %left_val.dbg.spill, align 8, !dbg !2083
  call void @llvm.dbg.declare(metadata [6 x i32]** %left_val.dbg.spill, metadata !2057, metadata !DIExpression()), !dbg !2084
  %14 = getelementptr inbounds { i32*, i32* }, { i32*, i32* }* %_14, i32 0, i32 1, !dbg !2083
  %15 = bitcast i32** %14 to [6 x i32]**, !dbg !2083
  %right_val = load [6 x i32]*, [6 x i32]** %15, align 8, !dbg !2083, !nonnull !23, !align !256, !noundef !23
  store [6 x i32]* %right_val, [6 x i32]** %right_val.dbg.spill, align 8, !dbg !2083
  call void @llvm.dbg.declare(metadata [6 x i32]** %right_val.dbg.spill, metadata !2060, metadata !DIExpression()), !dbg !2084
; call core::array::equality::<impl core::cmp::PartialEq<[B; N]> for [A; N]>::eq
  %_20 = call zeroext i1 @"_ZN4core5array8equality103_$LT$impl$u20$core..cmp..PartialEq$LT$$u5b$B$u3b$$u20$N$u5d$$GT$$u20$for$u20$$u5b$A$u3b$$u20$N$u5d$$GT$2eq17h3e1c2a7401ebf6b8E"([6 x i32]* align 4 %left_val, [6 x i32]* align 4 %right_val), !dbg !2084
  br label %bb5, !dbg !2084

bb5:                                              ; preds = %bb4
  %_19 = xor i1 %_20, true, !dbg !2084
  br i1 %_19, label %bb6, label %bb7, !dbg !2084

bb7:                                              ; preds = %bb5
  %16 = bitcast { i32*, i32* }* %_31 to [6 x i32]**, !dbg !2085
  store [6 x i32]* %buffer, [6 x i32]** %16, align 8, !dbg !2085
  %17 = getelementptr inbounds { i32*, i32* }, { i32*, i32* }* %_31, i32 0, i32 1, !dbg !2085
  %18 = bitcast i32** %17 to [6 x i32]**, !dbg !2085
  store [6 x i32]* %expected_buffer, [6 x i32]** %18, align 8, !dbg !2085
  %19 = bitcast { i32*, i32* }* %_31 to [6 x i32]**, !dbg !2085
  %left_val2 = load [6 x i32]*, [6 x i32]** %19, align 8, !dbg !2085, !nonnull !23, !align !256, !noundef !23
  store [6 x i32]* %left_val2, [6 x i32]** %left_val.dbg.spill3, align 8, !dbg !2085
  call void @llvm.dbg.declare(metadata [6 x i32]** %left_val.dbg.spill3, metadata !2064, metadata !DIExpression()), !dbg !2086
  %20 = getelementptr inbounds { i32*, i32* }, { i32*, i32* }* %_31, i32 0, i32 1, !dbg !2085
  %21 = bitcast i32** %20 to [6 x i32]**, !dbg !2085
  %right_val4 = load [6 x i32]*, [6 x i32]** %21, align 8, !dbg !2085, !nonnull !23, !align !256, !noundef !23
  store [6 x i32]* %right_val4, [6 x i32]** %right_val.dbg.spill5, align 8, !dbg !2085
  call void @llvm.dbg.declare(metadata [6 x i32]** %right_val.dbg.spill5, metadata !2067, metadata !DIExpression()), !dbg !2086
; call core::array::equality::<impl core::cmp::PartialEq<[B; N]> for [A; N]>::eq
  %_37 = call zeroext i1 @"_ZN4core5array8equality103_$LT$impl$u20$core..cmp..PartialEq$LT$$u5b$B$u3b$$u20$N$u5d$$GT$$u20$for$u20$$u5b$A$u3b$$u20$N$u5d$$GT$2eq17h3e1c2a7401ebf6b8E"([6 x i32]* align 4 %left_val2, [6 x i32]* align 4 %right_val4), !dbg !2086
  br label %bb8, !dbg !2086

bb6:                                              ; preds = %bb5
  store i8 0, i8* %kind, align 1, !dbg !2084
  %22 = bitcast %"core::option::Option<core::fmt::Arguments>"* %_30 to {}**, !dbg !2074
  store {}* null, {}** %22, align 8, !dbg !2074
; call core::panicking::assert_failed
  call void @_ZN4core9panicking13assert_failed17h97632e3a1368f9f8E(i8 0, [6 x i32]* align 4 %left_val, [6 x i32]* align 4 %right_val, %"core::option::Option<core::fmt::Arguments>"* %_30, %"core::panic::location::Location"* align 8 bitcast (<{ i8*, [16 x i8] }>* @alloc354 to %"core::panic::location::Location"*)) #13, !dbg !2074
  unreachable, !dbg !2074

bb8:                                              ; preds = %bb7
  %_36 = xor i1 %_37, true, !dbg !2086
  br i1 %_36, label %bb9, label %bb10, !dbg !2086

bb10:                                             ; preds = %bb8
  ret void, !dbg !2087

bb9:                                              ; preds = %bb8
  store i8 0, i8* %kind1, align 1, !dbg !2086
  %23 = bitcast %"core::option::Option<core::fmt::Arguments>"* %_47 to {}**, !dbg !2075
  store {}* null, {}** %23, align 8, !dbg !2075
; call core::panicking::assert_failed
  call void @_ZN4core9panicking13assert_failed17h97632e3a1368f9f8E(i8 0, [6 x i32]* align 4 %left_val2, [6 x i32]* align 4 %right_val4, %"core::option::Option<core::fmt::Arguments>"* %_47, %"core::panic::location::Location"* align 8 bitcast (<{ i8*, [16 x i8] }>* @alloc356 to %"core::panic::location::Location"*)) #13, !dbg !2075
  unreachable, !dbg !2075
}

; loops_tests::test_loops::test_buffer::{{closure}}
; Function Attrs: inlinehint nonlazybind uwtable
define internal void @"_ZN11loops_tests10test_loops11test_buffer28_$u7b$$u7b$closure$u7d$$u7d$17hdf080631f8f21b94E"(%"[closure@src/test_loops.rs:12:1: 30:2]"* align 1 %_1) unnamed_addr #2 !dbg !2088 {
start:
  %_1.dbg.spill = alloca %"[closure@src/test_loops.rs:12:1: 30:2]"*, align 8
  store %"[closure@src/test_loops.rs:12:1: 30:2]"* %_1, %"[closure@src/test_loops.rs:12:1: 30:2]"** %_1.dbg.spill, align 8
  call void @llvm.dbg.declare(metadata %"[closure@src/test_loops.rs:12:1: 30:2]"** %_1.dbg.spill, metadata !2094, metadata !DIExpression()), !dbg !2095
  call void @test_buffer(), !dbg !2095
  br label %bb1, !dbg !2095

bb1:                                              ; preds = %start
; call test::assert_test_result
  call void @_ZN4test18assert_test_result17h09bcc020f41652d1E(), !dbg !2095
  br label %bb2, !dbg !2095

bb2:                                              ; preds = %bb1
  ret void, !dbg !2096
}

; Function Attrs: nonlazybind uwtable
define dso_local void @test_buffer() unnamed_addr #1 !dbg !2097 {
start:
  %right_val.dbg.spill8 = alloca i32*, align 8
  %left_val.dbg.spill6 = alloca i32*, align 8
  %right_val.dbg.spill = alloca i32*, align 8
  %left_val.dbg.spill = alloca i32*, align 8
  %_75 = alloca [1 x { i8*, i64* }], align 8
  %_68 = alloca %"core::fmt::Arguments", align 8
  %_67 = alloca %"core::option::Option<core::fmt::Arguments>", align 8
  %kind1 = alloca i8, align 1
  %_45 = alloca { i32*, i32* }, align 8
  %_44 = alloca %"core::option::Option<core::fmt::Arguments>", align 8
  %kind = alloca i8, align 1
  %_22 = alloca { i32*, i32* }, align 8
  %index = alloca i64, align 8
  %_17 = alloca { i64, i64 }, align 8
  %iter = alloca { i64, i64 }, align 8
  %_15 = alloca { i64, i64 }, align 8
  %expected_buffer = alloca [70 x i32], align 4
  %rust_buffer = alloca [70 x i32], align 4
  %buffer = alloca [70 x i32], align 4
  call void @llvm.dbg.declare(metadata [70 x i32]* %buffer, metadata !2099, metadata !DIExpression()), !dbg !2126
  call void @llvm.dbg.declare(metadata [70 x i32]* %rust_buffer, metadata !2104, metadata !DIExpression()), !dbg !2127
  call void @llvm.dbg.declare(metadata [70 x i32]* %expected_buffer, metadata !2106, metadata !DIExpression()), !dbg !2128
  call void @llvm.dbg.declare(metadata { i64, i64 }* %iter, metadata !2108, metadata !DIExpression()), !dbg !2129
  call void @llvm.dbg.declare(metadata i64* %index, metadata !2110, metadata !DIExpression()), !dbg !2130
  call void @llvm.dbg.declare(metadata i8* %kind, metadata !2116, metadata !DIExpression()), !dbg !2131
  call void @llvm.dbg.declare(metadata i8* %kind1, metadata !2123, metadata !DIExpression()), !dbg !2132
  %0 = getelementptr inbounds [70 x i32], [70 x i32]* %buffer, i64 0, i64 0, !dbg !2133
  %1 = bitcast i32* %0 to i8*, !dbg !2133
  call void @llvm.memset.p0i8.i64(i8* align 4 %1, i8 0, i64 280, i1 false), !dbg !2133
  %2 = getelementptr inbounds [70 x i32], [70 x i32]* %rust_buffer, i64 0, i64 0, !dbg !2134
  %3 = bitcast i32* %2 to i8*, !dbg !2134
  call void @llvm.memset.p0i8.i64(i8* align 4 %3, i8 0, i64 280, i1 false), !dbg !2134
  %4 = getelementptr inbounds [70 x i32], [70 x i32]* %expected_buffer, i64 0, i64 0, !dbg !2135
  store i32 1, i32* %4, align 4, !dbg !2135
  %5 = getelementptr inbounds [70 x i32], [70 x i32]* %expected_buffer, i64 0, i64 1, !dbg !2135
  store i32 1, i32* %5, align 4, !dbg !2135
  %6 = getelementptr inbounds [70 x i32], [70 x i32]* %expected_buffer, i64 0, i64 2, !dbg !2135
  store i32 1, i32* %6, align 4, !dbg !2135
  %7 = getelementptr inbounds [70 x i32], [70 x i32]* %expected_buffer, i64 0, i64 3, !dbg !2135
  store i32 1, i32* %7, align 4, !dbg !2135
  %8 = getelementptr inbounds [70 x i32], [70 x i32]* %expected_buffer, i64 0, i64 4, !dbg !2135
  store i32 1, i32* %8, align 4, !dbg !2135
  %9 = getelementptr inbounds [70 x i32], [70 x i32]* %expected_buffer, i64 0, i64 5, !dbg !2135
  store i32 1, i32* %9, align 4, !dbg !2135
  %10 = getelementptr inbounds [70 x i32], [70 x i32]* %expected_buffer, i64 0, i64 6, !dbg !2135
  store i32 1, i32* %10, align 4, !dbg !2135
  %11 = getelementptr inbounds [70 x i32], [70 x i32]* %expected_buffer, i64 0, i64 7, !dbg !2135
  store i32 1, i32* %11, align 4, !dbg !2135
  %12 = getelementptr inbounds [70 x i32], [70 x i32]* %expected_buffer, i64 0, i64 8, !dbg !2135
  store i32 2, i32* %12, align 4, !dbg !2135
  %13 = getelementptr inbounds [70 x i32], [70 x i32]* %expected_buffer, i64 0, i64 9, !dbg !2135
  store i32 2, i32* %13, align 4, !dbg !2135
  %14 = getelementptr inbounds [70 x i32], [70 x i32]* %expected_buffer, i64 0, i64 10, !dbg !2135
  store i32 2, i32* %14, align 4, !dbg !2135
  %15 = getelementptr inbounds [70 x i32], [70 x i32]* %expected_buffer, i64 0, i64 11, !dbg !2135
  store i32 2, i32* %15, align 4, !dbg !2135
  %16 = getelementptr inbounds [70 x i32], [70 x i32]* %expected_buffer, i64 0, i64 12, !dbg !2135
  store i32 2, i32* %16, align 4, !dbg !2135
  %17 = getelementptr inbounds [70 x i32], [70 x i32]* %expected_buffer, i64 0, i64 13, !dbg !2135
  store i32 2, i32* %17, align 4, !dbg !2135
  %18 = getelementptr inbounds [70 x i32], [70 x i32]* %expected_buffer, i64 0, i64 14, !dbg !2135
  store i32 2, i32* %18, align 4, !dbg !2135
  %19 = getelementptr inbounds [70 x i32], [70 x i32]* %expected_buffer, i64 0, i64 15, !dbg !2135
  store i32 2, i32* %19, align 4, !dbg !2135
  %20 = getelementptr inbounds [70 x i32], [70 x i32]* %expected_buffer, i64 0, i64 16, !dbg !2135
  store i32 3, i32* %20, align 4, !dbg !2135
  %21 = getelementptr inbounds [70 x i32], [70 x i32]* %expected_buffer, i64 0, i64 17, !dbg !2135
  store i32 3, i32* %21, align 4, !dbg !2135
  %22 = getelementptr inbounds [70 x i32], [70 x i32]* %expected_buffer, i64 0, i64 18, !dbg !2135
  store i32 3, i32* %22, align 4, !dbg !2135
  %23 = getelementptr inbounds [70 x i32], [70 x i32]* %expected_buffer, i64 0, i64 19, !dbg !2135
  store i32 3, i32* %23, align 4, !dbg !2135
  %24 = getelementptr inbounds [70 x i32], [70 x i32]* %expected_buffer, i64 0, i64 20, !dbg !2135
  store i32 3, i32* %24, align 4, !dbg !2135
  %25 = getelementptr inbounds [70 x i32], [70 x i32]* %expected_buffer, i64 0, i64 21, !dbg !2135
  store i32 4, i32* %25, align 4, !dbg !2135
  %26 = getelementptr inbounds [70 x i32], [70 x i32]* %expected_buffer, i64 0, i64 22, !dbg !2135
  store i32 4, i32* %26, align 4, !dbg !2135
  %27 = getelementptr inbounds [70 x i32], [70 x i32]* %expected_buffer, i64 0, i64 23, !dbg !2135
  store i32 4, i32* %27, align 4, !dbg !2135
  %28 = getelementptr inbounds [70 x i32], [70 x i32]* %expected_buffer, i64 0, i64 24, !dbg !2135
  store i32 4, i32* %28, align 4, !dbg !2135
  %29 = getelementptr inbounds [70 x i32], [70 x i32]* %expected_buffer, i64 0, i64 25, !dbg !2135
  store i32 4, i32* %29, align 4, !dbg !2135
  %30 = getelementptr inbounds [70 x i32], [70 x i32]* %expected_buffer, i64 0, i64 26, !dbg !2135
  store i32 4, i32* %30, align 4, !dbg !2135
  %31 = getelementptr inbounds [70 x i32], [70 x i32]* %expected_buffer, i64 0, i64 27, !dbg !2135
  store i32 4, i32* %31, align 4, !dbg !2135
  %32 = getelementptr inbounds [70 x i32], [70 x i32]* %expected_buffer, i64 0, i64 28, !dbg !2135
  store i32 4, i32* %32, align 4, !dbg !2135
  %33 = getelementptr inbounds [70 x i32], [70 x i32]* %expected_buffer, i64 0, i64 29, !dbg !2135
  store i32 4, i32* %33, align 4, !dbg !2135
  %34 = getelementptr inbounds [70 x i32], [70 x i32]* %expected_buffer, i64 0, i64 30, !dbg !2135
  store i32 5, i32* %34, align 4, !dbg !2135
  %35 = getelementptr inbounds [70 x i32], [70 x i32]* %expected_buffer, i64 0, i64 31, !dbg !2135
  store i32 0, i32* %35, align 4, !dbg !2135
  %36 = getelementptr inbounds [70 x i32], [70 x i32]* %expected_buffer, i64 0, i64 32, !dbg !2135
  store i32 0, i32* %36, align 4, !dbg !2135
  %37 = getelementptr inbounds [70 x i32], [70 x i32]* %expected_buffer, i64 0, i64 33, !dbg !2135
  store i32 0, i32* %37, align 4, !dbg !2135
  %38 = getelementptr inbounds [70 x i32], [70 x i32]* %expected_buffer, i64 0, i64 34, !dbg !2135
  store i32 0, i32* %38, align 4, !dbg !2135
  %39 = getelementptr inbounds [70 x i32], [70 x i32]* %expected_buffer, i64 0, i64 35, !dbg !2135
  store i32 0, i32* %39, align 4, !dbg !2135
  %40 = getelementptr inbounds [70 x i32], [70 x i32]* %expected_buffer, i64 0, i64 36, !dbg !2135
  store i32 0, i32* %40, align 4, !dbg !2135
  %41 = getelementptr inbounds [70 x i32], [70 x i32]* %expected_buffer, i64 0, i64 37, !dbg !2135
  store i32 0, i32* %41, align 4, !dbg !2135
  %42 = getelementptr inbounds [70 x i32], [70 x i32]* %expected_buffer, i64 0, i64 38, !dbg !2135
  store i32 0, i32* %42, align 4, !dbg !2135
  %43 = getelementptr inbounds [70 x i32], [70 x i32]* %expected_buffer, i64 0, i64 39, !dbg !2135
  store i32 0, i32* %43, align 4, !dbg !2135
  %44 = getelementptr inbounds [70 x i32], [70 x i32]* %expected_buffer, i64 0, i64 40, !dbg !2135
  store i32 0, i32* %44, align 4, !dbg !2135
  %45 = getelementptr inbounds [70 x i32], [70 x i32]* %expected_buffer, i64 0, i64 41, !dbg !2135
  store i32 6, i32* %45, align 4, !dbg !2135
  %46 = getelementptr inbounds [70 x i32], [70 x i32]* %expected_buffer, i64 0, i64 42, !dbg !2135
  store i32 0, i32* %46, align 4, !dbg !2135
  %47 = getelementptr inbounds [70 x i32], [70 x i32]* %expected_buffer, i64 0, i64 43, !dbg !2135
  store i32 6, i32* %47, align 4, !dbg !2135
  %48 = getelementptr inbounds [70 x i32], [70 x i32]* %expected_buffer, i64 0, i64 44, !dbg !2135
  store i32 0, i32* %48, align 4, !dbg !2135
  %49 = getelementptr inbounds [70 x i32], [70 x i32]* %expected_buffer, i64 0, i64 45, !dbg !2135
  store i32 6, i32* %49, align 4, !dbg !2135
  %50 = getelementptr inbounds [70 x i32], [70 x i32]* %expected_buffer, i64 0, i64 46, !dbg !2135
  store i32 0, i32* %50, align 4, !dbg !2135
  %51 = getelementptr inbounds [70 x i32], [70 x i32]* %expected_buffer, i64 0, i64 47, !dbg !2135
  store i32 6, i32* %51, align 4, !dbg !2135
  %52 = getelementptr inbounds [70 x i32], [70 x i32]* %expected_buffer, i64 0, i64 48, !dbg !2135
  store i32 0, i32* %52, align 4, !dbg !2135
  %53 = getelementptr inbounds [70 x i32], [70 x i32]* %expected_buffer, i64 0, i64 49, !dbg !2135
  store i32 6, i32* %53, align 4, !dbg !2135
  %54 = getelementptr inbounds [70 x i32], [70 x i32]* %expected_buffer, i64 0, i64 50, !dbg !2135
  store i32 0, i32* %54, align 4, !dbg !2135
  %55 = getelementptr inbounds [70 x i32], [70 x i32]* %expected_buffer, i64 0, i64 51, !dbg !2135
  store i32 0, i32* %55, align 4, !dbg !2135
  %56 = getelementptr inbounds [70 x i32], [70 x i32]* %expected_buffer, i64 0, i64 52, !dbg !2135
  store i32 0, i32* %56, align 4, !dbg !2135
  %57 = getelementptr inbounds [70 x i32], [70 x i32]* %expected_buffer, i64 0, i64 53, !dbg !2135
  store i32 0, i32* %57, align 4, !dbg !2135
  %58 = getelementptr inbounds [70 x i32], [70 x i32]* %expected_buffer, i64 0, i64 54, !dbg !2135
  store i32 0, i32* %58, align 4, !dbg !2135
  %59 = getelementptr inbounds [70 x i32], [70 x i32]* %expected_buffer, i64 0, i64 55, !dbg !2135
  store i32 7, i32* %59, align 4, !dbg !2135
  %60 = getelementptr inbounds [70 x i32], [70 x i32]* %expected_buffer, i64 0, i64 56, !dbg !2135
  store i32 0, i32* %60, align 4, !dbg !2135
  %61 = getelementptr inbounds [70 x i32], [70 x i32]* %expected_buffer, i64 0, i64 57, !dbg !2135
  store i32 7, i32* %61, align 4, !dbg !2135
  %62 = getelementptr inbounds [70 x i32], [70 x i32]* %expected_buffer, i64 0, i64 58, !dbg !2135
  store i32 0, i32* %62, align 4, !dbg !2135
  %63 = getelementptr inbounds [70 x i32], [70 x i32]* %expected_buffer, i64 0, i64 59, !dbg !2135
  store i32 7, i32* %63, align 4, !dbg !2135
  %64 = getelementptr inbounds [70 x i32], [70 x i32]* %expected_buffer, i64 0, i64 60, !dbg !2135
  store i32 0, i32* %64, align 4, !dbg !2135
  %65 = getelementptr inbounds [70 x i32], [70 x i32]* %expected_buffer, i64 0, i64 61, !dbg !2135
  store i32 7, i32* %65, align 4, !dbg !2135
  %66 = getelementptr inbounds [70 x i32], [70 x i32]* %expected_buffer, i64 0, i64 62, !dbg !2135
  store i32 0, i32* %66, align 4, !dbg !2135
  %67 = getelementptr inbounds [70 x i32], [70 x i32]* %expected_buffer, i64 0, i64 63, !dbg !2135
  store i32 7, i32* %67, align 4, !dbg !2135
  %68 = getelementptr inbounds [70 x i32], [70 x i32]* %expected_buffer, i64 0, i64 64, !dbg !2135
  store i32 0, i32* %68, align 4, !dbg !2135
  %69 = getelementptr inbounds [70 x i32], [70 x i32]* %expected_buffer, i64 0, i64 65, !dbg !2135
  store i32 7, i32* %69, align 4, !dbg !2135
  %70 = getelementptr inbounds [70 x i32], [70 x i32]* %expected_buffer, i64 0, i64 66, !dbg !2135
  store i32 0, i32* %70, align 4, !dbg !2135
  %71 = getelementptr inbounds [70 x i32], [70 x i32]* %expected_buffer, i64 0, i64 67, !dbg !2135
  store i32 0, i32* %71, align 4, !dbg !2135
  %72 = getelementptr inbounds [70 x i32], [70 x i32]* %expected_buffer, i64 0, i64 68, !dbg !2135
