; ModuleID = 'bd5x83h89eiqhu6'
source_filename = "bd5x83h89eiqhu6"
target datalayout = "e-m:e-p270:32:32-p271:32:32-p272:64:64-i64:64-f80:128-n8:16:32:64-S128"
target triple = "x86_64-unknown-linux-gnu"

%"alloc::vec::Vec<i32>" = type { { i32*, i64 }, i64 }
%"core::ptr::metadata::PtrComponents<u8>" = type { {}*, {} }
%"core::ptr::metadata::PtrRepr<u8>" = type { [1 x i64] }
%"core::alloc::layout::LayoutError" = type {}
%"core::result::Result<core::convert::Infallible, core::alloc::layout::LayoutError>::Err" = type { %"core::alloc::layout::LayoutError" }
%"core::result::Result<core::ptr::non_null::NonNull<[u8]>, alloc::collections::TryReserveError>" = type { i64, [2 x i64] }
%"core::alloc::AllocError" = type {}
%"core::result::Result<core::ptr::non_null::NonNull<[u8]>, alloc::collections::TryReserveError>::Ok" = type { [1 x i64], { i8*, i64 } }
%"core::result::Result<core::ptr::non_null::NonNull<[u8]>, alloc::collections::TryReserveError>::Err" = type { [1 x i64], { i64, i64 } }
%"[closure@alloc::raw_vec::handle_reserve::{closure#0}]" = type {}
%"core::result::Result<(), alloc::collections::TryReserveErrorKind>::Ok" = type { {} }
%"core::result::Result<core::alloc::layout::Layout, alloc::collections::TryReserveErrorKind>" = type { i64, [2 x i64] }
%"[closure@alloc::raw_vec::finish_grow<alloc::alloc::Global>::{closure#0}]" = type {}
%"core::result::Result<core::alloc::layout::Layout, alloc::collections::TryReserveErrorKind>::Ok" = type { [1 x i64], { i64, i64 } }
%"core::result::Result<core::alloc::layout::Layout, alloc::collections::TryReserveErrorKind>::Err" = type { [1 x i64], { i64, i64 } }
%"[closure@<i32 as alloc::vec::is_zero::IsZero>::is_zero::{closure#0}]" = type {}
%"alloc::alloc::Global" = type {}
%"core::result::Result<core::convert::Infallible, core::alloc::AllocError>::Err" = type { %"core::alloc::AllocError" }
%"core::ptr::metadata::PtrRepr<[u8]>" = type { [2 x i64] }
%"[closure@core::intrinsics::copy_nonoverlapping<u8>::{closure#0}]" = type { i8**, i8**, i64* }
%"core::option::Option<(core::ptr::non_null::NonNull<u8>, core::alloc::layout::Layout)>" = type { [2 x i64], i64 }
%"core::ops::control_flow::ControlFlow<core::result::Result<core::convert::Infallible, alloc::collections::TryReserveErrorKind>, core::alloc::layout::Layout>" = type { i64, [2 x i64] }
%"core::ops::control_flow::ControlFlow<core::result::Result<core::convert::Infallible, alloc::collections::TryReserveErrorKind>, core::alloc::layout::Layout>::Continue" = type { [1 x i64], { i64, i64 } }
%"core::ops::control_flow::ControlFlow<core::result::Result<core::convert::Infallible, alloc::collections::TryReserveErrorKind>, core::alloc::layout::Layout>::Break" = type { [1 x i64], { i64, i64 } }
%"core::option::Option<(core::ptr::non_null::NonNull<u8>, core::alloc::layout::Layout)>::Some" = type { { i8*, { i64, i64 } } }
%"core::ops::control_flow::ControlFlow<core::result::Result<core::convert::Infallible, alloc::collections::TryReserveError>, core::ptr::non_null::NonNull<[u8]>>" = type { i64, [2 x i64] }
%"core::result::Result<usize, alloc::collections::TryReserveErrorKind>" = type { i64, [2 x i64] }
%"core::ops::control_flow::ControlFlow<core::result::Result<core::convert::Infallible, alloc::collections::TryReserveErrorKind>, usize>" = type { i64, [2 x i64] }
%"core::result::Result<usize, alloc::collections::TryReserveErrorKind>::Err" = type { [1 x i64], { i64, i64 } }
%"core::result::Result<usize, alloc::collections::TryReserveErrorKind>::Ok" = type { [1 x i64], i64 }
%"core::ops::control_flow::ControlFlow<core::result::Result<core::convert::Infallible, alloc::collections::TryReserveErrorKind>, usize>::Continue" = type { [1 x i64], i64 }
%"core::ops::control_flow::ControlFlow<core::result::Result<core::convert::Infallible, alloc::collections::TryReserveErrorKind>, usize>::Break" = type { [1 x i64], { i64, i64 } }
%"core::ops::control_flow::ControlFlow<core::result::Result<core::convert::Infallible, alloc::collections::TryReserveError>, core::ptr::non_null::NonNull<[u8]>>::Continue" = type { [1 x i64], { i8*, i64 } }
%"core::ops::control_flow::ControlFlow<core::result::Result<core::convert::Infallible, alloc::collections::TryReserveError>, core::ptr::non_null::NonNull<[u8]>>::Break" = type { [1 x i64], { i64, i64 } }
%"core::ptr::metadata::PtrRepr<[i32]>" = type { [2 x i64] }
%"packed_arrays::event_queue_t" = type { %"packed_arrays::event_queue_t_Inner" }
%"packed_arrays::event_queue_t_Inner" = type { i32 }
%"core::panic::location::Location" = type { { [0 x i8]*, i64 }, i32, i32 }
%"incomplete_arrays::sized_array" = type { i64, [0 x i32] }
%"unwind::libunwind::_Unwind_Exception" = type { i64, void (i32, %"unwind::libunwind::_Unwind_Exception"*)*, [6 x i64] }
%"unwind::libunwind::_Unwind_Context" = type { [0 x i8] }

@alloc99 = private unnamed_addr constant <{}> zeroinitializer, align 1
@SOME_INTS = constant <{ [16 x i8] }> <{ [16 x i8] c"\02\00\00\00\00\00\00\00\01\00\00\00\08\00\00\00" }>, align 4, !dbg !0
@rust_SOME_INTS = constant <{ [16 x i8] }> <{ [16 x i8] c"\02\00\00\00\00\00\00\00\01\00\00\00\08\00\00\00" }>, align 4, !dbg !9
@_ZN11array_tests6arrays11rust_simple17h51c03bc5d8c0d344E = internal global <{ [9 x i8] }> <{ [9 x i8] c"mystring\00" }>, align 1, !dbg !11
@alloc2 = private unnamed_addr constant <{ [9 x i8] }> <{ [9 x i8] c"mystring\00" }>, align 1
@_ZN11array_tests6arrays8rust_foo17h75da38f065933bfaE = internal global <{ i8* }> <{ i8* getelementptr inbounds (<{ [9 x i8] }>, <{ [9 x i8] }>* @alloc2, i32 0, i32 0, i32 0) }>, align 8, !dbg !19
@alloc308 = private unnamed_addr constant <{ [13 x i8] }> <{ [13 x i8] c"src/arrays.rs" }>, align 1
@alloc207 = private unnamed_addr constant <{ i8*, [16 x i8] }> <{ i8* getelementptr inbounds (<{ [13 x i8] }>, <{ [13 x i8] }>* @alloc308, i32 0, i32 0, i32 0), [16 x i8] c"\0D\00\00\00\00\00\00\00\1C\00\00\00\05\00\00\00" }>, align 8
@str.0 = internal constant [28 x i8] c"attempt to add with overflow"
@alloc209 = private unnamed_addr constant <{ i8*, [16 x i8] }> <{ i8* getelementptr inbounds (<{ [13 x i8] }>, <{ [13 x i8] }>* @alloc308, i32 0, i32 0, i32 0), [16 x i8] c"\0D\00\00\00\00\00\00\00\1F\00\00\00\05\00\00\00" }>, align 8
@alloc211 = private unnamed_addr constant <{ i8*, [16 x i8] }> <{ i8* getelementptr inbounds (<{ [13 x i8] }>, <{ [13 x i8] }>* @alloc308, i32 0, i32 0, i32 0), [16 x i8] c"\0D\00\00\00\00\00\00\00$\00\00\00\05\00\00\00" }>, align 8
@alloc6 = private unnamed_addr constant <{ [4 x i8] }> <{ [4 x i8] c"abc\00" }>, align 1
@alloc213 = private unnamed_addr constant <{ i8*, [16 x i8] }> <{ i8* getelementptr inbounds (<{ [13 x i8] }>, <{ [13 x i8] }>* @alloc308, i32 0, i32 0, i32 0), [16 x i8] c"\0D\00\00\00\00\00\00\00+\00\00\00\09\00\00\00" }>, align 8
@alloc215 = private unnamed_addr constant <{ i8*, [16 x i8] }> <{ i8* getelementptr inbounds (<{ [13 x i8] }>, <{ [13 x i8] }>* @alloc308, i32 0, i32 0, i32 0), [16 x i8] c"\0D\00\00\00\00\00\00\00/\00\00\00\09\00\00\00" }>, align 8
@alloc217 = private unnamed_addr constant <{ i8*, [16 x i8] }> <{ i8* getelementptr inbounds (<{ [13 x i8] }>, <{ [13 x i8] }>* @alloc308, i32 0, i32 0, i32 0), [16 x i8] c"\0D\00\00\00\00\00\00\003\00\00\00\09\00\00\00" }>, align 8
@alloc219 = private unnamed_addr constant <{ i8*, [16 x i8] }> <{ i8* getelementptr inbounds (<{ [13 x i8] }>, <{ [13 x i8] }>* @alloc308, i32 0, i32 0, i32 0), [16 x i8] c"\0D\00\00\00\00\00\00\007\00\00\00\09\00\00\00" }>, align 8
@alloc221 = private unnamed_addr constant <{ i8*, [16 x i8] }> <{ i8* getelementptr inbounds (<{ [13 x i8] }>, <{ [13 x i8] }>* @alloc308, i32 0, i32 0, i32 0), [16 x i8] c"\0D\00\00\00\00\00\00\00@\00\00\00\09\00\00\00" }>, align 8
@alloc223 = private unnamed_addr constant <{ i8*, [16 x i8] }> <{ i8* getelementptr inbounds (<{ [13 x i8] }>, <{ [13 x i8] }>* @alloc308, i32 0, i32 0, i32 0), [16 x i8] c"\0D\00\00\00\00\00\00\00D\00\00\00\09\00\00\00" }>, align 8
@alloc225 = private unnamed_addr constant <{ i8*, [16 x i8] }> <{ i8* getelementptr inbounds (<{ [13 x i8] }>, <{ [13 x i8] }>* @alloc308, i32 0, i32 0, i32 0), [16 x i8] c"\0D\00\00\00\00\00\00\00H\00\00\00\09\00\00\00" }>, align 8
@alloc227 = private unnamed_addr constant <{ i8*, [16 x i8] }> <{ i8* getelementptr inbounds (<{ [13 x i8] }>, <{ [13 x i8] }>* @alloc308, i32 0, i32 0, i32 0), [16 x i8] c"\0D\00\00\00\00\00\00\00M\00\00\00\09\00\00\00" }>, align 8
@alloc229 = private unnamed_addr constant <{ i8*, [16 x i8] }> <{ i8* getelementptr inbounds (<{ [13 x i8] }>, <{ [13 x i8] }>* @alloc308, i32 0, i32 0, i32 0), [16 x i8] c"\0D\00\00\00\00\00\00\00Q\00\00\00\09\00\00\00" }>, align 8
@alloc231 = private unnamed_addr constant <{ i8*, [16 x i8] }> <{ i8* getelementptr inbounds (<{ [13 x i8] }>, <{ [13 x i8] }>* @alloc308, i32 0, i32 0, i32 0), [16 x i8] c"\0D\00\00\00\00\00\00\00W\00\00\00\09\00\00\00" }>, align 8
@alloc233 = private unnamed_addr constant <{ i8*, [16 x i8] }> <{ i8* getelementptr inbounds (<{ [13 x i8] }>, <{ [13 x i8] }>* @alloc308, i32 0, i32 0, i32 0), [16 x i8] c"\0D\00\00\00\00\00\00\00[\00\00\00\09\00\00\00" }>, align 8
@alloc235 = private unnamed_addr constant <{ i8*, [16 x i8] }> <{ i8* getelementptr inbounds (<{ [13 x i8] }>, <{ [13 x i8] }>* @alloc308, i32 0, i32 0, i32 0), [16 x i8] c"\0D\00\00\00\00\00\00\00_\00\00\00\09\00\00\00" }>, align 8
@alloc237 = private unnamed_addr constant <{ i8*, [16 x i8] }> <{ i8* getelementptr inbounds (<{ [13 x i8] }>, <{ [13 x i8] }>* @alloc308, i32 0, i32 0, i32 0), [16 x i8] c"\0D\00\00\00\00\00\00\00c\00\00\00\09\00\00\00" }>, align 8
@alloc7 = private unnamed_addr constant <{ [5 x i8] }> <{ [5 x i8] c"abcd\00" }>, align 1
@alloc239 = private unnamed_addr constant <{ i8*, [16 x i8] }> <{ i8* getelementptr inbounds (<{ [13 x i8] }>, <{ [13 x i8] }>* @alloc308, i32 0, i32 0, i32 0), [16 x i8] c"\0D\00\00\00\00\00\00\00k\00\00\00\09\00\00\00" }>, align 8
@alloc241 = private unnamed_addr constant <{ i8*, [16 x i8] }> <{ i8* getelementptr inbounds (<{ [13 x i8] }>, <{ [13 x i8] }>* @alloc308, i32 0, i32 0, i32 0), [16 x i8] c"\0D\00\00\00\00\00\00\00o\00\00\00\09\00\00\00" }>, align 8
@alloc243 = private unnamed_addr constant <{ i8*, [16 x i8] }> <{ i8* getelementptr inbounds (<{ [13 x i8] }>, <{ [13 x i8] }>* @alloc308, i32 0, i32 0, i32 0), [16 x i8] c"\0D\00\00\00\00\00\00\00s\00\00\00\09\00\00\00" }>, align 8
@alloc245 = private unnamed_addr constant <{ i8*, [16 x i8] }> <{ i8* getelementptr inbounds (<{ [13 x i8] }>, <{ [13 x i8] }>* @alloc308, i32 0, i32 0, i32 0), [16 x i8] c"\0D\00\00\00\00\00\00\00w\00\00\00\09\00\00\00" }>, align 8
@alloc8 = private unnamed_addr constant <{ [3 x i8] }> <{ [3 x i8] c"abc" }>, align 1
@alloc247 = private unnamed_addr constant <{ i8*, [16 x i8] }> <{ i8* getelementptr inbounds (<{ [13 x i8] }>, <{ [13 x i8] }>* @alloc308, i32 0, i32 0, i32 0), [16 x i8] c"\0D\00\00\00\00\00\00\00\7F\00\00\00\09\00\00\00" }>, align 8
@alloc249 = private unnamed_addr constant <{ i8*, [16 x i8] }> <{ i8* getelementptr inbounds (<{ [13 x i8] }>, <{ [13 x i8] }>* @alloc308, i32 0, i32 0, i32 0), [16 x i8] c"\0D\00\00\00\00\00\00\00\83\00\00\00\09\00\00\00" }>, align 8
@alloc251 = private unnamed_addr constant <{ i8*, [16 x i8] }> <{ i8* getelementptr inbounds (<{ [13 x i8] }>, <{ [13 x i8] }>* @alloc308, i32 0, i32 0, i32 0), [16 x i8] c"\0D\00\00\00\00\00\00\00\87\00\00\00\09\00\00\00" }>, align 8
@alloc9 = private unnamed_addr constant <{ [20 x i8] }> <{ [20 x i8] c"abc\00\00\00\00\00\00\00\00\00\00\00\00\00\00\00\00\00" }>, align 1
@alloc253 = private unnamed_addr constant <{ i8*, [16 x i8] }> <{ i8* getelementptr inbounds (<{ [13 x i8] }>, <{ [13 x i8] }>* @alloc308, i32 0, i32 0, i32 0), [16 x i8] c"\0D\00\00\00\00\00\00\00\8F\00\00\00\09\00\00\00" }>, align 8
@alloc255 = private unnamed_addr constant <{ i8*, [16 x i8] }> <{ i8* getelementptr inbounds (<{ [13 x i8] }>, <{ [13 x i8] }>* @alloc308, i32 0, i32 0, i32 0), [16 x i8] c"\0D\00\00\00\00\00\00\00\93\00\00\00\09\00\00\00" }>, align 8
@alloc257 = private unnamed_addr constant <{ i8*, [16 x i8] }> <{ i8* getelementptr inbounds (<{ [13 x i8] }>, <{ [13 x i8] }>* @alloc308, i32 0, i32 0, i32 0), [16 x i8] c"\0D\00\00\00\00\00\00\00\97\00\00\00\09\00\00\00" }>, align 8
@alloc259 = private unnamed_addr constant <{ i8*, [16 x i8] }> <{ i8* getelementptr inbounds (<{ [13 x i8] }>, <{ [13 x i8] }>* @alloc308, i32 0, i32 0, i32 0), [16 x i8] c"\0D\00\00\00\00\00\00\00\9B\00\00\00\09\00\00\00" }>, align 8
@alloc261 = private unnamed_addr constant <{ i8*, [16 x i8] }> <{ i8* getelementptr inbounds (<{ [13 x i8] }>, <{ [13 x i8] }>* @alloc308, i32 0, i32 0, i32 0), [16 x i8] c"\0D\00\00\00\00\00\00\00\9F\00\00\00\09\00\00\00" }>, align 8
@alloc263 = private unnamed_addr constant <{ i8*, [16 x i8] }> <{ i8* getelementptr inbounds (<{ [13 x i8] }>, <{ [13 x i8] }>* @alloc308, i32 0, i32 0, i32 0), [16 x i8] c"\0D\00\00\00\00\00\00\00\A3\00\00\00\09\00\00\00" }>, align 8
@alloc265 = private unnamed_addr constant <{ i8*, [16 x i8] }> <{ i8* getelementptr inbounds (<{ [13 x i8] }>, <{ [13 x i8] }>* @alloc308, i32 0, i32 0, i32 0), [16 x i8] c"\0D\00\00\00\00\00\00\00\A7\00\00\00\09\00\00\00" }>, align 8
@alloc10 = private unnamed_addr constant <{ [8 x i8] }> <{ [8 x i8] c"x\00\00\00\00\00\00\00" }>, align 1
@alloc267 = private unnamed_addr constant <{ i8*, [16 x i8] }> <{ i8* getelementptr inbounds (<{ [13 x i8] }>, <{ [13 x i8] }>* @alloc308, i32 0, i32 0, i32 0), [16 x i8] c"\0D\00\00\00\00\00\00\00\AF\00\00\00\09\00\00\00" }>, align 8
@alloc269 = private unnamed_addr constant <{ i8*, [16 x i8] }> <{ i8* getelementptr inbounds (<{ [13 x i8] }>, <{ [13 x i8] }>* @alloc308, i32 0, i32 0, i32 0), [16 x i8] c"\0D\00\00\00\00\00\00\00\B2\00\00\00\09\00\00\00" }>, align 8
@alloc11 = private unnamed_addr constant <{ [12 x i8] }> <{ [12 x i8] c"x\00\00\00\00\00\00\00\00\00\00\00" }>, align 1
@alloc271 = private unnamed_addr constant <{ i8*, [16 x i8] }> <{ i8* getelementptr inbounds (<{ [13 x i8] }>, <{ [13 x i8] }>* @alloc308, i32 0, i32 0, i32 0), [16 x i8] c"\0D\00\00\00\00\00\00\00\B9\00\00\00\09\00\00\00" }>, align 8
@alloc273 = private unnamed_addr constant <{ i8*, [16 x i8] }> <{ i8* getelementptr inbounds (<{ [13 x i8] }>, <{ [13 x i8] }>* @alloc308, i32 0, i32 0, i32 0), [16 x i8] c"\0D\00\00\00\00\00\00\00\BC\00\00\00\09\00\00\00" }>, align 8
@alloc275 = private unnamed_addr constant <{ i8*, [16 x i8] }> <{ i8* getelementptr inbounds (<{ [13 x i8] }>, <{ [13 x i8] }>* @alloc308, i32 0, i32 0, i32 0), [16 x i8] c"\0D\00\00\00\00\00\00\00\BF\00\00\00\09\00\00\00" }>, align 8
@alloc12 = private unnamed_addr constant <{ [4 x i8] }> <{ [4 x i8] c"x\00\00\00" }>, align 1
@alloc277 = private unnamed_addr constant <{ i8*, [16 x i8] }> <{ i8* getelementptr inbounds (<{ [13 x i8] }>, <{ [13 x i8] }>* @alloc308, i32 0, i32 0, i32 0), [16 x i8] c"\0D\00\00\00\00\00\00\00\C6\00\00\00\09\00\00\00" }>, align 8
@alloc279 = private unnamed_addr constant <{ i8*, [16 x i8] }> <{ i8* getelementptr inbounds (<{ [13 x i8] }>, <{ [13 x i8] }>* @alloc308, i32 0, i32 0, i32 0), [16 x i8] c"\0D\00\00\00\00\00\00\00\C9\00\00\00\09\00\00\00" }>, align 8
@alloc281 = private unnamed_addr constant <{ i8*, [16 x i8] }> <{ i8* getelementptr inbounds (<{ [13 x i8] }>, <{ [13 x i8] }>* @alloc308, i32 0, i32 0, i32 0), [16 x i8] c"\0D\00\00\00\00\00\00\00\CD\00\00\00\09\00\00\00" }>, align 8
@alloc283 = private unnamed_addr constant <{ i8*, [16 x i8] }> <{ i8* getelementptr inbounds (<{ [13 x i8] }>, <{ [13 x i8] }>* @alloc308, i32 0, i32 0, i32 0), [16 x i8] c"\0D\00\00\00\00\00\00\00\D1\00\00\00\09\00\00\00" }>, align 8
@alloc285 = private unnamed_addr constant <{ i8*, [16 x i8] }> <{ i8* getelementptr inbounds (<{ [13 x i8] }>, <{ [13 x i8] }>* @alloc308, i32 0, i32 0, i32 0), [16 x i8] c"\0D\00\00\00\00\00\00\00\D5\00\00\00\09\00\00\00" }>, align 8
@alloc287 = private unnamed_addr constant <{ i8*, [16 x i8] }> <{ i8* getelementptr inbounds (<{ [13 x i8] }>, <{ [13 x i8] }>* @alloc308, i32 0, i32 0, i32 0), [16 x i8] c"\0D\00\00\00\00\00\00\00\D9\00\00\00\09\00\00\00" }>, align 8
@alloc289 = private unnamed_addr constant <{ i8*, [16 x i8] }> <{ i8* getelementptr inbounds (<{ [13 x i8] }>, <{ [13 x i8] }>* @alloc308, i32 0, i32 0, i32 0), [16 x i8] c"\0D\00\00\00\00\00\00\00\DD\00\00\00\09\00\00\00" }>, align 8
@alloc291 = private unnamed_addr constant <{ i8*, [16 x i8] }> <{ i8* getelementptr inbounds (<{ [13 x i8] }>, <{ [13 x i8] }>* @alloc308, i32 0, i32 0, i32 0), [16 x i8] c"\0D\00\00\00\00\00\00\00\E1\00\00\00\09\00\00\00" }>, align 8
@alloc293 = private unnamed_addr constant <{ i8*, [16 x i8] }> <{ i8* getelementptr inbounds (<{ [13 x i8] }>, <{ [13 x i8] }>* @alloc308, i32 0, i32 0, i32 0), [16 x i8] c"\0D\00\00\00\00\00\00\00\E5\00\00\00\09\00\00\00" }>, align 8
@alloc295 = private unnamed_addr constant <{ i8*, [16 x i8] }> <{ i8* getelementptr inbounds (<{ [13 x i8] }>, <{ [13 x i8] }>* @alloc308, i32 0, i32 0, i32 0), [16 x i8] c"\0D\00\00\00\00\00\00\00\E9\00\00\00\09\00\00\00" }>, align 8
@alloc297 = private unnamed_addr constant <{ i8*, [16 x i8] }> <{ i8* getelementptr inbounds (<{ [13 x i8] }>, <{ [13 x i8] }>* @alloc308, i32 0, i32 0, i32 0), [16 x i8] c"\0D\00\00\00\00\00\00\00\ED\00\00\00\09\00\00\00" }>, align 8
@alloc299 = private unnamed_addr constant <{ i8*, [16 x i8] }> <{ i8* getelementptr inbounds (<{ [13 x i8] }>, <{ [13 x i8] }>* @alloc308, i32 0, i32 0, i32 0), [16 x i8] c"\0D\00\00\00\00\00\00\00\F1\00\00\00\09\00\00\00" }>, align 8
@alloc301 = private unnamed_addr constant <{ i8*, [16 x i8] }> <{ i8* getelementptr inbounds (<{ [13 x i8] }>, <{ [13 x i8] }>* @alloc308, i32 0, i32 0, i32 0), [16 x i8] c"\0D\00\00\00\00\00\00\00\F5\00\00\00\09\00\00\00" }>, align 8
@alloc303 = private unnamed_addr constant <{ i8*, [16 x i8] }> <{ i8* getelementptr inbounds (<{ [13 x i8] }>, <{ [13 x i8] }>* @alloc308, i32 0, i32 0, i32 0), [16 x i8] c"\0D\00\00\00\00\00\00\00\F9\00\00\00\09\00\00\00" }>, align 8
@alloc305 = private unnamed_addr constant <{ i8*, [16 x i8] }> <{ i8* getelementptr inbounds (<{ [13 x i8] }>, <{ [13 x i8] }>* @alloc308, i32 0, i32 0, i32 0), [16 x i8] c"\0D\00\00\00\00\00\00\00\FD\00\00\00\09\00\00\00" }>, align 8
@alloc307 = private unnamed_addr constant <{ i8*, [16 x i8] }> <{ i8* getelementptr inbounds (<{ [13 x i8] }>, <{ [13 x i8] }>* @alloc308, i32 0, i32 0, i32 0), [16 x i8] c"\0D\00\00\00\00\00\00\00\01\01\00\00\09\00\00\00" }>, align 8
@alloc309 = private unnamed_addr constant <{ i8*, [16 x i8] }> <{ i8* getelementptr inbounds (<{ [13 x i8] }>, <{ [13 x i8] }>* @alloc308, i32 0, i32 0, i32 0), [16 x i8] c"\0D\00\00\00\00\00\00\00\05\01\00\00\09\00\00\00" }>, align 8
@alloc382 = private unnamed_addr constant <{ [22 x i8] }> <{ [22 x i8] c"src/variable_arrays.rs" }>, align 1
@alloc311 = private unnamed_addr constant <{ i8*, [16 x i8] }> <{ i8* getelementptr inbounds (<{ [22 x i8] }>, <{ [22 x i8] }>* @alloc382, i32 0, i32 0, i32 0), [16 x i8] c"\16\00\00\00\00\00\00\00\10\00\00\00\0F\00\00\00" }>, align 8
@str.1 = internal constant [33 x i8] c"attempt to multiply with overflow"
@alloc313 = private unnamed_addr constant <{ i8*, [16 x i8] }> <{ i8* getelementptr inbounds (<{ [22 x i8] }>, <{ [22 x i8] }>* @alloc382, i32 0, i32 0, i32 0), [16 x i8] c"\16\00\00\00\00\00\00\00\16\00\00\00\13\00\00\00" }>, align 8
@alloc315 = private unnamed_addr constant <{ i8*, [16 x i8] }> <{ i8* getelementptr inbounds (<{ [22 x i8] }>, <{ [22 x i8] }>* @alloc382, i32 0, i32 0, i32 0), [16 x i8] c"\16\00\00\00\00\00\00\00\1A\00\00\00\1B\00\00\00" }>, align 8
@alloc317 = private unnamed_addr constant <{ i8*, [16 x i8] }> <{ i8* getelementptr inbounds (<{ [22 x i8] }>, <{ [22 x i8] }>* @alloc382, i32 0, i32 0, i32 0), [16 x i8] c"\16\00\00\00\00\00\00\00\1C\00\00\00*\00\00\00" }>, align 8
@alloc319 = private unnamed_addr constant <{ i8*, [16 x i8] }> <{ i8* getelementptr inbounds (<{ [22 x i8] }>, <{ [22 x i8] }>* @alloc382, i32 0, i32 0, i32 0), [16 x i8] c"\16\00\00\00\00\00\00\00\1C\00\00\00\1D\00\00\00" }>, align 8
@alloc321 = private unnamed_addr constant <{ i8*, [16 x i8] }> <{ i8* getelementptr inbounds (<{ [22 x i8] }>, <{ [22 x i8] }>* @alloc382, i32 0, i32 0, i32 0), [16 x i8] c"\16\00\00\00\00\00\00\00\1D\00\00\00\1D\00\00\00" }>, align 8
@alloc323 = private unnamed_addr constant <{ i8*, [16 x i8] }> <{ i8* getelementptr inbounds (<{ [22 x i8] }>, <{ [22 x i8] }>* @alloc382, i32 0, i32 0, i32 0), [16 x i8] c"\16\00\00\00\00\00\00\00\1F\00\00\00\11\00\00\00" }>, align 8
@alloc325 = private unnamed_addr constant <{ i8*, [16 x i8] }> <{ i8* getelementptr inbounds (<{ [22 x i8] }>, <{ [22 x i8] }>* @alloc382, i32 0, i32 0, i32 0), [16 x i8] c"\16\00\00\00\00\00\00\00\22\00\00\00\0D\00\00\00" }>, align 8
@alloc327 = private unnamed_addr constant <{ i8*, [16 x i8] }> <{ i8* getelementptr inbounds (<{ [22 x i8] }>, <{ [22 x i8] }>* @alloc382, i32 0, i32 0, i32 0), [16 x i8] c"\16\00\00\00\00\00\00\00%\00\00\00\09\00\00\00" }>, align 8
@alloc329 = private unnamed_addr constant <{ i8*, [16 x i8] }> <{ i8* getelementptr inbounds (<{ [22 x i8] }>, <{ [22 x i8] }>* @alloc382, i32 0, i32 0, i32 0), [16 x i8] c"\16\00\00\00\00\00\00\00)\00\00\001\00\00\00" }>, align 8
@alloc331 = private unnamed_addr constant <{ i8*, [16 x i8] }> <{ i8* getelementptr inbounds (<{ [22 x i8] }>, <{ [22 x i8] }>* @alloc382, i32 0, i32 0, i32 0), [16 x i8] c"\16\00\00\00\00\00\00\00)\00\00\00\11\00\00\00" }>, align 8
@alloc333 = private unnamed_addr constant <{ i8*, [16 x i8] }> <{ i8* getelementptr inbounds (<{ [22 x i8] }>, <{ [22 x i8] }>* @alloc382, i32 0, i32 0, i32 0), [16 x i8] c"\16\00\00\00\00\00\00\00*\00\00\00\11\00\00\00" }>, align 8
@alloc335 = private unnamed_addr constant <{ i8*, [16 x i8] }> <{ i8* getelementptr inbounds (<{ [22 x i8] }>, <{ [22 x i8] }>* @alloc382, i32 0, i32 0, i32 0), [16 x i8] c"\16\00\00\00\00\00\00\003\00\00\00\0F\00\00\00" }>, align 8
@alloc337 = private unnamed_addr constant <{ i8*, [16 x i8] }> <{ i8* getelementptr inbounds (<{ [22 x i8] }>, <{ [22 x i8] }>* @alloc382, i32 0, i32 0, i32 0), [16 x i8] c"\16\00\00\00\00\00\00\009\00\00\00\13\00\00\00" }>, align 8
@alloc339 = private unnamed_addr constant <{ i8*, [16 x i8] }> <{ i8* getelementptr inbounds (<{ [22 x i8] }>, <{ [22 x i8] }>* @alloc382, i32 0, i32 0, i32 0), [16 x i8] c"\16\00\00\00\00\00\00\00=\00\00\00\1B\00\00\00" }>, align 8
@alloc341 = private unnamed_addr constant <{ i8*, [16 x i8] }> <{ i8* getelementptr inbounds (<{ [22 x i8] }>, <{ [22 x i8] }>* @alloc382, i32 0, i32 0, i32 0), [16 x i8] c"\16\00\00\00\00\00\00\00?\00\00\00*\00\00\00" }>, align 8
@alloc343 = private unnamed_addr constant <{ i8*, [16 x i8] }> <{ i8* getelementptr inbounds (<{ [22 x i8] }>, <{ [22 x i8] }>* @alloc382, i32 0, i32 0, i32 0), [16 x i8] c"\16\00\00\00\00\00\00\00?\00\00\00\1D\00\00\00" }>, align 8
@alloc345 = private unnamed_addr constant <{ i8*, [16 x i8] }> <{ i8* getelementptr inbounds (<{ [22 x i8] }>, <{ [22 x i8] }>* @alloc382, i32 0, i32 0, i32 0), [16 x i8] c"\16\00\00\00\00\00\00\00@\00\00\00\1D\00\00\00" }>, align 8
@alloc347 = private unnamed_addr constant <{ i8*, [16 x i8] }> <{ i8* getelementptr inbounds (<{ [22 x i8] }>, <{ [22 x i8] }>* @alloc382, i32 0, i32 0, i32 0), [16 x i8] c"\16\00\00\00\00\00\00\00B\00\00\00\11\00\00\00" }>, align 8
@alloc349 = private unnamed_addr constant <{ i8*, [16 x i8] }> <{ i8* getelementptr inbounds (<{ [22 x i8] }>, <{ [22 x i8] }>* @alloc382, i32 0, i32 0, i32 0), [16 x i8] c"\16\00\00\00\00\00\00\00E\00\00\00\0D\00\00\00" }>, align 8
@alloc351 = private unnamed_addr constant <{ i8*, [16 x i8] }> <{ i8* getelementptr inbounds (<{ [22 x i8] }>, <{ [22 x i8] }>* @alloc382, i32 0, i32 0, i32 0), [16 x i8] c"\16\00\00\00\00\00\00\00H\00\00\00\09\00\00\00" }>, align 8
@alloc353 = private unnamed_addr constant <{ i8*, [16 x i8] }> <{ i8* getelementptr inbounds (<{ [22 x i8] }>, <{ [22 x i8] }>* @alloc382, i32 0, i32 0, i32 0), [16 x i8] c"\16\00\00\00\00\00\00\00a\00\00\00\1B\00\00\00" }>, align 8
@alloc355 = private unnamed_addr constant <{ i8*, [16 x i8] }> <{ i8* getelementptr inbounds (<{ [22 x i8] }>, <{ [22 x i8] }>* @alloc382, i32 0, i32 0, i32 0), [16 x i8] c"\16\00\00\00\00\00\00\00b\00\00\000\00\00\00" }>, align 8
@alloc357 = private unnamed_addr constant <{ i8*, [16 x i8] }> <{ i8* getelementptr inbounds (<{ [22 x i8] }>, <{ [22 x i8] }>* @alloc382, i32 0, i32 0, i32 0), [16 x i8] c"\16\00\00\00\00\00\00\00c\00\00\00\11\00\00\00" }>, align 8
@alloc359 = private unnamed_addr constant <{ i8*, [16 x i8] }> <{ i8* getelementptr inbounds (<{ [22 x i8] }>, <{ [22 x i8] }>* @alloc382, i32 0, i32 0, i32 0), [16 x i8] c"\16\00\00\00\00\00\00\00f\00\00\00\0D\00\00\00" }>, align 8
@alloc361 = private unnamed_addr constant <{ i8*, [16 x i8] }> <{ i8* getelementptr inbounds (<{ [22 x i8] }>, <{ [22 x i8] }>* @alloc382, i32 0, i32 0, i32 0), [16 x i8] c"\16\00\00\00\00\00\00\00i\00\00\00\09\00\00\00" }>, align 8
@alloc363 = private unnamed_addr constant <{ i8*, [16 x i8] }> <{ i8* getelementptr inbounds (<{ [22 x i8] }>, <{ [22 x i8] }>* @alloc382, i32 0, i32 0, i32 0), [16 x i8] c"\16\00\00\00\00\00\00\00q\00\00\003\00\00\00" }>, align 8
@alloc365 = private unnamed_addr constant <{ i8*, [16 x i8] }> <{ i8* getelementptr inbounds (<{ [22 x i8] }>, <{ [22 x i8] }>* @alloc382, i32 0, i32 0, i32 0), [16 x i8] c"\16\00\00\00\00\00\00\00s\00\00\00\13\00\00\00" }>, align 8
@alloc367 = private unnamed_addr constant <{ i8*, [16 x i8] }> <{ i8* getelementptr inbounds (<{ [22 x i8] }>, <{ [22 x i8] }>* @alloc382, i32 0, i32 0, i32 0), [16 x i8] c"\16\00\00\00\00\00\00\00u\00\00\00\09\00\00\00" }>, align 8
@alloc369 = private unnamed_addr constant <{ i8*, [16 x i8] }> <{ i8* getelementptr inbounds (<{ [22 x i8] }>, <{ [22 x i8] }>* @alloc382, i32 0, i32 0, i32 0), [16 x i8] c"\16\00\00\00\00\00\00\00\96\00\00\00\1B\00\00\00" }>, align 8
@alloc371 = private unnamed_addr constant <{ i8*, [16 x i8] }> <{ i8* getelementptr inbounds (<{ [22 x i8] }>, <{ [22 x i8] }>* @alloc382, i32 0, i32 0, i32 0), [16 x i8] c"\16\00\00\00\00\00\00\00\97\00\00\000\00\00\00" }>, align 8
@alloc373 = private unnamed_addr constant <{ i8*, [16 x i8] }> <{ i8* getelementptr inbounds (<{ [22 x i8] }>, <{ [22 x i8] }>* @alloc382, i32 0, i32 0, i32 0), [16 x i8] c"\16\00\00\00\00\00\00\00\98\00\00\00\11\00\00\00" }>, align 8
@alloc375 = private unnamed_addr constant <{ i8*, [16 x i8] }> <{ i8* getelementptr inbounds (<{ [22 x i8] }>, <{ [22 x i8] }>* @alloc382, i32 0, i32 0, i32 0), [16 x i8] c"\16\00\00\00\00\00\00\00\9B\00\00\00\0D\00\00\00" }>, align 8
@alloc377 = private unnamed_addr constant <{ i8*, [16 x i8] }> <{ i8* getelementptr inbounds (<{ [22 x i8] }>, <{ [22 x i8] }>* @alloc382, i32 0, i32 0, i32 0), [16 x i8] c"\16\00\00\00\00\00\00\00\9E\00\00\00\09\00\00\00" }>, align 8
@alloc379 = private unnamed_addr constant <{ i8*, [16 x i8] }> <{ i8* getelementptr inbounds (<{ [22 x i8] }>, <{ [22 x i8] }>* @alloc382, i32 0, i32 0, i32 0), [16 x i8] c"\16\00\00\00\00\00\00\00\AA\00\00\00&\00\00\00" }>, align 8
@alloc381 = private unnamed_addr constant <{ i8*, [16 x i8] }> <{ i8* getelementptr inbounds (<{ [22 x i8] }>, <{ [22 x i8] }>* @alloc382, i32 0, i32 0, i32 0), [16 x i8] c"\16\00\00\00\00\00\00\00\AC\00\00\00\13\00\00\00" }>, align 8
@alloc383 = private unnamed_addr constant <{ i8*, [16 x i8] }> <{ i8* getelementptr inbounds (<{ [22 x i8] }>, <{ [22 x i8] }>* @alloc382, i32 0, i32 0, i32 0), [16 x i8] c"\16\00\00\00\00\00\00\00\AE\00\00\00\09\00\00\00" }>, align 8
@alloc384 = private unnamed_addr constant <{ [24 x i8] }> <{ [24 x i8] c"src/incomplete_arrays.rs" }>, align 1
@alloc385 = private unnamed_addr constant <{ i8*, [16 x i8] }> <{ i8* getelementptr inbounds (<{ [24 x i8] }>, <{ [24 x i8] }>* @alloc384, i32 0, i32 0, i32 0), [16 x i8] c"\18\00\00\00\00\00\00\00D\00\00\00\09\00\00\00" }>, align 8

; <core::ptr::non_null::NonNull<T> as core::convert::From<core::ptr::unique::Unique<T>>>::from
; Function Attrs: inlinehint nonlazybind uwtable
define i8* @"_ZN119_$LT$core..ptr..non_null..NonNull$LT$T$GT$$u20$as$u20$core..convert..From$LT$core..ptr..unique..Unique$LT$T$GT$$GT$$GT$4from17h90c671efbcbc3846E"(i8* %unique) unnamed_addr #0 !dbg !120 {
start:
  %ptr.dbg.spill = alloca i8*, align 8
  %self.dbg.spill1 = alloca i8*, align 8
  %self.dbg.spill = alloca i8*, align 8
  %unique.dbg.spill = alloca i8*, align 8
  %0 = alloca i8*, align 8
  store i8* %unique, i8** %unique.dbg.spill, align 8
  call void @llvm.dbg.declare(metadata i8** %unique.dbg.spill, metadata !142, metadata !DIExpression()), !dbg !143
  store i8* %unique, i8** %self.dbg.spill, align 8, !dbg !144
  call void @llvm.dbg.declare(metadata i8** %self.dbg.spill, metadata !145, metadata !DIExpression()), !dbg !153
  store i8* %unique, i8** %self.dbg.spill1, align 8, !dbg !153
  call void @llvm.dbg.declare(metadata i8** %self.dbg.spill1, metadata !154, metadata !DIExpression()), !dbg !159
  store i8* %unique, i8** %ptr.dbg.spill, align 8, !dbg !159
  call void @llvm.dbg.declare(metadata i8** %ptr.dbg.spill, metadata !161, metadata !DIExpression()), !dbg !166
  store i8* %unique, i8** %0, align 8, !dbg !166
  %1 = load i8*, i8** %0, align 8, !dbg !168, !nonnull !140, !noundef !140
  ret i8* %1, !dbg !168
}

; <alloc::collections::TryReserveError as core::convert::From<alloc::collections::TryReserveErrorKind>>::from
; Function Attrs: inlinehint nonlazybind uwtable
define internal { i64, i64 } @"_ZN122_$LT$alloc..collections..TryReserveError$u20$as$u20$core..convert..From$LT$alloc..collections..TryReserveErrorKind$GT$$GT$4from17h07c1f08a15bfc68eE"(i64 %kind.0, i64 %kind.1) unnamed_addr #0 !dbg !169 {
start:
  %kind.dbg.spill = alloca { i64, i64 }, align 8
  %0 = alloca { i64, i64 }, align 8
  %1 = getelementptr inbounds { i64, i64 }, { i64, i64 }* %kind.dbg.spill, i32 0, i32 0
  store i64 %kind.0, i64* %1, align 8
  %2 = getelementptr inbounds { i64, i64 }, { i64, i64 }* %kind.dbg.spill, i32 0, i32 1
  store i64 %kind.1, i64* %2, align 8
  call void @llvm.dbg.declare(metadata { i64, i64 }* %kind.dbg.spill, metadata !202, metadata !DIExpression()), !dbg !203
  %3 = getelementptr inbounds { i64, i64 }, { i64, i64 }* %0, i32 0, i32 0, !dbg !204
  store i64 %kind.0, i64* %3, align 8, !dbg !204
  %4 = getelementptr inbounds { i64, i64 }, { i64, i64 }* %0, i32 0, i32 1, !dbg !204
  store i64 %kind.1, i64* %4, align 8, !dbg !204
  %5 = getelementptr inbounds { i64, i64 }, { i64, i64 }* %0, i32 0, i32 0, !dbg !205
  %6 = load i64, i64* %5, align 8, !dbg !205
  %7 = getelementptr inbounds { i64, i64 }, { i64, i64 }* %0, i32 0, i32 1, !dbg !205
  %8 = load i64, i64* %7, align 8, !dbg !205, !range !206, !noundef !140
  %9 = insertvalue { i64, i64 } undef, i64 %6, 0, !dbg !205
  %10 = insertvalue { i64, i64 } %9, i64 %8, 1, !dbg !205
  ret { i64, i64 } %10, !dbg !205
}

; <usize as core::iter::range::Step>::forward_unchecked
; Function Attrs: inlinehint nonlazybind uwtable
define internal i64 @"_ZN49_$LT$usize$u20$as$u20$core..iter..range..Step$GT$17forward_unchecked17hed6d6ab6e2392a88E"(i64 %start1, i64 %n) unnamed_addr #0 !dbg !207 {
start:
  %0 = alloca i64, align 8
  %rhs.dbg.spill = alloca i64, align 8
  %self.dbg.spill = alloca i64, align 8
  %n.dbg.spill = alloca i64, align 8
  %start.dbg.spill = alloca i64, align 8
  store i64 %start1, i64* %start.dbg.spill, align 8
  call void @llvm.dbg.declare(metadata i64* %start.dbg.spill, metadata !215, metadata !DIExpression()), !dbg !217
  store i64 %n, i64* %n.dbg.spill, align 8
  call void @llvm.dbg.declare(metadata i64* %n.dbg.spill, metadata !216, metadata !DIExpression()), !dbg !218
  store i64 %start1, i64* %self.dbg.spill, align 8, !dbg !219
  call void @llvm.dbg.declare(metadata i64* %self.dbg.spill, metadata !220, metadata !DIExpression()), !dbg !228
  store i64 %n, i64* %rhs.dbg.spill, align 8, !dbg !229
  call void @llvm.dbg.declare(metadata i64* %rhs.dbg.spill, metadata !227, metadata !DIExpression()), !dbg !228
  %1 = add nuw i64 %start1, %n, !dbg !228
  store i64 %1, i64* %0, align 8, !dbg !228
  %2 = load i64, i64* %0, align 8, !dbg !228
  br label %bb1, !dbg !228

bb1:                                              ; preds = %start
  ret i64 %2, !dbg !230
}

; core::cmp::Ord::max
; Function Attrs: inlinehint nonlazybind uwtable
define i64 @_ZN4core3cmp3Ord3max17h87106b455f34e45bE(i64 %0, i64 %1) unnamed_addr #0 personality i32 (i32, i32, i64, %"unwind::libunwind::_Unwind_Exception"*, %"unwind::libunwind::_Unwind_Context"*)* @rust_eh_personality !dbg !231 {
start:
  %2 = alloca { i8*, i32 }, align 8
  %_9 = alloca i8, align 1
  %_8 = alloca i8, align 1
  %_3 = alloca i8, align 1
  %3 = alloca i64, align 8
  %other = alloca i64, align 8
  %self = alloca i64, align 8
  store i64 %0, i64* %self, align 8
  store i64 %1, i64* %other, align 8
  call void @llvm.dbg.declare(metadata i64* %self, metadata !235, metadata !DIExpression()), !dbg !239
  call void @llvm.dbg.declare(metadata i64* %other, metadata !236, metadata !DIExpression()), !dbg !240
  store i8 1, i8* %_9, align 1, !dbg !241
  store i8 1, i8* %_8, align 1, !dbg !241
; invoke core::cmp::impls::<impl core::cmp::Ord for usize>::cmp
  %4 = invoke i8 @"_ZN4core3cmp5impls50_$LT$impl$u20$core..cmp..Ord$u20$for$u20$usize$GT$3cmp17h3d2a18e0790e5393E"(i64* align 8 %self, i64* align 8 %other)
          to label %bb1 unwind label %cleanup, !dbg !241, !range !242

bb8:                                              ; preds = %cleanup
  br label %bb13, !dbg !243

cleanup:                                          ; preds = %start
  %5 = landingpad { i8*, i32 }
          cleanup
  %6 = extractvalue { i8*, i32 } %5, 0
  %7 = extractvalue { i8*, i32 } %5, 1
  %8 = getelementptr inbounds { i8*, i32 }, { i8*, i32 }* %2, i32 0, i32 0
  store i8* %6, i8** %8, align 8
  %9 = getelementptr inbounds { i8*, i32 }, { i8*, i32 }* %2, i32 0, i32 1
  store i32 %7, i32* %9, align 8
  br label %bb8

bb1:                                              ; preds = %start
  store i8 %4, i8* %_3, align 1, !dbg !241
  %_7 = load i8, i8* %_3, align 1, !dbg !241, !range !242, !noundef !140
  switch i8 %_7, label %bb3 [
    i8 -1, label %bb4
    i8 0, label %bb4
    i8 1, label %bb2
  ], !dbg !244

bb13:                                             ; preds = %bb8
  %10 = load i8, i8* %_9, align 1, !dbg !243, !range !245, !noundef !140
  %11 = trunc i8 %10 to i1, !dbg !243
  br i1 %11, label %bb12, label %bb9, !dbg !243

bb3:                                              ; preds = %bb1
  unreachable, !dbg !241

bb4:                                              ; preds = %bb1, %bb1
  store i8 0, i8* %_8, align 1, !dbg !246
  %12 = load i64, i64* %other, align 8, !dbg !246
  store i64 %12, i64* %3, align 8, !dbg !246
  br label %bb5, !dbg !246

bb2:                                              ; preds = %bb1
  store i8 0, i8* %_9, align 1, !dbg !247
  %13 = load i64, i64* %self, align 8, !dbg !247
  store i64 %13, i64* %3, align 8, !dbg !247
  br label %bb5, !dbg !247

bb5:                                              ; preds = %bb4, %bb2
  %14 = load i8, i8* %_8, align 1, !dbg !243, !range !245, !noundef !140
  %15 = trunc i8 %14 to i1, !dbg !243
  br i1 %15, label %bb10, label %bb6, !dbg !243

bb6:                                              ; preds = %bb10, %bb5
  %16 = load i8, i8* %_9, align 1, !dbg !243, !range !245, !noundef !140
  %17 = trunc i8 %16 to i1, !dbg !243
  br i1 %17, label %bb11, label %bb7, !dbg !243

bb10:                                             ; preds = %bb5
  br label %bb6, !dbg !243

bb9:                                              ; preds = %bb12, %bb13
  %18 = bitcast { i8*, i32 }* %2 to i8**, !dbg !248
  %19 = load i8*, i8** %18, align 8, !dbg !248
  %20 = getelementptr inbounds { i8*, i32 }, { i8*, i32 }* %2, i32 0, i32 1, !dbg !248
  %21 = load i32, i32* %20, align 8, !dbg !248
  %22 = insertvalue { i8*, i32 } undef, i8* %19, 0, !dbg !248
  %23 = insertvalue { i8*, i32 } %22, i32 %21, 1, !dbg !248
  resume { i8*, i32 } %23, !dbg !248

bb12:                                             ; preds = %bb13
  br label %bb9, !dbg !243

bb7:                                              ; preds = %bb11, %bb6
  %24 = load i64, i64* %3, align 8, !dbg !249
  ret i64 %24, !dbg !249

bb11:                                             ; preds = %bb6
  br label %bb7, !dbg !243
}

; core::cmp::impls::<impl core::cmp::Ord for usize>::cmp
; Function Attrs: inlinehint nonlazybind uwtable
define internal i8 @"_ZN4core3cmp5impls50_$LT$impl$u20$core..cmp..Ord$u20$for$u20$usize$GT$3cmp17h3d2a18e0790e5393E"(i64* align 8 %self, i64* align 8 %other) unnamed_addr #0 !dbg !250 {
start:
  %other.dbg.spill = alloca i64*, align 8
  %self.dbg.spill = alloca i64*, align 8
  %0 = alloca i8, align 1
  store i64* %self, i64** %self.dbg.spill, align 8
  call void @llvm.dbg.declare(metadata i64** %self.dbg.spill, metadata !257, metadata !DIExpression()), !dbg !259
  store i64* %other, i64** %other.dbg.spill, align 8
  call void @llvm.dbg.declare(metadata i64** %other.dbg.spill, metadata !258, metadata !DIExpression()), !dbg !260
  %_4 = load i64, i64* %self, align 8, !dbg !261
  %_5 = load i64, i64* %other, align 8, !dbg !262
  %_3 = icmp ult i64 %_4, %_5, !dbg !261
  br i1 %_3, label %bb1, label %bb2, !dbg !261

bb2:                                              ; preds = %start
  %_7 = load i64, i64* %self, align 8, !dbg !263
  %_8 = load i64, i64* %other, align 8, !dbg !264
  %_6 = icmp eq i64 %_7, %_8, !dbg !263
  br i1 %_6, label %bb3, label %bb4, !dbg !263

bb1:                                              ; preds = %start
  store i8 -1, i8* %0, align 1, !dbg !265
  br label %bb6, !dbg !266

bb6:                                              ; preds = %bb5, %bb1
  %1 = load i8, i8* %0, align 1, !dbg !267, !range !242, !noundef !140
  ret i8 %1, !dbg !267

bb4:                                              ; preds = %bb2
  store i8 1, i8* %0, align 1, !dbg !268
  br label %bb5, !dbg !269

bb3:                                              ; preds = %bb2
  store i8 0, i8* %0, align 1, !dbg !270
  br label %bb5, !dbg !269

bb5:                                              ; preds = %bb4, %bb3
  br label %bb6, !dbg !266
}

; core::cmp::impls::<impl core::cmp::PartialOrd for usize>::lt
; Function Attrs: inlinehint nonlazybind uwtable
define internal zeroext i1 @"_ZN4core3cmp5impls57_$LT$impl$u20$core..cmp..PartialOrd$u20$for$u20$usize$GT$2lt17hff8f36e2a393695fE"(i64* align 8 %self, i64* align 8 %other) unnamed_addr #0 !dbg !271 {
start:
  %other.dbg.spill = alloca i64*, align 8
  %self.dbg.spill = alloca i64*, align 8
  store i64* %self, i64** %self.dbg.spill, align 8
  call void @llvm.dbg.declare(metadata i64** %self.dbg.spill, metadata !277, metadata !DIExpression()), !dbg !279
  store i64* %other, i64** %other.dbg.spill, align 8
  call void @llvm.dbg.declare(metadata i64** %other.dbg.spill, metadata !278, metadata !DIExpression()), !dbg !280
  %_3 = load i64, i64* %self, align 8, !dbg !281
  %_4 = load i64, i64* %other, align 8, !dbg !282
  %0 = icmp ult i64 %_3, %_4, !dbg !281
  ret i1 %0, !dbg !283
}

; core::mem::replace
; Function Attrs: inlinehint nonlazybind uwtable
define i64 @_ZN4core3mem7replace17h1b0f877508390cefE(i64* align 8 %dest, i64 %src) unnamed_addr #0 personality i32 (i32, i32, i64, %"unwind::libunwind::_Unwind_Exception"*, %"unwind::libunwind::_Unwind_Context"*)* @rust_eh_personality !dbg !284 {
start:
  %dst.dbg.spill = alloca i64*, align 8
  %result.dbg.spill = alloca i64, align 8
  %slot.dbg.spill = alloca i64, align 8
  %0 = alloca { i8*, i32 }, align 8
  %self.dbg.spill3 = alloca i64, align 8
  %self.dbg.spill = alloca i64*, align 8
  %src.dbg.spill2 = alloca i64*, align 8
  %src.dbg.spill = alloca i64, align 8
  %dest.dbg.spill = alloca i64*, align 8
  %tmp = alloca i64, align 8
  %src1 = alloca i64, align 8
  store i64* %dest, i64** %dest.dbg.spill, align 8
  call void @llvm.dbg.declare(metadata i64** %dest.dbg.spill, metadata !290, metadata !DIExpression()), !dbg !296
  store i64 %src, i64* %src.dbg.spill, align 8
  call void @llvm.dbg.declare(metadata i64* %src.dbg.spill, metadata !291, metadata !DIExpression()), !dbg !297
  call void @llvm.dbg.declare(metadata i64* %src1, metadata !298, metadata !DIExpression()), !dbg !307
  call void @llvm.dbg.declare(metadata i64* %tmp, metadata !309, metadata !DIExpression()), !dbg !328
  store i64* %dest, i64** %src.dbg.spill2, align 8, !dbg !330
  call void @llvm.dbg.declare(metadata i64** %src.dbg.spill2, metadata !317, metadata !DIExpression()), !dbg !331
  %1 = bitcast i64* %tmp to {}*, !dbg !332
  store i64* %tmp, i64** %self.dbg.spill, align 8, !dbg !328
  call void @llvm.dbg.declare(metadata i64** %self.dbg.spill, metadata !339, metadata !DIExpression()), !dbg !346
  %2 = bitcast i64* %tmp to i8*, !dbg !328
  %3 = bitcast i64* %dest to i8*, !dbg !328
  call void @llvm.memcpy.p0i8.p0i8.i64(i8* align 8 %2, i8* align 8 %3, i64 8, i1 false), !dbg !328
  %self = load i64, i64* %tmp, align 8, !dbg !328
  store i64 %self, i64* %self.dbg.spill3, align 8, !dbg !328
  call void @llvm.dbg.declare(metadata i64* %self.dbg.spill3, metadata !348, metadata !DIExpression()), !dbg !367
  br label %bb4, !dbg !367

bb4:                                              ; preds = %start
  store i64 %self, i64* %slot.dbg.spill, align 8, !dbg !367
  call void @llvm.dbg.declare(metadata i64* %slot.dbg.spill, metadata !369, metadata !DIExpression()), !dbg !376
  store i64 %self, i64* %result.dbg.spill, align 8, !dbg !376
  call void @llvm.dbg.declare(metadata i64* %result.dbg.spill, metadata !292, metadata !DIExpression()), !dbg !378
  store i64* %dest, i64** %dst.dbg.spill, align 8, !dbg !379
  call void @llvm.dbg.declare(metadata i64** %dst.dbg.spill, metadata !306, metadata !DIExpression()), !dbg !307
  store i64 %src, i64* %src1, align 8, !dbg !380
  %4 = bitcast i64* %dest to i8*, !dbg !307
  %5 = bitcast i64* %src1 to i8*, !dbg !307
  call void @llvm.memcpy.p0i8.p0i8.i64(i8* align 8 %4, i8* align 8 %5, i64 8, i1 false), !dbg !307
  ret i64 %self, !dbg !381

bb3:                                              ; No predecessors!
  br i1 true, label %bb2, label %bb1, !dbg !382

bb1:                                              ; preds = %bb2, %bb3
  %6 = bitcast { i8*, i32 }* %0 to i8**, !dbg !383
  %7 = load i8*, i8** %6, align 8, !dbg !383
  %8 = getelementptr inbounds { i8*, i32 }, { i8*, i32 }* %0, i32 0, i32 1, !dbg !383
  %9 = load i32, i32* %8, align 8, !dbg !383
  %10 = insertvalue { i8*, i32 } undef, i8* %7, 0, !dbg !383
  %11 = insertvalue { i8*, i32 } %10, i32 %9, 1, !dbg !383
  resume { i8*, i32 } %11, !dbg !383

bb2:                                              ; preds = %bb3
  br label %bb1, !dbg !382
}

; core::num::<impl usize>::checked_add
; Function Attrs: inlinehint nonlazybind uwtable
define internal { i64, i64 } @"_ZN4core3num23_$LT$impl$u20$usize$GT$11checked_add17he45b9f2a8ce2079eE"(i64 %self, i64 %rhs) unnamed_addr #0 !dbg !384 {
start:
  %0 = alloca i8, align 1
  %b.dbg.spill4 = alloca i8, align 1
  %a.dbg.spill3 = alloca i64, align 8
  %b.dbg.spill = alloca i8, align 1
  %a.dbg.spill = alloca i64, align 8
  %1 = alloca { i64, i8 }, align 8
  %rhs.dbg.spill2 = alloca i64, align 8
  %self.dbg.spill1 = alloca i64, align 8
  %rhs.dbg.spill = alloca i64, align 8
  %self.dbg.spill = alloca i64, align 8
  %_5 = alloca { i64, i8 }, align 8
  %2 = alloca { i64, i64 }, align 8
  store i64 %self, i64* %self.dbg.spill, align 8
  call void @llvm.dbg.declare(metadata i64* %self.dbg.spill, metadata !400, metadata !DIExpression()), !dbg !405
  store i64 %rhs, i64* %rhs.dbg.spill, align 8
  call void @llvm.dbg.declare(metadata i64* %rhs.dbg.spill, metadata !401, metadata !DIExpression()), !dbg !406
  store i64 %self, i64* %self.dbg.spill1, align 8, !dbg !407
  call void @llvm.dbg.declare(metadata i64* %self.dbg.spill1, metadata !408, metadata !DIExpression()), !dbg !421
  store i64 %rhs, i64* %rhs.dbg.spill2, align 8, !dbg !422
  call void @llvm.dbg.declare(metadata i64* %rhs.dbg.spill2, metadata !417, metadata !DIExpression()), !dbg !421
  %3 = call { i64, i1 } @llvm.uadd.with.overflow.i64(i64 %self, i64 %rhs), !dbg !421
  %4 = extractvalue { i64, i1 } %3, 0, !dbg !421
  %5 = extractvalue { i64, i1 } %3, 1, !dbg !421
  %6 = zext i1 %5 to i8, !dbg !421
  %7 = bitcast { i64, i8 }* %1 to i64*, !dbg !421
  store i64 %4, i64* %7, align 8, !dbg !421
  %8 = getelementptr inbounds { i64, i8 }, { i64, i8 }* %1, i32 0, i32 1, !dbg !421
  store i8 %6, i8* %8, align 8, !dbg !421
  %9 = getelementptr inbounds { i64, i8 }, { i64, i8 }* %1, i32 0, i32 0, !dbg !421
  %_13.0 = load i64, i64* %9, align 8, !dbg !421
  %10 = getelementptr inbounds { i64, i8 }, { i64, i8 }* %1, i32 0, i32 1, !dbg !421
  %11 = load i8, i8* %10, align 8, !dbg !421, !range !245, !noundef !140
  %_13.1 = trunc i8 %11 to i1, !dbg !421
  br label %bb5, !dbg !421

bb5:                                              ; preds = %start
  store i64 %_13.0, i64* %a.dbg.spill, align 8, !dbg !421
  call void @llvm.dbg.declare(metadata i64* %a.dbg.spill, metadata !418, metadata !DIExpression()), !dbg !423
  %12 = zext i1 %_13.1 to i8, !dbg !421
  store i8 %12, i8* %b.dbg.spill, align 1, !dbg !421
  call void @llvm.dbg.declare(metadata i8* %b.dbg.spill, metadata !420, metadata !DIExpression()), !dbg !423
  %13 = bitcast { i64, i8 }* %_5 to i64*, !dbg !423
  store i64 %_13.0, i64* %13, align 8, !dbg !423
  %14 = getelementptr inbounds { i64, i8 }, { i64, i8 }* %_5, i32 0, i32 1, !dbg !423
  %15 = zext i1 %_13.1 to i8, !dbg !423
  store i8 %15, i8* %14, align 8, !dbg !423
  %16 = bitcast { i64, i8 }* %_5 to i64*, !dbg !424
  %a = load i64, i64* %16, align 8, !dbg !424
  store i64 %a, i64* %a.dbg.spill3, align 8, !dbg !424
  call void @llvm.dbg.declare(metadata i64* %a.dbg.spill3, metadata !402, metadata !DIExpression()), !dbg !425
  %17 = getelementptr inbounds { i64, i8 }, { i64, i8 }* %_5, i32 0, i32 1, !dbg !426
  %18 = load i8, i8* %17, align 8, !dbg !426, !range !245, !noundef !140
  %b = trunc i8 %18 to i1, !dbg !426
  %19 = zext i1 %b to i8, !dbg !426
  store i8 %19, i8* %b.dbg.spill4, align 1, !dbg !426
  call void @llvm.dbg.declare(metadata i8* %b.dbg.spill4, metadata !404, metadata !DIExpression()), !dbg !427
  %20 = call i1 @llvm.expect.i1(i1 %b, i1 false), !dbg !428
  %21 = zext i1 %20 to i8, !dbg !428
  store i8 %21, i8* %0, align 1, !dbg !428
  %22 = load i8, i8* %0, align 1, !dbg !428, !range !245, !noundef !140
  %_8 = trunc i8 %22 to i1, !dbg !428
  br label %bb1, !dbg !428

bb1:                                              ; preds = %bb5
  br i1 %_8, label %bb2, label %bb3, !dbg !428

bb3:                                              ; preds = %bb1
  %23 = getelementptr inbounds { i64, i64 }, { i64, i64 }* %2, i32 0, i32 1, !dbg !429
  store i64 %a, i64* %23, align 8, !dbg !429
  %24 = bitcast { i64, i64 }* %2 to i64*, !dbg !429
  store i64 1, i64* %24, align 8, !dbg !429
  br label %bb4, !dbg !430

bb2:                                              ; preds = %bb1
  %25 = bitcast { i64, i64 }* %2 to i64*, !dbg !431
  store i64 0, i64* %25, align 8, !dbg !431
  br label %bb4, !dbg !430

bb4:                                              ; preds = %bb3, %bb2
  %26 = getelementptr inbounds { i64, i64 }, { i64, i64 }* %2, i32 0, i32 0, !dbg !432
  %27 = load i64, i64* %26, align 8, !dbg !432, !range !433, !noundef !140
  %28 = getelementptr inbounds { i64, i64 }, { i64, i64 }* %2, i32 0, i32 1, !dbg !432
  %29 = load i64, i64* %28, align 8, !dbg !432
  %30 = insertvalue { i64, i64 } undef, i64 %27, 0, !dbg !432
  %31 = insertvalue { i64, i64 } %30, i64 %29, 1, !dbg !432
  ret { i64, i64 } %31, !dbg !432
}

; core::num::<impl usize>::checked_mul
; Function Attrs: inlinehint nonlazybind uwtable
define internal { i64, i64 } @"_ZN4core3num23_$LT$impl$u20$usize$GT$11checked_mul17h48ab1638bb420a1eE"(i64 %self, i64 %rhs) unnamed_addr #0 !dbg !434 {
start:
  %0 = alloca i8, align 1
  %b.dbg.spill4 = alloca i8, align 1
  %a.dbg.spill3 = alloca i64, align 8
  %b.dbg.spill = alloca i8, align 1
  %a.dbg.spill = alloca i64, align 8
  %1 = alloca { i64, i8 }, align 8
  %rhs.dbg.spill2 = alloca i64, align 8
  %self.dbg.spill1 = alloca i64, align 8
  %rhs.dbg.spill = alloca i64, align 8
  %self.dbg.spill = alloca i64, align 8
  %_5 = alloca { i64, i8 }, align 8
  %2 = alloca { i64, i64 }, align 8
  store i64 %self, i64* %self.dbg.spill, align 8
  call void @llvm.dbg.declare(metadata i64* %self.dbg.spill, metadata !436, metadata !DIExpression()), !dbg !441
  store i64 %rhs, i64* %rhs.dbg.spill, align 8
  call void @llvm.dbg.declare(metadata i64* %rhs.dbg.spill, metadata !437, metadata !DIExpression()), !dbg !442
  store i64 %self, i64* %self.dbg.spill1, align 8, !dbg !443
  call void @llvm.dbg.declare(metadata i64* %self.dbg.spill1, metadata !444, metadata !DIExpression()), !dbg !451
  store i64 %rhs, i64* %rhs.dbg.spill2, align 8, !dbg !452
  call void @llvm.dbg.declare(metadata i64* %rhs.dbg.spill2, metadata !447, metadata !DIExpression()), !dbg !451
  %3 = call { i64, i1 } @llvm.umul.with.overflow.i64(i64 %self, i64 %rhs), !dbg !451
  %4 = extractvalue { i64, i1 } %3, 0, !dbg !451
  %5 = extractvalue { i64, i1 } %3, 1, !dbg !451
  %6 = zext i1 %5 to i8, !dbg !451
  %7 = bitcast { i64, i8 }* %1 to i64*, !dbg !451
  store i64 %4, i64* %7, align 8, !dbg !451
  %8 = getelementptr inbounds { i64, i8 }, { i64, i8 }* %1, i32 0, i32 1, !dbg !451
  store i8 %6, i8* %8, align 8, !dbg !451
  %9 = getelementptr inbounds { i64, i8 }, { i64, i8 }* %1, i32 0, i32 0, !dbg !451
  %_13.0 = load i64, i64* %9, align 8, !dbg !451
  %10 = getelementptr inbounds { i64, i8 }, { i64, i8 }* %1, i32 0, i32 1, !dbg !451
  %11 = load i8, i8* %10, align 8, !dbg !451, !range !245, !noundef !140
  %_13.1 = trunc i8 %11 to i1, !dbg !451
  br label %bb5, !dbg !451

bb5:                                              ; preds = %start
  store i64 %_13.0, i64* %a.dbg.spill, align 8, !dbg !451
  call void @llvm.dbg.declare(metadata i64* %a.dbg.spill, metadata !448, metadata !DIExpression()), !dbg !453
  %12 = zext i1 %_13.1 to i8, !dbg !451
  store i8 %12, i8* %b.dbg.spill, align 1, !dbg !451
  call void @llvm.dbg.declare(metadata i8* %b.dbg.spill, metadata !450, metadata !DIExpression()), !dbg !453
  %13 = bitcast { i64, i8 }* %_5 to i64*, !dbg !453
  store i64 %_13.0, i64* %13, align 8, !dbg !453
  %14 = getelementptr inbounds { i64, i8 }, { i64, i8 }* %_5, i32 0, i32 1, !dbg !453
  %15 = zext i1 %_13.1 to i8, !dbg !453
  store i8 %15, i8* %14, align 8, !dbg !453
  %16 = bitcast { i64, i8 }* %_5 to i64*, !dbg !454
  %a = load i64, i64* %16, align 8, !dbg !454
  store i64 %a, i64* %a.dbg.spill3, align 8, !dbg !454
  call void @llvm.dbg.declare(metadata i64* %a.dbg.spill3, metadata !438, metadata !DIExpression()), !dbg !455
  %17 = getelementptr inbounds { i64, i8 }, { i64, i8 }* %_5, i32 0, i32 1, !dbg !456
  %18 = load i8, i8* %17, align 8, !dbg !456, !range !245, !noundef !140
  %b = trunc i8 %18 to i1, !dbg !456
  %19 = zext i1 %b to i8, !dbg !456
  store i8 %19, i8* %b.dbg.spill4, align 1, !dbg !456
  call void @llvm.dbg.declare(metadata i8* %b.dbg.spill4, metadata !440, metadata !DIExpression()), !dbg !457
  %20 = call i1 @llvm.expect.i1(i1 %b, i1 false), !dbg !458
  %21 = zext i1 %20 to i8, !dbg !458
  store i8 %21, i8* %0, align 1, !dbg !458
  %22 = load i8, i8* %0, align 1, !dbg !458, !range !245, !noundef !140
  %_8 = trunc i8 %22 to i1, !dbg !458
  br label %bb1, !dbg !458

bb1:                                              ; preds = %bb5
  br i1 %_8, label %bb2, label %bb3, !dbg !458

bb3:                                              ; preds = %bb1
  %23 = getelementptr inbounds { i64, i64 }, { i64, i64 }* %2, i32 0, i32 1, !dbg !459
  store i64 %a, i64* %23, align 8, !dbg !459
  %24 = bitcast { i64, i64 }* %2 to i64*, !dbg !459
  store i64 1, i64* %24, align 8, !dbg !459
  br label %bb4, !dbg !460

bb2:                                              ; preds = %bb1
  %25 = bitcast { i64, i64 }* %2 to i64*, !dbg !461
  store i64 0, i64* %25, align 8, !dbg !461
  br label %bb4, !dbg !460

bb4:                                              ; preds = %bb3, %bb2
  %26 = getelementptr inbounds { i64, i64 }, { i64, i64 }* %2, i32 0, i32 0, !dbg !462
  %27 = load i64, i64* %26, align 8, !dbg !462, !range !433, !noundef !140
  %28 = getelementptr inbounds { i64, i64 }, { i64, i64 }* %2, i32 0, i32 1, !dbg !462
  %29 = load i64, i64* %28, align 8, !dbg !462
  %30 = insertvalue { i64, i64 } undef, i64 %27, 0, !dbg !462
  %31 = insertvalue { i64, i64 } %30, i64 %29, 1, !dbg !462
  ret { i64, i64 } %31, !dbg !462
}

; core::ptr::drop_in_place<alloc::vec::Vec<i32>>
; Function Attrs: nonlazybind uwtable
define void @"_ZN4core3ptr47drop_in_place$LT$alloc..vec..Vec$LT$i32$GT$$GT$17h7c47488e4f4ba9f1E"(%"alloc::vec::Vec<i32>"* %_1) unnamed_addr #1 personality i32 (i32, i32, i64, %"unwind::libunwind::_Unwind_Exception"*, %"unwind::libunwind::_Unwind_Context"*)* @rust_eh_personality !dbg !463 {
start:
  %0 = alloca { i8*, i32 }, align 8
  %_1.dbg.spill = alloca %"alloc::vec::Vec<i32>"*, align 8
  store %"alloc::vec::Vec<i32>"* %_1, %"alloc::vec::Vec<i32>"** %_1.dbg.spill, align 8
  call void @llvm.dbg.declare(metadata %"alloc::vec::Vec<i32>"** %_1.dbg.spill, metadata !494, metadata !DIExpression()), !dbg !497
; invoke <alloc::vec::Vec<T,A> as core::ops::drop::Drop>::drop
  invoke void @"_ZN70_$LT$alloc..vec..Vec$LT$T$C$A$GT$$u20$as$u20$core..ops..drop..Drop$GT$4drop17h41f40f774e80318dE"(%"alloc::vec::Vec<i32>"* align 8 %_1)
          to label %bb4 unwind label %cleanup, !dbg !497

bb3:                                              ; preds = %cleanup
  %1 = bitcast %"alloc::vec::Vec<i32>"* %_1 to { i32*, i64 }*, !dbg !497
; invoke core::ptr::drop_in_place<alloc::raw_vec::RawVec<i32>>
  invoke void @"_ZN4core3ptr54drop_in_place$LT$alloc..raw_vec..RawVec$LT$i32$GT$$GT$17h1b855c137f48d48aE"({ i32*, i64 }* %1) #14
          to label %bb1 unwind label %abort, !dbg !497

cleanup:                                          ; preds = %start
  %2 = landingpad { i8*, i32 }
          cleanup
  %3 = extractvalue { i8*, i32 } %2, 0
  %4 = extractvalue { i8*, i32 } %2, 1
  %5 = getelementptr inbounds { i8*, i32 }, { i8*, i32 }* %0, i32 0, i32 0
  store i8* %3, i8** %5, align 8
  %6 = getelementptr inbounds { i8*, i32 }, { i8*, i32 }* %0, i32 0, i32 1
  store i32 %4, i32* %6, align 8
  br label %bb3

bb4:                                              ; preds = %start
  %7 = bitcast %"alloc::vec::Vec<i32>"* %_1 to { i32*, i64 }*, !dbg !497
; call core::ptr::drop_in_place<alloc::raw_vec::RawVec<i32>>
  call void @"_ZN4core3ptr54drop_in_place$LT$alloc..raw_vec..RawVec$LT$i32$GT$$GT$17h1b855c137f48d48aE"({ i32*, i64 }* %7), !dbg !497
  br label %bb2, !dbg !497

abort:                                            ; preds = %bb3
  %8 = landingpad { i8*, i32 }
          cleanup, !dbg !497
; call core::panicking::panic_no_unwind
  call void @_ZN4core9panicking15panic_no_unwind17h62f8113f44cbfcbfE() #15, !dbg !497
  unreachable, !dbg !497

bb1:                                              ; preds = %bb3
  %9 = bitcast { i8*, i32 }* %0 to i8**, !dbg !497
  %10 = load i8*, i8** %9, align 8, !dbg !497
  %11 = getelementptr inbounds { i8*, i32 }, { i8*, i32 }* %0, i32 0, i32 1, !dbg !497
  %12 = load i32, i32* %11, align 8, !dbg !497
  %13 = insertvalue { i8*, i32 } undef, i8* %10, 0, !dbg !497
  %14 = insertvalue { i8*, i32 } %13, i32 %12, 1, !dbg !497
  resume { i8*, i32 } %14, !dbg !497

bb2:                                              ; preds = %bb4
  ret void, !dbg !497
}

; core::ptr::drop_in_place<alloc::raw_vec::RawVec<i32>>
; Function Attrs: nonlazybind uwtable
define void @"_ZN4core3ptr54drop_in_place$LT$alloc..raw_vec..RawVec$LT$i32$GT$$GT$17h1b855c137f48d48aE"({ i32*, i64 }* %_1) unnamed_addr #1 !dbg !498 {
start:
  %_1.dbg.spill = alloca { i32*, i64 }*, align 8
  store { i32*, i64 }* %_1, { i32*, i64 }** %_1.dbg.spill, align 8
  call void @llvm.dbg.declare(metadata { i32*, i64 }** %_1.dbg.spill, metadata !503, metadata !DIExpression()), !dbg !506
; call <alloc::raw_vec::RawVec<T,A> as core::ops::drop::Drop>::drop
  call void @"_ZN77_$LT$alloc..raw_vec..RawVec$LT$T$C$A$GT$$u20$as$u20$core..ops..drop..Drop$GT$4drop17h22055de03b59e758E"({ i32*, i64 }* align 8 %_1), !dbg !506
  br label %bb1, !dbg !506

bb1:                                              ; preds = %start
  ret void, !dbg !506
}

; core::ptr::drop_in_place<alloc::vec::set_len_on_drop::SetLenOnDrop>
; Function Attrs: nonlazybind uwtable
define void @"_ZN4core3ptr62drop_in_place$LT$alloc..vec..set_len_on_drop..SetLenOnDrop$GT$17h46860c8a65c5d677E"({ i64*, i64 }* %_1) unnamed_addr #1 !dbg !507 {
start:
  %_1.dbg.spill = alloca { i64*, i64 }*, align 8
  store { i64*, i64 }* %_1, { i64*, i64 }** %_1.dbg.spill, align 8
  call void @llvm.dbg.declare(metadata { i64*, i64 }** %_1.dbg.spill, metadata !517, metadata !DIExpression()), !dbg !520
; call <alloc::vec::set_len_on_drop::SetLenOnDrop as core::ops::drop::Drop>::drop
  call void @"_ZN83_$LT$alloc..vec..set_len_on_drop..SetLenOnDrop$u20$as$u20$core..ops..drop..Drop$GT$4drop17h519becda5e36f13fE"({ i64*, i64 }* align 8 %_1), !dbg !520
  br label %bb1, !dbg !520

bb1:                                              ; preds = %start
  ret void, !dbg !520
}

; core::ptr::non_null::NonNull<T>::new
; Function Attrs: inlinehint nonlazybind uwtable
define i8* @"_ZN4core3ptr8non_null16NonNull$LT$T$GT$3new17h04dfd1802f349fbdE"(i8* %ptr) unnamed_addr #0 !dbg !521 {
start:
  %ptr.dbg.spill2 = alloca i8*, align 8
  %0 = alloca i8, align 1
  %other.dbg.spill = alloca i8*, align 8
  %data_address.dbg.spill = alloca {}*, align 8
  %1 = alloca {}*, align 8
  %self.dbg.spill1 = alloca i8*, align 8
  %self.dbg.spill = alloca i8*, align 8
  %metadata.dbg.spill = alloca {}, align 1
  %ptr.dbg.spill = alloca i8*, align 8
  %_15 = alloca %"core::ptr::metadata::PtrComponents<u8>", align 8
  %_14 = alloca %"core::ptr::metadata::PtrRepr<u8>", align 8
  %_5 = alloca i8*, align 8
  %2 = alloca i8*, align 8
  store i8* %ptr, i8** %ptr.dbg.spill, align 8
  call void @llvm.dbg.declare(metadata i8** %ptr.dbg.spill, metadata !538, metadata !DIExpression()), !dbg !539
  call void @llvm.dbg.declare(metadata {}* %metadata.dbg.spill, metadata !540, metadata !DIExpression()), !dbg !550
  store i8* %ptr, i8** %self.dbg.spill, align 8, !dbg !565
  call void @llvm.dbg.declare(metadata i8** %self.dbg.spill, metadata !563, metadata !DIExpression()), !dbg !566
  store i8* %ptr, i8** %self.dbg.spill1, align 8, !dbg !566
  call void @llvm.dbg.declare(metadata i8** %self.dbg.spill1, metadata !567, metadata !DIExpression()), !dbg !574
  %3 = bitcast {}** %1 to i64*, !dbg !576
  store i64 0, i64* %3, align 8, !dbg !576
  %data_address = load {}*, {}** %1, align 8, !dbg !576
  store {}* %data_address, {}** %data_address.dbg.spill, align 8, !dbg !576
  call void @llvm.dbg.declare(metadata {}** %data_address.dbg.spill, metadata !549, metadata !DIExpression()), !dbg !550
  br label %bb4, !dbg !576

bb4:                                              ; preds = %start
  %4 = bitcast %"core::ptr::metadata::PtrComponents<u8>"* %_15 to {}**, !dbg !550
  store {}* %data_address, {}** %4, align 8, !dbg !550
  %5 = bitcast %"core::ptr::metadata::PtrRepr<u8>"* %_14 to %"core::ptr::metadata::PtrComponents<u8>"*, !dbg !550
  %6 = bitcast %"core::ptr::metadata::PtrComponents<u8>"* %5 to i8*, !dbg !550
  %7 = bitcast %"core::ptr::metadata::PtrComponents<u8>"* %_15 to i8*, !dbg !550
  call void @llvm.memcpy.p0i8.p0i8.i64(i8* align 8 %6, i8* align 8 %7, i64 8, i1 false), !dbg !550
  %8 = bitcast %"core::ptr::metadata::PtrRepr<u8>"* %_14 to i8**, !dbg !550
  %other = load i8*, i8** %8, align 8, !dbg !550
  store i8* %other, i8** %other.dbg.spill, align 8, !dbg !550
  call void @llvm.dbg.declare(metadata i8** %other.dbg.spill, metadata !573, metadata !DIExpression()), !dbg !574
  %9 = icmp eq i8* %ptr, %other, !dbg !574
  %10 = zext i1 %9 to i8, !dbg !574
  store i8 %10, i8* %0, align 1, !dbg !574
  %11 = load i8, i8* %0, align 1, !dbg !574, !range !245, !noundef !140
  %_3 = trunc i8 %11 to i1, !dbg !574
  br label %bb5, !dbg !574

bb5:                                              ; preds = %bb4
  %_2 = xor i1 %_3, true, !dbg !586
  br i1 %_2, label %bb1, label %bb2, !dbg !586

bb2:                                              ; preds = %bb5
  %12 = bitcast i8** %2 to {}**, !dbg !587
  store {}* null, {}** %12, align 8, !dbg !587
  br label %bb3, !dbg !588

bb1:                                              ; preds = %bb5
  store i8* %ptr, i8** %ptr.dbg.spill2, align 8, !dbg !589
  call void @llvm.dbg.declare(metadata i8** %ptr.dbg.spill2, metadata !590, metadata !DIExpression()), !dbg !593
  store i8* %ptr, i8** %_5, align 8, !dbg !593
  %13 = load i8*, i8** %_5, align 8, !dbg !595, !nonnull !140, !noundef !140
  store i8* %13, i8** %2, align 8, !dbg !595
  br label %bb3, !dbg !588

bb3:                                              ; preds = %bb2, %bb1
  %14 = load i8*, i8** %2, align 8, !dbg !596
  ret i8* %14, !dbg !596
}

; core::alloc::layout::Layout::from_size_valid_align
; Function Attrs: inlinehint nonlazybind uwtable
define internal { i64, i64 } @_ZN4core5alloc6layout6Layout21from_size_valid_align17h61365ef5c3cb2737E(i64 %size, i64 %align) unnamed_addr #0 !dbg !597 {
start:
  %n.dbg.spill = alloca i64, align 8
  %align.dbg.spill = alloca i64, align 8
  %size.dbg.spill = alloca i64, align 8
  %_11 = alloca { i64, i64 }, align 8
  %self1 = alloca i64, align 8
  %self = alloca i64, align 8
  %0 = alloca { i64, i64 }, align 8
  store i64 %size, i64* %size.dbg.spill, align 8
  call void @llvm.dbg.declare(metadata i64* %size.dbg.spill, metadata !620, metadata !DIExpression()), !dbg !622
  store i64 %align, i64* %align.dbg.spill, align 8
  call void @llvm.dbg.declare(metadata i64* %align.dbg.spill, metadata !621, metadata !DIExpression()), !dbg !623
  call void @llvm.dbg.declare(metadata i64* %self, metadata !624, metadata !DIExpression()), !dbg !635
  call void @llvm.dbg.declare(metadata i64* %self1, metadata !637, metadata !DIExpression()), !dbg !644
  store i64 %align, i64* %self1, align 8, !dbg !636
  %_15 = load i64, i64* %self1, align 8, !dbg !644, !range !645, !noundef !140
  store i64 %_15, i64* %n.dbg.spill, align 8, !dbg !644
  call void @llvm.dbg.declare(metadata i64* %n.dbg.spill, metadata !646, metadata !DIExpression()), !dbg !661
  store i64 %_15, i64* %self, align 8, !dbg !661
  %_8 = load i64, i64* %self, align 8, !dbg !635
  %_7 = sub i64 %_8, 1, !dbg !663
  %_5 = sub i64 9223372036854775807, %_7, !dbg !664
  %_3 = icmp ugt i64 %size, %_5, !dbg !665
  br i1 %_3, label %bb1, label %bb2, !dbg !665

bb2:                                              ; preds = %start
  %1 = bitcast { i64, i64 }* %_11 to i64*, !dbg !666
  store i64 %size, i64* %1, align 8, !dbg !666
  %2 = getelementptr inbounds { i64, i64 }, { i64, i64 }* %_11, i32 0, i32 1, !dbg !666
  store i64 %align, i64* %2, align 8, !dbg !666
  %3 = getelementptr inbounds { i64, i64 }, { i64, i64 }* %_11, i32 0, i32 0, !dbg !667
  %4 = load i64, i64* %3, align 8, !dbg !667
  %5 = getelementptr inbounds { i64, i64 }, { i64, i64 }* %_11, i32 0, i32 1, !dbg !667
  %6 = load i64, i64* %5, align 8, !dbg !667, !range !645, !noundef !140
  %7 = getelementptr inbounds { i64, i64 }, { i64, i64 }* %0, i32 0, i32 0, !dbg !667
  store i64 %4, i64* %7, align 8, !dbg !667
  %8 = getelementptr inbounds { i64, i64 }, { i64, i64 }* %0, i32 0, i32 1, !dbg !667
  store i64 %6, i64* %8, align 8, !dbg !667
  br label %bb3, !dbg !668

bb1:                                              ; preds = %start
  %9 = getelementptr inbounds { i64, i64 }, { i64, i64 }* %0, i32 0, i32 1, !dbg !669
  store i64 0, i64* %9, align 8, !dbg !669
  br label %bb3, !dbg !668

bb3:                                              ; preds = %bb2, %bb1
  %10 = getelementptr inbounds { i64, i64 }, { i64, i64 }* %0, i32 0, i32 0, !dbg !668
  %11 = load i64, i64* %10, align 8, !dbg !668
  %12 = getelementptr inbounds { i64, i64 }, { i64, i64 }* %0, i32 0, i32 1, !dbg !668
  %13 = load i64, i64* %12, align 8, !dbg !668, !range !206, !noundef !140
  %14 = insertvalue { i64, i64 } undef, i64 %11, 0, !dbg !668
  %15 = insertvalue { i64, i64 } %14, i64 %13, 1, !dbg !668
  ret { i64, i64 } %15, !dbg !668
}

; core::alloc::layout::Layout::array
; Function Attrs: inlinehint nonlazybind uwtable
define { i64, i64 } @_ZN4core5alloc6layout6Layout5array17hacb403b6aba41249E(i64 %n) unnamed_addr #0 !dbg !670 {
start:
  %0 = alloca i64, align 8
  %align.dbg.spill = alloca i64, align 8
  %array_size.dbg.spill = alloca i64, align 8
  %val.dbg.spill = alloca i64, align 8
  %v.dbg.spill5 = alloca i64, align 8
  %v.dbg.spill = alloca i64, align 8
  %e.dbg.spill3 = alloca %"core::alloc::layout::LayoutError", align 1
  %e.dbg.spill = alloca %"core::alloc::layout::LayoutError", align 1
  %residual.dbg.spill2 = alloca %"core::result::Result<core::convert::Infallible, core::alloc::layout::LayoutError>::Err", align 1
  %residual.dbg.spill = alloca %"core::result::Result<core::convert::Infallible, core::alloc::layout::LayoutError>::Err", align 1
  %err.dbg.spill = alloca %"core::alloc::layout::LayoutError", align 1
  %n.dbg.spill = alloca i64, align 8
  %self1 = alloca { i64, i64 }, align 8
  %self = alloca { i64, i64 }, align 8
  %_3 = alloca { i64, i64 }, align 8
  %1 = alloca { i64, i64 }, align 8
  store i64 %n, i64* %n.dbg.spill, align 8
  call void @llvm.dbg.declare(metadata i64* %n.dbg.spill, metadata !674, metadata !DIExpression()), !dbg !699
  call void @llvm.dbg.declare(metadata { i64, i64 }* %self, metadata !700, metadata !DIExpression()), !dbg !746
  call void @llvm.dbg.declare(metadata { i64, i64 }* %self1, metadata !748, metadata !DIExpression()), !dbg !759
  call void @llvm.dbg.declare(metadata %"core::alloc::layout::LayoutError"* %err.dbg.spill, metadata !755, metadata !DIExpression()), !dbg !759
  call void @llvm.dbg.declare(metadata %"core::result::Result<core::convert::Infallible, core::alloc::layout::LayoutError>::Err"* %residual.dbg.spill, metadata !677, metadata !DIExpression()), !dbg !760
  call void @llvm.dbg.declare(metadata %"core::result::Result<core::convert::Infallible, core::alloc::layout::LayoutError>::Err"* %residual.dbg.spill2, metadata !761, metadata !DIExpression()), !dbg !773
  call void @llvm.dbg.declare(metadata %"core::alloc::layout::LayoutError"* %e.dbg.spill, metadata !743, metadata !DIExpression()), !dbg !775
  call void @llvm.dbg.declare(metadata %"core::alloc::layout::LayoutError"* %e.dbg.spill3, metadata !768, metadata !DIExpression()), !dbg !776
; call core::num::<impl usize>::checked_mul
  %2 = call { i64, i64 } @"_ZN4core3num23_$LT$impl$u20$usize$GT$11checked_mul17h48ab1638bb420a1eE"(i64 4, i64 %n), !dbg !747
  store { i64, i64 } %2, { i64, i64 }* %self1, align 8, !dbg !747
  br label %bb1, !dbg !747

bb1:                                              ; preds = %start
  %3 = bitcast { i64, i64 }* %self1 to i64*, !dbg !759
  %_15 = load i64, i64* %3, align 8, !dbg !759, !range !433, !noundef !140
  switch i64 %_15, label %bb9 [
    i64 0, label %bb8
    i64 1, label %bb10
  ], !dbg !759

bb9:                                              ; preds = %bb1
  unreachable, !dbg !759

bb8:                                              ; preds = %bb1
  %4 = bitcast { i64, i64 }* %self to i64*, !dbg !759
  store i64 1, i64* %4, align 8, !dbg !759
  br label %bb11, !dbg !759

bb10:                                             ; preds = %bb1
  %5 = getelementptr inbounds { i64, i64 }, { i64, i64 }* %self1, i32 0, i32 1, !dbg !759
  %v = load i64, i64* %5, align 8, !dbg !759
  store i64 %v, i64* %v.dbg.spill, align 8, !dbg !759
  call void @llvm.dbg.declare(metadata i64* %v.dbg.spill, metadata !756, metadata !DIExpression()), !dbg !777
  %6 = getelementptr inbounds { i64, i64 }, { i64, i64 }* %self, i32 0, i32 1, !dbg !777
  store i64 %v, i64* %6, align 8, !dbg !777
  %7 = bitcast { i64, i64 }* %self to i64*, !dbg !777
  store i64 0, i64* %7, align 8, !dbg !777
  br label %bb11, !dbg !759

bb11:                                             ; preds = %bb8, %bb10
  %8 = bitcast { i64, i64 }* %self to i64*, !dbg !746
  %_18 = load i64, i64* %8, align 8, !dbg !746, !range !433, !noundef !140
  switch i64 %_18, label %bb13 [
    i64 0, label %bb14
    i64 1, label %bb12
  ], !dbg !746

bb13:                                             ; preds = %bb11
  unreachable, !dbg !746

bb14:                                             ; preds = %bb11
  %9 = getelementptr inbounds { i64, i64 }, { i64, i64 }* %self, i32 0, i32 1, !dbg !746
  %v4 = load i64, i64* %9, align 8, !dbg !746
  store i64 %v4, i64* %v.dbg.spill5, align 8, !dbg !746
  call void @llvm.dbg.declare(metadata i64* %v.dbg.spill5, metadata !740, metadata !DIExpression()), !dbg !778
  %10 = getelementptr inbounds { i64, i64 }, { i64, i64 }* %_3, i32 0, i32 1, !dbg !778
  store i64 %v4, i64* %10, align 8, !dbg !778
  %11 = bitcast { i64, i64 }* %_3 to i64*, !dbg !778
  store i64 0, i64* %11, align 8, !dbg !778
  br label %bb2, !dbg !746

bb12:                                             ; preds = %bb11
  %12 = bitcast { i64, i64 }* %_3 to i64*, !dbg !775
  store i64 1, i64* %12, align 8, !dbg !775
  br label %bb2, !dbg !746

bb2:                                              ; preds = %bb14, %bb12
  %13 = bitcast { i64, i64 }* %_3 to i64*, !dbg !747
  %_9 = load i64, i64* %13, align 8, !dbg !747, !range !433, !noundef !140
  switch i64 %_9, label %bb4 [
    i64 0, label %bb3
    i64 1, label %bb5
  ], !dbg !747

bb4:                                              ; preds = %bb2
  unreachable, !dbg !747

bb3:                                              ; preds = %bb2
  %14 = getelementptr inbounds { i64, i64 }, { i64, i64 }* %_3, i32 0, i32 1, !dbg !747
  %val = load i64, i64* %14, align 8, !dbg !747
  store i64 %val, i64* %val.dbg.spill, align 8, !dbg !747
  call void @llvm.dbg.declare(metadata i64* %val.dbg.spill, metadata !697, metadata !DIExpression()), !dbg !779
  store i64 %val, i64* %array_size.dbg.spill, align 8, !dbg !779
  call void @llvm.dbg.declare(metadata i64* %array_size.dbg.spill, metadata !675, metadata !DIExpression()), !dbg !780
  store i64 4, i64* %align.dbg.spill, align 8, !dbg !781
  call void @llvm.dbg.declare(metadata i64* %align.dbg.spill, metadata !791, metadata !DIExpression()), !dbg !805
  store i64 4, i64* %0, align 8, !dbg !805
  %_14 = load i64, i64* %0, align 8, !dbg !805, !range !645, !noundef !140
  br label %bb15, !dbg !805

bb5:                                              ; preds = %bb2
; call <T as core::convert::From<T>>::from
  call void @"_ZN50_$LT$T$u20$as$u20$core..convert..From$LT$T$GT$$GT$4from17h37595fa91c3f459cE"(), !dbg !776
  br label %bb16, !dbg !776

bb16:                                             ; preds = %bb5
  %15 = getelementptr inbounds { i64, i64 }, { i64, i64 }* %1, i32 0, i32 1, !dbg !776
  store i64 0, i64* %15, align 8, !dbg !776
  br label %bb7, !dbg !807

bb7:                                              ; preds = %bb6, %bb16
  %16 = getelementptr inbounds { i64, i64 }, { i64, i64 }* %1, i32 0, i32 0, !dbg !807
  %17 = load i64, i64* %16, align 8, !dbg !807
  %18 = getelementptr inbounds { i64, i64 }, { i64, i64 }* %1, i32 0, i32 1, !dbg !807
  %19 = load i64, i64* %18, align 8, !dbg !807, !range !206, !noundef !140
  %20 = insertvalue { i64, i64 } undef, i64 %17, 0, !dbg !807
  %21 = insertvalue { i64, i64 } %20, i64 %19, 1, !dbg !807
  ret { i64, i64 } %21, !dbg !807

bb15:                                             ; preds = %bb3
; call core::alloc::layout::Layout::from_size_valid_align
  %22 = call { i64, i64 } @_ZN4core5alloc6layout6Layout21from_size_valid_align17h61365ef5c3cb2737E(i64 %val, i64 %_14), !dbg !808
  store { i64, i64 } %22, { i64, i64 }* %1, align 8, !dbg !808
  br label %bb6, !dbg !808

bb6:                                              ; preds = %bb15
  br label %bb7, !dbg !807
}

; core::clone::impls::<impl core::clone::Clone for i32>::clone
; Function Attrs: inlinehint nonlazybind uwtable
define internal i32 @"_ZN4core5clone5impls52_$LT$impl$u20$core..clone..Clone$u20$for$u20$i32$GT$5clone17h7a924f1f3d20347eE"(i32* align 4 %self) unnamed_addr #0 !dbg !809 {
start:
  %self.dbg.spill = alloca i32*, align 8
  store i32* %self, i32** %self.dbg.spill, align 8
  call void @llvm.dbg.declare(metadata i32** %self.dbg.spill, metadata !818, metadata !DIExpression()), !dbg !819
  %0 = load i32, i32* %self, align 4, !dbg !820
  ret i32 %0, !dbg !821
}

; core::clone::impls::<impl core::clone::Clone for usize>::clone
; Function Attrs: inlinehint nonlazybind uwtable
define internal i64 @"_ZN4core5clone5impls54_$LT$impl$u20$core..clone..Clone$u20$for$u20$usize$GT$5clone17h7e0d3ce2d87c0f13E"(i64* align 8 %self) unnamed_addr #0 !dbg !822 {
start:
  %self.dbg.spill = alloca i64*, align 8
  store i64* %self, i64** %self.dbg.spill, align 8
  call void @llvm.dbg.declare(metadata i64** %self.dbg.spill, metadata !827, metadata !DIExpression()), !dbg !828
  %0 = load i64, i64* %self, align 8, !dbg !829
  ret i64 %0, !dbg !830
}

; core::slice::<impl [T]>::as_mut_ptr
; Function Attrs: inlinehint nonlazybind uwtable
define [5 x i32]* @"_ZN4core5slice29_$LT$impl$u20$$u5b$T$u5d$$GT$10as_mut_ptr17h36f4bc00422b1ce6E"([0 x [5 x i32]]* align 4 %self.0, i64 %self.1) unnamed_addr #0 !dbg !831 {
start:
  %self.dbg.spill = alloca { [0 x [5 x i32]]*, i64 }, align 8
  %0 = getelementptr inbounds { [0 x [5 x i32]]*, i64 }, { [0 x [5 x i32]]*, i64 }* %self.dbg.spill, i32 0, i32 0
  store [0 x [5 x i32]]* %self.0, [0 x [5 x i32]]** %0, align 8
  %1 = getelementptr inbounds { [0 x [5 x i32]]*, i64 }, { [0 x [5 x i32]]*, i64 }* %self.dbg.spill, i32 0, i32 1
  store i64 %self.1, i64* %1, align 8
  call void @llvm.dbg.declare(metadata { [0 x [5 x i32]]*, i64 }* %self.dbg.spill, metadata !847, metadata !DIExpression()), !dbg !850
  %2 = bitcast [0 x [5 x i32]]* %self.0 to [5 x i32]*, !dbg !851
  ret [5 x i32]* %2, !dbg !852
}

; core::slice::<impl [T]>::as_mut_ptr
; Function Attrs: inlinehint nonlazybind uwtable
define i32* @"_ZN4core5slice29_$LT$impl$u20$$u5b$T$u5d$$GT$10as_mut_ptr17h44bbeca8685a138cE"([0 x i32]* align 4 %self.0, i64 %self.1) unnamed_addr #0 !dbg !853 {
start:
  %self.dbg.spill = alloca { [0 x i32]*, i64 }, align 8
  %0 = getelementptr inbounds { [0 x i32]*, i64 }, { [0 x i32]*, i64 }* %self.dbg.spill, i32 0, i32 0
  store [0 x i32]* %self.0, [0 x i32]** %0, align 8
  %1 = getelementptr inbounds { [0 x i32]*, i64 }, { [0 x i32]*, i64 }* %self.dbg.spill, i32 0, i32 1
  store i64 %self.1, i64* %1, align 8
  call void @llvm.dbg.declare(metadata { [0 x i32]*, i64 }* %self.dbg.spill, metadata !863, metadata !DIExpression()), !dbg !864
  %2 = bitcast [0 x i32]* %self.0 to i32*, !dbg !865
  ret i32* %2, !dbg !866
}

; core::slice::<impl [T]>::as_mut_ptr
; Function Attrs: inlinehint nonlazybind uwtable
define [4 x [5 x i32]]* @"_ZN4core5slice29_$LT$impl$u20$$u5b$T$u5d$$GT$10as_mut_ptr17h9f1040c218b50131E"([0 x [4 x [5 x i32]]]* align 4 %self.0, i64 %self.1) unnamed_addr #0 !dbg !867 {
start:
  %self.dbg.spill = alloca { [0 x [4 x [5 x i32]]]*, i64 }, align 8
  %0 = getelementptr inbounds { [0 x [4 x [5 x i32]]]*, i64 }, { [0 x [4 x [5 x i32]]]*, i64 }* %self.dbg.spill, i32 0, i32 0
  store [0 x [4 x [5 x i32]]]* %self.0, [0 x [4 x [5 x i32]]]** %0, align 8
  %1 = getelementptr inbounds { [0 x [4 x [5 x i32]]]*, i64 }, { [0 x [4 x [5 x i32]]]*, i64 }* %self.dbg.spill, i32 0, i32 1
  store i64 %self.1, i64* %1, align 8
  call void @llvm.dbg.declare(metadata { [0 x [4 x [5 x i32]]]*, i64 }* %self.dbg.spill, metadata !878, metadata !DIExpression()), !dbg !881
  %2 = bitcast [0 x [4 x [5 x i32]]]* %self.0 to [4 x [5 x i32]]*, !dbg !882
  ret [4 x [5 x i32]]* %2, !dbg !883
}

; core::slice::<impl [T]>::as_mut_ptr
; Function Attrs: inlinehint nonlazybind uwtable
define i8* @"_ZN4core5slice29_$LT$impl$u20$$u5b$T$u5d$$GT$10as_mut_ptr17hbc3c92b75ce6dbfaE"([0 x i8]* align 1 %self.0, i64 %self.1) unnamed_addr #0 !dbg !884 {
start:
  %self.dbg.spill = alloca { [0 x i8]*, i64 }, align 8
  %0 = getelementptr inbounds { [0 x i8]*, i64 }, { [0 x i8]*, i64 }* %self.dbg.spill, i32 0, i32 0
  store [0 x i8]* %self.0, [0 x i8]** %0, align 8
  %1 = getelementptr inbounds { [0 x i8]*, i64 }, { [0 x i8]*, i64 }* %self.dbg.spill, i32 0, i32 1
  store i64 %self.1, i64* %1, align 8
  call void @llvm.dbg.declare(metadata { [0 x i8]*, i64 }* %self.dbg.spill, metadata !893, metadata !DIExpression()), !dbg !896
  %2 = bitcast [0 x i8]* %self.0 to i8*, !dbg !897
  ret i8* %2, !dbg !898
}

; core::slice::<impl [T]>::as_mut_ptr
; Function Attrs: inlinehint nonlazybind uwtable
define i32* @"_ZN4core5slice29_$LT$impl$u20$$u5b$T$u5d$$GT$10as_mut_ptr17hd816d9d6afa269d2E"([0 x i32]* align 4 %self.0, i64 %self.1) unnamed_addr #0 !dbg !899 {
start:
  %self.dbg.spill = alloca { [0 x i32]*, i64 }, align 8
  %0 = getelementptr inbounds { [0 x i32]*, i64 }, { [0 x i32]*, i64 }* %self.dbg.spill, i32 0, i32 0
  store [0 x i32]* %self.0, [0 x i32]** %0, align 8
  %1 = getelementptr inbounds { [0 x i32]*, i64 }, { [0 x i32]*, i64 }* %self.dbg.spill, i32 0, i32 1
  store i64 %self.1, i64* %1, align 8
  call void @llvm.dbg.declare(metadata { [0 x i32]*, i64 }* %self.dbg.spill, metadata !909, metadata !DIExpression()), !dbg !912
  %2 = bitcast [0 x i32]* %self.0 to i32*, !dbg !913
  ret i32* %2, !dbg !914
}

; core::slice::<impl [T]>::as_ptr
; Function Attrs: inlinehint nonlazybind uwtable
define i32* @"_ZN4core5slice29_$LT$impl$u20$$u5b$T$u5d$$GT$6as_ptr17hc19f3106568bca55E"([0 x i32]* align 4 %self.0, i64 %self.1) unnamed_addr #0 !dbg !915 {
start:
  %self.dbg.spill = alloca { [0 x i32]*, i64 }, align 8
  %0 = getelementptr inbounds { [0 x i32]*, i64 }, { [0 x i32]*, i64 }* %self.dbg.spill, i32 0, i32 0
  store [0 x i32]* %self.0, [0 x i32]** %0, align 8
  %1 = getelementptr inbounds { [0 x i32]*, i64 }, { [0 x i32]*, i64 }* %self.dbg.spill, i32 0, i32 1
  store i64 %self.1, i64* %1, align 8
  call void @llvm.dbg.declare(metadata { [0 x i32]*, i64 }* %self.dbg.spill, metadata !923, metadata !DIExpression()), !dbg !924
  %2 = bitcast [0 x i32]* %self.0 to i32*, !dbg !925
  ret i32* %2, !dbg !926
}

; core::result::Result<T,E>::map_err
; Function Attrs: inlinehint nonlazybind uwtable
define void @"_ZN4core6result19Result$LT$T$C$E$GT$7map_err17h165ad2397c373541E"(%"core::result::Result<core::ptr::non_null::NonNull<[u8]>, alloc::collections::TryReserveError>"* sret(%"core::result::Result<core::ptr::non_null::NonNull<[u8]>, alloc::collections::TryReserveError>") %0, i8* %1, i64 %2, i64* align 8 %op) unnamed_addr #0 !dbg !927 {
start:
  %t.dbg.spill = alloca { i8*, i64 }, align 8
  %e.dbg.spill = alloca %"core::alloc::AllocError", align 1
  %op.dbg.spill = alloca i64*, align 8
  %_11 = alloca i8, align 1
  %_9 = alloca { %"core::alloc::AllocError" }, align 1
  %self = alloca { i8*, i64 }, align 8
  %3 = getelementptr inbounds { i8*, i64 }, { i8*, i64 }* %self, i32 0, i32 0
  store i8* %1, i8** %3, align 8
  %4 = getelementptr inbounds { i8*, i64 }, { i8*, i64 }* %self, i32 0, i32 1
  store i64 %2, i64* %4, align 8
  call void @llvm.dbg.declare(metadata { i8*, i64 }* %self, metadata !975, metadata !DIExpression()), !dbg !984
  store i64* %op, i64** %op.dbg.spill, align 8
  call void @llvm.dbg.declare(metadata i64** %op.dbg.spill, metadata !976, metadata !DIExpression()), !dbg !985
  call void @llvm.dbg.declare(metadata %"core::alloc::AllocError"* %e.dbg.spill, metadata !979, metadata !DIExpression()), !dbg !986
  store i8 1, i8* %_11, align 1, !dbg !987
  %5 = bitcast { i8*, i64 }* %self to {}**, !dbg !987
  %6 = load {}*, {}** %5, align 8, !dbg !987
  %7 = icmp eq {}* %6, null, !dbg !987
  %_3 = select i1 %7, i64 1, i64 0, !dbg !987
  switch i64 %_3, label %bb2 [
    i64 0, label %bb3
    i64 1, label %bb1
  ], !dbg !988

bb2:                                              ; preds = %start
  unreachable, !dbg !987

bb3:                                              ; preds = %start
  %8 = getelementptr inbounds { i8*, i64 }, { i8*, i64 }* %self, i32 0, i32 0, !dbg !989
  %t.0 = load i8*, i8** %8, align 8, !dbg !989, !nonnull !140, !noundef !140
  %9 = getelementptr inbounds { i8*, i64 }, { i8*, i64 }* %self, i32 0, i32 1, !dbg !989
  %t.1 = load i64, i64* %9, align 8, !dbg !989
  %10 = getelementptr inbounds { i8*, i64 }, { i8*, i64 }* %t.dbg.spill, i32 0, i32 0, !dbg !989
  store i8* %t.0, i8** %10, align 8, !dbg !989
  %11 = getelementptr inbounds { i8*, i64 }, { i8*, i64 }* %t.dbg.spill, i32 0, i32 1, !dbg !989
  store i64 %t.1, i64* %11, align 8, !dbg !989
  call void @llvm.dbg.declare(metadata { i8*, i64 }* %t.dbg.spill, metadata !977, metadata !DIExpression()), !dbg !990
  %12 = bitcast %"core::result::Result<core::ptr::non_null::NonNull<[u8]>, alloc::collections::TryReserveError>"* %0 to %"core::result::Result<core::ptr::non_null::NonNull<[u8]>, alloc::collections::TryReserveError>::Ok"*, !dbg !991
  %13 = getelementptr inbounds %"core::result::Result<core::ptr::non_null::NonNull<[u8]>, alloc::collections::TryReserveError>::Ok", %"core::result::Result<core::ptr::non_null::NonNull<[u8]>, alloc::collections::TryReserveError>::Ok"* %12, i32 0, i32 1, !dbg !991
  %14 = getelementptr inbounds { i8*, i64 }, { i8*, i64 }* %13, i32 0, i32 0, !dbg !991
  store i8* %t.0, i8** %14, align 8, !dbg !991
  %15 = getelementptr inbounds { i8*, i64 }, { i8*, i64 }* %13, i32 0, i32 1, !dbg !991
  store i64 %t.1, i64* %15, align 8, !dbg !991
  %16 = bitcast %"core::result::Result<core::ptr::non_null::NonNull<[u8]>, alloc::collections::TryReserveError>"* %0 to i64*, !dbg !991
  store i64 0, i64* %16, align 8, !dbg !991
  br label %bb7, !dbg !992

bb1:                                              ; preds = %start
  store i8 0, i8* %_11, align 1, !dbg !993
  %17 = bitcast { %"core::alloc::AllocError" }* %_9 to %"core::alloc::AllocError"*, !dbg !993
; call alloc::raw_vec::finish_grow::{{closure}}
  %18 = call { i64, i64 } @"_ZN5alloc7raw_vec11finish_grow28_$u7b$$u7b$closure$u7d$$u7d$17hf3f1149945585880E"(i64* align 8 %op), !dbg !993
  %_7.0 = extractvalue { i64, i64 } %18, 0, !dbg !993
  %_7.1 = extractvalue { i64, i64 } %18, 1, !dbg !993
  br label %bb4, !dbg !993

bb4:                                              ; preds = %bb1
  %19 = bitcast %"core::result::Result<core::ptr::non_null::NonNull<[u8]>, alloc::collections::TryReserveError>"* %0 to %"core::result::Result<core::ptr::non_null::NonNull<[u8]>, alloc::collections::TryReserveError>::Err"*, !dbg !994
  %20 = getelementptr inbounds %"core::result::Result<core::ptr::non_null::NonNull<[u8]>, alloc::collections::TryReserveError>::Err", %"core::result::Result<core::ptr::non_null::NonNull<[u8]>, alloc::collections::TryReserveError>::Err"* %19, i32 0, i32 1, !dbg !994
  %21 = getelementptr inbounds { i64, i64 }, { i64, i64 }* %20, i32 0, i32 0, !dbg !994
  store i64 %_7.0, i64* %21, align 8, !dbg !994
  %22 = getelementptr inbounds { i64, i64 }, { i64, i64 }* %20, i32 0, i32 1, !dbg !994
  store i64 %_7.1, i64* %22, align 8, !dbg !994
  %23 = bitcast %"core::result::Result<core::ptr::non_null::NonNull<[u8]>, alloc::collections::TryReserveError>"* %0 to i64*, !dbg !994
  store i64 1, i64* %23, align 8, !dbg !994
  br label %bb7, !dbg !995

bb7:                                              ; preds = %bb3, %bb4
  %24 = load i8, i8* %_11, align 1, !dbg !996, !range !245, !noundef !140
  %25 = trunc i8 %24 to i1, !dbg !996
  br i1 %25, label %bb6, label %bb5, !dbg !996

bb5:                                              ; preds = %bb6, %bb7
  ret void, !dbg !997

bb6:                                              ; preds = %bb7
  br label %bb5, !dbg !996
}

; core::result::Result<T,E>::map_err
; Function Attrs: inlinehint nonlazybind uwtable
define { i64, i64 } @"_ZN4core6result19Result$LT$T$C$E$GT$7map_err17h7c2c49ffc86eed49E"(i64 %0, i64 %1) unnamed_addr #0 !dbg !998 {
start:
  %e.dbg.spill = alloca { i64, i64 }, align 8
  %t.dbg.spill = alloca {}, align 1
  %op.dbg.spill = alloca %"[closure@alloc::raw_vec::handle_reserve::{closure#0}]", align 1
  %_11 = alloca i8, align 1
  %_9 = alloca { i64, i64 }, align 8
  %2 = alloca { i64, i64 }, align 8
  %self = alloca { i64, i64 }, align 8
  %3 = getelementptr inbounds { i64, i64 }, { i64, i64 }* %self, i32 0, i32 0
  store i64 %0, i64* %3, align 8
  %4 = getelementptr inbounds { i64, i64 }, { i64, i64 }* %self, i32 0, i32 1
  store i64 %1, i64* %4, align 8
  call void @llvm.dbg.declare(metadata { i64, i64 }* %self, metadata !1033, metadata !DIExpression()), !dbg !1042
  call void @llvm.dbg.declare(metadata %"[closure@alloc::raw_vec::handle_reserve::{closure#0}]"* %op.dbg.spill, metadata !1034, metadata !DIExpression()), !dbg !1043
  call void @llvm.dbg.declare(metadata {}* %t.dbg.spill, metadata !1035, metadata !DIExpression()), !dbg !1044
  store i8 1, i8* %_11, align 1, !dbg !1045
  %5 = getelementptr inbounds { i64, i64 }, { i64, i64 }* %self, i32 0, i32 1, !dbg !1045
  %6 = load i64, i64* %5, align 8, !dbg !1045, !range !1046, !noundef !140
  %7 = sub i64 %6, -9223372036854775807, !dbg !1045
  %8 = icmp eq i64 %7, 0, !dbg !1045
  %_3 = select i1 %8, i64 0, i64 1, !dbg !1045
  switch i64 %_3, label %bb2 [
    i64 0, label %bb3
    i64 1, label %bb1
  ], !dbg !1047

bb2:                                              ; preds = %start
  unreachable, !dbg !1045

bb3:                                              ; preds = %start
  %9 = bitcast { i64, i64 }* %2 to %"core::result::Result<(), alloc::collections::TryReserveErrorKind>::Ok"*, !dbg !1048
  %10 = bitcast %"core::result::Result<(), alloc::collections::TryReserveErrorKind>::Ok"* %9 to {}*, !dbg !1048
  %11 = getelementptr inbounds { i64, i64 }, { i64, i64 }* %2, i32 0, i32 1, !dbg !1048
  store i64 -9223372036854775807, i64* %11, align 8, !dbg !1048
  br label %bb7, !dbg !1049

bb1:                                              ; preds = %start
  %12 = getelementptr inbounds { i64, i64 }, { i64, i64 }* %self, i32 0, i32 0, !dbg !1050
  %e.0 = load i64, i64* %12, align 8, !dbg !1050
  %13 = getelementptr inbounds { i64, i64 }, { i64, i64 }* %self, i32 0, i32 1, !dbg !1050
  %e.1 = load i64, i64* %13, align 8, !dbg !1050, !range !206, !noundef !140
  %14 = getelementptr inbounds { i64, i64 }, { i64, i64 }* %e.dbg.spill, i32 0, i32 0, !dbg !1050
  store i64 %e.0, i64* %14, align 8, !dbg !1050
  %15 = getelementptr inbounds { i64, i64 }, { i64, i64 }* %e.dbg.spill, i32 0, i32 1, !dbg !1050
  store i64 %e.1, i64* %15, align 8, !dbg !1050
  call void @llvm.dbg.declare(metadata { i64, i64 }* %e.dbg.spill, metadata !1037, metadata !DIExpression()), !dbg !1051
  store i8 0, i8* %_11, align 1, !dbg !1052
  %16 = getelementptr inbounds { i64, i64 }, { i64, i64 }* %_9, i32 0, i32 0, !dbg !1052
  store i64 %e.0, i64* %16, align 8, !dbg !1052
  %17 = getelementptr inbounds { i64, i64 }, { i64, i64 }* %_9, i32 0, i32 1, !dbg !1052
  store i64 %e.1, i64* %17, align 8, !dbg !1052
  %18 = getelementptr inbounds { i64, i64 }, { i64, i64 }* %_9, i32 0, i32 0, !dbg !1052
  %19 = load i64, i64* %18, align 8, !dbg !1052
  %20 = getelementptr inbounds { i64, i64 }, { i64, i64 }* %_9, i32 0, i32 1, !dbg !1052
  %21 = load i64, i64* %20, align 8, !dbg !1052, !range !206, !noundef !140
; call alloc::raw_vec::handle_reserve::{{closure}}
  %22 = call { i64, i64 } @"_ZN5alloc7raw_vec14handle_reserve28_$u7b$$u7b$closure$u7d$$u7d$17h4c6e33af5edd4a36E"(i64 %19, i64 %21), !dbg !1052
  %_7.0 = extractvalue { i64, i64 } %22, 0, !dbg !1052
  %_7.1 = extractvalue { i64, i64 } %22, 1, !dbg !1052
  br label %bb4, !dbg !1052

bb4:                                              ; preds = %bb1
  %23 = getelementptr inbounds { i64, i64 }, { i64, i64 }* %2, i32 0, i32 0, !dbg !1053
  store i64 %_7.0, i64* %23, align 8, !dbg !1053
  %24 = getelementptr inbounds { i64, i64 }, { i64, i64 }* %2, i32 0, i32 1, !dbg !1053
  store i64 %_7.1, i64* %24, align 8, !dbg !1053
  br label %bb7, !dbg !1054

bb7:                                              ; preds = %bb3, %bb4
  %25 = load i8, i8* %_11, align 1, !dbg !1055, !range !245, !noundef !140
  %26 = trunc i8 %25 to i1, !dbg !1055
  br i1 %26, label %bb6, label %bb5, !dbg !1055

bb5:                                              ; preds = %bb6, %bb7
  %27 = getelementptr inbounds { i64, i64 }, { i64, i64 }* %2, i32 0, i32 0, !dbg !1056
  %28 = load i64, i64* %27, align 8, !dbg !1056
  %29 = getelementptr inbounds { i64, i64 }, { i64, i64 }* %2, i32 0, i32 1, !dbg !1056
  %30 = load i64, i64* %29, align 8, !dbg !1056, !range !1046, !noundef !140
  %31 = insertvalue { i64, i64 } undef, i64 %28, 0, !dbg !1056
  %32 = insertvalue { i64, i64 } %31, i64 %30, 1, !dbg !1056
  ret { i64, i64 } %32, !dbg !1056

bb6:                                              ; preds = %bb7
  br label %bb5, !dbg !1055
}

; core::result::Result<T,E>::map_err
; Function Attrs: inlinehint nonlazybind uwtable
define void @"_ZN4core6result19Result$LT$T$C$E$GT$7map_err17h8e9bd93aa89f042cE"(%"core::result::Result<core::alloc::layout::Layout, alloc::collections::TryReserveErrorKind>"* sret(%"core::result::Result<core::alloc::layout::Layout, alloc::collections::TryReserveErrorKind>") %0, i64 %1, i64 %2) unnamed_addr #0 !dbg !1057 {
start:
  %t.dbg.spill = alloca { i64, i64 }, align 8
  %e.dbg.spill = alloca %"core::alloc::layout::LayoutError", align 1
  %op.dbg.spill = alloca %"[closure@alloc::raw_vec::finish_grow<alloc::alloc::Global>::{closure#0}]", align 1
  %_11 = alloca i8, align 1
  %_9 = alloca { %"core::alloc::layout::LayoutError" }, align 1
  %self = alloca { i64, i64 }, align 8
  %3 = getelementptr inbounds { i64, i64 }, { i64, i64 }* %self, i32 0, i32 0
  store i64 %1, i64* %3, align 8
  %4 = getelementptr inbounds { i64, i64 }, { i64, i64 }* %self, i32 0, i32 1
  store i64 %2, i64* %4, align 8
  call void @llvm.dbg.declare(metadata { i64, i64 }* %self, metadata !1076, metadata !DIExpression()), !dbg !1084
  call void @llvm.dbg.declare(metadata %"[closure@alloc::raw_vec::finish_grow<alloc::alloc::Global>::{closure#0}]"* %op.dbg.spill, metadata !1077, metadata !DIExpression()), !dbg !1085
  call void @llvm.dbg.declare(metadata %"core::alloc::layout::LayoutError"* %e.dbg.spill, metadata !1080, metadata !DIExpression()), !dbg !1086
  store i8 1, i8* %_11, align 1, !dbg !1087
  %5 = getelementptr inbounds { i64, i64 }, { i64, i64 }* %self, i32 0, i32 1, !dbg !1087
  %6 = load i64, i64* %5, align 8, !dbg !1087, !range !206, !noundef !140
  %7 = icmp eq i64 %6, 0, !dbg !1087
  %_3 = select i1 %7, i64 1, i64 0, !dbg !1087
  switch i64 %_3, label %bb2 [
    i64 0, label %bb3
    i64 1, label %bb1
  ], !dbg !1088

bb2:                                              ; preds = %start
  unreachable, !dbg !1087

bb3:                                              ; preds = %start
  %8 = getelementptr inbounds { i64, i64 }, { i64, i64 }* %self, i32 0, i32 0, !dbg !1089
  %t.0 = load i64, i64* %8, align 8, !dbg !1089
  %9 = getelementptr inbounds { i64, i64 }, { i64, i64 }* %self, i32 0, i32 1, !dbg !1089
  %t.1 = load i64, i64* %9, align 8, !dbg !1089, !range !645, !noundef !140
  %10 = getelementptr inbounds { i64, i64 }, { i64, i64 }* %t.dbg.spill, i32 0, i32 0, !dbg !1089
  store i64 %t.0, i64* %10, align 8, !dbg !1089
  %11 = getelementptr inbounds { i64, i64 }, { i64, i64 }* %t.dbg.spill, i32 0, i32 1, !dbg !1089
  store i64 %t.1, i64* %11, align 8, !dbg !1089
  call void @llvm.dbg.declare(metadata { i64, i64 }* %t.dbg.spill, metadata !1078, metadata !DIExpression()), !dbg !1090
  %12 = bitcast %"core::result::Result<core::alloc::layout::Layout, alloc::collections::TryReserveErrorKind>"* %0 to %"core::result::Result<core::alloc::layout::Layout, alloc::collections::TryReserveErrorKind>::Ok"*, !dbg !1091
  %13 = getelementptr inbounds %"core::result::Result<core::alloc::layout::Layout, alloc::collections::TryReserveErrorKind>::Ok", %"core::result::Result<core::alloc::layout::Layout, alloc::collections::TryReserveErrorKind>::Ok"* %12, i32 0, i32 1, !dbg !1091
  %14 = getelementptr inbounds { i64, i64 }, { i64, i64 }* %13, i32 0, i32 0, !dbg !1091
  store i64 %t.0, i64* %14, align 8, !dbg !1091
  %15 = getelementptr inbounds { i64, i64 }, { i64, i64 }* %13, i32 0, i32 1, !dbg !1091
  store i64 %t.1, i64* %15, align 8, !dbg !1091
  %16 = bitcast %"core::result::Result<core::alloc::layout::Layout, alloc::collections::TryReserveErrorKind>"* %0 to i64*, !dbg !1091
  store i64 0, i64* %16, align 8, !dbg !1091
  br label %bb7, !dbg !1092

bb1:                                              ; preds = %start
  store i8 0, i8* %_11, align 1, !dbg !1093
  %17 = bitcast { %"core::alloc::layout::LayoutError" }* %_9 to %"core::alloc::layout::LayoutError"*, !dbg !1093
; call alloc::raw_vec::finish_grow::{{closure}}
  %18 = call { i64, i64 } @"_ZN5alloc7raw_vec11finish_grow28_$u7b$$u7b$closure$u7d$$u7d$17h279df25bbe7182e6E"(), !dbg !1093
  %_7.0 = extractvalue { i64, i64 } %18, 0, !dbg !1093
  %_7.1 = extractvalue { i64, i64 } %18, 1, !dbg !1093
  br label %bb4, !dbg !1093

bb4:                                              ; preds = %bb1
  %19 = bitcast %"core::result::Result<core::alloc::layout::Layout, alloc::collections::TryReserveErrorKind>"* %0 to %"core::result::Result<core::alloc::layout::Layout, alloc::collections::TryReserveErrorKind>::Err"*, !dbg !1094
  %20 = getelementptr inbounds %"core::result::Result<core::alloc::layout::Layout, alloc::collections::TryReserveErrorKind>::Err", %"core::result::Result<core::alloc::layout::Layout, alloc::collections::TryReserveErrorKind>::Err"* %19, i32 0, i32 1, !dbg !1094
  %21 = getelementptr inbounds { i64, i64 }, { i64, i64 }* %20, i32 0, i32 0, !dbg !1094
  store i64 %_7.0, i64* %21, align 8, !dbg !1094
  %22 = getelementptr inbounds { i64, i64 }, { i64, i64 }* %20, i32 0, i32 1, !dbg !1094
  store i64 %_7.1, i64* %22, align 8, !dbg !1094
  %23 = bitcast %"core::result::Result<core::alloc::layout::Layout, alloc::collections::TryReserveErrorKind>"* %0 to i64*, !dbg !1094
  store i64 1, i64* %23, align 8, !dbg !1094
  br label %bb7, !dbg !1095

bb7:                                              ; preds = %bb3, %bb4
  %24 = load i8, i8* %_11, align 1, !dbg !1096, !range !245, !noundef !140
  %25 = trunc i8 %24 to i1, !dbg !1096
  br i1 %25, label %bb6, label %bb5, !dbg !1096

bb5:                                              ; preds = %bb6, %bb7
  ret void, !dbg !1097

bb6:                                              ; preds = %bb7
  br label %bb5, !dbg !1096
}

; <T as core::convert::From<T>>::from
; Function Attrs: nonlazybind uwtable
define void @"_ZN50_$LT$T$u20$as$u20$core..convert..From$LT$T$GT$$GT$4from17h37595fa91c3f459cE"() unnamed_addr #1 !dbg !1098 {
start:
  %t.dbg.spill = alloca %"core::alloc::layout::LayoutError", align 1
  call void @llvm.dbg.declare(metadata %"core::alloc::layout::LayoutError"* %t.dbg.spill, metadata !1104, metadata !DIExpression()), !dbg !1107
  ret void, !dbg !1108
}

; <T as core::convert::From<T>>::from
; Function Attrs: nonlazybind uwtable
define void @"_ZN50_$LT$T$u20$as$u20$core..convert..From$LT$T$GT$$GT$4from17h841464a645d964abE"() unnamed_addr #1 !dbg !1109 {
start:
  %t.dbg.spill = alloca %"core::alloc::AllocError", align 1
  call void @llvm.dbg.declare(metadata %"core::alloc::AllocError"* %t.dbg.spill, metadata !1113, metadata !DIExpression()), !dbg !1116
  ret void, !dbg !1117
}

; <T as core::convert::From<T>>::from
; Function Attrs: nonlazybind uwtable
define { i64, i64 } @"_ZN50_$LT$T$u20$as$u20$core..convert..From$LT$T$GT$$GT$4from17h91aa860e841d02efE"(i64 %t.0, i64 %t.1) unnamed_addr #1 !dbg !1118 {
start:
  %t.dbg.spill = alloca { i64, i64 }, align 8
  %0 = getelementptr inbounds { i64, i64 }, { i64, i64 }* %t.dbg.spill, i32 0, i32 0
  store i64 %t.0, i64* %0, align 8
  %1 = getelementptr inbounds { i64, i64 }, { i64, i64 }* %t.dbg.spill, i32 0, i32 1
  store i64 %t.1, i64* %1, align 8
  call void @llvm.dbg.declare(metadata { i64, i64 }* %t.dbg.spill, metadata !1122, metadata !DIExpression()), !dbg !1125
  %2 = insertvalue { i64, i64 } undef, i64 %t.0, 0, !dbg !1126
  %3 = insertvalue { i64, i64 } %2, i64 %t.1, 1, !dbg !1126
  ret { i64, i64 } %3, !dbg !1126
}

; <T as core::convert::Into<U>>::into
; Function Attrs: nonlazybind uwtable
define { i64, i64 } @"_ZN50_$LT$T$u20$as$u20$core..convert..Into$LT$U$GT$$GT$4into17h846831bd743ffb62E"(i64 %self.0, i64 %self.1) unnamed_addr #1 !dbg !1127 {
start:
  %self.dbg.spill = alloca { i64, i64 }, align 8
  %0 = getelementptr inbounds { i64, i64 }, { i64, i64 }* %self.dbg.spill, i32 0, i32 0
  store i64 %self.0, i64* %0, align 8
  %1 = getelementptr inbounds { i64, i64 }, { i64, i64 }* %self.dbg.spill, i32 0, i32 1
  store i64 %self.1, i64* %1, align 8
  call void @llvm.dbg.declare(metadata { i64, i64 }* %self.dbg.spill, metadata !1130, metadata !DIExpression()), !dbg !1134
; call <alloc::collections::TryReserveError as core::convert::From<alloc::collections::TryReserveErrorKind>>::from
  %2 = call { i64, i64 } @"_ZN122_$LT$alloc..collections..TryReserveError$u20$as$u20$core..convert..From$LT$alloc..collections..TryReserveErrorKind$GT$$GT$4from17h07c1f08a15bfc68eE"(i64 %self.0, i64 %self.1), !dbg !1135
  %3 = extractvalue { i64, i64 } %2, 0, !dbg !1135
  %4 = extractvalue { i64, i64 } %2, 1, !dbg !1135
  br label %bb1, !dbg !1135

bb1:                                              ; preds = %start
  %5 = insertvalue { i64, i64 } undef, i64 %3, 0, !dbg !1136
  %6 = insertvalue { i64, i64 } %5, i64 %4, 1, !dbg !1136
  ret { i64, i64 } %6, !dbg !1136
}

; <T as core::convert::Into<U>>::into
; Function Attrs: nonlazybind uwtable
define i8* @"_ZN50_$LT$T$u20$as$u20$core..convert..Into$LT$U$GT$$GT$4into17h9dd4420d8f9307edE"(i8* %self) unnamed_addr #1 !dbg !1137 {
start:
  %self.dbg.spill = alloca i8*, align 8
  store i8* %self, i8** %self.dbg.spill, align 8
  call void @llvm.dbg.declare(metadata i8** %self.dbg.spill, metadata !1139, metadata !DIExpression()), !dbg !1143
; call <core::ptr::non_null::NonNull<T> as core::convert::From<core::ptr::unique::Unique<T>>>::from
  %0 = call i8* @"_ZN119_$LT$core..ptr..non_null..NonNull$LT$T$GT$$u20$as$u20$core..convert..From$LT$core..ptr..unique..Unique$LT$T$GT$$GT$$GT$4from17h90c671efbcbc3846E"(i8* %self), !dbg !1144
  br label %bb1, !dbg !1144

bb1:                                              ; preds = %start
  ret i8* %0, !dbg !1145
}

; <i32 as alloc::vec::is_zero::IsZero>::is_zero
; Function Attrs: inlinehint nonlazybind uwtable
define internal zeroext i1 @"_ZN51_$LT$i32$u20$as$u20$alloc..vec..is_zero..IsZero$GT$7is_zero17hf9193789f5d15d37E"(i32* align 4 %self) unnamed_addr #0 !dbg !1146 {
start:
  %self.dbg.spill = alloca i32*, align 8
  %_3 = alloca i32, align 4
  store i32* %self, i32** %self.dbg.spill, align 8
  call void @llvm.dbg.declare(metadata i32** %self.dbg.spill, metadata !1153, metadata !DIExpression()), !dbg !1154
  %_4 = load i32, i32* %self, align 4, !dbg !1155
  store i32 %_4, i32* %_3, align 4, !dbg !1156
  %0 = load i32, i32* %_3, align 4, !dbg !1156
; call <i32 as alloc::vec::is_zero::IsZero>::is_zero::{{closure}}
  %1 = call zeroext i1 @"_ZN51_$LT$i32$u20$as$u20$alloc..vec..is_zero..IsZero$GT$7is_zero28_$u7b$$u7b$closure$u7d$$u7d$17hd69734bb95f27cc1E"(%"[closure@<i32 as alloc::vec::is_zero::IsZero>::is_zero::{closure#0}]"* align 1 bitcast (<{}>* @alloc99 to %"[closure@<i32 as alloc::vec::is_zero::IsZero>::is_zero::{closure#0}]"*), i32 %0), !dbg !1156
  br label %bb1, !dbg !1156

bb1:                                              ; preds = %start
  ret i1 %1, !dbg !1157
}

; <i32 as alloc::vec::is_zero::IsZero>::is_zero::{{closure}}
; Function Attrs: inlinehint nonlazybind uwtable
define zeroext i1 @"_ZN51_$LT$i32$u20$as$u20$alloc..vec..is_zero..IsZero$GT$7is_zero28_$u7b$$u7b$closure$u7d$$u7d$17hd69734bb95f27cc1E"(%"[closure@<i32 as alloc::vec::is_zero::IsZero>::is_zero::{closure#0}]"* align 1 %_1, i32 %x) unnamed_addr #0 !dbg !1158 {
start:
  %x.dbg.spill = alloca i32, align 4
  %_1.dbg.spill = alloca %"[closure@<i32 as alloc::vec::is_zero::IsZero>::is_zero::{closure#0}]"*, align 8
  store %"[closure@<i32 as alloc::vec::is_zero::IsZero>::is_zero::{closure#0}]"* %_1, %"[closure@<i32 as alloc::vec::is_zero::IsZero>::is_zero::{closure#0}]"** %_1.dbg.spill, align 8
  call void @llvm.dbg.declare(metadata %"[closure@<i32 as alloc::vec::is_zero::IsZero>::is_zero::{closure#0}]"** %_1.dbg.spill, metadata !1166, metadata !DIExpression()), !dbg !1167
  store i32 %x, i32* %x.dbg.spill, align 4
  call void @llvm.dbg.declare(metadata i32* %x.dbg.spill, metadata !1165, metadata !DIExpression()), !dbg !1168
  %0 = icmp eq i32 %x, 0, !dbg !1169
  ret i1 %0, !dbg !1170
}

; alloc::vec::Vec<T,A>::as_mut_ptr
; Function Attrs: inlinehint nonlazybind uwtable
define i32* @"_ZN5alloc3vec16Vec$LT$T$C$A$GT$10as_mut_ptr17hffe6c8eac2fd4d5aE"(%"alloc::vec::Vec<i32>"* align 8 %self) unnamed_addr #0 !dbg !1171 {
start:
  %0 = alloca i8, align 1
  %other.dbg.spill = alloca i8*, align 8
  %data_address.dbg.spill = alloca {}*, align 8
  %1 = alloca {}*, align 8
  %self.dbg.spill8 = alloca i8*, align 8
  %self.dbg.spill6 = alloca i32*, align 8
  %ptr.dbg.spill = alloca i32*, align 8
  %self.dbg.spill5 = alloca i32*, align 8
  %self.dbg.spill4 = alloca i32*, align 8
  %self.dbg.spill2 = alloca { i32*, i64 }*, align 8
  %metadata.dbg.spill = alloca {}, align 1
  %self.dbg.spill = alloca %"alloc::vec::Vec<i32>"*, align 8
  %_18 = alloca %"core::ptr::metadata::PtrComponents<u8>", align 8
  %_17 = alloca %"core::ptr::metadata::PtrRepr<u8>", align 8
  store %"alloc::vec::Vec<i32>"* %self, %"alloc::vec::Vec<i32>"** %self.dbg.spill, align 8
  call void @llvm.dbg.declare(metadata %"alloc::vec::Vec<i32>"** %self.dbg.spill, metadata !1177, metadata !DIExpression()), !dbg !1180
  call void @llvm.dbg.declare(metadata {}* %metadata.dbg.spill, metadata !1181, metadata !DIExpression()), !dbg !1186
  %self1 = bitcast %"alloc::vec::Vec<i32>"* %self to { i32*, i64 }*, !dbg !1197
  store { i32*, i64 }* %self1, { i32*, i64 }** %self.dbg.spill2, align 8, !dbg !1197
  call void @llvm.dbg.declare(metadata { i32*, i64 }** %self.dbg.spill2, metadata !1198, metadata !DIExpression()), !dbg !1206
  %2 = bitcast { i32*, i64 }* %self1 to i32**, !dbg !1206
  %self3 = load i32*, i32** %2, align 8, !dbg !1206, !nonnull !140, !noundef !140
  store i32* %self3, i32** %self.dbg.spill4, align 8, !dbg !1206
  call void @llvm.dbg.declare(metadata i32** %self.dbg.spill4, metadata !1207, metadata !DIExpression()), !dbg !1213
  store i32* %self3, i32** %self.dbg.spill5, align 8, !dbg !1213
  call void @llvm.dbg.declare(metadata i32** %self.dbg.spill5, metadata !1215, metadata !DIExpression()), !dbg !1221
  store i32* %self3, i32** %ptr.dbg.spill, align 8, !dbg !1221
  call void @llvm.dbg.declare(metadata i32** %ptr.dbg.spill, metadata !1178, metadata !DIExpression()), !dbg !1223
  store i32* %self3, i32** %self.dbg.spill6, align 8, !dbg !1196
  call void @llvm.dbg.declare(metadata i32** %self.dbg.spill6, metadata !1194, metadata !DIExpression()), !dbg !1224
  %self7 = bitcast i32* %self3 to i8*, !dbg !1224
  store i8* %self7, i8** %self.dbg.spill8, align 8, !dbg !1224
  call void @llvm.dbg.declare(metadata i8** %self.dbg.spill8, metadata !1225, metadata !DIExpression()), !dbg !1230
  %3 = bitcast {}** %1 to i64*, !dbg !1232
  store i64 0, i64* %3, align 8, !dbg !1232
  %data_address = load {}*, {}** %1, align 8, !dbg !1232
  store {}* %data_address, {}** %data_address.dbg.spill, align 8, !dbg !1232
  call void @llvm.dbg.declare(metadata {}** %data_address.dbg.spill, metadata !1185, metadata !DIExpression()), !dbg !1186
  br label %bb2, !dbg !1232

bb2:                                              ; preds = %start
  %4 = bitcast %"core::ptr::metadata::PtrComponents<u8>"* %_18 to {}**, !dbg !1186
  store {}* %data_address, {}** %4, align 8, !dbg !1186
  %5 = bitcast %"core::ptr::metadata::PtrRepr<u8>"* %_17 to %"core::ptr::metadata::PtrComponents<u8>"*, !dbg !1186
  %6 = bitcast %"core::ptr::metadata::PtrComponents<u8>"* %5 to i8*, !dbg !1186
  %7 = bitcast %"core::ptr::metadata::PtrComponents<u8>"* %_18 to i8*, !dbg !1186
  call void @llvm.memcpy.p0i8.p0i8.i64(i8* align 8 %6, i8* align 8 %7, i64 8, i1 false), !dbg !1186
  %8 = bitcast %"core::ptr::metadata::PtrRepr<u8>"* %_17 to i8**, !dbg !1186
  %other = load i8*, i8** %8, align 8, !dbg !1186
  store i8* %other, i8** %other.dbg.spill, align 8, !dbg !1186
  call void @llvm.dbg.declare(metadata i8** %other.dbg.spill, metadata !1229, metadata !DIExpression()), !dbg !1230
  %9 = icmp eq i8* %self7, %other, !dbg !1230
  %10 = zext i1 %9 to i8, !dbg !1230
  store i8 %10, i8* %0, align 1, !dbg !1230
  %11 = load i8, i8* %0, align 1, !dbg !1230, !range !245, !noundef !140
  %_5 = trunc i8 %11 to i1, !dbg !1230
  br label %bb3, !dbg !1230

bb3:                                              ; preds = %bb2
  %_4 = xor i1 %_5, true, !dbg !1238
  call void @llvm.assume(i1 %_4), !dbg !1239
  br label %bb1, !dbg !1239

bb1:                                              ; preds = %bb3
  ret i32* %self3, !dbg !1240
}

; alloc::vec::Vec<T,A>::extend_with
; Function Attrs: nonlazybind uwtable
define void @"_ZN5alloc3vec16Vec$LT$T$C$A$GT$11extend_with17h05f27130d0fb2a4aE"(%"alloc::vec::Vec<i32>"* align 8 %self, i64 %n, i32 %0) unnamed_addr #1 personality i32 (i32, i32, i64, %"unwind::libunwind::_Unwind_Exception"*, %"unwind::libunwind::_Unwind_Context"*)* @rust_eh_personality !dbg !1241 {
start:
  %self.dbg.spill15 = alloca { i64*, i64 }*, align 8
  %dst.dbg.spill14 = alloca i32*, align 8
  %self.dbg.spill12 = alloca { i64*, i64 }*, align 8
  %1 = alloca i32*, align 8
  %self.dbg.spill11 = alloca i32*, align 8
  %dst.dbg.spill = alloca i32*, align 8
  %self.dbg.spill8 = alloca { i64, i64 }*, align 8
  %len.dbg.spill = alloca i64*, align 8
  %2 = alloca i32*, align 8
  %count.dbg.spill7 = alloca i64, align 8
  %self.dbg.spill6 = alloca i32*, align 8
  %count.dbg.spill = alloca i64, align 8
  %self.dbg.spill5 = alloca %"alloc::vec::Vec<i32>"*, align 8
  %self.dbg.spill4 = alloca i32*, align 8
  %3 = alloca { i8*, i32 }, align 8
  %n.dbg.spill = alloca i64, align 8
  %self.dbg.spill = alloca %"alloc::vec::Vec<i32>"*, align 8
  %_35 = alloca i8, align 1
  %src2 = alloca i32, align 4
  %src = alloca i32, align 4
  %_19 = alloca { i64, i64 }, align 8
  %iter = alloca { i64, i64 }, align 8
  %self1 = alloca { i64, i64 }, align 8
  %local_len = alloca { i64*, i64 }, align 8
  %ptr = alloca i32*, align 8
  %value = alloca i32, align 4
  store i32 %0, i32* %value, align 4
  store %"alloc::vec::Vec<i32>"* %self, %"alloc::vec::Vec<i32>"** %self.dbg.spill, align 8
  call void @llvm.dbg.declare(metadata %"alloc::vec::Vec<i32>"** %self.dbg.spill, metadata !1248, metadata !DIExpression()), !dbg !1266
  store i64 %n, i64* %n.dbg.spill, align 8
  call void @llvm.dbg.declare(metadata i64* %n.dbg.spill, metadata !1249, metadata !DIExpression()), !dbg !1267
  call void @llvm.dbg.declare(metadata i32* %value, metadata !1250, metadata !DIExpression()), !dbg !1268
  call void @llvm.dbg.declare(metadata i32** %ptr, metadata !1251, metadata !DIExpression()), !dbg !1269
  call void @llvm.dbg.declare(metadata { i64*, i64 }* %local_len, metadata !1253, metadata !DIExpression()), !dbg !1270
  call void @llvm.dbg.declare(metadata { i64, i64 }* %self1, metadata !1271, metadata !DIExpression()), !dbg !1283
  call void @llvm.dbg.declare(metadata { i64, i64 }* %iter, metadata !1255, metadata !DIExpression()), !dbg !1285
  call void @llvm.dbg.declare(metadata i32* %src, metadata !1286, metadata !DIExpression()), !dbg !1293
  call void @llvm.dbg.declare(metadata i32* %src2, metadata !1295, metadata !DIExpression()), !dbg !1300
  store i8 1, i8* %_35, align 1, !dbg !1302
; invoke alloc::vec::Vec<T,A>::reserve
  invoke void @"_ZN5alloc3vec16Vec$LT$T$C$A$GT$7reserve17h10f06679282f1355E"(%"alloc::vec::Vec<i32>"* align 8 %self, i64 %n)
          to label %bb1 unwind label %cleanup, !dbg !1302

bb17:                                             ; preds = %bb13, %cleanup
  %4 = load i8, i8* %_35, align 1, !dbg !1303, !range !245, !noundef !140
  %5 = trunc i8 %4 to i1, !dbg !1303
  br i1 %5, label %bb16, label %bb14, !dbg !1303

cleanup:                                          ; preds = %bb10, %bb1, %start
  %6 = landingpad { i8*, i32 }
          cleanup
  %7 = extractvalue { i8*, i32 } %6, 0
  %8 = extractvalue { i8*, i32 } %6, 1
  %9 = getelementptr inbounds { i8*, i32 }, { i8*, i32 }* %3, i32 0, i32 0
  store i8* %7, i8** %9, align 8
  %10 = getelementptr inbounds { i8*, i32 }, { i8*, i32 }* %3, i32 0, i32 1
  store i32 %8, i32* %10, align 8
  br label %bb17

bb1:                                              ; preds = %start
; invoke alloc::vec::Vec<T,A>::as_mut_ptr
  %self3 = invoke i32* @"_ZN5alloc3vec16Vec$LT$T$C$A$GT$10as_mut_ptr17hffe6c8eac2fd4d5aE"(%"alloc::vec::Vec<i32>"* align 8 %self)
          to label %bb2 unwind label %cleanup, !dbg !1304

bb2:                                              ; preds = %bb1
  store i32* %self3, i32** %self.dbg.spill4, align 8, !dbg !1304
  call void @llvm.dbg.declare(metadata i32** %self.dbg.spill4, metadata !1305, metadata !DIExpression()), !dbg !1312
  store %"alloc::vec::Vec<i32>"* %self, %"alloc::vec::Vec<i32>"** %self.dbg.spill5, align 8, !dbg !1313
  call void @llvm.dbg.declare(metadata %"alloc::vec::Vec<i32>"** %self.dbg.spill5, metadata !1314, metadata !DIExpression()), !dbg !1320
  %11 = getelementptr inbounds %"alloc::vec::Vec<i32>", %"alloc::vec::Vec<i32>"* %self, i32 0, i32 1, !dbg !1320
  %count = load i64, i64* %11, align 8, !dbg !1320
  store i64 %count, i64* %count.dbg.spill, align 8, !dbg !1320
  call void @llvm.dbg.declare(metadata i64* %count.dbg.spill, metadata !1311, metadata !DIExpression()), !dbg !1312
  store i32* %self3, i32** %self.dbg.spill6, align 8, !dbg !1312
  call void @llvm.dbg.declare(metadata i32** %self.dbg.spill6, metadata !1321, metadata !DIExpression()), !dbg !1329
  store i64 %count, i64* %count.dbg.spill7, align 8, !dbg !1312
  call void @llvm.dbg.declare(metadata i64* %count.dbg.spill7, metadata !1328, metadata !DIExpression()), !dbg !1329
  %12 = getelementptr inbounds i32, i32* %self3, i64 %count, !dbg !1329
  store i32* %12, i32** %2, align 8, !dbg !1329
  %_39 = load i32*, i32** %2, align 8, !dbg !1329
  br label %bb18, !dbg !1329

bb18:                                             ; preds = %bb2
  store i32* %_39, i32** %ptr, align 8, !dbg !1329
  %_14 = getelementptr inbounds %"alloc::vec::Vec<i32>", %"alloc::vec::Vec<i32>"* %self, i32 0, i32 1, !dbg !1331
  store i64* %_14, i64** %len.dbg.spill, align 8, !dbg !1331
  call void @llvm.dbg.declare(metadata i64** %len.dbg.spill, metadata !1332, metadata !DIExpression()), !dbg !1339
  %_43 = load i64, i64* %_14, align 8, !dbg !1339
  %13 = bitcast { i64*, i64 }* %local_len to i64**, !dbg !1339
  store i64* %_14, i64** %13, align 8, !dbg !1339
  %14 = getelementptr inbounds { i64*, i64 }, { i64*, i64 }* %local_len, i32 0, i32 1, !dbg !1339
  store i64 %_43, i64* %14, align 8, !dbg !1339
  %15 = bitcast { i64, i64 }* %self1 to i64*, !dbg !1284
  store i64 1, i64* %15, align 8, !dbg !1284
  %16 = getelementptr inbounds { i64, i64 }, { i64, i64 }* %self1, i32 0, i32 1, !dbg !1284
  store i64 %n, i64* %16, align 8, !dbg !1284
  %17 = getelementptr inbounds { i64, i64 }, { i64, i64 }* %self1, i32 0, i32 0, !dbg !1283
  %_15.0 = load i64, i64* %17, align 8, !dbg !1283
  %18 = getelementptr inbounds { i64, i64 }, { i64, i64 }* %self1, i32 0, i32 1, !dbg !1283
  %_15.1 = load i64, i64* %18, align 8, !dbg !1283
  %19 = getelementptr inbounds { i64, i64 }, { i64, i64 }* %iter, i32 0, i32 0, !dbg !1284
  store i64 %_15.0, i64* %19, align 8, !dbg !1284
  %20 = getelementptr inbounds { i64, i64 }, { i64, i64 }* %iter, i32 0, i32 1, !dbg !1284
  store i64 %_15.1, i64* %20, align 8, !dbg !1284
  br label %bb3, !dbg !1341

bb3:                                              ; preds = %bb20, %bb18
  store { i64, i64 }* %iter, { i64, i64 }** %self.dbg.spill8, align 8, !dbg !1285
  call void @llvm.dbg.declare(metadata { i64, i64 }** %self.dbg.spill8, metadata !1342, metadata !DIExpression()), !dbg !1352
; invoke <core::ops::range::Range<T> as core::iter::range::RangeIteratorImpl>::spec_next
  %21 = invoke { i64, i64 } @"_ZN89_$LT$core..ops..range..Range$LT$T$GT$$u20$as$u20$core..iter..range..RangeIteratorImpl$GT$9spec_next17h663205a6379ad5f3E"({ i64, i64 }* align 8 %iter)
          to label %bb19 unwind label %cleanup9, !dbg !1352

bb13:                                             ; preds = %cleanup9
; invoke core::ptr::drop_in_place<alloc::vec::set_len_on_drop::SetLenOnDrop>
  invoke void @"_ZN4core3ptr62drop_in_place$LT$alloc..vec..set_len_on_drop..SetLenOnDrop$GT$17h46860c8a65c5d677E"({ i64*, i64 }* %local_len) #14
          to label %bb17 unwind label %abort, !dbg !1353

cleanup9:                                         ; preds = %bb8, %bb4, %bb3
  %22 = landingpad { i8*, i32 }
          cleanup
  %23 = extractvalue { i8*, i32 } %22, 0
  %24 = extractvalue { i8*, i32 } %22, 1
  %25 = getelementptr inbounds { i8*, i32 }, { i8*, i32 }* %3, i32 0, i32 0
  store i8* %23, i8** %25, align 8
  %26 = getelementptr inbounds { i8*, i32 }, { i8*, i32 }* %3, i32 0, i32 1
  store i32 %24, i32* %26, align 8
  br label %bb13

bb19:                                             ; preds = %bb3
  store { i64, i64 } %21, { i64, i64 }* %_19, align 8, !dbg !1352
  %27 = bitcast { i64, i64 }* %_19 to i64*, !dbg !1285
  %_22 = load i64, i64* %27, align 8, !dbg !1285, !range !433, !noundef !140
  switch i64 %_22, label %bb5 [
    i64 0, label %bb6
    i64 1, label %bb4
  ], !dbg !1285

bb5:                                              ; preds = %bb19
  unreachable, !dbg !1285

bb6:                                              ; preds = %bb19
  %_29 = icmp ugt i64 %n, 0, !dbg !1354
  br i1 %_29, label %bb8, label %bb10, !dbg !1354

bb4:                                              ; preds = %bb19
  %dst = load i32*, i32** %ptr, align 8, !dbg !1355
  store i32* %dst, i32** %dst.dbg.spill, align 8, !dbg !1355
  call void @llvm.dbg.declare(metadata i32** %dst.dbg.spill, metadata !1292, metadata !DIExpression()), !dbg !1293
; invoke <alloc::vec::ExtendElement<T> as alloc::vec::ExtendWith<T>>::next
  %28 = invoke i32 @"_ZN86_$LT$alloc..vec..ExtendElement$LT$T$GT$$u20$as$u20$alloc..vec..ExtendWith$LT$T$GT$$GT$4next17hb147526a62d0f643E"(i32* align 4 %value)
          to label %bb7 unwind label %cleanup9, !dbg !1356

bb7:                                              ; preds = %bb4
  store i32 %28, i32* %src, align 4, !dbg !1356
  %29 = bitcast i32* %dst to i8*, !dbg !1293
  %30 = bitcast i32* %src to i8*, !dbg !1293
  call void @llvm.memcpy.p0i8.p0i8.i64(i8* align 4 %29, i8* align 4 %30, i64 4, i1 false), !dbg !1293
  %self10 = load i32*, i32** %ptr, align 8, !dbg !1357
  store i32* %self10, i32** %self.dbg.spill11, align 8, !dbg !1357
  call void @llvm.dbg.declare(metadata i32** %self.dbg.spill11, metadata !1358, metadata !DIExpression()), !dbg !1363
  %31 = getelementptr inbounds i32, i32* %self10, i64 1, !dbg !1363
  store i32* %31, i32** %1, align 8, !dbg !1363
  %_50 = load i32*, i32** %1, align 8, !dbg !1363
  br label %bb20, !dbg !1363

bb20:                                             ; preds = %bb7
  store i32* %_50, i32** %ptr, align 8, !dbg !1364
  store { i64*, i64 }* %local_len, { i64*, i64 }** %self.dbg.spill12, align 8, !dbg !1365
  call void @llvm.dbg.declare(metadata { i64*, i64 }** %self.dbg.spill12, metadata !1366, metadata !DIExpression()), !dbg !1374
  %32 = getelementptr inbounds { i64*, i64 }, { i64*, i64 }* %local_len, i32 0, i32 1, !dbg !1374
  %33 = getelementptr inbounds { i64*, i64 }, { i64*, i64 }* %local_len, i32 0, i32 1, !dbg !1374
  %34 = load i64, i64* %33, align 8, !dbg !1374
  %35 = add i64 %34, 1, !dbg !1374
  store i64 %35, i64* %32, align 8, !dbg !1374
  br label %bb3, !dbg !1341

bb10:                                             ; preds = %bb9, %bb6
; invoke core::ptr::drop_in_place<alloc::vec::set_len_on_drop::SetLenOnDrop>
  invoke void @"_ZN4core3ptr62drop_in_place$LT$alloc..vec..set_len_on_drop..SetLenOnDrop$GT$17h46860c8a65c5d677E"({ i64*, i64 }* %local_len)
          to label %bb11 unwind label %cleanup, !dbg !1353

bb8:                                              ; preds = %bb6
  %dst13 = load i32*, i32** %ptr, align 8, !dbg !1375
  store i32* %dst13, i32** %dst.dbg.spill14, align 8, !dbg !1375
  call void @llvm.dbg.declare(metadata i32** %dst.dbg.spill14, metadata !1299, metadata !DIExpression()), !dbg !1300
  store i8 0, i8* %_35, align 1, !dbg !1376
  %_33 = load i32, i32* %value, align 4, !dbg !1376
; invoke <alloc::vec::ExtendElement<T> as alloc::vec::ExtendWith<T>>::last
  %36 = invoke i32 @"_ZN86_$LT$alloc..vec..ExtendElement$LT$T$GT$$u20$as$u20$alloc..vec..ExtendWith$LT$T$GT$$GT$4last17h17905b74ccda79b9E"(i32 %_33)
          to label %bb9 unwind label %cleanup9, !dbg !1376

bb9:                                              ; preds = %bb8
  store i32 %36, i32* %src2, align 4, !dbg !1376
  %37 = bitcast i32* %dst13 to i8*, !dbg !1300
  %38 = bitcast i32* %src2 to i8*, !dbg !1300
  call void @llvm.memcpy.p0i8.p0i8.i64(i8* align 4 %37, i8* align 4 %38, i64 4, i1 false), !dbg !1300
  store { i64*, i64 }* %local_len, { i64*, i64 }** %self.dbg.spill15, align 8, !dbg !1377
  call void @llvm.dbg.declare(metadata { i64*, i64 }** %self.dbg.spill15, metadata !1378, metadata !DIExpression()), !dbg !1383
  %39 = getelementptr inbounds { i64*, i64 }, { i64*, i64 }* %local_len, i32 0, i32 1, !dbg !1383
  %40 = getelementptr inbounds { i64*, i64 }, { i64*, i64 }* %local_len, i32 0, i32 1, !dbg !1383
  %41 = load i64, i64* %40, align 8, !dbg !1383
  %42 = add i64 %41, 1, !dbg !1383
  store i64 %42, i64* %39, align 8, !dbg !1383
  br label %bb10, !dbg !1384

abort:                                            ; preds = %bb13
  %43 = landingpad { i8*, i32 }
          cleanup, !dbg !1385
; call core::panicking::panic_no_unwind
  call void @_ZN4core9panicking15panic_no_unwind17h62f8113f44cbfcbfE() #15, !dbg !1385
  unreachable, !dbg !1385

bb11:                                             ; preds = %bb10
  %44 = load i8, i8* %_35, align 1, !dbg !1303, !range !245, !noundef !140
  %45 = trunc i8 %44 to i1, !dbg !1303
  br i1 %45, label %bb15, label %bb12, !dbg !1303

bb14:                                             ; preds = %bb16, %bb17
  %46 = bitcast { i8*, i32 }* %3 to i8**, !dbg !1385
  %47 = load i8*, i8** %46, align 8, !dbg !1385
  %48 = getelementptr inbounds { i8*, i32 }, { i8*, i32 }* %3, i32 0, i32 1, !dbg !1385
  %49 = load i32, i32* %48, align 8, !dbg !1385
  %50 = insertvalue { i8*, i32 } undef, i8* %47, 0, !dbg !1385
  %51 = insertvalue { i8*, i32 } %50, i32 %49, 1, !dbg !1385
  resume { i8*, i32 } %51, !dbg !1385

bb16:                                             ; preds = %bb17
  br label %bb14, !dbg !1303

bb12:                                             ; preds = %bb15, %bb11
  ret void, !dbg !1386

bb15:                                             ; preds = %bb11
  br label %bb12, !dbg !1303
}

; alloc::vec::Vec<T,A>::reserve
; Function Attrs: nonlazybind uwtable
define void @"_ZN5alloc3vec16Vec$LT$T$C$A$GT$7reserve17h10f06679282f1355E"(%"alloc::vec::Vec<i32>"* align 8 %self, i64 %additional) unnamed_addr #1 !dbg !1387 {
start:
  %additional.dbg.spill = alloca i64, align 8
  %self.dbg.spill = alloca %"alloc::vec::Vec<i32>"*, align 8
  store %"alloc::vec::Vec<i32>"* %self, %"alloc::vec::Vec<i32>"** %self.dbg.spill, align 8
  call void @llvm.dbg.declare(metadata %"alloc::vec::Vec<i32>"** %self.dbg.spill, metadata !1391, metadata !DIExpression()), !dbg !1393
  store i64 %additional, i64* %additional.dbg.spill, align 8
  call void @llvm.dbg.declare(metadata i64* %additional.dbg.spill, metadata !1392, metadata !DIExpression()), !dbg !1394
  %_4 = bitcast %"alloc::vec::Vec<i32>"* %self to { i32*, i64 }*, !dbg !1395
  %0 = getelementptr inbounds %"alloc::vec::Vec<i32>", %"alloc::vec::Vec<i32>"* %self, i32 0, i32 1, !dbg !1396
  %_5 = load i64, i64* %0, align 8, !dbg !1396
; call alloc::raw_vec::RawVec<T,A>::reserve
  call void @"_ZN5alloc7raw_vec19RawVec$LT$T$C$A$GT$7reserve17hc4ee03f4f9f62be6E"({ i32*, i64 }* align 8 %_4, i64 %_5, i64 %additional), !dbg !1395
  br label %bb1, !dbg !1395

bb1:                                              ; preds = %start
  ret void, !dbg !1397
}

; alloc::vec::from_elem
; Function Attrs: nonlazybind uwtable
define void @_ZN5alloc3vec9from_elem17h24dc4e25bdbefd73E(%"alloc::vec::Vec<i32>"* sret(%"alloc::vec::Vec<i32>") %0, i32 %elem, i64 %n) unnamed_addr #1 !dbg !1398 {
start:
  %n.dbg.spill = alloca i64, align 8
  %elem.dbg.spill = alloca i32, align 4
  store i32 %elem, i32* %elem.dbg.spill, align 4
  call void @llvm.dbg.declare(metadata i32* %elem.dbg.spill, metadata !1402, metadata !DIExpression()), !dbg !1404
  store i64 %n, i64* %n.dbg.spill, align 8
  call void @llvm.dbg.declare(metadata i64* %n.dbg.spill, metadata !1403, metadata !DIExpression()), !dbg !1405
; call <T as alloc::vec::spec_from_elem::SpecFromElem>::from_elem
  call void @"_ZN62_$LT$T$u20$as$u20$alloc..vec..spec_from_elem..SpecFromElem$GT$9from_elem17hb933320d2d611d8fE"(%"alloc::vec::Vec<i32>"* sret(%"alloc::vec::Vec<i32>") %0, i32 %elem, i64 %n), !dbg !1406
  br label %bb1, !dbg !1406

bb1:                                              ; preds = %start
  ret void, !dbg !1407
}

; alloc::alloc::Global::alloc_impl
; Function Attrs: inlinehint nonlazybind uwtable
define internal { i8*, i64 } @_ZN5alloc5alloc6Global10alloc_impl17hea9263b0758b56d9E(%"alloc::alloc::Global"* align 1 %self, i64 %0, i64 %1, i1 zeroext %zeroed) unnamed_addr #0 !dbg !1408 {
start:
  %ptr.dbg.spill38 = alloca { [0 x i8]*, i64 }, align 8
  %data_address.dbg.spill35 = alloca {}*, align 8
  %self.dbg.spill33 = alloca i8*, align 8
  %data.dbg.spill32 = alloca i8*, align 8
  %self.dbg.spill31 = alloca i8*, align 8
  %ptr.dbg.spill29 = alloca i8*, align 8
  %2 = alloca i8*, align 8
  %addr.dbg.spill = alloca i64, align 8
  %n.dbg.spill28 = alloca i64, align 8
  %self.dbg.spill27 = alloca { i64, i64 }*, align 8
  %self.dbg.spill26 = alloca { i64, i64 }*, align 8
  %ptr.dbg.spill25 = alloca { [0 x i8]*, i64 }, align 8
  %metadata.dbg.spill = alloca i64, align 8
  %data_address.dbg.spill = alloca {}*, align 8
  %self.dbg.spill24 = alloca i8*, align 8
  %len.dbg.spill23 = alloca i64, align 8
  %data.dbg.spill22 = alloca i8*, align 8
  %self.dbg.spill21 = alloca i8*, align 8
  %len.dbg.spill = alloca i64, align 8
  %data.dbg.spill = alloca i8*, align 8
  %ptr.dbg.spill = alloca i8*, align 8
  %val.dbg.spill = alloca i8*, align 8
  %v.dbg.spill20 = alloca i8*, align 8
  %v.dbg.spill = alloca i8*, align 8
  %n.dbg.spill18 = alloca i64, align 8
  %self.dbg.spill17 = alloca { i64, i64 }*, align 8
  %self.dbg.spill16 = alloca { i64, i64 }*, align 8
  %n.dbg.spill = alloca i64, align 8
  %self.dbg.spill15 = alloca { i64, i64 }*, align 8
  %self.dbg.spill14 = alloca { i64, i64 }*, align 8
  %size.dbg.spill = alloca i64, align 8
  %self.dbg.spill13 = alloca { i64, i64 }*, align 8
  %e.dbg.spill12 = alloca %"core::alloc::AllocError", align 1
  %e.dbg.spill = alloca %"core::alloc::AllocError", align 1
  %residual.dbg.spill5 = alloca %"core::result::Result<core::convert::Infallible, core::alloc::AllocError>::Err", align 1
  %residual.dbg.spill = alloca %"core::result::Result<core::convert::Infallible, core::alloc::AllocError>::Err", align 1
  %err.dbg.spill = alloca %"core::alloc::AllocError", align 1
  %zeroed.dbg.spill = alloca i8, align 1
  %self.dbg.spill = alloca %"alloc::alloc::Global"*, align 8
  %_94 = alloca { i8*, i64 }, align 8
  %_93 = alloca %"core::ptr::metadata::PtrRepr<[u8]>", align 8
  %self11 = alloca i64, align 8
  %self10 = alloca i64, align 8
  %self9 = alloca i64, align 8
  %self8 = alloca i64, align 8
  %_51 = alloca { i8*, i64 }, align 8
  %_50 = alloca %"core::ptr::metadata::PtrRepr<[u8]>", align 8
  %self7 = alloca i64, align 8
  %self6 = alloca i64, align 8
  %_24 = alloca { i8*, i64 }, align 8
  %self4 = alloca i8*, align 8
  %self3 = alloca i8*, align 8
  %_15 = alloca i8*, align 8
  %layout2 = alloca { i64, i64 }, align 8
  %layout1 = alloca { i64, i64 }, align 8
  %raw_ptr = alloca i8*, align 8
  %data = alloca i8*, align 8
  %_6 = alloca { i8*, i64 }, align 8
  %3 = alloca { i8*, i64 }, align 8
  %layout = alloca { i64, i64 }, align 8
  %4 = getelementptr inbounds { i64, i64 }, { i64, i64 }* %layout, i32 0, i32 0
  store i64 %0, i64* %4, align 8
  %5 = getelementptr inbounds { i64, i64 }, { i64, i64 }* %layout, i32 0, i32 1
  store i64 %1, i64* %5, align 8
  store %"alloc::alloc::Global"* %self, %"alloc::alloc::Global"** %self.dbg.spill, align 8
  call void @llvm.dbg.declare(metadata %"alloc::alloc::Global"** %self.dbg.spill, metadata !1414, metadata !DIExpression()), !dbg !1440
  call void @llvm.dbg.declare(metadata { i64, i64 }* %layout, metadata !1415, metadata !DIExpression()), !dbg !1441
  %6 = zext i1 %zeroed to i8
  store i8 %6, i8* %zeroed.dbg.spill, align 1
  call void @llvm.dbg.declare(metadata i8* %zeroed.dbg.spill, metadata !1416, metadata !DIExpression()), !dbg !1442
  call void @llvm.dbg.declare(metadata i8** %data, metadata !1443, metadata !DIExpression()), !dbg !1450
  call void @llvm.dbg.declare(metadata i8** %raw_ptr, metadata !1419, metadata !DIExpression()), !dbg !1452
  call void @llvm.dbg.declare(metadata { i64, i64 }* %layout1, metadata !1453, metadata !DIExpression()), !dbg !1458
  call void @llvm.dbg.declare(metadata { i64, i64 }* %layout2, metadata !1460, metadata !DIExpression()), !dbg !1463
  call void @llvm.dbg.declare(metadata i8** %self3, metadata !1465, metadata !DIExpression()), !dbg !1507
  call void @llvm.dbg.declare(metadata i8** %self4, metadata !1509, metadata !DIExpression()), !dbg !1519
  call void @llvm.dbg.declare(metadata %"core::alloc::AllocError"* %err.dbg.spill, metadata !1515, metadata !DIExpression()), !dbg !1519
  call void @llvm.dbg.declare(metadata %"core::result::Result<core::convert::Infallible, core::alloc::AllocError>::Err"* %residual.dbg.spill, metadata !1423, metadata !DIExpression()), !dbg !1520
  call void @llvm.dbg.declare(metadata %"core::result::Result<core::convert::Infallible, core::alloc::AllocError>::Err"* %residual.dbg.spill5, metadata !1521, metadata !DIExpression()), !dbg !1532
  call void @llvm.dbg.declare(metadata i64* %self6, metadata !1534, metadata !DIExpression()), !dbg !1538
  call void @llvm.dbg.declare(metadata i64* %self7, metadata !1554, metadata !DIExpression()), !dbg !1558
  call void @llvm.dbg.declare(metadata i64* %self8, metadata !1559, metadata !DIExpression()), !dbg !1563
  call void @llvm.dbg.declare(metadata i64* %self9, metadata !1570, metadata !DIExpression()), !dbg !1574
  call void @llvm.dbg.declare(metadata i64* %self10, metadata !1575, metadata !DIExpression()), !dbg !1579
  call void @llvm.dbg.declare(metadata i64* %self11, metadata !1586, metadata !DIExpression()), !dbg !1590
  call void @llvm.dbg.declare(metadata %"core::alloc::AllocError"* %e.dbg.spill, metadata !1504, metadata !DIExpression()), !dbg !1591
  call void @llvm.dbg.declare(metadata %"core::alloc::AllocError"* %e.dbg.spill12, metadata !1527, metadata !DIExpression()), !dbg !1592
  store { i64, i64 }* %layout, { i64, i64 }** %self.dbg.spill13, align 8, !dbg !1593
  call void @llvm.dbg.declare(metadata { i64, i64 }** %self.dbg.spill13, metadata !1594, metadata !DIExpression()), !dbg !1598
  %7 = bitcast { i64, i64 }* %layout to i64*, !dbg !1598
  %_4 = load i64, i64* %7, align 8, !dbg !1598
  %8 = icmp eq i64 %_4, 0, !dbg !1599
  br i1 %8, label %bb2, label %bb1, !dbg !1599

bb2:                                              ; preds = %start
  store { i64, i64 }* %layout, { i64, i64 }** %self.dbg.spill26, align 8, !dbg !1553
  call void @llvm.dbg.declare(metadata { i64, i64 }** %self.dbg.spill26, metadata !1551, metadata !DIExpression()), !dbg !1600
  store { i64, i64 }* %layout, { i64, i64 }** %self.dbg.spill27, align 8, !dbg !1600
  call void @llvm.dbg.declare(metadata { i64, i64 }** %self.dbg.spill27, metadata !1544, metadata !DIExpression()), !dbg !1601
  %9 = getelementptr inbounds { i64, i64 }, { i64, i64 }* %layout, i32 0, i32 1, !dbg !1601
  %10 = load i64, i64* %9, align 8, !dbg !1601, !range !645, !noundef !140
  store i64 %10, i64* %self7, align 8, !dbg !1601
  %_33 = load i64, i64* %self7, align 8, !dbg !1558, !range !645, !noundef !140
  store i64 %_33, i64* %n.dbg.spill28, align 8, !dbg !1558
  call void @llvm.dbg.declare(metadata i64* %n.dbg.spill28, metadata !1602, metadata !DIExpression()), !dbg !1609
  store i64 %_33, i64* %self6, align 8, !dbg !1609
  %addr = load i64, i64* %self6, align 8, !dbg !1538
  store i64 %addr, i64* %addr.dbg.spill, align 8, !dbg !1538
  call void @llvm.dbg.declare(metadata i64* %addr.dbg.spill, metadata !1611, metadata !DIExpression()), !dbg !1617
  %11 = bitcast i8** %2 to i64*, !dbg !1617
  store i64 %addr, i64* %11, align 8, !dbg !1617
  %ptr = load i8*, i8** %2, align 8, !dbg !1617
  store i8* %ptr, i8** %ptr.dbg.spill29, align 8, !dbg !1617
  call void @llvm.dbg.declare(metadata i8** %ptr.dbg.spill29, metadata !1619, metadata !DIExpression()), !dbg !1623
  br label %bb13, !dbg !1617

bb1:                                              ; preds = %start
  store i64 %_4, i64* %size.dbg.spill, align 8, !dbg !1625
  call void @llvm.dbg.declare(metadata i64* %size.dbg.spill, metadata !1417, metadata !DIExpression()), !dbg !1626
  br i1 %zeroed, label %bb3, label %bb4, !dbg !1627

bb4:                                              ; preds = %bb1
  %12 = getelementptr inbounds { i64, i64 }, { i64, i64 }* %layout, i32 0, i32 0, !dbg !1628
  %13 = load i64, i64* %12, align 8, !dbg !1628
  %14 = getelementptr inbounds { i64, i64 }, { i64, i64 }* %layout, i32 0, i32 1, !dbg !1628
  %15 = load i64, i64* %14, align 8, !dbg !1628, !range !645, !noundef !140
  %16 = getelementptr inbounds { i64, i64 }, { i64, i64 }* %layout2, i32 0, i32 0, !dbg !1628
  store i64 %13, i64* %16, align 8, !dbg !1628
  %17 = getelementptr inbounds { i64, i64 }, { i64, i64 }* %layout2, i32 0, i32 1, !dbg !1628
  store i64 %15, i64* %17, align 8, !dbg !1628
  store { i64, i64 }* %layout2, { i64, i64 }** %self.dbg.spill16, align 8, !dbg !1463
  call void @llvm.dbg.declare(metadata { i64, i64 }** %self.dbg.spill16, metadata !1629, metadata !DIExpression()), !dbg !1633
  %18 = bitcast { i64, i64 }* %layout2 to i64*, !dbg !1633
  %_67 = load i64, i64* %18, align 8, !dbg !1633
  store { i64, i64 }* %layout2, { i64, i64 }** %self.dbg.spill17, align 8, !dbg !1463
  call void @llvm.dbg.declare(metadata { i64, i64 }** %self.dbg.spill17, metadata !1583, metadata !DIExpression()), !dbg !1635
  %19 = getelementptr inbounds { i64, i64 }, { i64, i64 }* %layout2, i32 0, i32 1, !dbg !1635
  %20 = load i64, i64* %19, align 8, !dbg !1635, !range !645, !noundef !140
  store i64 %20, i64* %self11, align 8, !dbg !1635
  %_74 = load i64, i64* %self11, align 8, !dbg !1590, !range !645, !noundef !140
  store i64 %_74, i64* %n.dbg.spill18, align 8, !dbg !1590
  call void @llvm.dbg.declare(metadata i64* %n.dbg.spill18, metadata !1636, metadata !DIExpression()), !dbg !1643
  store i64 %_74, i64* %self10, align 8, !dbg !1643
  %_69 = load i64, i64* %self10, align 8, !dbg !1579
  %21 = call i8* @__rust_alloc(i64 %_67, i64 %_69) #16, !dbg !1463
  store i8* %21, i8** %raw_ptr, align 8, !dbg !1463
  br label %bb15, !dbg !1463

bb3:                                              ; preds = %bb1
  %22 = getelementptr inbounds { i64, i64 }, { i64, i64 }* %layout, i32 0, i32 0, !dbg !1645
  %23 = load i64, i64* %22, align 8, !dbg !1645
  %24 = getelementptr inbounds { i64, i64 }, { i64, i64 }* %layout, i32 0, i32 1, !dbg !1645
  %25 = load i64, i64* %24, align 8, !dbg !1645, !range !645, !noundef !140
  %26 = getelementptr inbounds { i64, i64 }, { i64, i64 }* %layout1, i32 0, i32 0, !dbg !1645
  store i64 %23, i64* %26, align 8, !dbg !1645
  %27 = getelementptr inbounds { i64, i64 }, { i64, i64 }* %layout1, i32 0, i32 1, !dbg !1645
  store i64 %25, i64* %27, align 8, !dbg !1645
  store { i64, i64 }* %layout1, { i64, i64 }** %self.dbg.spill14, align 8, !dbg !1458
  call void @llvm.dbg.declare(metadata { i64, i64 }** %self.dbg.spill14, metadata !1646, metadata !DIExpression()), !dbg !1650
  %28 = bitcast { i64, i64 }* %layout1 to i64*, !dbg !1650
  %_57 = load i64, i64* %28, align 8, !dbg !1650
  store { i64, i64 }* %layout1, { i64, i64 }** %self.dbg.spill15, align 8, !dbg !1458
  call void @llvm.dbg.declare(metadata { i64, i64 }** %self.dbg.spill15, metadata !1567, metadata !DIExpression()), !dbg !1652
  %29 = getelementptr inbounds { i64, i64 }, { i64, i64 }* %layout1, i32 0, i32 1, !dbg !1652
  %30 = load i64, i64* %29, align 8, !dbg !1652, !range !645, !noundef !140
  store i64 %30, i64* %self9, align 8, !dbg !1652
  %_64 = load i64, i64* %self9, align 8, !dbg !1574, !range !645, !noundef !140
  store i64 %_64, i64* %n.dbg.spill, align 8, !dbg !1574
  call void @llvm.dbg.declare(metadata i64* %n.dbg.spill, metadata !1653, metadata !DIExpression()), !dbg !1660
  store i64 %_64, i64* %self8, align 8, !dbg !1660
  %_59 = load i64, i64* %self8, align 8, !dbg !1563
  %31 = call i8* @__rust_alloc_zeroed(i64 %_57, i64 %_59) #16, !dbg !1458
  store i8* %31, i8** %raw_ptr, align 8, !dbg !1458
  br label %bb14, !dbg !1458

bb14:                                             ; preds = %bb3
  br label %bb5, !dbg !1662

bb5:                                              ; preds = %bb15, %bb14
  %_18 = load i8*, i8** %raw_ptr, align 8, !dbg !1663
; call core::ptr::non_null::NonNull<T>::new
  %32 = call i8* @"_ZN4core3ptr8non_null16NonNull$LT$T$GT$3new17h04dfd1802f349fbdE"(i8* %_18), !dbg !1508
  store i8* %32, i8** %self4, align 8, !dbg !1508
  br label %bb6, !dbg !1508

bb15:                                             ; preds = %bb4
  br label %bb5, !dbg !1662

bb6:                                              ; preds = %bb5
  %33 = bitcast i8** %self4 to {}**, !dbg !1519
  %34 = load {}*, {}** %33, align 8, !dbg !1519
  %35 = icmp eq {}* %34, null, !dbg !1519
  %_77 = select i1 %35, i64 0, i64 1, !dbg !1519
  switch i64 %_77, label %bb17 [
    i64 0, label %bb16
    i64 1, label %bb18
  ], !dbg !1519

bb17:                                             ; preds = %bb6
  unreachable, !dbg !1519

bb16:                                             ; preds = %bb6
  %36 = bitcast i8** %self3 to {}**, !dbg !1519
  store {}* null, {}** %36, align 8, !dbg !1519
  br label %bb19, !dbg !1519

bb18:                                             ; preds = %bb6
  %v = load i8*, i8** %self4, align 8, !dbg !1519, !nonnull !140, !noundef !140
  store i8* %v, i8** %v.dbg.spill, align 8, !dbg !1519
  call void @llvm.dbg.declare(metadata i8** %v.dbg.spill, metadata !1516, metadata !DIExpression()), !dbg !1664
  store i8* %v, i8** %self3, align 8, !dbg !1664
  br label %bb19, !dbg !1519

bb19:                                             ; preds = %bb16, %bb18
  %37 = bitcast i8** %self3 to {}**, !dbg !1507
  %38 = load {}*, {}** %37, align 8, !dbg !1507
  %39 = icmp eq {}* %38, null, !dbg !1507
  %_80 = select i1 %39, i64 1, i64 0, !dbg !1507
  switch i64 %_80, label %bb21 [
    i64 0, label %bb22
    i64 1, label %bb20
  ], !dbg !1507

bb21:                                             ; preds = %bb19
  unreachable, !dbg !1507

bb22:                                             ; preds = %bb19
  %v19 = load i8*, i8** %self3, align 8, !dbg !1507, !nonnull !140, !noundef !140
  store i8* %v19, i8** %v.dbg.spill20, align 8, !dbg !1507
  call void @llvm.dbg.declare(metadata i8** %v.dbg.spill20, metadata !1501, metadata !DIExpression()), !dbg !1665
  store i8* %v19, i8** %_15, align 8, !dbg !1665
  br label %bb7, !dbg !1507

bb20:                                             ; preds = %bb19
  %40 = bitcast i8** %_15 to {}**, !dbg !1591
  store {}* null, {}** %40, align 8, !dbg !1591
  br label %bb7, !dbg !1507

bb7:                                              ; preds = %bb22, %bb20
  %41 = bitcast i8** %_15 to {}**, !dbg !1508
  %42 = load {}*, {}** %41, align 8, !dbg !1508
  %43 = icmp eq {}* %42, null, !dbg !1508
  %_20 = select i1 %43, i64 1, i64 0, !dbg !1508
  switch i64 %_20, label %bb9 [
    i64 0, label %bb8
    i64 1, label %bb10
  ], !dbg !1508

bb9:                                              ; preds = %bb7
  unreachable, !dbg !1508

bb8:                                              ; preds = %bb7
  %val = load i8*, i8** %_15, align 8, !dbg !1508, !nonnull !140, !noundef !140
  store i8* %val, i8** %val.dbg.spill, align 8, !dbg !1508
  call void @llvm.dbg.declare(metadata i8** %val.dbg.spill, metadata !1438, metadata !DIExpression()), !dbg !1666
  store i8* %val, i8** %ptr.dbg.spill, align 8, !dbg !1666
  call void @llvm.dbg.declare(metadata i8** %ptr.dbg.spill, metadata !1421, metadata !DIExpression()), !dbg !1667
  store i8* %val, i8** %data.dbg.spill, align 8, !dbg !1668
  call void @llvm.dbg.declare(metadata i8** %data.dbg.spill, metadata !1669, metadata !DIExpression()), !dbg !1674
  store i64 %_4, i64* %len.dbg.spill, align 8, !dbg !1676
  call void @llvm.dbg.declare(metadata i64* %len.dbg.spill, metadata !1673, metadata !DIExpression()), !dbg !1674
  store i8* %val, i8** %self.dbg.spill21, align 8, !dbg !1674
  call void @llvm.dbg.declare(metadata i8** %self.dbg.spill21, metadata !1677, metadata !DIExpression()), !dbg !1681
  store i8* %val, i8** %data.dbg.spill22, align 8, !dbg !1681
  call void @llvm.dbg.declare(metadata i8** %data.dbg.spill22, metadata !1683, metadata !DIExpression()), !dbg !1694
  store i64 %_4, i64* %len.dbg.spill23, align 8, !dbg !1674
  call void @llvm.dbg.declare(metadata i64* %len.dbg.spill23, metadata !1693, metadata !DIExpression()), !dbg !1694
  store i8* %val, i8** %self.dbg.spill24, align 8, !dbg !1694
  call void @llvm.dbg.declare(metadata i8** %self.dbg.spill24, metadata !1696, metadata !DIExpression()), !dbg !1704
  %data_address = bitcast i8* %val to {}*, !dbg !1704
  store {}* %data_address, {}** %data_address.dbg.spill, align 8, !dbg !1704
  call void @llvm.dbg.declare(metadata {}** %data_address.dbg.spill, metadata !1706, metadata !DIExpression()), !dbg !1713
  store i64 %_4, i64* %metadata.dbg.spill, align 8, !dbg !1694
  call void @llvm.dbg.declare(metadata i64* %metadata.dbg.spill, metadata !1712, metadata !DIExpression()), !dbg !1713
  %44 = bitcast { i8*, i64 }* %_94 to {}**, !dbg !1713
  store {}* %data_address, {}** %44, align 8, !dbg !1713
  %45 = getelementptr inbounds { i8*, i64 }, { i8*, i64 }* %_94, i32 0, i32 1, !dbg !1713
  store i64 %_4, i64* %45, align 8, !dbg !1713
  %46 = bitcast %"core::ptr::metadata::PtrRepr<[u8]>"* %_93 to { i8*, i64 }*, !dbg !1713
  %47 = getelementptr inbounds { i8*, i64 }, { i8*, i64 }* %_94, i32 0, i32 0, !dbg !1713
  %48 = load i8*, i8** %47, align 8, !dbg !1713
  %49 = getelementptr inbounds { i8*, i64 }, { i8*, i64 }* %_94, i32 0, i32 1, !dbg !1713
  %50 = load i64, i64* %49, align 8, !dbg !1713
  %51 = getelementptr inbounds { i8*, i64 }, { i8*, i64 }* %46, i32 0, i32 0, !dbg !1713
  store i8* %48, i8** %51, align 8, !dbg !1713
  %52 = getelementptr inbounds { i8*, i64 }, { i8*, i64 }* %46, i32 0, i32 1, !dbg !1713
  store i64 %50, i64* %52, align 8, !dbg !1713
  %53 = bitcast %"core::ptr::metadata::PtrRepr<[u8]>"* %_93 to { [0 x i8]*, i64 }*, !dbg !1713
  %54 = getelementptr inbounds { [0 x i8]*, i64 }, { [0 x i8]*, i64 }* %53, i32 0, i32 0, !dbg !1713
  %ptr.0 = load [0 x i8]*, [0 x i8]** %54, align 8, !dbg !1713
  %55 = getelementptr inbounds { [0 x i8]*, i64 }, { [0 x i8]*, i64 }* %53, i32 0, i32 1, !dbg !1713
  %ptr.1 = load i64, i64* %55, align 8, !dbg !1713
  %56 = getelementptr inbounds { [0 x i8]*, i64 }, { [0 x i8]*, i64 }* %ptr.dbg.spill25, i32 0, i32 0, !dbg !1713
  store [0 x i8]* %ptr.0, [0 x i8]** %56, align 8, !dbg !1713
  %57 = getelementptr inbounds { [0 x i8]*, i64 }, { [0 x i8]*, i64 }* %ptr.dbg.spill25, i32 0, i32 1, !dbg !1713
  store i64 %ptr.1, i64* %57, align 8, !dbg !1713
  call void @llvm.dbg.declare(metadata { [0 x i8]*, i64 }* %ptr.dbg.spill25, metadata !1715, metadata !DIExpression()), !dbg !1721
  %58 = bitcast { i8*, i64 }* %_24 to { [0 x i8]*, i64 }*, !dbg !1721
  %59 = getelementptr inbounds { [0 x i8]*, i64 }, { [0 x i8]*, i64 }* %58, i32 0, i32 0, !dbg !1721
  store [0 x i8]* %ptr.0, [0 x i8]** %59, align 8, !dbg !1721
  %60 = getelementptr inbounds { [0 x i8]*, i64 }, { [0 x i8]*, i64 }* %58, i32 0, i32 1, !dbg !1721
  store i64 %ptr.1, i64* %60, align 8, !dbg !1721
  %61 = getelementptr inbounds { i8*, i64 }, { i8*, i64 }* %_24, i32 0, i32 0, !dbg !1723
  %62 = load i8*, i8** %61, align 8, !dbg !1723, !nonnull !140, !noundef !140
  %63 = getelementptr inbounds { i8*, i64 }, { i8*, i64 }* %_24, i32 0, i32 1, !dbg !1723
  %64 = load i64, i64* %63, align 8, !dbg !1723
  %65 = getelementptr inbounds { i8*, i64 }, { i8*, i64 }* %3, i32 0, i32 0, !dbg !1723
  store i8* %62, i8** %65, align 8, !dbg !1723
  %66 = getelementptr inbounds { i8*, i64 }, { i8*, i64 }* %3, i32 0, i32 1, !dbg !1723
  store i64 %64, i64* %66, align 8, !dbg !1723
  br label %bb11, !dbg !1724

bb10:                                             ; preds = %bb7
; call <T as core::convert::From<T>>::from
  call void @"_ZN50_$LT$T$u20$as$u20$core..convert..From$LT$T$GT$$GT$4from17h841464a645d964abE"(), !dbg !1592
  br label %bb23, !dbg !1592

bb23:                                             ; preds = %bb10
  %67 = bitcast { i8*, i64 }* %3 to {}**, !dbg !1592
  store {}* null, {}** %67, align 8, !dbg !1592
  br label %bb12, !dbg !1725

bb12:                                             ; preds = %bb11, %bb23
  %68 = getelementptr inbounds { i8*, i64 }, { i8*, i64 }* %3, i32 0, i32 0, !dbg !1725
  %69 = load i8*, i8** %68, align 8, !dbg !1725
  %70 = getelementptr inbounds { i8*, i64 }, { i8*, i64 }* %3, i32 0, i32 1, !dbg !1725
  %71 = load i64, i64* %70, align 8, !dbg !1725
  %72 = insertvalue { i8*, i64 } undef, i8* %69, 0, !dbg !1725
  %73 = insertvalue { i8*, i64 } %72, i64 %71, 1, !dbg !1725
  ret { i8*, i64 } %73, !dbg !1725

bb11:                                             ; preds = %bb13, %bb8
  br label %bb12, !dbg !1725

bb13:                                             ; preds = %bb2
  store i8* %ptr, i8** %data, align 8, !dbg !1623
  %self30 = load i8*, i8** %data, align 8, !dbg !1450, !nonnull !140, !noundef !140
  store i8* %self30, i8** %self.dbg.spill31, align 8, !dbg !1450
  call void @llvm.dbg.declare(metadata i8** %self.dbg.spill31, metadata !1726, metadata !DIExpression()), !dbg !1730
  store i8* %self30, i8** %data.dbg.spill32, align 8, !dbg !1730
  call void @llvm.dbg.declare(metadata i8** %data.dbg.spill32, metadata !1732, metadata !DIExpression()), !dbg !1737
  store i8* %self30, i8** %self.dbg.spill33, align 8, !dbg !1737
  call void @llvm.dbg.declare(metadata i8** %self.dbg.spill33, metadata !1739, metadata !DIExpression()), !dbg !1743
  %data_address34 = bitcast i8* %self30 to {}*, !dbg !1743
  store {}* %data_address34, {}** %data_address.dbg.spill35, align 8, !dbg !1743
  call void @llvm.dbg.declare(metadata {}** %data_address.dbg.spill35, metadata !1745, metadata !DIExpression()), !dbg !1750
  %74 = bitcast { i8*, i64 }* %_51 to {}**, !dbg !1750
  store {}* %data_address34, {}** %74, align 8, !dbg !1750
  %75 = getelementptr inbounds { i8*, i64 }, { i8*, i64 }* %_51, i32 0, i32 1, !dbg !1750
  store i64 0, i64* %75, align 8, !dbg !1750
  %76 = bitcast %"core::ptr::metadata::PtrRepr<[u8]>"* %_50 to { i8*, i64 }*, !dbg !1750
  %77 = getelementptr inbounds { i8*, i64 }, { i8*, i64 }* %_51, i32 0, i32 0, !dbg !1750
  %78 = load i8*, i8** %77, align 8, !dbg !1750
  %79 = getelementptr inbounds { i8*, i64 }, { i8*, i64 }* %_51, i32 0, i32 1, !dbg !1750
  %80 = load i64, i64* %79, align 8, !dbg !1750
  %81 = getelementptr inbounds { i8*, i64 }, { i8*, i64 }* %76, i32 0, i32 0, !dbg !1750
  store i8* %78, i8** %81, align 8, !dbg !1750
  %82 = getelementptr inbounds { i8*, i64 }, { i8*, i64 }* %76, i32 0, i32 1, !dbg !1750
  store i64 %80, i64* %82, align 8, !dbg !1750
  %83 = bitcast %"core::ptr::metadata::PtrRepr<[u8]>"* %_50 to { [0 x i8]*, i64 }*, !dbg !1750
  %84 = getelementptr inbounds { [0 x i8]*, i64 }, { [0 x i8]*, i64 }* %83, i32 0, i32 0, !dbg !1750
  %ptr.036 = load [0 x i8]*, [0 x i8]** %84, align 8, !dbg !1750
  %85 = getelementptr inbounds { [0 x i8]*, i64 }, { [0 x i8]*, i64 }* %83, i32 0, i32 1, !dbg !1750
  %ptr.137 = load i64, i64* %85, align 8, !dbg !1750
  %86 = getelementptr inbounds { [0 x i8]*, i64 }, { [0 x i8]*, i64 }* %ptr.dbg.spill38, i32 0, i32 0, !dbg !1750
  store [0 x i8]* %ptr.036, [0 x i8]** %86, align 8, !dbg !1750
  %87 = getelementptr inbounds { [0 x i8]*, i64 }, { [0 x i8]*, i64 }* %ptr.dbg.spill38, i32 0, i32 1, !dbg !1750
  store i64 %ptr.137, i64* %87, align 8, !dbg !1750
  call void @llvm.dbg.declare(metadata { [0 x i8]*, i64 }* %ptr.dbg.spill38, metadata !1752, metadata !DIExpression()), !dbg !1756
  %88 = bitcast { i8*, i64 }* %_6 to { [0 x i8]*, i64 }*, !dbg !1756
  %89 = getelementptr inbounds { [0 x i8]*, i64 }, { [0 x i8]*, i64 }* %88, i32 0, i32 0, !dbg !1756
  store [0 x i8]* %ptr.036, [0 x i8]** %89, align 8, !dbg !1756
  %90 = getelementptr inbounds { [0 x i8]*, i64 }, { [0 x i8]*, i64 }* %88, i32 0, i32 1, !dbg !1756
  store i64 %ptr.137, i64* %90, align 8, !dbg !1756
  %91 = getelementptr inbounds { i8*, i64 }, { i8*, i64 }* %_6, i32 0, i32 0, !dbg !1758
  %92 = load i8*, i8** %91, align 8, !dbg !1758, !nonnull !140, !noundef !140
  %93 = getelementptr inbounds { i8*, i64 }, { i8*, i64 }* %_6, i32 0, i32 1, !dbg !1758
  %94 = load i64, i64* %93, align 8, !dbg !1758
  %95 = getelementptr inbounds { i8*, i64 }, { i8*, i64 }* %3, i32 0, i32 0, !dbg !1758
  store i8* %92, i8** %95, align 8, !dbg !1758
  %96 = getelementptr inbounds { i8*, i64 }, { i8*, i64 }* %3, i32 0, i32 1, !dbg !1758
  store i64 %94, i64* %96, align 8, !dbg !1758
  br label %bb11, !dbg !1759
}

; alloc::alloc::Global::grow_impl
; Function Attrs: inlinehint nonlazybind uwtable
define internal { i8*, i64 } @_ZN5alloc5alloc6Global9grow_impl17h179fb7ce387b3544E(%"alloc::alloc::Global"* align 1 %self, i8* %ptr, i64 %0, i64 %1, i64 %2, i64 %3, i1 zeroext %zeroed) unnamed_addr #0 !dbg !1760 {
start:
  %count.dbg.spill54 = alloca i64, align 8
  %dst.dbg.spill53 = alloca i8*, align 8
  %ptr.dbg.spill52 = alloca i8*, align 8
  %self.dbg.spill50 = alloca { [0 x i8]*, i64 }, align 8
  %self.dbg.spill49 = alloca { i8*, i64 }, align 8
  %self.dbg.spill48 = alloca { i8*, i64 }, align 8
  %self.dbg.spill47 = alloca { i8*, i64 }, align 8
  %src.dbg.spill = alloca i8*, align 8
  %self.dbg.spill46 = alloca i8*, align 8
  %new_ptr.dbg.spill = alloca { i8*, i64 }, align 8
  %val.dbg.spill45 = alloca { i8*, i64 }, align 8
  %v.dbg.spill44 = alloca { i8*, i64 }, align 8
  %old_size.dbg.spill43 = alloca i64, align 8
  %ptr.dbg.spill42 = alloca { [0 x i8]*, i64 }, align 8
  %metadata.dbg.spill = alloca i64, align 8
  %data_address.dbg.spill = alloca {}*, align 8
  %self.dbg.spill41 = alloca i8*, align 8
  %len.dbg.spill40 = alloca i64, align 8
  %data.dbg.spill39 = alloca i8*, align 8
  %self.dbg.spill38 = alloca i8*, align 8
  %len.dbg.spill = alloca i64, align 8
  %data.dbg.spill = alloca i8*, align 8
  %count.dbg.spill37 = alloca i64, align 8
  %dst.dbg.spill = alloca i8*, align 8
  %count.dbg.spill36 = alloca i64, align 8
  %self.dbg.spill35 = alloca i8*, align 8
  %4 = alloca i8*, align 8
  %count.dbg.spill34 = alloca i64, align 8
  %self.dbg.spill33 = alloca i8*, align 8
  %count.dbg.spill = alloca i64, align 8
  %self.dbg.spill32 = alloca i8*, align 8
  %ptr.dbg.spill31 = alloca i8*, align 8
  %val.dbg.spill = alloca i8*, align 8
  %v.dbg.spill30 = alloca i8*, align 8
  %v.dbg.spill = alloca i8*, align 8
  %raw_ptr.dbg.spill = alloca i8*, align 8
  %n.dbg.spill28 = alloca i64, align 8
  %self.dbg.spill27 = alloca { i64, i64 }*, align 8
  %self.dbg.spill26 = alloca { i64, i64 }*, align 8
  %new_size.dbg.spill25 = alloca i64, align 8
  %ptr.dbg.spill24 = alloca i8*, align 8
  %self.dbg.spill23 = alloca i8*, align 8
  %self.dbg.spill22 = alloca { i64, i64 }*, align 8
  %new_size.dbg.spill = alloca i64, align 8
  %self.dbg.spill21 = alloca { i64, i64 }*, align 8
  %old_size.dbg.spill = alloca i64, align 8
  %n.dbg.spill20 = alloca i64, align 8
  %self.dbg.spill19 = alloca { i64, i64 }*, align 8
  %n.dbg.spill = alloca i64, align 8
  %self.dbg.spill18 = alloca { i64, i64 }*, align 8
  %self.dbg.spill17 = alloca { i64, i64 }*, align 8
  %e.dbg.spill15 = alloca %"core::alloc::AllocError", align 1
  %e.dbg.spill14 = alloca %"core::alloc::AllocError", align 1
  %e.dbg.spill13 = alloca %"core::alloc::AllocError", align 1
  %e.dbg.spill = alloca %"core::alloc::AllocError", align 1
  %residual.dbg.spill6 = alloca %"core::result::Result<core::convert::Infallible, core::alloc::AllocError>::Err", align 1
  %residual.dbg.spill5 = alloca %"core::result::Result<core::convert::Infallible, core::alloc::AllocError>::Err", align 1
  %residual.dbg.spill3 = alloca %"core::result::Result<core::convert::Infallible, core::alloc::AllocError>::Err", align 1
  %residual.dbg.spill = alloca %"core::result::Result<core::convert::Infallible, core::alloc::AllocError>::Err", align 1
  %err.dbg.spill = alloca %"core::alloc::AllocError", align 1
  %zeroed.dbg.spill = alloca i8, align 1
  %ptr.dbg.spill = alloca i8*, align 8
  %self.dbg.spill = alloca %"alloc::alloc::Global"*, align 8
  %runtime = alloca %"[closure@core::intrinsics::copy_nonoverlapping<u8>::{closure#0}]", align 8
  %self16 = alloca i8*, align 8
  %_135 = alloca { i8*, i64 }, align 8
  %_134 = alloca %"core::ptr::metadata::PtrRepr<[u8]>", align 8
  %self12 = alloca i64, align 8
  %self11 = alloca i64, align 8
  %self10 = alloca i64, align 8
  %self9 = alloca i64, align 8
  %self8 = alloca i64, align 8
  %self7 = alloca i64, align 8
  %self4 = alloca { i8*, i64 }, align 8
  %_55 = alloca { i8*, i64 }, align 8
  %_50 = alloca { i8*, i64 }, align 8
  %self2 = alloca i8*, align 8
  %self1 = alloca i8*, align 8
  %_33 = alloca i8*, align 8
  %layout = alloca { i64, i64 }, align 8
  %5 = alloca { i8*, i64 }, align 8
  %new_layout = alloca { i64, i64 }, align 8
  %old_layout = alloca { i64, i64 }, align 8
  %6 = getelementptr inbounds { i64, i64 }, { i64, i64 }* %old_layout, i32 0, i32 0
  store i64 %0, i64* %6, align 8
  %7 = getelementptr inbounds { i64, i64 }, { i64, i64 }* %old_layout, i32 0, i32 1
  store i64 %1, i64* %7, align 8
  %8 = getelementptr inbounds { i64, i64 }, { i64, i64 }* %new_layout, i32 0, i32 0
  store i64 %2, i64* %8, align 8
  %9 = getelementptr inbounds { i64, i64 }, { i64, i64 }* %new_layout, i32 0, i32 1
  store i64 %3, i64* %9, align 8
  store %"alloc::alloc::Global"* %self, %"alloc::alloc::Global"** %self.dbg.spill, align 8
  call void @llvm.dbg.declare(metadata %"alloc::alloc::Global"** %self.dbg.spill, metadata !1764, metadata !DIExpression()), !dbg !1790
  store i8* %ptr, i8** %ptr.dbg.spill, align 8
  call void @llvm.dbg.declare(metadata i8** %ptr.dbg.spill, metadata !1765, metadata !DIExpression()), !dbg !1791
  call void @llvm.dbg.declare(metadata { i64, i64 }* %old_layout, metadata !1766, metadata !DIExpression()), !dbg !1792
  call void @llvm.dbg.declare(metadata { i64, i64 }* %new_layout, metadata !1767, metadata !DIExpression()), !dbg !1793
  %10 = zext i1 %zeroed to i8
  store i8 %10, i8* %zeroed.dbg.spill, align 1
  call void @llvm.dbg.declare(metadata i8* %zeroed.dbg.spill, metadata !1768, metadata !DIExpression()), !dbg !1794
  call void @llvm.dbg.declare(metadata { i64, i64 }* %layout, metadata !1795, metadata !DIExpression()), !dbg !1802
  call void @llvm.dbg.declare(metadata i8** %self1, metadata !1804, metadata !DIExpression()), !dbg !1814
  call void @llvm.dbg.declare(metadata i8** %self2, metadata !1816, metadata !DIExpression()), !dbg !1824
  call void @llvm.dbg.declare(metadata %"core::alloc::AllocError"* %err.dbg.spill, metadata !1820, metadata !DIExpression()), !dbg !1824
  call void @llvm.dbg.declare(metadata %"core::result::Result<core::convert::Infallible, core::alloc::AllocError>::Err"* %residual.dbg.spill, metadata !1778, metadata !DIExpression()), !dbg !1825
  call void @llvm.dbg.declare(metadata %"core::result::Result<core::convert::Infallible, core::alloc::AllocError>::Err"* %residual.dbg.spill3, metadata !1826, metadata !DIExpression()), !dbg !1833
  call void @llvm.dbg.declare(metadata { i8*, i64 }* %self4, metadata !1835, metadata !DIExpression()), !dbg !1862
  call void @llvm.dbg.declare(metadata %"core::result::Result<core::convert::Infallible, core::alloc::AllocError>::Err"* %residual.dbg.spill5, metadata !1786, metadata !DIExpression()), !dbg !1864
  call void @llvm.dbg.declare(metadata %"core::result::Result<core::convert::Infallible, core::alloc::AllocError>::Err"* %residual.dbg.spill6, metadata !1865, metadata !DIExpression()), !dbg !1872
  call void @llvm.dbg.declare(metadata i64* %self7, metadata !1874, metadata !DIExpression()), !dbg !1878
  call void @llvm.dbg.declare(metadata i64* %self8, metadata !1885, metadata !DIExpression()), !dbg !1889
  call void @llvm.dbg.declare(metadata i64* %self9, metadata !1890, metadata !DIExpression()), !dbg !1894
  call void @llvm.dbg.declare(metadata i64* %self10, metadata !1901, metadata !DIExpression()), !dbg !1905
  call void @llvm.dbg.declare(metadata i64* %self11, metadata !1906, metadata !DIExpression()), !dbg !1910
  call void @llvm.dbg.declare(metadata i64* %self12, metadata !1917, metadata !DIExpression()), !dbg !1921
  call void @llvm.dbg.declare(metadata %"core::alloc::AllocError"* %e.dbg.spill, metadata !1811, metadata !DIExpression()), !dbg !1922
  call void @llvm.dbg.declare(metadata %"core::alloc::AllocError"* %e.dbg.spill13, metadata !1830, metadata !DIExpression()), !dbg !1923
  call void @llvm.dbg.declare(metadata %"core::alloc::AllocError"* %e.dbg.spill14, metadata !1859, metadata !DIExpression()), !dbg !1924
  call void @llvm.dbg.declare(metadata %"core::alloc::AllocError"* %e.dbg.spill15, metadata !1869, metadata !DIExpression()), !dbg !1925
  call void @llvm.dbg.declare(metadata i8** %self16, metadata !1926, metadata !DIExpression()), !dbg !1930
  call void @llvm.dbg.declare(metadata %"[closure@core::intrinsics::copy_nonoverlapping<u8>::{closure#0}]"* %runtime, metadata !1939, metadata !DIExpression()), !dbg !1959
  store { i64, i64 }* %old_layout, { i64, i64 }** %self.dbg.spill17, align 8, !dbg !1961
  call void @llvm.dbg.declare(metadata { i64, i64 }** %self.dbg.spill17, metadata !1962, metadata !DIExpression()), !dbg !1966
  %11 = bitcast { i64, i64 }* %old_layout to i64*, !dbg !1966
  %_8 = load i64, i64* %11, align 8, !dbg !1966
  %12 = icmp eq i64 %_8, 0, !dbg !1967
  br i1 %12, label %bb1, label %bb3, !dbg !1967

bb1:                                              ; preds = %start
  %13 = getelementptr inbounds { i64, i64 }, { i64, i64 }* %new_layout, i32 0, i32 0, !dbg !1968
  %_11.0 = load i64, i64* %13, align 8, !dbg !1968
  %14 = getelementptr inbounds { i64, i64 }, { i64, i64 }* %new_layout, i32 0, i32 1, !dbg !1968
  %_11.1 = load i64, i64* %14, align 8, !dbg !1968, !range !645, !noundef !140
; call alloc::alloc::Global::alloc_impl
  %15 = call { i8*, i64 } @_ZN5alloc5alloc6Global10alloc_impl17hea9263b0758b56d9E(%"alloc::alloc::Global"* align 1 %self, i64 %_11.0, i64 %_11.1, i1 zeroext %zeroed), !dbg !1969
  store { i8*, i64 } %15, { i8*, i64 }* %5, align 8, !dbg !1969
  br label %bb2, !dbg !1969

bb3:                                              ; preds = %start
  store { i64, i64 }* %old_layout, { i64, i64 }** %self.dbg.spill18, align 8, !dbg !1884
  call void @llvm.dbg.declare(metadata { i64, i64 }** %self.dbg.spill18, metadata !1882, metadata !DIExpression()), !dbg !1970
  %16 = getelementptr inbounds { i64, i64 }, { i64, i64 }* %old_layout, i32 0, i32 1, !dbg !1970
  %17 = load i64, i64* %16, align 8, !dbg !1970, !range !645, !noundef !140
  store i64 %17, i64* %self8, align 8, !dbg !1970
  %_78 = load i64, i64* %self8, align 8, !dbg !1889, !range !645, !noundef !140
  store i64 %_78, i64* %n.dbg.spill, align 8, !dbg !1889
  call void @llvm.dbg.declare(metadata i64* %n.dbg.spill, metadata !1971, metadata !DIExpression()), !dbg !1978
  store i64 %_78, i64* %self7, align 8, !dbg !1978
  %_16 = load i64, i64* %self7, align 8, !dbg !1878
  store { i64, i64 }* %new_layout, { i64, i64 }** %self.dbg.spill19, align 8, !dbg !1900
  call void @llvm.dbg.declare(metadata { i64, i64 }** %self.dbg.spill19, metadata !1898, metadata !DIExpression()), !dbg !1980
  %18 = getelementptr inbounds { i64, i64 }, { i64, i64 }* %new_layout, i32 0, i32 1, !dbg !1980
  %19 = load i64, i64* %18, align 8, !dbg !1980, !range !645, !noundef !140
  store i64 %19, i64* %self10, align 8, !dbg !1980
  %_84 = load i64, i64* %self10, align 8, !dbg !1905, !range !645, !noundef !140
  store i64 %_84, i64* %n.dbg.spill20, align 8, !dbg !1905
  call void @llvm.dbg.declare(metadata i64* %n.dbg.spill20, metadata !1981, metadata !DIExpression()), !dbg !1988
  store i64 %_84, i64* %self9, align 8, !dbg !1988
  %_18 = load i64, i64* %self9, align 8, !dbg !1894
  %_15 = icmp eq i64 %_16, %_18, !dbg !1884
  br i1 %_15, label %bb4, label %bb5, !dbg !1884

bb5:                                              ; preds = %bb3
  store i64 %_8, i64* %old_size.dbg.spill43, align 8, !dbg !1990
  call void @llvm.dbg.declare(metadata i64* %old_size.dbg.spill43, metadata !1782, metadata !DIExpression()), !dbg !1991
  %20 = getelementptr inbounds { i64, i64 }, { i64, i64 }* %new_layout, i32 0, i32 0, !dbg !1992
  %_58.0 = load i64, i64* %20, align 8, !dbg !1992
  %21 = getelementptr inbounds { i64, i64 }, { i64, i64 }* %new_layout, i32 0, i32 1, !dbg !1992
  %_58.1 = load i64, i64* %21, align 8, !dbg !1992, !range !645, !noundef !140
; call alloc::alloc::Global::alloc_impl
  %22 = call { i8*, i64 } @_ZN5alloc5alloc6Global10alloc_impl17hea9263b0758b56d9E(%"alloc::alloc::Global"* align 1 %self, i64 %_58.0, i64 %_58.1, i1 zeroext %zeroed), !dbg !1863
  store { i8*, i64 } %22, { i8*, i64 }* %self4, align 8, !dbg !1863
  br label %bb14, !dbg !1863

bb4:                                              ; preds = %bb3
  store i64 %_8, i64* %old_size.dbg.spill, align 8, !dbg !1993
  call void @llvm.dbg.declare(metadata i64* %old_size.dbg.spill, metadata !1769, metadata !DIExpression()), !dbg !1994
  store { i64, i64 }* %new_layout, { i64, i64 }** %self.dbg.spill21, align 8, !dbg !1995
  call void @llvm.dbg.declare(metadata { i64, i64 }** %self.dbg.spill21, metadata !1996, metadata !DIExpression()), !dbg !2000
  %23 = bitcast { i64, i64 }* %new_layout to i64*, !dbg !2000
  %new_size = load i64, i64* %23, align 8, !dbg !2000
  store i64 %new_size, i64* %new_size.dbg.spill, align 8, !dbg !2000
  call void @llvm.dbg.declare(metadata i64* %new_size.dbg.spill, metadata !1772, metadata !DIExpression()), !dbg !2001
  store { i64, i64 }* %old_layout, { i64, i64 }** %self.dbg.spill22, align 8, !dbg !2002
  call void @llvm.dbg.declare(metadata { i64, i64 }** %self.dbg.spill22, metadata !2003, metadata !DIExpression()), !dbg !2007
  %24 = bitcast { i64, i64 }* %old_layout to i64*, !dbg !2007
  %_25 = load i64, i64* %24, align 8, !dbg !2007
  %_23 = icmp uge i64 %new_size, %_25, !dbg !2008
  call void @llvm.assume(i1 %_23), !dbg !2009
  br label %bb6, !dbg !2009

bb6:                                              ; preds = %bb4
  store i8* %ptr, i8** %self.dbg.spill23, align 8, !dbg !2010
  call void @llvm.dbg.declare(metadata i8** %self.dbg.spill23, metadata !2011, metadata !DIExpression()), !dbg !2015
  store i8* %ptr, i8** %ptr.dbg.spill24, align 8, !dbg !2015
  call void @llvm.dbg.declare(metadata i8** %ptr.dbg.spill24, metadata !1800, metadata !DIExpression()), !dbg !1802
  %25 = getelementptr inbounds { i64, i64 }, { i64, i64 }* %old_layout, i32 0, i32 0, !dbg !2016
  %26 = load i64, i64* %25, align 8, !dbg !2016
  %27 = getelementptr inbounds { i64, i64 }, { i64, i64 }* %old_layout, i32 0, i32 1, !dbg !2016
  %28 = load i64, i64* %27, align 8, !dbg !2016, !range !645, !noundef !140
  %29 = getelementptr inbounds { i64, i64 }, { i64, i64 }* %layout, i32 0, i32 0, !dbg !2016
  store i64 %26, i64* %29, align 8, !dbg !2016
  %30 = getelementptr inbounds { i64, i64 }, { i64, i64 }* %layout, i32 0, i32 1, !dbg !2016
  store i64 %28, i64* %30, align 8, !dbg !2016
  store i64 %new_size, i64* %new_size.dbg.spill25, align 8, !dbg !2017
  call void @llvm.dbg.declare(metadata i64* %new_size.dbg.spill25, metadata !1801, metadata !DIExpression()), !dbg !1802
  store { i64, i64 }* %layout, { i64, i64 }** %self.dbg.spill26, align 8, !dbg !1802
  call void @llvm.dbg.declare(metadata { i64, i64 }** %self.dbg.spill26, metadata !2018, metadata !DIExpression()), !dbg !2022
  %31 = bitcast { i64, i64 }* %layout to i64*, !dbg !2022
  %_89 = load i64, i64* %31, align 8, !dbg !2022
  store { i64, i64 }* %layout, { i64, i64 }** %self.dbg.spill27, align 8, !dbg !1802
  call void @llvm.dbg.declare(metadata { i64, i64 }** %self.dbg.spill27, metadata !1914, metadata !DIExpression()), !dbg !2024
  %32 = getelementptr inbounds { i64, i64 }, { i64, i64 }* %layout, i32 0, i32 1, !dbg !2024
  %33 = load i64, i64* %32, align 8, !dbg !2024, !range !645, !noundef !140
  store i64 %33, i64* %self12, align 8, !dbg !2024
  %_97 = load i64, i64* %self12, align 8, !dbg !1921, !range !645, !noundef !140
  store i64 %_97, i64* %n.dbg.spill28, align 8, !dbg !1921
  call void @llvm.dbg.declare(metadata i64* %n.dbg.spill28, metadata !2025, metadata !DIExpression()), !dbg !2032
  store i64 %_97, i64* %self11, align 8, !dbg !2032
  %_91 = load i64, i64* %self11, align 8, !dbg !1910
  %raw_ptr = call i8* @__rust_realloc(i8* %ptr, i64 %_89, i64 %_91, i64 %new_size) #16, !dbg !1802
  store i8* %raw_ptr, i8** %raw_ptr.dbg.spill, align 8, !dbg !1802
  call void @llvm.dbg.declare(metadata i8** %raw_ptr.dbg.spill, metadata !1774, metadata !DIExpression()), !dbg !2034
  br label %bb23, !dbg !1802

bb23:                                             ; preds = %bb6
; call core::ptr::non_null::NonNull<T>::new
  %34 = call i8* @"_ZN4core3ptr8non_null16NonNull$LT$T$GT$3new17h04dfd1802f349fbdE"(i8* %raw_ptr), !dbg !1815
  store i8* %34, i8** %self2, align 8, !dbg !1815
  br label %bb7, !dbg !1815

bb7:                                              ; preds = %bb23
  %35 = bitcast i8** %self2 to {}**, !dbg !1824
  %36 = load {}*, {}** %35, align 8, !dbg !1824
  %37 = icmp eq {}* %36, null, !dbg !1824
  %_100 = select i1 %37, i64 0, i64 1, !dbg !1824
  switch i64 %_100, label %bb25 [
    i64 0, label %bb24
    i64 1, label %bb26
  ], !dbg !1824

bb25:                                             ; preds = %bb7
  unreachable, !dbg !1824

bb24:                                             ; preds = %bb7
  %38 = bitcast i8** %self1 to {}**, !dbg !1824
  store {}* null, {}** %38, align 8, !dbg !1824
  br label %bb27, !dbg !1824

bb26:                                             ; preds = %bb7
  %v = load i8*, i8** %self2, align 8, !dbg !1824, !nonnull !140, !noundef !140
  store i8* %v, i8** %v.dbg.spill, align 8, !dbg !1824
  call void @llvm.dbg.declare(metadata i8** %v.dbg.spill, metadata !1821, metadata !DIExpression()), !dbg !2035
  store i8* %v, i8** %self1, align 8, !dbg !2035
  br label %bb27, !dbg !1824

bb27:                                             ; preds = %bb24, %bb26
  %39 = bitcast i8** %self1 to {}**, !dbg !1814
  %40 = load {}*, {}** %39, align 8, !dbg !1814
  %41 = icmp eq {}* %40, null, !dbg !1814
  %_103 = select i1 %41, i64 1, i64 0, !dbg !1814
  switch i64 %_103, label %bb29 [
    i64 0, label %bb30
    i64 1, label %bb28
  ], !dbg !1814

bb29:                                             ; preds = %bb27
  unreachable, !dbg !1814

bb30:                                             ; preds = %bb27
  %v29 = load i8*, i8** %self1, align 8, !dbg !1814, !nonnull !140, !noundef !140
  store i8* %v29, i8** %v.dbg.spill30, align 8, !dbg !1814
  call void @llvm.dbg.declare(metadata i8** %v.dbg.spill30, metadata !1808, metadata !DIExpression()), !dbg !2036
  store i8* %v29, i8** %_33, align 8, !dbg !2036
  br label %bb8, !dbg !1814

bb28:                                             ; preds = %bb27
  %42 = bitcast i8** %_33 to {}**, !dbg !1922
  store {}* null, {}** %42, align 8, !dbg !1922
  br label %bb8, !dbg !1814

bb8:                                              ; preds = %bb30, %bb28
  %43 = bitcast i8** %_33 to {}**, !dbg !1815
  %44 = load {}*, {}** %43, align 8, !dbg !1815
  %45 = icmp eq {}* %44, null, !dbg !1815
  %_38 = select i1 %45, i64 1, i64 0, !dbg !1815
  switch i64 %_38, label %bb10 [
    i64 0, label %bb9
    i64 1, label %bb11
  ], !dbg !1815

bb10:                                             ; preds = %bb8
  unreachable, !dbg !1815

bb9:                                              ; preds = %bb8
  %val = load i8*, i8** %_33, align 8, !dbg !1815, !nonnull !140, !noundef !140
  store i8* %val, i8** %val.dbg.spill, align 8, !dbg !1815
  call void @llvm.dbg.declare(metadata i8** %val.dbg.spill, metadata !1780, metadata !DIExpression()), !dbg !2037
  store i8* %val, i8** %ptr.dbg.spill31, align 8, !dbg !2037
  call void @llvm.dbg.declare(metadata i8** %ptr.dbg.spill31, metadata !1776, metadata !DIExpression()), !dbg !2038
  br i1 %zeroed, label %bb12, label %bb13, !dbg !2039

bb11:                                             ; preds = %bb8
; call <T as core::convert::From<T>>::from
  call void @"_ZN50_$LT$T$u20$as$u20$core..convert..From$LT$T$GT$$GT$4from17h841464a645d964abE"(), !dbg !1923
  br label %bb31, !dbg !1923

bb31:                                             ; preds = %bb11
  %46 = bitcast { i8*, i64 }* %5 to {}**, !dbg !1923
  store {}* null, {}** %46, align 8, !dbg !1923
  br label %bb21, !dbg !2040

bb21:                                             ; preds = %bb37, %bb31
  br label %bb22, !dbg !2043

bb13:                                             ; preds = %bb33, %bb9
  store i8* %val, i8** %data.dbg.spill, align 8, !dbg !2044
  call void @llvm.dbg.declare(metadata i8** %data.dbg.spill, metadata !2045, metadata !DIExpression()), !dbg !2050
  store i64 %new_size, i64* %len.dbg.spill, align 8, !dbg !2052
  call void @llvm.dbg.declare(metadata i64* %len.dbg.spill, metadata !2049, metadata !DIExpression()), !dbg !2050
  store i8* %val, i8** %self.dbg.spill38, align 8, !dbg !2050
  call void @llvm.dbg.declare(metadata i8** %self.dbg.spill38, metadata !2053, metadata !DIExpression()), !dbg !2057
  store i8* %val, i8** %data.dbg.spill39, align 8, !dbg !2057
  call void @llvm.dbg.declare(metadata i8** %data.dbg.spill39, metadata !2059, metadata !DIExpression()), !dbg !2064
  store i64 %new_size, i64* %len.dbg.spill40, align 8, !dbg !2050
  call void @llvm.dbg.declare(metadata i64* %len.dbg.spill40, metadata !2063, metadata !DIExpression()), !dbg !2064
  store i8* %val, i8** %self.dbg.spill41, align 8, !dbg !2064
  call void @llvm.dbg.declare(metadata i8** %self.dbg.spill41, metadata !2066, metadata !DIExpression()), !dbg !2070
  %data_address = bitcast i8* %val to {}*, !dbg !2070
  store {}* %data_address, {}** %data_address.dbg.spill, align 8, !dbg !2070
  call void @llvm.dbg.declare(metadata {}** %data_address.dbg.spill, metadata !2072, metadata !DIExpression()), !dbg !2077
  store i64 %new_size, i64* %metadata.dbg.spill, align 8, !dbg !2064
  call void @llvm.dbg.declare(metadata i64* %metadata.dbg.spill, metadata !2076, metadata !DIExpression()), !dbg !2077
  %47 = bitcast { i8*, i64 }* %_135 to {}**, !dbg !2077
  store {}* %data_address, {}** %47, align 8, !dbg !2077
  %48 = getelementptr inbounds { i8*, i64 }, { i8*, i64 }* %_135, i32 0, i32 1, !dbg !2077
  store i64 %new_size, i64* %48, align 8, !dbg !2077
  %49 = bitcast %"core::ptr::metadata::PtrRepr<[u8]>"* %_134 to { i8*, i64 }*, !dbg !2077
  %50 = getelementptr inbounds { i8*, i64 }, { i8*, i64 }* %_135, i32 0, i32 0, !dbg !2077
  %51 = load i8*, i8** %50, align 8, !dbg !2077
  %52 = getelementptr inbounds { i8*, i64 }, { i8*, i64 }* %_135, i32 0, i32 1, !dbg !2077
  %53 = load i64, i64* %52, align 8, !dbg !2077
  %54 = getelementptr inbounds { i8*, i64 }, { i8*, i64 }* %49, i32 0, i32 0, !dbg !2077
  store i8* %51, i8** %54, align 8, !dbg !2077
  %55 = getelementptr inbounds { i8*, i64 }, { i8*, i64 }* %49, i32 0, i32 1, !dbg !2077
  store i64 %53, i64* %55, align 8, !dbg !2077
  %56 = bitcast %"core::ptr::metadata::PtrRepr<[u8]>"* %_134 to { [0 x i8]*, i64 }*, !dbg !2077
  %57 = getelementptr inbounds { [0 x i8]*, i64 }, { [0 x i8]*, i64 }* %56, i32 0, i32 0, !dbg !2077
  %ptr.0 = load [0 x i8]*, [0 x i8]** %57, align 8, !dbg !2077
  %58 = getelementptr inbounds { [0 x i8]*, i64 }, { [0 x i8]*, i64 }* %56, i32 0, i32 1, !dbg !2077
  %ptr.1 = load i64, i64* %58, align 8, !dbg !2077
  %59 = getelementptr inbounds { [0 x i8]*, i64 }, { [0 x i8]*, i64 }* %ptr.dbg.spill42, i32 0, i32 0, !dbg !2077
  store [0 x i8]* %ptr.0, [0 x i8]** %59, align 8, !dbg !2077
  %60 = getelementptr inbounds { [0 x i8]*, i64 }, { [0 x i8]*, i64 }* %ptr.dbg.spill42, i32 0, i32 1, !dbg !2077
  store i64 %ptr.1, i64* %60, align 8, !dbg !2077
  call void @llvm.dbg.declare(metadata { [0 x i8]*, i64 }* %ptr.dbg.spill42, metadata !2079, metadata !DIExpression()), !dbg !2083
  %61 = bitcast { i8*, i64 }* %_50 to { [0 x i8]*, i64 }*, !dbg !2083
  %62 = getelementptr inbounds { [0 x i8]*, i64 }, { [0 x i8]*, i64 }* %61, i32 0, i32 0, !dbg !2083
  store [0 x i8]* %ptr.0, [0 x i8]** %62, align 8, !dbg !2083
  %63 = getelementptr inbounds { [0 x i8]*, i64 }, { [0 x i8]*, i64 }* %61, i32 0, i32 1, !dbg !2083
  store i64 %ptr.1, i64* %63, align 8, !dbg !2083
  %64 = getelementptr inbounds { i8*, i64 }, { i8*, i64 }* %_50, i32 0, i32 0, !dbg !2085
  %65 = load i8*, i8** %64, align 8, !dbg !2085, !nonnull !140, !noundef !140
  %66 = getelementptr inbounds { i8*, i64 }, { i8*, i64 }* %_50, i32 0, i32 1, !dbg !2085
  %67 = load i64, i64* %66, align 8, !dbg !2085
  %68 = getelementptr inbounds { i8*, i64 }, { i8*, i64 }* %5, i32 0, i32 0, !dbg !2085
  store i8* %65, i8** %68, align 8, !dbg !2085
  %69 = getelementptr inbounds { i8*, i64 }, { i8*, i64 }* %5, i32 0, i32 1, !dbg !2085
  store i64 %67, i64* %69, align 8, !dbg !2085
  br label %bb20, !dbg !2086

bb12:                                             ; preds = %bb9
  store i8* %raw_ptr, i8** %self.dbg.spill32, align 8, !dbg !2087
  call void @llvm.dbg.declare(metadata i8** %self.dbg.spill32, metadata !2088, metadata !DIExpression()), !dbg !2095
  store i64 %_8, i64* %count.dbg.spill, align 8, !dbg !2096
  call void @llvm.dbg.declare(metadata i64* %count.dbg.spill, metadata !2094, metadata !DIExpression()), !dbg !2095
  store i8* %raw_ptr, i8** %self.dbg.spill33, align 8, !dbg !2095
  call void @llvm.dbg.declare(metadata i8** %self.dbg.spill33, metadata !2097, metadata !DIExpression()), !dbg !2104
  store i64 %_8, i64* %count.dbg.spill34, align 8, !dbg !2095
  call void @llvm.dbg.declare(metadata i64* %count.dbg.spill34, metadata !2103, metadata !DIExpression()), !dbg !2104
  %70 = getelementptr inbounds i8, i8* %raw_ptr, i64 %_8, !dbg !2104
  store i8* %70, i8** %4, align 8, !dbg !2104
  %_113 = load i8*, i8** %4, align 8, !dbg !2104
  br label %bb32, !dbg !2104

bb32:                                             ; preds = %bb12
  store i8* %_113, i8** %self.dbg.spill35, align 8, !dbg !2104
  call void @llvm.dbg.declare(metadata i8** %self.dbg.spill35, metadata !2106, metadata !DIExpression()), !dbg !2114
  %count = sub i64 %new_size, %_8, !dbg !2115
  store i64 %count, i64* %count.dbg.spill36, align 8, !dbg !2115
  call void @llvm.dbg.declare(metadata i64* %count.dbg.spill36, metadata !2113, metadata !DIExpression()), !dbg !2114
  store i8* %_113, i8** %dst.dbg.spill, align 8, !dbg !2114
  call void @llvm.dbg.declare(metadata i8** %dst.dbg.spill, metadata !2116, metadata !DIExpression()), !dbg !2129
  store i64 %count, i64* %count.dbg.spill37, align 8, !dbg !2114
  call void @llvm.dbg.declare(metadata i64* %count.dbg.spill37, metadata !2121, metadata !DIExpression()), !dbg !2129
  %71 = mul i64 1, %count, !dbg !2129
  call void @llvm.memset.p0i8.i64(i8* align 1 %_113, i8 0, i64 %71, i1 false), !dbg !2129
  br label %bb33, !dbg !2129

bb33:                                             ; preds = %bb32
  br label %bb13, !dbg !2131

bb20:                                             ; preds = %bb2, %bb19, %bb13
  br label %bb22, !dbg !2043

bb14:                                             ; preds = %bb5
  %72 = bitcast { i8*, i64 }* %self4 to {}**, !dbg !1862
  %73 = load {}*, {}** %72, align 8, !dbg !1862
  %74 = icmp eq {}* %73, null, !dbg !1862
  %_142 = select i1 %74, i64 1, i64 0, !dbg !1862
  switch i64 %_142, label %bb35 [
    i64 0, label %bb36
    i64 1, label %bb34
  ], !dbg !1862

bb35:                                             ; preds = %bb14
  unreachable, !dbg !1862

bb36:                                             ; preds = %bb14
  %75 = getelementptr inbounds { i8*, i64 }, { i8*, i64 }* %self4, i32 0, i32 0, !dbg !1862
  %v.0 = load i8*, i8** %75, align 8, !dbg !1862, !nonnull !140, !noundef !140
  %76 = getelementptr inbounds { i8*, i64 }, { i8*, i64 }* %self4, i32 0, i32 1, !dbg !1862
  %v.1 = load i64, i64* %76, align 8, !dbg !1862
  %77 = getelementptr inbounds { i8*, i64 }, { i8*, i64 }* %v.dbg.spill44, i32 0, i32 0, !dbg !1862
  store i8* %v.0, i8** %77, align 8, !dbg !1862
  %78 = getelementptr inbounds { i8*, i64 }, { i8*, i64 }* %v.dbg.spill44, i32 0, i32 1, !dbg !1862
  store i64 %v.1, i64* %78, align 8, !dbg !1862
  call void @llvm.dbg.declare(metadata { i8*, i64 }* %v.dbg.spill44, metadata !1856, metadata !DIExpression()), !dbg !2132
  %79 = getelementptr inbounds { i8*, i64 }, { i8*, i64 }* %_55, i32 0, i32 0, !dbg !2132
  store i8* %v.0, i8** %79, align 8, !dbg !2132
  %80 = getelementptr inbounds { i8*, i64 }, { i8*, i64 }* %_55, i32 0, i32 1, !dbg !2132
  store i64 %v.1, i64* %80, align 8, !dbg !2132
  br label %bb15, !dbg !1862

bb34:                                             ; preds = %bb14
  %81 = bitcast { i8*, i64 }* %_55 to {}**, !dbg !1924
  store {}* null, {}** %81, align 8, !dbg !1924
  br label %bb15, !dbg !1862

bb15:                                             ; preds = %bb36, %bb34
  %82 = bitcast { i8*, i64 }* %_55 to {}**, !dbg !1863
  %83 = load {}*, {}** %82, align 8, !dbg !1863
  %84 = icmp eq {}* %83, null, !dbg !1863
  %_60 = select i1 %84, i64 1, i64 0, !dbg !1863
  switch i64 %_60, label %bb17 [
    i64 0, label %bb16
    i64 1, label %bb18
  ], !dbg !1863

bb17:                                             ; preds = %bb15
  unreachable, !dbg !1863

bb16:                                             ; preds = %bb15
  %85 = getelementptr inbounds { i8*, i64 }, { i8*, i64 }* %_55, i32 0, i32 0, !dbg !1863
  %val.0 = load i8*, i8** %85, align 8, !dbg !1863, !nonnull !140, !noundef !140
  %86 = getelementptr inbounds { i8*, i64 }, { i8*, i64 }* %_55, i32 0, i32 1, !dbg !1863
  %val.1 = load i64, i64* %86, align 8, !dbg !1863
  %87 = getelementptr inbounds { i8*, i64 }, { i8*, i64 }* %val.dbg.spill45, i32 0, i32 0, !dbg !1863
  store i8* %val.0, i8** %87, align 8, !dbg !1863
  %88 = getelementptr inbounds { i8*, i64 }, { i8*, i64 }* %val.dbg.spill45, i32 0, i32 1, !dbg !1863
  store i64 %val.1, i64* %88, align 8, !dbg !1863
  call void @llvm.dbg.declare(metadata { i8*, i64 }* %val.dbg.spill45, metadata !1788, metadata !DIExpression()), !dbg !2133
  %89 = getelementptr inbounds { i8*, i64 }, { i8*, i64 }* %new_ptr.dbg.spill, i32 0, i32 0, !dbg !2133
  store i8* %val.0, i8** %89, align 8, !dbg !2133
  %90 = getelementptr inbounds { i8*, i64 }, { i8*, i64 }* %new_ptr.dbg.spill, i32 0, i32 1, !dbg !2133
  store i64 %val.1, i64* %90, align 8, !dbg !2133
  call void @llvm.dbg.declare(metadata { i8*, i64 }* %new_ptr.dbg.spill, metadata !1784, metadata !DIExpression()), !dbg !2134
  store i8* %ptr, i8** %self.dbg.spill46, align 8, !dbg !2135
  call void @llvm.dbg.declare(metadata i8** %self.dbg.spill46, metadata !2136, metadata !DIExpression()), !dbg !2140
  store i8* %ptr, i8** %src.dbg.spill, align 8, !dbg !2135
  call void @llvm.dbg.declare(metadata i8** %src.dbg.spill, metadata !1947, metadata !DIExpression()), !dbg !2141
  %91 = getelementptr inbounds { i8*, i64 }, { i8*, i64 }* %self.dbg.spill47, i32 0, i32 0, !dbg !1938
  store i8* %val.0, i8** %91, align 8, !dbg !1938
  %92 = getelementptr inbounds { i8*, i64 }, { i8*, i64 }* %self.dbg.spill47, i32 0, i32 1, !dbg !1938
  store i64 %val.1, i64* %92, align 8, !dbg !1938
  call void @llvm.dbg.declare(metadata { i8*, i64 }* %self.dbg.spill47, metadata !1936, metadata !DIExpression()), !dbg !2142
  %93 = getelementptr inbounds { i8*, i64 }, { i8*, i64 }* %self.dbg.spill48, i32 0, i32 0, !dbg !2142
  store i8* %val.0, i8** %93, align 8, !dbg !2142
  %94 = getelementptr inbounds { i8*, i64 }, { i8*, i64 }* %self.dbg.spill48, i32 0, i32 1, !dbg !2142
  store i64 %val.1, i64* %94, align 8, !dbg !2142
  call void @llvm.dbg.declare(metadata { i8*, i64 }* %self.dbg.spill48, metadata !2143, metadata !DIExpression()), !dbg !2149
  %95 = getelementptr inbounds { i8*, i64 }, { i8*, i64 }* %self.dbg.spill49, i32 0, i32 0, !dbg !2149
  store i8* %val.0, i8** %95, align 8, !dbg !2149
  %96 = getelementptr inbounds { i8*, i64 }, { i8*, i64 }* %self.dbg.spill49, i32 0, i32 1, !dbg !2149
  store i64 %val.1, i64* %96, align 8, !dbg !2149
  call void @llvm.dbg.declare(metadata { i8*, i64 }* %self.dbg.spill49, metadata !2150, metadata !DIExpression()), !dbg !2156
  %_155.0 = bitcast i8* %val.0 to [0 x i8]*, !dbg !2156
  %97 = getelementptr inbounds { [0 x i8]*, i64 }, { [0 x i8]*, i64 }* %self.dbg.spill50, i32 0, i32 0, !dbg !2156
  store [0 x i8]* %_155.0, [0 x i8]** %97, align 8, !dbg !2156
  %98 = getelementptr inbounds { [0 x i8]*, i64 }, { [0 x i8]*, i64 }* %self.dbg.spill50, i32 0, i32 1, !dbg !2156
  store i64 %val.1, i64* %98, align 8, !dbg !2156
  call void @llvm.dbg.declare(metadata { [0 x i8]*, i64 }* %self.dbg.spill50, metadata !2158, metadata !DIExpression()), !dbg !2165
  %ptr51 = bitcast [0 x i8]* %_155.0 to i8*, !dbg !2165
  store i8* %ptr51, i8** %ptr.dbg.spill52, align 8, !dbg !2165
  call void @llvm.dbg.declare(metadata i8** %ptr.dbg.spill52, metadata !2166, metadata !DIExpression()), !dbg !2170
  store i8* %ptr51, i8** %self16, align 8, !dbg !2170
  %_160 = load i8*, i8** %self16, align 8, !dbg !1930
  store i8* %_160, i8** %dst.dbg.spill53, align 8, !dbg !1930
  call void @llvm.dbg.declare(metadata i8** %dst.dbg.spill53, metadata !1949, metadata !DIExpression()), !dbg !2141
  store i64 %_8, i64* %count.dbg.spill54, align 8, !dbg !2172
  call void @llvm.dbg.declare(metadata i64* %count.dbg.spill54, metadata !1950, metadata !DIExpression()), !dbg !2141
  %99 = mul i64 %_8, 1, !dbg !2141
  call void @llvm.memcpy.p0i8.p0i8.i64(i8* align 1 %_160, i8* align 1 %ptr, i64 %99, i1 false), !dbg !2141
  %100 = getelementptr inbounds { i64, i64 }, { i64, i64 }* %old_layout, i32 0, i32 0, !dbg !2173
  %_73.0 = load i64, i64* %100, align 8, !dbg !2173
  %101 = getelementptr inbounds { i64, i64 }, { i64, i64 }* %old_layout, i32 0, i32 1, !dbg !2173
  %_73.1 = load i64, i64* %101, align 8, !dbg !2173, !range !645, !noundef !140
; call <alloc::alloc::Global as core::alloc::Allocator>::deallocate
  call void @"_ZN63_$LT$alloc..alloc..Global$u20$as$u20$core..alloc..Allocator$GT$10deallocate17ha7516eb11e3641feE"(%"alloc::alloc::Global"* align 1 %self, i8* %ptr, i64 %_73.0, i64 %_73.1), !dbg !2174
  br label %bb19, !dbg !2174

bb18:                                             ; preds = %bb15
; call <T as core::convert::From<T>>::from
  call void @"_ZN50_$LT$T$u20$as$u20$core..convert..From$LT$T$GT$$GT$4from17h841464a645d964abE"(), !dbg !1925
  br label %bb37, !dbg !1925

bb37:                                             ; preds = %bb18
  %102 = bitcast { i8*, i64 }* %5 to {}**, !dbg !1925
  store {}* null, {}** %102, align 8, !dbg !1925
  br label %bb21, !dbg !2040

bb22:                                             ; preds = %bb20, %bb21
  %103 = getelementptr inbounds { i8*, i64 }, { i8*, i64 }* %5, i32 0, i32 0, !dbg !2043
  %104 = load i8*, i8** %103, align 8, !dbg !2043
  %105 = getelementptr inbounds { i8*, i64 }, { i8*, i64 }* %5, i32 0, i32 1, !dbg !2043
  %106 = load i64, i64* %105, align 8, !dbg !2043
  %107 = insertvalue { i8*, i64 } undef, i8* %104, 0, !dbg !2043
  %108 = insertvalue { i8*, i64 } %107, i64 %106, 1, !dbg !2043
  ret { i8*, i64 } %108, !dbg !2043

bb19:                                             ; preds = %bb16
  %109 = getelementptr inbounds { i8*, i64 }, { i8*, i64 }* %5, i32 0, i32 0, !dbg !2175
  store i8* %val.0, i8** %109, align 8, !dbg !2175
  %110 = getelementptr inbounds { i8*, i64 }, { i8*, i64 }* %5, i32 0, i32 1, !dbg !2175
  store i64 %val.1, i64* %110, align 8, !dbg !2175
  br label %bb20, !dbg !2176

bb2:                                              ; preds = %bb1
  br label %bb20, !dbg !2177
}

; alloc::raw_vec::finish_grow
; Function Attrs: noinline nonlazybind uwtable
define void @_ZN5alloc7raw_vec11finish_grow17h2bc375db3f95f233E(%"core::result::Result<core::ptr::non_null::NonNull<[u8]>, alloc::collections::TryReserveError>"* sret(%"core::result::Result<core::ptr::non_null::NonNull<[u8]>, alloc::collections::TryReserveError>") %0, i64 %new_layout.0, i64 %new_layout.1, %"core::option::Option<(core::ptr::non_null::NonNull<u8>, core::alloc::layout::Layout)>"* %current_memory, %"alloc::alloc::Global"* align 1 %alloc) unnamed_addr #2 !dbg !2178 {
start:
  %n.dbg.spill22 = alloca i64, align 8
  %self.dbg.spill21 = alloca { i64, i64 }*, align 8
  %n.dbg.spill = alloca i64, align 8
  %self.dbg.spill = alloca { i64, i64 }*, align 8
  %ptr.dbg.spill = alloca i8*, align 8
  %e.dbg.spill20 = alloca { i64, i64 }, align 8
  %residual.dbg.spill17 = alloca { i64, i64 }, align 8
  %e.dbg.spill14 = alloca { i64, i64 }, align 8
  %val.dbg.spill11 = alloca { i64, i64 }, align 8
  %kind.dbg.spill = alloca { i64, i64 }, align 8
  %e.dbg.spill10 = alloca { i64, i64 }, align 8
  %residual.dbg.spill = alloca { i64, i64 }, align 8
  %v.dbg.spill7 = alloca { i64, i64 }, align 8
  %e.dbg.spill = alloca { i64, i64 }, align 8
  %v.dbg.spill = alloca {}, align 1
  %val.dbg.spill = alloca {}, align 1
  %alloc.dbg.spill = alloca %"alloc::alloc::Global"*, align 8
  %new_layout.dbg.spill = alloca { i64, i64 }, align 8
  %self6 = alloca i64, align 8
  %self5 = alloca i64, align 8
  %self4 = alloca i64, align 8
  %self3 = alloca i64, align 8
  %_58 = alloca { i64, i64 }, align 8
  %_52 = alloca { i64, i64 }, align 8
  %_49 = alloca { i64, i64 }, align 8
  %_43 = alloca i64*, align 8
  %old_layout = alloca { i64, i64 }, align 8
  %memory = alloca { i8*, i64 }, align 8
  %residual2 = alloca { i64, i64 }, align 8
  %self1 = alloca { i64, i64 }, align 8
  %_13 = alloca { i64, i64 }, align 8
  %residual = alloca { i64, i64 }, align 8
  %self = alloca %"core::result::Result<core::alloc::layout::Layout, alloc::collections::TryReserveErrorKind>", align 8
  %_5 = alloca %"core::ops::control_flow::ControlFlow<core::result::Result<core::convert::Infallible, alloc::collections::TryReserveErrorKind>, core::alloc::layout::Layout>", align 8
  %new_layout = alloca { i64, i64 }, align 8
  %1 = getelementptr inbounds { i64, i64 }, { i64, i64 }* %new_layout.dbg.spill, i32 0, i32 0
  store i64 %new_layout.0, i64* %1, align 8
  %2 = getelementptr inbounds { i64, i64 }, { i64, i64 }* %new_layout.dbg.spill, i32 0, i32 1
  store i64 %new_layout.1, i64* %2, align 8
  call void @llvm.dbg.declare(metadata { i64, i64 }* %new_layout.dbg.spill, metadata !2200, metadata !DIExpression()), !dbg !2253
  call void @llvm.dbg.declare(metadata %"core::option::Option<(core::ptr::non_null::NonNull<u8>, core::alloc::layout::Layout)>"* %current_memory, metadata !2201, metadata !DIExpression()), !dbg !2254
  store %"alloc::alloc::Global"* %alloc, %"alloc::alloc::Global"** %alloc.dbg.spill, align 8
  call void @llvm.dbg.declare(metadata %"alloc::alloc::Global"** %alloc.dbg.spill, metadata !2202, metadata !DIExpression()), !dbg !2255
  call void @llvm.dbg.declare(metadata { i64, i64 }* %new_layout, metadata !2203, metadata !DIExpression()), !dbg !2256
  call void @llvm.dbg.declare(metadata %"core::result::Result<core::alloc::layout::Layout, alloc::collections::TryReserveErrorKind>"* %self, metadata !2257, metadata !DIExpression()), !dbg !2285
  call void @llvm.dbg.declare(metadata { i64, i64 }* %residual, metadata !2287, metadata !DIExpression()), !dbg !2297
  call void @llvm.dbg.declare(metadata { i64, i64 }* %self1, metadata !2299, metadata !DIExpression()), !dbg !2327
  call void @llvm.dbg.declare(metadata { i64, i64 }* %residual2, metadata !2329, metadata !DIExpression()), !dbg !2339
  call void @llvm.dbg.declare(metadata {}* %val.dbg.spill, metadata !2237, metadata !DIExpression()), !dbg !2341
  call void @llvm.dbg.declare(metadata { i8*, i64 }* %memory, metadata !2239, metadata !DIExpression()), !dbg !2342
  call void @llvm.dbg.declare(metadata { i64, i64 }* %old_layout, metadata !2243, metadata !DIExpression()), !dbg !2343
  call void @llvm.dbg.declare(metadata {}* %v.dbg.spill, metadata !2321, metadata !DIExpression()), !dbg !2344
  call void @llvm.dbg.declare(metadata i64* %self3, metadata !2345, metadata !DIExpression()), !dbg !2349
  call void @llvm.dbg.declare(metadata i64* %self4, metadata !2356, metadata !DIExpression()), !dbg !2360
  call void @llvm.dbg.declare(metadata i64* %self5, metadata !2361, metadata !DIExpression()), !dbg !2365
  call void @llvm.dbg.declare(metadata i64* %self6, metadata !2372, metadata !DIExpression()), !dbg !2376
; call core::result::Result<T,E>::map_err
  call void @"_ZN4core6result19Result$LT$T$C$E$GT$7map_err17h8e9bd93aa89f042cE"(%"core::result::Result<core::alloc::layout::Layout, alloc::collections::TryReserveErrorKind>"* sret(%"core::result::Result<core::alloc::layout::Layout, alloc::collections::TryReserveErrorKind>") %self, i64 %new_layout.0, i64 %new_layout.1), !dbg !2286
  br label %bb1, !dbg !2286

bb1:                                              ; preds = %start
  %3 = bitcast %"core::result::Result<core::alloc::layout::Layout, alloc::collections::TryReserveErrorKind>"* %self to i64*, !dbg !2285
  %_45 = load i64, i64* %3, align 8, !dbg !2285, !range !433, !noundef !140
  switch i64 %_45, label %bb20 [
    i64 0, label %bb21
    i64 1, label %bb19
  ], !dbg !2285

bb20:                                             ; preds = %bb1
  unreachable, !dbg !2285

bb21:                                             ; preds = %bb1
  %4 = bitcast %"core::result::Result<core::alloc::layout::Layout, alloc::collections::TryReserveErrorKind>"* %self to %"core::result::Result<core::alloc::layout::Layout, alloc::collections::TryReserveErrorKind>::Ok"*, !dbg !2285
  %5 = getelementptr inbounds %"core::result::Result<core::alloc::layout::Layout, alloc::collections::TryReserveErrorKind>::Ok", %"core::result::Result<core::alloc::layout::Layout, alloc::collections::TryReserveErrorKind>::Ok"* %4, i32 0, i32 1, !dbg !2285
  %6 = getelementptr inbounds { i64, i64 }, { i64, i64 }* %5, i32 0, i32 0, !dbg !2285
  %v.0 = load i64, i64* %6, align 8, !dbg !2285
  %7 = getelementptr inbounds { i64, i64 }, { i64, i64 }* %5, i32 0, i32 1, !dbg !2285
  %v.1 = load i64, i64* %7, align 8, !dbg !2285, !range !645, !noundef !140
  %8 = getelementptr inbounds { i64, i64 }, { i64, i64 }* %v.dbg.spill7, i32 0, i32 0, !dbg !2285
  store i64 %v.0, i64* %8, align 8, !dbg !2285
  %9 = getelementptr inbounds { i64, i64 }, { i64, i64 }* %v.dbg.spill7, i32 0, i32 1, !dbg !2285
  store i64 %v.1, i64* %9, align 8, !dbg !2285
  call void @llvm.dbg.declare(metadata { i64, i64 }* %v.dbg.spill7, metadata !2279, metadata !DIExpression()), !dbg !2377
  %10 = bitcast %"core::ops::control_flow::ControlFlow<core::result::Result<core::convert::Infallible, alloc::collections::TryReserveErrorKind>, core::alloc::layout::Layout>"* %_5 to %"core::ops::control_flow::ControlFlow<core::result::Result<core::convert::Infallible, alloc::collections::TryReserveErrorKind>, core::alloc::layout::Layout>::Continue"*, !dbg !2377
  %11 = getelementptr inbounds %"core::ops::control_flow::ControlFlow<core::result::Result<core::convert::Infallible, alloc::collections::TryReserveErrorKind>, core::alloc::layout::Layout>::Continue", %"core::ops::control_flow::ControlFlow<core::result::Result<core::convert::Infallible, alloc::collections::TryReserveErrorKind>, core::alloc::layout::Layout>::Continue"* %10, i32 0, i32 1, !dbg !2377
  %12 = getelementptr inbounds { i64, i64 }, { i64, i64 }* %11, i32 0, i32 0, !dbg !2377
  store i64 %v.0, i64* %12, align 8, !dbg !2377
  %13 = getelementptr inbounds { i64, i64 }, { i64, i64 }* %11, i32 0, i32 1, !dbg !2377
  store i64 %v.1, i64* %13, align 8, !dbg !2377
  %14 = bitcast %"core::ops::control_flow::ControlFlow<core::result::Result<core::convert::Infallible, alloc::collections::TryReserveErrorKind>, core::alloc::layout::Layout>"* %_5 to i64*, !dbg !2377
  store i64 0, i64* %14, align 8, !dbg !2377
  br label %bb2, !dbg !2285

bb19:                                             ; preds = %bb1
  %15 = bitcast %"core::result::Result<core::alloc::layout::Layout, alloc::collections::TryReserveErrorKind>"* %self to %"core::result::Result<core::alloc::layout::Layout, alloc::collections::TryReserveErrorKind>::Err"*, !dbg !2285
  %16 = getelementptr inbounds %"core::result::Result<core::alloc::layout::Layout, alloc::collections::TryReserveErrorKind>::Err", %"core::result::Result<core::alloc::layout::Layout, alloc::collections::TryReserveErrorKind>::Err"* %15, i32 0, i32 1, !dbg !2285
  %17 = getelementptr inbounds { i64, i64 }, { i64, i64 }* %16, i32 0, i32 0, !dbg !2285
  %e.0 = load i64, i64* %17, align 8, !dbg !2285
  %18 = getelementptr inbounds { i64, i64 }, { i64, i64 }* %16, i32 0, i32 1, !dbg !2285
  %e.1 = load i64, i64* %18, align 8, !dbg !2285, !range !206, !noundef !140
  %19 = getelementptr inbounds { i64, i64 }, { i64, i64 }* %e.dbg.spill, i32 0, i32 0, !dbg !2285
  store i64 %e.0, i64* %19, align 8, !dbg !2285
  %20 = getelementptr inbounds { i64, i64 }, { i64, i64 }* %e.dbg.spill, i32 0, i32 1, !dbg !2285
  store i64 %e.1, i64* %20, align 8, !dbg !2285
  call void @llvm.dbg.declare(metadata { i64, i64 }* %e.dbg.spill, metadata !2282, metadata !DIExpression()), !dbg !2378
  %21 = getelementptr inbounds { i64, i64 }, { i64, i64 }* %_49, i32 0, i32 0, !dbg !2378
  store i64 %e.0, i64* %21, align 8, !dbg !2378
  %22 = getelementptr inbounds { i64, i64 }, { i64, i64 }* %_49, i32 0, i32 1, !dbg !2378
  store i64 %e.1, i64* %22, align 8, !dbg !2378
  %23 = bitcast %"core::ops::control_flow::ControlFlow<core::result::Result<core::convert::Infallible, alloc::collections::TryReserveErrorKind>, core::alloc::layout::Layout>"* %_5 to %"core::ops::control_flow::ControlFlow<core::result::Result<core::convert::Infallible, alloc::collections::TryReserveErrorKind>, core::alloc::layout::Layout>::Break"*, !dbg !2378
  %24 = getelementptr inbounds %"core::ops::control_flow::ControlFlow<core::result::Result<core::convert::Infallible, alloc::collections::TryReserveErrorKind>, core::alloc::layout::Layout>::Break", %"core::ops::control_flow::ControlFlow<core::result::Result<core::convert::Infallible, alloc::collections::TryReserveErrorKind>, core::alloc::layout::Layout>::Break"* %23, i32 0, i32 1, !dbg !2378
  %25 = getelementptr inbounds { i64, i64 }, { i64, i64 }* %_49, i32 0, i32 0, !dbg !2378
  %26 = load i64, i64* %25, align 8, !dbg !2378
  %27 = getelementptr inbounds { i64, i64 }, { i64, i64 }* %_49, i32 0, i32 1, !dbg !2378
  %28 = load i64, i64* %27, align 8, !dbg !2378, !range !206, !noundef !140
  %29 = getelementptr inbounds { i64, i64 }, { i64, i64 }* %24, i32 0, i32 0, !dbg !2378
  store i64 %26, i64* %29, align 8, !dbg !2378
  %30 = getelementptr inbounds { i64, i64 }, { i64, i64 }* %24, i32 0, i32 1, !dbg !2378
  store i64 %28, i64* %30, align 8, !dbg !2378
  %31 = bitcast %"core::ops::control_flow::ControlFlow<core::result::Result<core::convert::Infallible, alloc::collections::TryReserveErrorKind>, core::alloc::layout::Layout>"* %_5 to i64*, !dbg !2378
  store i64 1, i64* %31, align 8, !dbg !2378
  br label %bb2, !dbg !2285

bb2:                                              ; preds = %bb21, %bb19
  %32 = bitcast %"core::ops::control_flow::ControlFlow<core::result::Result<core::convert::Infallible, alloc::collections::TryReserveErrorKind>, core::alloc::layout::Layout>"* %_5 to i64*, !dbg !2286
  %_9 = load i64, i64* %32, align 8, !dbg !2286, !range !433, !noundef !140
  switch i64 %_9, label %bb4 [
    i64 0, label %bb3
    i64 1, label %bb5
  ], !dbg !2286

bb4:                                              ; preds = %bb2
  unreachable, !dbg !2286

bb3:                                              ; preds = %bb2
  %33 = bitcast %"core::ops::control_flow::ControlFlow<core::result::Result<core::convert::Infallible, alloc::collections::TryReserveErrorKind>, core::alloc::layout::Layout>"* %_5 to %"core::ops::control_flow::ControlFlow<core::result::Result<core::convert::Infallible, alloc::collections::TryReserveErrorKind>, core::alloc::layout::Layout>::Continue"*, !dbg !2286
  %34 = getelementptr inbounds %"core::ops::control_flow::ControlFlow<core::result::Result<core::convert::Infallible, alloc::collections::TryReserveErrorKind>, core::alloc::layout::Layout>::Continue", %"core::ops::control_flow::ControlFlow<core::result::Result<core::convert::Infallible, alloc::collections::TryReserveErrorKind>, core::alloc::layout::Layout>::Continue"* %33, i32 0, i32 1, !dbg !2286
  %35 = getelementptr inbounds { i64, i64 }, { i64, i64 }* %34, i32 0, i32 0, !dbg !2286
  %val.0 = load i64, i64* %35, align 8, !dbg !2286
  %36 = getelementptr inbounds { i64, i64 }, { i64, i64 }* %34, i32 0, i32 1, !dbg !2286
  %val.1 = load i64, i64* %36, align 8, !dbg !2286, !range !645, !noundef !140
  %37 = getelementptr inbounds { i64, i64 }, { i64, i64 }* %val.dbg.spill11, i32 0, i32 0, !dbg !2286
  store i64 %val.0, i64* %37, align 8, !dbg !2286
  %38 = getelementptr inbounds { i64, i64 }, { i64, i64 }* %val.dbg.spill11, i32 0, i32 1, !dbg !2286
  store i64 %val.1, i64* %38, align 8, !dbg !2286
  call void @llvm.dbg.declare(metadata { i64, i64 }* %val.dbg.spill11, metadata !2220, metadata !DIExpression()), !dbg !2379
  %39 = getelementptr inbounds { i64, i64 }, { i64, i64 }* %new_layout, i32 0, i32 0, !dbg !2379
  store i64 %val.0, i64* %39, align 8, !dbg !2379
  %40 = getelementptr inbounds { i64, i64 }, { i64, i64 }* %new_layout, i32 0, i32 1, !dbg !2379
  store i64 %val.1, i64* %40, align 8, !dbg !2379
  %41 = getelementptr inbounds { i64, i64 }, { i64, i64 }* %self1, i32 0, i32 1, !dbg !2380
  store i64 -9223372036854775807, i64* %41, align 8, !dbg !2380
  %42 = getelementptr inbounds { i64, i64 }, { i64, i64 }* %self1, i32 0, i32 1, !dbg !2327
  %43 = load i64, i64* %42, align 8, !dbg !2327, !range !1046, !noundef !140
  %44 = sub i64 %43, -9223372036854775807, !dbg !2327
  %45 = icmp eq i64 %44, 0, !dbg !2327
  %_55 = select i1 %45, i64 0, i64 1, !dbg !2327
  switch i64 %_55, label %bb23 [
    i64 0, label %bb24
    i64 1, label %bb22
  ], !dbg !2327

bb5:                                              ; preds = %bb2
  %46 = bitcast %"core::ops::control_flow::ControlFlow<core::result::Result<core::convert::Infallible, alloc::collections::TryReserveErrorKind>, core::alloc::layout::Layout>"* %_5 to %"core::ops::control_flow::ControlFlow<core::result::Result<core::convert::Infallible, alloc::collections::TryReserveErrorKind>, core::alloc::layout::Layout>::Break"*, !dbg !2386
  %47 = getelementptr inbounds %"core::ops::control_flow::ControlFlow<core::result::Result<core::convert::Infallible, alloc::collections::TryReserveErrorKind>, core::alloc::layout::Layout>::Break", %"core::ops::control_flow::ControlFlow<core::result::Result<core::convert::Infallible, alloc::collections::TryReserveErrorKind>, core::alloc::layout::Layout>::Break"* %46, i32 0, i32 1, !dbg !2386
  %48 = getelementptr inbounds { i64, i64 }, { i64, i64 }* %47, i32 0, i32 0, !dbg !2386
  %residual.0 = load i64, i64* %48, align 8, !dbg !2386
  %49 = getelementptr inbounds { i64, i64 }, { i64, i64 }* %47, i32 0, i32 1, !dbg !2386
  %residual.1 = load i64, i64* %49, align 8, !dbg !2386, !range !206, !noundef !140
  %50 = getelementptr inbounds { i64, i64 }, { i64, i64 }* %residual.dbg.spill, i32 0, i32 0, !dbg !2386
  store i64 %residual.0, i64* %50, align 8, !dbg !2386
  %51 = getelementptr inbounds { i64, i64 }, { i64, i64 }* %residual.dbg.spill, i32 0, i32 1, !dbg !2386
  store i64 %residual.1, i64* %51, align 8, !dbg !2386
  call void @llvm.dbg.declare(metadata { i64, i64 }* %residual.dbg.spill, metadata !2205, metadata !DIExpression()), !dbg !2387
  %52 = getelementptr inbounds { i64, i64 }, { i64, i64 }* %residual, i32 0, i32 0, !dbg !2387
  store i64 %residual.0, i64* %52, align 8, !dbg !2387
  %53 = getelementptr inbounds { i64, i64 }, { i64, i64 }* %residual, i32 0, i32 1, !dbg !2387
  store i64 %residual.1, i64* %53, align 8, !dbg !2387
  %54 = getelementptr inbounds { i64, i64 }, { i64, i64 }* %residual, i32 0, i32 0, !dbg !2297
  %e.08 = load i64, i64* %54, align 8, !dbg !2297
  %55 = getelementptr inbounds { i64, i64 }, { i64, i64 }* %residual, i32 0, i32 1, !dbg !2297
  %e.19 = load i64, i64* %55, align 8, !dbg !2297, !range !206, !noundef !140
  %56 = getelementptr inbounds { i64, i64 }, { i64, i64 }* %e.dbg.spill10, i32 0, i32 0, !dbg !2297
  store i64 %e.08, i64* %56, align 8, !dbg !2297
  %57 = getelementptr inbounds { i64, i64 }, { i64, i64 }* %e.dbg.spill10, i32 0, i32 1, !dbg !2297
  store i64 %e.19, i64* %57, align 8, !dbg !2297
  call void @llvm.dbg.declare(metadata { i64, i64 }* %e.dbg.spill10, metadata !2293, metadata !DIExpression()), !dbg !2388
  %58 = getelementptr inbounds { i64, i64 }, { i64, i64 }* %kind.dbg.spill, i32 0, i32 0, !dbg !2388
  store i64 %e.08, i64* %58, align 8, !dbg !2388
  %59 = getelementptr inbounds { i64, i64 }, { i64, i64 }* %kind.dbg.spill, i32 0, i32 1, !dbg !2388
  store i64 %e.19, i64* %59, align 8, !dbg !2388
  call void @llvm.dbg.declare(metadata { i64, i64 }* %kind.dbg.spill, metadata !2389, metadata !DIExpression()), !dbg !2393
  %60 = getelementptr inbounds { i64, i64 }, { i64, i64 }* %_52, i32 0, i32 0, !dbg !2393
  store i64 %e.08, i64* %60, align 8, !dbg !2393
  %61 = getelementptr inbounds { i64, i64 }, { i64, i64 }* %_52, i32 0, i32 1, !dbg !2393
  store i64 %e.19, i64* %61, align 8, !dbg !2393
  %62 = bitcast %"core::result::Result<core::ptr::non_null::NonNull<[u8]>, alloc::collections::TryReserveError>"* %0 to %"core::result::Result<core::ptr::non_null::NonNull<[u8]>, alloc::collections::TryReserveError>::Err"*, !dbg !2388
  %63 = getelementptr inbounds %"core::result::Result<core::ptr::non_null::NonNull<[u8]>, alloc::collections::TryReserveError>::Err", %"core::result::Result<core::ptr::non_null::NonNull<[u8]>, alloc::collections::TryReserveError>::Err"* %62, i32 0, i32 1, !dbg !2388
  %64 = getelementptr inbounds { i64, i64 }, { i64, i64 }* %_52, i32 0, i32 0, !dbg !2388
  %65 = load i64, i64* %64, align 8, !dbg !2388
  %66 = getelementptr inbounds { i64, i64 }, { i64, i64 }* %_52, i32 0, i32 1, !dbg !2388
  %67 = load i64, i64* %66, align 8, !dbg !2388, !range !206, !noundef !140
  %68 = getelementptr inbounds { i64, i64 }, { i64, i64 }* %63, i32 0, i32 0, !dbg !2388
  store i64 %65, i64* %68, align 8, !dbg !2388
  %69 = getelementptr inbounds { i64, i64 }, { i64, i64 }* %63, i32 0, i32 1, !dbg !2388
  store i64 %67, i64* %69, align 8, !dbg !2388
  %70 = bitcast %"core::result::Result<core::ptr::non_null::NonNull<[u8]>, alloc::collections::TryReserveError>"* %0 to i64*, !dbg !2388
  store i64 1, i64* %70, align 8, !dbg !2388
  br label %bb17, !dbg !2395

bb17:                                             ; preds = %bb25, %bb5
  br label %bb18, !dbg !2397

bb23:                                             ; preds = %bb3
  unreachable, !dbg !2327

bb24:                                             ; preds = %bb3
  %71 = getelementptr inbounds { i64, i64 }, { i64, i64 }* %_13, i32 0, i32 1, !dbg !2344
  store i64 -9223372036854775807, i64* %71, align 8, !dbg !2344
  br label %bb6, !dbg !2327

bb22:                                             ; preds = %bb3
  %72 = getelementptr inbounds { i64, i64 }, { i64, i64 }* %self1, i32 0, i32 0, !dbg !2327
  %e.012 = load i64, i64* %72, align 8, !dbg !2327
  %73 = getelementptr inbounds { i64, i64 }, { i64, i64 }* %self1, i32 0, i32 1, !dbg !2327
  %e.113 = load i64, i64* %73, align 8, !dbg !2327, !range !206, !noundef !140
  %74 = getelementptr inbounds { i64, i64 }, { i64, i64 }* %e.dbg.spill14, i32 0, i32 0, !dbg !2327
  store i64 %e.012, i64* %74, align 8, !dbg !2327
  %75 = getelementptr inbounds { i64, i64 }, { i64, i64 }* %e.dbg.spill14, i32 0, i32 1, !dbg !2327
  store i64 %e.113, i64* %75, align 8, !dbg !2327
  call void @llvm.dbg.declare(metadata { i64, i64 }* %e.dbg.spill14, metadata !2324, metadata !DIExpression()), !dbg !2398
  %76 = getelementptr inbounds { i64, i64 }, { i64, i64 }* %_58, i32 0, i32 0, !dbg !2398
  store i64 %e.012, i64* %76, align 8, !dbg !2398
  %77 = getelementptr inbounds { i64, i64 }, { i64, i64 }* %_58, i32 0, i32 1, !dbg !2398
  store i64 %e.113, i64* %77, align 8, !dbg !2398
  %78 = getelementptr inbounds { i64, i64 }, { i64, i64 }* %_58, i32 0, i32 0, !dbg !2398
  %79 = load i64, i64* %78, align 8, !dbg !2398
  %80 = getelementptr inbounds { i64, i64 }, { i64, i64 }* %_58, i32 0, i32 1, !dbg !2398
  %81 = load i64, i64* %80, align 8, !dbg !2398, !range !206, !noundef !140
  %82 = getelementptr inbounds { i64, i64 }, { i64, i64 }* %_13, i32 0, i32 0, !dbg !2398
  store i64 %79, i64* %82, align 8, !dbg !2398
  %83 = getelementptr inbounds { i64, i64 }, { i64, i64 }* %_13, i32 0, i32 1, !dbg !2398
  store i64 %81, i64* %83, align 8, !dbg !2398
  br label %bb6, !dbg !2327

bb6:                                              ; preds = %bb24, %bb22
  %84 = getelementptr inbounds { i64, i64 }, { i64, i64 }* %_13, i32 0, i32 1, !dbg !2328
  %85 = load i64, i64* %84, align 8, !dbg !2328, !range !1046, !noundef !140
  %86 = sub i64 %85, -9223372036854775807, !dbg !2328
  %87 = icmp eq i64 %86, 0, !dbg !2328
  %_17 = select i1 %87, i64 0, i64 1, !dbg !2328
  switch i64 %_17, label %bb8 [
    i64 0, label %bb7
    i64 1, label %bb9
  ], !dbg !2328

bb8:                                              ; preds = %bb6
  unreachable, !dbg !2328

bb7:                                              ; preds = %bb6
  %88 = getelementptr inbounds %"core::option::Option<(core::ptr::non_null::NonNull<u8>, core::alloc::layout::Layout)>", %"core::option::Option<(core::ptr::non_null::NonNull<u8>, core::alloc::layout::Layout)>"* %current_memory, i32 0, i32 1, !dbg !2399
  %89 = load i64, i64* %88, align 8, !dbg !2399, !range !206, !noundef !140
  %90 = icmp eq i64 %89, 0, !dbg !2399
  %_22 = select i1 %90, i64 0, i64 1, !dbg !2399
  %91 = icmp eq i64 %_22, 1, !dbg !2399
  br i1 %91, label %bb11, label %bb10, !dbg !2399

bb9:                                              ; preds = %bb6
  %92 = getelementptr inbounds { i64, i64 }, { i64, i64 }* %_13, i32 0, i32 0, !dbg !2400
  %residual.015 = load i64, i64* %92, align 8, !dbg !2400
  %93 = getelementptr inbounds { i64, i64 }, { i64, i64 }* %_13, i32 0, i32 1, !dbg !2400
  %residual.116 = load i64, i64* %93, align 8, !dbg !2400, !range !206, !noundef !140
  %94 = getelementptr inbounds { i64, i64 }, { i64, i64 }* %residual.dbg.spill17, i32 0, i32 0, !dbg !2400
  store i64 %residual.015, i64* %94, align 8, !dbg !2400
  %95 = getelementptr inbounds { i64, i64 }, { i64, i64 }* %residual.dbg.spill17, i32 0, i32 1, !dbg !2400
  store i64 %residual.116, i64* %95, align 8, !dbg !2400
  call void @llvm.dbg.declare(metadata { i64, i64 }* %residual.dbg.spill17, metadata !2222, metadata !DIExpression()), !dbg !2401
  %96 = getelementptr inbounds { i64, i64 }, { i64, i64 }* %residual2, i32 0, i32 0, !dbg !2401
  store i64 %residual.015, i64* %96, align 8, !dbg !2401
  %97 = getelementptr inbounds { i64, i64 }, { i64, i64 }* %residual2, i32 0, i32 1, !dbg !2401
  store i64 %residual.116, i64* %97, align 8, !dbg !2401
  %98 = getelementptr inbounds { i64, i64 }, { i64, i64 }* %residual2, i32 0, i32 0, !dbg !2339
  %e.018 = load i64, i64* %98, align 8, !dbg !2339
  %99 = getelementptr inbounds { i64, i64 }, { i64, i64 }* %residual2, i32 0, i32 1, !dbg !2339
  %e.119 = load i64, i64* %99, align 8, !dbg !2339, !range !206, !noundef !140
  %100 = getelementptr inbounds { i64, i64 }, { i64, i64 }* %e.dbg.spill20, i32 0, i32 0, !dbg !2339
  store i64 %e.018, i64* %100, align 8, !dbg !2339
  %101 = getelementptr inbounds { i64, i64 }, { i64, i64 }* %e.dbg.spill20, i32 0, i32 1, !dbg !2339
  store i64 %e.119, i64* %101, align 8, !dbg !2339
  call void @llvm.dbg.declare(metadata { i64, i64 }* %e.dbg.spill20, metadata !2335, metadata !DIExpression()), !dbg !2402
; call <T as core::convert::From<T>>::from
  %102 = call { i64, i64 } @"_ZN50_$LT$T$u20$as$u20$core..convert..From$LT$T$GT$$GT$4from17h91aa860e841d02efE"(i64 %e.018, i64 %e.119), !dbg !2402
  %_61.0 = extractvalue { i64, i64 } %102, 0, !dbg !2402
  %_61.1 = extractvalue { i64, i64 } %102, 1, !dbg !2402
  br label %bb25, !dbg !2402

bb25:                                             ; preds = %bb9
  %103 = bitcast %"core::result::Result<core::ptr::non_null::NonNull<[u8]>, alloc::collections::TryReserveError>"* %0 to %"core::result::Result<core::ptr::non_null::NonNull<[u8]>, alloc::collections::TryReserveError>::Err"*, !dbg !2402
  %104 = getelementptr inbounds %"core::result::Result<core::ptr::non_null::NonNull<[u8]>, alloc::collections::TryReserveError>::Err", %"core::result::Result<core::ptr::non_null::NonNull<[u8]>, alloc::collections::TryReserveError>::Err"* %103, i32 0, i32 1, !dbg !2402
  %105 = getelementptr inbounds { i64, i64 }, { i64, i64 }* %104, i32 0, i32 0, !dbg !2402
  store i64 %_61.0, i64* %105, align 8, !dbg !2402
  %106 = getelementptr inbounds { i64, i64 }, { i64, i64 }* %104, i32 0, i32 1, !dbg !2402
  store i64 %_61.1, i64* %106, align 8, !dbg !2402
  %107 = bitcast %"core::result::Result<core::ptr::non_null::NonNull<[u8]>, alloc::collections::TryReserveError>"* %0 to i64*, !dbg !2402
  store i64 1, i64* %107, align 8, !dbg !2402
  br label %bb17, !dbg !2403

bb18:                                             ; preds = %bb16, %bb17
  ret void, !dbg !2397

bb11:                                             ; preds = %bb7
  %108 = bitcast %"core::option::Option<(core::ptr::non_null::NonNull<u8>, core::alloc::layout::Layout)>"* %current_memory to %"core::option::Option<(core::ptr::non_null::NonNull<u8>, core::alloc::layout::Layout)>::Some"*, !dbg !2405
  %109 = bitcast %"core::option::Option<(core::ptr::non_null::NonNull<u8>, core::alloc::layout::Layout)>::Some"* %108 to { i8*, { i64, i64 } }*, !dbg !2405
  %110 = bitcast { i8*, { i64, i64 } }* %109 to i8**, !dbg !2405
  %ptr = load i8*, i8** %110, align 8, !dbg !2405, !nonnull !140, !noundef !140
  store i8* %ptr, i8** %ptr.dbg.spill, align 8, !dbg !2405
  call void @llvm.dbg.declare(metadata i8** %ptr.dbg.spill, metadata !2241, metadata !DIExpression()), !dbg !2405
  %111 = bitcast %"core::option::Option<(core::ptr::non_null::NonNull<u8>, core::alloc::layout::Layout)>"* %current_memory to %"core::option::Option<(core::ptr::non_null::NonNull<u8>, core::alloc::layout::Layout)>::Some"*, !dbg !2343
  %112 = bitcast %"core::option::Option<(core::ptr::non_null::NonNull<u8>, core::alloc::layout::Layout)>::Some"* %111 to { i8*, { i64, i64 } }*, !dbg !2343
  %113 = getelementptr inbounds { i8*, { i64, i64 } }, { i8*, { i64, i64 } }* %112, i32 0, i32 1, !dbg !2343
  %114 = getelementptr inbounds { i64, i64 }, { i64, i64 }* %113, i32 0, i32 0, !dbg !2343
  %115 = load i64, i64* %114, align 8, !dbg !2343
  %116 = getelementptr inbounds { i64, i64 }, { i64, i64 }* %113, i32 0, i32 1, !dbg !2343
  %117 = load i64, i64* %116, align 8, !dbg !2343, !range !645, !noundef !140
  %118 = getelementptr inbounds { i64, i64 }, { i64, i64 }* %old_layout, i32 0, i32 0, !dbg !2343
  store i64 %115, i64* %118, align 8, !dbg !2343
  %119 = getelementptr inbounds { i64, i64 }, { i64, i64 }* %old_layout, i32 0, i32 1, !dbg !2343
  store i64 %117, i64* %119, align 8, !dbg !2343
  store { i64, i64 }* %old_layout, { i64, i64 }** %self.dbg.spill, align 8, !dbg !2355
  call void @llvm.dbg.declare(metadata { i64, i64 }** %self.dbg.spill, metadata !2353, metadata !DIExpression()), !dbg !2406
  %120 = getelementptr inbounds { i64, i64 }, { i64, i64 }* %old_layout, i32 0, i32 1, !dbg !2406
  %121 = load i64, i64* %120, align 8, !dbg !2406, !range !645, !noundef !140
  store i64 %121, i64* %self4, align 8, !dbg !2406
  %_74 = load i64, i64* %self4, align 8, !dbg !2360, !range !645, !noundef !140
  store i64 %_74, i64* %n.dbg.spill, align 8, !dbg !2360
  call void @llvm.dbg.declare(metadata i64* %n.dbg.spill, metadata !2407, metadata !DIExpression()), !dbg !2414
  store i64 %_74, i64* %self3, align 8, !dbg !2414
  %_32 = load i64, i64* %self3, align 8, !dbg !2349
  store { i64, i64 }* %new_layout, { i64, i64 }** %self.dbg.spill21, align 8, !dbg !2371
  call void @llvm.dbg.declare(metadata { i64, i64 }** %self.dbg.spill21, metadata !2369, metadata !DIExpression()), !dbg !2416
  %122 = getelementptr inbounds { i64, i64 }, { i64, i64 }* %new_layout, i32 0, i32 1, !dbg !2416
  %123 = load i64, i64* %122, align 8, !dbg !2416, !range !645, !noundef !140
  store i64 %123, i64* %self6, align 8, !dbg !2416
  %_80 = load i64, i64* %self6, align 8, !dbg !2376, !range !645, !noundef !140
  store i64 %_80, i64* %n.dbg.spill22, align 8, !dbg !2376
  call void @llvm.dbg.declare(metadata i64* %n.dbg.spill22, metadata !2417, metadata !DIExpression()), !dbg !2424
  store i64 %_80, i64* %self5, align 8, !dbg !2424
  %_34 = load i64, i64* %self5, align 8, !dbg !2365
  %_31 = icmp eq i64 %_32, %_34, !dbg !2355
  call void @llvm.assume(i1 %_31), !dbg !2426
  br label %bb12, !dbg !2426

bb10:                                             ; preds = %bb7
  %124 = getelementptr inbounds { i64, i64 }, { i64, i64 }* %new_layout, i32 0, i32 0, !dbg !2427
  %_41.0 = load i64, i64* %124, align 8, !dbg !2427
  %125 = getelementptr inbounds { i64, i64 }, { i64, i64 }* %new_layout, i32 0, i32 1, !dbg !2427
  %_41.1 = load i64, i64* %125, align 8, !dbg !2427, !range !645, !noundef !140
; call <alloc::alloc::Global as core::alloc::Allocator>::allocate
  %126 = call { i8*, i64 } @"_ZN63_$LT$alloc..alloc..Global$u20$as$u20$core..alloc..Allocator$GT$8allocate17h0fb66dc17ec3f176E"(%"alloc::alloc::Global"* align 1 %alloc, i64 %_41.0, i64 %_41.1), !dbg !2428
  store { i8*, i64 } %126, { i8*, i64 }* %memory, align 8, !dbg !2428
  br label %bb14, !dbg !2428

bb14:                                             ; preds = %bb10
  br label %bb15, !dbg !2429

bb15:                                             ; preds = %bb13, %bb14
  %127 = getelementptr inbounds { i8*, i64 }, { i8*, i64 }* %memory, i32 0, i32 0, !dbg !2430
  %_42.0 = load i8*, i8** %127, align 8, !dbg !2430
  %128 = getelementptr inbounds { i8*, i64 }, { i8*, i64 }* %memory, i32 0, i32 1, !dbg !2430
  %_42.1 = load i64, i64* %128, align 8, !dbg !2430
  %129 = bitcast i64** %_43 to { i64, i64 }**, !dbg !2431
  store { i64, i64 }* %new_layout, { i64, i64 }** %129, align 8, !dbg !2431
  %130 = load i64*, i64** %_43, align 8, !dbg !2430, !nonnull !140, !align !2432, !noundef !140
; call core::result::Result<T,E>::map_err
  call void @"_ZN4core6result19Result$LT$T$C$E$GT$7map_err17h165ad2397c373541E"(%"core::result::Result<core::ptr::non_null::NonNull<[u8]>, alloc::collections::TryReserveError>"* sret(%"core::result::Result<core::ptr::non_null::NonNull<[u8]>, alloc::collections::TryReserveError>") %0, i8* %_42.0, i64 %_42.1, i64* align 8 %130), !dbg !2430
  br label %bb16, !dbg !2430

bb12:                                             ; preds = %bb11
  %131 = getelementptr inbounds { i64, i64 }, { i64, i64 }* %old_layout, i32 0, i32 0, !dbg !2433
  %_38.0 = load i64, i64* %131, align 8, !dbg !2433
  %132 = getelementptr inbounds { i64, i64 }, { i64, i64 }* %old_layout, i32 0, i32 1, !dbg !2433
  %_38.1 = load i64, i64* %132, align 8, !dbg !2433, !range !645, !noundef !140
  %133 = getelementptr inbounds { i64, i64 }, { i64, i64 }* %new_layout, i32 0, i32 0, !dbg !2434
  %_39.0 = load i64, i64* %133, align 8, !dbg !2434
  %134 = getelementptr inbounds { i64, i64 }, { i64, i64 }* %new_layout, i32 0, i32 1, !dbg !2434
  %_39.1 = load i64, i64* %134, align 8, !dbg !2434, !range !645, !noundef !140
; call <alloc::alloc::Global as core::alloc::Allocator>::grow
  %135 = call { i8*, i64 } @"_ZN63_$LT$alloc..alloc..Global$u20$as$u20$core..alloc..Allocator$GT$4grow17h9e85290fb7de99d4E"(%"alloc::alloc::Global"* align 1 %alloc, i8* %ptr, i64 %_38.0, i64 %_38.1, i64 %_39.0, i64 %_39.1), !dbg !2435
  store { i8*, i64 } %135, { i8*, i64 }* %memory, align 8, !dbg !2435
  br label %bb13, !dbg !2435

bb13:                                             ; preds = %bb12
  br label %bb15, !dbg !2429

bb16:                                             ; preds = %bb15
  br label %bb18, !dbg !2397
}

; alloc::raw_vec::finish_grow::{{closure}}
; Function Attrs: inlinehint nonlazybind uwtable
define { i64, i64 } @"_ZN5alloc7raw_vec11finish_grow28_$u7b$$u7b$closure$u7d$$u7d$17h279df25bbe7182e6E"() unnamed_addr #0 !dbg !2436 {
start:
  %_2.dbg.spill = alloca %"core::alloc::layout::LayoutError", align 1
  %_1.dbg.spill = alloca %"[closure@alloc::raw_vec::finish_grow<alloc::alloc::Global>::{closure#0}]", align 1
  %0 = alloca { i64, i64 }, align 8
  call void @llvm.dbg.declare(metadata %"[closure@alloc::raw_vec::finish_grow<alloc::alloc::Global>::{closure#0}]"* %_1.dbg.spill, metadata !2440, metadata !DIExpression()), !dbg !2442
  call void @llvm.dbg.declare(metadata %"core::alloc::layout::LayoutError"* %_2.dbg.spill, metadata !2441, metadata !DIExpression()), !dbg !2443
  %1 = getelementptr inbounds { i64, i64 }, { i64, i64 }* %0, i32 0, i32 1, !dbg !2444
  store i64 0, i64* %1, align 8, !dbg !2444
  %2 = getelementptr inbounds { i64, i64 }, { i64, i64 }* %0, i32 0, i32 0, !dbg !2445
  %3 = load i64, i64* %2, align 8, !dbg !2445
  %4 = getelementptr inbounds { i64, i64 }, { i64, i64 }* %0, i32 0, i32 1, !dbg !2445
  %5 = load i64, i64* %4, align 8, !dbg !2445, !range !206, !noundef !140
  %6 = insertvalue { i64, i64 } undef, i64 %3, 0, !dbg !2445
  %7 = insertvalue { i64, i64 } %6, i64 %5, 1, !dbg !2445
  ret { i64, i64 } %7, !dbg !2445
}

; alloc::raw_vec::finish_grow::{{closure}}
; Function Attrs: inlinehint nonlazybind uwtable
define { i64, i64 } @"_ZN5alloc7raw_vec11finish_grow28_$u7b$$u7b$closure$u7d$$u7d$17hf3f1149945585880E"(i64* align 8 %0) unnamed_addr #0 !dbg !2446 {
start:
  %_2.dbg.spill = alloca %"core::alloc::AllocError", align 1
  %_3 = alloca { i64, i64 }, align 8
  %_1 = alloca i64*, align 8
  store i64* %0, i64** %_1, align 8
  %1 = bitcast i64** %_1 to { i64, i64 }**
  %2 = load { i64, i64 }*, { i64, i64 }** %1, align 8, !nonnull !140, !align !2432, !noundef !140
  call void @llvm.dbg.declare(metadata i64** %_1, metadata !2450, metadata !DIExpression(DW_OP_deref)), !dbg !2452
  call void @llvm.dbg.declare(metadata %"core::alloc::AllocError"* %_2.dbg.spill, metadata !2451, metadata !DIExpression()), !dbg !2453
  %3 = bitcast i64** %_1 to { i64, i64 }**, !dbg !2454
  %_5 = load { i64, i64 }*, { i64, i64 }** %3, align 8, !dbg !2454, !nonnull !140, !align !2432, !noundef !140
  %4 = getelementptr inbounds { i64, i64 }, { i64, i64 }* %_5, i32 0, i32 0, !dbg !2454
  %_4.0 = load i64, i64* %4, align 8, !dbg !2454
  %5 = getelementptr inbounds { i64, i64 }, { i64, i64 }* %_5, i32 0, i32 1, !dbg !2454
  %_4.1 = load i64, i64* %5, align 8, !dbg !2454, !range !645, !noundef !140
  %6 = getelementptr inbounds { i64, i64 }, { i64, i64 }* %_3, i32 0, i32 0, !dbg !2455
  store i64 %_4.0, i64* %6, align 8, !dbg !2455
  %7 = getelementptr inbounds { i64, i64 }, { i64, i64 }* %_3, i32 0, i32 1, !dbg !2455
  store i64 %_4.1, i64* %7, align 8, !dbg !2455
  %8 = getelementptr inbounds { i64, i64 }, { i64, i64 }* %_3, i32 0, i32 0, !dbg !2455
  %9 = load i64, i64* %8, align 8, !dbg !2455
  %10 = getelementptr inbounds { i64, i64 }, { i64, i64 }* %_3, i32 0, i32 1, !dbg !2455
  %11 = load i64, i64* %10, align 8, !dbg !2455, !range !206, !noundef !140
; call <T as core::convert::Into<U>>::into
  %12 = call { i64, i64 } @"_ZN50_$LT$T$u20$as$u20$core..convert..Into$LT$U$GT$$GT$4into17h846831bd743ffb62E"(i64 %9, i64 %11), !dbg !2455
  %13 = extractvalue { i64, i64 } %12, 0, !dbg !2455
  %14 = extractvalue { i64, i64 } %12, 1, !dbg !2455
  br label %bb1, !dbg !2455

bb1:                                              ; preds = %start
  %15 = insertvalue { i64, i64 } undef, i64 %13, 0, !dbg !2456
  %16 = insertvalue { i64, i64 } %15, i64 %14, 1, !dbg !2456
  ret { i64, i64 } %16, !dbg !2456
}

; alloc::raw_vec::handle_reserve
; Function Attrs: inlinehint nonlazybind uwtable
define internal void @_ZN5alloc7raw_vec14handle_reserve17h1a4fd17d14696974E(i64 %result.0, i64 %result.1) unnamed_addr #0 !dbg !2457 {
start:
  %layout.dbg.spill = alloca { i64, i64 }, align 8
  %result.dbg.spill = alloca { i64, i64 }, align 8
  %_2 = alloca { i64, i64 }, align 8
  %0 = getelementptr inbounds { i64, i64 }, { i64, i64 }* %result.dbg.spill, i32 0, i32 0
  store i64 %result.0, i64* %0, align 8
  %1 = getelementptr inbounds { i64, i64 }, { i64, i64 }* %result.dbg.spill, i32 0, i32 1
  store i64 %result.1, i64* %1, align 8
  call void @llvm.dbg.declare(metadata { i64, i64 }* %result.dbg.spill, metadata !2461, metadata !DIExpression()), !dbg !2464
; call core::result::Result<T,E>::map_err
  %2 = call { i64, i64 } @"_ZN4core6result19Result$LT$T$C$E$GT$7map_err17h7c2c49ffc86eed49E"(i64 %result.0, i64 %result.1), !dbg !2465
  store { i64, i64 } %2, { i64, i64 }* %_2, align 8, !dbg !2465
  br label %bb1, !dbg !2465

bb1:                                              ; preds = %start
  %3 = getelementptr inbounds { i64, i64 }, { i64, i64 }* %_2, i32 0, i32 1, !dbg !2465
  %4 = load i64, i64* %3, align 8, !dbg !2465, !range !1046, !noundef !140
  %5 = sub i64 %4, -9223372036854775807, !dbg !2465
  %6 = icmp eq i64 %5, 0, !dbg !2465
  %_6 = select i1 %6, i64 0, i64 1, !dbg !2465
  switch i64 %_6, label %bb4 [
    i64 0, label %bb2
    i64 1, label %bb3
  ], !dbg !2466

bb4:                                              ; preds = %bb3, %bb1
  unreachable, !dbg !2465

bb2:                                              ; preds = %bb1
  ret void, !dbg !2467

bb3:                                              ; preds = %bb1
  %7 = getelementptr inbounds { i64, i64 }, { i64, i64 }* %_2, i32 0, i32 1, !dbg !2465
  %8 = load i64, i64* %7, align 8, !dbg !2465, !range !206, !noundef !140
  %9 = icmp eq i64 %8, 0, !dbg !2465
  %_5 = select i1 %9, i64 0, i64 1, !dbg !2465
  switch i64 %_5, label %bb4 [
    i64 0, label %bb5
    i64 1, label %bb6
  ], !dbg !2466

bb5:                                              ; preds = %bb3
; call alloc::raw_vec::capacity_overflow
  call void @_ZN5alloc7raw_vec17capacity_overflow17hc80d63a780181a5dE() #17, !dbg !2468
  unreachable, !dbg !2468

bb6:                                              ; preds = %bb3
  %10 = getelementptr inbounds { i64, i64 }, { i64, i64 }* %_2, i32 0, i32 0, !dbg !2469
  %layout.0 = load i64, i64* %10, align 8, !dbg !2469
  %11 = getelementptr inbounds { i64, i64 }, { i64, i64 }* %_2, i32 0, i32 1, !dbg !2469
  %layout.1 = load i64, i64* %11, align 8, !dbg !2469, !range !645, !noundef !140
  %12 = getelementptr inbounds { i64, i64 }, { i64, i64 }* %layout.dbg.spill, i32 0, i32 0, !dbg !2469
  store i64 %layout.0, i64* %12, align 8, !dbg !2469
  %13 = getelementptr inbounds { i64, i64 }, { i64, i64 }* %layout.dbg.spill, i32 0, i32 1, !dbg !2469
  store i64 %layout.1, i64* %13, align 8, !dbg !2469
  call void @llvm.dbg.declare(metadata { i64, i64 }* %layout.dbg.spill, metadata !2462, metadata !DIExpression()), !dbg !2470
; call alloc::alloc::handle_alloc_error
  call void @_ZN5alloc5alloc18handle_alloc_error17h0eb7a9e63f5042c6E(i64 %layout.0, i64 %layout.1) #17, !dbg !2471
  unreachable, !dbg !2471
}

; alloc::raw_vec::handle_reserve::{{closure}}
; Function Attrs: inlinehint nonlazybind uwtable
define { i64, i64 } @"_ZN5alloc7raw_vec14handle_reserve28_$u7b$$u7b$closure$u7d$$u7d$17h4c6e33af5edd4a36E"(i64 %0, i64 %1) unnamed_addr #0 !dbg !2472 {
start:
  %self.dbg.spill2 = alloca { i64, i64 }*, align 8
  %__self_0.dbg.spill = alloca { i64, i64 }*, align 8
  %self.dbg.spill1 = alloca { i64, i64 }*, align 8
  %self.dbg.spill = alloca { i64, i64 }*, align 8
  %_1.dbg.spill = alloca %"[closure@alloc::raw_vec::handle_reserve::{closure#0}]", align 1
  %2 = alloca { i64, i64 }, align 8
  %e = alloca { i64, i64 }, align 8
  %3 = getelementptr inbounds { i64, i64 }, { i64, i64 }* %e, i32 0, i32 0
  store i64 %0, i64* %3, align 8
  %4 = getelementptr inbounds { i64, i64 }, { i64, i64 }* %e, i32 0, i32 1
  store i64 %1, i64* %4, align 8
  call void @llvm.dbg.declare(metadata %"[closure@alloc::raw_vec::handle_reserve::{closure#0}]"* %_1.dbg.spill, metadata !2477, metadata !DIExpression()), !dbg !2478
  call void @llvm.dbg.declare(metadata { i64, i64 }* %e, metadata !2476, metadata !DIExpression()), !dbg !2479
  store { i64, i64 }* %e, { i64, i64 }** %self.dbg.spill, align 8, !dbg !2480
  call void @llvm.dbg.declare(metadata { i64, i64 }** %self.dbg.spill, metadata !2481, metadata !DIExpression()), !dbg !2488
  store { i64, i64 }* %e, { i64, i64 }** %self.dbg.spill1, align 8, !dbg !2488
  call void @llvm.dbg.declare(metadata { i64, i64 }** %self.dbg.spill1, metadata !2489, metadata !DIExpression()), !dbg !2502
  %5 = getelementptr inbounds { i64, i64 }, { i64, i64 }* %e, i32 0, i32 1, !dbg !2502
  %6 = load i64, i64* %5, align 8, !dbg !2502, !range !206, !noundef !140
  %7 = icmp eq i64 %6, 0, !dbg !2502
  %_5 = select i1 %7, i64 0, i64 1, !dbg !2502
  switch i64 %_5, label %bb3 [
    i64 0, label %bb4
    i64 1, label %bb2
  ], !dbg !2502

bb3:                                              ; preds = %start
  unreachable, !dbg !2502

bb4:                                              ; preds = %start
  %8 = getelementptr inbounds { i64, i64 }, { i64, i64 }* %2, i32 0, i32 1, !dbg !2502
  store i64 0, i64* %8, align 8, !dbg !2502
  br label %bb1, !dbg !2502

bb2:                                              ; preds = %start
  store { i64, i64 }* %e, { i64, i64 }** %__self_0.dbg.spill, align 8, !dbg !2502
  call void @llvm.dbg.declare(metadata { i64, i64 }** %__self_0.dbg.spill, metadata !2497, metadata !DIExpression()), !dbg !2504
  store { i64, i64 }* %e, { i64, i64 }** %self.dbg.spill2, align 8, !dbg !2504
  call void @llvm.dbg.declare(metadata { i64, i64 }** %self.dbg.spill2, metadata !2505, metadata !DIExpression()), !dbg !2512
  %9 = getelementptr inbounds { i64, i64 }, { i64, i64 }* %e, i32 0, i32 0, !dbg !2512
  %_8.0 = load i64, i64* %9, align 8, !dbg !2512
  %10 = getelementptr inbounds { i64, i64 }, { i64, i64 }* %e, i32 0, i32 1, !dbg !2512
  %_8.1 = load i64, i64* %10, align 8, !dbg !2512, !range !645, !noundef !140
  %11 = getelementptr inbounds { i64, i64 }, { i64, i64 }* %2, i32 0, i32 0, !dbg !2504
  store i64 %_8.0, i64* %11, align 8, !dbg !2504
  %12 = getelementptr inbounds { i64, i64 }, { i64, i64 }* %2, i32 0, i32 1, !dbg !2504
  store i64 %_8.1, i64* %12, align 8, !dbg !2504
  br label %bb1, !dbg !2502

bb1:                                              ; preds = %bb4, %bb2
  %13 = getelementptr inbounds { i64, i64 }, { i64, i64 }* %2, i32 0, i32 0, !dbg !2514
  %14 = load i64, i64* %13, align 8, !dbg !2514
  %15 = getelementptr inbounds { i64, i64 }, { i64, i64 }* %2, i32 0, i32 1, !dbg !2514
  %16 = load i64, i64* %15, align 8, !dbg !2514, !range !206, !noundef !140
  %17 = insertvalue { i64, i64 } undef, i64 %14, 0, !dbg !2514
  %18 = insertvalue { i64, i64 } %17, i64 %16, 1, !dbg !2514
  ret { i64, i64 } %18, !dbg !2514
}

; alloc::raw_vec::RawVec<T,A>::allocate_in
; Function Attrs: nonlazybind uwtable
define { i32*, i64 } @"_ZN5alloc7raw_vec19RawVec$LT$T$C$A$GT$11allocate_in17h91f49f7466e9561cE"(i64 %capacity, i1 zeroext %0) unnamed_addr #1 personality i32 (i32, i32, i64, %"unwind::libunwind::_Unwind_Exception"*, %"unwind::libunwind::_Unwind_Context"*)* @rust_eh_personality !dbg !2515 {
start:
  %ptr.dbg.spill6 = alloca i32*, align 8
  %ptr.dbg.spill5 = alloca i32*, align 8
  %ptr.dbg.spill4 = alloca i32*, align 8
  %self.dbg.spill3 = alloca { i8*, i64 }, align 8
  %self.dbg.spill = alloca { i8*, i64 }, align 8
  %ptr.dbg.spill2 = alloca { i8*, i64 }, align 8
  %ptr.dbg.spill = alloca { i8*, i64 }, align 8
  %layout.dbg.spill1 = alloca { i64, i64 }, align 8
  %layout.dbg.spill = alloca { i64, i64 }, align 8
  %1 = alloca { i8*, i32 }, align 8
  %capacity.dbg.spill = alloca i64, align 8
  %_46 = alloca i32*, align 8
  %_37 = alloca i8, align 1
  %self = alloca i32*, align 8
  %_31 = alloca i32*, align 8
  %result = alloca { i8*, i64 }, align 8
  %_15 = alloca { i64, i64 }, align 8
  %_10 = alloca { i64, i64 }, align 8
  %_4 = alloca i8, align 1
  %2 = alloca { i32*, i64 }, align 8
  %alloc = alloca %"alloc::alloc::Global", align 1
  %init = alloca i8, align 1
  %3 = zext i1 %0 to i8
  store i8 %3, i8* %init, align 1
  store i64 %capacity, i64* %capacity.dbg.spill, align 8
  call void @llvm.dbg.declare(metadata i64* %capacity.dbg.spill, metadata !2519, metadata !DIExpression()), !dbg !2532
  call void @llvm.dbg.declare(metadata i8* %init, metadata !2520, metadata !DIExpression()), !dbg !2533
  call void @llvm.dbg.declare(metadata %"alloc::alloc::Global"* %alloc, metadata !2521, metadata !DIExpression()), !dbg !2534
  call void @llvm.dbg.declare(metadata { i8*, i64 }* %result, metadata !2526, metadata !DIExpression()), !dbg !2535
  call void @llvm.dbg.declare(metadata i32** %self, metadata !2536, metadata !DIExpression()), !dbg !2540
  store i8 1, i8* %_37, align 1, !dbg !2542
  br i1 false, label %bb1, label %bb2, !dbg !2542

bb1:                                              ; preds = %start
  store i8 1, i8* %_4, align 1, !dbg !2542
  br label %bb3, !dbg !2542

bb2:                                              ; preds = %start
  %_6 = icmp eq i64 %capacity, 0, !dbg !2543
  %4 = zext i1 %_6 to i8, !dbg !2542
  store i8 %4, i8* %_4, align 1, !dbg !2542
  br label %bb3, !dbg !2542

bb3:                                              ; preds = %bb1, %bb2
  %5 = load i8, i8* %_4, align 1, !dbg !2542, !range !245, !noundef !140
  %6 = trunc i8 %5 to i1, !dbg !2542
  br i1 %6, label %bb4, label %bb6, !dbg !2542

bb6:                                              ; preds = %bb3
; invoke core::alloc::layout::Layout::array
  %7 = invoke { i64, i64 } @_ZN4core5alloc6layout6Layout5array17hacb403b6aba41249E(i64 %capacity)
          to label %bb7 unwind label %cleanup, !dbg !2544

bb4:                                              ; preds = %bb3
  store i8 0, i8* %_37, align 1, !dbg !2545
; invoke alloc::raw_vec::RawVec<T,A>::new_in
  %8 = invoke { i32*, i64 } @"_ZN5alloc7raw_vec19RawVec$LT$T$C$A$GT$6new_in17h5fddc5eaa03b3122E"()
          to label %bb5 unwind label %cleanup, !dbg !2546

bb26:                                             ; preds = %cleanup
  %9 = load i8, i8* %_37, align 1, !dbg !2547, !range !245, !noundef !140
  %10 = trunc i8 %9 to i1, !dbg !2547
  br i1 %10, label %bb25, label %bb24, !dbg !2547

cleanup:                                          ; preds = %bb20, %bb16, %bb14, %bb11, %bb8, %bb6, %bb4
  %11 = landingpad { i8*, i32 }
          cleanup
  %12 = extractvalue { i8*, i32 } %11, 0
  %13 = extractvalue { i8*, i32 } %11, 1
  %14 = getelementptr inbounds { i8*, i32 }, { i8*, i32 }* %1, i32 0, i32 0
  store i8* %12, i8** %14, align 8
  %15 = getelementptr inbounds { i8*, i32 }, { i8*, i32 }* %1, i32 0, i32 1
  store i32 %13, i32* %15, align 8
  br label %bb26

bb5:                                              ; preds = %bb4
  store { i32*, i64 } %8, { i32*, i64 }* %2, align 8, !dbg !2546
  br label %bb23, !dbg !2548

bb23:                                             ; preds = %bb22, %bb5
  %16 = getelementptr inbounds { i32*, i64 }, { i32*, i64 }* %2, i32 0, i32 0, !dbg !2549
  %17 = load i32*, i32** %16, align 8, !dbg !2549, !nonnull !140, !noundef !140
  %18 = getelementptr inbounds { i32*, i64 }, { i32*, i64 }* %2, i32 0, i32 1, !dbg !2549
  %19 = load i64, i64* %18, align 8, !dbg !2549
  %20 = insertvalue { i32*, i64 } undef, i32* %17, 0, !dbg !2549
  %21 = insertvalue { i32*, i64 } %20, i64 %19, 1, !dbg !2549
  ret { i32*, i64 } %21, !dbg !2549

bb7:                                              ; preds = %bb6
  store { i64, i64 } %7, { i64, i64 }* %_10, align 8, !dbg !2544
  %22 = getelementptr inbounds { i64, i64 }, { i64, i64 }* %_10, i32 0, i32 1, !dbg !2544
  %23 = load i64, i64* %22, align 8, !dbg !2544, !range !206, !noundef !140
  %24 = icmp eq i64 %23, 0, !dbg !2544
  %_12 = select i1 %24, i64 1, i64 0, !dbg !2544
  switch i64 %_12, label %bb9 [
    i64 0, label %bb10
    i64 1, label %bb8
  ], !dbg !2550

bb9:                                              ; preds = %bb7
  unreachable, !dbg !2544

bb10:                                             ; preds = %bb7
  %25 = getelementptr inbounds { i64, i64 }, { i64, i64 }* %_10, i32 0, i32 0, !dbg !2551
  %layout.0 = load i64, i64* %25, align 8, !dbg !2551
  %26 = getelementptr inbounds { i64, i64 }, { i64, i64 }* %_10, i32 0, i32 1, !dbg !2551
  %layout.1 = load i64, i64* %26, align 8, !dbg !2551, !range !645, !noundef !140
  %27 = getelementptr inbounds { i64, i64 }, { i64, i64 }* %layout.dbg.spill, i32 0, i32 0, !dbg !2551
  store i64 %layout.0, i64* %27, align 8, !dbg !2551
  %28 = getelementptr inbounds { i64, i64 }, { i64, i64 }* %layout.dbg.spill, i32 0, i32 1, !dbg !2551
  store i64 %layout.1, i64* %28, align 8, !dbg !2551
  call void @llvm.dbg.declare(metadata { i64, i64 }* %layout.dbg.spill, metadata !2524, metadata !DIExpression()), !dbg !2552
  %29 = getelementptr inbounds { i64, i64 }, { i64, i64 }* %layout.dbg.spill1, i32 0, i32 0, !dbg !2553
  store i64 %layout.0, i64* %29, align 8, !dbg !2553
  %30 = getelementptr inbounds { i64, i64 }, { i64, i64 }* %layout.dbg.spill1, i32 0, i32 1, !dbg !2553
  store i64 %layout.1, i64* %30, align 8, !dbg !2553
  call void @llvm.dbg.declare(metadata { i64, i64 }* %layout.dbg.spill1, metadata !2522, metadata !DIExpression()), !dbg !2554
  %31 = getelementptr inbounds { i64, i64 }, { i64, i64 }* %_15, i32 0, i32 1, !dbg !2555
  store i64 -9223372036854775807, i64* %31, align 8, !dbg !2555
  %32 = getelementptr inbounds { i64, i64 }, { i64, i64 }* %_15, i32 0, i32 1, !dbg !2559
  %33 = load i64, i64* %32, align 8, !dbg !2559, !range !1046, !noundef !140
  %34 = sub i64 %33, -9223372036854775807, !dbg !2559
  %35 = icmp eq i64 %34, 0, !dbg !2559
  %_18 = select i1 %35, i64 0, i64 1, !dbg !2559
  switch i64 %_18, label %bb12 [
    i64 0, label %bb13
    i64 1, label %bb11
  ], !dbg !2560

bb8:                                              ; preds = %bb7
; invoke alloc::raw_vec::capacity_overflow
  invoke void @_ZN5alloc7raw_vec17capacity_overflow17hc80d63a780181a5dE() #17
          to label %unreachable unwind label %cleanup, !dbg !2561

unreachable:                                      ; preds = %bb20, %bb11, %bb8
  unreachable

bb12:                                             ; preds = %bb10
  unreachable, !dbg !2559

bb13:                                             ; preds = %bb10
  %36 = load i8, i8* %init, align 1, !dbg !2562, !range !245, !noundef !140
  %37 = trunc i8 %36 to i1, !dbg !2562
  %_21 = zext i1 %37 to i64, !dbg !2562
  switch i64 %_21, label %bb15 [
    i64 0, label %bb16
    i64 1, label %bb14
  ], !dbg !2563

bb11:                                             ; preds = %bb10
; invoke alloc::raw_vec::capacity_overflow
  invoke void @_ZN5alloc7raw_vec17capacity_overflow17hc80d63a780181a5dE() #17
          to label %unreachable unwind label %cleanup, !dbg !2564

bb15:                                             ; preds = %bb13
  unreachable, !dbg !2562

bb16:                                             ; preds = %bb13
; invoke <alloc::alloc::Global as core::alloc::Allocator>::allocate
  %38 = invoke { i8*, i64 } @"_ZN63_$LT$alloc..alloc..Global$u20$as$u20$core..alloc..Allocator$GT$8allocate17h0fb66dc17ec3f176E"(%"alloc::alloc::Global"* align 1 %alloc, i64 %layout.0, i64 %layout.1)
          to label %bb17 unwind label %cleanup, !dbg !2565

bb14:                                             ; preds = %bb13
; invoke <alloc::alloc::Global as core::alloc::Allocator>::allocate_zeroed
  %39 = invoke { i8*, i64 } @"_ZN63_$LT$alloc..alloc..Global$u20$as$u20$core..alloc..Allocator$GT$15allocate_zeroed17h1c4b5b40c04fef75E"(%"alloc::alloc::Global"* align 1 %alloc, i64 %layout.0, i64 %layout.1)
          to label %bb18 unwind label %cleanup, !dbg !2566

bb18:                                             ; preds = %bb14
  store { i8*, i64 } %39, { i8*, i64 }* %result, align 8, !dbg !2566
  br label %bb19, !dbg !2567

bb19:                                             ; preds = %bb17, %bb18
  %40 = bitcast { i8*, i64 }* %result to {}**, !dbg !2568
  %41 = load {}*, {}** %40, align 8, !dbg !2568
  %42 = icmp eq {}* %41, null, !dbg !2568
  %_27 = select i1 %42, i64 1, i64 0, !dbg !2568
  switch i64 %_27, label %bb21 [
    i64 0, label %bb22
    i64 1, label %bb20
  ], !dbg !2569

bb17:                                             ; preds = %bb16
  store { i8*, i64 } %38, { i8*, i64 }* %result, align 8, !dbg !2565
  br label %bb19, !dbg !2570

bb21:                                             ; preds = %bb19
  unreachable, !dbg !2568

bb22:                                             ; preds = %bb19
  %43 = getelementptr inbounds { i8*, i64 }, { i8*, i64 }* %result, i32 0, i32 0, !dbg !2571
  %ptr.0 = load i8*, i8** %43, align 8, !dbg !2571, !nonnull !140, !noundef !140
  %44 = getelementptr inbounds { i8*, i64 }, { i8*, i64 }* %result, i32 0, i32 1, !dbg !2571
  %ptr.1 = load i64, i64* %44, align 8, !dbg !2571
  %45 = getelementptr inbounds { i8*, i64 }, { i8*, i64 }* %ptr.dbg.spill, i32 0, i32 0, !dbg !2571
  store i8* %ptr.0, i8** %45, align 8, !dbg !2571
  %46 = getelementptr inbounds { i8*, i64 }, { i8*, i64 }* %ptr.dbg.spill, i32 0, i32 1, !dbg !2571
  store i64 %ptr.1, i64* %46, align 8, !dbg !2571
  call void @llvm.dbg.declare(metadata { i8*, i64 }* %ptr.dbg.spill, metadata !2530, metadata !DIExpression()), !dbg !2572
  %47 = getelementptr inbounds { i8*, i64 }, { i8*, i64 }* %ptr.dbg.spill2, i32 0, i32 0, !dbg !2573
  store i8* %ptr.0, i8** %47, align 8, !dbg !2573
  %48 = getelementptr inbounds { i8*, i64 }, { i8*, i64 }* %ptr.dbg.spill2, i32 0, i32 1, !dbg !2573
  store i64 %ptr.1, i64* %48, align 8, !dbg !2573
  call void @llvm.dbg.declare(metadata { i8*, i64 }* %ptr.dbg.spill2, metadata !2528, metadata !DIExpression()), !dbg !2574
  %49 = getelementptr inbounds { i8*, i64 }, { i8*, i64 }* %self.dbg.spill, i32 0, i32 0, !dbg !2541
  store i8* %ptr.0, i8** %49, align 8, !dbg !2541
  %50 = getelementptr inbounds { i8*, i64 }, { i8*, i64 }* %self.dbg.spill, i32 0, i32 1, !dbg !2541
  store i64 %ptr.1, i64* %50, align 8, !dbg !2541
  call void @llvm.dbg.declare(metadata { i8*, i64 }* %self.dbg.spill, metadata !2575, metadata !DIExpression()), !dbg !2583
  %51 = getelementptr inbounds { i8*, i64 }, { i8*, i64 }* %self.dbg.spill3, i32 0, i32 0, !dbg !2583
  store i8* %ptr.0, i8** %51, align 8, !dbg !2583
  %52 = getelementptr inbounds { i8*, i64 }, { i8*, i64 }* %self.dbg.spill3, i32 0, i32 1, !dbg !2583
  store i64 %ptr.1, i64* %52, align 8, !dbg !2583
  call void @llvm.dbg.declare(metadata { i8*, i64 }* %self.dbg.spill3, metadata !2584, metadata !DIExpression()), !dbg !2588
  %_41.0 = bitcast i8* %ptr.0 to [0 x i8]*, !dbg !2588
  %ptr = bitcast [0 x i8]* %_41.0 to i32*, !dbg !2583
  store i32* %ptr, i32** %ptr.dbg.spill4, align 8, !dbg !2583
  call void @llvm.dbg.declare(metadata i32** %ptr.dbg.spill4, metadata !2590, metadata !DIExpression()), !dbg !2596
  store i32* %ptr, i32** %self, align 8, !dbg !2596
  %_45 = load i32*, i32** %self, align 8, !dbg !2540
  store i32* %_45, i32** %ptr.dbg.spill5, align 8, !dbg !2540
  call void @llvm.dbg.declare(metadata i32** %ptr.dbg.spill5, metadata !2598, metadata !DIExpression()), !dbg !2604
  store i32* %_45, i32** %ptr.dbg.spill6, align 8, !dbg !2604
  call void @llvm.dbg.declare(metadata i32** %ptr.dbg.spill6, metadata !2606, metadata !DIExpression()), !dbg !2610
  store i32* %_45, i32** %_46, align 8, !dbg !2610
  %53 = load i32*, i32** %_46, align 8, !dbg !2604, !nonnull !140, !noundef !140
  store i32* %53, i32** %_31, align 8, !dbg !2604
  %54 = bitcast { i32*, i64 }* %2 to i32**, !dbg !2612
  %55 = load i32*, i32** %_31, align 8, !dbg !2612, !nonnull !140, !noundef !140
  store i32* %55, i32** %54, align 8, !dbg !2612
  %56 = getelementptr inbounds { i32*, i64 }, { i32*, i64 }* %2, i32 0, i32 1, !dbg !2612
  store i64 %capacity, i64* %56, align 8, !dbg !2612
  %57 = bitcast { i32*, i64 }* %2 to %"alloc::alloc::Global"*, !dbg !2612
  br label %bb23, !dbg !2548

bb20:                                             ; preds = %bb19
; invoke alloc::alloc::handle_alloc_error
  invoke void @_ZN5alloc5alloc18handle_alloc_error17h0eb7a9e63f5042c6E(i64 %layout.0, i64 %layout.1) #17
          to label %unreachable unwind label %cleanup, !dbg !2613

bb24:                                             ; preds = %bb25, %bb26
  %58 = bitcast { i8*, i32 }* %1 to i8**, !dbg !2614
  %59 = load i8*, i8** %58, align 8, !dbg !2614
  %60 = getelementptr inbounds { i8*, i32 }, { i8*, i32 }* %1, i32 0, i32 1, !dbg !2614
  %61 = load i32, i32* %60, align 8, !dbg !2614
  %62 = insertvalue { i8*, i32 } undef, i8* %59, 0, !dbg !2614
  %63 = insertvalue { i8*, i32 } %62, i32 %61, 1, !dbg !2614
  resume { i8*, i32 } %63, !dbg !2614

bb25:                                             ; preds = %bb26
  br label %bb24, !dbg !2547
}

; alloc::raw_vec::RawVec<T,A>::needs_to_grow
; Function Attrs: nonlazybind uwtable
define zeroext i1 @"_ZN5alloc7raw_vec19RawVec$LT$T$C$A$GT$13needs_to_grow17hd3a07ce867a517c5E"({ i32*, i64 }* align 8 %self, i64 %len, i64 %additional) unnamed_addr #1 !dbg !2615 {
start:
  %rhs.dbg.spill = alloca i64, align 8
  %self.dbg.spill2 = alloca { i32*, i64 }*, align 8
  %additional.dbg.spill = alloca i64, align 8
  %len.dbg.spill = alloca i64, align 8
  %self.dbg.spill = alloca { i32*, i64 }*, align 8
  %self1 = alloca i64, align 8
  store { i32*, i64 }* %self, { i32*, i64 }** %self.dbg.spill, align 8
  call void @llvm.dbg.declare(metadata { i32*, i64 }** %self.dbg.spill, metadata !2619, metadata !DIExpression()), !dbg !2622
  store i64 %len, i64* %len.dbg.spill, align 8
  call void @llvm.dbg.declare(metadata i64* %len.dbg.spill, metadata !2620, metadata !DIExpression()), !dbg !2623
  store i64 %additional, i64* %additional.dbg.spill, align 8
  call void @llvm.dbg.declare(metadata i64* %additional.dbg.spill, metadata !2621, metadata !DIExpression()), !dbg !2624
  call void @llvm.dbg.declare(metadata i64* %self1, metadata !2625, metadata !DIExpression()), !dbg !2630
  store { i32*, i64 }* %self, { i32*, i64 }** %self.dbg.spill2, align 8, !dbg !2631
  call void @llvm.dbg.declare(metadata { i32*, i64 }** %self.dbg.spill2, metadata !2632, metadata !DIExpression()), !dbg !2637
  br i1 false, label %bb2, label %bb3, !dbg !2637

bb2:                                              ; preds = %start
  store i64 -1, i64* %self1, align 8, !dbg !2637
  br label %bb1, !dbg !2637

bb3:                                              ; preds = %start
  %0 = getelementptr inbounds { i32*, i64 }, { i32*, i64 }* %self, i32 0, i32 1, !dbg !2637
  %1 = load i64, i64* %0, align 8, !dbg !2637
  store i64 %1, i64* %self1, align 8, !dbg !2637
  br label %bb1, !dbg !2637

bb1:                                              ; preds = %bb2, %bb3
  store i64 %len, i64* %rhs.dbg.spill, align 8, !dbg !2638
  call void @llvm.dbg.declare(metadata i64* %rhs.dbg.spill, metadata !2629, metadata !DIExpression()), !dbg !2630
  %_10 = load i64, i64* %self1, align 8, !dbg !2630
  %_5 = sub i64 %_10, %len, !dbg !2630
  %2 = icmp ugt i64 %additional, %_5, !dbg !2639
  ret i1 %2, !dbg !2640
}

; alloc::raw_vec::RawVec<T,A>::current_memory
; Function Attrs: nonlazybind uwtable
define void @"_ZN5alloc7raw_vec19RawVec$LT$T$C$A$GT$14current_memory17hf4494b29e24149ddE"(%"core::option::Option<(core::ptr::non_null::NonNull<u8>, core::alloc::layout::Layout)>"* sret(%"core::option::Option<(core::ptr::non_null::NonNull<u8>, core::alloc::layout::Layout)>") %0, { i32*, i64 }* align 8 %self) unnamed_addr #1 !dbg !2641 {
start:
  %ptr.dbg.spill = alloca i8*, align 8
  %self.dbg.spill5 = alloca i32*, align 8
  %self.dbg.spill4 = alloca i32*, align 8
  %self.dbg.spill3 = alloca i32*, align 8
  %layout.dbg.spill = alloca { i64, i64 }, align 8
  %t.dbg.spill = alloca { i64, i64 }, align 8
  %self.dbg.spill = alloca { i32*, i64 }*, align 8
  %pointer = alloca i8*, align 8
  %_11 = alloca i8*, align 8
  %_9 = alloca { i8*, { i64, i64 } }, align 8
  %self1 = alloca { i64, i64 }, align 8
  %_2 = alloca i8, align 1
  store { i32*, i64 }* %self, { i32*, i64 }** %self.dbg.spill, align 8
  call void @llvm.dbg.declare(metadata { i32*, i64 }** %self.dbg.spill, metadata !2645, metadata !DIExpression()), !dbg !2648
  call void @llvm.dbg.declare(metadata { i64, i64 }* %self1, metadata !2649, metadata !DIExpression()), !dbg !2658
  call void @llvm.dbg.declare(metadata i8** %pointer, metadata !2660, metadata !DIExpression()), !dbg !2667
  br i1 false, label %bb1, label %bb2, !dbg !2678

bb1:                                              ; preds = %start
  store i8 1, i8* %_2, align 1, !dbg !2678
  br label %bb3, !dbg !2678

bb2:                                              ; preds = %start
  %1 = getelementptr inbounds { i32*, i64 }, { i32*, i64 }* %self, i32 0, i32 1, !dbg !2679
  %_5 = load i64, i64* %1, align 8, !dbg !2679
  %_4 = icmp eq i64 %_5, 0, !dbg !2679
  %2 = zext i1 %_4 to i8, !dbg !2678
  store i8 %2, i8* %_2, align 1, !dbg !2678
  br label %bb3, !dbg !2678

bb3:                                              ; preds = %bb1, %bb2
  %3 = load i8, i8* %_2, align 1, !dbg !2678, !range !245, !noundef !140
  %4 = trunc i8 %3 to i1, !dbg !2678
  br i1 %4, label %bb4, label %bb5, !dbg !2678

bb5:                                              ; preds = %bb3
  %5 = getelementptr inbounds { i32*, i64 }, { i32*, i64 }* %self, i32 0, i32 1, !dbg !2680
  %_8 = load i64, i64* %5, align 8, !dbg !2680
; call core::alloc::layout::Layout::array
  %6 = call { i64, i64 } @_ZN4core5alloc6layout6Layout5array17hacb403b6aba41249E(i64 %_8), !dbg !2659
  store { i64, i64 } %6, { i64, i64 }* %self1, align 8, !dbg !2659
  br label %bb6, !dbg !2659

bb4:                                              ; preds = %bb3
  %7 = getelementptr inbounds %"core::option::Option<(core::ptr::non_null::NonNull<u8>, core::alloc::layout::Layout)>", %"core::option::Option<(core::ptr::non_null::NonNull<u8>, core::alloc::layout::Layout)>"* %0, i32 0, i32 1, !dbg !2681
  store i64 0, i64* %7, align 8, !dbg !2681
  br label %bb8, !dbg !2682

bb8:                                              ; preds = %bb7, %bb4
  ret void, !dbg !2683

bb6:                                              ; preds = %bb5
  %8 = getelementptr inbounds { i64, i64 }, { i64, i64 }* %self1, i32 0, i32 1, !dbg !2658
  %9 = load i64, i64* %8, align 8, !dbg !2658, !range !206, !noundef !140
  %10 = icmp eq i64 %9, 0, !dbg !2658
  %_15 = select i1 %10, i64 1, i64 0, !dbg !2658
  switch i64 %_15, label %bb10 [
    i64 0, label %bb11
    i64 1, label %bb9
  ], !dbg !2658

bb10:                                             ; preds = %bb6
  unreachable, !dbg !2658

bb11:                                             ; preds = %bb6
  %11 = getelementptr inbounds { i64, i64 }, { i64, i64 }* %self1, i32 0, i32 0, !dbg !2658
  %t.0 = load i64, i64* %11, align 8, !dbg !2658
  %12 = getelementptr inbounds { i64, i64 }, { i64, i64 }* %self1, i32 0, i32 1, !dbg !2658
  %t.1 = load i64, i64* %12, align 8, !dbg !2658, !range !645, !noundef !140
  %13 = getelementptr inbounds { i64, i64 }, { i64, i64 }* %t.dbg.spill, i32 0, i32 0, !dbg !2658
  store i64 %t.0, i64* %13, align 8, !dbg !2658
  %14 = getelementptr inbounds { i64, i64 }, { i64, i64 }* %t.dbg.spill, i32 0, i32 1, !dbg !2658
  store i64 %t.1, i64* %14, align 8, !dbg !2658
  call void @llvm.dbg.declare(metadata { i64, i64 }* %t.dbg.spill, metadata !2655, metadata !DIExpression()), !dbg !2684
  %15 = getelementptr inbounds { i64, i64 }, { i64, i64 }* %layout.dbg.spill, i32 0, i32 0, !dbg !2684
  store i64 %t.0, i64* %15, align 8, !dbg !2684
  %16 = getelementptr inbounds { i64, i64 }, { i64, i64 }* %layout.dbg.spill, i32 0, i32 1, !dbg !2684
  store i64 %t.1, i64* %16, align 8, !dbg !2684
  call void @llvm.dbg.declare(metadata { i64, i64 }* %layout.dbg.spill, metadata !2646, metadata !DIExpression()), !dbg !2685
  %17 = bitcast { i32*, i64 }* %self to i32**, !dbg !2677
  %self2 = load i32*, i32** %17, align 8, !dbg !2677, !nonnull !140, !noundef !140
  store i32* %self2, i32** %self.dbg.spill3, align 8, !dbg !2677
  call void @llvm.dbg.declare(metadata i32** %self.dbg.spill3, metadata !2673, metadata !DIExpression()), !dbg !2686
  store i32* %self2, i32** %self.dbg.spill4, align 8, !dbg !2686
  call void @llvm.dbg.declare(metadata i32** %self.dbg.spill4, metadata !2687, metadata !DIExpression()), !dbg !2693
  store i32* %self2, i32** %self.dbg.spill5, align 8, !dbg !2693
  call void @llvm.dbg.declare(metadata i32** %self.dbg.spill5, metadata !2695, metadata !DIExpression()), !dbg !2699
  %ptr = bitcast i32* %self2 to i8*, !dbg !2693
  store i8* %ptr, i8** %ptr.dbg.spill, align 8, !dbg !2693
  call void @llvm.dbg.declare(metadata i8** %ptr.dbg.spill, metadata !2701, metadata !DIExpression()), !dbg !2705
  store i8* %ptr, i8** %pointer, align 8, !dbg !2705
  %_26 = load i8*, i8** %pointer, align 8, !dbg !2667, !nonnull !140, !noundef !140
  store i8* %_26, i8** %_11, align 8, !dbg !2667
  %18 = load i8*, i8** %_11, align 8, !dbg !2677, !nonnull !140, !noundef !140
; call <T as core::convert::Into<U>>::into
  %_10 = call i8* @"_ZN50_$LT$T$u20$as$u20$core..convert..Into$LT$U$GT$$GT$4into17h9dd4420d8f9307edE"(i8* %18), !dbg !2677
  br label %bb7, !dbg !2677

bb9:                                              ; preds = %bb6
  unreachable, !dbg !2707

bb7:                                              ; preds = %bb11
  %19 = bitcast { i8*, { i64, i64 } }* %_9 to i8**, !dbg !2715
  store i8* %_10, i8** %19, align 8, !dbg !2715
  %20 = getelementptr inbounds { i8*, { i64, i64 } }, { i8*, { i64, i64 } }* %_9, i32 0, i32 1, !dbg !2715
  %21 = getelementptr inbounds { i64, i64 }, { i64, i64 }* %20, i32 0, i32 0, !dbg !2715
  store i64 %t.0, i64* %21, align 8, !dbg !2715
  %22 = getelementptr inbounds { i64, i64 }, { i64, i64 }* %20, i32 0, i32 1, !dbg !2715
  store i64 %t.1, i64* %22, align 8, !dbg !2715
  %23 = bitcast %"core::option::Option<(core::ptr::non_null::NonNull<u8>, core::alloc::layout::Layout)>"* %0 to %"core::option::Option<(core::ptr::non_null::NonNull<u8>, core::alloc::layout::Layout)>::Some"*, !dbg !2716
  %24 = bitcast %"core::option::Option<(core::ptr::non_null::NonNull<u8>, core::alloc::layout::Layout)>::Some"* %23 to { i8*, { i64, i64 } }*, !dbg !2716
  %25 = bitcast { i8*, { i64, i64 } }* %24 to i8*, !dbg !2716
  %26 = bitcast { i8*, { i64, i64 } }* %_9 to i8*, !dbg !2716
  call void @llvm.memcpy.p0i8.p0i8.i64(i8* align 8 %25, i8* align 8 %26, i64 24, i1 false), !dbg !2716
  br label %bb8, !dbg !2682
}

; alloc::raw_vec::RawVec<T,A>::grow_amortized
; Function Attrs: nonlazybind uwtable
define { i64, i64 } @"_ZN5alloc7raw_vec19RawVec$LT$T$C$A$GT$14grow_amortized17h1f74a417d8ab45c3E"({ i32*, i64 }* align 8 %self, i64 %len, i64 %additional) unnamed_addr #1 !dbg !2717 {
start:
  %ptr.dbg.spill = alloca { i8*, i64 }, align 8
  %val.dbg.spill24 = alloca { i8*, i64 }, align 8
  %e.dbg.spill23 = alloca { i64, i64 }, align 8
  %residual.dbg.spill20 = alloca { i64, i64 }, align 8
  %v.dbg.spill17 = alloca { i8*, i64 }, align 8
  %e.dbg.spill16 = alloca { i64, i64 }, align 8
  %new_layout.dbg.spill = alloca { i64, i64 }, align 8
  %cap.dbg.spill13 = alloca i64, align 8
  %v1.dbg.spill11 = alloca i64, align 8
  %v2.dbg.spill10 = alloca i64, align 8
  %cap.dbg.spill = alloca i64, align 8
  %v2.dbg.spill = alloca i64, align 8
  %v1.dbg.spill = alloca i64, align 8
  %required_cap.dbg.spill = alloca i64, align 8
  %val.dbg.spill = alloca i64, align 8
  %kind.dbg.spill = alloca { i64, i64 }, align 8
  %e.dbg.spill9 = alloca { i64, i64 }, align 8
  %residual.dbg.spill = alloca { i64, i64 }, align 8
  %v.dbg.spill6 = alloca i64, align 8
  %e.dbg.spill = alloca { i64, i64 }, align 8
  %v.dbg.spill = alloca i64, align 8
  %additional.dbg.spill = alloca i64, align 8
  %len.dbg.spill = alloca i64, align 8
  %self.dbg.spill = alloca { i32*, i64 }*, align 8
  %_65 = alloca { i64, i64 }, align 8
  %_55 = alloca { i64, i64 }, align 8
  %_50 = alloca { i64, i64 }, align 8
  %residual4 = alloca { i64, i64 }, align 8
  %_30 = alloca %"core::option::Option<(core::ptr::non_null::NonNull<u8>, core::alloc::layout::Layout)>", align 8
  %self3 = alloca %"core::result::Result<core::ptr::non_null::NonNull<[u8]>, alloc::collections::TryReserveError>", align 8
  %_27 = alloca %"core::ops::control_flow::ControlFlow<core::result::Result<core::convert::Infallible, alloc::collections::TryReserveError>, core::ptr::non_null::NonNull<[u8]>>", align 8
  %residual = alloca { i64, i64 }, align 8
  %err = alloca { i64, i64 }, align 8
  %self2 = alloca { i64, i64 }, align 8
  %self1 = alloca %"core::result::Result<usize, alloc::collections::TryReserveErrorKind>", align 8
