; ModuleID = '378r416i0mi3tton'
source_filename = "378r416i0mi3tton"
target datalayout = "e-m:e-p270:32:32-p271:32:32-p272:64:64-i64:64-f80:128-n8:16:32:64-S128"
target triple = "x86_64-unknown-linux-gnu"

%"core::fmt::Formatter" = type { { i64, i64 }, { i64, i64 }, { {}*, [3 x i64]* }, i32, i32, i8, [7 x i8] }
%"core::fmt::builders::DebugList" = type { %"core::fmt::builders::DebugInner" }
%"core::fmt::builders::DebugInner" = type { %"core::fmt::Formatter"*, i8, i8, [6 x i8] }
%"core::fmt::Arguments" = type { { [0 x { [0 x i8]*, i64 }]*, i64 }, { i64*, i64 }, { [0 x { i8*, i64* }]*, i64 } }
%"core::panic::location::Location" = type { { [0 x i8]*, i64 }, i32, i32 }
%"[closure@src/test_conditionals.rs:62:1: 74:2]" = type {}
%"[closure@src/test_conditionals.rs:86:1: 93:2]" = type {}
%"[closure@src/test_conditionals.rs:45:1: 59:2]" = type {}
%"[closure@src/test_conditionals.rs:30:1: 42:2]" = type {}
%"[closure@src/test_conditionals.rs:77:1: 83:2]" = type {}
%"conditionals::py_flag" = type { i32 }
%"core::ptr::metadata::PtrComponents<u8>" = type { {}*, {} }
%"core::ptr::metadata::PtrRepr<u8>" = type { [1 x i64] }
%"core::ops::range::RangeFull" = type {}
%"core::option::Option<core::fmt::Arguments>" = type { {}*, [5 x i64] }
%"core::fmt::Opaque" = type {}
%"core::option::Option<core::fmt::Arguments>::Some" = type { %"core::fmt::Arguments" }
%"test::types::TestDescAndFn" = type { %"test::types::TestDesc", %"test::types::TestFn" }
%"test::types::TestDesc" = type { %"test::types::TestName", { i8*, i64 }, %"test::options::ShouldPanic", i8, i8, i8, i8, [4 x i8] }
%"test::types::TestName" = type { i8, [39 x i8] }
%"test::options::ShouldPanic" = type { i64, [2 x i64] }
%"test::types::TestFn" = type { i64, [2 x i64] }
%"unwind::libunwind::_Unwind_Exception" = type { i64, void (i32, %"unwind::libunwind::_Unwind_Exception"*)*, [6 x i64] }
%"unwind::libunwind::_Unwind_Context" = type { [0 x i8] }

@vtable.0 = private unnamed_addr constant <{ i8*, [16 x i8], i8*, i8*, i8* }> <{ i8* bitcast (void (i64**)* @"_ZN4core3ptr85drop_in_place$LT$std..rt..lang_start$LT$$LP$$RP$$GT$..$u7b$$u7b$closure$u7d$$u7d$$GT$17hfb6e525a6d2548beE" to i8*), [16 x i8] c"\08\00\00\00\00\00\00\00\08\00\00\00\00\00\00\00", i8* bitcast (i32 (i64**)* @"_ZN4core3ops8function6FnOnce40call_once$u7b$$u7b$vtable.shim$u7d$$u7d$17hc9194a37c1bc38d6E" to i8*), i8* bitcast (i32 (i64**)* @"_ZN3std2rt10lang_start28_$u7b$$u7b$closure$u7d$$u7d$17h56248eaae24c6fabE" to i8*), i8* bitcast (i32 (i64**)* @"_ZN3std2rt10lang_start28_$u7b$$u7b$closure$u7d$$u7d$17h56248eaae24c6fabE" to i8*) }>, align 8, !dbg !0
@vtable.1 = private unnamed_addr constant <{ i8*, [16 x i8], i8* }> <{ i8* bitcast (void (i32**)* @"_ZN4core3ptr28drop_in_place$LT$$RF$i32$GT$17h902ef99a76185d1bE" to i8*), [16 x i8] c"\08\00\00\00\00\00\00\00\08\00\00\00\00\00\00\00", i8* bitcast (i1 (i32**, %"core::fmt::Formatter"*)* @"_ZN42_$LT$$RF$T$u20$as$u20$core..fmt..Debug$GT$3fmt17hab96ff80dd06d362E" to i8*) }>, align 8, !dbg !24
@alloc128 = private unnamed_addr constant <{ [12 x i8] }> <{ [12 x i8] c"invalid args" }>, align 1
@alloc129 = private unnamed_addr constant <{ i8*, [8 x i8] }> <{ i8* getelementptr inbounds (<{ [12 x i8] }>, <{ [12 x i8] }>* @alloc128, i32 0, i32 0, i32 0), [8 x i8] c"\0C\00\00\00\00\00\00\00" }>, align 8
@alloc131 = private unnamed_addr constant <{}> zeroinitializer, align 8
@alloc270 = private unnamed_addr constant <{ [75 x i8] }> <{ [75 x i8] c"/rustc/d394408fb38c4de61f765a3ed5189d2731a1da91/library/core/src/fmt/mod.rs" }>, align 1
@alloc271 = private unnamed_addr constant <{ i8*, [16 x i8] }> <{ i8* getelementptr inbounds (<{ [75 x i8] }>, <{ [75 x i8] }>* @alloc270, i32 0, i32 0, i32 0), [16 x i8] c"K\00\00\00\00\00\00\00\88\01\00\00\0D\00\00\00" }>, align 8
@vtable.2 = private unnamed_addr constant <{ i8*, [16 x i8], i8* }> <{ i8* bitcast (void ([6 x i32]**)* @"_ZN4core3ptr49drop_in_place$LT$$RF$$u5b$i32$u3b$$u20$6$u5d$$GT$17h41612eb19462b473E" to i8*), [16 x i8] c"\08\00\00\00\00\00\00\00\08\00\00\00\00\00\00\00", i8* bitcast (i1 ([6 x i32]**, %"core::fmt::Formatter"*)* @"_ZN42_$LT$$RF$T$u20$as$u20$core..fmt..Debug$GT$3fmt17h4ba92788ccbc07aaE" to i8*) }>, align 8, !dbg !34
@vtable.3 = private unnamed_addr constant <{ i8*, [16 x i8], i8* }> <{ i8* bitcast (void ([30 x i32]**)* @"_ZN4core3ptr50drop_in_place$LT$$RF$$u5b$i32$u3b$$u20$30$u5d$$GT$17h59c77ffe7fc654d4E" to i8*), [16 x i8] c"\08\00\00\00\00\00\00\00\08\00\00\00\00\00\00\00", i8* bitcast (i1 ([30 x i32]**, %"core::fmt::Formatter"*)* @"_ZN42_$LT$$RF$T$u20$as$u20$core..fmt..Debug$GT$3fmt17hd9469653db74ea63E" to i8*) }>, align 8, !dbg !46
@vtable.4 = private unnamed_addr constant <{ i8*, [16 x i8], i8* }> <{ i8* bitcast (void ([4 x i32]**)* @"_ZN4core3ptr49drop_in_place$LT$$RF$$u5b$i32$u3b$$u20$4$u5d$$GT$17h8cd2f2f85c518c1cE" to i8*), [16 x i8] c"\08\00\00\00\00\00\00\00\08\00\00\00\00\00\00\00", i8* bitcast (i1 ([4 x i32]**, %"core::fmt::Formatter"*)* @"_ZN42_$LT$$RF$T$u20$as$u20$core..fmt..Debug$GT$3fmt17hb6aeae75fec05ac2E" to i8*) }>, align 8, !dbg !58
@alloc117 = private unnamed_addr constant <{ [4 x i8] }> zeroinitializer, align 4
@alloc119 = private unnamed_addr constant <{ [67 x i8] }> <{ [67 x i8] c"the test returned a termination value with a non-zero status code (" }>, align 1
@alloc121 = private unnamed_addr constant <{ [27 x i8] }> <{ [27 x i8] c") which indicates a failure" }>, align 1
@alloc120 = private unnamed_addr constant <{ i8*, [8 x i8], i8*, [8 x i8] }> <{ i8* getelementptr inbounds (<{ [67 x i8] }>, <{ [67 x i8] }>* @alloc119, i32 0, i32 0, i32 0), [8 x i8] c"C\00\00\00\00\00\00\00", i8* getelementptr inbounds (<{ [27 x i8] }>, <{ [27 x i8] }>* @alloc121, i32 0, i32 0, i32 0), [8 x i8] c"\1B\00\00\00\00\00\00\00" }>, align 8
@alloc281 = private unnamed_addr constant <{ [71 x i8] }> <{ [71 x i8] c"/rustc/d394408fb38c4de61f765a3ed5189d2731a1da91/library/test/src/lib.rs" }>, align 1
@alloc282 = private unnamed_addr constant <{ i8*, [16 x i8] }> <{ i8* getelementptr inbounds (<{ [71 x i8] }>, <{ [71 x i8] }>* @alloc281, i32 0, i32 0, i32 0), [16 x i8] c"G\00\00\00\00\00\00\00\B8\00\00\00\05\00\00\00" }>, align 8
@alloc317 = private unnamed_addr constant <{ [19 x i8] }> <{ [19 x i8] c"src/conditionals.rs" }>, align 1
@alloc284 = private unnamed_addr constant <{ i8*, [16 x i8] }> <{ i8* getelementptr inbounds (<{ [19 x i8] }>, <{ [19 x i8] }>* @alloc317, i32 0, i32 0, i32 0), [16 x i8] c"\13\00\00\00\00\00\00\00\1E\00\00\00\0D\00\00\00" }>, align 8
@str.5 = internal constant [28 x i8] c"attempt to add with overflow"
@alloc286 = private unnamed_addr constant <{ i8*, [16 x i8] }> <{ i8* getelementptr inbounds (<{ [19 x i8] }>, <{ [19 x i8] }>* @alloc317, i32 0, i32 0, i32 0), [16 x i8] c"\13\00\00\00\00\00\00\00#\00\00\00\0D\00\00\00" }>, align 8
@alloc288 = private unnamed_addr constant <{ i8*, [16 x i8] }> <{ i8* getelementptr inbounds (<{ [19 x i8] }>, <{ [19 x i8] }>* @alloc317, i32 0, i32 0, i32 0), [16 x i8] c"\13\00\00\00\00\00\00\00(\00\00\00\0D\00\00\00" }>, align 8
@alloc290 = private unnamed_addr constant <{ i8*, [16 x i8] }> <{ i8* getelementptr inbounds (<{ [19 x i8] }>, <{ [19 x i8] }>* @alloc317, i32 0, i32 0, i32 0), [16 x i8] c"\13\00\00\00\00\00\00\00-\00\00\00\0D\00\00\00" }>, align 8
@alloc292 = private unnamed_addr constant <{ i8*, [16 x i8] }> <{ i8* getelementptr inbounds (<{ [19 x i8] }>, <{ [19 x i8] }>* @alloc317, i32 0, i32 0, i32 0), [16 x i8] c"\13\00\00\00\00\00\00\001\00\00\00\09\00\00\00" }>, align 8
@alloc294 = private unnamed_addr constant <{ i8*, [16 x i8] }> <{ i8* getelementptr inbounds (<{ [19 x i8] }>, <{ [19 x i8] }>* @alloc317, i32 0, i32 0, i32 0), [16 x i8] c"\13\00\00\00\00\00\00\004\00\00\00\09\00\00\00" }>, align 8
@alloc296 = private unnamed_addr constant <{ i8*, [16 x i8] }> <{ i8* getelementptr inbounds (<{ [19 x i8] }>, <{ [19 x i8] }>* @alloc317, i32 0, i32 0, i32 0), [16 x i8] c"\13\00\00\00\00\00\00\00;\00\00\00\0D\00\00\00" }>, align 8
@alloc298 = private unnamed_addr constant <{ i8*, [16 x i8] }> <{ i8* getelementptr inbounds (<{ [19 x i8] }>, <{ [19 x i8] }>* @alloc317, i32 0, i32 0, i32 0), [16 x i8] c"\13\00\00\00\00\00\00\00@\00\00\00\0D\00\00\00" }>, align 8
@alloc300 = private unnamed_addr constant <{ i8*, [16 x i8] }> <{ i8* getelementptr inbounds (<{ [19 x i8] }>, <{ [19 x i8] }>* @alloc317, i32 0, i32 0, i32 0), [16 x i8] c"\13\00\00\00\00\00\00\00E\00\00\00\0D\00\00\00" }>, align 8
@alloc302 = private unnamed_addr constant <{ i8*, [16 x i8] }> <{ i8* getelementptr inbounds (<{ [19 x i8] }>, <{ [19 x i8] }>* @alloc317, i32 0, i32 0, i32 0), [16 x i8] c"\13\00\00\00\00\00\00\00J\00\00\00\0D\00\00\00" }>, align 8
@alloc304 = private unnamed_addr constant <{ i8*, [16 x i8] }> <{ i8* getelementptr inbounds (<{ [19 x i8] }>, <{ [19 x i8] }>* @alloc317, i32 0, i32 0, i32 0), [16 x i8] c"\13\00\00\00\00\00\00\00O\00\00\00\0D\00\00\00" }>, align 8
@alloc306 = private unnamed_addr constant <{ i8*, [16 x i8] }> <{ i8* getelementptr inbounds (<{ [19 x i8] }>, <{ [19 x i8] }>* @alloc317, i32 0, i32 0, i32 0), [16 x i8] c"\13\00\00\00\00\00\00\00T\00\00\00\0D\00\00\00" }>, align 8
@alloc308 = private unnamed_addr constant <{ i8*, [16 x i8] }> <{ i8* getelementptr inbounds (<{ [19 x i8] }>, <{ [19 x i8] }>* @alloc317, i32 0, i32 0, i32 0), [16 x i8] c"\13\00\00\00\00\00\00\00Y\00\00\00\0D\00\00\00" }>, align 8
@alloc310 = private unnamed_addr constant <{ i8*, [16 x i8] }> <{ i8* getelementptr inbounds (<{ [19 x i8] }>, <{ [19 x i8] }>* @alloc317, i32 0, i32 0, i32 0), [16 x i8] c"\13\00\00\00\00\00\00\00^\00\00\00\0D\00\00\00" }>, align 8
@alloc312 = private unnamed_addr constant <{ i8*, [16 x i8] }> <{ i8* getelementptr inbounds (<{ [19 x i8] }>, <{ [19 x i8] }>* @alloc317, i32 0, i32 0, i32 0), [16 x i8] c"\13\00\00\00\00\00\00\00c\00\00\00\0D\00\00\00" }>, align 8
@alloc314 = private unnamed_addr constant <{ i8*, [16 x i8] }> <{ i8* getelementptr inbounds (<{ [19 x i8] }>, <{ [19 x i8] }>* @alloc317, i32 0, i32 0, i32 0), [16 x i8] c"\13\00\00\00\00\00\00\00h\00\00\00\0D\00\00\00" }>, align 8
@rust_abc = global <{ [4 x i8] }> zeroinitializer, align 4, !dbg !70
@rust_def = global <{ [4 x i8] }> zeroinitializer, align 4, !dbg !75
@rust_hij = global <{ [4 x i8] }> zeroinitializer, align 4, !dbg !77
@alloc316 = private unnamed_addr constant <{ i8*, [16 x i8] }> <{ i8* getelementptr inbounds (<{ [19 x i8] }>, <{ [19 x i8] }>* @alloc317, i32 0, i32 0, i32 0), [16 x i8] c"\13\00\00\00\00\00\00\00\8C\00\00\00\09\00\00\00" }>, align 8
@alloc318 = private unnamed_addr constant <{ i8*, [16 x i8] }> <{ i8* getelementptr inbounds (<{ [19 x i8] }>, <{ [19 x i8] }>* @alloc317, i32 0, i32 0, i32 0), [16 x i8] c"\13\00\00\00\00\00\00\00\B4\00\00\00\10\00\00\00" }>, align 8
@_ZN17conditional_tests12conditionals10INIT_ARRAY17h1f442a4add430111E = internal constant <{ i8* }> <{ i8* bitcast (void ()* @_ZN17conditional_tests12conditionals23run_static_initializers17hbca4cb0c80cda66cE to i8*) }>, section ".init_array", align 8, !dbg !79
@alloc319 = private unnamed_addr constant <{ [25 x i8] }> <{ [25 x i8] c"src/binary_conditional.rs" }>, align 1
@alloc320 = private unnamed_addr constant <{ i8*, [16 x i8] }> <{ i8* getelementptr inbounds (<{ [25 x i8] }>, <{ [25 x i8] }>* @alloc319, i32 0, i32 0, i32 0), [16 x i8] c"\19\00\00\00\00\00\00\00\12\00\00\00\05\00\00\00" }>, align 8
@alloc345 = private unnamed_addr constant <{ [24 x i8] }> <{ [24 x i8] c"src/test_conditionals.rs" }>, align 1
@alloc322 = private unnamed_addr constant <{ i8*, [16 x i8] }> <{ i8* getelementptr inbounds (<{ [24 x i8] }>, <{ [24 x i8] }>* @alloc345, i32 0, i32 0, i32 0), [16 x i8] c"\18\00\00\00\00\00\00\00(\00\00\00\05\00\00\00" }>, align 8
@alloc324 = private unnamed_addr constant <{ i8*, [16 x i8] }> <{ i8* getelementptr inbounds (<{ [24 x i8] }>, <{ [24 x i8] }>* @alloc345, i32 0, i32 0, i32 0), [16 x i8] c"\18\00\00\00\00\00\00\00)\00\00\00\05\00\00\00" }>, align 8
@alloc326 = private unnamed_addr constant <{ i8*, [16 x i8] }> <{ i8* getelementptr inbounds (<{ [24 x i8] }>, <{ [24 x i8] }>* @alloc345, i32 0, i32 0, i32 0), [16 x i8] c"\18\00\00\00\00\00\00\009\00\00\00\05\00\00\00" }>, align 8
@alloc328 = private unnamed_addr constant <{ i8*, [16 x i8] }> <{ i8* getelementptr inbounds (<{ [24 x i8] }>, <{ [24 x i8] }>* @alloc345, i32 0, i32 0, i32 0), [16 x i8] c"\18\00\00\00\00\00\00\00:\00\00\00\05\00\00\00" }>, align 8
@alloc330 = private unnamed_addr constant <{ i8*, [16 x i8] }> <{ i8* getelementptr inbounds (<{ [24 x i8] }>, <{ [24 x i8] }>* @alloc345, i32 0, i32 0, i32 0), [16 x i8] c"\18\00\00\00\00\00\00\00H\00\00\00\05\00\00\00" }>, align 8
@alloc332 = private unnamed_addr constant <{ i8*, [16 x i8] }> <{ i8* getelementptr inbounds (<{ [24 x i8] }>, <{ [24 x i8] }>* @alloc345, i32 0, i32 0, i32 0), [16 x i8] c"\18\00\00\00\00\00\00\00I\00\00\00\05\00\00\00" }>, align 8
@alloc334 = private unnamed_addr constant <{ i8*, [16 x i8] }> <{ i8* getelementptr inbounds (<{ [24 x i8] }>, <{ [24 x i8] }>* @alloc345, i32 0, i32 0, i32 0), [16 x i8] c"\18\00\00\00\00\00\00\00O\00\00\00\09\00\00\00" }>, align 8
@alloc336 = private unnamed_addr constant <{ i8*, [16 x i8] }> <{ i8* getelementptr inbounds (<{ [24 x i8] }>, <{ [24 x i8] }>* @alloc345, i32 0, i32 0, i32 0), [16 x i8] c"\18\00\00\00\00\00\00\00P\00\00\00\09\00\00\00" }>, align 8
@alloc338 = private unnamed_addr constant <{ i8*, [16 x i8] }> <{ i8* getelementptr inbounds (<{ [24 x i8] }>, <{ [24 x i8] }>* @alloc345, i32 0, i32 0, i32 0), [16 x i8] c"\18\00\00\00\00\00\00\00Q\00\00\00\09\00\00\00" }>, align 8
@alloc340 = private unnamed_addr constant <{ i8*, [16 x i8] }> <{ i8* getelementptr inbounds (<{ [24 x i8] }>, <{ [24 x i8] }>* @alloc345, i32 0, i32 0, i32 0), [16 x i8] c"\18\00\00\00\00\00\00\00X\00\00\00\09\00\00\00" }>, align 8
@alloc342 = private unnamed_addr constant <{ i8*, [16 x i8] }> <{ i8* getelementptr inbounds (<{ [24 x i8] }>, <{ [24 x i8] }>* @alloc345, i32 0, i32 0, i32 0), [16 x i8] c"\18\00\00\00\00\00\00\00Y\00\00\00\09\00\00\00" }>, align 8
@alloc344 = private unnamed_addr constant <{ i8*, [16 x i8] }> <{ i8* getelementptr inbounds (<{ [24 x i8] }>, <{ [24 x i8] }>* @alloc345, i32 0, i32 0, i32 0), [16 x i8] c"\18\00\00\00\00\00\00\00Z\00\00\00\09\00\00\00" }>, align 8
@alloc346 = private unnamed_addr constant <{ i8*, [16 x i8] }> <{ i8* getelementptr inbounds (<{ [24 x i8] }>, <{ [24 x i8] }>* @alloc345, i32 0, i32 0, i32 0), [16 x i8] c"\18\00\00\00\00\00\00\00[\00\00\00\09\00\00\00" }>, align 8
@alloc21 = private unnamed_addr constant <{ [30 x i8] }> <{ [30 x i8] c"test_conditionals::test_buffer" }>, align 1
@alloc238 = private unnamed_addr constant <{ [1 x i8], [7 x i8], i8*, [8 x i8], [16 x i8], [8 x i8], [8 x i8], [8 x i8], [16 x i8], [4 x i8], [4 x i8], [8 x i8], i8*, [8 x i8] }> <{ [1 x i8] zeroinitializer, [7 x i8] undef, i8* getelementptr inbounds (<{ [30 x i8] }>, <{ [30 x i8] }>* @alloc21, i32 0, i32 0, i32 0), [8 x i8] c"\1E\00\00\00\00\00\00\00", [16 x i8] undef, [8 x i8] zeroinitializer, [8 x i8] undef, [8 x i8] zeroinitializer, [16 x i8] undef, [4 x i8] zeroinitializer, [4 x i8] undef, [8 x i8] zeroinitializer, i8* bitcast (void ()* @_ZN4core3ops8function6FnOnce9call_once17hf46fb3a7b6d671f2E to i8*), [8 x i8] undef }>, align 8
@alloc31 = private unnamed_addr constant <{ [31 x i8] }> <{ [31 x i8] c"test_conditionals::test_buffer2" }>, align 1
@alloc239 = private unnamed_addr constant <{ [1 x i8], [7 x i8], i8*, [8 x i8], [16 x i8], [8 x i8], [8 x i8], [8 x i8], [16 x i8], [4 x i8], [4 x i8], [8 x i8], i8*, [8 x i8] }> <{ [1 x i8] zeroinitializer, [7 x i8] undef, i8* getelementptr inbounds (<{ [31 x i8] }>, <{ [31 x i8] }>* @alloc31, i32 0, i32 0, i32 0), [8 x i8] c"\1F\00\00\00\00\00\00\00", [16 x i8] undef, [8 x i8] zeroinitializer, [8 x i8] undef, [8 x i8] zeroinitializer, [16 x i8] undef, [4 x i8] zeroinitializer, [4 x i8] undef, [8 x i8] zeroinitializer, i8* bitcast (void ()* @_ZN4core3ops8function6FnOnce9call_once17h5645bfeebb5e2baeE to i8*), [8 x i8] undef }>, align 8
@alloc41 = private unnamed_addr constant <{ [43 x i8] }> <{ [43 x i8] c"test_conditionals::test_binary_conditionals" }>, align 1
@alloc240 = private unnamed_addr constant <{ [1 x i8], [7 x i8], i8*, [8 x i8], [16 x i8], [8 x i8], [8 x i8], [8 x i8], [16 x i8], [4 x i8], [4 x i8], [8 x i8], i8*, [8 x i8] }> <{ [1 x i8] zeroinitializer, [7 x i8] undef, i8* getelementptr inbounds (<{ [43 x i8] }>, <{ [43 x i8] }>* @alloc41, i32 0, i32 0, i32 0), [8 x i8] c"+\00\00\00\00\00\00\00", [16 x i8] undef, [8 x i8] zeroinitializer, [8 x i8] undef, [8 x i8] zeroinitializer, [16 x i8] undef, [4 x i8] zeroinitializer, [4 x i8] undef, [8 x i8] zeroinitializer, i8* bitcast (void ()* @_ZN4core3ops8function6FnOnce9call_once17h23f74013fac2eec4E to i8*), [8 x i8] undef }>, align 8
@alloc51 = private unnamed_addr constant <{ [42 x i8] }> <{ [42 x i8] c"test_conditionals::test_unused_conditional" }>, align 1
@alloc241 = private unnamed_addr constant <{ [1 x i8], [7 x i8], i8*, [8 x i8], [16 x i8], [8 x i8], [8 x i8], [8 x i8], [16 x i8], [4 x i8], [4 x i8], [8 x i8], i8*, [8 x i8] }> <{ [1 x i8] zeroinitializer, [7 x i8] undef, i8* getelementptr inbounds (<{ [42 x i8] }>, <{ [42 x i8] }>* @alloc51, i32 0, i32 0, i32 0), [8 x i8] c"*\00\00\00\00\00\00\00", [16 x i8] undef, [8 x i8] zeroinitializer, [8 x i8] undef, [8 x i8] zeroinitializer, [16 x i8] undef, [4 x i8] zeroinitializer, [4 x i8] undef, [8 x i8] zeroinitializer, i8* bitcast (void ()* @_ZN4core3ops8function6FnOnce9call_once17hf664fea4da24098fE to i8*), [8 x i8] undef }>, align 8
@alloc61 = private unnamed_addr constant <{ [37 x i8] }> <{ [37 x i8] c"test_conditionals::test_else_if_chain" }>, align 1
@alloc242 = private unnamed_addr constant <{ [1 x i8], [7 x i8], i8*, [8 x i8], [16 x i8], [8 x i8], [8 x i8], [8 x i8], [16 x i8], [4 x i8], [4 x i8], [8 x i8], i8*, [8 x i8] }> <{ [1 x i8] zeroinitializer, [7 x i8] undef, i8* getelementptr inbounds (<{ [37 x i8] }>, <{ [37 x i8] }>* @alloc61, i32 0, i32 0, i32 0), [8 x i8] c"%\00\00\00\00\00\00\00", [16 x i8] undef, [8 x i8] zeroinitializer, [8 x i8] undef, [8 x i8] zeroinitializer, [16 x i8] undef, [4 x i8] zeroinitializer, [4 x i8] undef, [8 x i8] zeroinitializer, i8* bitcast (void ()* @_ZN4core3ops8function6FnOnce9call_once17h5347e9b2532e937fE to i8*), [8 x i8] undef }>, align 8
@alloc243 = private unnamed_addr constant <{ i8*, i8*, i8*, i8*, i8* }> <{ i8* getelementptr inbounds (<{ [1 x i8], [7 x i8], i8*, [8 x i8], [16 x i8], [8 x i8], [8 x i8], [8 x i8], [16 x i8], [4 x i8], [4 x i8], [8 x i8], i8*, [8 x i8] }>, <{ [1 x i8], [7 x i8], i8*, [8 x i8], [16 x i8], [8 x i8], [8 x i8], [8 x i8], [16 x i8], [4 x i8], [4 x i8], [8 x i8], i8*, [8 x i8] }>* @alloc238, i32 0, i32 0, i32 0), i8* getelementptr inbounds (<{ [1 x i8], [7 x i8], i8*, [8 x i8], [16 x i8], [8 x i8], [8 x i8], [8 x i8], [16 x i8], [4 x i8], [4 x i8], [8 x i8], i8*, [8 x i8] }>, <{ [1 x i8], [7 x i8], i8*, [8 x i8], [16 x i8], [8 x i8], [8 x i8], [8 x i8], [16 x i8], [4 x i8], [4 x i8], [8 x i8], i8*, [8 x i8] }>* @alloc239, i32 0, i32 0, i32 0), i8* getelementptr inbounds (<{ [1 x i8], [7 x i8], i8*, [8 x i8], [16 x i8], [8 x i8], [8 x i8], [8 x i8], [16 x i8], [4 x i8], [4 x i8], [8 x i8], i8*, [8 x i8] }>, <{ [1 x i8], [7 x i8], i8*, [8 x i8], [16 x i8], [8 x i8], [8 x i8], [8 x i8], [16 x i8], [4 x i8], [4 x i8], [8 x i8], i8*, [8 x i8] }>* @alloc240, i32 0, i32 0, i32 0), i8* getelementptr inbounds (<{ [1 x i8], [7 x i8], i8*, [8 x i8], [16 x i8], [8 x i8], [8 x i8], [8 x i8], [16 x i8], [4 x i8], [4 x i8], [8 x i8], i8*, [8 x i8] }>, <{ [1 x i8], [7 x i8], i8*, [8 x i8], [16 x i8], [8 x i8], [8 x i8], [8 x i8], [16 x i8], [4 x i8], [4 x i8], [8 x i8], i8*, [8 x i8] }>* @alloc241, i32 0, i32 0, i32 0), i8* getelementptr inbounds (<{ [1 x i8], [7 x i8], i8*, [8 x i8], [16 x i8], [8 x i8], [8 x i8], [8 x i8], [16 x i8], [4 x i8], [4 x i8], [8 x i8], i8*, [8 x i8] }>, <{ [1 x i8], [7 x i8], i8*, [8 x i8], [16 x i8], [8 x i8], [8 x i8], [8 x i8], [16 x i8], [4 x i8], [4 x i8], [8 x i8], i8*, [8 x i8] }>* @alloc242, i32 0, i32 0, i32 0) }>, align 8
@__rustc_debug_gdb_scripts_section__ = linkonce_odr unnamed_addr constant [34 x i8] c"\01gdb_load_rust_pretty_printers.py\00", section ".debug_gdb_scripts", align 1
@llvm.compiler.used = appending global [1 x i8*] [i8* bitcast (<{ i8* }>* @_ZN17conditional_tests12conditionals10INIT_ARRAY17h1f442a4add430111E to i8*)], section "llvm.metadata"

; std::sys_common::backtrace::__rust_begin_short_backtrace
; Function Attrs: noinline nonlazybind uwtable
define internal void @_ZN3std10sys_common9backtrace28__rust_begin_short_backtrace17hc7d132a04ccb93d4E(void ()* %f) unnamed_addr #0 personality i32 (i32, i32, i64, %"unwind::libunwind::_Unwind_Exception"*, %"unwind::libunwind::_Unwind_Context"*)* @rust_eh_personality !dbg !116 {
start:
  %0 = alloca { i8*, i32 }, align 8
  %dummy.dbg.spill = alloca {}, align 1
  %f.dbg.spill = alloca void ()*, align 8
  %result.dbg.spill = alloca {}, align 1
  call void @llvm.dbg.declare(metadata {}* %result.dbg.spill, metadata !124, metadata !DIExpression()), !dbg !129
  store void ()* %f, void ()** %f.dbg.spill, align 8
  call void @llvm.dbg.declare(metadata void ()** %f.dbg.spill, metadata !123, metadata !DIExpression()), !dbg !130
  call void @llvm.dbg.declare(metadata {}* %dummy.dbg.spill, metadata !131, metadata !DIExpression()), !dbg !140
; call core::ops::function::FnOnce::call_once
  call void @_ZN4core3ops8function6FnOnce9call_once17h24f5a6df8cab6bc5E(void ()* %f), !dbg !142
  br label %bb1, !dbg !142

bb1:                                              ; preds = %start
  call void asm sideeffect "", "r,~{memory}"({}* undef), !dbg !140, !srcloc !143
  br label %bb4, !dbg !140

bb4:                                              ; preds = %bb1
  ret void, !dbg !144

bb2:                                              ; No predecessors!
  br label %bb3, !dbg !145

bb3:                                              ; preds = %bb2
  %1 = bitcast { i8*, i32 }* %0 to i8**, !dbg !146
  %2 = load i8*, i8** %1, align 8, !dbg !146
  %3 = getelementptr inbounds { i8*, i32 }, { i8*, i32 }* %0, i32 0, i32 1, !dbg !146
  %4 = load i32, i32* %3, align 8, !dbg !146
  %5 = insertvalue { i8*, i32 } undef, i8* %2, 0, !dbg !146
  %6 = insertvalue { i8*, i32 } %5, i32 %4, 1, !dbg !146
  resume { i8*, i32 } %6, !dbg !146
}

; std::rt::lang_start
; Function Attrs: nonlazybind uwtable
define hidden i64 @_ZN3std2rt10lang_start17he9fb75c4246b1653E(void ()* %main, i64 %argc, i8** %argv) unnamed_addr #1 !dbg !147 {
start:
  %v.dbg.spill = alloca i64, align 8
  %argv.dbg.spill = alloca i8**, align 8
  %argc.dbg.spill = alloca i64, align 8
  %main.dbg.spill = alloca void ()*, align 8
  %_8 = alloca i64*, align 8
  %_4 = alloca i64, align 8
  store void ()* %main, void ()** %main.dbg.spill, align 8
  call void @llvm.dbg.declare(metadata void ()** %main.dbg.spill, metadata !155, metadata !DIExpression()), !dbg !160
  store i64 %argc, i64* %argc.dbg.spill, align 8
  call void @llvm.dbg.declare(metadata i64* %argc.dbg.spill, metadata !156, metadata !DIExpression()), !dbg !161
  store i8** %argv, i8*** %argv.dbg.spill, align 8
  call void @llvm.dbg.declare(metadata i8*** %argv.dbg.spill, metadata !157, metadata !DIExpression()), !dbg !162
  %0 = bitcast i64** %_8 to void ()**, !dbg !163
  store void ()* %main, void ()** %0, align 8, !dbg !163
  %_5.0 = bitcast i64** %_8 to {}*, !dbg !164
; call std::rt::lang_start_internal
  %1 = call i64 @_ZN3std2rt19lang_start_internal17h498f9556b87c8e5fE({}* align 1 %_5.0, [3 x i64]* align 8 bitcast (<{ i8*, [16 x i8], i8*, i8*, i8* }>* @vtable.0 to [3 x i64]*), i64 %argc, i8** %argv), !dbg !165
  store i64 %1, i64* %_4, align 8, !dbg !165
  br label %bb1, !dbg !165

bb1:                                              ; preds = %start
  %v = load i64, i64* %_4, align 8, !dbg !166
  store i64 %v, i64* %v.dbg.spill, align 8, !dbg !166
  call void @llvm.dbg.declare(metadata i64* %v.dbg.spill, metadata !158, metadata !DIExpression()), !dbg !167
  ret i64 %v, !dbg !168
}

; std::rt::lang_start::{{closure}}
; Function Attrs: inlinehint nonlazybind uwtable
define internal i32 @"_ZN3std2rt10lang_start28_$u7b$$u7b$closure$u7d$$u7d$17h56248eaae24c6fabE"(i64** align 8 %_1) unnamed_addr #2 !dbg !169 {
start:
  %self.dbg.spill = alloca i8*, align 8
  %_1.dbg.spill = alloca i64**, align 8
  %self = alloca i8, align 1
  store i64** %_1, i64*** %_1.dbg.spill, align 8
  %0 = load i64**, i64*** %_1.dbg.spill, align 8, !nonnull !23, !align !175, !noundef !23
  %1 = bitcast i64** %0 to void ()**
  call void @llvm.dbg.declare(metadata i64*** %_1.dbg.spill, metadata !174, metadata !DIExpression(DW_OP_deref)), !dbg !176
  call void @llvm.dbg.declare(metadata i8* %self, metadata !177, metadata !DIExpression()), !dbg !195
  %2 = bitcast i64** %_1 to void ()**, !dbg !197
  %_4 = load void ()*, void ()** %2, align 8, !dbg !197, !nonnull !23, !noundef !23
; call std::sys_common::backtrace::__rust_begin_short_backtrace
  call void @_ZN3std10sys_common9backtrace28__rust_begin_short_backtrace17hc7d132a04ccb93d4E(void ()* %_4), !dbg !196
  br label %bb1, !dbg !196

bb1:                                              ; preds = %start
; call <() as std::process::Termination>::report
  %3 = call i8 @"_ZN54_$LT$$LP$$RP$$u20$as$u20$std..process..Termination$GT$6report17h338fc0e3af11e91dE"(), !dbg !196
  store i8 %3, i8* %self, align 1, !dbg !196
  br label %bb2, !dbg !196

bb2:                                              ; preds = %bb1
  store i8* %self, i8** %self.dbg.spill, align 8, !dbg !195
  call void @llvm.dbg.declare(metadata i8** %self.dbg.spill, metadata !198, metadata !DIExpression()), !dbg !206
  %_6 = load i8, i8* %self, align 1, !dbg !206
  %4 = zext i8 %_6 to i32, !dbg !206
  ret i32 %4, !dbg !208
}

; <&T as core::fmt::Debug>::fmt
; Function Attrs: nonlazybind uwtable
define internal zeroext i1 @"_ZN42_$LT$$RF$T$u20$as$u20$core..fmt..Debug$GT$3fmt17h4ba92788ccbc07aaE"([6 x i32]** align 8 %self, %"core::fmt::Formatter"* align 8 %f) unnamed_addr #1 !dbg !209 {
start:
  %f.dbg.spill = alloca %"core::fmt::Formatter"*, align 8
  %self.dbg.spill = alloca [6 x i32]**, align 8
  store [6 x i32]** %self, [6 x i32]*** %self.dbg.spill, align 8
  call void @llvm.dbg.declare(metadata [6 x i32]*** %self.dbg.spill, metadata !269, metadata !DIExpression()), !dbg !273
  store %"core::fmt::Formatter"* %f, %"core::fmt::Formatter"** %f.dbg.spill, align 8
  call void @llvm.dbg.declare(metadata %"core::fmt::Formatter"** %f.dbg.spill, metadata !270, metadata !DIExpression()), !dbg !274
  %_6 = load [6 x i32]*, [6 x i32]** %self, align 8, !dbg !275, !nonnull !23, !align !276, !noundef !23
; call core::array::<impl core::fmt::Debug for [T; N]>::fmt
  %0 = call zeroext i1 @"_ZN4core5array69_$LT$impl$u20$core..fmt..Debug$u20$for$u20$$u5b$T$u3b$$u20$N$u5d$$GT$3fmt17h9a527c9266e25867E"([6 x i32]* align 4 %_6, %"core::fmt::Formatter"* align 8 %f), !dbg !277
  br label %bb1, !dbg !277

bb1:                                              ; preds = %start
  ret i1 %0, !dbg !278
}

; <&T as core::fmt::Debug>::fmt
; Function Attrs: nonlazybind uwtable
define internal zeroext i1 @"_ZN42_$LT$$RF$T$u20$as$u20$core..fmt..Debug$GT$3fmt17hab96ff80dd06d362E"(i32** align 8 %self, %"core::fmt::Formatter"* align 8 %f) unnamed_addr #1 !dbg !279 {
start:
  %f.dbg.spill = alloca %"core::fmt::Formatter"*, align 8
  %self.dbg.spill = alloca i32**, align 8
  store i32** %self, i32*** %self.dbg.spill, align 8
  call void @llvm.dbg.declare(metadata i32*** %self.dbg.spill, metadata !284, metadata !DIExpression()), !dbg !288
  store %"core::fmt::Formatter"* %f, %"core::fmt::Formatter"** %f.dbg.spill, align 8
  call void @llvm.dbg.declare(metadata %"core::fmt::Formatter"** %f.dbg.spill, metadata !285, metadata !DIExpression()), !dbg !289
  %_6 = load i32*, i32** %self, align 8, !dbg !290, !nonnull !23, !align !276, !noundef !23
; call core::fmt::num::<impl core::fmt::Debug for i32>::fmt
  %0 = call zeroext i1 @"_ZN4core3fmt3num50_$LT$impl$u20$core..fmt..Debug$u20$for$u20$i32$GT$3fmt17h84cb2e731adaa5ecE"(i32* align 4 %_6, %"core::fmt::Formatter"* align 8 %f), !dbg !291
  br label %bb1, !dbg !291

bb1:                                              ; preds = %start
  ret i1 %0, !dbg !292
}

; <&T as core::fmt::Debug>::fmt
; Function Attrs: nonlazybind uwtable
define internal zeroext i1 @"_ZN42_$LT$$RF$T$u20$as$u20$core..fmt..Debug$GT$3fmt17hb6aeae75fec05ac2E"([4 x i32]** align 8 %self, %"core::fmt::Formatter"* align 8 %f) unnamed_addr #1 !dbg !293 {
start:
  %f.dbg.spill = alloca %"core::fmt::Formatter"*, align 8
  %self.dbg.spill = alloca [4 x i32]**, align 8
  store [4 x i32]** %self, [4 x i32]*** %self.dbg.spill, align 8
  call void @llvm.dbg.declare(metadata [4 x i32]*** %self.dbg.spill, metadata !298, metadata !DIExpression()), !dbg !302
  store %"core::fmt::Formatter"* %f, %"core::fmt::Formatter"** %f.dbg.spill, align 8
  call void @llvm.dbg.declare(metadata %"core::fmt::Formatter"** %f.dbg.spill, metadata !299, metadata !DIExpression()), !dbg !303
  %_6 = load [4 x i32]*, [4 x i32]** %self, align 8, !dbg !304, !nonnull !23, !align !276, !noundef !23
; call core::array::<impl core::fmt::Debug for [T; N]>::fmt
  %0 = call zeroext i1 @"_ZN4core5array69_$LT$impl$u20$core..fmt..Debug$u20$for$u20$$u5b$T$u3b$$u20$N$u5d$$GT$3fmt17hcabc00bee552e0ecE"([4 x i32]* align 4 %_6, %"core::fmt::Formatter"* align 8 %f), !dbg !305
  br label %bb1, !dbg !305

bb1:                                              ; preds = %start
  ret i1 %0, !dbg !306
}

; <&T as core::fmt::Debug>::fmt
; Function Attrs: nonlazybind uwtable
define internal zeroext i1 @"_ZN42_$LT$$RF$T$u20$as$u20$core..fmt..Debug$GT$3fmt17hd9469653db74ea63E"([30 x i32]** align 8 %self, %"core::fmt::Formatter"* align 8 %f) unnamed_addr #1 !dbg !307 {
start:
  %f.dbg.spill = alloca %"core::fmt::Formatter"*, align 8
  %self.dbg.spill = alloca [30 x i32]**, align 8
  store [30 x i32]** %self, [30 x i32]*** %self.dbg.spill, align 8
  call void @llvm.dbg.declare(metadata [30 x i32]*** %self.dbg.spill, metadata !312, metadata !DIExpression()), !dbg !316
  store %"core::fmt::Formatter"* %f, %"core::fmt::Formatter"** %f.dbg.spill, align 8
  call void @llvm.dbg.declare(metadata %"core::fmt::Formatter"** %f.dbg.spill, metadata !313, metadata !DIExpression()), !dbg !317
  %_6 = load [30 x i32]*, [30 x i32]** %self, align 8, !dbg !318, !nonnull !23, !align !276, !noundef !23
; call core::array::<impl core::fmt::Debug for [T; N]>::fmt
  %0 = call zeroext i1 @"_ZN4core5array69_$LT$impl$u20$core..fmt..Debug$u20$for$u20$$u5b$T$u3b$$u20$N$u5d$$GT$3fmt17h22373c4754ced3beE"([30 x i32]* align 4 %_6, %"core::fmt::Formatter"* align 8 %f), !dbg !319
  br label %bb1, !dbg !319

bb1:                                              ; preds = %start
  ret i1 %0, !dbg !320
}

; <&T as core::fmt::Debug>::fmt
; Function Attrs: nonlazybind uwtable
define internal zeroext i1 @"_ZN42_$LT$$RF$T$u20$as$u20$core..fmt..Debug$GT$3fmt17hfd00249108282cbfE"({ [0 x i32]*, i64 }* align 8 %self, %"core::fmt::Formatter"* align 8 %f) unnamed_addr #1 !dbg !321 {
start:
  %f.dbg.spill = alloca %"core::fmt::Formatter"*, align 8
  %self.dbg.spill = alloca { [0 x i32]*, i64 }*, align 8
  store { [0 x i32]*, i64 }* %self, { [0 x i32]*, i64 }** %self.dbg.spill, align 8
  call void @llvm.dbg.declare(metadata { [0 x i32]*, i64 }** %self.dbg.spill, metadata !331, metadata !DIExpression()), !dbg !333
  store %"core::fmt::Formatter"* %f, %"core::fmt::Formatter"** %f.dbg.spill, align 8
  call void @llvm.dbg.declare(metadata %"core::fmt::Formatter"** %f.dbg.spill, metadata !332, metadata !DIExpression()), !dbg !334
  %0 = getelementptr inbounds { [0 x i32]*, i64 }, { [0 x i32]*, i64 }* %self, i32 0, i32 0, !dbg !335
  %_6.0 = load [0 x i32]*, [0 x i32]** %0, align 8, !dbg !335, !nonnull !23, !align !276, !noundef !23
  %1 = getelementptr inbounds { [0 x i32]*, i64 }, { [0 x i32]*, i64 }* %self, i32 0, i32 1, !dbg !335
  %_6.1 = load i64, i64* %1, align 8, !dbg !335
; call <[T] as core::fmt::Debug>::fmt
  %2 = call zeroext i1 @"_ZN48_$LT$$u5b$T$u5d$$u20$as$u20$core..fmt..Debug$GT$3fmt17h4f5434fa8f5d8479E"([0 x i32]* align 4 %_6.0, i64 %_6.1, %"core::fmt::Formatter"* align 8 %f), !dbg !336
  br label %bb1, !dbg !336

bb1:                                              ; preds = %start
  ret i1 %2, !dbg !337
}

; <[T] as core::fmt::Debug>::fmt
; Function Attrs: nonlazybind uwtable
define internal zeroext i1 @"_ZN48_$LT$$u5b$T$u5d$$u20$as$u20$core..fmt..Debug$GT$3fmt17h4f5434fa8f5d8479E"([0 x i32]* align 4 %self.0, i64 %self.1, %"core::fmt::Formatter"* align 8 %f) unnamed_addr #1 !dbg !338 {
start:
  %self.dbg.spill1 = alloca { [0 x i32]*, i64 }, align 8
  %f.dbg.spill = alloca %"core::fmt::Formatter"*, align 8
  %self.dbg.spill = alloca { [0 x i32]*, i64 }, align 8
  %_6 = alloca %"core::fmt::builders::DebugList", align 8
  %0 = getelementptr inbounds { [0 x i32]*, i64 }, { [0 x i32]*, i64 }* %self.dbg.spill, i32 0, i32 0
  store [0 x i32]* %self.0, [0 x i32]** %0, align 8
  %1 = getelementptr inbounds { [0 x i32]*, i64 }, { [0 x i32]*, i64 }* %self.dbg.spill, i32 0, i32 1
  store i64 %self.1, i64* %1, align 8
  call void @llvm.dbg.declare(metadata { [0 x i32]*, i64 }* %self.dbg.spill, metadata !343, metadata !DIExpression()), !dbg !345
  store %"core::fmt::Formatter"* %f, %"core::fmt::Formatter"** %f.dbg.spill, align 8
  call void @llvm.dbg.declare(metadata %"core::fmt::Formatter"** %f.dbg.spill, metadata !344, metadata !DIExpression()), !dbg !346
; call core::fmt::Formatter::debug_list
  call void @_ZN4core3fmt9Formatter10debug_list17h2e70d1c34e8cb782E(%"core::fmt::builders::DebugList"* sret(%"core::fmt::builders::DebugList") %_6, %"core::fmt::Formatter"* align 8 %f), !dbg !347
  br label %bb1, !dbg !347

bb1:                                              ; preds = %start
  %2 = getelementptr inbounds { [0 x i32]*, i64 }, { [0 x i32]*, i64 }* %self.dbg.spill1, i32 0, i32 0, !dbg !348
  store [0 x i32]* %self.0, [0 x i32]** %2, align 8, !dbg !348
  %3 = getelementptr inbounds { [0 x i32]*, i64 }, { [0 x i32]*, i64 }* %self.dbg.spill1, i32 0, i32 1, !dbg !348
  store i64 %self.1, i64* %3, align 8, !dbg !348
  call void @llvm.dbg.declare(metadata { [0 x i32]*, i64 }* %self.dbg.spill1, metadata !349, metadata !DIExpression()), !dbg !374
; call core::slice::iter::Iter<T>::new
  %4 = call { i32*, i32* } @"_ZN4core5slice4iter13Iter$LT$T$GT$3new17hc44d8b1467b0945fE"([0 x i32]* align 4 %self.0, i64 %self.1), !dbg !374
  %_8.0 = extractvalue { i32*, i32* } %4, 0, !dbg !374
  %_8.1 = extractvalue { i32*, i32* } %4, 1, !dbg !374
  br label %bb4, !dbg !374

bb4:                                              ; preds = %bb1
; call core::fmt::builders::DebugList::entries
  %_4 = call align 8 %"core::fmt::builders::DebugList"* @_ZN4core3fmt8builders9DebugList7entries17hab11437addffd9bdE(%"core::fmt::builders::DebugList"* align 8 %_6, i32* %_8.0, i32* %_8.1), !dbg !347
  br label %bb2, !dbg !347

bb2:                                              ; preds = %bb4
; call core::fmt::builders::DebugList::finish
  %5 = call zeroext i1 @_ZN4core3fmt8builders9DebugList6finish17ha896c0aa3642bf32E(%"core::fmt::builders::DebugList"* align 8 %_4), !dbg !347
  br label %bb3, !dbg !347

bb3:                                              ; preds = %bb2
  ret i1 %5, !dbg !375
}

; core::fmt::num::<impl core::fmt::Debug for i32>::fmt
; Function Attrs: inlinehint nonlazybind uwtable
define internal zeroext i1 @"_ZN4core3fmt3num50_$LT$impl$u20$core..fmt..Debug$u20$for$u20$i32$GT$3fmt17h84cb2e731adaa5ecE"(i32* align 4 %self, %"core::fmt::Formatter"* align 8 %f) unnamed_addr #2 !dbg !376 {
start:
  %f.dbg.spill = alloca %"core::fmt::Formatter"*, align 8
  %self.dbg.spill = alloca i32*, align 8
  %0 = alloca i8, align 1
  store i32* %self, i32** %self.dbg.spill, align 8
  call void @llvm.dbg.declare(metadata i32** %self.dbg.spill, metadata !383, metadata !DIExpression()), !dbg !385
  store %"core::fmt::Formatter"* %f, %"core::fmt::Formatter"** %f.dbg.spill, align 8
  call void @llvm.dbg.declare(metadata %"core::fmt::Formatter"** %f.dbg.spill, metadata !384, metadata !DIExpression()), !dbg !386
; call core::fmt::Formatter::debug_lower_hex
  %_3 = call zeroext i1 @_ZN4core3fmt9Formatter15debug_lower_hex17h861f5ddbf758e4f9E(%"core::fmt::Formatter"* align 8 %f), !dbg !387
  br label %bb1, !dbg !387

bb1:                                              ; preds = %start
  br i1 %_3, label %bb2, label %bb4, !dbg !387

bb4:                                              ; preds = %bb1
; call core::fmt::Formatter::debug_upper_hex
  %_7 = call zeroext i1 @_ZN4core3fmt9Formatter15debug_upper_hex17h21ddf2be2e6a0fd5E(%"core::fmt::Formatter"* align 8 %f), !dbg !388
  br label %bb5, !dbg !388

bb2:                                              ; preds = %bb1
; call core::fmt::num::<impl core::fmt::LowerHex for i32>::fmt
  %1 = call zeroext i1 @"_ZN4core3fmt3num53_$LT$impl$u20$core..fmt..LowerHex$u20$for$u20$i32$GT$3fmt17h46ab6094afed2354E"(i32* align 4 %self, %"core::fmt::Formatter"* align 8 %f), !dbg !389
  %2 = zext i1 %1 to i8, !dbg !389
  store i8 %2, i8* %0, align 1, !dbg !389
  br label %bb3, !dbg !389

bb3:                                              ; preds = %bb2
  br label %bb11, !dbg !390

bb11:                                             ; preds = %bb10, %bb3
  %3 = load i8, i8* %0, align 1, !dbg !391, !range !392, !noundef !23
  %4 = trunc i8 %3 to i1, !dbg !391
  ret i1 %4, !dbg !391

bb5:                                              ; preds = %bb4
  br i1 %_7, label %bb6, label %bb8, !dbg !388

bb8:                                              ; preds = %bb5
; call core::fmt::num::imp::<impl core::fmt::Display for i32>::fmt
  %5 = call zeroext i1 @"_ZN4core3fmt3num3imp52_$LT$impl$u20$core..fmt..Display$u20$for$u20$i32$GT$3fmt17h52a4838d0eaa2babE"(i32* align 4 %self, %"core::fmt::Formatter"* align 8 %f), !dbg !393
  %6 = zext i1 %5 to i8, !dbg !393
  store i8 %6, i8* %0, align 1, !dbg !393
  br label %bb9, !dbg !393

bb6:                                              ; preds = %bb5
; call core::fmt::num::<impl core::fmt::UpperHex for i32>::fmt
  %7 = call zeroext i1 @"_ZN4core3fmt3num53_$LT$impl$u20$core..fmt..UpperHex$u20$for$u20$i32$GT$3fmt17h827553a54a7e037dE"(i32* align 4 %self, %"core::fmt::Formatter"* align 8 %f), !dbg !394
  %8 = zext i1 %7 to i8, !dbg !394
  store i8 %8, i8* %0, align 1, !dbg !394
  br label %bb7, !dbg !394

bb7:                                              ; preds = %bb6
  br label %bb10, !dbg !395

bb10:                                             ; preds = %bb9, %bb7
  br label %bb11, !dbg !390

bb9:                                              ; preds = %bb8
  br label %bb10, !dbg !395
}

; core::fmt::builders::DebugList::entries
; Function Attrs: nonlazybind uwtable
define internal align 8 %"core::fmt::builders::DebugList"* @_ZN4core3fmt8builders9DebugList7entries17hab11437addffd9bdE(%"core::fmt::builders::DebugList"* align 8 %self, i32* %entries.0, i32* %entries.1) unnamed_addr #1 personality i32 (i32, i32, i64, %"unwind::libunwind::_Unwind_Exception"*, %"unwind::libunwind::_Unwind_Context"*)* @rust_eh_personality !dbg !396 {
start:
  %0 = alloca { i8*, i32 }, align 8
  %entries.dbg.spill = alloca { i32*, i32* }, align 8
  %self.dbg.spill = alloca %"core::fmt::builders::DebugList"*, align 8
  %entry = alloca i32*, align 8
  %_7 = alloca i32*, align 8
  %iter = alloca { i32*, i32* }, align 8
  store %"core::fmt::builders::DebugList"* %self, %"core::fmt::builders::DebugList"** %self.dbg.spill, align 8
  call void @llvm.dbg.declare(metadata %"core::fmt::builders::DebugList"** %self.dbg.spill, metadata !412, metadata !DIExpression()), !dbg !421
  %1 = getelementptr inbounds { i32*, i32* }, { i32*, i32* }* %entries.dbg.spill, i32 0, i32 0
  store i32* %entries.0, i32** %1, align 8
  %2 = getelementptr inbounds { i32*, i32* }, { i32*, i32* }* %entries.dbg.spill, i32 0, i32 1
  store i32* %entries.1, i32** %2, align 8
  call void @llvm.dbg.declare(metadata { i32*, i32* }* %entries.dbg.spill, metadata !413, metadata !DIExpression()), !dbg !422
  call void @llvm.dbg.declare(metadata { i32*, i32* }* %iter, metadata !414, metadata !DIExpression()), !dbg !423
  call void @llvm.dbg.declare(metadata i32** %entry, metadata !416, metadata !DIExpression()), !dbg !424
; call <I as core::iter::traits::collect::IntoIterator>::into_iter
  %3 = call { i32*, i32* } @"_ZN63_$LT$I$u20$as$u20$core..iter..traits..collect..IntoIterator$GT$9into_iter17hf885a51955d192d3E"(i32* %entries.0, i32* %entries.1), !dbg !425
  %_4.0 = extractvalue { i32*, i32* } %3, 0, !dbg !425
  %_4.1 = extractvalue { i32*, i32* } %3, 1, !dbg !425
  br label %bb1, !dbg !425

bb1:                                              ; preds = %start
  %4 = getelementptr inbounds { i32*, i32* }, { i32*, i32* }* %iter, i32 0, i32 0, !dbg !425
  store i32* %_4.0, i32** %4, align 8, !dbg !425
  %5 = getelementptr inbounds { i32*, i32* }, { i32*, i32* }* %iter, i32 0, i32 1, !dbg !425
  store i32* %_4.1, i32** %5, align 8, !dbg !425
  br label %bb2, !dbg !426

bb2:                                              ; preds = %bb8, %bb1
; invoke <core::slice::iter::Iter<T> as core::iter::traits::iterator::Iterator>::next
  %6 = invoke align 4 i32* @"_ZN91_$LT$core..slice..iter..Iter$LT$T$GT$$u20$as$u20$core..iter..traits..iterator..Iterator$GT$4next17h593eee93ba0b712dE"({ i32*, i32* }* align 8 %iter)
          to label %bb3 unwind label %cleanup, !dbg !423

bb11:                                             ; preds = %bb10, %cleanup
  br label %bb12, !dbg !427

cleanup:                                          ; preds = %bb2
  %7 = landingpad { i8*, i32 }
          cleanup
  %8 = extractvalue { i8*, i32 } %7, 0
  %9 = extractvalue { i8*, i32 } %7, 1
  %10 = getelementptr inbounds { i8*, i32 }, { i8*, i32 }* %0, i32 0, i32 0
  store i8* %8, i8** %10, align 8
  %11 = getelementptr inbounds { i8*, i32 }, { i8*, i32 }* %0, i32 0, i32 1
  store i32 %9, i32* %11, align 8
  br label %bb11

bb3:                                              ; preds = %bb2
  store i32* %6, i32** %_7, align 8, !dbg !423
  %12 = bitcast i32** %_7 to {}**, !dbg !423
  %13 = load {}*, {}** %12, align 8, !dbg !423
  %14 = icmp eq {}* %13, null, !dbg !423
  %_10 = select i1 %14, i64 0, i64 1, !dbg !423
  switch i64 %_10, label %bb5 [
    i64 0, label %bb6
    i64 1, label %bb4
  ], !dbg !423

bb5:                                              ; preds = %bb3
  unreachable, !dbg !423

bb6:                                              ; preds = %bb3
  br label %bb9, !dbg !427

bb4:                                              ; preds = %bb3
  %15 = load i32*, i32** %_7, align 8, !dbg !428, !nonnull !23, !align !276, !noundef !23
  store i32* %15, i32** %entry, align 8, !dbg !428
  %_14.0 = bitcast i32** %entry to {}*, !dbg !429
; invoke core::fmt::builders::DebugList::entry
  %_12 = invoke align 8 %"core::fmt::builders::DebugList"* @_ZN4core3fmt8builders9DebugList5entry17h5007920add23274dE(%"core::fmt::builders::DebugList"* align 8 %self, {}* align 1 %_14.0, [3 x i64]* align 8 bitcast (<{ i8*, [16 x i8], i8* }>* @vtable.1 to [3 x i64]*))
          to label %bb7 unwind label %cleanup1, !dbg !430

bb10:                                             ; preds = %cleanup1
  br label %bb11, !dbg !431

cleanup1:                                         ; preds = %bb4
  %16 = landingpad { i8*, i32 }
          cleanup
  %17 = extractvalue { i8*, i32 } %16, 0
  %18 = extractvalue { i8*, i32 } %16, 1
  %19 = getelementptr inbounds { i8*, i32 }, { i8*, i32 }* %0, i32 0, i32 0
  store i8* %17, i8** %19, align 8
  %20 = getelementptr inbounds { i8*, i32 }, { i8*, i32 }* %0, i32 0, i32 1
  store i32 %18, i32* %20, align 8
  br label %bb10

bb7:                                              ; preds = %bb4
  br label %bb8, !dbg !431

bb8:                                              ; preds = %bb7
  br label %bb2, !dbg !426

bb12:                                             ; preds = %bb11
  %21 = bitcast { i8*, i32 }* %0 to i8**, !dbg !432
  %22 = load i8*, i8** %21, align 8, !dbg !432
  %23 = getelementptr inbounds { i8*, i32 }, { i8*, i32 }* %0, i32 0, i32 1, !dbg !432
  %24 = load i32, i32* %23, align 8, !dbg !432
  %25 = insertvalue { i8*, i32 } undef, i8* %22, 0, !dbg !432
  %26 = insertvalue { i8*, i32 } %25, i32 %24, 1, !dbg !432
  resume { i8*, i32 } %26, !dbg !432

bb9:                                              ; preds = %bb6
  ret %"core::fmt::builders::DebugList"* %self, !dbg !433
}

; core::fmt::Arguments::new_v1
; Function Attrs: inlinehint nonlazybind uwtable
define internal void @_ZN4core3fmt9Arguments6new_v117h0741548b0913f5a4E(%"core::fmt::Arguments"* sret(%"core::fmt::Arguments") %0, [0 x { [0 x i8]*, i64 }]* align 8 %pieces.0, i64 %pieces.1, [0 x { i8*, i64* }]* align 8 %args.0, i64 %args.1) unnamed_addr #2 !dbg !434 {
start:
  %args.dbg.spill = alloca { [0 x { i8*, i64* }]*, i64 }, align 8
  %pieces.dbg.spill = alloca { [0 x { [0 x i8]*, i64 }]*, i64 }, align 8
  %_24 = alloca { i64*, i64 }, align 8
  %_16 = alloca %"core::fmt::Arguments", align 8
  %_3 = alloca i8, align 1
  %1 = getelementptr inbounds { [0 x { [0 x i8]*, i64 }]*, i64 }, { [0 x { [0 x i8]*, i64 }]*, i64 }* %pieces.dbg.spill, i32 0, i32 0
  store [0 x { [0 x i8]*, i64 }]* %pieces.0, [0 x { [0 x i8]*, i64 }]** %1, align 8
  %2 = getelementptr inbounds { [0 x { [0 x i8]*, i64 }]*, i64 }, { [0 x { [0 x i8]*, i64 }]*, i64 }* %pieces.dbg.spill, i32 0, i32 1
  store i64 %pieces.1, i64* %2, align 8
  call void @llvm.dbg.declare(metadata { [0 x { [0 x i8]*, i64 }]*, i64 }* %pieces.dbg.spill, metadata !512, metadata !DIExpression()), !dbg !514
  %3 = getelementptr inbounds { [0 x { i8*, i64* }]*, i64 }, { [0 x { i8*, i64* }]*, i64 }* %args.dbg.spill, i32 0, i32 0
  store [0 x { i8*, i64* }]* %args.0, [0 x { i8*, i64* }]** %3, align 8
  %4 = getelementptr inbounds { [0 x { i8*, i64* }]*, i64 }, { [0 x { i8*, i64* }]*, i64 }* %args.dbg.spill, i32 0, i32 1
  store i64 %args.1, i64* %4, align 8
  call void @llvm.dbg.declare(metadata { [0 x { i8*, i64* }]*, i64 }* %args.dbg.spill, metadata !513, metadata !DIExpression()), !dbg !515
  %_4 = icmp ult i64 %pieces.1, %args.1, !dbg !516
  br i1 %_4, label %bb1, label %bb2, !dbg !516

bb2:                                              ; preds = %start
  %_12 = add i64 %args.1, 1, !dbg !517
  %_9 = icmp ugt i64 %pieces.1, %_12, !dbg !518
  %5 = zext i1 %_9 to i8, !dbg !516
  store i8 %5, i8* %_3, align 1, !dbg !516
  br label %bb3, !dbg !516

bb1:                                              ; preds = %start
  store i8 1, i8* %_3, align 1, !dbg !516
  br label %bb3, !dbg !516

bb3:                                              ; preds = %bb2, %bb1
  %6 = load i8, i8* %_3, align 1, !dbg !516, !range !392, !noundef !23
  %7 = trunc i8 %6 to i1, !dbg !516
  br i1 %7, label %bb4, label %bb6, !dbg !516

bb6:                                              ; preds = %bb3
  %8 = bitcast { i64*, i64 }* %_24 to {}**, !dbg !519
  store {}* null, {}** %8, align 8, !dbg !519
  %9 = bitcast %"core::fmt::Arguments"* %0 to { [0 x { [0 x i8]*, i64 }]*, i64 }*, !dbg !520
  %10 = getelementptr inbounds { [0 x { [0 x i8]*, i64 }]*, i64 }, { [0 x { [0 x i8]*, i64 }]*, i64 }* %9, i32 0, i32 0, !dbg !520
  store [0 x { [0 x i8]*, i64 }]* %pieces.0, [0 x { [0 x i8]*, i64 }]** %10, align 8, !dbg !520
  %11 = getelementptr inbounds { [0 x { [0 x i8]*, i64 }]*, i64 }, { [0 x { [0 x i8]*, i64 }]*, i64 }* %9, i32 0, i32 1, !dbg !520
  store i64 %pieces.1, i64* %11, align 8, !dbg !520
  %12 = getelementptr inbounds %"core::fmt::Arguments", %"core::fmt::Arguments"* %0, i32 0, i32 1, !dbg !520
  %13 = getelementptr inbounds { i64*, i64 }, { i64*, i64 }* %_24, i32 0, i32 0, !dbg !520
  %14 = load i64*, i64** %13, align 8, !dbg !520, !align !175
  %15 = getelementptr inbounds { i64*, i64 }, { i64*, i64 }* %_24, i32 0, i32 1, !dbg !520
  %16 = load i64, i64* %15, align 8, !dbg !520
  %17 = getelementptr inbounds { i64*, i64 }, { i64*, i64 }* %12, i32 0, i32 0, !dbg !520
  store i64* %14, i64** %17, align 8, !dbg !520
  %18 = getelementptr inbounds { i64*, i64 }, { i64*, i64 }* %12, i32 0, i32 1, !dbg !520
  store i64 %16, i64* %18, align 8, !dbg !520
  %19 = getelementptr inbounds %"core::fmt::Arguments", %"core::fmt::Arguments"* %0, i32 0, i32 2, !dbg !520
  %20 = getelementptr inbounds { [0 x { i8*, i64* }]*, i64 }, { [0 x { i8*, i64* }]*, i64 }* %19, i32 0, i32 0, !dbg !520
  store [0 x { i8*, i64* }]* %args.0, [0 x { i8*, i64* }]** %20, align 8, !dbg !520
  %21 = getelementptr inbounds { [0 x { i8*, i64* }]*, i64 }, { [0 x { i8*, i64* }]*, i64 }* %19, i32 0, i32 1, !dbg !520
  store i64 %args.1, i64* %21, align 8, !dbg !520
  ret void, !dbg !521

bb4:                                              ; preds = %bb3
; call core::fmt::Arguments::new_v1
  call void @_ZN4core3fmt9Arguments6new_v117h0741548b0913f5a4E(%"core::fmt::Arguments"* sret(%"core::fmt::Arguments") %_16, [0 x { [0 x i8]*, i64 }]* align 8 bitcast (<{ i8*, [8 x i8] }>* @alloc129 to [0 x { [0 x i8]*, i64 }]*), i64 1, [0 x { i8*, i64* }]* align 8 bitcast (<{}>* @alloc131 to [0 x { i8*, i64* }]*), i64 0), !dbg !522
  br label %bb5, !dbg !522

bb5:                                              ; preds = %bb4
; call core::panicking::panic_fmt
  call void @_ZN4core9panicking9panic_fmt17h62ccf03c8a8a51b5E(%"core::fmt::Arguments"* %_16, %"core::panic::location::Location"* align 8 bitcast (<{ i8*, [16 x i8] }>* @alloc271 to %"core::panic::location::Location"*)) #13, !dbg !522
  unreachable, !dbg !522
}

; core::ops::function::FnOnce::call_once{{vtable.shim}}
; Function Attrs: inlinehint nonlazybind uwtable
define internal i32 @"_ZN4core3ops8function6FnOnce40call_once$u7b$$u7b$vtable.shim$u7d$$u7d$17hc9194a37c1bc38d6E"(i64** %_1) unnamed_addr #2 !dbg !523 {
start:
  %_1.dbg.spill = alloca i64**, align 8
  %_2 = alloca {}, align 1
  store i64** %_1, i64*** %_1.dbg.spill, align 8
  call void @llvm.dbg.declare(metadata i64*** %_1.dbg.spill, metadata !532, metadata !DIExpression()), !dbg !537
  call void @llvm.dbg.declare(metadata {}* %_2, metadata !533, metadata !DIExpression()), !dbg !537
  %0 = load i64*, i64** %_1, align 8, !dbg !537, !nonnull !23, !noundef !23
; call core::ops::function::FnOnce::call_once
  %1 = call i32 @_ZN4core3ops8function6FnOnce9call_once17h1a3e8af765d5a9caE(i64* %0), !dbg !537
  br label %bb1, !dbg !537

bb1:                                              ; preds = %start
  ret i32 %1, !dbg !537
}

; core::ops::function::FnOnce::call_once
; Function Attrs: inlinehint nonlazybind uwtable
define internal i32 @_ZN4core3ops8function6FnOnce9call_once17h1a3e8af765d5a9caE(i64* %0) unnamed_addr #2 personality i32 (i32, i32, i64, %"unwind::libunwind::_Unwind_Exception"*, %"unwind::libunwind::_Unwind_Context"*)* @rust_eh_personality !dbg !538 {
start:
  %1 = alloca { i8*, i32 }, align 8
  %_2 = alloca {}, align 1
  %_1 = alloca i64*, align 8
  store i64* %0, i64** %_1, align 8
  call void @llvm.dbg.declare(metadata i64** %_1, metadata !542, metadata !DIExpression()), !dbg !544
  call void @llvm.dbg.declare(metadata {}* %_2, metadata !543, metadata !DIExpression()), !dbg !544
; invoke std::rt::lang_start::{{closure}}
  %2 = invoke i32 @"_ZN3std2rt10lang_start28_$u7b$$u7b$closure$u7d$$u7d$17h56248eaae24c6fabE"(i64** align 8 %_1)
          to label %bb1 unwind label %cleanup, !dbg !544

bb3:                                              ; preds = %cleanup
  br label %bb4, !dbg !544

cleanup:                                          ; preds = %start
  %3 = landingpad { i8*, i32 }
          cleanup
  %4 = extractvalue { i8*, i32 } %3, 0
  %5 = extractvalue { i8*, i32 } %3, 1
  %6 = getelementptr inbounds { i8*, i32 }, { i8*, i32 }* %1, i32 0, i32 0
  store i8* %4, i8** %6, align 8
  %7 = getelementptr inbounds { i8*, i32 }, { i8*, i32 }* %1, i32 0, i32 1
  store i32 %5, i32* %7, align 8
  br label %bb3

bb1:                                              ; preds = %start
  br label %bb2, !dbg !544

bb4:                                              ; preds = %bb3
  %8 = bitcast { i8*, i32 }* %1 to i8**, !dbg !544
  %9 = load i8*, i8** %8, align 8, !dbg !544
  %10 = getelementptr inbounds { i8*, i32 }, { i8*, i32 }* %1, i32 0, i32 1, !dbg !544
  %11 = load i32, i32* %10, align 8, !dbg !544
  %12 = insertvalue { i8*, i32 } undef, i8* %9, 0, !dbg !544
  %13 = insertvalue { i8*, i32 } %12, i32 %11, 1, !dbg !544
  resume { i8*, i32 } %13, !dbg !544

bb2:                                              ; preds = %bb1
  ret i32 %2, !dbg !544
}

; core::ops::function::FnOnce::call_once
; Function Attrs: inlinehint nonlazybind uwtable
define internal void @_ZN4core3ops8function6FnOnce9call_once17h23f74013fac2eec4E() unnamed_addr #2 personality i32 (i32, i32, i64, %"unwind::libunwind::_Unwind_Exception"*, %"unwind::libunwind::_Unwind_Context"*)* @rust_eh_personality !dbg !545 {
start:
  %0 = alloca { i8*, i32 }, align 8
  %_2 = alloca {}, align 1
  %_1 = alloca %"[closure@src/test_conditionals.rs:62:1: 74:2]", align 1
  call void @llvm.dbg.declare(metadata %"[closure@src/test_conditionals.rs:62:1: 74:2]"* %_1, metadata !552, metadata !DIExpression()), !dbg !556
  call void @llvm.dbg.declare(metadata {}* %_2, metadata !553, metadata !DIExpression()), !dbg !556
; invoke conditional_tests::test_conditionals::test_binary_conditionals::{{closure}}
  invoke void @"_ZN17conditional_tests17test_conditionals24test_binary_conditionals28_$u7b$$u7b$closure$u7d$$u7d$17h3761627c001df23fE"(%"[closure@src/test_conditionals.rs:62:1: 74:2]"* align 1 %_1)
          to label %bb1 unwind label %cleanup, !dbg !556

bb3:                                              ; preds = %cleanup
  br label %bb4, !dbg !556

cleanup:                                          ; preds = %start
  %1 = landingpad { i8*, i32 }
          cleanup
  %2 = extractvalue { i8*, i32 } %1, 0
  %3 = extractvalue { i8*, i32 } %1, 1
  %4 = getelementptr inbounds { i8*, i32 }, { i8*, i32 }* %0, i32 0, i32 0
  store i8* %2, i8** %4, align 8
  %5 = getelementptr inbounds { i8*, i32 }, { i8*, i32 }* %0, i32 0, i32 1
  store i32 %3, i32* %5, align 8
  br label %bb3

bb1:                                              ; preds = %start
  br label %bb2, !dbg !556

bb4:                                              ; preds = %bb3
  %6 = bitcast { i8*, i32 }* %0 to i8**, !dbg !556
  %7 = load i8*, i8** %6, align 8, !dbg !556
  %8 = getelementptr inbounds { i8*, i32 }, { i8*, i32 }* %0, i32 0, i32 1, !dbg !556
  %9 = load i32, i32* %8, align 8, !dbg !556
  %10 = insertvalue { i8*, i32 } undef, i8* %7, 0, !dbg !556
  %11 = insertvalue { i8*, i32 } %10, i32 %9, 1, !dbg !556
  resume { i8*, i32 } %11, !dbg !556

bb2:                                              ; preds = %bb1
  ret void, !dbg !556
}

; core::ops::function::FnOnce::call_once
; Function Attrs: inlinehint nonlazybind uwtable
define internal void @_ZN4core3ops8function6FnOnce9call_once17h24f5a6df8cab6bc5E(void ()* %_1) unnamed_addr #2 !dbg !557 {
start:
  %_1.dbg.spill = alloca void ()*, align 8
  %_2 = alloca {}, align 1
  store void ()* %_1, void ()** %_1.dbg.spill, align 8
  call void @llvm.dbg.declare(metadata void ()** %_1.dbg.spill, metadata !559, metadata !DIExpression()), !dbg !563
  call void @llvm.dbg.declare(metadata {}* %_2, metadata !560, metadata !DIExpression()), !dbg !563
  call void %_1(), !dbg !563
  br label %bb1, !dbg !563

bb1:                                              ; preds = %start
  ret void, !dbg !563
}

; core::ops::function::FnOnce::call_once
; Function Attrs: inlinehint nonlazybind uwtable
define internal void @_ZN4core3ops8function6FnOnce9call_once17h5347e9b2532e937fE() unnamed_addr #2 personality i32 (i32, i32, i64, %"unwind::libunwind::_Unwind_Exception"*, %"unwind::libunwind::_Unwind_Context"*)* @rust_eh_personality !dbg !564 {
start:
  %0 = alloca { i8*, i32 }, align 8
  %_2 = alloca {}, align 1
  %_1 = alloca %"[closure@src/test_conditionals.rs:86:1: 93:2]", align 1
  call void @llvm.dbg.declare(metadata %"[closure@src/test_conditionals.rs:86:1: 93:2]"* %_1, metadata !570, metadata !DIExpression()), !dbg !574
  call void @llvm.dbg.declare(metadata {}* %_2, metadata !571, metadata !DIExpression()), !dbg !574
; invoke conditional_tests::test_conditionals::test_else_if_chain::{{closure}}
  invoke void @"_ZN17conditional_tests17test_conditionals18test_else_if_chain28_$u7b$$u7b$closure$u7d$$u7d$17hf37685b35be62b33E"(%"[closure@src/test_conditionals.rs:86:1: 93:2]"* align 1 %_1)
          to label %bb1 unwind label %cleanup, !dbg !574

bb3:                                              ; preds = %cleanup
  br label %bb4, !dbg !574

cleanup:                                          ; preds = %start
  %1 = landingpad { i8*, i32 }
          cleanup
  %2 = extractvalue { i8*, i32 } %1, 0
  %3 = extractvalue { i8*, i32 } %1, 1
  %4 = getelementptr inbounds { i8*, i32 }, { i8*, i32 }* %0, i32 0, i32 0
  store i8* %2, i8** %4, align 8
  %5 = getelementptr inbounds { i8*, i32 }, { i8*, i32 }* %0, i32 0, i32 1
  store i32 %3, i32* %5, align 8
  br label %bb3

bb1:                                              ; preds = %start
  br label %bb2, !dbg !574

bb4:                                              ; preds = %bb3
  %6 = bitcast { i8*, i32 }* %0 to i8**, !dbg !574
  %7 = load i8*, i8** %6, align 8, !dbg !574
  %8 = getelementptr inbounds { i8*, i32 }, { i8*, i32 }* %0, i32 0, i32 1, !dbg !574
  %9 = load i32, i32* %8, align 8, !dbg !574
  %10 = insertvalue { i8*, i32 } undef, i8* %7, 0, !dbg !574
  %11 = insertvalue { i8*, i32 } %10, i32 %9, 1, !dbg !574
  resume { i8*, i32 } %11, !dbg !574

bb2:                                              ; preds = %bb1
  ret void, !dbg !574
}

; core::ops::function::FnOnce::call_once
; Function Attrs: inlinehint nonlazybind uwtable
define internal void @_ZN4core3ops8function6FnOnce9call_once17h5645bfeebb5e2baeE() unnamed_addr #2 personality i32 (i32, i32, i64, %"unwind::libunwind::_Unwind_Exception"*, %"unwind::libunwind::_Unwind_Context"*)* @rust_eh_personality !dbg !575 {
start:
  %0 = alloca { i8*, i32 }, align 8
  %_2 = alloca {}, align 1
  %_1 = alloca %"[closure@src/test_conditionals.rs:45:1: 59:2]", align 1
  call void @llvm.dbg.declare(metadata %"[closure@src/test_conditionals.rs:45:1: 59:2]"* %_1, metadata !581, metadata !DIExpression()), !dbg !585
  call void @llvm.dbg.declare(metadata {}* %_2, metadata !582, metadata !DIExpression()), !dbg !585
; invoke conditional_tests::test_conditionals::test_buffer2::{{closure}}
  invoke void @"_ZN17conditional_tests17test_conditionals12test_buffer228_$u7b$$u7b$closure$u7d$$u7d$17hc5391ed2828097a9E"(%"[closure@src/test_conditionals.rs:45:1: 59:2]"* align 1 %_1)
          to label %bb1 unwind label %cleanup, !dbg !585

bb3:                                              ; preds = %cleanup
  br label %bb4, !dbg !585

cleanup:                                          ; preds = %start
  %1 = landingpad { i8*, i32 }
          cleanup
  %2 = extractvalue { i8*, i32 } %1, 0
  %3 = extractvalue { i8*, i32 } %1, 1
  %4 = getelementptr inbounds { i8*, i32 }, { i8*, i32 }* %0, i32 0, i32 0
  store i8* %2, i8** %4, align 8
  %5 = getelementptr inbounds { i8*, i32 }, { i8*, i32 }* %0, i32 0, i32 1
  store i32 %3, i32* %5, align 8
  br label %bb3

bb1:                                              ; preds = %start
  br label %bb2, !dbg !585

bb4:                                              ; preds = %bb3
  %6 = bitcast { i8*, i32 }* %0 to i8**, !dbg !585
  %7 = load i8*, i8** %6, align 8, !dbg !585
  %8 = getelementptr inbounds { i8*, i32 }, { i8*, i32 }* %0, i32 0, i32 1, !dbg !585
  %9 = load i32, i32* %8, align 8, !dbg !585
  %10 = insertvalue { i8*, i32 } undef, i8* %7, 0, !dbg !585
  %11 = insertvalue { i8*, i32 } %10, i32 %9, 1, !dbg !585
  resume { i8*, i32 } %11, !dbg !585

bb2:                                              ; preds = %bb1
  ret void, !dbg !585
}

; core::ops::function::FnOnce::call_once
; Function Attrs: inlinehint nonlazybind uwtable
define internal void @_ZN4core3ops8function6FnOnce9call_once17hf46fb3a7b6d671f2E() unnamed_addr #2 personality i32 (i32, i32, i64, %"unwind::libunwind::_Unwind_Exception"*, %"unwind::libunwind::_Unwind_Context"*)* @rust_eh_personality !dbg !586 {
start:
  %0 = alloca { i8*, i32 }, align 8
  %_2 = alloca {}, align 1
  %_1 = alloca %"[closure@src/test_conditionals.rs:30:1: 42:2]", align 1
  call void @llvm.dbg.declare(metadata %"[closure@src/test_conditionals.rs:30:1: 42:2]"* %_1, metadata !592, metadata !DIExpression()), !dbg !596
  call void @llvm.dbg.declare(metadata {}* %_2, metadata !593, metadata !DIExpression()), !dbg !596
; invoke conditional_tests::test_conditionals::test_buffer::{{closure}}
  invoke void @"_ZN17conditional_tests17test_conditionals11test_buffer28_$u7b$$u7b$closure$u7d$$u7d$17hdff9f96680f578d5E"(%"[closure@src/test_conditionals.rs:30:1: 42:2]"* align 1 %_1)
          to label %bb1 unwind label %cleanup, !dbg !596

bb3:                                              ; preds = %cleanup
  br label %bb4, !dbg !596

cleanup:                                          ; preds = %start
  %1 = landingpad { i8*, i32 }
          cleanup
  %2 = extractvalue { i8*, i32 } %1, 0
  %3 = extractvalue { i8*, i32 } %1, 1
  %4 = getelementptr inbounds { i8*, i32 }, { i8*, i32 }* %0, i32 0, i32 0
  store i8* %2, i8** %4, align 8
  %5 = getelementptr inbounds { i8*, i32 }, { i8*, i32 }* %0, i32 0, i32 1
  store i32 %3, i32* %5, align 8
  br label %bb3

bb1:                                              ; preds = %start
  br label %bb2, !dbg !596

bb4:                                              ; preds = %bb3
  %6 = bitcast { i8*, i32 }* %0 to i8**, !dbg !596
  %7 = load i8*, i8** %6, align 8, !dbg !596
  %8 = getelementptr inbounds { i8*, i32 }, { i8*, i32 }* %0, i32 0, i32 1, !dbg !596
  %9 = load i32, i32* %8, align 8, !dbg !596
  %10 = insertvalue { i8*, i32 } undef, i8* %7, 0, !dbg !596
  %11 = insertvalue { i8*, i32 } %10, i32 %9, 1, !dbg !596
  resume { i8*, i32 } %11, !dbg !596

bb2:                                              ; preds = %bb1
  ret void, !dbg !596
}

; core::ops::function::FnOnce::call_once
; Function Attrs: inlinehint nonlazybind uwtable
define internal void @_ZN4core3ops8function6FnOnce9call_once17hf664fea4da24098fE() unnamed_addr #2 personality i32 (i32, i32, i64, %"unwind::libunwind::_Unwind_Exception"*, %"unwind::libunwind::_Unwind_Context"*)* @rust_eh_personality !dbg !597 {
start:
  %0 = alloca { i8*, i32 }, align 8
  %_2 = alloca {}, align 1
  %_1 = alloca %"[closure@src/test_conditionals.rs:77:1: 83:2]", align 1
  call void @llvm.dbg.declare(metadata %"[closure@src/test_conditionals.rs:77:1: 83:2]"* %_1, metadata !603, metadata !DIExpression()), !dbg !607
  call void @llvm.dbg.declare(metadata {}* %_2, metadata !604, metadata !DIExpression()), !dbg !607
; invoke conditional_tests::test_conditionals::test_unused_conditional::{{closure}}
  invoke void @"_ZN17conditional_tests17test_conditionals23test_unused_conditional28_$u7b$$u7b$closure$u7d$$u7d$17hd1164f71b1dc1d06E"(%"[closure@src/test_conditionals.rs:77:1: 83:2]"* align 1 %_1)
          to label %bb1 unwind label %cleanup, !dbg !607

bb3:                                              ; preds = %cleanup
  br label %bb4, !dbg !607

cleanup:                                          ; preds = %start
  %1 = landingpad { i8*, i32 }
          cleanup
  %2 = extractvalue { i8*, i32 } %1, 0
  %3 = extractvalue { i8*, i32 } %1, 1
  %4 = getelementptr inbounds { i8*, i32 }, { i8*, i32 }* %0, i32 0, i32 0
  store i8* %2, i8** %4, align 8
  %5 = getelementptr inbounds { i8*, i32 }, { i8*, i32 }* %0, i32 0, i32 1
  store i32 %3, i32* %5, align 8
  br label %bb3

bb1:                                              ; preds = %start
  br label %bb2, !dbg !607

bb4:                                              ; preds = %bb3
  %6 = bitcast { i8*, i32 }* %0 to i8**, !dbg !607
  %7 = load i8*, i8** %6, align 8, !dbg !607
  %8 = getelementptr inbounds { i8*, i32 }, { i8*, i32 }* %0, i32 0, i32 1, !dbg !607
  %9 = load i32, i32* %8, align 8, !dbg !607
  %10 = insertvalue { i8*, i32 } undef, i8* %7, 0, !dbg !607
  %11 = insertvalue { i8*, i32 } %10, i32 %9, 1, !dbg !607
  resume { i8*, i32 } %11, !dbg !607

bb2:                                              ; preds = %bb1
  ret void, !dbg !607
}

; core::ptr::drop_in_place<&i32>
; Function Attrs: inlinehint nonlazybind uwtable
define internal void @"_ZN4core3ptr28drop_in_place$LT$$RF$i32$GT$17h902ef99a76185d1bE"(i32** %_1) unnamed_addr #2 !dbg !608 {
start:
  %_1.dbg.spill = alloca i32**, align 8
  store i32** %_1, i32*** %_1.dbg.spill, align 8
  call void @llvm.dbg.declare(metadata i32*** %_1.dbg.spill, metadata !614, metadata !DIExpression()), !dbg !615
  ret void, !dbg !615
}

; core::ptr::drop_in_place<&[i32; 4]>
; Function Attrs: inlinehint nonlazybind uwtable
define internal void @"_ZN4core3ptr49drop_in_place$LT$$RF$$u5b$i32$u3b$$u20$4$u5d$$GT$17h8cd2f2f85c518c1cE"([4 x i32]** %_1) unnamed_addr #2 !dbg !616 {
start:
  %_1.dbg.spill = alloca [4 x i32]**, align 8
  store [4 x i32]** %_1, [4 x i32]*** %_1.dbg.spill, align 8
  call void @llvm.dbg.declare(metadata [4 x i32]*** %_1.dbg.spill, metadata !621, metadata !DIExpression()), !dbg !624
  ret void, !dbg !624
}

; core::ptr::drop_in_place<&[i32; 6]>
; Function Attrs: inlinehint nonlazybind uwtable
define internal void @"_ZN4core3ptr49drop_in_place$LT$$RF$$u5b$i32$u3b$$u20$6$u5d$$GT$17h41612eb19462b473E"([6 x i32]** %_1) unnamed_addr #2 !dbg !625 {
start:
  %_1.dbg.spill = alloca [6 x i32]**, align 8
  store [6 x i32]** %_1, [6 x i32]*** %_1.dbg.spill, align 8
  call void @llvm.dbg.declare(metadata [6 x i32]*** %_1.dbg.spill, metadata !630, metadata !DIExpression()), !dbg !633
  ret void, !dbg !633
}

; core::ptr::drop_in_place<&[i32; 30]>
; Function Attrs: inlinehint nonlazybind uwtable
define internal void @"_ZN4core3ptr50drop_in_place$LT$$RF$$u5b$i32$u3b$$u20$30$u5d$$GT$17h59c77ffe7fc654d4E"([30 x i32]** %_1) unnamed_addr #2 !dbg !634 {
start:
  %_1.dbg.spill = alloca [30 x i32]**, align 8
  store [30 x i32]** %_1, [30 x i32]*** %_1.dbg.spill, align 8
  call void @llvm.dbg.declare(metadata [30 x i32]*** %_1.dbg.spill, metadata !639, metadata !DIExpression()), !dbg !642
  ret void, !dbg !642
}

; core::ptr::mut_ptr::<impl *mut T>::is_null
; Function Attrs: inlinehint nonlazybind uwtable
define internal zeroext i1 @"_ZN4core3ptr7mut_ptr31_$LT$impl$u20$$BP$mut$u20$T$GT$7is_null17h8d9ed15824963850E"(%"conditionals::py_flag"* %self) unnamed_addr #2 !dbg !643 {
start:
  %0 = alloca i8, align 1
  %other.dbg.spill = alloca i8*, align 8
  %data_address.dbg.spill = alloca {}*, align 8
  %1 = alloca {}*, align 8
  %self.dbg.spill2 = alloca i8*, align 8
  %metadata.dbg.spill = alloca {}, align 1
  %self.dbg.spill = alloca %"conditionals::py_flag"*, align 8
  %_10 = alloca %"core::ptr::metadata::PtrComponents<u8>", align 8
  %_9 = alloca %"core::ptr::metadata::PtrRepr<u8>", align 8
  store %"conditionals::py_flag"* %self, %"conditionals::py_flag"** %self.dbg.spill, align 8
  call void @llvm.dbg.declare(metadata %"conditionals::py_flag"** %self.dbg.spill, metadata !654, metadata !DIExpression()), !dbg !657
  call void @llvm.dbg.declare(metadata {}* %metadata.dbg.spill, metadata !658, metadata !DIExpression()), !dbg !671
  %self1 = bitcast %"conditionals::py_flag"* %self to i8*, !dbg !677
  store i8* %self1, i8** %self.dbg.spill2, align 8, !dbg !677
  call void @llvm.dbg.declare(metadata i8** %self.dbg.spill2, metadata !678, metadata !DIExpression()), !dbg !684
  %2 = bitcast {}** %1 to i64*, !dbg !685
  store i64 0, i64* %2, align 8, !dbg !685
  %data_address = load {}*, {}** %1, align 8, !dbg !685
  store {}* %data_address, {}** %data_address.dbg.spill, align 8, !dbg !685
  call void @llvm.dbg.declare(metadata {}** %data_address.dbg.spill, metadata !668, metadata !DIExpression()), !dbg !671
  br label %bb1, !dbg !685

bb1:                                              ; preds = %start
  %3 = bitcast %"core::ptr::metadata::PtrComponents<u8>"* %_10 to {}**, !dbg !671
  store {}* %data_address, {}** %3, align 8, !dbg !671
  %4 = bitcast %"core::ptr::metadata::PtrRepr<u8>"* %_9 to %"core::ptr::metadata::PtrComponents<u8>"*, !dbg !671
  %5 = bitcast %"core::ptr::metadata::PtrComponents<u8>"* %4 to i8*, !dbg !671
  %6 = bitcast %"core::ptr::metadata::PtrComponents<u8>"* %_10 to i8*, !dbg !671
  call void @llvm.memcpy.p0i8.p0i8.i64(i8* align 8 %5, i8* align 8 %6, i64 8, i1 false), !dbg !671
  %7 = bitcast %"core::ptr::metadata::PtrRepr<u8>"* %_9 to i8**, !dbg !671
  %other = load i8*, i8** %7, align 8, !dbg !671
  store i8* %other, i8** %other.dbg.spill, align 8, !dbg !671
  call void @llvm.dbg.declare(metadata i8** %other.dbg.spill, metadata !683, metadata !DIExpression()), !dbg !684
  %8 = icmp eq i8* %self1, %other, !dbg !684
  %9 = zext i1 %8 to i8, !dbg !684
  store i8 %9, i8* %0, align 1, !dbg !684
  %10 = load i8, i8* %0, align 1, !dbg !684, !range !392, !noundef !23
  %11 = trunc i8 %10 to i1, !dbg !684
  br label %bb2, !dbg !684

bb2:                                              ; preds = %bb1
  ret i1 %11, !dbg !693
}

; core::ptr::mut_ptr::<impl *mut T>::is_null
; Function Attrs: inlinehint nonlazybind uwtable
define internal zeroext i1 @"_ZN4core3ptr7mut_ptr31_$LT$impl$u20$$BP$mut$u20$T$GT$7is_null17hbc8ea403b93b708aE"(i8* %self) unnamed_addr #2 !dbg !694 {
start:
  %0 = alloca i8, align 1
  %other.dbg.spill = alloca i8*, align 8
  %data_address.dbg.spill = alloca {}*, align 8
  %1 = alloca {}*, align 8
  %self.dbg.spill1 = alloca i8*, align 8
  %metadata.dbg.spill = alloca {}, align 1
  %self.dbg.spill = alloca i8*, align 8
  %_10 = alloca %"core::ptr::metadata::PtrComponents<u8>", align 8
  %_9 = alloca %"core::ptr::metadata::PtrRepr<u8>", align 8
  store i8* %self, i8** %self.dbg.spill, align 8
  call void @llvm.dbg.declare(metadata i8** %self.dbg.spill, metadata !699, metadata !DIExpression()), !dbg !702
  call void @llvm.dbg.declare(metadata {}* %metadata.dbg.spill, metadata !703, metadata !DIExpression()), !dbg !708
  store i8* %self, i8** %self.dbg.spill1, align 8, !dbg !712
  call void @llvm.dbg.declare(metadata i8** %self.dbg.spill1, metadata !713, metadata !DIExpression()), !dbg !717
  %2 = bitcast {}** %1 to i64*, !dbg !718
  store i64 0, i64* %2, align 8, !dbg !718
  %data_address = load {}*, {}** %1, align 8, !dbg !718
  store {}* %data_address, {}** %data_address.dbg.spill, align 8, !dbg !718
  call void @llvm.dbg.declare(metadata {}** %data_address.dbg.spill, metadata !707, metadata !DIExpression()), !dbg !708
  br label %bb1, !dbg !718

bb1:                                              ; preds = %start
  %3 = bitcast %"core::ptr::metadata::PtrComponents<u8>"* %_10 to {}**, !dbg !708
  store {}* %data_address, {}** %3, align 8, !dbg !708
  %4 = bitcast %"core::ptr::metadata::PtrRepr<u8>"* %_9 to %"core::ptr::metadata::PtrComponents<u8>"*, !dbg !708
  %5 = bitcast %"core::ptr::metadata::PtrComponents<u8>"* %4 to i8*, !dbg !708
  %6 = bitcast %"core::ptr::metadata::PtrComponents<u8>"* %_10 to i8*, !dbg !708
  call void @llvm.memcpy.p0i8.p0i8.i64(i8* align 8 %5, i8* align 8 %6, i64 8, i1 false), !dbg !708
  %7 = bitcast %"core::ptr::metadata::PtrRepr<u8>"* %_9 to i8**, !dbg !708
  %other = load i8*, i8** %7, align 8, !dbg !708
  store i8* %other, i8** %other.dbg.spill, align 8, !dbg !708
  call void @llvm.dbg.declare(metadata i8** %other.dbg.spill, metadata !716, metadata !DIExpression()), !dbg !717
  %8 = icmp eq i8* %self, %other, !dbg !717
  %9 = zext i1 %8 to i8, !dbg !717
  store i8 %9, i8* %0, align 1, !dbg !717
  %10 = load i8, i8* %0, align 1, !dbg !717, !range !392, !noundef !23
  %11 = trunc i8 %10 to i1, !dbg !717
  br label %bb2, !dbg !717

bb2:                                              ; preds = %bb1
  ret i1 %11, !dbg !724
}

; core::ptr::drop_in_place<std::rt::lang_start<()>::{{closure}}>
; Function Attrs: inlinehint nonlazybind uwtable
define internal void @"_ZN4core3ptr85drop_in_place$LT$std..rt..lang_start$LT$$LP$$RP$$GT$..$u7b$$u7b$closure$u7d$$u7d$$GT$17hfb6e525a6d2548beE"(i64** %_1) unnamed_addr #2 !dbg !725 {
start:
  %_1.dbg.spill = alloca i64**, align 8
  store i64** %_1, i64*** %_1.dbg.spill, align 8
  call void @llvm.dbg.declare(metadata i64*** %_1.dbg.spill, metadata !729, metadata !DIExpression()), !dbg !732
  ret void, !dbg !732
}

; core::ptr::const_ptr::<impl *const T>::is_null
; Function Attrs: inlinehint nonlazybind uwtable
define internal zeroext i1 @"_ZN4core3ptr9const_ptr33_$LT$impl$u20$$BP$const$u20$T$GT$7is_null17hf54e692882b31083E"(i8* %self) unnamed_addr #2 !dbg !733 {
start:
  %0 = alloca i8, align 1
  %other.dbg.spill = alloca i8*, align 8
  %data_address.dbg.spill = alloca {}*, align 8
  %1 = alloca {}*, align 8
  %self.dbg.spill1 = alloca i8*, align 8
  %metadata.dbg.spill = alloca {}, align 1
  %self.dbg.spill = alloca i8*, align 8
  %_10 = alloca %"core::ptr::metadata::PtrComponents<u8>", align 8
  %_9 = alloca %"core::ptr::metadata::PtrRepr<u8>", align 8
  store i8* %self, i8** %self.dbg.spill, align 8
  call void @llvm.dbg.declare(metadata i8** %self.dbg.spill, metadata !741, metadata !DIExpression()), !dbg !742
  call void @llvm.dbg.declare(metadata {}* %metadata.dbg.spill, metadata !743, metadata !DIExpression()), !dbg !750
  store i8* %self, i8** %self.dbg.spill1, align 8, !dbg !756
  call void @llvm.dbg.declare(metadata i8** %self.dbg.spill1, metadata !757, metadata !DIExpression()), !dbg !763
  %2 = bitcast {}** %1 to i64*, !dbg !764
  store i64 0, i64* %2, align 8, !dbg !764
  %data_address = load {}*, {}** %1, align 8, !dbg !764
  store {}* %data_address, {}** %data_address.dbg.spill, align 8, !dbg !764
  call void @llvm.dbg.declare(metadata {}** %data_address.dbg.spill, metadata !749, metadata !DIExpression()), !dbg !750
  br label %bb1, !dbg !764

bb1:                                              ; preds = %start
  %3 = bitcast %"core::ptr::metadata::PtrComponents<u8>"* %_10 to {}**, !dbg !750
  store {}* %data_address, {}** %3, align 8, !dbg !750
  %4 = bitcast %"core::ptr::metadata::PtrRepr<u8>"* %_9 to %"core::ptr::metadata::PtrComponents<u8>"*, !dbg !750
  %5 = bitcast %"core::ptr::metadata::PtrComponents<u8>"* %4 to i8*, !dbg !750
  %6 = bitcast %"core::ptr::metadata::PtrComponents<u8>"* %_10 to i8*, !dbg !750
  call void @llvm.memcpy.p0i8.p0i8.i64(i8* align 8 %5, i8* align 8 %6, i64 8, i1 false), !dbg !750
  %7 = bitcast %"core::ptr::metadata::PtrRepr<u8>"* %_9 to i8**, !dbg !750
  %other = load i8*, i8** %7, align 8, !dbg !750
  store i8* %other, i8** %other.dbg.spill, align 8, !dbg !750
  call void @llvm.dbg.declare(metadata i8** %other.dbg.spill, metadata !762, metadata !DIExpression()), !dbg !763
  %8 = icmp eq i8* %self, %other, !dbg !763
  %9 = zext i1 %8 to i8, !dbg !763
  store i8 %9, i8* %0, align 1, !dbg !763
  %10 = load i8, i8* %0, align 1, !dbg !763, !range !392, !noundef !23
  %11 = trunc i8 %10 to i1, !dbg !763
  br label %bb2, !dbg !763

bb2:                                              ; preds = %bb1
  ret i1 %11, !dbg !772
}

; core::array::<impl core::fmt::Debug for [T; N]>::fmt
; Function Attrs: nonlazybind uwtable
define internal zeroext i1 @"_ZN4core5array69_$LT$impl$u20$core..fmt..Debug$u20$for$u20$$u5b$T$u3b$$u20$N$u5d$$GT$3fmt17h22373c4754ced3beE"([30 x i32]* align 4 %self, %"core::fmt::Formatter"* align 8 %f) unnamed_addr #1 !dbg !773 {
start:
  %slice.dbg.spill = alloca { [0 x i32]*, i64 }, align 8
  %self.dbg.spill4 = alloca { [0 x i32]*, i64 }, align 8
  %self.dbg.spill3 = alloca [30 x i32]*, align 8
  %self.dbg.spill2 = alloca %"core::ops::range::RangeFull", align 1
  %index.dbg.spill1 = alloca %"core::ops::range::RangeFull", align 1
  %index.dbg.spill = alloca %"core::ops::range::RangeFull", align 1
  %f.dbg.spill = alloca %"core::fmt::Formatter"*, align 8
  %self.dbg.spill = alloca [30 x i32]*, align 8
  %_5 = alloca { [0 x i32]*, i64 }, align 8
  store [30 x i32]* %self, [30 x i32]** %self.dbg.spill, align 8
  call void @llvm.dbg.declare(metadata [30 x i32]** %self.dbg.spill, metadata !780, metadata !DIExpression()), !dbg !782
  store %"core::fmt::Formatter"* %f, %"core::fmt::Formatter"** %f.dbg.spill, align 8
  call void @llvm.dbg.declare(metadata %"core::fmt::Formatter"** %f.dbg.spill, metadata !781, metadata !DIExpression()), !dbg !783
  call void @llvm.dbg.declare(metadata %"core::ops::range::RangeFull"* %index.dbg.spill, metadata !784, metadata !DIExpression()), !dbg !803
  call void @llvm.dbg.declare(metadata %"core::ops::range::RangeFull"* %index.dbg.spill1, metadata !805, metadata !DIExpression()), !dbg !815
  call void @llvm.dbg.declare(metadata %"core::ops::range::RangeFull"* %self.dbg.spill2, metadata !817, metadata !DIExpression()), !dbg !825
  store [30 x i32]* %self, [30 x i32]** %self.dbg.spill3, align 8, !dbg !804
  call void @llvm.dbg.declare(metadata [30 x i32]** %self.dbg.spill3, metadata !800, metadata !DIExpression()), !dbg !803
  %_11.0 = bitcast [30 x i32]* %self to [0 x i32]*, !dbg !803
  %0 = getelementptr inbounds { [0 x i32]*, i64 }, { [0 x i32]*, i64 }* %self.dbg.spill4, i32 0, i32 0, !dbg !803
  store [0 x i32]* %_11.0, [0 x i32]** %0, align 8, !dbg !803
  %1 = getelementptr inbounds { [0 x i32]*, i64 }, { [0 x i32]*, i64 }* %self.dbg.spill4, i32 0, i32 1, !dbg !803
  store i64 30, i64* %1, align 8, !dbg !803
  call void @llvm.dbg.declare(metadata { [0 x i32]*, i64 }* %self.dbg.spill4, metadata !814, metadata !DIExpression()), !dbg !815
  %2 = getelementptr inbounds { [0 x i32]*, i64 }, { [0 x i32]*, i64 }* %slice.dbg.spill, i32 0, i32 0, !dbg !815
  store [0 x i32]* %_11.0, [0 x i32]** %2, align 8, !dbg !815
  %3 = getelementptr inbounds { [0 x i32]*, i64 }, { [0 x i32]*, i64 }* %slice.dbg.spill, i32 0, i32 1, !dbg !815
  store i64 30, i64* %3, align 8, !dbg !815
  call void @llvm.dbg.declare(metadata { [0 x i32]*, i64 }* %slice.dbg.spill, metadata !824, metadata !DIExpression()), !dbg !825
  %4 = getelementptr inbounds { [0 x i32]*, i64 }, { [0 x i32]*, i64 }* %_5, i32 0, i32 0, !dbg !827
  store [0 x i32]* %_11.0, [0 x i32]** %4, align 8, !dbg !827
  %5 = getelementptr inbounds { [0 x i32]*, i64 }, { [0 x i32]*, i64 }* %_5, i32 0, i32 1, !dbg !827
  store i64 30, i64* %5, align 8, !dbg !827
; call <&T as core::fmt::Debug>::fmt
  %6 = call zeroext i1 @"_ZN42_$LT$$RF$T$u20$as$u20$core..fmt..Debug$GT$3fmt17hfd00249108282cbfE"({ [0 x i32]*, i64 }* align 8 %_5, %"core::fmt::Formatter"* align 8 %f), !dbg !828
  br label %bb1, !dbg !828

bb1:                                              ; preds = %start
  ret i1 %6, !dbg !829
}

; core::array::<impl core::fmt::Debug for [T; N]>::fmt
; Function Attrs: nonlazybind uwtable
define internal zeroext i1 @"_ZN4core5array69_$LT$impl$u20$core..fmt..Debug$u20$for$u20$$u5b$T$u3b$$u20$N$u5d$$GT$3fmt17h9a527c9266e25867E"([6 x i32]* align 4 %self, %"core::fmt::Formatter"* align 8 %f) unnamed_addr #1 !dbg !830 {
start:
  %slice.dbg.spill = alloca { [0 x i32]*, i64 }, align 8
  %self.dbg.spill4 = alloca { [0 x i32]*, i64 }, align 8
  %self.dbg.spill3 = alloca [6 x i32]*, align 8
  %self.dbg.spill2 = alloca %"core::ops::range::RangeFull", align 1
  %index.dbg.spill1 = alloca %"core::ops::range::RangeFull", align 1
  %index.dbg.spill = alloca %"core::ops::range::RangeFull", align 1
  %f.dbg.spill = alloca %"core::fmt::Formatter"*, align 8
  %self.dbg.spill = alloca [6 x i32]*, align 8
  %_5 = alloca { [0 x i32]*, i64 }, align 8
  store [6 x i32]* %self, [6 x i32]** %self.dbg.spill, align 8
  call void @llvm.dbg.declare(metadata [6 x i32]** %self.dbg.spill, metadata !834, metadata !DIExpression()), !dbg !836
  store %"core::fmt::Formatter"* %f, %"core::fmt::Formatter"** %f.dbg.spill, align 8
  call void @llvm.dbg.declare(metadata %"core::fmt::Formatter"** %f.dbg.spill, metadata !835, metadata !DIExpression()), !dbg !837
  call void @llvm.dbg.declare(metadata %"core::ops::range::RangeFull"* %index.dbg.spill, metadata !838, metadata !DIExpression()), !dbg !844
  call void @llvm.dbg.declare(metadata %"core::ops::range::RangeFull"* %index.dbg.spill1, metadata !846, metadata !DIExpression()), !dbg !851
  call void @llvm.dbg.declare(metadata %"core::ops::range::RangeFull"* %self.dbg.spill2, metadata !853, metadata !DIExpression()), !dbg !858
  store [6 x i32]* %self, [6 x i32]** %self.dbg.spill3, align 8, !dbg !845
  call void @llvm.dbg.declare(metadata [6 x i32]** %self.dbg.spill3, metadata !843, metadata !DIExpression()), !dbg !844
  %_11.0 = bitcast [6 x i32]* %self to [0 x i32]*, !dbg !844
  %0 = getelementptr inbounds { [0 x i32]*, i64 }, { [0 x i32]*, i64 }* %self.dbg.spill4, i32 0, i32 0, !dbg !844
  store [0 x i32]* %_11.0, [0 x i32]** %0, align 8, !dbg !844
  %1 = getelementptr inbounds { [0 x i32]*, i64 }, { [0 x i32]*, i64 }* %self.dbg.spill4, i32 0, i32 1, !dbg !844
  store i64 6, i64* %1, align 8, !dbg !844
  call void @llvm.dbg.declare(metadata { [0 x i32]*, i64 }* %self.dbg.spill4, metadata !850, metadata !DIExpression()), !dbg !851
  %2 = getelementptr inbounds { [0 x i32]*, i64 }, { [0 x i32]*, i64 }* %slice.dbg.spill, i32 0, i32 0, !dbg !851
  store [0 x i32]* %_11.0, [0 x i32]** %2, align 8, !dbg !851
  %3 = getelementptr inbounds { [0 x i32]*, i64 }, { [0 x i32]*, i64 }* %slice.dbg.spill, i32 0, i32 1, !dbg !851
  store i64 6, i64* %3, align 8, !dbg !851
  call void @llvm.dbg.declare(metadata { [0 x i32]*, i64 }* %slice.dbg.spill, metadata !857, metadata !DIExpression()), !dbg !858
  %4 = getelementptr inbounds { [0 x i32]*, i64 }, { [0 x i32]*, i64 }* %_5, i32 0, i32 0, !dbg !860
  store [0 x i32]* %_11.0, [0 x i32]** %4, align 8, !dbg !860
  %5 = getelementptr inbounds { [0 x i32]*, i64 }, { [0 x i32]*, i64 }* %_5, i32 0, i32 1, !dbg !860
  store i64 6, i64* %5, align 8, !dbg !860
; call <&T as core::fmt::Debug>::fmt
  %6 = call zeroext i1 @"_ZN42_$LT$$RF$T$u20$as$u20$core..fmt..Debug$GT$3fmt17hfd00249108282cbfE"({ [0 x i32]*, i64 }* align 8 %_5, %"core::fmt::Formatter"* align 8 %f), !dbg !861
  br label %bb1, !dbg !861

bb1:                                              ; preds = %start
  ret i1 %6, !dbg !862
}

; core::array::<impl core::fmt::Debug for [T; N]>::fmt
; Function Attrs: nonlazybind uwtable
define internal zeroext i1 @"_ZN4core5array69_$LT$impl$u20$core..fmt..Debug$u20$for$u20$$u5b$T$u3b$$u20$N$u5d$$GT$3fmt17hcabc00bee552e0ecE"([4 x i32]* align 4 %self, %"core::fmt::Formatter"* align 8 %f) unnamed_addr #1 !dbg !863 {
start:
  %slice.dbg.spill = alloca { [0 x i32]*, i64 }, align 8
  %self.dbg.spill4 = alloca { [0 x i32]*, i64 }, align 8
  %self.dbg.spill3 = alloca [4 x i32]*, align 8
  %self.dbg.spill2 = alloca %"core::ops::range::RangeFull", align 1
  %index.dbg.spill1 = alloca %"core::ops::range::RangeFull", align 1
  %index.dbg.spill = alloca %"core::ops::range::RangeFull", align 1
  %f.dbg.spill = alloca %"core::fmt::Formatter"*, align 8
  %self.dbg.spill = alloca [4 x i32]*, align 8
  %_5 = alloca { [0 x i32]*, i64 }, align 8
  store [4 x i32]* %self, [4 x i32]** %self.dbg.spill, align 8
  call void @llvm.dbg.declare(metadata [4 x i32]** %self.dbg.spill, metadata !867, metadata !DIExpression()), !dbg !869
  store %"core::fmt::Formatter"* %f, %"core::fmt::Formatter"** %f.dbg.spill, align 8
  call void @llvm.dbg.declare(metadata %"core::fmt::Formatter"** %f.dbg.spill, metadata !868, metadata !DIExpression()), !dbg !870
  call void @llvm.dbg.declare(metadata %"core::ops::range::RangeFull"* %index.dbg.spill, metadata !871, metadata !DIExpression()), !dbg !877
  call void @llvm.dbg.declare(metadata %"core::ops::range::RangeFull"* %index.dbg.spill1, metadata !879, metadata !DIExpression()), !dbg !884
  call void @llvm.dbg.declare(metadata %"core::ops::range::RangeFull"* %self.dbg.spill2, metadata !886, metadata !DIExpression()), !dbg !891
  store [4 x i32]* %self, [4 x i32]** %self.dbg.spill3, align 8, !dbg !878
  call void @llvm.dbg.declare(metadata [4 x i32]** %self.dbg.spill3, metadata !876, metadata !DIExpression()), !dbg !877
  %_11.0 = bitcast [4 x i32]* %self to [0 x i32]*, !dbg !877
  %0 = getelementptr inbounds { [0 x i32]*, i64 }, { [0 x i32]*, i64 }* %self.dbg.spill4, i32 0, i32 0, !dbg !877
  store [0 x i32]* %_11.0, [0 x i32]** %0, align 8, !dbg !877
  %1 = getelementptr inbounds { [0 x i32]*, i64 }, { [0 x i32]*, i64 }* %self.dbg.spill4, i32 0, i32 1, !dbg !877
  store i64 4, i64* %1, align 8, !dbg !877
  call void @llvm.dbg.declare(metadata { [0 x i32]*, i64 }* %self.dbg.spill4, metadata !883, metadata !DIExpression()), !dbg !884
  %2 = getelementptr inbounds { [0 x i32]*, i64 }, { [0 x i32]*, i64 }* %slice.dbg.spill, i32 0, i32 0, !dbg !884
  store [0 x i32]* %_11.0, [0 x i32]** %2, align 8, !dbg !884
  %3 = getelementptr inbounds { [0 x i32]*, i64 }, { [0 x i32]*, i64 }* %slice.dbg.spill, i32 0, i32 1, !dbg !884
  store i64 4, i64* %3, align 8, !dbg !884
  call void @llvm.dbg.declare(metadata { [0 x i32]*, i64 }* %slice.dbg.spill, metadata !890, metadata !DIExpression()), !dbg !891
  %4 = getelementptr inbounds { [0 x i32]*, i64 }, { [0 x i32]*, i64 }* %_5, i32 0, i32 0, !dbg !893
  store [0 x i32]* %_11.0, [0 x i32]** %4, align 8, !dbg !893
  %5 = getelementptr inbounds { [0 x i32]*, i64 }, { [0 x i32]*, i64 }* %_5, i32 0, i32 1, !dbg !893
  store i64 4, i64* %5, align 8, !dbg !893
; call <&T as core::fmt::Debug>::fmt
  %6 = call zeroext i1 @"_ZN42_$LT$$RF$T$u20$as$u20$core..fmt..Debug$GT$3fmt17hfd00249108282cbfE"({ [0 x i32]*, i64 }* align 8 %_5, %"core::fmt::Formatter"* align 8 %f), !dbg !894
  br label %bb1, !dbg !894

bb1:                                              ; preds = %start
  ret i1 %6, !dbg !895
}

; core::array::equality::<impl core::cmp::PartialEq<[B; N]> for [A; N]>::eq
; Function Attrs: inlinehint nonlazybind uwtable
define internal zeroext i1 @"_ZN4core5array8equality103_$LT$impl$u20$core..cmp..PartialEq$LT$$u5b$B$u3b$$u20$N$u5d$$GT$$u20$for$u20$$u5b$A$u3b$$u20$N$u5d$$GT$2eq17h801033fca19a4772E"([4 x i32]* align 4 %self, [4 x i32]* align 4 %other) unnamed_addr #2 !dbg !896 {
start:
  %other.dbg.spill = alloca [4 x i32]*, align 8
  %self.dbg.spill = alloca [4 x i32]*, align 8
  store [4 x i32]* %self, [4 x i32]** %self.dbg.spill, align 8
  call void @llvm.dbg.declare(metadata [4 x i32]** %self.dbg.spill, metadata !903, metadata !DIExpression()), !dbg !908
  store [4 x i32]* %other, [4 x i32]** %other.dbg.spill, align 8
  call void @llvm.dbg.declare(metadata [4 x i32]** %other.dbg.spill, metadata !904, metadata !DIExpression()), !dbg !909
; call <T as core::array::equality::SpecArrayEq<U,_>>::spec_eq
  %0 = call zeroext i1 @"_ZN69_$LT$T$u20$as$u20$core..array..equality..SpecArrayEq$LT$U$C$_$GT$$GT$7spec_eq17h20f596a7ac84fc96E"([4 x i32]* align 4 %self, [4 x i32]* align 4 %other), !dbg !910
  br label %bb1, !dbg !910

bb1:                                              ; preds = %start
  ret i1 %0, !dbg !911
}

; core::array::equality::<impl core::cmp::PartialEq<[B; N]> for [A; N]>::eq
; Function Attrs: inlinehint nonlazybind uwtable
define internal zeroext i1 @"_ZN4core5array8equality103_$LT$impl$u20$core..cmp..PartialEq$LT$$u5b$B$u3b$$u20$N$u5d$$GT$$u20$for$u20$$u5b$A$u3b$$u20$N$u5d$$GT$2eq17h925cfbd4c1a228e5E"([6 x i32]* align 4 %self, [6 x i32]* align 4 %other) unnamed_addr #2 !dbg !912 {
start:
  %other.dbg.spill = alloca [6 x i32]*, align 8
  %self.dbg.spill = alloca [6 x i32]*, align 8
  store [6 x i32]* %self, [6 x i32]** %self.dbg.spill, align 8
  call void @llvm.dbg.declare(metadata [6 x i32]** %self.dbg.spill, metadata !916, metadata !DIExpression()), !dbg !918
  store [6 x i32]* %other, [6 x i32]** %other.dbg.spill, align 8
  call void @llvm.dbg.declare(metadata [6 x i32]** %other.dbg.spill, metadata !917, metadata !DIExpression()), !dbg !919
; call <T as core::array::equality::SpecArrayEq<U,_>>::spec_eq
  %0 = call zeroext i1 @"_ZN69_$LT$T$u20$as$u20$core..array..equality..SpecArrayEq$LT$U$C$_$GT$$GT$7spec_eq17h6669ee58ec325fa9E"([6 x i32]* align 4 %self, [6 x i32]* align 4 %other), !dbg !920
  br label %bb1, !dbg !920

bb1:                                              ; preds = %start
  ret i1 %0, !dbg !921
}

; core::array::equality::<impl core::cmp::PartialEq<[B; N]> for [A; N]>::eq
; Function Attrs: inlinehint nonlazybind uwtable
define internal zeroext i1 @"_ZN4core5array8equality103_$LT$impl$u20$core..cmp..PartialEq$LT$$u5b$B$u3b$$u20$N$u5d$$GT$$u20$for$u20$$u5b$A$u3b$$u20$N$u5d$$GT$2eq17hdfb198b0892f0dc1E"([30 x i32]* align 4 %self, [30 x i32]* align 4 %other) unnamed_addr #2 !dbg !922 {
start:
  %other.dbg.spill = alloca [30 x i32]*, align 8
  %self.dbg.spill = alloca [30 x i32]*, align 8
  store [30 x i32]* %self, [30 x i32]** %self.dbg.spill, align 8
  call void @llvm.dbg.declare(metadata [30 x i32]** %self.dbg.spill, metadata !926, metadata !DIExpression()), !dbg !928
  store [30 x i32]* %other, [30 x i32]** %other.dbg.spill, align 8
  call void @llvm.dbg.declare(metadata [30 x i32]** %other.dbg.spill, metadata !927, metadata !DIExpression()), !dbg !929
; call <T as core::array::equality::SpecArrayEq<U,_>>::spec_eq
  %0 = call zeroext i1 @"_ZN69_$LT$T$u20$as$u20$core..array..equality..SpecArrayEq$LT$U$C$_$GT$$GT$7spec_eq17h6915c9edf4babcf7E"([30 x i32]* align 4 %self, [30 x i32]* align 4 %other), !dbg !930
  br label %bb1, !dbg !930

bb1:                                              ; preds = %start
  ret i1 %0, !dbg !931
}

; core::slice::<impl [T]>::as_mut_ptr
; Function Attrs: inlinehint nonlazybind uwtable
define internal i32* @"_ZN4core5slice29_$LT$impl$u20$$u5b$T$u5d$$GT$10as_mut_ptr17h3fde33b6a595246eE"([0 x i32]* align 4 %self.0, i64 %self.1) unnamed_addr #2 !dbg !932 {
start:
  %self.dbg.spill = alloca { [0 x i32]*, i64 }, align 8
  %0 = getelementptr inbounds { [0 x i32]*, i64 }, { [0 x i32]*, i64 }* %self.dbg.spill, i32 0, i32 0
  store [0 x i32]* %self.0, [0 x i32]** %0, align 8
  %1 = getelementptr inbounds { [0 x i32]*, i64 }, { [0 x i32]*, i64 }* %self.dbg.spill, i32 0, i32 1
  store i64 %self.1, i64* %1, align 8
  call void @llvm.dbg.declare(metadata { [0 x i32]*, i64 }* %self.dbg.spill, metadata !941, metadata !DIExpression()), !dbg !942
  %2 = bitcast [0 x i32]* %self.0 to i32*, !dbg !943
  ret i32* %2, !dbg !944
}

; core::slice::iter::Iter<T>::new
; Function Attrs: inlinehint nonlazybind uwtable
define internal { i32*, i32* } @"_ZN4core5slice4iter13Iter$LT$T$GT$3new17hc44d8b1467b0945fE"([0 x i32]* align 4 %slice.0, i64 %slice.1) unnamed_addr #2 !dbg !945 {
start:
  %ptr.dbg.spill11 = alloca i32*, align 8
  %0 = alloca i8*, align 8
  %count.dbg.spill10 = alloca i64, align 8
  %self.dbg.spill9 = alloca i8*, align 8
  %count.dbg.spill8 = alloca i64, align 8
  %self.dbg.spill7 = alloca i8*, align 8
  %count.dbg.spill5 = alloca i64, align 8
  %self.dbg.spill4 = alloca i32*, align 8
  %count.dbg.spill = alloca i64, align 8
  %self.dbg.spill3 = alloca i32*, align 8
  %1 = alloca i8, align 1
  %other.dbg.spill = alloca i8*, align 8
  %data_address.dbg.spill = alloca {}*, align 8
  %2 = alloca {}*, align 8
  %self.dbg.spill2 = alloca i8*, align 8
  %self.dbg.spill1 = alloca i32*, align 8
  %ptr.dbg.spill = alloca i32*, align 8
  %self.dbg.spill = alloca { [0 x i32]*, i64 }, align 8
  %metadata.dbg.spill = alloca {}, align 1
  %slice.dbg.spill = alloca { [0 x i32]*, i64 }, align 8
  %_31 = alloca %"core::ptr::metadata::PtrComponents<u8>", align 8
  %_30 = alloca %"core::ptr::metadata::PtrRepr<u8>", align 8
  %_18 = alloca i32*, align 8
  %end = alloca i32*, align 8
  %3 = alloca { i32*, i32* }, align 8
  %4 = getelementptr inbounds { [0 x i32]*, i64 }, { [0 x i32]*, i64 }* %slice.dbg.spill, i32 0, i32 0
  store [0 x i32]* %slice.0, [0 x i32]** %4, align 8
  %5 = getelementptr inbounds { [0 x i32]*, i64 }, { [0 x i32]*, i64 }* %slice.dbg.spill, i32 0, i32 1
  store i64 %slice.1, i64* %5, align 8
  call void @llvm.dbg.declare(metadata { [0 x i32]*, i64 }* %slice.dbg.spill, metadata !948, metadata !DIExpression()), !dbg !953
  call void @llvm.dbg.declare(metadata i32** %end, metadata !951, metadata !DIExpression()), !dbg !954
  call void @llvm.dbg.declare(metadata {}* %metadata.dbg.spill, metadata !955, metadata !DIExpression()), !dbg !960
  %6 = getelementptr inbounds { [0 x i32]*, i64 }, { [0 x i32]*, i64 }* %self.dbg.spill, i32 0, i32 0, !dbg !971
  store [0 x i32]* %slice.0, [0 x i32]** %6, align 8, !dbg !971
  %7 = getelementptr inbounds { [0 x i32]*, i64 }, { [0 x i32]*, i64 }* %self.dbg.spill, i32 0, i32 1, !dbg !971
  store i64 %slice.1, i64* %7, align 8, !dbg !971
  call void @llvm.dbg.declare(metadata { [0 x i32]*, i64 }* %self.dbg.spill, metadata !972, metadata !DIExpression()), !dbg !978
  %ptr = bitcast [0 x i32]* %slice.0 to i32*, !dbg !978
  store i32* %ptr, i32** %ptr.dbg.spill, align 8, !dbg !978
  call void @llvm.dbg.declare(metadata i32** %ptr.dbg.spill, metadata !949, metadata !DIExpression()), !dbg !979
  store i32* %ptr, i32** %self.dbg.spill1, align 8, !dbg !970
  call void @llvm.dbg.declare(metadata i32** %self.dbg.spill1, metadata !968, metadata !DIExpression()), !dbg !980
  %self = bitcast i32* %ptr to i8*, !dbg !980
  store i8* %self, i8** %self.dbg.spill2, align 8, !dbg !980
  call void @llvm.dbg.declare(metadata i8** %self.dbg.spill2, metadata !981, metadata !DIExpression()), !dbg !986
  %8 = bitcast {}** %2 to i64*, !dbg !988
  store i64 0, i64* %8, align 8, !dbg !988
  %data_address = load {}*, {}** %2, align 8, !dbg !988
  store {}* %data_address, {}** %data_address.dbg.spill, align 8, !dbg !988
  call void @llvm.dbg.declare(metadata {}** %data_address.dbg.spill, metadata !959, metadata !DIExpression()), !dbg !960
  br label %bb5, !dbg !988

bb5:                                              ; preds = %start
  %9 = bitcast %"core::ptr::metadata::PtrComponents<u8>"* %_31 to {}**, !dbg !960
  store {}* %data_address, {}** %9, align 8, !dbg !960
  %10 = bitcast %"core::ptr::metadata::PtrRepr<u8>"* %_30 to %"core::ptr::metadata::PtrComponents<u8>"*, !dbg !960
  %11 = bitcast %"core::ptr::metadata::PtrComponents<u8>"* %10 to i8*, !dbg !960
  %12 = bitcast %"core::ptr::metadata::PtrComponents<u8>"* %_31 to i8*, !dbg !960
  call void @llvm.memcpy.p0i8.p0i8.i64(i8* align 8 %11, i8* align 8 %12, i64 8, i1 false), !dbg !960
  %13 = bitcast %"core::ptr::metadata::PtrRepr<u8>"* %_30 to i8**, !dbg !960
  %other = load i8*, i8** %13, align 8, !dbg !960
  store i8* %other, i8** %other.dbg.spill, align 8, !dbg !960
  call void @llvm.dbg.declare(metadata i8** %other.dbg.spill, metadata !985, metadata !DIExpression()), !dbg !986
  %14 = icmp eq i8* %self, %other, !dbg !986
  %15 = zext i1 %14 to i8, !dbg !986
  store i8 %15, i8* %1, align 1, !dbg !986
  %16 = load i8, i8* %1, align 1, !dbg !986, !range !392, !noundef !23
  %_6 = trunc i8 %16 to i1, !dbg !986
  br label %bb6, !dbg !986

bb6:                                              ; preds = %bb5
  %_5 = xor i1 %_6, true, !dbg !994
  call void @llvm.assume(i1 %_5), !dbg !995
  br label %bb1, !dbg !995

bb1:                                              ; preds = %bb6
  br i1 false, label %bb2, label %bb3, !dbg !996

bb2:                                              ; preds = %bb1
  %self6 = bitcast i32* %ptr to i8*, !dbg !997
  store i8* %self6, i8** %self.dbg.spill7, align 8, !dbg !997
  call void @llvm.dbg.declare(metadata i8** %self.dbg.spill7, metadata !998, metadata !DIExpression()), !dbg !1005
  store i64 %slice.1, i64* %count.dbg.spill8, align 8, !dbg !1006
  call void @llvm.dbg.declare(metadata i64* %count.dbg.spill8, metadata !1004, metadata !DIExpression()), !dbg !1005
  store i8* %self6, i8** %self.dbg.spill9, align 8, !dbg !1005
  call void @llvm.dbg.declare(metadata i8** %self.dbg.spill9, metadata !1007, metadata !DIExpression()), !dbg !1014
  store i64 %slice.1, i64* %count.dbg.spill10, align 8, !dbg !1005
  call void @llvm.dbg.declare(metadata i64* %count.dbg.spill10, metadata !1013, metadata !DIExpression()), !dbg !1014
  %17 = getelementptr i8, i8* %self6, i64 %slice.1, !dbg !1014
  store i8* %17, i8** %0, align 8, !dbg !1014
  %_10 = load i8*, i8** %0, align 8, !dbg !1014
  br label %bb7, !dbg !1014

bb3:                                              ; preds = %bb1
  store i32* %ptr, i32** %self.dbg.spill3, align 8, !dbg !1016
  call void @llvm.dbg.declare(metadata i32** %self.dbg.spill3, metadata !1017, metadata !DIExpression()), !dbg !1024
  store i64 %slice.1, i64* %count.dbg.spill, align 8, !dbg !1025
  call void @llvm.dbg.declare(metadata i64* %count.dbg.spill, metadata !1023, metadata !DIExpression()), !dbg !1024
  store i32* %ptr, i32** %self.dbg.spill4, align 8, !dbg !1024
  call void @llvm.dbg.declare(metadata i32** %self.dbg.spill4, metadata !1026, metadata !DIExpression()), !dbg !1033
  store i64 %slice.1, i64* %count.dbg.spill5, align 8, !dbg !1024
  call void @llvm.dbg.declare(metadata i64* %count.dbg.spill5, metadata !1032, metadata !DIExpression()), !dbg !1033
  %18 = getelementptr inbounds i32, i32* %ptr, i64 %slice.1, !dbg !1033
  store i32* %18, i32** %end, align 8, !dbg !1033
  br label %bb8, !dbg !1033

bb8:                                              ; preds = %bb3
  br label %bb4, !dbg !1035

bb4:                                              ; preds = %bb7, %bb8
  store i32* %ptr, i32** %ptr.dbg.spill11, align 8, !dbg !1036
  call void @llvm.dbg.declare(metadata i32** %ptr.dbg.spill11, metadata !1037, metadata !DIExpression()), !dbg !1044
  store i32* %ptr, i32** %_18, align 8, !dbg !1044
  %_21 = load i32*, i32** %end, align 8, !dbg !1046
  %19 = bitcast { i32*, i32* }* %3 to i32**, !dbg !1047
  %20 = load i32*, i32** %_18, align 8, !dbg !1047, !nonnull !23, !noundef !23
  store i32* %20, i32** %19, align 8, !dbg !1047
  %21 = getelementptr inbounds { i32*, i32* }, { i32*, i32* }* %3, i32 0, i32 1, !dbg !1047
  store i32* %_21, i32** %21, align 8, !dbg !1047
  %22 = getelementptr inbounds { i32*, i32* }, { i32*, i32* }* %3, i32 0, i32 0, !dbg !1048
  %23 = load i32*, i32** %22, align 8, !dbg !1048, !nonnull !23, !noundef !23
  %24 = getelementptr inbounds { i32*, i32* }, { i32*, i32* }* %3, i32 0, i32 1, !dbg !1048
  %25 = load i32*, i32** %24, align 8, !dbg !1048
  %26 = insertvalue { i32*, i32* } undef, i32* %23, 0, !dbg !1048
  %27 = insertvalue { i32*, i32* } %26, i32* %25, 1, !dbg !1048
  ret { i32*, i32* } %27, !dbg !1048

bb7:                                              ; preds = %bb2
  %28 = bitcast i8* %_10 to i32*, !dbg !997
  store i32* %28, i32** %end, align 8, !dbg !997
  br label %bb4, !dbg !1035
}

; core::option::Option<T>::is_none
; Function Attrs: inlinehint nonlazybind uwtable
define internal zeroext i1 @"_ZN4core6option15Option$LT$T$GT$7is_none17hf3b2bae5239ee6d0E"(i64** align 8 %self) unnamed_addr #2 !dbg !1049 {
start:
  %self.dbg.spill1 = alloca i64**, align 8
  %self.dbg.spill = alloca i64**, align 8
  %_2 = alloca i8, align 1
  store i64** %self, i64*** %self.dbg.spill, align 8
  call void @llvm.dbg.declare(metadata i64*** %self.dbg.spill, metadata !1071, metadata !DIExpression()), !dbg !1072
  store i64** %self, i64*** %self.dbg.spill1, align 8, !dbg !1073
  call void @llvm.dbg.declare(metadata i64*** %self.dbg.spill1, metadata !1074, metadata !DIExpression()), !dbg !1077
  %0 = bitcast i64** %self to {}**, !dbg !1077
  %1 = load {}*, {}** %0, align 8, !dbg !1077
  %2 = icmp eq {}* %1, null, !dbg !1077
  %_4 = select i1 %2, i64 0, i64 1, !dbg !1077
  %3 = icmp eq i64 %_4, 1, !dbg !1077
  br i1 %3, label %bb3, label %bb2, !dbg !1077

bb3:                                              ; preds = %start
  store i8 1, i8* %_2, align 1, !dbg !1077
  br label %bb1, !dbg !1077

bb2:                                              ; preds = %start
  store i8 0, i8* %_2, align 1, !dbg !1077
  br label %bb1, !dbg !1077

bb1:                                              ; preds = %bb3, %bb2
  %4 = load i8, i8* %_2, align 1, !dbg !1078, !range !392, !noundef !23
  %5 = trunc i8 %4 to i1, !dbg !1078
  %6 = xor i1 %5, true, !dbg !1078
  ret i1 %6, !dbg !1079
}

; core::option::Option<T>::is_some
; Function Attrs: inlinehint nonlazybind uwtable
define internal zeroext i1 @"_ZN4core6option15Option$LT$T$GT$7is_some17hdbe43a3d96313857E"(i64** align 8 %self) unnamed_addr #2 !dbg !1080 {
start:
  %self.dbg.spill = alloca i64**, align 8
  %0 = alloca i8, align 1
  store i64** %self, i64*** %self.dbg.spill, align 8
  call void @llvm.dbg.declare(metadata i64*** %self.dbg.spill, metadata !1082, metadata !DIExpression()), !dbg !1083
  %1 = bitcast i64** %self to {}**, !dbg !1084
  %2 = load {}*, {}** %1, align 8, !dbg !1084
  %3 = icmp eq {}* %2, null, !dbg !1084
  %_2 = select i1 %3, i64 0, i64 1, !dbg !1084
  %4 = icmp eq i64 %_2, 1, !dbg !1085
  br i1 %4, label %bb2, label %bb1, !dbg !1085

bb2:                                              ; preds = %start
  store i8 1, i8* %0, align 1, !dbg !1085
  br label %bb3, !dbg !1085

bb1:                                              ; preds = %start
  store i8 0, i8* %0, align 1, !dbg !1085
  br label %bb3, !dbg !1085

bb3:                                              ; preds = %bb2, %bb1
  %5 = load i8, i8* %0, align 1, !dbg !1086, !range !392, !noundef !23
  %6 = trunc i8 %5 to i1, !dbg !1086
  ret i1 %6, !dbg !1086
}

; core::panicking::assert_failed
; Function Attrs: cold noreturn nonlazybind uwtable
define internal void @_ZN4core9panicking13assert_failed17h4228718d9341afd2E(i8 %kind, [6 x i32]* align 4 %0, [6 x i32]* align 4 %1, %"core::option::Option<core::fmt::Arguments>"* %args, %"core::panic::location::Location"* align 8 %2) unnamed_addr #3 !dbg !1087 {
start:
  %kind.dbg.spill = alloca i8, align 1
  %_13 = alloca %"core::option::Option<core::fmt::Arguments>", align 8
  %right = alloca [6 x i32]*, align 8
  %left = alloca [6 x i32]*, align 8
  store [6 x i32]* %0, [6 x i32]** %left, align 8
  store [6 x i32]* %1, [6 x i32]** %right, align 8
  store i8 %kind, i8* %kind.dbg.spill, align 1
  call void @llvm.dbg.declare(metadata i8* %kind.dbg.spill, metadata !1105, metadata !DIExpression()), !dbg !1111
  call void @llvm.dbg.declare(metadata [6 x i32]** %left, metadata !1106, metadata !DIExpression()), !dbg !1112
  call void @llvm.dbg.declare(metadata [6 x i32]** %right, metadata !1107, metadata !DIExpression()), !dbg !1113
  call void @llvm.dbg.declare(metadata %"core::option::Option<core::fmt::Arguments>"* %args, metadata !1108, metadata !DIExpression()), !dbg !1114
  %_7.0 = bitcast [6 x i32]** %left to {}*, !dbg !1115
  %_10.0 = bitcast [6 x i32]** %right to {}*, !dbg !1116
  %3 = bitcast %"core::option::Option<core::fmt::Arguments>"* %_13 to i8*, !dbg !1117
  %4 = bitcast %"core::option::Option<core::fmt::Arguments>"* %args to i8*, !dbg !1117
  call void @llvm.memcpy.p0i8.p0i8.i64(i8* align 8 %3, i8* align 8 %4, i64 48, i1 false), !dbg !1117
; call core::panicking::assert_failed_inner
  call void @_ZN4core9panicking19assert_failed_inner17h2784388051aff910E(i8 %kind, {}* align 1 %_7.0, [3 x i64]* align 8 bitcast (<{ i8*, [16 x i8], i8* }>* @vtable.2 to [3 x i64]*), {}* align 1 %_10.0, [3 x i64]* align 8 bitcast (<{ i8*, [16 x i8], i8* }>* @vtable.2 to [3 x i64]*), %"core::option::Option<core::fmt::Arguments>"* %_13, %"core::panic::location::Location"* align 8 %2) #13, !dbg !1118
  unreachable, !dbg !1118
}

; core::panicking::assert_failed
; Function Attrs: cold noreturn nonlazybind uwtable
define internal void @_ZN4core9panicking13assert_failed17h5fe8306f006c1b72E(i8 %kind, [30 x i32]* align 4 %0, [30 x i32]* align 4 %1, %"core::option::Option<core::fmt::Arguments>"* %args, %"core::panic::location::Location"* align 8 %2) unnamed_addr #3 !dbg !1119 {
start:
  %kind.dbg.spill = alloca i8, align 1
  %_13 = alloca %"core::option::Option<core::fmt::Arguments>", align 8
  %right = alloca [30 x i32]*, align 8
  %left = alloca [30 x i32]*, align 8
  store [30 x i32]* %0, [30 x i32]** %left, align 8
  store [30 x i32]* %1, [30 x i32]** %right, align 8
  store i8 %kind, i8* %kind.dbg.spill, align 1
  call void @llvm.dbg.declare(metadata i8* %kind.dbg.spill, metadata !1123, metadata !DIExpression()), !dbg !1129
  call void @llvm.dbg.declare(metadata [30 x i32]** %left, metadata !1124, metadata !DIExpression()), !dbg !1130
  call void @llvm.dbg.declare(metadata [30 x i32]** %right, metadata !1125, metadata !DIExpression()), !dbg !1131
  call void @llvm.dbg.declare(metadata %"core::option::Option<core::fmt::Arguments>"* %args, metadata !1126, metadata !DIExpression()), !dbg !1132
  %_7.0 = bitcast [30 x i32]** %left to {}*, !dbg !1133
  %_10.0 = bitcast [30 x i32]** %right to {}*, !dbg !1134
  %3 = bitcast %"core::option::Option<core::fmt::Arguments>"* %_13 to i8*, !dbg !1135
  %4 = bitcast %"core::option::Option<core::fmt::Arguments>"* %args to i8*, !dbg !1135
  call void @llvm.memcpy.p0i8.p0i8.i64(i8* align 8 %3, i8* align 8 %4, i64 48, i1 false), !dbg !1135
; call core::panicking::assert_failed_inner
  call void @_ZN4core9panicking19assert_failed_inner17h2784388051aff910E(i8 %kind, {}* align 1 %_7.0, [3 x i64]* align 8 bitcast (<{ i8*, [16 x i8], i8* }>* @vtable.3 to [3 x i64]*), {}* align 1 %_10.0, [3 x i64]* align 8 bitcast (<{ i8*, [16 x i8], i8* }>* @vtable.3 to [3 x i64]*), %"core::option::Option<core::fmt::Arguments>"* %_13, %"core::panic::location::Location"* align 8 %2) #13, !dbg !1136
  unreachable, !dbg !1136
}

; core::panicking::assert_failed
; Function Attrs: cold noreturn nonlazybind uwtable
define internal void @_ZN4core9panicking13assert_failed17h90b21583f6932c81E(i8 %kind, [4 x i32]* align 4 %0, [4 x i32]* align 4 %1, %"core::option::Option<core::fmt::Arguments>"* %args, %"core::panic::location::Location"* align 8 %2) unnamed_addr #3 !dbg !1137 {
start:
  %kind.dbg.spill = alloca i8, align 1
  %_13 = alloca %"core::option::Option<core::fmt::Arguments>", align 8
  %right = alloca [4 x i32]*, align 8
  %left = alloca [4 x i32]*, align 8
  store [4 x i32]* %0, [4 x i32]** %left, align 8
  store [4 x i32]* %1, [4 x i32]** %right, align 8
  store i8 %kind, i8* %kind.dbg.spill, align 1
  call void @llvm.dbg.declare(metadata i8* %kind.dbg.spill, metadata !1141, metadata !DIExpression()), !dbg !1147
  call void @llvm.dbg.declare(metadata [4 x i32]** %left, metadata !1142, metadata !DIExpression()), !dbg !1148
  call void @llvm.dbg.declare(metadata [4 x i32]** %right, metadata !1143, metadata !DIExpression()), !dbg !1149
  call void @llvm.dbg.declare(metadata %"core::option::Option<core::fmt::Arguments>"* %args, metadata !1144, metadata !DIExpression()), !dbg !1150
  %_7.0 = bitcast [4 x i32]** %left to {}*, !dbg !1151
  %_10.0 = bitcast [4 x i32]** %right to {}*, !dbg !1152
  %3 = bitcast %"core::option::Option<core::fmt::Arguments>"* %_13 to i8*, !dbg !1153
  %4 = bitcast %"core::option::Option<core::fmt::Arguments>"* %args to i8*, !dbg !1153
  call void @llvm.memcpy.p0i8.p0i8.i64(i8* align 8 %3, i8* align 8 %4, i64 48, i1 false), !dbg !1153
; call core::panicking::assert_failed_inner
  call void @_ZN4core9panicking19assert_failed_inner17h2784388051aff910E(i8 %kind, {}* align 1 %_7.0, [3 x i64]* align 8 bitcast (<{ i8*, [16 x i8], i8* }>* @vtable.4 to [3 x i64]*), {}* align 1 %_10.0, [3 x i64]* align 8 bitcast (<{ i8*, [16 x i8], i8* }>* @vtable.4 to [3 x i64]*), %"core::option::Option<core::fmt::Arguments>"* %_13, %"core::panic::location::Location"* align 8 %2) #13, !dbg !1154
  unreachable, !dbg !1154
}

; core::panicking::assert_failed
; Function Attrs: cold noreturn nonlazybind uwtable
define internal void @_ZN4core9panicking13assert_failed17hd56fc17e9b690b15E(i8 %kind, i32* align 4 %0, i32* align 4 %1, %"core::option::Option<core::fmt::Arguments>"* %args, %"core::panic::location::Location"* align 8 %2) unnamed_addr #3 !dbg !1155 {
start:
  %kind.dbg.spill = alloca i8, align 1
  %_13 = alloca %"core::option::Option<core::fmt::Arguments>", align 8
  %right = alloca i32*, align 8
  %left = alloca i32*, align 8
  store i32* %0, i32** %left, align 8
  store i32* %1, i32** %right, align 8
  store i8 %kind, i8* %kind.dbg.spill, align 1
  call void @llvm.dbg.declare(metadata i8* %kind.dbg.spill, metadata !1159, metadata !DIExpression()), !dbg !1165
  call void @llvm.dbg.declare(metadata i32** %left, metadata !1160, metadata !DIExpression()), !dbg !1166
  call void @llvm.dbg.declare(metadata i32** %right, metadata !1161, metadata !DIExpression()), !dbg !1167
  call void @llvm.dbg.declare(metadata %"core::option::Option<core::fmt::Arguments>"* %args, metadata !1162, metadata !DIExpression()), !dbg !1168
  %_7.0 = bitcast i32** %left to {}*, !dbg !1169
  %_10.0 = bitcast i32** %right to {}*, !dbg !1170
  %3 = bitcast %"core::option::Option<core::fmt::Arguments>"* %_13 to i8*, !dbg !1171
  %4 = bitcast %"core::option::Option<core::fmt::Arguments>"* %args to i8*, !dbg !1171
  call void @llvm.memcpy.p0i8.p0i8.i64(i8* align 8 %3, i8* align 8 %4, i64 48, i1 false), !dbg !1171
; call core::panicking::assert_failed_inner
  call void @_ZN4core9panicking19assert_failed_inner17h2784388051aff910E(i8 %kind, {}* align 1 %_7.0, [3 x i64]* align 8 bitcast (<{ i8*, [16 x i8], i8* }>* @vtable.1 to [3 x i64]*), {}* align 1 %_10.0, [3 x i64]* align 8 bitcast (<{ i8*, [16 x i8], i8* }>* @vtable.1 to [3 x i64]*), %"core::option::Option<core::fmt::Arguments>"* %_13, %"core::panic::location::Location"* align 8 %2) #13, !dbg !1172
  unreachable, !dbg !1172
}

; test::assert_test_result
; Function Attrs: nonlazybind uwtable
define internal void @_ZN4test18assert_test_result17he4977d7021825327E() unnamed_addr #1 !dbg !1173 {
start:
  %0 = alloca %"core::fmt::Opaque"*, align 8
  %1 = alloca i1 (%"core::fmt::Opaque"*, %"core::fmt::Formatter"*)*, align 8
  %f.dbg.spill = alloca i1 (i32*, %"core::fmt::Formatter"*)*, align 8
  %x.dbg.spill1 = alloca i32*, align 8
  %x.dbg.spill = alloca i32*, align 8
  %right_val.dbg.spill = alloca i32*, align 8
  %left_val.dbg.spill = alloca i32*, align 8
  %self.dbg.spill = alloca i8*, align 8
  %result.dbg.spill = alloca {}, align 1
  %_30 = alloca { i8*, i64* }, align 8
  %_29 = alloca [1 x { i8*, i64* }], align 8
  %_22 = alloca %"core::fmt::Arguments", align 8
  %_21 = alloca %"core::option::Option<core::fmt::Arguments>", align 8
  %_5 = alloca { i32*, i32* }, align 8
  %self = alloca i8, align 1
  %code = alloca i32, align 4
  call void @llvm.dbg.declare(metadata {}* %result.dbg.spill, metadata !1177, metadata !DIExpression()), !dbg !1188
  call void @llvm.dbg.declare(metadata i32* %code, metadata !1178, metadata !DIExpression()), !dbg !1189
  call void @llvm.dbg.declare(metadata i8* %self, metadata !1190, metadata !DIExpression()), !dbg !1194
; call <() as std::process::Termination>::report
  %2 = call i8 @"_ZN54_$LT$$LP$$RP$$u20$as$u20$std..process..Termination$GT$6report17h338fc0e3af11e91dE"(), !dbg !1195
  store i8 %2, i8* %self, align 1, !dbg !1195
  br label %bb1, !dbg !1195

bb1:                                              ; preds = %start
  store i8* %self, i8** %self.dbg.spill, align 8, !dbg !1194
  call void @llvm.dbg.declare(metadata i8** %self.dbg.spill, metadata !1196, metadata !DIExpression()), !dbg !1200
  %_36 = load i8, i8* %self, align 1, !dbg !1200
  %3 = zext i8 %_36 to i32, !dbg !1200
  store i32 %3, i32* %code, align 4, !dbg !1200
  %4 = bitcast { i32*, i32* }* %_5 to i32**, !dbg !1202
  store i32* %code, i32** %4, align 8, !dbg !1202
  %5 = getelementptr inbounds { i32*, i32* }, { i32*, i32* }* %_5, i32 0, i32 1, !dbg !1202
  store i32* bitcast (<{ [4 x i8] }>* @alloc117 to i32*), i32** %5, align 8, !dbg !1202
  %6 = bitcast { i32*, i32* }* %_5 to i32**, !dbg !1202
  %left_val = load i32*, i32** %6, align 8, !dbg !1202, !nonnull !23, !align !276, !noundef !23
  store i32* %left_val, i32** %left_val.dbg.spill, align 8, !dbg !1202
  call void @llvm.dbg.declare(metadata i32** %left_val.dbg.spill, metadata !1180, metadata !DIExpression()), !dbg !1203
  %7 = getelementptr inbounds { i32*, i32* }, { i32*, i32* }* %_5, i32 0, i32 1, !dbg !1202
  %right_val = load i32*, i32** %7, align 8, !dbg !1202, !nonnull !23, !align !276, !noundef !23
  store i32* %right_val, i32** %right_val.dbg.spill, align 8, !dbg !1202
  call void @llvm.dbg.declare(metadata i32** %right_val.dbg.spill, metadata !1184, metadata !DIExpression()), !dbg !1203
  %_12 = load i32, i32* %left_val, align 4, !dbg !1203
  %_13 = load i32, i32* %right_val, align 4, !dbg !1203
  %_11 = icmp eq i32 %_12, %_13, !dbg !1203
  %_10 = xor i1 %_11, true, !dbg !1203
  br i1 %_10, label %bb2, label %bb4, !dbg !1203

bb4:                                              ; preds = %bb1
  ret void, !dbg !1204

bb2:                                              ; preds = %bb1
  store i32* %code, i32** %x.dbg.spill, align 8, !dbg !1205
  call void @llvm.dbg.declare(metadata i32** %x.dbg.spill, metadata !1206, metadata !DIExpression()), !dbg !1212
  store i32* %code, i32** %x.dbg.spill1, align 8, !dbg !1212
  call void @llvm.dbg.declare(metadata i32** %x.dbg.spill1, metadata !1214, metadata !DIExpression()), !dbg !1222
  store i1 (i32*, %"core::fmt::Formatter"*)* @"_ZN4core3fmt3num3imp52_$LT$impl$u20$core..fmt..Display$u20$for$u20$i32$GT$3fmt17h52a4838d0eaa2babE", i1 (i32*, %"core::fmt::Formatter"*)** %f.dbg.spill, align 8, !dbg !1212
  call void @llvm.dbg.declare(metadata i1 (i32*, %"core::fmt::Formatter"*)** %f.dbg.spill, metadata !1221, metadata !DIExpression()), !dbg !1222
  store i1 (%"core::fmt::Opaque"*, %"core::fmt::Formatter"*)* bitcast (i1 (i32*, %"core::fmt::Formatter"*)* @"_ZN4core3fmt3num3imp52_$LT$impl$u20$core..fmt..Display$u20$for$u20$i32$GT$3fmt17h52a4838d0eaa2babE" to i1 (%"core::fmt::Opaque"*, %"core::fmt::Formatter"*)*), i1 (%"core::fmt::Opaque"*, %"core::fmt::Formatter"*)** %1, align 8, !dbg !1222
  %_39 = load i1 (%"core::fmt::Opaque"*, %"core::fmt::Formatter"*)*, i1 (%"core::fmt::Opaque"*, %"core::fmt::Formatter"*)** %1, align 8, !dbg !1222, !nonnull !23, !noundef !23
  br label %bb5, !dbg !1222

bb5:                                              ; preds = %bb2
  %8 = bitcast i32* %code to %"core::fmt::Opaque"*, !dbg !1222
  store %"core::fmt::Opaque"* %8, %"core::fmt::Opaque"** %0, align 8, !dbg !1222
  %_41 = load %"core::fmt::Opaque"*, %"core::fmt::Opaque"** %0, align 8, !dbg !1222, !nonnull !23, !align !1224, !noundef !23
  br label %bb6, !dbg !1222

bb6:                                              ; preds = %bb5
  %9 = bitcast { i8*, i64* }* %_30 to %"core::fmt::Opaque"**, !dbg !1222
  store %"core::fmt::Opaque"* %_41, %"core::fmt::Opaque"** %9, align 8, !dbg !1222
  %10 = getelementptr inbounds { i8*, i64* }, { i8*, i64* }* %_30, i32 0, i32 1, !dbg !1222
  %11 = bitcast i64** %10 to i1 (%"core::fmt::Opaque"*, %"core::fmt::Formatter"*)**, !dbg !1222
  store i1 (%"core::fmt::Opaque"*, %"core::fmt::Formatter"*)* %_39, i1 (%"core::fmt::Opaque"*, %"core::fmt::Formatter"*)** %11, align 8, !dbg !1222
  %12 = getelementptr inbounds { i8*, i64* }, { i8*, i64* }* %_30, i32 0, i32 0, !dbg !1205
  %13 = load i8*, i8** %12, align 8, !dbg !1205, !nonnull !23, !align !1224, !noundef !23
  %14 = getelementptr inbounds { i8*, i64* }, { i8*, i64* }* %_30, i32 0, i32 1, !dbg !1205
  %15 = load i64*, i64** %14, align 8, !dbg !1205, !nonnull !23, !noundef !23
  %16 = getelementptr inbounds [1 x { i8*, i64* }], [1 x { i8*, i64* }]* %_29, i64 0, i64 0, !dbg !1205
  %17 = getelementptr inbounds { i8*, i64* }, { i8*, i64* }* %16, i32 0, i32 0, !dbg !1205
  store i8* %13, i8** %17, align 8, !dbg !1205
  %18 = getelementptr inbounds { i8*, i64* }, { i8*, i64* }* %16, i32 0, i32 1, !dbg !1205
  store i64* %15, i64** %18, align 8, !dbg !1205
  %_26.0 = bitcast [1 x { i8*, i64* }]* %_29 to [0 x { i8*, i64* }]*, !dbg !1205
; call core::fmt::Arguments::new_v1
  call void @_ZN4core3fmt9Arguments6new_v117h0741548b0913f5a4E(%"core::fmt::Arguments"* sret(%"core::fmt::Arguments") %_22, [0 x { [0 x i8]*, i64 }]* align 8 bitcast (<{ i8*, [8 x i8], i8*, [8 x i8] }>* @alloc120 to [0 x { [0 x i8]*, i64 }]*), i64 2, [0 x { i8*, i64* }]* align 8 %_26.0, i64 1), !dbg !1205
  br label %bb3, !dbg !1205

bb3:                                              ; preds = %bb6
  %19 = bitcast %"core::option::Option<core::fmt::Arguments>"* %_21 to %"core::option::Option<core::fmt::Arguments>::Some"*, !dbg !1205
  %20 = bitcast %"core::option::Option<core::fmt::Arguments>::Some"* %19 to %"core::fmt::Arguments"*, !dbg !1205
  %21 = bitcast %"core::fmt::Arguments"* %20 to i8*, !dbg !1205
  %22 = bitcast %"core::fmt::Arguments"* %_22 to i8*, !dbg !1205
  call void @llvm.memcpy.p0i8.p0i8.i64(i8* align 8 %21, i8* align 8 %22, i64 48, i1 false), !dbg !1205
; call core::panicking::assert_failed
  call void @_ZN4core9panicking13assert_failed17hd56fc17e9b690b15E(i8 0, i32* align 4 %left_val, i32* align 4 %right_val, %"core::option::Option<core::fmt::Arguments>"* %_21, %"core::panic::location::Location"* align 8 bitcast (<{ i8*, [16 x i8] }>* @alloc282 to %"core::panic::location::Location"*)) #13, !dbg !1205
  unreachable, !dbg !1205
}

; <() as std::process::Termination>::report
; Function Attrs: inlinehint nonlazybind uwtable
define internal i8 @"_ZN54_$LT$$LP$$RP$$u20$as$u20$std..process..Termination$GT$6report17h338fc0e3af11e91dE"() unnamed_addr #2 !dbg !1225 {
start:
  %self.dbg.spill = alloca {}, align 1
  call void @llvm.dbg.declare(metadata {}* %self.dbg.spill, metadata !1230, metadata !DIExpression()), !dbg !1231
  ret i8 0, !dbg !1232
}

; <I as core::iter::traits::collect::IntoIterator>::into_iter
; Function Attrs: inlinehint nonlazybind uwtable
define internal { i32*, i32* } @"_ZN63_$LT$I$u20$as$u20$core..iter..traits..collect..IntoIterator$GT$9into_iter17hf885a51955d192d3E"(i32* %self.0, i32* %self.1) unnamed_addr #2 !dbg !1233 {
start:
  %self.dbg.spill = alloca { i32*, i32* }, align 8
  %0 = getelementptr inbounds { i32*, i32* }, { i32*, i32* }* %self.dbg.spill, i32 0, i32 0
  store i32* %self.0, i32** %0, align 8
  %1 = getelementptr inbounds { i32*, i32* }, { i32*, i32* }* %self.dbg.spill, i32 0, i32 1
  store i32* %self.1, i32** %1, align 8
  call void @llvm.dbg.declare(metadata { i32*, i32* }* %self.dbg.spill, metadata !1242, metadata !DIExpression()), !dbg !1244
  %2 = insertvalue { i32*, i32* } undef, i32* %self.0, 0, !dbg !1245
  %3 = insertvalue { i32*, i32* } %2, i32* %self.1, 1, !dbg !1245
  ret { i32*, i32* } %3, !dbg !1245
}

; <T as core::array::equality::SpecArrayEq<U,_>>::spec_eq
; Function Attrs: nonlazybind uwtable
define internal zeroext i1 @"_ZN69_$LT$T$u20$as$u20$core..array..equality..SpecArrayEq$LT$U$C$_$GT$$GT$7spec_eq17h20f596a7ac84fc96E"([4 x i32]* align 4 %a, [4 x i32]* align 4 %b) unnamed_addr #1 !dbg !1246 {
start:
  %0 = alloca i8, align 1
  %b.dbg.spill2 = alloca [4 x i32]*, align 8
  %self.dbg.spill1 = alloca i32*, align 8
  %self.dbg.spill = alloca { [0 x i32]*, i64 }, align 8
  %b.dbg.spill = alloca [4 x i32]*, align 8
  %a.dbg.spill = alloca [4 x i32]*, align 8
  store [4 x i32]* %a, [4 x i32]** %a.dbg.spill, align 8
  call void @llvm.dbg.declare(metadata [4 x i32]** %a.dbg.spill, metadata !1249, metadata !DIExpression()), !dbg !1253
  store [4 x i32]* %b, [4 x i32]** %b.dbg.spill, align 8
  call void @llvm.dbg.declare(metadata [4 x i32]** %b.dbg.spill, metadata !1250, metadata !DIExpression()), !dbg !1254
  %self.0 = bitcast [4 x i32]* %b to [0 x i32]*, !dbg !1255
  %1 = getelementptr inbounds { [0 x i32]*, i64 }, { [0 x i32]*, i64 }* %self.dbg.spill, i32 0, i32 0, !dbg !1255
  store [0 x i32]* %self.0, [0 x i32]** %1, align 8, !dbg !1255
  %2 = getelementptr inbounds { [0 x i32]*, i64 }, { [0 x i32]*, i64 }* %self.dbg.spill, i32 0, i32 1, !dbg !1255
  store i64 4, i64* %2, align 8, !dbg !1255
  call void @llvm.dbg.declare(metadata { [0 x i32]*, i64 }* %self.dbg.spill, metadata !1256, metadata !DIExpression()), !dbg !1260
  %self = bitcast [0 x i32]* %self.0 to i32*, !dbg !1260
  store i32* %self, i32** %self.dbg.spill1, align 8, !dbg !1260
  call void @llvm.dbg.declare(metadata i32** %self.dbg.spill1, metadata !1261, metadata !DIExpression()), !dbg !1269
  %_4 = bitcast i32* %self to [4 x i32]*, !dbg !1269
  store [4 x i32]* %_4, [4 x i32]** %b.dbg.spill2, align 8, !dbg !1270
  call void @llvm.dbg.declare(metadata [4 x i32]** %b.dbg.spill2, metadata !1251, metadata !DIExpression()), !dbg !1271
  %3 = bitcast [4 x i32]* %a to i128*, !dbg !1272
  %4 = load i128, i128* %3, align 4, !dbg !1272
  %5 = bitcast [4 x i32]* %_4 to i128*, !dbg !1272
  %6 = load i128, i128* %5, align 4, !dbg !1272
  %7 = icmp eq i128 %4, %6, !dbg !1272
  %8 = zext i1 %7 to i8, !dbg !1272
  store i8 %8, i8* %0, align 1, !dbg !1272
  %9 = load i8, i8* %0, align 1, !dbg !1272, !range !392, !noundef !23
  %10 = trunc i8 %9 to i1, !dbg !1272
  br label %bb1, !dbg !1272

bb1:                                              ; preds = %start
  ret i1 %10, !dbg !1273
}

; <T as core::array::equality::SpecArrayEq<U,_>>::spec_eq
; Function Attrs: nonlazybind uwtable
define internal zeroext i1 @"_ZN69_$LT$T$u20$as$u20$core..array..equality..SpecArrayEq$LT$U$C$_$GT$$GT$7spec_eq17h6669ee58ec325fa9E"([6 x i32]* align 4 %a, [6 x i32]* align 4 %b) unnamed_addr #1 !dbg !1274 {
start:
  %0 = alloca i8, align 1
  %b.dbg.spill2 = alloca [6 x i32]*, align 8
  %self.dbg.spill1 = alloca i32*, align 8
  %self.dbg.spill = alloca { [0 x i32]*, i64 }, align 8
  %b.dbg.spill = alloca [6 x i32]*, align 8
  %a.dbg.spill = alloca [6 x i32]*, align 8
  store [6 x i32]* %a, [6 x i32]** %a.dbg.spill, align 8
  call void @llvm.dbg.declare(metadata [6 x i32]** %a.dbg.spill, metadata !1276, metadata !DIExpression()), !dbg !1280
  store [6 x i32]* %b, [6 x i32]** %b.dbg.spill, align 8
  call void @llvm.dbg.declare(metadata [6 x i32]** %b.dbg.spill, metadata !1277, metadata !DIExpression()), !dbg !1281
  %self.0 = bitcast [6 x i32]* %b to [0 x i32]*, !dbg !1282
  %1 = getelementptr inbounds { [0 x i32]*, i64 }, { [0 x i32]*, i64 }* %self.dbg.spill, i32 0, i32 0, !dbg !1282
  store [0 x i32]* %self.0, [0 x i32]** %1, align 8, !dbg !1282
  %2 = getelementptr inbounds { [0 x i32]*, i64 }, { [0 x i32]*, i64 }* %self.dbg.spill, i32 0, i32 1, !dbg !1282
  store i64 6, i64* %2, align 8, !dbg !1282
  call void @llvm.dbg.declare(metadata { [0 x i32]*, i64 }* %self.dbg.spill, metadata !1283, metadata !DIExpression()), !dbg !1287
  %self = bitcast [0 x i32]* %self.0 to i32*, !dbg !1287
  store i32* %self, i32** %self.dbg.spill1, align 8, !dbg !1287
  call void @llvm.dbg.declare(metadata i32** %self.dbg.spill1, metadata !1288, metadata !DIExpression()), !dbg !1296
  %_4 = bitcast i32* %self to [6 x i32]*, !dbg !1296
  store [6 x i32]* %_4, [6 x i32]** %b.dbg.spill2, align 8, !dbg !1297
  call void @llvm.dbg.declare(metadata [6 x i32]** %b.dbg.spill2, metadata !1278, metadata !DIExpression()), !dbg !1298
  %3 = bitcast [6 x i32]* %a to i8*, !dbg !1299
  %4 = bitcast [6 x i32]* %_4 to i8*, !dbg !1299
  %5 = call i32 @memcmp(i8* %3, i8* %4, i64 24), !dbg !1299
  %6 = icmp eq i32 %5, 0, !dbg !1299
  %7 = zext i1 %6 to i8, !dbg !1299
  store i8 %7, i8* %0, align 1, !dbg !1299
  %8 = load i8, i8* %0, align 1, !dbg !1299, !range !392, !noundef !23
  %9 = trunc i8 %8 to i1, !dbg !1299
  br label %bb1, !dbg !1299

bb1:                                              ; preds = %start
  ret i1 %9, !dbg !1300
}

; <T as core::array::equality::SpecArrayEq<U,_>>::spec_eq
; Function Attrs: nonlazybind uwtable
define internal zeroext i1 @"_ZN69_$LT$T$u20$as$u20$core..array..equality..SpecArrayEq$LT$U$C$_$GT$$GT$7spec_eq17h6915c9edf4babcf7E"([30 x i32]* align 4 %a, [30 x i32]* align 4 %b) unnamed_addr #1 !dbg !1301 {
start:
  %0 = alloca i8, align 1
  %b.dbg.spill2 = alloca [30 x i32]*, align 8
  %self.dbg.spill1 = alloca i32*, align 8
  %self.dbg.spill = alloca { [0 x i32]*, i64 }, align 8
  %b.dbg.spill = alloca [30 x i32]*, align 8
  %a.dbg.spill = alloca [30 x i32]*, align 8
  store [30 x i32]* %a, [30 x i32]** %a.dbg.spill, align 8
  call void @llvm.dbg.declare(metadata [30 x i32]** %a.dbg.spill, metadata !1303, metadata !DIExpression()), !dbg !1307
  store [30 x i32]* %b, [30 x i32]** %b.dbg.spill, align 8
  call void @llvm.dbg.declare(metadata [30 x i32]** %b.dbg.spill, metadata !1304, metadata !DIExpression()), !dbg !1308
  %self.0 = bitcast [30 x i32]* %b to [0 x i32]*, !dbg !1309
  %1 = getelementptr inbounds { [0 x i32]*, i64 }, { [0 x i32]*, i64 }* %self.dbg.spill, i32 0, i32 0, !dbg !1309
  store [0 x i32]* %self.0, [0 x i32]** %1, align 8, !dbg !1309
  %2 = getelementptr inbounds { [0 x i32]*, i64 }, { [0 x i32]*, i64 }* %self.dbg.spill, i32 0, i32 1, !dbg !1309
  store i64 30, i64* %2, align 8, !dbg !1309
  call void @llvm.dbg.declare(metadata { [0 x i32]*, i64 }* %self.dbg.spill, metadata !1310, metadata !DIExpression()), !dbg !1314
  %self = bitcast [0 x i32]* %self.0 to i32*, !dbg !1314
  store i32* %self, i32** %self.dbg.spill1, align 8, !dbg !1314
  call void @llvm.dbg.declare(metadata i32** %self.dbg.spill1, metadata !1315, metadata !DIExpression()), !dbg !1323
  %_4 = bitcast i32* %self to [30 x i32]*, !dbg !1323
  store [30 x i32]* %_4, [30 x i32]** %b.dbg.spill2, align 8, !dbg !1324
  call void @llvm.dbg.declare(metadata [30 x i32]** %b.dbg.spill2, metadata !1305, metadata !DIExpression()), !dbg !1325
  %3 = bitcast [30 x i32]* %a to i8*, !dbg !1326
  %4 = bitcast [30 x i32]* %_4 to i8*, !dbg !1326
  %5 = call i32 @memcmp(i8* %3, i8* %4, i64 120), !dbg !1326
  %6 = icmp eq i32 %5, 0, !dbg !1326
  %7 = zext i1 %6 to i8, !dbg !1326
  store i8 %7, i8* %0, align 1, !dbg !1326
  %8 = load i8, i8* %0, align 1, !dbg !1326, !range !392, !noundef !23
  %9 = trunc i8 %8 to i1, !dbg !1326
  br label %bb1, !dbg !1326

bb1:                                              ; preds = %start
  ret i1 %9, !dbg !1327
}

; <core::slice::iter::Iter<T> as core::iter::traits::iterator::Iterator>::next
; Function Attrs: inlinehint nonlazybind uwtable
define internal align 4 i32* @"_ZN91_$LT$core..slice..iter..Iter$LT$T$GT$$u20$as$u20$core..iter..traits..iterator..Iterator$GT$4next17h593eee93ba0b712dE"({ i32*, i32* }* align 8 %self) unnamed_addr #2 !dbg !1328 {
start:
  %self.dbg.spill26 = alloca i32*, align 8
  %0 = alloca i8*, align 8
  %self.dbg.spill24 = alloca i8*, align 8
  %ptr.dbg.spill = alloca i32*, align 8
  %1 = alloca i32*, align 8
  %self.dbg.spill22 = alloca i32*, align 8
  %self.dbg.spill21 = alloca i32*, align 8
  %old.dbg.spill = alloca i32*, align 8
  %self.dbg.spill19 = alloca i32*, align 8
  %self.dbg.spill17 = alloca { i32*, i32* }*, align 8
  %self.dbg.spill16 = alloca i32*, align 8
  %2 = alloca i8, align 1
  %other.dbg.spill14 = alloca i8*, align 8
  %data_address.dbg.spill12 = alloca {}*, align 8
  %3 = alloca {}*, align 8
  %self.dbg.spill10 = alloca i8*, align 8
  %self.dbg.spill8 = alloca i32*, align 8
  %4 = alloca i8, align 1
  %other.dbg.spill = alloca i8*, align 8
  %data_address.dbg.spill = alloca {}*, align 8
  %5 = alloca {}*, align 8
  %self.dbg.spill6 = alloca i8*, align 8
  %self.dbg.spill4 = alloca i32*, align 8
  %self.dbg.spill3 = alloca i32*, align 8
  %metadata.dbg.spill1 = alloca {}, align 1
  %metadata.dbg.spill = alloca {}, align 1
  %self.dbg.spill = alloca { i32*, i32* }*, align 8
  %_62 = alloca i32*, align 8
  %_47 = alloca %"core::ptr::metadata::PtrComponents<u8>", align 8
  %_46 = alloca %"core::ptr::metadata::PtrRepr<u8>", align 8
  %_30 = alloca %"core::ptr::metadata::PtrComponents<u8>", align 8
  %_29 = alloca %"core::ptr::metadata::PtrRepr<u8>", align 8
  %_19 = alloca i32*, align 8
  %6 = alloca i32*, align 8
  store { i32*, i32* }* %self, { i32*, i32* }** %self.dbg.spill, align 8
  call void @llvm.dbg.declare(metadata { i32*, i32* }** %self.dbg.spill, metadata !1346, metadata !DIExpression()), !dbg !1347
  call void @llvm.dbg.declare(metadata {}* %metadata.dbg.spill, metadata !1348, metadata !DIExpression()), !dbg !1353
  call void @llvm.dbg.declare(metadata {}* %metadata.dbg.spill1, metadata !1364, metadata !DIExpression()), !dbg !1369
  %7 = bitcast { i32*, i32* }* %self to i32**, !dbg !1363
  %self2 = load i32*, i32** %7, align 8, !dbg !1363, !nonnull !23, !noundef !23
  store i32* %self2, i32** %self.dbg.spill3, align 8, !dbg !1363
  call void @llvm.dbg.declare(metadata i32** %self.dbg.spill3, metadata !1378, metadata !DIExpression()), !dbg !1384
  store i32* %self2, i32** %self.dbg.spill4, align 8, !dbg !1384
  call void @llvm.dbg.declare(metadata i32** %self.dbg.spill4, metadata !1361, metadata !DIExpression()), !dbg !1385
  %self5 = bitcast i32* %self2 to i8*, !dbg !1385
  store i8* %self5, i8** %self.dbg.spill6, align 8, !dbg !1385
  call void @llvm.dbg.declare(metadata i8** %self.dbg.spill6, metadata !1386, metadata !DIExpression()), !dbg !1391
  %8 = bitcast {}** %5 to i64*, !dbg !1393
  store i64 0, i64* %8, align 8, !dbg !1393
  %data_address = load {}*, {}** %5, align 8, !dbg !1393
  store {}* %data_address, {}** %data_address.dbg.spill, align 8, !dbg !1393
  call void @llvm.dbg.declare(metadata {}** %data_address.dbg.spill, metadata !1352, metadata !DIExpression()), !dbg !1353
  br label %bb9, !dbg !1393

bb9:                                              ; preds = %start
  %9 = bitcast %"core::ptr::metadata::PtrComponents<u8>"* %_30 to {}**, !dbg !1353
  store {}* %data_address, {}** %9, align 8, !dbg !1353
  %10 = bitcast %"core::ptr::metadata::PtrRepr<u8>"* %_29 to %"core::ptr::metadata::PtrComponents<u8>"*, !dbg !1353
  %11 = bitcast %"core::ptr::metadata::PtrComponents<u8>"* %10 to i8*, !dbg !1353
  %12 = bitcast %"core::ptr::metadata::PtrComponents<u8>"* %_30 to i8*, !dbg !1353
  call void @llvm.memcpy.p0i8.p0i8.i64(i8* align 8 %11, i8* align 8 %12, i64 8, i1 false), !dbg !1353
  %13 = bitcast %"core::ptr::metadata::PtrRepr<u8>"* %_29 to i8**, !dbg !1353
  %other = load i8*, i8** %13, align 8, !dbg !1353
  store i8* %other, i8** %other.dbg.spill, align 8, !dbg !1353
  call void @llvm.dbg.declare(metadata i8** %other.dbg.spill, metadata !1390, metadata !DIExpression()), !dbg !1391
  %14 = icmp eq i8* %self5, %other, !dbg !1391
  %15 = zext i1 %14 to i8, !dbg !1391
  store i8 %15, i8* %4, align 1, !dbg !1391
  %16 = load i8, i8* %4, align 1, !dbg !1391, !range !392, !noundef !23
  %_4 = trunc i8 %16 to i1, !dbg !1391
  br label %bb10, !dbg !1391

bb10:                                             ; preds = %bb9
  %_3 = xor i1 %_4, true, !dbg !1399
  call void @llvm.assume(i1 %_3), !dbg !1400
  br label %bb1, !dbg !1400

bb1:                                              ; preds = %bb10
  br i1 false, label %bb4, label %bb2, !dbg !1401

bb4:                                              ; preds = %bb1
  br label %bb5, !dbg !1402

bb2:                                              ; preds = %bb1
  %17 = getelementptr inbounds { i32*, i32* }, { i32*, i32* }* %self, i32 0, i32 1, !dbg !1377
  %self7 = load i32*, i32** %17, align 8, !dbg !1377
  store i32* %self7, i32** %self.dbg.spill8, align 8, !dbg !1377
  call void @llvm.dbg.declare(metadata i32** %self.dbg.spill8, metadata !1375, metadata !DIExpression()), !dbg !1403
  %self9 = bitcast i32* %self7 to i8*, !dbg !1403
  store i8* %self9, i8** %self.dbg.spill10, align 8, !dbg !1403
  call void @llvm.dbg.declare(metadata i8** %self.dbg.spill10, metadata !1404, metadata !DIExpression()), !dbg !1409
  %18 = bitcast {}** %3 to i64*, !dbg !1411
  store i64 0, i64* %18, align 8, !dbg !1411
  %data_address11 = load {}*, {}** %3, align 8, !dbg !1411
  store {}* %data_address11, {}** %data_address.dbg.spill12, align 8, !dbg !1411
  call void @llvm.dbg.declare(metadata {}** %data_address.dbg.spill12, metadata !1368, metadata !DIExpression()), !dbg !1369
  br label %bb11, !dbg !1411

bb11:                                             ; preds = %bb2
  %19 = bitcast %"core::ptr::metadata::PtrComponents<u8>"* %_47 to {}**, !dbg !1369
  store {}* %data_address11, {}** %19, align 8, !dbg !1369
  %20 = bitcast %"core::ptr::metadata::PtrRepr<u8>"* %_46 to %"core::ptr::metadata::PtrComponents<u8>"*, !dbg !1369
  %21 = bitcast %"core::ptr::metadata::PtrComponents<u8>"* %20 to i8*, !dbg !1369
  %22 = bitcast %"core::ptr::metadata::PtrComponents<u8>"* %_47 to i8*, !dbg !1369
  call void @llvm.memcpy.p0i8.p0i8.i64(i8* align 8 %21, i8* align 8 %22, i64 8, i1 false), !dbg !1369
  %23 = bitcast %"core::ptr::metadata::PtrRepr<u8>"* %_46 to i8**, !dbg !1369
  %other13 = load i8*, i8** %23, align 8, !dbg !1369
  store i8* %other13, i8** %other.dbg.spill14, align 8, !dbg !1369
  call void @llvm.dbg.declare(metadata i8** %other.dbg.spill14, metadata !1408, metadata !DIExpression()), !dbg !1409
  %24 = icmp eq i8* %self9, %other13, !dbg !1409
  %25 = zext i1 %24 to i8, !dbg !1409
  store i8 %25, i8* %2, align 1, !dbg !1409
  %26 = load i8, i8* %2, align 1, !dbg !1409, !range !392, !noundef !23
  %_10 = trunc i8 %26 to i1, !dbg !1409
  br label %bb12, !dbg !1409

bb12:                                             ; preds = %bb11
  %_9 = xor i1 %_10, true, !dbg !1417
  call void @llvm.assume(i1 %_9), !dbg !1418
  br label %bb3, !dbg !1418

bb3:                                              ; preds = %bb12
  br label %bb5, !dbg !1402

bb5:                                              ; preds = %bb4, %bb3
  %27 = bitcast { i32*, i32* }* %self to i32**, !dbg !1419
  %self15 = load i32*, i32** %27, align 8, !dbg !1419, !nonnull !23, !noundef !23
  store i32* %self15, i32** %self.dbg.spill16, align 8, !dbg !1419
  call void @llvm.dbg.declare(metadata i32** %self.dbg.spill16, metadata !1420, metadata !DIExpression()), !dbg !1424
  %28 = getelementptr inbounds { i32*, i32* }, { i32*, i32* }* %self, i32 0, i32 1, !dbg !1419
  %_16 = load i32*, i32** %28, align 8, !dbg !1419
  %_12 = icmp eq i32* %self15, %_16, !dbg !1419
  br i1 %_12, label %bb6, label %bb7, !dbg !1419

bb7:                                              ; preds = %bb5
  store { i32*, i32* }* %self, { i32*, i32* }** %self.dbg.spill17, align 8, !dbg !1426
  call void @llvm.dbg.declare(metadata { i32*, i32* }** %self.dbg.spill17, metadata !1427, metadata !DIExpression()), !dbg !1435
  br i1 false, label %bb13, label %bb14, !dbg !1435

bb6:                                              ; preds = %bb5
  %29 = bitcast i32** %6 to {}**, !dbg !1437
  store {}* null, {}** %29, align 8, !dbg !1437
  br label %bb8, !dbg !1438

bb8:                                              ; preds = %bb15, %bb6
  %30 = load i32*, i32** %6, align 8, !dbg !1439, !align !276
  ret i32* %30, !dbg !1439

bb13:                                             ; preds = %bb7
  %31 = getelementptr inbounds { i32*, i32* }, { i32*, i32* }* %self, i32 0, i32 1, !dbg !1435
  %_56 = load i32*, i32** %31, align 8, !dbg !1435
  %self23 = bitcast i32* %_56 to i8*, !dbg !1435
  store i8* %self23, i8** %self.dbg.spill24, align 8, !dbg !1435
  call void @llvm.dbg.declare(metadata i8** %self.dbg.spill24, metadata !1440, metadata !DIExpression()), !dbg !1445
  %32 = getelementptr i8, i8* %self23, i64 -1, !dbg !1445
  store i8* %32, i8** %0, align 8, !dbg !1445
  %_54 = load i8*, i8** %0, align 8, !dbg !1445
  br label %bb16, !dbg !1445

bb14:                                             ; preds = %bb7
  %33 = bitcast { i32*, i32* }* %self to i32**, !dbg !1435
  %self18 = load i32*, i32** %33, align 8, !dbg !1435, !nonnull !23, !noundef !23
  store i32* %self18, i32** %self.dbg.spill19, align 8, !dbg !1435
  call void @llvm.dbg.declare(metadata i32** %self.dbg.spill19, metadata !1447, metadata !DIExpression()), !dbg !1451
  store i32* %self18, i32** %old.dbg.spill, align 8, !dbg !1451
  call void @llvm.dbg.declare(metadata i32** %old.dbg.spill, metadata !1433, metadata !DIExpression()), !dbg !1453
  %34 = bitcast { i32*, i32* }* %self to i32**, !dbg !1453
  %self20 = load i32*, i32** %34, align 8, !dbg !1453, !nonnull !23, !noundef !23
  store i32* %self20, i32** %self.dbg.spill21, align 8, !dbg !1453
  call void @llvm.dbg.declare(metadata i32** %self.dbg.spill21, metadata !1454, metadata !DIExpression()), !dbg !1458
  store i32* %self20, i32** %self.dbg.spill22, align 8, !dbg !1458
  call void @llvm.dbg.declare(metadata i32** %self.dbg.spill22, metadata !1460, metadata !DIExpression()), !dbg !1467
  %35 = getelementptr inbounds i32, i32* %self20, i64 1, !dbg !1467
  store i32* %35, i32** %1, align 8, !dbg !1467
  %_73 = load i32*, i32** %1, align 8, !dbg !1467
  br label %bb17, !dbg !1467

bb17:                                             ; preds = %bb14
  store i32* %_73, i32** %ptr.dbg.spill, align 8, !dbg !1467
  call void @llvm.dbg.declare(metadata i32** %ptr.dbg.spill, metadata !1468, metadata !DIExpression()), !dbg !1472
  store i32* %_73, i32** %_62, align 8, !dbg !1472
  %36 = bitcast { i32*, i32* }* %self to i32**, !dbg !1453
  %37 = load i32*, i32** %_62, align 8, !dbg !1453, !nonnull !23, !noundef !23
  store i32* %37, i32** %36, align 8, !dbg !1453
  store i32* %self18, i32** %_19, align 8, !dbg !1453
  br label %bb15, !dbg !1435

bb15:                                             ; preds = %bb16, %bb17
  %_18 = load i32*, i32** %_19, align 8, !dbg !1426
  store i32* %_18, i32** %6, align 8, !dbg !1474
  br label %bb8, !dbg !1438

bb16:                                             ; preds = %bb13
  %38 = getelementptr inbounds { i32*, i32* }, { i32*, i32* }* %self, i32 0, i32 1, !dbg !1435
  %39 = bitcast i8* %_54 to i32*, !dbg !1435
  store i32* %39, i32** %38, align 8, !dbg !1435
  %40 = bitcast { i32*, i32* }* %self to i32**, !dbg !1435
  %self25 = load i32*, i32** %40, align 8, !dbg !1435, !nonnull !23, !noundef !23
  store i32* %self25, i32** %self.dbg.spill26, align 8, !dbg !1435
  call void @llvm.dbg.declare(metadata i32** %self.dbg.spill26, metadata !1475, metadata !DIExpression()), !dbg !1479
  store i32* %self25, i32** %_19, align 8, !dbg !1435
  br label %bb15, !dbg !1435
}

; Function Attrs: nonlazybind uwtable
define dso_local void @rust_entry2(i32 %0, i32* %buffer) unnamed_addr #1 !dbg !1481 {
start:
  %1 = alloca i32*, align 8
  %count.dbg.spill.i58 = alloca i64, align 8
  %self.dbg.spill.i59 = alloca i32*, align 8
  %2 = alloca i32*, align 8
  %count.dbg.spill.i55 = alloca i64, align 8
  %self.dbg.spill.i56 = alloca i32*, align 8
  %3 = alloca i32*, align 8
  %count.dbg.spill.i52 = alloca i64, align 8
  %self.dbg.spill.i53 = alloca i32*, align 8
  %4 = alloca i32*, align 8
  %count.dbg.spill.i49 = alloca i64, align 8
  %self.dbg.spill.i50 = alloca i32*, align 8
  %5 = alloca i32*, align 8
  %count.dbg.spill.i46 = alloca i64, align 8
  %self.dbg.spill.i47 = alloca i32*, align 8
  %6 = alloca i32*, align 8
  %count.dbg.spill.i43 = alloca i64, align 8
  %self.dbg.spill.i44 = alloca i32*, align 8
  %7 = alloca i32*, align 8
  %count.dbg.spill.i40 = alloca i64, align 8
  %self.dbg.spill.i41 = alloca i32*, align 8
  %8 = alloca i32*, align 8
  %count.dbg.spill.i37 = alloca i64, align 8
  %self.dbg.spill.i38 = alloca i32*, align 8
  %9 = alloca i32*, align 8
  %count.dbg.spill.i34 = alloca i64, align 8
  %self.dbg.spill.i35 = alloca i32*, align 8
  %10 = alloca i32*, align 8
  %count.dbg.spill.i31 = alloca i64, align 8
  %self.dbg.spill.i32 = alloca i32*, align 8
  %11 = alloca i32*, align 8
  %count.dbg.spill.i28 = alloca i64, align 8
  %self.dbg.spill.i29 = alloca i32*, align 8
  %12 = alloca i32*, align 8
  %count.dbg.spill.i25 = alloca i64, align 8
  %self.dbg.spill.i26 = alloca i32*, align 8
  %13 = alloca i32*, align 8
  %count.dbg.spill.i22 = alloca i64, align 8
  %self.dbg.spill.i23 = alloca i32*, align 8
  %14 = alloca i32*, align 8
  %count.dbg.spill.i19 = alloca i64, align 8
  %self.dbg.spill.i20 = alloca i32*, align 8
  %15 = alloca i32*, align 8
  %count.dbg.spill.i16 = alloca i64, align 8
  %self.dbg.spill.i17 = alloca i32*, align 8
  %16 = alloca i32*, align 8
  %count.dbg.spill.i = alloca i64, align 8
  %self.dbg.spill.i = alloca i32*, align 8
  %fresh17.dbg.spill = alloca i32, align 4
  %fresh16.dbg.spill = alloca i32, align 4
  %fresh15.dbg.spill = alloca i32, align 4
  %fresh14.dbg.spill = alloca i32, align 4
  %fresh13.dbg.spill = alloca i32, align 4
  %fresh12.dbg.spill = alloca i32, align 4
  %fresh11.dbg.spill = alloca i32, align 4
  %fresh10.dbg.spill = alloca i32, align 4
  %fresh9.dbg.spill = alloca i32, align 4
  %fresh8.dbg.spill = alloca i32, align 4
  %p1.dbg.spill = alloca i8*, align 8
  %p0.dbg.spill = alloca i8*, align 8
  %fresh7.dbg.spill = alloca i32, align 4
  %fresh5.dbg.spill = alloca i32, align 4
  %fresh3.dbg.spill = alloca i32, align 4
  %fresh2.dbg.spill = alloca i32, align 4
  %fresh1.dbg.spill = alloca i32, align 4
  %fresh0.dbg.spill = alloca i32, align 4
  %buffer.dbg.spill = alloca i32*, align 8
  %_174 = alloca i8, align 1
  %_160 = alloca i8, align 1
  %_146 = alloca i8, align 1
  %_132 = alloca i8, align 1
  %_100 = alloca i8, align 1
  %f1 = alloca i64*, align 8
  %f0 = alloca i64*, align 8
  %i = alloca i32, align 4
  %buffer_size = alloca i32, align 4
  store i32 %0, i32* %buffer_size, align 4
  call void @llvm.dbg.declare(metadata i32* %buffer_size, metadata !1483, metadata !DIExpression()), !dbg !1527
  store i32* %buffer, i32** %buffer.dbg.spill, align 8
  call void @llvm.dbg.declare(metadata i32** %buffer.dbg.spill, metadata !1484, metadata !DIExpression()), !dbg !1528
  call void @llvm.dbg.declare(metadata i32* %i, metadata !1485, metadata !DIExpression()), !dbg !1529
  call void @llvm.dbg.declare(metadata i64** %f0, metadata !1487, metadata !DIExpression()), !dbg !1530
  call void @llvm.dbg.declare(metadata i64** %f1, metadata !1489, metadata !DIExpression()), !dbg !1531
  %_4 = load i32, i32* %buffer_size, align 4, !dbg !1532
  %_3 = icmp ult i32 %_4, 30, !dbg !1532
  br i1 %_3, label %bb91, label %bb1, !dbg !1532

bb1:                                              ; preds = %start
  store i32 0, i32* %i, align 4, !dbg !1533
  %17 = bitcast i64** %f0 to {}**, !dbg !1534
  store {}* null, {}** %17, align 8, !dbg !1534
  %18 = bitcast i64** %f1 to void (i32, i32*)**, !dbg !1535
  store void (i32, i32*)* @rust_entry2, void (i32, i32*)** %18, align 8, !dbg !1535
; call core::option::Option<T>::is_some
  %_10 = call zeroext i1 @"_ZN4core6option15Option$LT$T$GT$7is_some17hdbe43a3d96313857E"(i64** align 8 %f0), !dbg !1536
  br label %bb2, !dbg !1536

bb91:                                             ; preds = %bb90, %bb85, %start
  ret void, !dbg !1537

bb2:                                              ; preds = %bb1
  br i1 %_10, label %bb3, label %bb6, !dbg !1536

bb6:                                              ; preds = %bb5, %bb2
; call core::option::Option<T>::is_some
  %_20 = call zeroext i1 @"_ZN4core6option15Option$LT$T$GT$7is_some17hdbe43a3d96313857E"(i64** align 8 %f1), !dbg !1538
  br label %bb7, !dbg !1538

bb3:                                              ; preds = %bb2
  %fresh0 = load i32, i32* %i, align 4, !dbg !1539
  store i32 %fresh0, i32* %fresh0.dbg.spill, align 4, !dbg !1539
  call void @llvm.dbg.declare(metadata i32* %fresh0.dbg.spill, metadata !1491, metadata !DIExpression()), !dbg !1540
  %_13 = load i32, i32* %i, align 4, !dbg !1541
  %19 = call { i32, i1 } @llvm.sadd.with.overflow.i32(i32 %_13, i32 1), !dbg !1541
  %_14.0 = extractvalue { i32, i1 } %19, 0, !dbg !1541
  %_14.1 = extractvalue { i32, i1 } %19, 1, !dbg !1541
  %20 = call i1 @llvm.expect.i1(i1 %_14.1, i1 false), !dbg !1541
  br i1 %20, label %panic, label %bb4, !dbg !1541

bb4:                                              ; preds = %bb3
  store i32 %_14.0, i32* %i, align 4, !dbg !1542
  %_18 = sext i32 %fresh0 to i64, !dbg !1543
  store i32* %buffer, i32** %self.dbg.spill.i59, align 8
  call void @llvm.dbg.declare(metadata i32** %self.dbg.spill.i59, metadata !1544, metadata !DIExpression()), !dbg !1548
  store i64 %_18, i64* %count.dbg.spill.i58, align 8
  call void @llvm.dbg.declare(metadata i64* %count.dbg.spill.i58, metadata !1547, metadata !DIExpression()), !dbg !1550
  %21 = getelementptr inbounds i32, i32* %buffer, i64 %_18, !dbg !1551
  store i32* %21, i32** %1, align 8, !dbg !1551
  %_3.i60 = load i32*, i32** %1, align 8, !dbg !1551
  br label %bb5, !dbg !1552

panic:                                            ; preds = %bb3
; call core::panicking::panic
  call void @_ZN4core9panicking5panic17hf5844c0338bd061cE([0 x i8]* align 1 bitcast ([28 x i8]* @str.5 to [0 x i8]*), i64 28, %"core::panic::location::Location"* align 8 bitcast (<{ i8*, [16 x i8] }>* @alloc284 to %"core::panic::location::Location"*)) #13, !dbg !1541
  unreachable, !dbg !1541

bb5:                                              ; preds = %bb4
  store i32 1, i32* %_3.i60, align 4, !dbg !1553
  br label %bb6, !dbg !1554

bb7:                                              ; preds = %bb6
  br i1 %_20, label %bb8, label %bb11, !dbg !1538

bb11:                                             ; preds = %bb10, %bb7
; call core::option::Option<T>::is_none
  %_30 = call zeroext i1 @"_ZN4core6option15Option$LT$T$GT$7is_none17hf3b2bae5239ee6d0E"(i64** align 8 %f0), !dbg !1555
  br label %bb12, !dbg !1555

bb8:                                              ; preds = %bb7
  %fresh1 = load i32, i32* %i, align 4, !dbg !1556
  store i32 %fresh1, i32* %fresh1.dbg.spill, align 4, !dbg !1556
  call void @llvm.dbg.declare(metadata i32* %fresh1.dbg.spill, metadata !1493, metadata !DIExpression()), !dbg !1557
  %_23 = load i32, i32* %i, align 4, !dbg !1558
  %22 = call { i32, i1 } @llvm.sadd.with.overflow.i32(i32 %_23, i32 1), !dbg !1558
  %_24.0 = extractvalue { i32, i1 } %22, 0, !dbg !1558
  %_24.1 = extractvalue { i32, i1 } %22, 1, !dbg !1558
  %23 = call i1 @llvm.expect.i1(i1 %_24.1, i1 false), !dbg !1558
  br i1 %23, label %panic1, label %bb9, !dbg !1558

bb9:                                              ; preds = %bb8
  store i32 %_24.0, i32* %i, align 4, !dbg !1559
  %_28 = sext i32 %fresh1 to i64, !dbg !1560
  store i32* %buffer, i32** %self.dbg.spill.i56, align 8
  call void @llvm.dbg.declare(metadata i32** %self.dbg.spill.i56, metadata !1544, metadata !DIExpression()), !dbg !1561
  store i64 %_28, i64* %count.dbg.spill.i55, align 8
  call void @llvm.dbg.declare(metadata i64* %count.dbg.spill.i55, metadata !1547, metadata !DIExpression()), !dbg !1563
  %24 = getelementptr inbounds i32, i32* %buffer, i64 %_28, !dbg !1564
  store i32* %24, i32** %2, align 8, !dbg !1564
  %_3.i57 = load i32*, i32** %2, align 8, !dbg !1564
  br label %bb10, !dbg !1565

panic1:                                           ; preds = %bb8
; call core::panicking::panic
  call void @_ZN4core9panicking5panic17hf5844c0338bd061cE([0 x i8]* align 1 bitcast ([28 x i8]* @str.5 to [0 x i8]*), i64 28, %"core::panic::location::Location"* align 8 bitcast (<{ i8*, [16 x i8] }>* @alloc286 to %"core::panic::location::Location"*)) #13, !dbg !1558
  unreachable, !dbg !1558

bb10:                                             ; preds = %bb9
  store i32 1, i32* %_3.i57, align 4, !dbg !1566
  br label %bb11, !dbg !1567

bb12:                                             ; preds = %bb11
  br i1 %_30, label %bb13, label %bb16, !dbg !1555

bb16:                                             ; preds = %bb15, %bb12
; call core::option::Option<T>::is_none
  %_40 = call zeroext i1 @"_ZN4core6option15Option$LT$T$GT$7is_none17hf3b2bae5239ee6d0E"(i64** align 8 %f1), !dbg !1568
  br label %bb17, !dbg !1568

bb13:                                             ; preds = %bb12
  %fresh2 = load i32, i32* %i, align 4, !dbg !1569
  store i32 %fresh2, i32* %fresh2.dbg.spill, align 4, !dbg !1569
  call void @llvm.dbg.declare(metadata i32* %fresh2.dbg.spill, metadata !1495, metadata !DIExpression()), !dbg !1570
  %_33 = load i32, i32* %i, align 4, !dbg !1571
  %25 = call { i32, i1 } @llvm.sadd.with.overflow.i32(i32 %_33, i32 1), !dbg !1571
  %_34.0 = extractvalue { i32, i1 } %25, 0, !dbg !1571
  %_34.1 = extractvalue { i32, i1 } %25, 1, !dbg !1571
  %26 = call i1 @llvm.expect.i1(i1 %_34.1, i1 false), !dbg !1571
  br i1 %26, label %panic2, label %bb14, !dbg !1571

bb14:                                             ; preds = %bb13
  store i32 %_34.0, i32* %i, align 4, !dbg !1572
  %_38 = sext i32 %fresh2 to i64, !dbg !1573
  store i32* %buffer, i32** %self.dbg.spill.i53, align 8
  call void @llvm.dbg.declare(metadata i32** %self.dbg.spill.i53, metadata !1544, metadata !DIExpression()), !dbg !1574
  store i64 %_38, i64* %count.dbg.spill.i52, align 8
  call void @llvm.dbg.declare(metadata i64* %count.dbg.spill.i52, metadata !1547, metadata !DIExpression()), !dbg !1576
  %27 = getelementptr inbounds i32, i32* %buffer, i64 %_38, !dbg !1577
  store i32* %27, i32** %3, align 8, !dbg !1577
  %_3.i54 = load i32*, i32** %3, align 8, !dbg !1577
  br label %bb15, !dbg !1578

panic2:                                           ; preds = %bb13
; call core::panicking::panic
  call void @_ZN4core9panicking5panic17hf5844c0338bd061cE([0 x i8]* align 1 bitcast ([28 x i8]* @str.5 to [0 x i8]*), i64 28, %"core::panic::location::Location"* align 8 bitcast (<{ i8*, [16 x i8] }>* @alloc288 to %"core::panic::location::Location"*)) #13, !dbg !1571
  unreachable, !dbg !1571

bb15:                                             ; preds = %bb14
  store i32 1, i32* %_3.i54, align 4, !dbg !1579
  br label %bb16, !dbg !1580

bb17:                                             ; preds = %bb16
  br i1 %_40, label %bb18, label %bb21, !dbg !1568

bb21:                                             ; preds = %bb20, %bb17
  %fresh5 = load i32, i32* %i, align 4, !dbg !1581
  store i32 %fresh5, i32* %fresh5.dbg.spill, align 4, !dbg !1581
  call void @llvm.dbg.declare(metadata i32* %fresh5.dbg.spill, metadata !1499, metadata !DIExpression()), !dbg !1582
  %_51 = load i32, i32* %i, align 4, !dbg !1583
  %28 = call { i32, i1 } @llvm.sadd.with.overflow.i32(i32 %_51, i32 1), !dbg !1583
  %_52.0 = extractvalue { i32, i1 } %28, 0, !dbg !1583
  %_52.1 = extractvalue { i32, i1 } %28, 1, !dbg !1583
  %29 = call i1 @llvm.expect.i1(i1 %_52.1, i1 false), !dbg !1583
  br i1 %29, label %panic4, label %bb22, !dbg !1583

bb18:                                             ; preds = %bb17
  %fresh3 = load i32, i32* %i, align 4, !dbg !1584
  store i32 %fresh3, i32* %fresh3.dbg.spill, align 4, !dbg !1584
  call void @llvm.dbg.declare(metadata i32* %fresh3.dbg.spill, metadata !1497, metadata !DIExpression()), !dbg !1585
  %_43 = load i32, i32* %i, align 4, !dbg !1586
  %30 = call { i32, i1 } @llvm.sadd.with.overflow.i32(i32 %_43, i32 1), !dbg !1586
  %_44.0 = extractvalue { i32, i1 } %30, 0, !dbg !1586
  %_44.1 = extractvalue { i32, i1 } %30, 1, !dbg !1586
  %31 = call i1 @llvm.expect.i1(i1 %_44.1, i1 false), !dbg !1586
  br i1 %31, label %panic3, label %bb19, !dbg !1586

bb19:                                             ; preds = %bb18
  store i32 %_44.0, i32* %i, align 4, !dbg !1587
  %_48 = sext i32 %fresh3 to i64, !dbg !1588
  store i32* %buffer, i32** %self.dbg.spill.i50, align 8
  call void @llvm.dbg.declare(metadata i32** %self.dbg.spill.i50, metadata !1544, metadata !DIExpression()), !dbg !1589
  store i64 %_48, i64* %count.dbg.spill.i49, align 8
  call void @llvm.dbg.declare(metadata i64* %count.dbg.spill.i49, metadata !1547, metadata !DIExpression()), !dbg !1591
  %32 = getelementptr inbounds i32, i32* %buffer, i64 %_48, !dbg !1592
  store i32* %32, i32** %4, align 8, !dbg !1592
  %_3.i51 = load i32*, i32** %4, align 8, !dbg !1592
  br label %bb20, !dbg !1593

panic3:                                           ; preds = %bb18
; call core::panicking::panic
  call void @_ZN4core9panicking5panic17hf5844c0338bd061cE([0 x i8]* align 1 bitcast ([28 x i8]* @str.5 to [0 x i8]*), i64 28, %"core::panic::location::Location"* align 8 bitcast (<{ i8*, [16 x i8] }>* @alloc290 to %"core::panic::location::Location"*)) #13, !dbg !1586
  unreachable, !dbg !1586

bb20:                                             ; preds = %bb19
  store i32 1, i32* %_3.i51, align 4, !dbg !1594
  br label %bb21, !dbg !1595

bb22:                                             ; preds = %bb21
  store i32 %_52.0, i32* %i, align 4, !dbg !1596
  %_56 = sext i32 %fresh5 to i64, !dbg !1597
  store i32* %buffer, i32** %self.dbg.spill.i47, align 8
  call void @llvm.dbg.declare(metadata i32** %self.dbg.spill.i47, metadata !1544, metadata !DIExpression()), !dbg !1598
  store i64 %_56, i64* %count.dbg.spill.i46, align 8
  call void @llvm.dbg.declare(metadata i64* %count.dbg.spill.i46, metadata !1547, metadata !DIExpression()), !dbg !1600
  %33 = getelementptr inbounds i32, i32* %buffer, i64 %_56, !dbg !1601
  store i32* %33, i32** %5, align 8, !dbg !1601
  %_3.i48 = load i32*, i32** %5, align 8, !dbg !1601
  br label %bb23, !dbg !1602

panic4:                                           ; preds = %bb21
; call core::panicking::panic
  call void @_ZN4core9panicking5panic17hf5844c0338bd061cE([0 x i8]* align 1 bitcast ([28 x i8]* @str.5 to [0 x i8]*), i64 28, %"core::panic::location::Location"* align 8 bitcast (<{ i8*, [16 x i8] }>* @alloc292 to %"core::panic::location::Location"*)) #13, !dbg !1583
  unreachable, !dbg !1583

bb23:                                             ; preds = %bb22
  store i32 1, i32* %_3.i48, align 4, !dbg !1603
  %fresh7 = load i32, i32* %i, align 4, !dbg !1604
  store i32 %fresh7, i32* %fresh7.dbg.spill, align 4, !dbg !1604
  call void @llvm.dbg.declare(metadata i32* %fresh7.dbg.spill, metadata !1501, metadata !DIExpression()), !dbg !1605
  %_59 = load i32, i32* %i, align 4, !dbg !1606
  %34 = call { i32, i1 } @llvm.sadd.with.overflow.i32(i32 %_59, i32 1), !dbg !1606
  %_60.0 = extractvalue { i32, i1 } %34, 0, !dbg !1606
  %_60.1 = extractvalue { i32, i1 } %34, 1, !dbg !1606
  %35 = call i1 @llvm.expect.i1(i1 %_60.1, i1 false), !dbg !1606
  br i1 %35, label %panic5, label %bb24, !dbg !1606

bb24:                                             ; preds = %bb23
  store i32 %_60.0, i32* %i, align 4, !dbg !1607
  %_64 = sext i32 %fresh7 to i64, !dbg !1608
  store i32* %buffer, i32** %self.dbg.spill.i44, align 8
  call void @llvm.dbg.declare(metadata i32** %self.dbg.spill.i44, metadata !1544, metadata !DIExpression()), !dbg !1609
  store i64 %_64, i64* %count.dbg.spill.i43, align 8
  call void @llvm.dbg.declare(metadata i64* %count.dbg.spill.i43, metadata !1547, metadata !DIExpression()), !dbg !1611
  %36 = getelementptr inbounds i32, i32* %buffer, i64 %_64, !dbg !1612
  store i32* %36, i32** %6, align 8, !dbg !1612
  %_3.i45 = load i32*, i32** %6, align 8, !dbg !1612
  br label %bb25, !dbg !1613

panic5:                                           ; preds = %bb23
; call core::panicking::panic
  call void @_ZN4core9panicking5panic17hf5844c0338bd061cE([0 x i8]* align 1 bitcast ([28 x i8]* @str.5 to [0 x i8]*), i64 28, %"core::panic::location::Location"* align 8 bitcast (<{ i8*, [16 x i8] }>* @alloc294 to %"core::panic::location::Location"*)) #13, !dbg !1606
  unreachable, !dbg !1606

bb25:                                             ; preds = %bb24
  store i32 1, i32* %_3.i45, align 4, !dbg !1614
  store i8* null, i8** %p0.dbg.spill, align 8, !dbg !1615
  call void @llvm.dbg.declare(metadata i8** %p0.dbg.spill, metadata !1503, metadata !DIExpression()), !dbg !1616
  %p1 = bitcast i32* %buffer_size to i8*, !dbg !1617
  store i8* %p1, i8** %p1.dbg.spill, align 8, !dbg !1617
  call void @llvm.dbg.declare(metadata i8** %p1.dbg.spill, metadata !1505, metadata !DIExpression()), !dbg !1618
; call core::ptr::mut_ptr::<impl *mut T>::is_null
  %_71 = call zeroext i1 @"_ZN4core3ptr7mut_ptr31_$LT$impl$u20$$BP$mut$u20$T$GT$7is_null17hbc8ea403b93b708aE"(i8* null), !dbg !1619
  br label %bb26, !dbg !1619

bb26:                                             ; preds = %bb25
  %_70 = xor i1 %_71, true, !dbg !1620
  br i1 %_70, label %bb27, label %bb30, !dbg !1620

bb30:                                             ; preds = %bb29, %bb26
; call core::ptr::const_ptr::<impl *const T>::is_null
  %_82 = call zeroext i1 @"_ZN4core3ptr9const_ptr33_$LT$impl$u20$$BP$const$u20$T$GT$7is_null17hf54e692882b31083E"(i8* %p1), !dbg !1621
  br label %bb31, !dbg !1621

bb27:                                             ; preds = %bb26
  %fresh8 = load i32, i32* %i, align 4, !dbg !1622
  store i32 %fresh8, i32* %fresh8.dbg.spill, align 4, !dbg !1622
  call void @llvm.dbg.declare(metadata i32* %fresh8.dbg.spill, metadata !1507, metadata !DIExpression()), !dbg !1623
  %_74 = load i32, i32* %i, align 4, !dbg !1624
  %37 = call { i32, i1 } @llvm.sadd.with.overflow.i32(i32 %_74, i32 1), !dbg !1624
  %_75.0 = extractvalue { i32, i1 } %37, 0, !dbg !1624
  %_75.1 = extractvalue { i32, i1 } %37, 1, !dbg !1624
  %38 = call i1 @llvm.expect.i1(i1 %_75.1, i1 false), !dbg !1624
  br i1 %38, label %panic6, label %bb28, !dbg !1624

bb28:                                             ; preds = %bb27
  store i32 %_75.0, i32* %i, align 4, !dbg !1625
  %_79 = sext i32 %fresh8 to i64, !dbg !1626
  store i32* %buffer, i32** %self.dbg.spill.i41, align 8
  call void @llvm.dbg.declare(metadata i32** %self.dbg.spill.i41, metadata !1544, metadata !DIExpression()), !dbg !1627
  store i64 %_79, i64* %count.dbg.spill.i40, align 8
  call void @llvm.dbg.declare(metadata i64* %count.dbg.spill.i40, metadata !1547, metadata !DIExpression()), !dbg !1629
  %39 = getelementptr inbounds i32, i32* %buffer, i64 %_79, !dbg !1630
  store i32* %39, i32** %7, align 8, !dbg !1630
  %_3.i42 = load i32*, i32** %7, align 8, !dbg !1630
  br label %bb29, !dbg !1631

panic6:                                           ; preds = %bb27
; call core::panicking::panic
  call void @_ZN4core9panicking5panic17hf5844c0338bd061cE([0 x i8]* align 1 bitcast ([28 x i8]* @str.5 to [0 x i8]*), i64 28, %"core::panic::location::Location"* align 8 bitcast (<{ i8*, [16 x i8] }>* @alloc296 to %"core::panic::location::Location"*)) #13, !dbg !1624
  unreachable, !dbg !1624

bb29:                                             ; preds = %bb28
  store i32 1, i32* %_3.i42, align 4, !dbg !1632
  br label %bb30, !dbg !1633

bb31:                                             ; preds = %bb30
  %_81 = xor i1 %_82, true, !dbg !1634
  br i1 %_81, label %bb32, label %bb35, !dbg !1634

bb35:                                             ; preds = %bb34, %bb31
  %fresh10 = load i32, i32* %i, align 4, !dbg !1635
  store i32 %fresh10, i32* %fresh10.dbg.spill, align 4, !dbg !1635
  call void @llvm.dbg.declare(metadata i32* %fresh10.dbg.spill, metadata !1511, metadata !DIExpression()), !dbg !1636
  %_93 = load i32, i32* %i, align 4, !dbg !1637
  %40 = call { i32, i1 } @llvm.sadd.with.overflow.i32(i32 %_93, i32 1), !dbg !1637
  %_94.0 = extractvalue { i32, i1 } %40, 0, !dbg !1637
  %_94.1 = extractvalue { i32, i1 } %40, 1, !dbg !1637
  %41 = call i1 @llvm.expect.i1(i1 %_94.1, i1 false), !dbg !1637
  br i1 %41, label %panic8, label %bb36, !dbg !1637

bb32:                                             ; preds = %bb31
  %fresh9 = load i32, i32* %i, align 4, !dbg !1638
  store i32 %fresh9, i32* %fresh9.dbg.spill, align 4, !dbg !1638
  call void @llvm.dbg.declare(metadata i32* %fresh9.dbg.spill, metadata !1509, metadata !DIExpression()), !dbg !1639
  %_85 = load i32, i32* %i, align 4, !dbg !1640
  %42 = call { i32, i1 } @llvm.sadd.with.overflow.i32(i32 %_85, i32 1), !dbg !1640
  %_86.0 = extractvalue { i32, i1 } %42, 0, !dbg !1640
  %_86.1 = extractvalue { i32, i1 } %42, 1, !dbg !1640
  %43 = call i1 @llvm.expect.i1(i1 %_86.1, i1 false), !dbg !1640
  br i1 %43, label %panic7, label %bb33, !dbg !1640

bb33:                                             ; preds = %bb32
  store i32 %_86.0, i32* %i, align 4, !dbg !1641
  %_90 = sext i32 %fresh9 to i64, !dbg !1642
  store i32* %buffer, i32** %self.dbg.spill.i38, align 8
  call void @llvm.dbg.declare(metadata i32** %self.dbg.spill.i38, metadata !1544, metadata !DIExpression()), !dbg !1643
  store i64 %_90, i64* %count.dbg.spill.i37, align 8
  call void @llvm.dbg.declare(metadata i64* %count.dbg.spill.i37, metadata !1547, metadata !DIExpression()), !dbg !1645
  %44 = getelementptr inbounds i32, i32* %buffer, i64 %_90, !dbg !1646
  store i32* %44, i32** %8, align 8, !dbg !1646
  %_3.i39 = load i32*, i32** %8, align 8, !dbg !1646
  br label %bb34, !dbg !1647

panic7:                                           ; preds = %bb32
; call core::panicking::panic
  call void @_ZN4core9panicking5panic17hf5844c0338bd061cE([0 x i8]* align 1 bitcast ([28 x i8]* @str.5 to [0 x i8]*), i64 28, %"core::panic::location::Location"* align 8 bitcast (<{ i8*, [16 x i8] }>* @alloc298 to %"core::panic::location::Location"*)) #13, !dbg !1640
  unreachable, !dbg !1640

bb34:                                             ; preds = %bb33
  store i32 1, i32* %_3.i39, align 4, !dbg !1648
  br label %bb35, !dbg !1649

bb36:                                             ; preds = %bb35
  store i32 %_94.0, i32* %i, align 4, !dbg !1650
  %_98 = sext i32 %fresh10 to i64, !dbg !1651
  store i32* %buffer, i32** %self.dbg.spill.i35, align 8
  call void @llvm.dbg.declare(metadata i32** %self.dbg.spill.i35, metadata !1544, metadata !DIExpression()), !dbg !1652
  store i64 %_98, i64* %count.dbg.spill.i34, align 8
  call void @llvm.dbg.declare(metadata i64* %count.dbg.spill.i34, metadata !1547, metadata !DIExpression()), !dbg !1654
  %45 = getelementptr inbounds i32, i32* %buffer, i64 %_98, !dbg !1655
  store i32* %45, i32** %9, align 8, !dbg !1655
  %_3.i36 = load i32*, i32** %9, align 8, !dbg !1655
  br label %bb37, !dbg !1656

panic8:                                           ; preds = %bb35
; call core::panicking::panic
  call void @_ZN4core9panicking5panic17hf5844c0338bd061cE([0 x i8]* align 1 bitcast ([28 x i8]* @str.5 to [0 x i8]*), i64 28, %"core::panic::location::Location"* align 8 bitcast (<{ i8*, [16 x i8] }>* @alloc300 to %"core::panic::location::Location"*)) #13, !dbg !1637
  unreachable, !dbg !1637

bb37:                                             ; preds = %bb36
  store i32 1, i32* %_3.i36, align 4, !dbg !1657
; call core::ptr::const_ptr::<impl *const T>::is_null
  %_102 = call zeroext i1 @"_ZN4core3ptr9const_ptr33_$LT$impl$u20$$BP$const$u20$T$GT$7is_null17hf54e692882b31083E"(i8* %p1), !dbg !1658
  br label %bb41, !dbg !1658

bb41:                                             ; preds = %bb37
  %_101 = xor i1 %_102, true, !dbg !1659
  br i1 %_101, label %bb39, label %bb38, !dbg !1659

bb38:                                             ; preds = %bb41
  store i8 0, i8* %_100, align 1, !dbg !1659
  br label %bb40, !dbg !1659

bb39:                                             ; preds = %bb41
  store i8 1, i8* %_100, align 1, !dbg !1659
  br label %bb40, !dbg !1659

bb40:                                             ; preds = %bb38, %bb39
  %46 = load i8, i8* %_100, align 1, !dbg !1659, !range !392, !noundef !23
  %47 = trunc i8 %46 to i1, !dbg !1659
  br i1 %47, label %bb42, label %bb45, !dbg !1659

bb45:                                             ; preds = %bb44, %bb40
; call core::ptr::mut_ptr::<impl *mut T>::is_null
  %_112 = call zeroext i1 @"_ZN4core3ptr7mut_ptr31_$LT$impl$u20$$BP$mut$u20$T$GT$7is_null17hbc8ea403b93b708aE"(i8* null), !dbg !1660
  br label %bb46, !dbg !1660

bb42:                                             ; preds = %bb40
  %fresh11 = load i32, i32* %i, align 4, !dbg !1661
  store i32 %fresh11, i32* %fresh11.dbg.spill, align 4, !dbg !1661
  call void @llvm.dbg.declare(metadata i32* %fresh11.dbg.spill, metadata !1513, metadata !DIExpression()), !dbg !1662
  %_105 = load i32, i32* %i, align 4, !dbg !1663
  %48 = call { i32, i1 } @llvm.sadd.with.overflow.i32(i32 %_105, i32 1), !dbg !1663
  %_106.0 = extractvalue { i32, i1 } %48, 0, !dbg !1663
  %_106.1 = extractvalue { i32, i1 } %48, 1, !dbg !1663
  %49 = call i1 @llvm.expect.i1(i1 %_106.1, i1 false), !dbg !1663
  br i1 %49, label %panic9, label %bb43, !dbg !1663

bb43:                                             ; preds = %bb42
  store i32 %_106.0, i32* %i, align 4, !dbg !1664
  %_110 = sext i32 %fresh11 to i64, !dbg !1665
  store i32* %buffer, i32** %self.dbg.spill.i32, align 8
  call void @llvm.dbg.declare(metadata i32** %self.dbg.spill.i32, metadata !1544, metadata !DIExpression()), !dbg !1666
  store i64 %_110, i64* %count.dbg.spill.i31, align 8
  call void @llvm.dbg.declare(metadata i64* %count.dbg.spill.i31, metadata !1547, metadata !DIExpression()), !dbg !1668
  %50 = getelementptr inbounds i32, i32* %buffer, i64 %_110, !dbg !1669
  store i32* %50, i32** %10, align 8, !dbg !1669
  %_3.i33 = load i32*, i32** %10, align 8, !dbg !1669
  br label %bb44, !dbg !1670

panic9:                                           ; preds = %bb42
; call core::panicking::panic
  call void @_ZN4core9panicking5panic17hf5844c0338bd061cE([0 x i8]* align 1 bitcast ([28 x i8]* @str.5 to [0 x i8]*), i64 28, %"core::panic::location::Location"* align 8 bitcast (<{ i8*, [16 x i8] }>* @alloc302 to %"core::panic::location::Location"*)) #13, !dbg !1663
  unreachable, !dbg !1663

bb44:                                             ; preds = %bb43
  store i32 1, i32* %_3.i33, align 4, !dbg !1671
  br label %bb45, !dbg !1672

bb46:                                             ; preds = %bb45
  br i1 %_112, label %bb47, label %bb50, !dbg !1660

bb50:                                             ; preds = %bb49, %bb46
; call core::ptr::const_ptr::<impl *const T>::is_null
  %_122 = call zeroext i1 @"_ZN4core3ptr9const_ptr33_$LT$impl$u20$$BP$const$u20$T$GT$7is_null17hf54e692882b31083E"(i8* %p1), !dbg !1673
  br label %bb51, !dbg !1673

bb47:                                             ; preds = %bb46
  %fresh12 = load i32, i32* %i, align 4, !dbg !1674
  store i32 %fresh12, i32* %fresh12.dbg.spill, align 4, !dbg !1674
  call void @llvm.dbg.declare(metadata i32* %fresh12.dbg.spill, metadata !1515, metadata !DIExpression()), !dbg !1675
  %_115 = load i32, i32* %i, align 4, !dbg !1676
  %51 = call { i32, i1 } @llvm.sadd.with.overflow.i32(i32 %_115, i32 1), !dbg !1676
  %_116.0 = extractvalue { i32, i1 } %51, 0, !dbg !1676
  %_116.1 = extractvalue { i32, i1 } %51, 1, !dbg !1676
  %52 = call i1 @llvm.expect.i1(i1 %_116.1, i1 false), !dbg !1676
  br i1 %52, label %panic10, label %bb48, !dbg !1676

bb48:                                             ; preds = %bb47
  store i32 %_116.0, i32* %i, align 4, !dbg !1677
  %_120 = sext i32 %fresh12 to i64, !dbg !1678
  store i32* %buffer, i32** %self.dbg.spill.i29, align 8
  call void @llvm.dbg.declare(metadata i32** %self.dbg.spill.i29, metadata !1544, metadata !DIExpression()), !dbg !1679
  store i64 %_120, i64* %count.dbg.spill.i28, align 8
  call void @llvm.dbg.declare(metadata i64* %count.dbg.spill.i28, metadata !1547, metadata !DIExpression()), !dbg !1681
  %53 = getelementptr inbounds i32, i32* %buffer, i64 %_120, !dbg !1682
  store i32* %53, i32** %11, align 8, !dbg !1682
  %_3.i30 = load i32*, i32** %11, align 8, !dbg !1682
  br label %bb49, !dbg !1683

panic10:                                          ; preds = %bb47
; call core::panicking::panic
  call void @_ZN4core9panicking5panic17hf5844c0338bd061cE([0 x i8]* align 1 bitcast ([28 x i8]* @str.5 to [0 x i8]*), i64 28, %"core::panic::location::Location"* align 8 bitcast (<{ i8*, [16 x i8] }>* @alloc304 to %"core::panic::location::Location"*)) #13, !dbg !1676
  unreachable, !dbg !1676

bb49:                                             ; preds = %bb48
  store i32 1, i32* %_3.i30, align 4, !dbg !1684
  br label %bb50, !dbg !1685

bb51:                                             ; preds = %bb50
  br i1 %_122, label %bb52, label %bb55, !dbg !1673

bb55:                                             ; preds = %bb54, %bb51
; call core::ptr::mut_ptr::<impl *mut T>::is_null
  %_134 = call zeroext i1 @"_ZN4core3ptr7mut_ptr31_$LT$impl$u20$$BP$mut$u20$T$GT$7is_null17hbc8ea403b93b708aE"(i8* null), !dbg !1686
  br label %bb59, !dbg !1686

bb52:                                             ; preds = %bb51
  %fresh13 = load i32, i32* %i, align 4, !dbg !1687
  store i32 %fresh13, i32* %fresh13.dbg.spill, align 4, !dbg !1687
  call void @llvm.dbg.declare(metadata i32* %fresh13.dbg.spill, metadata !1517, metadata !DIExpression()), !dbg !1688
  %_125 = load i32, i32* %i, align 4, !dbg !1689
  %54 = call { i32, i1 } @llvm.sadd.with.overflow.i32(i32 %_125, i32 1), !dbg !1689
  %_126.0 = extractvalue { i32, i1 } %54, 0, !dbg !1689
  %_126.1 = extractvalue { i32, i1 } %54, 1, !dbg !1689
  %55 = call i1 @llvm.expect.i1(i1 %_126.1, i1 false), !dbg !1689
  br i1 %55, label %panic11, label %bb53, !dbg !1689

bb53:                                             ; preds = %bb52
  store i32 %_126.0, i32* %i, align 4, !dbg !1690
  %_130 = sext i32 %fresh13 to i64, !dbg !1691
  store i32* %buffer, i32** %self.dbg.spill.i26, align 8
  call void @llvm.dbg.declare(metadata i32** %self.dbg.spill.i26, metadata !1544, metadata !DIExpression()), !dbg !1692
  store i64 %_130, i64* %count.dbg.spill.i25, align 8
  call void @llvm.dbg.declare(metadata i64* %count.dbg.spill.i25, metadata !1547, metadata !DIExpression()), !dbg !1694
  %56 = getelementptr inbounds i32, i32* %buffer, i64 %_130, !dbg !1695
  store i32* %56, i32** %12, align 8, !dbg !1695
  %_3.i27 = load i32*, i32** %12, align 8, !dbg !1695
  br label %bb54, !dbg !1696

panic11:                                          ; preds = %bb52
; call core::panicking::panic
  call void @_ZN4core9panicking5panic17hf5844c0338bd061cE([0 x i8]* align 1 bitcast ([28 x i8]* @str.5 to [0 x i8]*), i64 28, %"core::panic::location::Location"* align 8 bitcast (<{ i8*, [16 x i8] }>* @alloc306 to %"core::panic::location::Location"*)) #13, !dbg !1689
  unreachable, !dbg !1689

bb54:                                             ; preds = %bb53
  store i32 1, i32* %_3.i27, align 4, !dbg !1697
  br label %bb55, !dbg !1698

bb59:                                             ; preds = %bb55
  %_133 = xor i1 %_134, true, !dbg !1699
  br i1 %_133, label %bb57, label %bb56, !dbg !1699

bb56:                                             ; preds = %bb59
  store i8 0, i8* %_132, align 1, !dbg !1699
  br label %bb58, !dbg !1699

bb57:                                             ; preds = %bb59
; call core::ptr::mut_ptr::<impl *mut T>::is_null
  %_136 = call zeroext i1 @"_ZN4core3ptr7mut_ptr31_$LT$impl$u20$$BP$mut$u20$T$GT$7is_null17hbc8ea403b93b708aE"(i8* null), !dbg !1700
  br label %bb60, !dbg !1700

bb60:                                             ; preds = %bb57
  %57 = zext i1 %_136 to i8, !dbg !1699
  store i8 %57, i8* %_132, align 1, !dbg !1699
  br label %bb58, !dbg !1699

bb58:                                             ; preds = %bb56, %bb60
  %58 = load i8, i8* %_132, align 1, !dbg !1699, !range !392, !noundef !23
  %59 = trunc i8 %58 to i1, !dbg !1699
  br i1 %59, label %bb61, label %bb64, !dbg !1699

bb64:                                             ; preds = %bb63, %bb58
; call core::ptr::mut_ptr::<impl *mut T>::is_null
  %_148 = call zeroext i1 @"_ZN4core3ptr7mut_ptr31_$LT$impl$u20$$BP$mut$u20$T$GT$7is_null17hbc8ea403b93b708aE"(i8* null), !dbg !1701
  br label %bb68, !dbg !1701

bb61:                                             ; preds = %bb58
  %fresh14 = load i32, i32* %i, align 4, !dbg !1702
  store i32 %fresh14, i32* %fresh14.dbg.spill, align 4, !dbg !1702
  call void @llvm.dbg.declare(metadata i32* %fresh14.dbg.spill, metadata !1519, metadata !DIExpression()), !dbg !1703
  %_139 = load i32, i32* %i, align 4, !dbg !1704
  %60 = call { i32, i1 } @llvm.sadd.with.overflow.i32(i32 %_139, i32 1), !dbg !1704
  %_140.0 = extractvalue { i32, i1 } %60, 0, !dbg !1704
  %_140.1 = extractvalue { i32, i1 } %60, 1, !dbg !1704
  %61 = call i1 @llvm.expect.i1(i1 %_140.1, i1 false), !dbg !1704
  br i1 %61, label %panic12, label %bb62, !dbg !1704

bb62:                                             ; preds = %bb61
  store i32 %_140.0, i32* %i, align 4, !dbg !1705
  %_144 = sext i32 %fresh14 to i64, !dbg !1706
  store i32* %buffer, i32** %self.dbg.spill.i23, align 8
  call void @llvm.dbg.declare(metadata i32** %self.dbg.spill.i23, metadata !1544, metadata !DIExpression()), !dbg !1707
  store i64 %_144, i64* %count.dbg.spill.i22, align 8
  call void @llvm.dbg.declare(metadata i64* %count.dbg.spill.i22, metadata !1547, metadata !DIExpression()), !dbg !1709
  %62 = getelementptr inbounds i32, i32* %buffer, i64 %_144, !dbg !1710
  store i32* %62, i32** %13, align 8, !dbg !1710
  %_3.i24 = load i32*, i32** %13, align 8, !dbg !1710
  br label %bb63, !dbg !1711

panic12:                                          ; preds = %bb61
; call core::panicking::panic
  call void @_ZN4core9panicking5panic17hf5844c0338bd061cE([0 x i8]* align 1 bitcast ([28 x i8]* @str.5 to [0 x i8]*), i64 28, %"core::panic::location::Location"* align 8 bitcast (<{ i8*, [16 x i8] }>* @alloc308 to %"core::panic::location::Location"*)) #13, !dbg !1704
  unreachable, !dbg !1704

bb63:                                             ; preds = %bb62
  store i32 1, i32* %_3.i24, align 4, !dbg !1712
  br label %bb64, !dbg !1713

bb68:                                             ; preds = %bb64
  %_147 = xor i1 %_148, true, !dbg !1714
  br i1 %_147, label %bb65, label %bb66, !dbg !1714

bb66:                                             ; preds = %bb68
; call core::ptr::mut_ptr::<impl *mut T>::is_null
  %_150 = call zeroext i1 @"_ZN4core3ptr7mut_ptr31_$LT$impl$u20$$BP$mut$u20$T$GT$7is_null17hbc8ea403b93b708aE"(i8* null), !dbg !1715
  br label %bb69, !dbg !1715

bb65:                                             ; preds = %bb68
  store i8 1, i8* %_146, align 1, !dbg !1714
  br label %bb67, !dbg !1714

bb67:                                             ; preds = %bb69, %bb65
  %63 = load i8, i8* %_146, align 1, !dbg !1714, !range !392, !noundef !23
  %64 = trunc i8 %63 to i1, !dbg !1714
  br i1 %64, label %bb70, label %bb73, !dbg !1714

bb69:                                             ; preds = %bb66
  %65 = zext i1 %_150 to i8, !dbg !1714
  store i8 %65, i8* %_146, align 1, !dbg !1714
  br label %bb67, !dbg !1714

bb73:                                             ; preds = %bb72, %bb67
; call core::ptr::const_ptr::<impl *const T>::is_null
  %_162 = call zeroext i1 @"_ZN4core3ptr9const_ptr33_$LT$impl$u20$$BP$const$u20$T$GT$7is_null17hf54e692882b31083E"(i8* %p1), !dbg !1716
  br label %bb77, !dbg !1716

bb70:                                             ; preds = %bb67
  %fresh15 = load i32, i32* %i, align 4, !dbg !1717
  store i32 %fresh15, i32* %fresh15.dbg.spill, align 4, !dbg !1717
  call void @llvm.dbg.declare(metadata i32* %fresh15.dbg.spill, metadata !1521, metadata !DIExpression()), !dbg !1718
  %_153 = load i32, i32* %i, align 4, !dbg !1719
  %66 = call { i32, i1 } @llvm.sadd.with.overflow.i32(i32 %_153, i32 1), !dbg !1719
  %_154.0 = extractvalue { i32, i1 } %66, 0, !dbg !1719
  %_154.1 = extractvalue { i32, i1 } %66, 1, !dbg !1719
  %67 = call i1 @llvm.expect.i1(i1 %_154.1, i1 false), !dbg !1719
  br i1 %67, label %panic13, label %bb71, !dbg !1719

bb71:                                             ; preds = %bb70
  store i32 %_154.0, i32* %i, align 4, !dbg !1720
  %_158 = sext i32 %fresh15 to i64, !dbg !1721
  store i32* %buffer, i32** %self.dbg.spill.i20, align 8
  call void @llvm.dbg.declare(metadata i32** %self.dbg.spill.i20, metadata !1544, metadata !DIExpression()), !dbg !1722
  store i64 %_158, i64* %count.dbg.spill.i19, align 8
  call void @llvm.dbg.declare(metadata i64* %count.dbg.spill.i19, metadata !1547, metadata !DIExpression()), !dbg !1724
  %68 = getelementptr inbounds i32, i32* %buffer, i64 %_158, !dbg !1725
  store i32* %68, i32** %14, align 8, !dbg !1725
  %_3.i21 = load i32*, i32** %14, align 8, !dbg !1725
  br label %bb72, !dbg !1726

panic13:                                          ; preds = %bb70
; call core::panicking::panic
  call void @_ZN4core9panicking5panic17hf5844c0338bd061cE([0 x i8]* align 1 bitcast ([28 x i8]* @str.5 to [0 x i8]*), i64 28, %"core::panic::location::Location"* align 8 bitcast (<{ i8*, [16 x i8] }>* @alloc310 to %"core::panic::location::Location"*)) #13, !dbg !1719
  unreachable, !dbg !1719

bb72:                                             ; preds = %bb71
  store i32 1, i32* %_3.i21, align 4, !dbg !1727
  br label %bb73, !dbg !1728

bb77:                                             ; preds = %bb73
  %_161 = xor i1 %_162, true, !dbg !1729
  br i1 %_161, label %bb75, label %bb74, !dbg !1729

bb74:                                             ; preds = %bb77
  store i8 0, i8* %_160, align 1, !dbg !1729
  br label %bb76, !dbg !1729

bb75:                                             ; preds = %bb77
; call core::ptr::const_ptr::<impl *const T>::is_null
  %_164 = call zeroext i1 @"_ZN4core3ptr9const_ptr33_$LT$impl$u20$$BP$const$u20$T$GT$7is_null17hf54e692882b31083E"(i8* %p1), !dbg !1730
  br label %bb78, !dbg !1730

bb78:                                             ; preds = %bb75
  %69 = zext i1 %_164 to i8, !dbg !1729
  store i8 %69, i8* %_160, align 1, !dbg !1729
  br label %bb76, !dbg !1729

bb76:                                             ; preds = %bb74, %bb78
  %70 = load i8, i8* %_160, align 1, !dbg !1729, !range !392, !noundef !23
  %71 = trunc i8 %70 to i1, !dbg !1729
  br i1 %71, label %bb79, label %bb82, !dbg !1729

bb82:                                             ; preds = %bb81, %bb76
; call core::ptr::const_ptr::<impl *const T>::is_null
  %_176 = call zeroext i1 @"_ZN4core3ptr9const_ptr33_$LT$impl$u20$$BP$const$u20$T$GT$7is_null17hf54e692882b31083E"(i8* %p1), !dbg !1731
  br label %bb86, !dbg !1731

bb79:                                             ; preds = %bb76
  %fresh16 = load i32, i32* %i, align 4, !dbg !1732
  store i32 %fresh16, i32* %fresh16.dbg.spill, align 4, !dbg !1732
  call void @llvm.dbg.declare(metadata i32* %fresh16.dbg.spill, metadata !1523, metadata !DIExpression()), !dbg !1733
  %_167 = load i32, i32* %i, align 4, !dbg !1734
  %72 = call { i32, i1 } @llvm.sadd.with.overflow.i32(i32 %_167, i32 1), !dbg !1734
  %_168.0 = extractvalue { i32, i1 } %72, 0, !dbg !1734
  %_168.1 = extractvalue { i32, i1 } %72, 1, !dbg !1734
  %73 = call i1 @llvm.expect.i1(i1 %_168.1, i1 false), !dbg !1734
  br i1 %73, label %panic14, label %bb80, !dbg !1734

bb80:                                             ; preds = %bb79
  store i32 %_168.0, i32* %i, align 4, !dbg !1735
  %_172 = sext i32 %fresh16 to i64, !dbg !1736
  store i32* %buffer, i32** %self.dbg.spill.i17, align 8
  call void @llvm.dbg.declare(metadata i32** %self.dbg.spill.i17, metadata !1544, metadata !DIExpression()), !dbg !1737
  store i64 %_172, i64* %count.dbg.spill.i16, align 8
  call void @llvm.dbg.declare(metadata i64* %count.dbg.spill.i16, metadata !1547, metadata !DIExpression()), !dbg !1739
  %74 = getelementptr inbounds i32, i32* %buffer, i64 %_172, !dbg !1740
  store i32* %74, i32** %15, align 8, !dbg !1740
  %_3.i18 = load i32*, i32** %15, align 8, !dbg !1740
  br label %bb81, !dbg !1741

panic14:                                          ; preds = %bb79
; call core::panicking::panic
  call void @_ZN4core9panicking5panic17hf5844c0338bd061cE([0 x i8]* align 1 bitcast ([28 x i8]* @str.5 to [0 x i8]*), i64 28, %"core::panic::location::Location"* align 8 bitcast (<{ i8*, [16 x i8] }>* @alloc312 to %"core::panic::location::Location"*)) #13, !dbg !1734
  unreachable, !dbg !1734

bb81:                                             ; preds = %bb80
  store i32 1, i32* %_3.i18, align 4, !dbg !1742
  br label %bb82, !dbg !1743

bb86:                                             ; preds = %bb82
  %_175 = xor i1 %_176, true, !dbg !1744
  br i1 %_175, label %bb83, label %bb84, !dbg !1744

bb84:                                             ; preds = %bb86
; call core::ptr::const_ptr::<impl *const T>::is_null
  %_178 = call zeroext i1 @"_ZN4core3ptr9const_ptr33_$LT$impl$u20$$BP$const$u20$T$GT$7is_null17hf54e692882b31083E"(i8* %p1), !dbg !1745
  br label %bb87, !dbg !1745

bb83:                                             ; preds = %bb86
  store i8 1, i8* %_174, align 1, !dbg !1744
  br label %bb85, !dbg !1744

bb85:                                             ; preds = %bb87, %bb83
  %75 = load i8, i8* %_174, align 1, !dbg !1744, !range !392, !noundef !23
  %76 = trunc i8 %75 to i1, !dbg !1744
  br i1 %76, label %bb88, label %bb91, !dbg !1744

bb87:                                             ; preds = %bb84
  %77 = zext i1 %_178 to i8, !dbg !1744
  store i8 %77, i8* %_174, align 1, !dbg !1744
  br label %bb85, !dbg !1744

bb88:                                             ; preds = %bb85
  %fresh17 = load i32, i32* %i, align 4, !dbg !1746
  store i32 %fresh17, i32* %fresh17.dbg.spill, align 4, !dbg !1746
  call void @llvm.dbg.declare(metadata i32* %fresh17.dbg.spill, metadata !1525, metadata !DIExpression()), !dbg !1747
  %_181 = load i32, i32* %i, align 4, !dbg !1748
  %78 = call { i32, i1 } @llvm.sadd.with.overflow.i32(i32 %_181, i32 1), !dbg !1748
  %_182.0 = extractvalue { i32, i1 } %78, 0, !dbg !1748
  %_182.1 = extractvalue { i32, i1 } %78, 1, !dbg !1748
  %79 = call i1 @llvm.expect.i1(i1 %_182.1, i1 false), !dbg !1748
  br i1 %79, label %panic15, label %bb89, !dbg !1748

bb89:                                             ; preds = %bb88
  store i32 %_182.0, i32* %i, align 4, !dbg !1749
  %_186 = sext i32 %fresh17 to i64, !dbg !1750
  store i32* %buffer, i32** %self.dbg.spill.i, align 8
  call void @llvm.dbg.declare(metadata i32** %self.dbg.spill.i, metadata !1544, metadata !DIExpression()), !dbg !1751
  store i64 %_186, i64* %count.dbg.spill.i, align 8
  call void @llvm.dbg.declare(metadata i64* %count.dbg.spill.i, metadata !1547, metadata !DIExpression()), !dbg !1753
  %80 = getelementptr inbounds i32, i32* %buffer, i64 %_186, !dbg !1754
  store i32* %80, i32** %16, align 8, !dbg !1754
  %_3.i = load i32*, i32** %16, align 8, !dbg !1754
  br label %bb90, !dbg !1755

panic15:                                          ; preds = %bb88
; call core::panicking::panic
  call void @_ZN4core9panicking5panic17hf5844c0338bd061cE([0 x i8]* align 1 bitcast ([28 x i8]* @str.5 to [0 x i8]*), i64 28, %"core::panic::location::Location"* align 8 bitcast (<{ i8*, [16 x i8] }>* @alloc314 to %"core::panic::location::Location"*)) #13, !dbg !1748
  unreachable, !dbg !1748

bb90:                                             ; preds = %bb89
  store i32 1, i32* %_3.i, align 4, !dbg !1756
  br label %bb91, !dbg !1757
}

; Function Attrs: nonlazybind uwtable
define dso_local void @rust_ternaries() unnamed_addr #1 !dbg !1758 {
start:
  %_29 = alloca i32, align 4
  %_25 = alloca i32, align 4
  %_21 = alloca i32, align 4
  %_15 = alloca i32, align 4
  %init = alloca %"conditionals::py_flag", align 4
  %pf = alloca %"conditionals::py_flag", align 4
  %_4 = alloca i32, align 4
  %i = alloca i32, align 4
  call void @llvm.dbg.declare(metadata i32* %i, metadata !1760, metadata !DIExpression()), !dbg !1766
  call void @llvm.dbg.declare(metadata %"conditionals::py_flag"* %pf, metadata !1762, metadata !DIExpression()), !dbg !1767
  call void @llvm.dbg.declare(metadata %"conditionals::py_flag"* %init, metadata !1764, metadata !DIExpression()), !dbg !1768
  store i32 1, i32* %i, align 4, !dbg !1769
  %_5 = load i32, i32* %i, align 4, !dbg !1770
  %0 = icmp eq i32 %_5, 0, !dbg !1770
  br i1 %0, label %bb4, label %bb1, !dbg !1770

bb4:                                              ; preds = %start
  store i32 1, i32* %_4, align 4, !dbg !1771
  br label %bb5, !dbg !1772

bb1:                                              ; preds = %start
  %_6 = load i32, i32* %i, align 4, !dbg !1773
  %1 = icmp eq i32 %_6, 0, !dbg !1773
  br i1 %1, label %bb3, label %bb2, !dbg !1773

bb3:                                              ; preds = %bb1
  store i32 2, i32* %_4, align 4, !dbg !1774
  br label %bb5, !dbg !1775

bb2:                                              ; preds = %bb1
  store i32 1, i32* %_4, align 4, !dbg !1776
  br label %bb5, !dbg !1775

bb5:                                              ; preds = %bb4, %bb3, %bb2
  %2 = load i32, i32* %_4, align 4, !dbg !1777
  store i32 %2, i32* %i, align 4, !dbg !1777
  store i32 1, i32* %i, align 4, !dbg !1778
  store i32 3, i32* %i, align 4, !dbg !1779
  %3 = call { i32, i1 } @llvm.sadd.with.overflow.i32(i32 1, i32 3), !dbg !1780
  %_12.0 = extractvalue { i32, i1 } %3, 0, !dbg !1780
  %_12.1 = extractvalue { i32, i1 } %3, 1, !dbg !1780
  %4 = call i1 @llvm.expect.i1(i1 %_12.1, i1 false), !dbg !1780
  br i1 %4, label %panic, label %bb6, !dbg !1780

bb6:                                              ; preds = %bb5
  store i32 %_12.0, i32* %i, align 4, !dbg !1781
  %5 = bitcast %"conditionals::py_flag"* %init to i32*, !dbg !1782
  store i32 1, i32* %5, align 4, !dbg !1782
  %6 = bitcast %"conditionals::py_flag"* %pf to i8*, !dbg !1783
  %7 = bitcast %"conditionals::py_flag"* %init to i8*, !dbg !1783
  call void @llvm.memcpy.p0i8.p0i8.i64(i8* align 4 %6, i8* align 4 %7, i64 4, i1 false), !dbg !1783
; call core::ptr::mut_ptr::<impl *mut T>::is_null
  %_17 = call zeroext i1 @"_ZN4core3ptr7mut_ptr31_$LT$impl$u20$$BP$mut$u20$T$GT$7is_null17h8d9ed15824963850E"(%"conditionals::py_flag"* %pf), !dbg !1784
  br label %bb7, !dbg !1784

panic:                                            ; preds = %bb5
; call core::panicking::panic
  call void @_ZN4core9panicking5panic17hf5844c0338bd061cE([0 x i8]* align 1 bitcast ([28 x i8]* @str.5 to [0 x i8]*), i64 28, %"core::panic::location::Location"* align 8 bitcast (<{ i8*, [16 x i8] }>* @alloc316 to %"core::panic::location::Location"*)) #13, !dbg !1780
  unreachable, !dbg !1780

bb7:                                              ; preds = %bb6
  %_16 = xor i1 %_17, true, !dbg !1785
  br i1 %_16, label %bb8, label %bb18, !dbg !1785

bb18:                                             ; preds = %bb7
  store i32 0, i32* %_15, align 4, !dbg !1786
  br label %bb19, !dbg !1787

bb8:                                              ; preds = %bb7
  %8 = bitcast %"conditionals::py_flag"* %pf to i32*, !dbg !1788
  %_23 = load i32, i32* %8, align 4, !dbg !1788
  %_22 = and i32 %_23, 1, !dbg !1788
  %9 = icmp eq i32 %_22, 0, !dbg !1788
  br i1 %9, label %bb10, label %bb9, !dbg !1788

bb10:                                             ; preds = %bb8
  store i32 0, i32* %_21, align 4, !dbg !1789
  br label %bb11, !dbg !1790

bb9:                                              ; preds = %bb8
  store i32 2, i32* %_21, align 4, !dbg !1791
  br label %bb11, !dbg !1790

bb11:                                             ; preds = %bb10, %bb9
  %10 = bitcast %"conditionals::py_flag"* %pf to i32*, !dbg !1792
  %_27 = load i32, i32* %10, align 4, !dbg !1792
  %_26 = and i32 %_27, 3, !dbg !1792
  %11 = icmp eq i32 %_26, 0, !dbg !1792
  br i1 %11, label %bb13, label %bb12, !dbg !1792

bb13:                                             ; preds = %bb11
  store i32 0, i32* %_25, align 4, !dbg !1793
  br label %bb14, !dbg !1794

bb12:                                             ; preds = %bb11
  store i32 4, i32* %_25, align 4, !dbg !1795
  br label %bb14, !dbg !1794

bb14:                                             ; preds = %bb13, %bb12
  %12 = load i32, i32* %_21, align 4, !dbg !1790
  %13 = load i32, i32* %_25, align 4, !dbg !1790
  %_20 = or i32 %12, %13, !dbg !1790
  %14 = bitcast %"conditionals::py_flag"* %pf to i32*, !dbg !1796
  %_31 = load i32, i32* %14, align 4, !dbg !1796
  %_30 = and i32 %_31, 5, !dbg !1796
  %15 = icmp eq i32 %_30, 0, !dbg !1796
  br i1 %15, label %bb16, label %bb15, !dbg !1796

bb16:                                             ; preds = %bb14
  store i32 0, i32* %_29, align 4, !dbg !1797
  br label %bb17, !dbg !1798

bb15:                                             ; preds = %bb14
  store i32 6, i32* %_29, align 4, !dbg !1799
  br label %bb17, !dbg !1798

bb17:                                             ; preds = %bb16, %bb15
  %16 = load i32, i32* %_29, align 4, !dbg !1790
  %17 = or i32 %_20, %16, !dbg !1790
  store i32 %17, i32* %_15, align 4, !dbg !1790
  br label %bb19, !dbg !1787

bb19:                                             ; preds = %bb18, %bb17
  %18 = load i32, i32* %_15, align 4, !dbg !1800
  store i32 %18, i32* %i, align 4, !dbg !1800
  ret void, !dbg !1801
}

; conditional_tests::conditionals::run_static_initializers
; Function Attrs: nonlazybind uwtable
define internal void @_ZN17conditional_tests12conditionals23run_static_initializers17hbca4cb0c80cda66cE() unnamed_addr #1 !dbg !1802 {
start:
  store i32 3, i32* bitcast (<{ [4 x i8] }>* @rust_abc to i32*), align 4, !dbg !1803
  store i32 1, i32* bitcast (<{ [4 x i8] }>* @rust_def to i32*), align 4, !dbg !1804
  %0 = call { i32, i1 } @llvm.sadd.with.overflow.i32(i32 1, i32 2), !dbg !1805
  %_8.0 = extractvalue { i32, i1 } %0, 0, !dbg !1805
  %_8.1 = extractvalue { i32, i1 } %0, 1, !dbg !1805
  %1 = call i1 @llvm.expect.i1(i1 %_8.1, i1 false), !dbg !1805
  br i1 %1, label %panic, label %bb1, !dbg !1805

bb1:                                              ; preds = %start
  store i32 %_8.0, i32* bitcast (<{ [4 x i8] }>* @rust_hij to i32*), align 4, !dbg !1806
  ret void, !dbg !1807

panic:                                            ; preds = %start
; call core::panicking::panic
  call void @_ZN4core9panicking5panic17hf5844c0338bd061cE([0 x i8]* align 1 bitcast ([28 x i8]* @str.5 to [0 x i8]*), i64 28, %"core::panic::location::Location"* align 8 bitcast (<{ i8*, [16 x i8] }>* @alloc318 to %"core::panic::location::Location"*)) #13, !dbg !1805
  unreachable, !dbg !1805
}

; conditional_tests::binary_conditional::rust_id
; Function Attrs: nonlazybind uwtable
define internal i32 @_ZN17conditional_tests18binary_conditional7rust_id17h2280bb1134174407E(i32 %i) unnamed_addr #1 !dbg !1808 {
start:
  %i.dbg.spill = alloca i32, align 4
  store i32 %i, i32* %i.dbg.spill, align 4
  call void @llvm.dbg.declare(metadata i32* %i.dbg.spill, metadata !1814, metadata !DIExpression()), !dbg !1815
  ret i32 %i, !dbg !1816
}

; conditional_tests::binary_conditional::rust_add
; Function Attrs: nonlazybind uwtable
define internal i32 @_ZN17conditional_tests18binary_conditional8rust_add17h4c628c987e0b0639E(i32* %p, i32 %i, i32 %r) unnamed_addr #1 !dbg !1817 {
start:
  %r.dbg.spill = alloca i32, align 4
  %i.dbg.spill = alloca i32, align 4
  %p.dbg.spill = alloca i32*, align 8
  store i32* %p, i32** %p.dbg.spill, align 8
  call void @llvm.dbg.declare(metadata i32** %p.dbg.spill, metadata !1821, metadata !DIExpression()), !dbg !1824
  store i32 %i, i32* %i.dbg.spill, align 4
  call void @llvm.dbg.declare(metadata i32* %i.dbg.spill, metadata !1822, metadata !DIExpression()), !dbg !1825
  store i32 %r, i32* %r.dbg.spill, align 4
  call void @llvm.dbg.declare(metadata i32* %r.dbg.spill, metadata !1823, metadata !DIExpression()), !dbg !1826
  %0 = load i32, i32* %p, align 4, !dbg !1827
  %1 = call { i32, i1 } @llvm.sadd.with.overflow.i32(i32 %0, i32 %i), !dbg !1827
  %_5.0 = extractvalue { i32, i1 } %1, 0, !dbg !1827
  %_5.1 = extractvalue { i32, i1 } %1, 1, !dbg !1827
  %2 = call i1 @llvm.expect.i1(i1 %_5.1, i1 false), !dbg !1827
  br i1 %2, label %panic, label %bb1, !dbg !1827

bb1:                                              ; preds = %start
  store i32 %_5.0, i32* %p, align 4, !dbg !1827
  ret i32 %r, !dbg !1828

panic:                                            ; preds = %start
; call core::panicking::panic
  call void @_ZN4core9panicking5panic17hf5844c0338bd061cE([0 x i8]* align 1 bitcast ([28 x i8]* @str.5 to [0 x i8]*), i64 28, %"core::panic::location::Location"* align 8 bitcast (<{ i8*, [16 x i8] }>* @alloc320 to %"core::panic::location::Location"*)) #13, !dbg !1827
  unreachable, !dbg !1827
}

; Function Attrs: nonlazybind uwtable
define dso_local void @rust_entry3(i32 %sz, i32* %buf) unnamed_addr #1 !dbg !1829 {
start:
  %0 = alloca i32*, align 8
  %count.dbg.spill.i13 = alloca i64, align 8
  %self.dbg.spill.i14 = alloca i32*, align 8
  %1 = alloca i32*, align 8
  %count.dbg.spill.i10 = alloca i64, align 8
  %self.dbg.spill.i11 = alloca i32*, align 8
  %2 = alloca i32*, align 8
  %count.dbg.spill.i7 = alloca i64, align 8
  %self.dbg.spill.i8 = alloca i32*, align 8
  %3 = alloca i32*, align 8
  %count.dbg.spill.i4 = alloca i64, align 8
  %self.dbg.spill.i5 = alloca i32*, align 8
  %4 = alloca i32*, align 8
  %count.dbg.spill.i1 = alloca i64, align 8
  %self.dbg.spill.i2 = alloca i32*, align 8
  %5 = alloca i32*, align 8
  %count.dbg.spill.i = alloca i64, align 8
  %self.dbg.spill.i = alloca i32*, align 8
  %fresh1.dbg.spill = alloca i32*, align 8
  %fresh0.dbg.spill = alloca i32*, align 8
  %buf.dbg.spill = alloca i32*, align 8
  %sz.dbg.spill = alloca i32, align 4
  %_15 = alloca i32, align 4
  %_13 = alloca i32, align 4
  %_6 = alloca i32, align 4
  %_4 = alloca i32, align 4
  store i32 %sz, i32* %sz.dbg.spill, align 4
  call void @llvm.dbg.declare(metadata i32* %sz.dbg.spill, metadata !1831, metadata !DIExpression()), !dbg !1838
  store i32* %buf, i32** %buf.dbg.spill, align 8
  call void @llvm.dbg.declare(metadata i32** %buf.dbg.spill, metadata !1832, metadata !DIExpression()), !dbg !1839
; call conditional_tests::binary_conditional::rust_id
  %6 = call i32 @_ZN17conditional_tests18binary_conditional7rust_id17h2280bb1134174407E(i32 0), !dbg !1840
  store i32 %6, i32* %_4, align 4, !dbg !1840
  br label %bb1, !dbg !1840

bb1:                                              ; preds = %start
  store i32* %_4, i32** %fresh0.dbg.spill, align 8, !dbg !1841
  call void @llvm.dbg.declare(metadata i32** %fresh0.dbg.spill, metadata !1833, metadata !DIExpression()), !dbg !1842
  %_7 = load i32, i32* %_4, align 4, !dbg !1843
  %7 = icmp eq i32 %_7, 0, !dbg !1843
  br i1 %7, label %bb3, label %bb2, !dbg !1843

bb3:                                              ; preds = %bb1
; call conditional_tests::binary_conditional::rust_id
  %8 = call i32 @_ZN17conditional_tests18binary_conditional7rust_id17h2280bb1134174407E(i32 1), !dbg !1844
  store i32 %8, i32* %_6, align 4, !dbg !1844
  br label %bb4, !dbg !1844

bb2:                                              ; preds = %bb1
  %9 = load i32, i32* %_4, align 4, !dbg !1845
  store i32 %9, i32* %_6, align 4, !dbg !1845
  br label %bb4, !dbg !1846

bb4:                                              ; preds = %bb3, %bb2
  store i32* %buf, i32** %self.dbg.spill.i14, align 8
  call void @llvm.dbg.declare(metadata i32** %self.dbg.spill.i14, metadata !1544, metadata !DIExpression()), !dbg !1847
  store i64 0, i64* %count.dbg.spill.i13, align 8
  call void @llvm.dbg.declare(metadata i64* %count.dbg.spill.i13, metadata !1547, metadata !DIExpression()), !dbg !1849
  store i32* %buf, i32** %0, align 8, !dbg !1850
  %_3.i15 = load i32*, i32** %0, align 8, !dbg !1850
  br label %bb5, !dbg !1851

bb5:                                              ; preds = %bb4
  %10 = load i32, i32* %_6, align 4, !dbg !1852
  store i32 %10, i32* %_3.i15, align 4, !dbg !1852
; call conditional_tests::binary_conditional::rust_id
  %11 = call i32 @_ZN17conditional_tests18binary_conditional7rust_id17h2280bb1134174407E(i32 2), !dbg !1853
  store i32 %11, i32* %_13, align 4, !dbg !1853
  br label %bb6, !dbg !1853

bb6:                                              ; preds = %bb5
  store i32* %_13, i32** %fresh1.dbg.spill, align 8, !dbg !1854
  call void @llvm.dbg.declare(metadata i32** %fresh1.dbg.spill, metadata !1836, metadata !DIExpression()), !dbg !1855
  %_16 = load i32, i32* %_13, align 4, !dbg !1856
  %12 = icmp eq i32 %_16, 0, !dbg !1856
  br i1 %12, label %bb8, label %bb7, !dbg !1856

bb8:                                              ; preds = %bb6
; call conditional_tests::binary_conditional::rust_id
  %13 = call i32 @_ZN17conditional_tests18binary_conditional7rust_id17h2280bb1134174407E(i32 3), !dbg !1857
  store i32 %13, i32* %_15, align 4, !dbg !1857
  br label %bb9, !dbg !1857

bb7:                                              ; preds = %bb6
  %14 = load i32, i32* %_13, align 4, !dbg !1858
  store i32 %14, i32* %_15, align 4, !dbg !1858
  br label %bb9, !dbg !1859

bb9:                                              ; preds = %bb8, %bb7
  store i32* %buf, i32** %self.dbg.spill.i11, align 8
  call void @llvm.dbg.declare(metadata i32** %self.dbg.spill.i11, metadata !1544, metadata !DIExpression()), !dbg !1860
  store i64 1, i64* %count.dbg.spill.i10, align 8
  call void @llvm.dbg.declare(metadata i64* %count.dbg.spill.i10, metadata !1547, metadata !DIExpression()), !dbg !1862
  %15 = getelementptr inbounds i32, i32* %buf, i64 1, !dbg !1863
  store i32* %15, i32** %1, align 8, !dbg !1863
  %_3.i12 = load i32*, i32** %1, align 8, !dbg !1863
  br label %bb10, !dbg !1864

bb10:                                             ; preds = %bb9
  %16 = load i32, i32* %_15, align 4, !dbg !1865
  store i32 %16, i32* %_3.i12, align 4, !dbg !1865
  store i32* %buf, i32** %self.dbg.spill.i8, align 8
  call void @llvm.dbg.declare(metadata i32** %self.dbg.spill.i8, metadata !1544, metadata !DIExpression()), !dbg !1866
  store i64 2, i64* %count.dbg.spill.i7, align 8
  call void @llvm.dbg.declare(metadata i64* %count.dbg.spill.i7, metadata !1547, metadata !DIExpression()), !dbg !1868
  %17 = getelementptr inbounds i32, i32* %buf, i64 2, !dbg !1869
  store i32* %17, i32** %2, align 8, !dbg !1869
  %_3.i9 = load i32*, i32** %2, align 8, !dbg !1869
  br label %bb11, !dbg !1870

bb11:                                             ; preds = %bb10
; call conditional_tests::binary_conditional::rust_add
  %_21 = call i32 @_ZN17conditional_tests18binary_conditional8rust_add17h4c628c987e0b0639E(i32* %_3.i9, i32 2, i32 0), !dbg !1871
  br label %bb12, !dbg !1871

bb12:                                             ; preds = %bb11
  %18 = icmp eq i32 %_21, 0, !dbg !1871
  br i1 %18, label %bb13, label %bb15, !dbg !1871

bb13:                                             ; preds = %bb12
  store i32* %buf, i32** %self.dbg.spill.i5, align 8
  call void @llvm.dbg.declare(metadata i32** %self.dbg.spill.i5, metadata !1544, metadata !DIExpression()), !dbg !1872
  store i64 3, i64* %count.dbg.spill.i4, align 8
  call void @llvm.dbg.declare(metadata i64* %count.dbg.spill.i4, metadata !1547, metadata !DIExpression()), !dbg !1874
  %19 = getelementptr inbounds i32, i32* %buf, i64 3, !dbg !1875
  store i32* %19, i32** %3, align 8, !dbg !1875
  %_3.i6 = load i32*, i32** %3, align 8, !dbg !1875
  br label %bb14, !dbg !1876

bb15:                                             ; preds = %bb14, %bb12
  store i32* %buf, i32** %self.dbg.spill.i2, align 8
  call void @llvm.dbg.declare(metadata i32** %self.dbg.spill.i2, metadata !1544, metadata !DIExpression()), !dbg !1877
  store i64 4, i64* %count.dbg.spill.i1, align 8
  call void @llvm.dbg.declare(metadata i64* %count.dbg.spill.i1, metadata !1547, metadata !DIExpression()), !dbg !1879
  %20 = getelementptr inbounds i32, i32* %buf, i64 4, !dbg !1880
  store i32* %20, i32** %4, align 8, !dbg !1880
  %_3.i3 = load i32*, i32** %4, align 8, !dbg !1880
  br label %bb16, !dbg !1881

bb14:                                             ; preds = %bb13
; call conditional_tests::binary_conditional::rust_add
  %_27 = call i32 @_ZN17conditional_tests18binary_conditional8rust_add17h4c628c987e0b0639E(i32* %_3.i6, i32 3, i32 0), !dbg !1882
  br label %bb15, !dbg !1882

bb16:                                             ; preds = %bb15
; call conditional_tests::binary_conditional::rust_add
  %_33 = call i32 @_ZN17conditional_tests18binary_conditional8rust_add17h4c628c987e0b0639E(i32* %_3.i3, i32 4, i32 1), !dbg !1883
  br label %bb17, !dbg !1883

bb17:                                             ; preds = %bb16
  %21 = icmp eq i32 %_33, 0, !dbg !1883
  br i1 %21, label %bb18, label %bb20, !dbg !1883

bb18:                                             ; preds = %bb17
  store i32* %buf, i32** %self.dbg.spill.i, align 8
  call void @llvm.dbg.declare(metadata i32** %self.dbg.spill.i, metadata !1544, metadata !DIExpression()), !dbg !1884
  store i64 5, i64* %count.dbg.spill.i, align 8
  call void @llvm.dbg.declare(metadata i64* %count.dbg.spill.i, metadata !1547, metadata !DIExpression()), !dbg !1886
  %22 = getelementptr inbounds i32, i32* %buf, i64 5, !dbg !1887
  store i32* %22, i32** %5, align 8, !dbg !1887
  %_3.i = load i32*, i32** %5, align 8, !dbg !1887
  br label %bb19, !dbg !1888

bb20:                                             ; preds = %bb19, %bb17
  ret void, !dbg !1889

bb19:                                             ; preds = %bb18
; call conditional_tests::binary_conditional::rust_add
  %_39 = call i32 @_ZN17conditional_tests18binary_conditional8rust_add17h4c628c987e0b0639E(i32* %_3.i, i32 5, i32 0), !dbg !1890
  br label %bb20, !dbg !1890
}

; Function Attrs: nonlazybind uwtable
define dso_local i32 @rust_entry4(i32 %i) unnamed_addr #1 !dbg !1891 {
start:
  %i.dbg.spill = alloca i32, align 4
  %0 = alloca i32, align 4
  store i32 %i, i32* %i.dbg.spill, align 4
  call void @llvm.dbg.declare(metadata i32* %i.dbg.spill, metadata !1895, metadata !DIExpression()), !dbg !1896
  %_2 = icmp eq i32 %i, 0, !dbg !1897
  br i1 %_2, label %bb1, label %bb2, !dbg !1897

bb2:                                              ; preds = %start
  %_5 = icmp eq i32 %i, 10, !dbg !1898
  br i1 %_5, label %bb3, label %bb4, !dbg !1898

bb1:                                              ; preds = %start
  store i32 0, i32* %0, align 4, !dbg !1899
  br label %bb7, !dbg !1900

bb7:                                              ; preds = %bb6, %bb5, %bb3, %bb1
  %1 = load i32, i32* %0, align 4, !dbg !1901
  ret i32 %1, !dbg !1901

bb4:                                              ; preds = %bb2
  %_8 = icmp eq i32 %i, 20, !dbg !1902
  br i1 %_8, label %bb5, label %bb6, !dbg !1902

bb3:                                              ; preds = %bb2
  store i32 10, i32* %0, align 4, !dbg !1903
  br label %bb7, !dbg !1904

bb6:                                              ; preds = %bb4
  store i32 -1, i32* %0, align 4, !dbg !1905
  br label %bb7, !dbg !1906

bb5:                                              ; preds = %bb4
  store i32 20, i32* %0, align 4, !dbg !1907
  br label %bb7, !dbg !1908
}

; Function Attrs: nonlazybind uwtable
define dso_local i32 @rust_inc(i32* %0) unnamed_addr #1 !dbg !1911 {
start:
  %1 = alloca i32*, align 8
  %count.dbg.spill.i = alloca i64, align 8
  %self.dbg.spill.i = alloca i32*, align 8
  %fresh0.dbg.spill = alloca i32*, align 8
  %n = alloca i32*, align 8
  store i32* %0, i32** %n, align 8
  call void @llvm.dbg.declare(metadata i32** %n, metadata !1917, metadata !DIExpression()), !dbg !1920
  %fresh0 = load i32*, i32** %n, align 8, !dbg !1921
  store i32* %fresh0, i32** %fresh0.dbg.spill, align 8, !dbg !1921
  call void @llvm.dbg.declare(metadata i32** %fresh0.dbg.spill, metadata !1918, metadata !DIExpression()), !dbg !1922
  %_4 = load i32*, i32** %n, align 8, !dbg !1923
  store i32* %_4, i32** %self.dbg.spill.i, align 8
  call void @llvm.dbg.declare(metadata i32** %self.dbg.spill.i, metadata !1544, metadata !DIExpression()), !dbg !1924
  store i64 1, i64* %count.dbg.spill.i, align 8
  call void @llvm.dbg.declare(metadata i64* %count.dbg.spill.i, metadata !1547, metadata !DIExpression()), !dbg !1926
  %2 = getelementptr inbounds i32, i32* %_4, i64 1, !dbg !1927
  store i32* %2, i32** %1, align 8, !dbg !1927
  %_3.i = load i32*, i32** %1, align 8, !dbg !1927
  br label %bb1, !dbg !1923

bb1:                                              ; preds = %start
  store i32* %_3.i, i32** %n, align 8, !dbg !1928
  ret i32 1, !dbg !1929
}

; Function Attrs: nonlazybind uwtable
define dso_local i32 @rust_unused_conditional1() unnamed_addr #1 !dbg !1930 {
start:
  %i = alloca i32, align 4
  call void @llvm.dbg.declare(metadata i32* %i, metadata !1934, metadata !DIExpression()), !dbg !1936
  store i32 2, i32* %i, align 4, !dbg !1937
  %_1 = call i32 @rust_inc(i32* %i), !dbg !1938
  br label %bb1, !dbg !1938

bb1:                                              ; preds = %start
  %0 = load i32, i32* %i, align 4, !dbg !1939
  ret i32 %0, !dbg !1939
}

; Function Attrs: nonlazybind uwtable
define dso_local i32 @rust_unused_conditional2() unnamed_addr #1 !dbg !1940 {
start:
  %i = alloca i32, align 4
  call void @llvm.dbg.declare(metadata i32* %i, metadata !1942, metadata !DIExpression()), !dbg !1944
  store i32 2, i32* %i, align 4, !dbg !1945
  %_1 = call i32 @rust_inc(i32* %i), !dbg !1946
  br label %bb1, !dbg !1946

bb1:                                              ; preds = %start
  %0 = load i32, i32* %i, align 4, !dbg !1947
  ret i32 %0, !dbg !1947
}

; Function Attrs: nonlazybind uwtable
define dso_local i32 @rust_unused_conditional3() unnamed_addr #1 !dbg !1948 {
start:
  %i.dbg.spill = alloca i32, align 4
  store i32 2, i32* %i.dbg.spill, align 4, !dbg !1952
  call void @llvm.dbg.declare(metadata i32* %i.dbg.spill, metadata !1950, metadata !DIExpression()), !dbg !1953
  ret i32 2, !dbg !1954
}

; Function Attrs: nonlazybind uwtable
define dso_local void @rust_entry(i32 %sz, i32* %buf) unnamed_addr #1 !dbg !1955 {
start:
  %0 = alloca i32*, align 8
  %count.dbg.spill.i7 = alloca i64, align 8
  %self.dbg.spill.i8 = alloca i32*, align 8
  %1 = alloca i32*, align 8
  %count.dbg.spill.i4 = alloca i64, align 8
  %self.dbg.spill.i5 = alloca i32*, align 8
  %2 = alloca i32*, align 8
  %count.dbg.spill.i1 = alloca i64, align 8
  %self.dbg.spill.i2 = alloca i32*, align 8
  %3 = alloca i32*, align 8
  %count.dbg.spill.i = alloca i64, align 8
  %self.dbg.spill.i = alloca i32*, align 8
  %fresh0.dbg.spill = alloca i32**, align 8
  %y.dbg.spill = alloca i32*, align 8
  %buf.dbg.spill = alloca i32*, align 8
  %sz.dbg.spill = alloca i32, align 4
  %x = alloca i32*, align 8
  store i32 %sz, i32* %sz.dbg.spill, align 4
  call void @llvm.dbg.declare(metadata i32* %sz.dbg.spill, metadata !1959, metadata !DIExpression()), !dbg !1968
  store i32* %buf, i32** %buf.dbg.spill, align 8
  call void @llvm.dbg.declare(metadata i32** %buf.dbg.spill, metadata !1960, metadata !DIExpression()), !dbg !1969
  call void @llvm.dbg.declare(metadata i32** %x, metadata !1961, metadata !DIExpression()), !dbg !1970
  store i32* %buf, i32** %self.dbg.spill.i8, align 8
  call void @llvm.dbg.declare(metadata i32** %self.dbg.spill.i8, metadata !1544, metadata !DIExpression()), !dbg !1971
  store i64 0, i64* %count.dbg.spill.i7, align 8
  call void @llvm.dbg.declare(metadata i64* %count.dbg.spill.i7, metadata !1547, metadata !DIExpression()), !dbg !1973
  store i32* %buf, i32** %0, align 8, !dbg !1974
  %_3.i9 = load i32*, i32** %0, align 8, !dbg !1974
  br label %bb1, !dbg !1975

bb1:                                              ; preds = %start
  store i32* %_3.i9, i32** %x, align 8, !dbg !1976
  store i32* %buf, i32** %self.dbg.spill.i5, align 8
  call void @llvm.dbg.declare(metadata i32** %self.dbg.spill.i5, metadata !1544, metadata !DIExpression()), !dbg !1977
  store i64 1, i64* %count.dbg.spill.i4, align 8
  call void @llvm.dbg.declare(metadata i64* %count.dbg.spill.i4, metadata !1547, metadata !DIExpression()), !dbg !1979
  %4 = getelementptr inbounds i32, i32* %buf, i64 1, !dbg !1980
  store i32* %4, i32** %1, align 8, !dbg !1980
  %_3.i6 = load i32*, i32** %1, align 8, !dbg !1980
  br label %bb2, !dbg !1981

bb2:                                              ; preds = %bb1
  store i32* %_3.i6, i32** %y.dbg.spill, align 8, !dbg !1982
  call void @llvm.dbg.declare(metadata i32** %y.dbg.spill, metadata !1963, metadata !DIExpression()), !dbg !1983
  store i32** %x, i32*** %fresh0.dbg.spill, align 8, !dbg !1984
  call void @llvm.dbg.declare(metadata i32*** %fresh0.dbg.spill, metadata !1965, metadata !DIExpression()), !dbg !1985
  store i32* inttoptr (i64 10 to i32*), i32** %x, align 8, !dbg !1986
  store i32* %buf, i32** %self.dbg.spill.i2, align 8
  call void @llvm.dbg.declare(metadata i32** %self.dbg.spill.i2, metadata !1544, metadata !DIExpression()), !dbg !1987
  store i64 2, i64* %count.dbg.spill.i1, align 8
  call void @llvm.dbg.declare(metadata i64* %count.dbg.spill.i1, metadata !1547, metadata !DIExpression()), !dbg !1989
  %5 = getelementptr inbounds i32, i32* %buf, i64 2, !dbg !1990
  store i32* %5, i32** %2, align 8, !dbg !1990
  %_3.i3 = load i32*, i32** %2, align 8, !dbg !1990
  br label %bb3, !dbg !1991

bb3:                                              ; preds = %bb2
  store i32 2, i32* %_3.i3, align 4, !dbg !1992
  store i32* %buf, i32** %self.dbg.spill.i, align 8
  call void @llvm.dbg.declare(metadata i32** %self.dbg.spill.i, metadata !1544, metadata !DIExpression()), !dbg !1993
  store i64 3, i64* %count.dbg.spill.i, align 8
  call void @llvm.dbg.declare(metadata i64* %count.dbg.spill.i, metadata !1547, metadata !DIExpression()), !dbg !1995
  %6 = getelementptr inbounds i32, i32* %buf, i64 3, !dbg !1996
  store i32* %6, i32** %3, align 8, !dbg !1996
  %_3.i = load i32*, i32** %3, align 8, !dbg !1996
  br label %bb4, !dbg !1997

bb4:                                              ; preds = %bb3
  store i32 3, i32* %_3.i, align 4, !dbg !1998
  ret void, !dbg !1999
}

; conditional_tests::test_conditionals::test_buffer::{{closure}}
; Function Attrs: inlinehint nonlazybind uwtable
define internal void @"_ZN17conditional_tests17test_conditionals11test_buffer28_$u7b$$u7b$closure$u7d$$u7d$17hdff9f96680f578d5E"(%"[closure@src/test_conditionals.rs:30:1: 42:2]"* align 1 %_1) unnamed_addr #2 !dbg !2000 {
start:
  %_1.dbg.spill = alloca %"[closure@src/test_conditionals.rs:30:1: 42:2]"*, align 8
  store %"[closure@src/test_conditionals.rs:30:1: 42:2]"* %_1, %"[closure@src/test_conditionals.rs:30:1: 42:2]"** %_1.dbg.spill, align 8
  call void @llvm.dbg.declare(metadata %"[closure@src/test_conditionals.rs:30:1: 42:2]"** %_1.dbg.spill, metadata !2006, metadata !DIExpression()), !dbg !2007
  call void @test_buffer(), !dbg !2007
  br label %bb1, !dbg !2007

bb1:                                              ; preds = %start
; call test::assert_test_result
  call void @_ZN4test18assert_test_result17he4977d7021825327E(), !dbg !2007
  br label %bb2, !dbg !2007

bb2:                                              ; preds = %bb1
  ret void, !dbg !2008
}

; Function Attrs: nonlazybind uwtable
define dso_local void @test_buffer() unnamed_addr #1 !dbg !2009 {
start:
  %right_val.dbg.spill5 = alloca [4 x i32]*, align 8
  %left_val.dbg.spill3 = alloca [4 x i32]*, align 8
  %right_val.dbg.spill = alloca [4 x i32]*, align 8
  %left_val.dbg.spill = alloca [4 x i32]*, align 8
  %_47 = alloca %"core::option::Option<core::fmt::Arguments>", align 8
  %kind1 = alloca i8, align 1
  %_31 = alloca { i32*, i32* }, align 8
  %_30 = alloca %"core::option::Option<core::fmt::Arguments>", align 8
  %kind = alloca i8, align 1
  %_14 = alloca { i32*, i32* }, align 8
  %expected_buffer = alloca [4 x i32], align 4
  %rust_buffer = alloca [4 x i32], align 4
  %buffer = alloca [4 x i32], align 4
  call void @llvm.dbg.declare(metadata [4 x i32]* %buffer, metadata !2011, metadata !DIExpression()), !dbg !2031
  call void @llvm.dbg.declare(metadata [4 x i32]* %rust_buffer, metadata !2013, metadata !DIExpression()), !dbg !2032
  call void @llvm.dbg.declare(metadata [4 x i32]* %expected_buffer, metadata !2015, metadata !DIExpression()), !dbg !2033
  call void @llvm.dbg.declare(metadata i8* %kind, metadata !2021, metadata !DIExpression()), !dbg !2034
  call void @llvm.dbg.declare(metadata i8* %kind1, metadata !2028, metadata !DIExpression()), !dbg !2035
  %0 = getelementptr inbounds [4 x i32], [4 x i32]* %buffer, i64 0, i64 0, !dbg !2036
  %1 = bitcast i32* %0 to i8*, !dbg !2036
  call void @llvm.memset.p0i8.i64(i8* align 4 %1, i8 0, i64 16, i1 false), !dbg !2036
  %2 = getelementptr inbounds [4 x i32], [4 x i32]* %rust_buffer, i64 0, i64 0, !dbg !2037
  %3 = bitcast i32* %2 to i8*, !dbg !2037
  call void @llvm.memset.p0i8.i64(i8* align 4 %3, i8 0, i64 16, i1 false), !dbg !2037
  %4 = getelementptr inbounds [4 x i32], [4 x i32]* %expected_buffer, i64 0, i64 0, !dbg !2038
  store i32 0, i32* %4, align 4, !dbg !2038
  %5 = getelementptr inbounds [4 x i32], [4 x i32]* %expected_buffer, i64 0, i64 1, !dbg !2038
  store i32 0, i32* %5, align 4, !dbg !2038
  %6 = getelementptr inbounds [4 x i32], [4 x i32]* %expected_buffer, i64 0, i64 2, !dbg !2038
  store i32 2, i32* %6, align 4, !dbg !2038
  %7 = getelementptr inbounds [4 x i32], [4 x i32]* %expected_buffer, i64 0, i64 3, !dbg !2038
  store i32 3, i32* %7, align 4, !dbg !2038
  %_7.0 = bitcast [4 x i32]* %buffer to [0 x i32]*, !dbg !2039
; call core::slice::<impl [T]>::as_mut_ptr
  %_6 = call i32* @"_ZN4core5slice29_$LT$impl$u20$$u5b$T$u5d$$GT$10as_mut_ptr17h3fde33b6a595246eE"([0 x i32]* align 4 %_7.0, i64 4), !dbg !2039
  br label %bb1, !dbg !2039

bb1:                                              ; preds = %start
  call void @entry(i32 4, i32* %_6), !dbg !2040
  br label %bb2, !dbg !2040

bb2:                                              ; preds = %bb1
  %_12.0 = bitcast [4 x i32]* %rust_buffer to [0 x i32]*, !dbg !2041
; call core::slice::<impl [T]>::as_mut_ptr
  %_11 = call i32* @"_ZN4core5slice29_$LT$impl$u20$$u5b$T$u5d$$GT$10as_mut_ptr17h3fde33b6a595246eE"([0 x i32]* align 4 %_12.0, i64 4), !dbg !2041
  br label %bb3, !dbg !2041

bb3:                                              ; preds = %bb2
  call void @rust_entry(i32 4, i32* %_11), !dbg !2042
  br label %bb4, !dbg !2042

bb4:                                              ; preds = %bb3
  %8 = bitcast { i32*, i32* }* %_14 to [4 x i32]**, !dbg !2043
  store [4 x i32]* %buffer, [4 x i32]** %8, align 8, !dbg !2043
  %9 = getelementptr inbounds { i32*, i32* }, { i32*, i32* }* %_14, i32 0, i32 1, !dbg !2043
  %10 = bitcast i32** %9 to [4 x i32]**, !dbg !2043
  store [4 x i32]* %rust_buffer, [4 x i32]** %10, align 8, !dbg !2043
  %11 = bitcast { i32*, i32* }* %_14 to [4 x i32]**, !dbg !2043
  %left_val = load [4 x i32]*, [4 x i32]** %11, align 8, !dbg !2043, !nonnull !23, !align !276, !noundef !23
  store [4 x i32]* %left_val, [4 x i32]** %left_val.dbg.spill, align 8, !dbg !2043
  call void @llvm.dbg.declare(metadata [4 x i32]** %left_val.dbg.spill, metadata !2017, metadata !DIExpression()), !dbg !2044
  %12 = getelementptr inbounds { i32*, i32* }, { i32*, i32* }* %_14, i32 0, i32 1, !dbg !2043
  %13 = bitcast i32** %12 to [4 x i32]**, !dbg !2043
  %right_val = load [4 x i32]*, [4 x i32]** %13, align 8, !dbg !2043, !nonnull !23, !align !276, !noundef !23
  store [4 x i32]* %right_val, [4 x i32]** %right_val.dbg.spill, align 8, !dbg !2043
  call void @llvm.dbg.declare(metadata [4 x i32]** %right_val.dbg.spill, metadata !2020, metadata !DIExpression()), !dbg !2044
; call core::array::equality::<impl core::cmp::PartialEq<[B; N]> for [A; N]>::eq
  %_20 = call zeroext i1 @"_ZN4core5array8equality103_$LT$impl$u20$core..cmp..PartialEq$LT$$u5b$B$u3b$$u20$N$u5d$$GT$$u20$for$u20$$u5b$A$u3b$$u20$N$u5d$$GT$2eq17h801033fca19a4772E"([4 x i32]* align 4 %left_val, [4 x i32]* align 4 %right_val), !dbg !2044
  br label %bb5, !dbg !2044

bb5:                                              ; preds = %bb4
  %_19 = xor i1 %_20, true, !dbg !2044
  br i1 %_19, label %bb6, label %bb7, !dbg !2044

bb7:                                              ; preds = %bb5
  %14 = bitcast { i32*, i32* }* %_31 to [4 x i32]**, !dbg !2045
  store [4 x i32]* %buffer, [4 x i32]** %14, align 8, !dbg !2045
  %15 = getelementptr inbounds { i32*, i32* }, { i32*, i32* }* %_31, i32 0, i32 1, !dbg !2045
  %16 = bitcast i32** %15 to [4 x i32]**, !dbg !2045
  store [4 x i32]* %expected_buffer, [4 x i32]** %16, align 8, !dbg !2045
  %17 = bitcast { i32*, i32* }* %_31 to [4 x i32]**, !dbg !2045
  %left_val2 = load [4 x i32]*, [4 x i32]** %17, align 8, !dbg !2045, !nonnull !23, !align !276, !noundef !23
  store [4 x i32]* %left_val2, [4 x i32]** %left_val.dbg.spill3, align 8, !dbg !2045
  call void @llvm.dbg.declare(metadata [4 x i32]** %left_val.dbg.spill3, metadata !2024, metadata !DIExpression()), !dbg !2046
  %18 = getelementptr inbounds { i32*, i32* }, { i32*, i32* }* %_31, i32 0, i32 1, !dbg !2045
  %19 = bitcast i32** %18 to [4 x i32]**, !dbg !2045
  %right_val4 = load [4 x i32]*, [4 x i32]** %19, align 8, !dbg !2045, !nonnull !23, !align !276, !noundef !23
  store [4 x i32]* %right_val4, [4 x i32]** %right_val.dbg.spill5, align 8, !dbg !2045
  call void @llvm.dbg.declare(metadata [4 x i32]** %right_val.dbg.spill5, metadata !2027, metadata !DIExpression()), !dbg !2046
; call core::array::equality::<impl core::cmp::PartialEq<[B; N]> for [A; N]>::eq
  %_37 = call zeroext i1 @"_ZN4core5array8equality103_$LT$impl$u20$core..cmp..PartialEq$LT$$u5b$B$u3b$$u20$N$u5d$$GT$$u20$for$u20$$u5b$A$u3b$$u20$N$u5d$$GT$2eq17h801033fca19a4772E"([4 x i32]* align 4 %left_val2, [4 x i32]* align 4 %right_val4), !dbg !2046
  br label %bb8, !dbg !2046

bb6:                                              ; preds = %bb5
  store i8 0, i8* %kind, align 1, !dbg !2044
  %20 = bitcast %"core::option::Option<core::fmt::Arguments>"* %_30 to {}**, !dbg !2034
  store {}* null, {}** %20, align 8, !dbg !2034
; call core::panicking::assert_failed
  call void @_ZN4core9panicking13assert_failed17h90b21583f6932c81E(i8 0, [4 x i32]* align 4 %left_val, [4 x i32]* align 4 %right_val, %"core::option::Option<core::fmt::Arguments>"* %_30, %"core::panic::location::Location"* align 8 bitcast (<{ i8*, [16 x i8] }>* @alloc322 to %"core::panic::location::Location"*)) #13, !dbg !2034
  unreachable, !dbg !2034

bb8:                                              ; preds = %bb7
  %_36 = xor i1 %_37, true, !dbg !2046
  br i1 %_36, label %bb9, label %bb10, !dbg !2046

bb10:                                             ; preds = %bb8
  ret void, !dbg !2047

bb9:                                              ; preds = %bb8
  store i8 0, i8* %kind1, align 1, !dbg !2046
  %21 = bitcast %"core::option::Option<core::fmt::Arguments>"* %_47 to {}**, !dbg !2035
  store {}* null, {}** %21, align 8, !dbg !2035
; call core::panicking::assert_failed
  call void @_ZN4core9panicking13assert_failed17h90b21583f6932c81E(i8 0, [4 x i32]* align 4 %left_val2, [4 x i32]* align 4 %right_val4, %"core::option::Option<core::fmt::Arguments>"* %_47, %"core::panic::location::Location"* align 8 bitcast (<{ i8*, [16 x i8] }>* @alloc324 to %"core::panic::location::Location"*)) #13, !dbg !2035
  unreachable, !dbg !2035
}

; conditional_tests::test_conditionals::test_buffer2::{{closure}}
; Function Attrs: inlinehint nonlazybind uwtable
define internal void @"_ZN17conditional_tests17test_conditionals12test_buffer228_$u7b$$u7b$closure$u7d$$u7d$17hc5391ed2828097a9E"(%"[closure@src/test_conditionals.rs:45:1: 59:2]"* align 1 %_1) unnamed_addr #2 !dbg !2048 {
start:
  %_1.dbg.spill = alloca %"[closure@src/test_conditionals.rs:45:1: 59:2]"*, align 8
  store %"[closure@src/test_conditionals.rs:45:1: 59:2]"* %_1, %"[closure@src/test_conditionals.rs:45:1: 59:2]"** %_1.dbg.spill, align 8
  call void @llvm.dbg.declare(metadata %"[closure@src/test_conditionals.rs:45:1: 59:2]"** %_1.dbg.spill, metadata !2053, metadata !DIExpression()), !dbg !2054
  call void @test_buffer2(), !dbg !2054
  br label %bb1, !dbg !2054

bb1:                                              ; preds = %start
; call test::assert_test_result
  call void @_ZN4test18assert_test_result17he4977d7021825327E(), !dbg !2054
  br label %bb2, !dbg !2054

bb2:                                              ; preds = %bb1
  ret void, !dbg !2055
}

; Function Attrs: nonlazybind uwtable
define dso_local void @test_buffer2() unnamed_addr #1 !dbg !2056 {
start:
  %right_val.dbg.spill5 = alloca [30 x i32]*, align 8
  %left_val.dbg.spill3 = alloca [30 x i32]*, align 8
  %right_val.dbg.spill = alloca [30 x i32]*, align 8
  %left_val.dbg.spill = alloca [30 x i32]*, align 8
  %_47 = alloca %"core::option::Option<core::fmt::Arguments>", align 8
  %kind1 = alloca i8, align 1
  %_31 = alloca { i32*, i32* }, align 8
  %_30 = alloca %"core::option::Option<core::fmt::Arguments>", align 8
  %kind = alloca i8, align 1
  %_14 = alloca { i32*, i32* }, align 8
  %expected_buffer = alloca [30 x i32], align 4
  %rust_buffer = alloca [30 x i32], align 4
  %buffer = alloca [30 x i32], align 4
  call void @llvm.dbg.declare(metadata [30 x i32]* %buffer, metadata !2058, metadata !DIExpression()), !dbg !2078
  call void @llvm.dbg.declare(metadata [30 x i32]* %rust_buffer, metadata !2060, metadata !DIExpression()), !dbg !2079
  call void @llvm.dbg.declare(metadata [30 x i32]* %expected_buffer, metadata !2062, metadata !DIExpression()), !dbg !2080
  call void @llvm.dbg.declare(metadata i8* %kind, metadata !2068, metadata !DIExpression()), !dbg !2081
  call void @llvm.dbg.declare(metadata i8* %kind1, metadata !2075, metadata !DIExpression()), !dbg !2082
  %0 = getelementptr inbounds [30 x i32], [30 x i32]* %buffer, i64 0, i64 0, !dbg !2083
  %1 = bitcast i32* %0 to i8*, !dbg !2083
  call void @llvm.memset.p0i8.i64(i8* align 4 %1, i8 0, i64 120, i1 false), !dbg !2083
  %2 = getelementptr inbounds [30 x i32], [30 x i32]* %rust_buffer, i64 0, i64 0, !dbg !2084
  %3 = bitcast i32* %2 to i8*, !dbg !2084
  call void @llvm.memset.p0i8.i64(i8* align 4 %3, i8 0, i64 120, i1 false), !dbg !2084
  %4 = getelementptr inbounds [30 x i32], [30 x i32]* %expected_buffer, i64 0, i64 0, !dbg !2085
  store i32 1, i32* %4, align 4, !dbg !2085
  %5 = getelementptr inbounds [30 x i32], [30 x i32]* %expected_buffer, i64 0, i64 1, !dbg !2085
  store i32 1, i32* %5, align 4, !dbg !2085
  %6 = getelementptr inbounds [30 x i32], [30 x i32]* %expected_buffer, i64 0, i64 2, !dbg !2085
  store i32 1, i32* %6, align 4, !dbg !2085
  %7 = getelementptr inbounds [30 x i32], [30 x i32]* %expected_buffer, i64 0, i64 3, !dbg !2085
  store i32 1, i32* %7, align 4, !dbg !2085
  %8 = getelementptr inbounds [30 x i32], [30 x i32]* %expected_buffer, i64 0, i64 4, !dbg !2085
  store i32 1, i32* %8, align 4, !dbg !2085
  %9 = getelementptr inbounds [30 x i32], [30 x i32]* %expected_buffer, i64 0, i64 5, !dbg !2085
  store i32 1, i32* %9, align 4, !dbg !2085
  %10 = getelementptr inbounds [30 x i32], [30 x i32]* %expected_buffer, i64 0, i64 6, !dbg !2085
  store i32 1, i32* %10, align 4, !dbg !2085
  %11 = getelementptr inbounds [30 x i32], [30 x i32]* %expected_buffer, i64 0, i64 7, !dbg !2085
  store i32 1, i32* %11, align 4, !dbg !2085
  %12 = getelementptr inbounds [30 x i32], [30 x i32]* %expected_buffer, i64 0, i64 8, !dbg !2085
  store i32 1, i32* %12, align 4, !dbg !2085
  %13 = getelementptr inbounds [30 x i32], [30 x i32]* %expected_buffer, i64 0, i64 9, !dbg !2085
  store i32 1, i32* %13, align 4, !dbg !2085
  %14 = getelementptr inbounds [30 x i32], [30 x i32]* %expected_buffer, i64 0, i64 10, !dbg !2085
  store i32 0, i32* %14, align 4, !dbg !2085
  %15 = getelementptr inbounds [30 x i32], [30 x i32]* %expected_buffer, i64 0, i64 11, !dbg !2085
  store i32 0, i32* %15, align 4, !dbg !2085
  %16 = getelementptr inbounds [30 x i32], [30 x i32]* %expected_buffer, i64 0, i64 12, !dbg !2085
  store i32 0, i32* %16, align 4, !dbg !2085
  %17 = getelementptr inbounds [30 x i32], [30 x i32]* %expected_buffer, i64 0, i64 13, !dbg !2085
  store i32 0, i32* %17, align 4, !dbg !2085
  %18 = getelementptr inbounds [30 x i32], [30 x i32]* %expected_buffer, i64 0, i64 14, !dbg !2085
  store i32 0, i32* %18, align 4, !dbg !2085
  %19 = getelementptr inbounds [30 x i32], [30 x i32]* %expected_buffer, i64 0, i64 15, !dbg !2085
  store i32 0, i32* %19, align 4, !dbg !2085
  %20 = getelementptr inbounds [30 x i32], [30 x i32]* %expected_buffer, i64 0, i64 16, !dbg !2085
  store i32 0, i32* %20, align 4, !dbg !2085
  %21 = getelementptr inbounds [30 x i32], [30 x i32]* %expected_buffer, i64 0, i64 17, !dbg !2085
  store i32 0, i32* %21, align 4, !dbg !2085
  %22 = getelementptr inbounds [30 x i32], [30 x i32]* %expected_buffer, i64 0, i64 18, !dbg !2085
  store i32 0, i32* %22, align 4, !dbg !2085
  %23 = getelementptr inbounds [30 x i32], [30 x i32]* %expected_buffer, i64 0, i64 19, !dbg !2085
  store i32 0, i32* %23, align 4, !dbg !2085
  %24 = getelementptr inbounds [30 x i32], [30 x i32]* %expected_buffer, i64 0, i64 20, !dbg !2085
  store i32 0, i32* %24, align 4, !dbg !2085
  %25 = getelementptr inbounds [30 x i32], [30 x i32]* %expected_buffer, i64 0, i64 21, !dbg !2085
  store i32 0, i32* %25, align 4, !dbg !2085
  %26 = getelementptr inbounds [30 x i32], [30 x i32]* %expected_buffer, i64 0, i64 22, !dbg !2085
  store i32 0, i32* %26, align 4, !dbg !2085
  %27 = getelementptr inbounds [30 x i32], [30 x i32]* %expected_buffer, i64 0, i64 23, !dbg !2085
  store i32 0, i32* %27, align 4, !dbg !2085
  %28 = getelementptr inbounds [30 x i32], [30 x i32]* %expected_buffer, i64 0, i64 24, !dbg !2085
  store i32 0, i32* %28, align 4, !dbg !2085
  %29 = getelementptr inbounds [30 x i32], [30 x i32]* %expected_buffer, i64 0, i64 25, !dbg !2085
  store i32 0, i32* %29, align 4, !dbg !2085
  %30 = getelementptr inbounds [30 x i32], [30 x i32]* %expected_buffer, i64 0, i64 26, !dbg !2085
  store i32 0, i32* %30, align 4, !dbg !2085
  %31 = getelementptr inbounds [30 x i32], [30 x i32]* %expected_buffer, i64 0, i64 27, !dbg !2085
  store i32 0, i32* %31, align 4, !dbg !2085
  %32 = getelementptr inbounds [30 x i32], [30 x i32]* %expected_buffer, i64 0, i64 28, !dbg !2085
  store i32 0, i32* %32, align 4, !dbg !2085
  %33 = getelementptr inbounds [30 x i32], [30 x i32]* %expected_buffer, i64 0, i64 29, !dbg !2085
  store i32 0, i32* %33, align 4, !dbg !2085
  %_7.0 = bitcast [30 x i32]* %buffer to [0 x i32]*, !dbg !2086
; call core::slice::<impl [T]>::as_mut_ptr
  %_6 = call i32* @"_ZN4core5slice29_$LT$impl$u20$$u5b$T$u5d$$GT$10as_mut_ptr17h3fde33b6a595246eE"([0 x i32]* align 4 %_7.0, i64 30), !dbg !2086
  br label %bb1, !dbg !2086

bb1:                                              ; preds = %start
  call void @entry2(i32 30, i32* %_6), !dbg !2087
  br label %bb2, !dbg !2087

bb2:                                              ; preds = %bb1
  %_12.0 = bitcast [30 x i32]* %rust_buffer to [0 x i32]*, !dbg !2088
; call core::slice::<impl [T]>::as_mut_ptr
  %_11 = call i32* @"_ZN4core5slice29_$LT$impl$u20$$u5b$T$u5d$$GT$10as_mut_ptr17h3fde33b6a595246eE"([0 x i32]* align 4 %_12.0, i64 30), !dbg !2088
  br label %bb3, !dbg !2088

bb3:                                              ; preds = %bb2
  call void @rust_entry2(i32 30, i32* %_11), !dbg !2089
  br label %bb4, !dbg !2089

bb4:                                              ; preds = %bb3
  %34 = bitcast { i32*, i32* }* %_14 to [30 x i32]**, !dbg !2090
  store [30 x i32]* %buffer, [30 x i32]** %34, align 8, !dbg !2090
  %35 = getelementptr inbounds { i32*, i32* }, { i32*, i32* }* %_14, i32 0, i32 1, !dbg !2090
  %36 = bitcast i32** %35 to [30 x i32]**, !dbg !2090
  store [30 x i32]* %rust_buffer, [30 x i32]** %36, align 8, !dbg !2090
  %37 = bitcast { i32*, i32* }* %_14 to [30 x i32]**, !dbg !2090
  %left_val = load [30 x i32]*, [30 x i32]** %37, align 8, !dbg !2090, !nonnull !23, !align !276, !noundef !23
  store [30 x i32]* %left_val, [30 x i32]** %left_val.dbg.spill, align 8, !dbg !2090
  call void @llvm.dbg.declare(metadata [30 x i32]** %left_val.dbg.spill, metadata !2064, metadata !DIExpression()), !dbg !2091
  %38 = getelementptr inbounds { i32*, i32* }, { i32*, i32* }* %_14, i32 0, i32 1, !dbg !2090
  %39 = bitcast i32** %38 to [30 x i32]**, !dbg !2090
  %right_val = load [30 x i32]*, [30 x i32]** %39, align 8, !dbg !2090, !nonnull !23, !align !276, !noundef !23
  store [30 x i32]* %right_val, [30 x i32]** %right_val.dbg.spill, align 8, !dbg !2090
  call void @llvm.dbg.declare(metadata [30 x i32]** %right_val.dbg.spill, metadata !2067, metadata !DIExpression()), !dbg !2091
; call core::array::equality::<impl core::cmp::PartialEq<[B; N]> for [A; N]>::eq
  %_20 = call zeroext i1 @"_ZN4core5array8equality103_$LT$impl$u20$core..cmp..PartialEq$LT$$u5b$B$u3b$$u20$N$u5d$$GT$$u20$for$u20$$u5b$A$u3b$$u20$N$u5d$$GT$2eq17hdfb198b0892f0dc1E"([30 x i32]* align 4 %left_val, [30 x i32]* align 4 %right_val), !dbg !2091
  br label %bb5, !dbg !2091

bb5:                                              ; preds = %bb4
  %_19 = xor i1 %_20, true, !dbg !2091
  br i1 %_19, label %bb6, label %bb7, !dbg !2091

bb7:                                              ; preds = %bb5
  %40 = bitcast { i32*, i32* }* %_31 to [30 x i32]**, !dbg !2092
  store [30 x i32]* %buffer, [30 x i32]** %40, align 8, !dbg !2092
  %41 = getelementptr inbounds { i32*, i32* }, { i32*, i32* }* %_31, i32 0, i32 1, !dbg !2092
  %42 = bitcast i32** %41 to [30 x i32]**, !dbg !2092
  store [30 x i32]* %expected_buffer, [30 x i32]** %42, align 8, !dbg !2092
  %43 = bitcast { i32*, i32* }* %_31 to [30 x i32]**, !dbg !2092
  %left_val2 = load [30 x i32]*, [30 x i32]** %43, align 8, !dbg !2092, !nonnull !23, !align !276, !noundef !23
  store [30 x i32]* %left_val2, [30 x i32]** %left_val.dbg.spill3, align 8, !dbg !2092
  call void @llvm.dbg.declare(metadata [30 x i32]** %left_val.dbg.spill3, metadata !2071, metadata !DIExpression()), !dbg !2093
  %44 = getelementptr inbounds { i32*, i32* }, { i32*, i32* }* %_31, i32 0, i32 1, !dbg !2092
  %45 = bitcast i32** %44 to [30 x i32]**, !dbg !2092
  %right_val4 = load [30 x i32]*, [30 x i32]** %45, align 8, !dbg !2092, !nonnull !23, !align !276, !noundef !23
  store [30 x i32]* %right_val4, [30 x i32]** %right_val.dbg.spill5, align 8, !dbg !2092
  call void @llvm.dbg.declare(metadata [30 x i32]** %right_val.dbg.spill5, metadata !2074, metadata !DIExpression()), !dbg !2093
; call core::array::equality::<impl core::cmp::PartialEq<[B; N]> for [A; N]>::eq
  %_37 = call zeroext i1 @"_ZN4core5array8equality103_$LT$impl$u20$core..cmp..PartialEq$LT$$u5b$B$u3b$$u20$N$u5d$$GT$$u20$for$u20$$u5b$A$u3b$$u20$N$u5d$$GT$2eq17hdfb198b0892f0dc1E"([30 x i32]* align 4 %left_val2, [30 x i32]* align 4 %right_val4), !dbg !2093
  br label %bb8, !dbg !2093

bb6:                                              ; preds = %bb5
  store i8 0, i8* %kind, align 1, !dbg !2091
  %46 = bitcast %"core::option::Option<core::fmt::Arguments>"* %_30 to {}**, !dbg !2081
  store {}* null, {}** %46, align 8, !dbg !2081
; call core::panicking::assert_failed
  call void @_ZN4core9panicking13assert_failed17h5fe8306f006c1b72E(i8 0, [30 x i32]* align 4 %left_val, [30 x i32]* align 4 %right_val, %"core::option::Option<core::fmt::Arguments>"* %_30, %"core::panic::location::Location"* align 8 bitcast (<{ i8*, [16 x i8] }>* @alloc326 to %"core::panic::location::Location"*)) #13, !dbg !2081
  unreachable, !dbg !2081

bb8:                                              ; preds = %bb7
  %_36 = xor i1 %_37, true, !dbg !2093
  br i1 %_36, label %bb9, label %bb10, !dbg !2093

bb10:                                             ; preds = %bb8
  ret void, !dbg !2094

bb9:                                              ; preds = %bb8
  store i8 0, i8* %kind1, align 1, !dbg !2093
  %47 = bitcast %"core::option::Option<core::fmt::Arguments>"* %_47 to {}**, !dbg !2082
  store {}* null, {}** %47, align 8, !dbg !2082
; call core::panicking::assert_failed
  call void @_ZN4core9panicking13assert_failed17h5fe8306f006c1b72E(i8 0, [30 x i32]* align 4 %left_val2, [30 x i32]* align 4 %right_val4, %"core::option::Option<core::fmt::Arguments>"* %_47, %"core::panic::location::Location"* align 8 bitcast (<{ i8*, [16 x i8] }>* @alloc328 to %"core::panic::location::Location"*)) #13, !dbg !2082
  unreachable, !dbg !2082
}

; conditional_tests::test_conditionals::test_binary_conditionals::{{closure}}
; Function Attrs: inlinehint nonlazybind uwtable
define internal void @"_ZN17conditional_tests17test_conditionals24test_binary_conditionals28_$u7b$$u7b$closure$u7d$$u7d$17h3761627c001df23fE"(%"[closure@src/test_conditionals.rs:62:1: 74:2]"* align 1 %_1) unnamed_addr #2 !dbg !2095 {
start:
  %_1.dbg.spill = alloca %"[closure@src/test_conditionals.rs:62:1: 74:2]"*, align 8
  store %"[closure@src/test_conditionals.rs:62:1: 74:2]"* %_1, %"[closure@src/test_conditionals.rs:62:1: 74:2]"** %_1.dbg.spill, align 8
  call void @llvm.dbg.declare(metadata %"[closure@src/test_conditionals.rs:62:1: 74:2]"** %_1.dbg.spill, metadata !2100, metadata !DIExpression()), !dbg !2101
  call void @test_binary_conditionals(), !dbg !2101
  br label %bb1, !dbg !2101

bb1:                                              ; preds = %start
; call test::assert_test_result
  call void @_ZN4test18assert_test_result17he4977d7021825327E(), !dbg !2101
  br label %bb2, !dbg !2101

bb2:                                              ; preds = %bb1
  ret void, !dbg !2102
}

; Function Attrs: nonlazybind uwtable
define dso_local void @test_binary_conditionals() unnamed_addr #1 !dbg !2103 {
start:
  %right_val.dbg.spill5 = alloca [6 x i32]*, align 8
  %left_val.dbg.spill3 = alloca [6 x i32]*, align 8
  %right_val.dbg.spill = alloca [6 x i32]*, align 8
  %left_val.dbg.spill = alloca [6 x i32]*, align 8
  %_47 = alloca %"core::option::Option<core::fmt::Arguments>", align 8
  %kind1 = alloca i8, align 1
  %_31 = alloca { i32*, i32* }, align 8
  %_30 = alloca %"core::option::Option<core::fmt::Arguments>", align 8
  %kind = alloca i8, align 1
  %_14 = alloca { i32*, i32* }, align 8
  %expected_buffer = alloca [6 x i32], align 4
  %rust_buffer = alloca [6 x i32], align 4
  %buffer = alloca [6 x i32], align 4
  call void @llvm.dbg.declare(metadata [6 x i32]* %buffer, metadata !2105, metadata !DIExpression()), !dbg !2125
  call void @llvm.dbg.declare(metadata [6 x i32]* %rust_buffer, metadata !2107, metadata !DIExpression()), !dbg !2126
  call void @llvm.dbg.declare(metadata [6 x i32]* %expected_buffer, metadata !2109, metadata !DIExpression()), !dbg !2127
  call void @llvm.dbg.declare(metadata i8* %kind, metadata !2115, metadata !DIExpression()), !dbg !2128
  call void @llvm.dbg.declare(metadata i8* %kind1, metadata !2122, metadata !DIExpression()), !dbg !2129
  %0 = getelementptr inbounds [6 x i32], [6 x i32]* %buffer, i64 0, i64 0, !dbg !2130
  %1 = bitcast i32* %0 to i8*, !dbg !2130
  call void @llvm.memset.p0i8.i64(i8* align 4 %1, i8 0, i64 24, i1 false), !dbg !2130
  %2 = getelementptr inbounds [6 x i32], [6 x i32]* %rust_buffer, i64 0, i64 0, !dbg !2131
  %3 = bitcast i32* %2 to i8*, !dbg !2131
  call void @llvm.memset.p0i8.i64(i8* align 4 %3, i8 0, i64 24, i1 false), !dbg !2131
  %4 = getelementptr inbounds [6 x i32], [6 x i32]* %expected_buffer, i64 0, i64 0, !dbg !2132
  store i32 1, i32* %4, align 4, !dbg !2132
  %5 = getelementptr inbounds [6 x i32], [6 x i32]* %expected_buffer, i64 0, i64 1, !dbg !2132
  store i32 2, i32* %5, align 4, !dbg !2132
  %6 = getelementptr inbounds [6 x i32], [6 x i32]* %expected_buffer, i64 0, i64 2, !dbg !2132
  store i32 2, i32* %6, align 4, !dbg !2132
  %7 = getelementptr inbounds [6 x i32], [6 x i32]* %expected_buffer, i64 0, i64 3, !dbg !2132
  store i32 3, i32* %7, align 4, !dbg !2132
  %8 = getelementptr inbounds [6 x i32], [6 x i32]* %expected_buffer, i64 0, i64 4, !dbg !2132
  store i32 4, i32* %8, align 4, !dbg !2132
  %9 = getelementptr inbounds [6 x i32], [6 x i32]* %expected_buffer, i64 0, i64 5, !dbg !2132
  store i32 0, i32* %9, align 4, !dbg !2132
  %_7.0 = bitcast [6 x i32]* %buffer to [0 x i32]*, !dbg !2133
; call core::slice::<impl [T]>::as_mut_ptr
  %_6 = call i32* @"_ZN4core5slice29_$LT$impl$u20$$u5b$T$u5d$$GT$10as_mut_ptr17h3fde33b6a595246eE"([0 x i32]* align 4 %_7.0, i64 6), !dbg !2133
  br label %bb1, !dbg !2133

bb1:                                              ; preds = %start
  call void @entry3(i32 6, i32* %_6), !dbg !2134
  br label %bb2, !dbg !2134

bb2:                                              ; preds = %bb1
  %_12.0 = bitcast [6 x i32]* %rust_buffer to [0 x i32]*, !dbg !2135
; call core::slice::<impl [T]>::as_mut_ptr
  %_11 = call i32* @"_ZN4core5slice29_$LT$impl$u20$$u5b$T$u5d$$GT$10as_mut_ptr17h3fde33b6a595246eE"([0 x i32]* align 4 %_12.0, i64 6), !dbg !2135
  br label %bb3, !dbg !2135

bb3:                                              ; preds = %bb2
  call void @rust_entry3(i32 6, i32* %_11), !dbg !2136
  br label %bb4, !dbg !2136

bb4:                                              ; preds = %bb3
  %10 = bitcast { i32*, i32* }* %_14 to [6 x i32]**, !dbg !2137
  store [6 x i32]* %buffer, [6 x i32]** %10, align 8, !dbg !2137
  %11 = getelementptr inbounds { i32*, i32* }, { i32*, i32* }* %_14, i32 0, i32 1, !dbg !2137
  %12 = bitcast i32** %11 to [6 x i32]**, !dbg !2137
  store [6 x i32]* %rust_buffer, [6 x i32]** %12, align 8, !dbg !2137
  %13 = bitcast { i32*, i32* }* %_14 to [6 x i32]**, !dbg !2137
  %left_val = load [6 x i32]*, [6 x i32]** %13, align 8, !dbg !2137, !nonnull !23, !align !276, !noundef !23
  store [6 x i32]* %left_val, [6 x i32]** %left_val.dbg.spill, align 8, !dbg !2137
  call void @llvm.dbg.declare(metadata [6 x i32]** %left_val.dbg.spill, metadata !2111, metadata !DIExpression()), !dbg !2138
  %14 = getelementptr inbounds { i32*, i32* }, { i32*, i32* }* %_14, i32 0, i32 1, !dbg !2137
  %15 = bitcast i32** %14 to [6 x i32]**, !dbg !2137
  %right_val = load [6 x i32]*, [6 x i32]** %15, align 8, !dbg !2137, !nonnull !23, !align !276, !noundef !23
  store [6 x i32]* %right_val, [6 x i32]** %right_val.dbg.spill, align 8, !dbg !2137
  call void @llvm.dbg.declare(metadata [6 x i32]** %right_val.dbg.spill, metadata !2114, metadata !DIExpression()), !dbg !2138
; call core::array::equality::<impl core::cmp::PartialEq<[B; N]> for [A; N]>::eq
  %_20 = call zeroext i1 @"_ZN4core5array8equality103_$LT$impl$u20$core..cmp..PartialEq$LT$$u5b$B$u3b$$u20$N$u5d$$GT$$u20$for$u20$$u5b$A$u3b$$u20$N$u5d$$GT$2eq17h925cfbd4c1a228e5E"([6 x i32]* align 4 %left_val, [6 x i32]* align 4 %right_val), !dbg !2138
  br label %bb5, !dbg !2138

bb5:                                              ; preds = %bb4
  %_19 = xor i1 %_20, true, !dbg !2138
  br i1 %_19, label %bb6, label %bb7, !dbg !2138

bb7:                                              ; preds = %bb5
  %16 = bitcast { i32*, i32* }* %_31 to [6 x i32]**, !dbg !2139
  store [6 x i32]* %buffer, [6 x i32]** %16, align 8, !dbg !2139
  %17 = getelementptr inbounds { i32*, i32* }, { i32*, i32* }* %_31, i32 0, i32 1, !dbg !2139
  %18 = bitcast i32** %17 to [6 x i32]**, !dbg !2139
  store [6 x i32]* %expected_buffer, [6 x i32]** %18, align 8, !dbg !2139
  %19 = bitcast { i32*, i32* }* %_31 to [6 x i32]**, !dbg !2139
  %left_val2 = load [6 x i32]*, [6 x i32]** %19, align 8, !dbg !2139, !nonnull !23, !align !276, !noundef !23
  store [6 x i32]* %left_val2, [6 x i32]** %left_val.dbg.spill3, align 8, !dbg !2139
  call void @llvm.dbg.declare(metadata [6 x i32]** %left_val.dbg.spill3, metadata !2118, metadata !DIExpression()), !dbg !2140
  %20 = getelementptr inbounds { i32*, i32* }, { i32*, i32* }* %_31, i32 0, i32 1, !dbg !2139
  %21 = bitcast i32** %20 to [6 x i32]**, !dbg !2139
  %right_val4 = load [6 x i32]*, [6 x i32]** %21, align 8, !dbg !2139, !nonnull !23, !align !276, !noundef !23
  store [6 x i32]* %right_val4, [6 x i32]** %right_val.dbg.spill5, align 8, !dbg !2139
  call void @llvm.dbg.declare(metadata [6 x i32]** %right_val.dbg.spill5, metadata !2121, metadata !DIExpression()), !dbg !2140
; call core::array::equality::<impl core::cmp::PartialEq<[B; N]> for [A; N]>::eq
  %_37 = call zeroext i1 @"_ZN4core5array8equality103_$LT$impl$u20$core..cmp..PartialEq$LT$$u5b$B$u3b$$u20$N$u5d$$GT$$u20$for$u20$$u5b$A$u3b$$u20$N$u5d$$GT$2eq17h925cfbd4c1a228e5E"([6 x i32]* align 4 %left_val2, [6 x i32]* align 4 %right_val4), !dbg !2140
  br label %bb8, !dbg !2140

bb6:                                              ; preds = %bb5
  store i8 0, i8* %kind, align 1, !dbg !2138
  %22 = bitcast %"core::option::Option<core::fmt::Arguments>"* %_30 to {}**, !dbg !2128
  store {}* null, {}** %22, align 8, !dbg !2128
; call core::panicking::assert_failed
  call void @_ZN4core9panicking13assert_failed17h4228718d9341afd2E(i8 0, [6 x i32]* align 4 %left_val, [6 x i32]* align 4 %right_val, %"core::option::Option<core::fmt::Arguments>"* %_30, %"core::panic::location::Location"* align 8 bitcast (<{ i8*, [16 x i8] }>* @alloc330 to %"core::panic::location::Location"*)) #13, !dbg !2128
  unreachable, !dbg !2128

bb8:                                              ; preds = %bb7
  %_36 = xor i1 %_37, true, !dbg !2140
  br i1 %_36, label %bb9, label %bb10, !dbg !2140

bb10:                                             ; preds = %bb8
  ret void, !dbg !2141

bb9:                                              ; preds = %bb8
  store i8 0, i8* %kind1, align 1, !dbg !2140
  %23 = bitcast %"core::option::Option<core::fmt::Arguments>"* %_47 to {}**, !dbg !2129
  store {}* null, {}** %23, align 8, !dbg !2129
; call core::panicking::assert_failed
  call void @_ZN4core9panicking13assert_failed17h4228718d9341afd2E(i8 0, [6 x i32]* align 4 %left_val2, [6 x i32]* align 4 %right_val4, %"core::option::Option<core::fmt::Arguments>"* %_47, %"core::panic::location::Location"* align 8 bitcast (<{ i8*, [16 x i8] }>* @alloc332 to %"core::panic::location::Location"*)) #13, !dbg !2129
  unreachable, !dbg !2129
}

; conditional_tests::test_conditionals::test_unused_conditional::{{closure}}
; Function Attrs: inlinehint nonlazybind uwtable
define internal void @"_ZN17conditional_tests17test_conditionals23test_unused_conditional28_$u7b$$u7b$closure$u7d$$u7d$17hd1164f71b1dc1d06E"(%"[closure@src/test_conditionals.rs:77:1: 83:2]"* align 1 %_1) unnamed_addr #2 !dbg !2142 {
start:
  %_1.dbg.spill = alloca %"[closure@src/test_conditionals.rs:77:1: 83:2]"*, align 8
  store %"[closure@src/test_conditionals.rs:77:1: 83:2]"* %_1, %"[closure@src/test_conditionals.rs:77:1: 83:2]"** %_1.dbg.spill, align 8
  call void @llvm.dbg.declare(metadata %"[closure@src/test_conditionals.rs:77:1: 83:2]"** %_1.dbg.spill, metadata !2147, metadata !DIExpression()), !dbg !2148
  call void @test_unused_conditional(), !dbg !2148
  br label %bb1, !dbg !2148

bb1:                                              ; preds = %start
; call test::assert_test_result
  call void @_ZN4test18assert_test_result17he4977d7021825327E(), !dbg !2148
  br label %bb2, !dbg !2148

bb2:                                              ; preds = %bb1
  ret void, !dbg !2149
}

; Function Attrs: nonlazybind uwtable
define dso_local void @test_unused_conditional() unnamed_addr #1 !dbg !2150 {
start:
  %right_val.dbg.spill10 = alloca i32*, align 8
  %left_val.dbg.spill8 = alloca i32*, align 8
  %right_val.dbg.spill6 = alloca i32*, align 8
  %left_val.dbg.spill4 = alloca i32*, align 8
  %right_val.dbg.spill = alloca i32*, align 8
  %left_val.dbg.spill = alloca i32*, align 8
  %_57 = alloca %"core::option::Option<core::fmt::Arguments>", align 8
  %kind2 = alloca i8, align 1
  %_43 = alloca i32, align 4
  %_41 = alloca i32, align 4
  %_39 = alloca { i32*, i32* }, align 8
  %_38 = alloca %"core::option::Option<core::fmt::Arguments>", align 8
  %kind1 = alloca i8, align 1
  %_24 = alloca i32, align 4
  %_22 = alloca i32, align 4
  %_20 = alloca { i32*, i32* }, align 8
  %_19 = alloca %"core::option::Option<core::fmt::Arguments>", align 8
  %kind = alloca i8, align 1
  %_5 = alloca i32, align 4
  %_3 = alloca i32, align 4
  %_1 = alloca { i32*, i32* }, align 8
  call void @llvm.dbg.declare(metadata i8* %kind, metadata !2156, metadata !DIExpression()), !dbg !2173
  call void @llvm.dbg.declare(metadata i8* %kind1, metadata !2163, metadata !DIExpression()), !dbg !2174
  call void @llvm.dbg.declare(metadata i8* %kind2, metadata !2170, metadata !DIExpression()), !dbg !2175
  %0 = call i32 @unused_conditional1(), !dbg !2176
  store i32 %0, i32* %_3, align 4, !dbg !2176
  br label %bb1, !dbg !2176

bb1:                                              ; preds = %start
  %1 = call i32 @rust_unused_conditional1(), !dbg !2177
  store i32 %1, i32* %_5, align 4, !dbg !2177
  br label %bb2, !dbg !2177

bb2:                                              ; preds = %bb1
  %2 = bitcast { i32*, i32* }* %_1 to i32**, !dbg !2178
  store i32* %_3, i32** %2, align 8, !dbg !2178
  %3 = getelementptr inbounds { i32*, i32* }, { i32*, i32* }* %_1, i32 0, i32 1, !dbg !2178
  store i32* %_5, i32** %3, align 8, !dbg !2178
  %4 = bitcast { i32*, i32* }* %_1 to i32**, !dbg !2178
  %left_val = load i32*, i32** %4, align 8, !dbg !2178, !nonnull !23, !align !276, !noundef !23
  store i32* %left_val, i32** %left_val.dbg.spill, align 8, !dbg !2178
  call void @llvm.dbg.declare(metadata i32** %left_val.dbg.spill, metadata !2152, metadata !DIExpression()), !dbg !2179
  %5 = getelementptr inbounds { i32*, i32* }, { i32*, i32* }* %_1, i32 0, i32 1, !dbg !2178
  %right_val = load i32*, i32** %5, align 8, !dbg !2178, !nonnull !23, !align !276, !noundef !23
  store i32* %right_val, i32** %right_val.dbg.spill, align 8, !dbg !2178
  call void @llvm.dbg.declare(metadata i32** %right_val.dbg.spill, metadata !2155, metadata !DIExpression()), !dbg !2179
  %_10 = load i32, i32* %left_val, align 4, !dbg !2179
  %_11 = load i32, i32* %right_val, align 4, !dbg !2179
  %_9 = icmp eq i32 %_10, %_11, !dbg !2179
  %_8 = xor i1 %_9, true, !dbg !2179
  br i1 %_8, label %bb3, label %bb4, !dbg !2179

bb4:                                              ; preds = %bb2
  %6 = call i32 @unused_conditional2(), !dbg !2180
  store i32 %6, i32* %_22, align 4, !dbg !2180
  br label %bb5, !dbg !2180

bb3:                                              ; preds = %bb2
  store i8 0, i8* %kind, align 1, !dbg !2179
  %7 = bitcast %"core::option::Option<core::fmt::Arguments>"* %_19 to {}**, !dbg !2173
  store {}* null, {}** %7, align 8, !dbg !2173
; call core::panicking::assert_failed
  call void @_ZN4core9panicking13assert_failed17hd56fc17e9b690b15E(i8 0, i32* align 4 %left_val, i32* align 4 %right_val, %"core::option::Option<core::fmt::Arguments>"* %_19, %"core::panic::location::Location"* align 8 bitcast (<{ i8*, [16 x i8] }>* @alloc334 to %"core::panic::location::Location"*)) #13, !dbg !2173
  unreachable, !dbg !2173

bb5:                                              ; preds = %bb4
  %8 = call i32 @rust_unused_conditional2(), !dbg !2181
  store i32 %8, i32* %_24, align 4, !dbg !2181
  br label %bb6, !dbg !2181

bb6:                                              ; preds = %bb5
  %9 = bitcast { i32*, i32* }* %_20 to i32**, !dbg !2182
  store i32* %_22, i32** %9, align 8, !dbg !2182
  %10 = getelementptr inbounds { i32*, i32* }, { i32*, i32* }* %_20, i32 0, i32 1, !dbg !2182
  store i32* %_24, i32** %10, align 8, !dbg !2182
  %11 = bitcast { i32*, i32* }* %_20 to i32**, !dbg !2182
  %left_val3 = load i32*, i32** %11, align 8, !dbg !2182, !nonnull !23, !align !276, !noundef !23
  store i32* %left_val3, i32** %left_val.dbg.spill4, align 8, !dbg !2182
  call void @llvm.dbg.declare(metadata i32** %left_val.dbg.spill4, metadata !2159, metadata !DIExpression()), !dbg !2183
  %12 = getelementptr inbounds { i32*, i32* }, { i32*, i32* }* %_20, i32 0, i32 1, !dbg !2182
  %right_val5 = load i32*, i32** %12, align 8, !dbg !2182, !nonnull !23, !align !276, !noundef !23
  store i32* %right_val5, i32** %right_val.dbg.spill6, align 8, !dbg !2182
  call void @llvm.dbg.declare(metadata i32** %right_val.dbg.spill6, metadata !2162, metadata !DIExpression()), !dbg !2183
  %_29 = load i32, i32* %left_val3, align 4, !dbg !2183
  %_30 = load i32, i32* %right_val5, align 4, !dbg !2183
  %_28 = icmp eq i32 %_29, %_30, !dbg !2183
  %_27 = xor i1 %_28, true, !dbg !2183
  br i1 %_27, label %bb7, label %bb8, !dbg !2183

bb8:                                              ; preds = %bb6
  %13 = call i32 @unused_conditional3(), !dbg !2184
  store i32 %13, i32* %_41, align 4, !dbg !2184
  br label %bb9, !dbg !2184

bb7:                                              ; preds = %bb6
  store i8 0, i8* %kind1, align 1, !dbg !2183
  %14 = bitcast %"core::option::Option<core::fmt::Arguments>"* %_38 to {}**, !dbg !2174
  store {}* null, {}** %14, align 8, !dbg !2174
; call core::panicking::assert_failed
  call void @_ZN4core9panicking13assert_failed17hd56fc17e9b690b15E(i8 0, i32* align 4 %left_val3, i32* align 4 %right_val5, %"core::option::Option<core::fmt::Arguments>"* %_38, %"core::panic::location::Location"* align 8 bitcast (<{ i8*, [16 x i8] }>* @alloc336 to %"core::panic::location::Location"*)) #13, !dbg !2174
  unreachable, !dbg !2174

bb9:                                              ; preds = %bb8
  %15 = call i32 @rust_unused_conditional3(), !dbg !2185
  store i32 %15, i32* %_43, align 4, !dbg !2185
  br label %bb10, !dbg !2185

bb10:                                             ; preds = %bb9
  %16 = bitcast { i32*, i32* }* %_39 to i32**, !dbg !2186
  store i32* %_41, i32** %16, align 8, !dbg !2186
  %17 = getelementptr inbounds { i32*, i32* }, { i32*, i32* }* %_39, i32 0, i32 1, !dbg !2186
  store i32* %_43, i32** %17, align 8, !dbg !2186
  %18 = bitcast { i32*, i32* }* %_39 to i32**, !dbg !2186
  %left_val7 = load i32*, i32** %18, align 8, !dbg !2186, !nonnull !23, !align !276, !noundef !23
  store i32* %left_val7, i32** %left_val.dbg.spill8, align 8, !dbg !2186
  call void @llvm.dbg.declare(metadata i32** %left_val.dbg.spill8, metadata !2166, metadata !DIExpression()), !dbg !2187
  %19 = getelementptr inbounds { i32*, i32* }, { i32*, i32* }* %_39, i32 0, i32 1, !dbg !2186
  %right_val9 = load i32*, i32** %19, align 8, !dbg !2186, !nonnull !23, !align !276, !noundef !23
  store i32* %right_val9, i32** %right_val.dbg.spill10, align 8, !dbg !2186
  call void @llvm.dbg.declare(metadata i32** %right_val.dbg.spill10, metadata !2169, metadata !DIExpression()), !dbg !2187
  %_48 = load i32, i32* %left_val7, align 4, !dbg !2187
  %_49 = load i32, i32* %right_val9, align 4, !dbg !2187
  %_47 = icmp eq i32 %_48, %_49, !dbg !2187
  %_46 = xor i1 %_47, true, !dbg !2187
  br i1 %_46, label %bb11, label %bb12, !dbg !2187

bb12:                                             ; preds = %bb10
  ret void, !dbg !2188

bb11:                                             ; preds = %bb10
  store i8 0, i8* %kind2, align 1, !dbg !2187
  %20 = bitcast %"core::option::Option<core::fmt::Arguments>"* %_57 to {}**, !dbg !2175
  store {}* null, {}** %20, align 8, !dbg !2175
; call core::panicking::assert_failed
  call void @_ZN4core9panicking13assert_failed17hd56fc17e9b690b15E(i8 0, i32* align 4 %left_val7, i32* align 4 %right_val9, %"core::option::Option<core::fmt::Arguments>"* %_57, %"core::panic::location::Location"* align 8 bitcast (<{ i8*, [16 x i8] }>* @alloc338 to %"core::panic::location::Location"*)) #13, !dbg !2175
  unreachable, !dbg !2175
}

; conditional_tests::test_conditionals::test_else_if_chain::{{closure}}
; Function Attrs: inlinehint nonlazybind uwtable
define internal void @"_ZN17conditional_tests17test_conditionals18test_else_if_chain28_$u7b$$u7b$closure$u7d$$u7d$17hf37685b35be62b33E"(%"[closure@src/test_conditionals.rs:86:1: 93:2]"* align 1 %_1) unnamed_addr #2 !dbg !2189 {
start:
