; ModuleID = '16qfnl6p63t8wqdn'
source_filename = "16qfnl6p63t8wqdn"
target datalayout = "e-m:e-p270:32:32-p271:32:32-p272:64:64-i64:64-f80:128-n8:16:32:64-S128"
target triple = "x86_64-unknown-linux-gnu"

%"core::fmt::Formatter" = type { { i64, i64 }, { i64, i64 }, { {}*, [3 x i64]* }, i32, i32, i8, [7 x i8] }
%"core::fmt::builders::DebugList" = type { %"core::fmt::builders::DebugInner" }
%"core::fmt::builders::DebugInner" = type { %"core::fmt::Formatter"*, i8, i8, [6 x i8] }
%"core::fmt::Opaque" = type {}
%"core::fmt::Arguments" = type { { [0 x { [0 x i8]*, i64 }]*, i64 }, { i64*, i64 }, { [0 x { i8*, i64* }]*, i64 } }
%"core::panic::location::Location" = type { { [0 x i8]*, i64 }, i32, i32 }
%"[closure@src/test_ints.rs:30:1: 45:2]" = type {}
%"[closure@src/test_compound_assignment.rs:14:1: 26:2]" = type {}
%"[closure@src/test_volatile.rs:13:1: 25:2]" = type {}
%"[closure@src/test_arithmetic.rs:13:1: 32:2]" = type {}
%"[closure@src/test_sieve_of_eratosthenes.rs:13:1: 32:2]" = type {}
%"[closure@src/test_ints.rs:15:1: 27:2]" = type {}
%"[closure@src/test_const.rs:12:1: 24:2]" = type {}
%"core::ops::range::RangeFull" = type {}
%"core::ptr::metadata::PtrComponents<u8>" = type { {}*, {} }
%"core::ptr::metadata::PtrRepr<u8>" = type { [1 x i64] }
%"core::option::Option<core::fmt::Arguments>" = type { {}*, [5 x i64] }
%"core::option::Option<core::fmt::Arguments>::Some" = type { %"core::fmt::Arguments" }
%"volatile::some_struct" = type { [10 x i8] }
%"test::types::TestDescAndFn" = type { %"test::types::TestDesc", %"test::types::TestFn" }
%"test::types::TestDesc" = type { %"test::types::TestName", { i8*, i64 }, %"test::options::ShouldPanic", i8, i8, i8, i8, [4 x i8] }
%"test::types::TestName" = type { i8, [39 x i8] }
%"test::options::ShouldPanic" = type { i64, [2 x i64] }
%"test::types::TestFn" = type { i64, [2 x i64] }
%"unwind::libunwind::_Unwind_Exception" = type { i64, void (i32, %"unwind::libunwind::_Unwind_Exception"*)*, [6 x i64] }
%"unwind::libunwind::_Unwind_Context" = type { [0 x i8] }

@vtable.0 = private unnamed_addr constant <{ i8*, [16 x i8], i8*, i8*, i8* }> <{ i8* bitcast (void (i64**)* @"_ZN4core3ptr85drop_in_place$LT$std..rt..lang_start$LT$$LP$$RP$$GT$..$u7b$$u7b$closure$u7d$$u7d$$GT$17ha3700a3386ade2eeE" to i8*), [16 x i8] c"\08\00\00\00\00\00\00\00\08\00\00\00\00\00\00\00", i8* bitcast (i32 (i64**)* @"_ZN4core3ops8function6FnOnce40call_once$u7b$$u7b$vtable.shim$u7d$$u7d$17hbb97a15550ac3498E" to i8*), i8* bitcast (i32 (i64**)* @"_ZN3std2rt10lang_start28_$u7b$$u7b$closure$u7d$$u7d$17h12d0d995ecf3235aE" to i8*), i8* bitcast (i32 (i64**)* @"_ZN3std2rt10lang_start28_$u7b$$u7b$closure$u7d$$u7d$17h12d0d995ecf3235aE" to i8*) }>, align 8, !dbg !0
@vtable.1 = private unnamed_addr constant <{ i8*, [16 x i8], i8* }> <{ i8* bitcast (void (i32**)* @"_ZN4core3ptr28drop_in_place$LT$$RF$i32$GT$17h0a813c5725458d5dE" to i8*), [16 x i8] c"\08\00\00\00\00\00\00\00\08\00\00\00\00\00\00\00", i8* bitcast (i1 (i32**, %"core::fmt::Formatter"*)* @"_ZN42_$LT$$RF$T$u20$as$u20$core..fmt..Debug$GT$3fmt17h63cd372a7b4a6edeE" to i8*) }>, align 8, !dbg !24
@alloc150 = private unnamed_addr constant <{ [12 x i8] }> <{ [12 x i8] c"invalid args" }>, align 1
@alloc151 = private unnamed_addr constant <{ i8*, [8 x i8] }> <{ i8* getelementptr inbounds (<{ [12 x i8] }>, <{ [12 x i8] }>* @alloc150, i32 0, i32 0, i32 0), [8 x i8] c"\0C\00\00\00\00\00\00\00" }>, align 8
@alloc153 = private unnamed_addr constant <{}> zeroinitializer, align 8
@alloc351 = private unnamed_addr constant <{ [75 x i8] }> <{ [75 x i8] c"/rustc/d394408fb38c4de61f765a3ed5189d2731a1da91/library/core/src/fmt/mod.rs" }>, align 1
@alloc352 = private unnamed_addr constant <{ i8*, [16 x i8] }> <{ i8* getelementptr inbounds (<{ [75 x i8] }>, <{ [75 x i8] }>* @alloc351, i32 0, i32 0, i32 0), [16 x i8] c"K\00\00\00\00\00\00\00\88\01\00\00\0D\00\00\00" }>, align 8
@vtable.2 = private unnamed_addr constant <{ i8*, [16 x i8], i8* }> <{ i8* bitcast (void ([9 x i32]**)* @"_ZN4core3ptr49drop_in_place$LT$$RF$$u5b$i32$u3b$$u20$9$u5d$$GT$17h40b9d21c1cc7bc79E" to i8*), [16 x i8] c"\08\00\00\00\00\00\00\00\08\00\00\00\00\00\00\00", i8* bitcast (i1 ([9 x i32]**, %"core::fmt::Formatter"*)* @"_ZN42_$LT$$RF$T$u20$as$u20$core..fmt..Debug$GT$3fmt17h26e9cde095860907E" to i8*) }>, align 8, !dbg !34
@vtable.3 = private unnamed_addr constant <{ i8*, [16 x i8], i8* }> <{ i8* bitcast (void ([10 x i32]**)* @"_ZN4core3ptr50drop_in_place$LT$$RF$$u5b$i32$u3b$$u20$10$u5d$$GT$17h96b93d7077f5230dE" to i8*), [16 x i8] c"\08\00\00\00\00\00\00\00\08\00\00\00\00\00\00\00", i8* bitcast (i1 ([10 x i32]**, %"core::fmt::Formatter"*)* @"_ZN42_$LT$$RF$T$u20$as$u20$core..fmt..Debug$GT$3fmt17hb3dae965c0a660a0E" to i8*) }>, align 8, !dbg !46
@vtable.4 = private unnamed_addr constant <{ i8*, [16 x i8], i8* }> <{ i8* bitcast (void ([13 x i32]**)* @"_ZN4core3ptr50drop_in_place$LT$$RF$$u5b$i32$u3b$$u20$13$u5d$$GT$17h025bac5c7034e2eeE" to i8*), [16 x i8] c"\08\00\00\00\00\00\00\00\08\00\00\00\00\00\00\00", i8* bitcast (i1 ([13 x i32]**, %"core::fmt::Formatter"*)* @"_ZN42_$LT$$RF$T$u20$as$u20$core..fmt..Debug$GT$3fmt17h6255511693af7981E" to i8*) }>, align 8, !dbg !58
@vtable.5 = private unnamed_addr constant <{ i8*, [16 x i8], i8* }> <{ i8* bitcast (void ([2 x i32]**)* @"_ZN4core3ptr49drop_in_place$LT$$RF$$u5b$i32$u3b$$u20$2$u5d$$GT$17ha33d3db813a01d9bE" to i8*), [16 x i8] c"\08\00\00\00\00\00\00\00\08\00\00\00\00\00\00\00", i8* bitcast (i1 ([2 x i32]**, %"core::fmt::Formatter"*)* @"_ZN42_$LT$$RF$T$u20$as$u20$core..fmt..Debug$GT$3fmt17h6673b720ffefb3d9E" to i8*) }>, align 8, !dbg !70
@alloc139 = private unnamed_addr constant <{ [4 x i8] }> zeroinitializer, align 4
@alloc141 = private unnamed_addr constant <{ [67 x i8] }> <{ [67 x i8] c"the test returned a termination value with a non-zero status code (" }>, align 1
@alloc143 = private unnamed_addr constant <{ [27 x i8] }> <{ [27 x i8] c") which indicates a failure" }>, align 1
@alloc142 = private unnamed_addr constant <{ i8*, [8 x i8], i8*, [8 x i8] }> <{ i8* getelementptr inbounds (<{ [67 x i8] }>, <{ [67 x i8] }>* @alloc141, i32 0, i32 0, i32 0), [8 x i8] c"C\00\00\00\00\00\00\00", i8* getelementptr inbounds (<{ [27 x i8] }>, <{ [27 x i8] }>* @alloc143, i32 0, i32 0, i32 0), [8 x i8] c"\1B\00\00\00\00\00\00\00" }>, align 8
@alloc365 = private unnamed_addr constant <{ [71 x i8] }> <{ [71 x i8] c"/rustc/d394408fb38c4de61f765a3ed5189d2731a1da91/library/test/src/lib.rs" }>, align 1
@alloc366 = private unnamed_addr constant <{ i8*, [16 x i8] }> <{ i8* getelementptr inbounds (<{ [71 x i8] }>, <{ [71 x i8] }>* @alloc365, i32 0, i32 0, i32 0), [16 x i8] c"G\00\00\00\00\00\00\00\B8\00\00\00\05\00\00\00" }>, align 8
@alloc371 = private unnamed_addr constant <{ [17 x i8] }> <{ [17 x i8] c"src/const_test.rs" }>, align 1
@alloc368 = private unnamed_addr constant <{ i8*, [16 x i8] }> <{ i8* getelementptr inbounds (<{ [17 x i8] }>, <{ [17 x i8] }>* @alloc371, i32 0, i32 0, i32 0), [16 x i8] c"\11\00\00\00\00\00\00\00\0C\00\00\00\1E\00\00\00" }>, align 8
@str.6 = internal constant [28 x i8] c"attempt to add with overflow"
@alloc370 = private unnamed_addr constant <{ i8*, [16 x i8] }> <{ i8* getelementptr inbounds (<{ [17 x i8] }>, <{ [17 x i8] }>* @alloc371, i32 0, i32 0, i32 0), [16 x i8] c"\11\00\00\00\00\00\00\00\11\00\00\00\05\00\00\00" }>, align 8
@alloc372 = private unnamed_addr constant <{ i8*, [16 x i8] }> <{ i8* getelementptr inbounds (<{ [17 x i8] }>, <{ [17 x i8] }>* @alloc371, i32 0, i32 0, i32 0), [16 x i8] c"\11\00\00\00\00\00\00\00\17\00\00\00\0C\00\00\00" }>, align 8
@alloc387 = private unnamed_addr constant <{ [28 x i8] }> <{ [28 x i8] c"src/sieve_of_eratosthenes.rs" }>, align 1
@alloc374 = private unnamed_addr constant <{ i8*, [16 x i8] }> <{ i8* getelementptr inbounds (<{ [28 x i8] }>, <{ [28 x i8] }>* @alloc387, i32 0, i32 0, i32 0), [16 x i8] c"\1C\00\00\00\00\00\00\00\1A\00\00\00\0B\00\00\00" }>, align 8
@str.7 = internal constant [33 x i8] c"attempt to multiply with overflow"
@alloc376 = private unnamed_addr constant <{ i8*, [16 x i8] }> <{ i8* getelementptr inbounds (<{ [28 x i8] }>, <{ [28 x i8] }>* @alloc387, i32 0, i32 0, i32 0), [16 x i8] c"\1C\00\00\00\00\00\00\00\1B\00\00\00\0C\00\00\00" }>, align 8
@alloc378 = private unnamed_addr constant <{ i8*, [16 x i8] }> <{ i8* getelementptr inbounds (<{ [28 x i8] }>, <{ [28 x i8] }>* @alloc387, i32 0, i32 0, i32 0), [16 x i8] c"\1C\00\00\00\00\00\00\00\1C\00\00\00*\00\00\00" }>, align 8
@alloc380 = private unnamed_addr constant <{ i8*, [16 x i8] }> <{ i8* getelementptr inbounds (<{ [28 x i8] }>, <{ [28 x i8] }>* @alloc387, i32 0, i32 0, i32 0), [16 x i8] c"\1C\00\00\00\00\00\00\00\1E\00\00\00\11\00\00\00" }>, align 8
@alloc382 = private unnamed_addr constant <{ i8*, [16 x i8] }> <{ i8* getelementptr inbounds (<{ [28 x i8] }>, <{ [28 x i8] }>* @alloc387, i32 0, i32 0, i32 0), [16 x i8] c"\1C\00\00\00\00\00\00\00\1F\00\00\00\11\00\00\00" }>, align 8
@alloc384 = private unnamed_addr constant <{ i8*, [16 x i8] }> <{ i8* getelementptr inbounds (<{ [28 x i8] }>, <{ [28 x i8] }>* @alloc387, i32 0, i32 0, i32 0), [16 x i8] c"\1C\00\00\00\00\00\00\00\22\00\00\00\09\00\00\00" }>, align 8
@alloc386 = private unnamed_addr constant <{ i8*, [16 x i8] }> <{ i8* getelementptr inbounds (<{ [28 x i8] }>, <{ [28 x i8] }>* @alloc387, i32 0, i32 0, i32 0), [16 x i8] c"\1C\00\00\00\00\00\00\00'\00\00\00\0C\00\00\00" }>, align 8
@alloc388 = private unnamed_addr constant <{ i8*, [16 x i8] }> <{ i8* getelementptr inbounds (<{ [28 x i8] }>, <{ [28 x i8] }>* @alloc387, i32 0, i32 0, i32 0), [16 x i8] c"\1C\00\00\00\00\00\00\00*\00\00\00\09\00\00\00" }>, align 8
@alloc397 = private unnamed_addr constant <{ [12 x i8] }> <{ [12 x i8] c"src/chars.rs" }>, align 1
@alloc390 = private unnamed_addr constant <{ i8*, [16 x i8] }> <{ i8* getelementptr inbounds (<{ [12 x i8] }>, <{ [12 x i8] }>* @alloc397, i32 0, i32 0, i32 0), [16 x i8] c"\0C\00\00\00\00\00\00\00\14\00\00\00\09\00\00\00" }>, align 8
@alloc392 = private unnamed_addr constant <{ i8*, [16 x i8] }> <{ i8* getelementptr inbounds (<{ [12 x i8] }>, <{ [12 x i8] }>* @alloc397, i32 0, i32 0, i32 0), [16 x i8] c"\0C\00\00\00\00\00\00\00\17\00\00\00\09\00\00\00" }>, align 8
@alloc394 = private unnamed_addr constant <{ i8*, [16 x i8] }> <{ i8* getelementptr inbounds (<{ [12 x i8] }>, <{ [12 x i8] }>* @alloc397, i32 0, i32 0, i32 0), [16 x i8] c"\0C\00\00\00\00\00\00\00\1A\00\00\00\09\00\00\00" }>, align 8
@alloc396 = private unnamed_addr constant <{ i8*, [16 x i8] }> <{ i8* getelementptr inbounds (<{ [12 x i8] }>, <{ [12 x i8] }>* @alloc397, i32 0, i32 0, i32 0), [16 x i8] c"\0C\00\00\00\00\00\00\00\1D\00\00\00\09\00\00\00" }>, align 8
@alloc398 = private unnamed_addr constant <{ i8*, [16 x i8] }> <{ i8* getelementptr inbounds (<{ [12 x i8] }>, <{ [12 x i8] }>* @alloc397, i32 0, i32 0, i32 0), [16 x i8] c"\0C\00\00\00\00\00\00\00 \00\00\00\09\00\00\00" }>, align 8
@alloc405 = private unnamed_addr constant <{ [15 x i8] }> <{ [15 x i8] c"src/volatile.rs" }>, align 1
@alloc400 = private unnamed_addr constant <{ i8*, [16 x i8] }> <{ i8* getelementptr inbounds (<{ [15 x i8] }>, <{ [15 x i8] }>* @alloc405, i32 0, i32 0, i32 0), [16 x i8] c"\0F\00\00\00\00\00\00\00\17\00\00\00\10\00\00\00" }>, align 8
@str.8 = internal constant [33 x i8] c"attempt to subtract with overflow"
@alloc402 = private unnamed_addr constant <{ i8*, [16 x i8] }> <{ i8* getelementptr inbounds (<{ [15 x i8] }>, <{ [15 x i8] }>* @alloc405, i32 0, i32 0, i32 0), [16 x i8] c"\0F\00\00\00\00\00\00\001\00\00\00\09\00\00\00" }>, align 8
@alloc404 = private unnamed_addr constant <{ i8*, [16 x i8] }> <{ i8* getelementptr inbounds (<{ [15 x i8] }>, <{ [15 x i8] }>* @alloc405, i32 0, i32 0, i32 0), [16 x i8] c"\0F\00\00\00\00\00\00\004\00\00\005\00\00\00" }>, align 8
@alloc406 = private unnamed_addr constant <{ i8*, [16 x i8] }> <{ i8* getelementptr inbounds (<{ [15 x i8] }>, <{ [15 x i8] }>* @alloc405, i32 0, i32 0, i32 0), [16 x i8] c"\0F\00\00\00\00\00\00\00:\00\00\00\09\00\00\00" }>, align 8
@alloc21 = private unnamed_addr constant <{ [4 x i8] }> <{ [4 x i8] c"test" }>, align 1
@alloc419 = private unnamed_addr constant <{ [17 x i8] }> <{ [17 x i8] c"src/arithmetic.rs" }>, align 1
@alloc408 = private unnamed_addr constant <{ i8*, [16 x i8] }> <{ i8* getelementptr inbounds (<{ [17 x i8] }>, <{ [17 x i8] }>* @alloc419, i32 0, i32 0, i32 0), [16 x i8] c"\11\00\00\00\00\00\00\00\1B\00\00\00\05\00\00\00" }>, align 8
@alloc410 = private unnamed_addr constant <{ i8*, [16 x i8] }> <{ i8* getelementptr inbounds (<{ [17 x i8] }>, <{ [17 x i8] }>* @alloc419, i32 0, i32 0, i32 0), [16 x i8] c"\11\00\00\00\00\00\00\00\1F\00\00\00\05\00\00\00" }>, align 8
@0 = private unnamed_addr constant <{ [5 x i8], [3 x i8] }> <{ [5 x i8] c" \00\00\00\00", [3 x i8] undef }>, align 4
@1 = private unnamed_addr constant <{ [5 x i8], [3 x i8] }> <{ [5 x i8] c"\FE\FF\FF\FF\00", [3 x i8] undef }>, align 4
@2 = private unnamed_addr constant <{ [5 x i8], [3 x i8] }> <{ [5 x i8] c"\FF\00\00\00\00", [3 x i8] undef }>, align 4
@3 = private unnamed_addr constant <{ [5 x i8], [3 x i8] }> <{ [5 x i8] c"\00\00,\01\00", [3 x i8] undef }>, align 4
@4 = private unnamed_addr constant <{ [5 x i8], [3 x i8] }> <{ [5 x i8] c"\12\00\00\00\00", [3 x i8] undef }>, align 4
@alloc412 = private unnamed_addr constant <{ i8*, [16 x i8] }> <{ i8* getelementptr inbounds (<{ [17 x i8] }>, <{ [17 x i8] }>* @alloc419, i32 0, i32 0, i32 0), [16 x i8] c"\11\00\00\00\00\00\00\00\A1\00\00\00\05\00\00\00" }>, align 8
@alloc414 = private unnamed_addr constant <{ i8*, [16 x i8] }> <{ i8* getelementptr inbounds (<{ [17 x i8] }>, <{ [17 x i8] }>* @alloc419, i32 0, i32 0, i32 0), [16 x i8] c"\11\00\00\00\00\00\00\00\A4\00\00\00\05\00\00\00" }>, align 8
@alloc416 = private unnamed_addr constant <{ i8*, [16 x i8] }> <{ i8* getelementptr inbounds (<{ [17 x i8] }>, <{ [17 x i8] }>* @alloc419, i32 0, i32 0, i32 0), [16 x i8] c"\11\00\00\00\00\00\00\00\A8\00\00\00\05\00\00\00" }>, align 8
@alloc418 = private unnamed_addr constant <{ i8*, [16 x i8] }> <{ i8* getelementptr inbounds (<{ [17 x i8] }>, <{ [17 x i8] }>* @alloc419, i32 0, i32 0, i32 0), [16 x i8] c"\11\00\00\00\00\00\00\00\AC\00\00\00\05\00\00\00" }>, align 8
@str.9 = internal constant [31 x i8] c"attempt to divide with overflow"
@alloc420 = private unnamed_addr constant <{ i8*, [16 x i8] }> <{ i8* getelementptr inbounds (<{ [17 x i8] }>, <{ [17 x i8] }>* @alloc419, i32 0, i32 0, i32 0), [16 x i8] c"\11\00\00\00\00\00\00\00\B0\00\00\00\05\00\00\00" }>, align 8
@str.a = internal constant [48 x i8] c"attempt to calculate the remainder with overflow"
@alloc471 = private unnamed_addr constant <{ [26 x i8] }> <{ [26 x i8] c"src/compound_assignment.rs" }>, align 1
@alloc422 = private unnamed_addr constant <{ i8*, [16 x i8] }> <{ i8* getelementptr inbounds (<{ [26 x i8] }>, <{ [26 x i8] }>* @alloc471, i32 0, i32 0, i32 0), [16 x i8] c"\1A\00\00\00\00\00\00\00\14\00\00\00\09\00\00\00" }>, align 8
@alloc424 = private unnamed_addr constant <{ i8*, [16 x i8] }> <{ i8* getelementptr inbounds (<{ [26 x i8] }>, <{ [26 x i8] }>* @alloc471, i32 0, i32 0, i32 0), [16 x i8] c"\1A\00\00\00\00\00\00\00\16\00\00\00\09\00\00\00" }>, align 8
@alloc426 = private unnamed_addr constant <{ i8*, [16 x i8] }> <{ i8* getelementptr inbounds (<{ [26 x i8] }>, <{ [26 x i8] }>* @alloc471, i32 0, i32 0, i32 0), [16 x i8] c"\1A\00\00\00\00\00\00\00\18\00\00\00\09\00\00\00" }>, align 8
@alloc428 = private unnamed_addr constant <{ i8*, [16 x i8] }> <{ i8* getelementptr inbounds (<{ [26 x i8] }>, <{ [26 x i8] }>* @alloc471, i32 0, i32 0, i32 0), [16 x i8] c"\1A\00\00\00\00\00\00\00\1A\00\00\00\09\00\00\00" }>, align 8
@alloc430 = private unnamed_addr constant <{ i8*, [16 x i8] }> <{ i8* getelementptr inbounds (<{ [26 x i8] }>, <{ [26 x i8] }>* @alloc471, i32 0, i32 0, i32 0), [16 x i8] c"\1A\00\00\00\00\00\00\00\1C\00\00\00\09\00\00\00" }>, align 8
@alloc432 = private unnamed_addr constant <{ i8*, [16 x i8] }> <{ i8* getelementptr inbounds (<{ [26 x i8] }>, <{ [26 x i8] }>* @alloc471, i32 0, i32 0, i32 0), [16 x i8] c"\1A\00\00\00\00\00\00\00\1E\00\00\00\09\00\00\00" }>, align 8
@alloc434 = private unnamed_addr constant <{ i8*, [16 x i8] }> <{ i8* getelementptr inbounds (<{ [26 x i8] }>, <{ [26 x i8] }>* @alloc471, i32 0, i32 0, i32 0), [16 x i8] c"\1A\00\00\00\00\00\00\00 \00\00\00\09\00\00\00" }>, align 8
@alloc436 = private unnamed_addr constant <{ i8*, [16 x i8] }> <{ i8* getelementptr inbounds (<{ [26 x i8] }>, <{ [26 x i8] }>* @alloc471, i32 0, i32 0, i32 0), [16 x i8] c"\1A\00\00\00\00\00\00\00\22\00\00\00\09\00\00\00" }>, align 8
@alloc438 = private unnamed_addr constant <{ i8*, [16 x i8] }> <{ i8* getelementptr inbounds (<{ [26 x i8] }>, <{ [26 x i8] }>* @alloc471, i32 0, i32 0, i32 0), [16 x i8] c"\1A\00\00\00\00\00\00\00$\00\00\00\09\00\00\00" }>, align 8
@alloc440 = private unnamed_addr constant <{ i8*, [16 x i8] }> <{ i8* getelementptr inbounds (<{ [26 x i8] }>, <{ [26 x i8] }>* @alloc471, i32 0, i32 0, i32 0), [16 x i8] c"\1A\00\00\00\00\00\00\00&\00\00\00\09\00\00\00" }>, align 8
@alloc442 = private unnamed_addr constant <{ i8*, [16 x i8] }> <{ i8* getelementptr inbounds (<{ [26 x i8] }>, <{ [26 x i8] }>* @alloc471, i32 0, i32 0, i32 0), [16 x i8] c"\1A\00\00\00\00\00\00\00(\00\00\00\09\00\00\00" }>, align 8
@alloc444 = private unnamed_addr constant <{ i8*, [16 x i8] }> <{ i8* getelementptr inbounds (<{ [26 x i8] }>, <{ [26 x i8] }>* @alloc471, i32 0, i32 0, i32 0), [16 x i8] c"\1A\00\00\00\00\00\00\00*\00\00\00\09\00\00\00" }>, align 8
@alloc446 = private unnamed_addr constant <{ i8*, [16 x i8] }> <{ i8* getelementptr inbounds (<{ [26 x i8] }>, <{ [26 x i8] }>* @alloc471, i32 0, i32 0, i32 0), [16 x i8] c"\1A\00\00\00\00\00\00\00,\00\00\00\09\00\00\00" }>, align 8
@alloc448 = private unnamed_addr constant <{ i8*, [16 x i8] }> <{ i8* getelementptr inbounds (<{ [26 x i8] }>, <{ [26 x i8] }>* @alloc471, i32 0, i32 0, i32 0), [16 x i8] c"\1A\00\00\00\00\00\00\00.\00\00\00\09\00\00\00" }>, align 8
@alloc450 = private unnamed_addr constant <{ i8*, [16 x i8] }> <{ i8* getelementptr inbounds (<{ [26 x i8] }>, <{ [26 x i8] }>* @alloc471, i32 0, i32 0, i32 0), [16 x i8] c"\1A\00\00\00\00\00\00\000\00\00\00\09\00\00\00" }>, align 8
@alloc452 = private unnamed_addr constant <{ i8*, [16 x i8] }> <{ i8* getelementptr inbounds (<{ [26 x i8] }>, <{ [26 x i8] }>* @alloc471, i32 0, i32 0, i32 0), [16 x i8] c"\1A\00\00\00\00\00\00\002\00\00\00\09\00\00\00" }>, align 8
@alloc454 = private unnamed_addr constant <{ i8*, [16 x i8] }> <{ i8* getelementptr inbounds (<{ [26 x i8] }>, <{ [26 x i8] }>* @alloc471, i32 0, i32 0, i32 0), [16 x i8] c"\1A\00\00\00\00\00\00\004\00\00\00\09\00\00\00" }>, align 8
@alloc456 = private unnamed_addr constant <{ i8*, [16 x i8] }> <{ i8* getelementptr inbounds (<{ [26 x i8] }>, <{ [26 x i8] }>* @alloc471, i32 0, i32 0, i32 0), [16 x i8] c"\1A\00\00\00\00\00\00\006\00\00\00\09\00\00\00" }>, align 8
@alloc458 = private unnamed_addr constant <{ i8*, [16 x i8] }> <{ i8* getelementptr inbounds (<{ [26 x i8] }>, <{ [26 x i8] }>* @alloc471, i32 0, i32 0, i32 0), [16 x i8] c"\1A\00\00\00\00\00\00\008\00\00\00\09\00\00\00" }>, align 8
@alloc460 = private unnamed_addr constant <{ i8*, [16 x i8] }> <{ i8* getelementptr inbounds (<{ [26 x i8] }>, <{ [26 x i8] }>* @alloc471, i32 0, i32 0, i32 0), [16 x i8] c"\1A\00\00\00\00\00\00\00=\00\00\00\09\00\00\00" }>, align 8
@alloc462 = private unnamed_addr constant <{ i8*, [16 x i8] }> <{ i8* getelementptr inbounds (<{ [26 x i8] }>, <{ [26 x i8] }>* @alloc471, i32 0, i32 0, i32 0), [16 x i8] c"\1A\00\00\00\00\00\00\00B\00\00\00\09\00\00\00" }>, align 8
@alloc464 = private unnamed_addr constant <{ i8*, [16 x i8] }> <{ i8* getelementptr inbounds (<{ [26 x i8] }>, <{ [26 x i8] }>* @alloc471, i32 0, i32 0, i32 0), [16 x i8] c"\1A\00\00\00\00\00\00\00G\00\00\00\09\00\00\00" }>, align 8
@alloc466 = private unnamed_addr constant <{ i8*, [16 x i8] }> <{ i8* getelementptr inbounds (<{ [26 x i8] }>, <{ [26 x i8] }>* @alloc471, i32 0, i32 0, i32 0), [16 x i8] c"\1A\00\00\00\00\00\00\00K\00\00\00\09\00\00\00" }>, align 8
@alloc468 = private unnamed_addr constant <{ i8*, [16 x i8] }> <{ i8* getelementptr inbounds (<{ [26 x i8] }>, <{ [26 x i8] }>* @alloc471, i32 0, i32 0, i32 0), [16 x i8] c"\1A\00\00\00\00\00\00\00P\00\00\00\09\00\00\00" }>, align 8
@alloc470 = private unnamed_addr constant <{ i8*, [16 x i8] }> <{ i8* getelementptr inbounds (<{ [26 x i8] }>, <{ [26 x i8] }>* @alloc471, i32 0, i32 0, i32 0), [16 x i8] c"\1A\00\00\00\00\00\00\00V\00\00\00\05\00\00\00" }>, align 8
@alloc472 = private unnamed_addr constant <{ i8*, [16 x i8] }> <{ i8* getelementptr inbounds (<{ [26 x i8] }>, <{ [26 x i8] }>* @alloc471, i32 0, i32 0, i32 0), [16 x i8] c"\1A\00\00\00\00\00\00\00Y\00\00\00\05\00\00\00" }>, align 8
@alloc483 = private unnamed_addr constant <{ [22 x i8] }> <{ [22 x i8] c"src/test_arithmetic.rs" }>, align 1
@alloc474 = private unnamed_addr constant <{ i8*, [16 x i8] }> <{ i8* getelementptr inbounds (<{ [22 x i8] }>, <{ [22 x i8] }>* @alloc483, i32 0, i32 0, i32 0), [16 x i8] c"\16\00\00\00\00\00\00\00\1D\00\00\00\14\00\00\00" }>, align 8
@alloc476 = private unnamed_addr constant <{ i8*, [16 x i8] }> <{ i8* getelementptr inbounds (<{ [22 x i8] }>, <{ [22 x i8] }>* @alloc483, i32 0, i32 0, i32 0), [16 x i8] c"\16\00\00\00\00\00\00\00\1D\00\00\00#\00\00\00" }>, align 8
@alloc478 = private unnamed_addr constant <{ i8*, [16 x i8] }> <{ i8* getelementptr inbounds (<{ [22 x i8] }>, <{ [22 x i8] }>* @alloc483, i32 0, i32 0, i32 0), [16 x i8] c"\16\00\00\00\00\00\00\00\1D\00\00\00\09\00\00\00" }>, align 8
@alloc480 = private unnamed_addr constant <{ i8*, [16 x i8] }> <{ i8* getelementptr inbounds (<{ [22 x i8] }>, <{ [22 x i8] }>* @alloc483, i32 0, i32 0, i32 0), [16 x i8] c"\16\00\00\00\00\00\00\00\1E\00\00\00\14\00\00\00" }>, align 8
@alloc482 = private unnamed_addr constant <{ i8*, [16 x i8] }> <{ i8* getelementptr inbounds (<{ [22 x i8] }>, <{ [22 x i8] }>* @alloc483, i32 0, i32 0, i32 0), [16 x i8] c"\16\00\00\00\00\00\00\00\1E\00\00\00#\00\00\00" }>, align 8
@alloc484 = private unnamed_addr constant <{ i8*, [16 x i8] }> <{ i8* getelementptr inbounds (<{ [22 x i8] }>, <{ [22 x i8] }>* @alloc483, i32 0, i32 0, i32 0), [16 x i8] c"\16\00\00\00\00\00\00\00\1E\00\00\00\09\00\00\00" }>, align 8
@alloc495 = private unnamed_addr constant <{ [33 x i8] }> <{ [33 x i8] c"src/test_sieve_of_eratosthenes.rs" }>, align 1
@alloc486 = private unnamed_addr constant <{ i8*, [16 x i8] }> <{ i8* getelementptr inbounds (<{ [33 x i8] }>, <{ [33 x i8] }>* @alloc495, i32 0, i32 0, i32 0), [16 x i8] c"!\00\00\00\00\00\00\00\1D\00\00\00\14\00\00\00" }>, align 8
@alloc488 = private unnamed_addr constant <{ i8*, [16 x i8] }> <{ i8* getelementptr inbounds (<{ [33 x i8] }>, <{ [33 x i8] }>* @alloc495, i32 0, i32 0, i32 0), [16 x i8] c"!\00\00\00\00\00\00\00\1D\00\00\00#\00\00\00" }>, align 8
@alloc490 = private unnamed_addr constant <{ i8*, [16 x i8] }> <{ i8* getelementptr inbounds (<{ [33 x i8] }>, <{ [33 x i8] }>* @alloc495, i32 0, i32 0, i32 0), [16 x i8] c"!\00\00\00\00\00\00\00\1D\00\00\00\09\00\00\00" }>, align 8
@alloc492 = private unnamed_addr constant <{ i8*, [16 x i8] }> <{ i8* getelementptr inbounds (<{ [33 x i8] }>, <{ [33 x i8] }>* @alloc495, i32 0, i32 0, i32 0), [16 x i8] c"!\00\00\00\00\00\00\00\1E\00\00\00\14\00\00\00" }>, align 8
@alloc494 = private unnamed_addr constant <{ i8*, [16 x i8] }> <{ i8* getelementptr inbounds (<{ [33 x i8] }>, <{ [33 x i8] }>* @alloc495, i32 0, i32 0, i32 0), [16 x i8] c"!\00\00\00\00\00\00\00\1E\00\00\00#\00\00\00" }>, align 8
@alloc167 = private unnamed_addr constant <{ [5 x i8] }> <{ [5 x i8] c"idx: " }>, align 1
@alloc168 = private unnamed_addr constant <{ i8*, [8 x i8] }> <{ i8* getelementptr inbounds (<{ [5 x i8] }>, <{ [5 x i8] }>* @alloc167, i32 0, i32 0, i32 0), [8 x i8] c"\05\00\00\00\00\00\00\00" }>, align 8
@alloc496 = private unnamed_addr constant <{ i8*, [16 x i8] }> <{ i8* getelementptr inbounds (<{ [33 x i8] }>, <{ [33 x i8] }>* @alloc495, i32 0, i32 0, i32 0), [16 x i8] c"!\00\00\00\00\00\00\00\1E\00\00\00\09\00\00\00" }>, align 8
@alloc499 = private unnamed_addr constant <{ [20 x i8] }> <{ [20 x i8] c"src/test_volatile.rs" }>, align 1
@alloc498 = private unnamed_addr constant <{ i8*, [16 x i8] }> <{ i8* getelementptr inbounds (<{ [20 x i8] }>, <{ [20 x i8] }>* @alloc499, i32 0, i32 0, i32 0), [16 x i8] c"\14\00\00\00\00\00\00\00\17\00\00\00\05\00\00\00" }>, align 8
@alloc500 = private unnamed_addr constant <{ i8*, [16 x i8] }> <{ i8* getelementptr inbounds (<{ [20 x i8] }>, <{ [20 x i8] }>* @alloc499, i32 0, i32 0, i32 0), [16 x i8] c"\14\00\00\00\00\00\00\00\18\00\00\00\05\00\00\00" }>, align 8
@alloc503 = private unnamed_addr constant <{ [31 x i8] }> <{ [31 x i8] c"src/test_compound_assignment.rs" }>, align 1
@alloc502 = private unnamed_addr constant <{ i8*, [16 x i8] }> <{ i8* getelementptr inbounds (<{ [31 x i8] }>, <{ [31 x i8] }>* @alloc503, i32 0, i32 0, i32 0), [16 x i8] c"\1F\00\00\00\00\00\00\00\18\00\00\00\05\00\00\00" }>, align 8
@alloc504 = private unnamed_addr constant <{ i8*, [16 x i8] }> <{ i8* getelementptr inbounds (<{ [31 x i8] }>, <{ [31 x i8] }>* @alloc503, i32 0, i32 0, i32 0), [16 x i8] c"\1F\00\00\00\00\00\00\00\19\00\00\00\05\00\00\00" }>, align 8
@alloc517 = private unnamed_addr constant <{ [16 x i8] }> <{ [16 x i8] c"src/test_ints.rs" }>, align 1
@alloc506 = private unnamed_addr constant <{ i8*, [16 x i8] }> <{ i8* getelementptr inbounds (<{ [16 x i8] }>, <{ [16 x i8] }>* @alloc517, i32 0, i32 0, i32 0), [16 x i8] c"\10\00\00\00\00\00\00\00\19\00\00\00\05\00\00\00" }>, align 8
@alloc508 = private unnamed_addr constant <{ i8*, [16 x i8] }> <{ i8* getelementptr inbounds (<{ [16 x i8] }>, <{ [16 x i8] }>* @alloc517, i32 0, i32 0, i32 0), [16 x i8] c"\10\00\00\00\00\00\00\00\1A\00\00\00\05\00\00\00" }>, align 8
@alloc509 = private unnamed_addr constant <{ [103 x i8] }> <{ [103 x i8] c"assertion failed: multibyte_chars(BUFFER_SIZE as u32, buffer.as_mut_ptr()) as usize <=\\n    BUFFER_SIZE" }>, align 1
@alloc511 = private unnamed_addr constant <{ i8*, [16 x i8] }> <{ i8* getelementptr inbounds (<{ [16 x i8] }>, <{ [16 x i8] }>* @alloc517, i32 0, i32 0, i32 0), [16 x i8] c"\10\00\00\00\00\00\00\00$\00\00\00\09\00\00\00" }>, align 8
@alloc512 = private unnamed_addr constant <{ [113 x i8] }> <{ [113 x i8] c"assertion failed: rust_multibyte_chars(BUFFER_SIZE as u32, rust_buffer.as_mut_ptr()) as usize <=\\n    BUFFER_SIZE" }>, align 1
@alloc514 = private unnamed_addr constant <{ i8*, [16 x i8] }> <{ i8* getelementptr inbounds (<{ [16 x i8] }>, <{ [16 x i8] }>* @alloc517, i32 0, i32 0, i32 0), [16 x i8] c"\10\00\00\00\00\00\00\00%\00\00\00\09\00\00\00" }>, align 8
@alloc516 = private unnamed_addr constant <{ i8*, [16 x i8] }> <{ i8* getelementptr inbounds (<{ [16 x i8] }>, <{ [16 x i8] }>* @alloc517, i32 0, i32 0, i32 0), [16 x i8] c"\10\00\00\00\00\00\00\00+\00\00\00\05\00\00\00" }>, align 8
@alloc518 = private unnamed_addr constant <{ i8*, [16 x i8] }> <{ i8* getelementptr inbounds (<{ [16 x i8] }>, <{ [16 x i8] }>* @alloc517, i32 0, i32 0, i32 0), [16 x i8] c"\10\00\00\00\00\00\00\00,\00\00\00\05\00\00\00" }>, align 8
@alloc521 = private unnamed_addr constant <{ [17 x i8] }> <{ [17 x i8] c"src/test_const.rs" }>, align 1
@alloc520 = private unnamed_addr constant <{ i8*, [16 x i8] }> <{ i8* getelementptr inbounds (<{ [17 x i8] }>, <{ [17 x i8] }>* @alloc521, i32 0, i32 0, i32 0), [16 x i8] c"\11\00\00\00\00\00\00\00\16\00\00\00\05\00\00\00" }>, align 8
@alloc522 = private unnamed_addr constant <{ i8*, [16 x i8] }> <{ i8* getelementptr inbounds (<{ [17 x i8] }>, <{ [17 x i8] }>* @alloc521, i32 0, i32 0, i32 0), [16 x i8] c"\11\00\00\00\00\00\00\00\17\00\00\00\05\00\00\00" }>, align 8
@alloc24 = private unnamed_addr constant <{ [44 x i8] }> <{ [44 x i8] c"test_arithmetic::test_arithmetic_test_buffer" }>, align 1
@alloc317 = private unnamed_addr constant <{ [1 x i8], [7 x i8], i8*, [8 x i8], [16 x i8], [8 x i8], [8 x i8], [8 x i8], [16 x i8], [4 x i8], [4 x i8], [8 x i8], i8*, [8 x i8] }> <{ [1 x i8] zeroinitializer, [7 x i8] undef, i8* getelementptr inbounds (<{ [44 x i8] }>, <{ [44 x i8] }>* @alloc24, i32 0, i32 0, i32 0), [8 x i8] c",\00\00\00\00\00\00\00", [16 x i8] undef, [8 x i8] zeroinitializer, [8 x i8] undef, [8 x i8] zeroinitializer, [16 x i8] undef, [4 x i8] zeroinitializer, [4 x i8] undef, [8 x i8] zeroinitializer, i8* bitcast (void ()* @_ZN4core3ops8function6FnOnce9call_once17h5a4c5acc0f6d687dE to i8*), [8 x i8] undef }>, align 8
@alloc34 = private unnamed_addr constant <{ [50 x i8] }> <{ [50 x i8] c"test_sieve_of_eratosthenes::test_sieve_test_buffer" }>, align 1
@alloc318 = private unnamed_addr constant <{ [1 x i8], [7 x i8], i8*, [8 x i8], [16 x i8], [8 x i8], [8 x i8], [8 x i8], [16 x i8], [4 x i8], [4 x i8], [8 x i8], i8*, [8 x i8] }> <{ [1 x i8] zeroinitializer, [7 x i8] undef, i8* getelementptr inbounds (<{ [50 x i8] }>, <{ [50 x i8] }>* @alloc34, i32 0, i32 0, i32 0), [8 x i8] c"2\00\00\00\00\00\00\00", [16 x i8] undef, [8 x i8] zeroinitializer, [8 x i8] undef, [8 x i8] zeroinitializer, [16 x i8] undef, [4 x i8] zeroinitializer, [4 x i8] undef, [8 x i8] zeroinitializer, i8* bitcast (void ()* @_ZN4core3ops8function6FnOnce9call_once17h7ae7471b0fd532f0E to i8*), [8 x i8] undef }>, align 8
@alloc44 = private unnamed_addr constant <{ [40 x i8] }> <{ [40 x i8] c"test_volatile::test_volatile_test_buffer" }>, align 1
@alloc319 = private unnamed_addr constant <{ [1 x i8], [7 x i8], i8*, [8 x i8], [16 x i8], [8 x i8], [8 x i8], [8 x i8], [16 x i8], [4 x i8], [4 x i8], [8 x i8], i8*, [8 x i8] }> <{ [1 x i8] zeroinitializer, [7 x i8] undef, i8* getelementptr inbounds (<{ [40 x i8] }>, <{ [40 x i8] }>* @alloc44, i32 0, i32 0, i32 0), [8 x i8] c"(\00\00\00\00\00\00\00", [16 x i8] undef, [8 x i8] zeroinitializer, [8 x i8] undef, [8 x i8] zeroinitializer, [16 x i8] undef, [4 x i8] zeroinitializer, [4 x i8] undef, [8 x i8] zeroinitializer, i8* bitcast (void ()* @_ZN4core3ops8function6FnOnce9call_once17h4f890cd89a729c9cE to i8*), [8 x i8] undef }>, align 8
@alloc54 = private unnamed_addr constant <{ [62 x i8] }> <{ [62 x i8] c"test_compound_assignment::test_compound_assignment_test_buffer" }>, align 1
@alloc320 = private unnamed_addr constant <{ [1 x i8], [7 x i8], i8*, [8 x i8], [16 x i8], [8 x i8], [8 x i8], [8 x i8], [16 x i8], [4 x i8], [4 x i8], [8 x i8], i8*, [8 x i8] }> <{ [1 x i8] zeroinitializer, [7 x i8] undef, i8* getelementptr inbounds (<{ [62 x i8] }>, <{ [62 x i8] }>* @alloc54, i32 0, i32 0, i32 0), [8 x i8] c">\00\00\00\00\00\00\00", [16 x i8] undef, [8 x i8] zeroinitializer, [8 x i8] undef, [8 x i8] zeroinitializer, [16 x i8] undef, [4 x i8] zeroinitializer, [4 x i8] undef, [8 x i8] zeroinitializer, i8* bitcast (void ()* @_ZN4core3ops8function6FnOnce9call_once17h4d720fc51c408c5cE to i8*), [8 x i8] undef }>, align 8
@alloc64 = private unnamed_addr constant <{ [29 x i8] }> <{ [29 x i8] c"test_ints::test_size_t_buffer" }>, align 1
@alloc321 = private unnamed_addr constant <{ [1 x i8], [7 x i8], i8*, [8 x i8], [16 x i8], [8 x i8], [8 x i8], [8 x i8], [16 x i8], [4 x i8], [4 x i8], [8 x i8], i8*, [8 x i8] }> <{ [1 x i8] zeroinitializer, [7 x i8] undef, i8* getelementptr inbounds (<{ [29 x i8] }>, <{ [29 x i8] }>* @alloc64, i32 0, i32 0, i32 0), [8 x i8] c"\1D\00\00\00\00\00\00\00", [16 x i8] undef, [8 x i8] zeroinitializer, [8 x i8] undef, [8 x i8] zeroinitializer, [16 x i8] undef, [4 x i8] zeroinitializer, [4 x i8] undef, [8 x i8] zeroinitializer, i8* bitcast (void ()* @_ZN4core3ops8function6FnOnce9call_once17ha47a3b0d86e074ebE to i8*), [8 x i8] undef }>, align 8
@alloc74 = private unnamed_addr constant <{ [28 x i8] }> <{ [28 x i8] c"test_ints::test_chars_buffer" }>, align 1
@alloc322 = private unnamed_addr constant <{ [1 x i8], [7 x i8], i8*, [8 x i8], [16 x i8], [8 x i8], [8 x i8], [8 x i8], [16 x i8], [4 x i8], [4 x i8], [8 x i8], i8*, [8 x i8] }> <{ [1 x i8] zeroinitializer, [7 x i8] undef, i8* getelementptr inbounds (<{ [28 x i8] }>, <{ [28 x i8] }>* @alloc74, i32 0, i32 0, i32 0), [8 x i8] c"\1C\00\00\00\00\00\00\00", [16 x i8] undef, [8 x i8] zeroinitializer, [8 x i8] undef, [8 x i8] zeroinitializer, [16 x i8] undef, [4 x i8] zeroinitializer, [4 x i8] undef, [8 x i8] zeroinitializer, i8* bitcast (void ()* @_ZN4core3ops8function6FnOnce9call_once17h4954cfa7b774e7f2E to i8*), [8 x i8] undef }>, align 8
@alloc84 = private unnamed_addr constant <{ [22 x i8] }> <{ [22 x i8] c"test_const::test_const" }>, align 1
@alloc323 = private unnamed_addr constant <{ [1 x i8], [7 x i8], i8*, [8 x i8], [16 x i8], [8 x i8], [8 x i8], [8 x i8], [16 x i8], [4 x i8], [4 x i8], [8 x i8], i8*, [8 x i8] }> <{ [1 x i8] zeroinitializer, [7 x i8] undef, i8* getelementptr inbounds (<{ [22 x i8] }>, <{ [22 x i8] }>* @alloc84, i32 0, i32 0, i32 0), [8 x i8] c"\16\00\00\00\00\00\00\00", [16 x i8] undef, [8 x i8] zeroinitializer, [8 x i8] undef, [8 x i8] zeroinitializer, [16 x i8] undef, [4 x i8] zeroinitializer, [4 x i8] undef, [8 x i8] zeroinitializer, i8* bitcast (void ()* @_ZN4core3ops8function6FnOnce9call_once17ha53fc999d1173346E to i8*), [8 x i8] undef }>, align 8
@alloc324 = private unnamed_addr constant <{ i8*, i8*, i8*, i8*, i8*, i8*, i8* }> <{ i8* getelementptr inbounds (<{ [1 x i8], [7 x i8], i8*, [8 x i8], [16 x i8], [8 x i8], [8 x i8], [8 x i8], [16 x i8], [4 x i8], [4 x i8], [8 x i8], i8*, [8 x i8] }>, <{ [1 x i8], [7 x i8], i8*, [8 x i8], [16 x i8], [8 x i8], [8 x i8], [8 x i8], [16 x i8], [4 x i8], [4 x i8], [8 x i8], i8*, [8 x i8] }>* @alloc317, i32 0, i32 0, i32 0), i8* getelementptr inbounds (<{ [1 x i8], [7 x i8], i8*, [8 x i8], [16 x i8], [8 x i8], [8 x i8], [8 x i8], [16 x i8], [4 x i8], [4 x i8], [8 x i8], i8*, [8 x i8] }>, <{ [1 x i8], [7 x i8], i8*, [8 x i8], [16 x i8], [8 x i8], [8 x i8], [8 x i8], [16 x i8], [4 x i8], [4 x i8], [8 x i8], i8*, [8 x i8] }>* @alloc318, i32 0, i32 0, i32 0), i8* getelementptr inbounds (<{ [1 x i8], [7 x i8], i8*, [8 x i8], [16 x i8], [8 x i8], [8 x i8], [8 x i8], [16 x i8], [4 x i8], [4 x i8], [8 x i8], i8*, [8 x i8] }>, <{ [1 x i8], [7 x i8], i8*, [8 x i8], [16 x i8], [8 x i8], [8 x i8], [8 x i8], [16 x i8], [4 x i8], [4 x i8], [8 x i8], i8*, [8 x i8] }>* @alloc319, i32 0, i32 0, i32 0), i8* getelementptr inbounds (<{ [1 x i8], [7 x i8], i8*, [8 x i8], [16 x i8], [8 x i8], [8 x i8], [8 x i8], [16 x i8], [4 x i8], [4 x i8], [8 x i8], i8*, [8 x i8] }>, <{ [1 x i8], [7 x i8], i8*, [8 x i8], [16 x i8], [8 x i8], [8 x i8], [8 x i8], [16 x i8], [4 x i8], [4 x i8], [8 x i8], i8*, [8 x i8] }>* @alloc320, i32 0, i32 0, i32 0), i8* getelementptr inbounds (<{ [1 x i8], [7 x i8], i8*, [8 x i8], [16 x i8], [8 x i8], [8 x i8], [8 x i8], [16 x i8], [4 x i8], [4 x i8], [8 x i8], i8*, [8 x i8] }>, <{ [1 x i8], [7 x i8], i8*, [8 x i8], [16 x i8], [8 x i8], [8 x i8], [8 x i8], [16 x i8], [4 x i8], [4 x i8], [8 x i8], i8*, [8 x i8] }>* @alloc321, i32 0, i32 0, i32 0), i8* getelementptr inbounds (<{ [1 x i8], [7 x i8], i8*, [8 x i8], [16 x i8], [8 x i8], [8 x i8], [8 x i8], [16 x i8], [4 x i8], [4 x i8], [8 x i8], i8*, [8 x i8] }>, <{ [1 x i8], [7 x i8], i8*, [8 x i8], [16 x i8], [8 x i8], [8 x i8], [8 x i8], [16 x i8], [4 x i8], [4 x i8], [8 x i8], i8*, [8 x i8] }>* @alloc322, i32 0, i32 0, i32 0), i8* getelementptr inbounds (<{ [1 x i8], [7 x i8], i8*, [8 x i8], [16 x i8], [8 x i8], [8 x i8], [8 x i8], [16 x i8], [4 x i8], [4 x i8], [8 x i8], i8*, [8 x i8] }>, <{ [1 x i8], [7 x i8], i8*, [8 x i8], [16 x i8], [8 x i8], [8 x i8], [8 x i8], [16 x i8], [4 x i8], [4 x i8], [8 x i8], i8*, [8 x i8] }>* @alloc323, i32 0, i32 0, i32 0) }>, align 8
@__rustc_debug_gdb_scripts_section__ = linkonce_odr unnamed_addr constant [34 x i8] c"\01gdb_load_rust_pretty_printers.py\00", section ".debug_gdb_scripts", align 1
@.myfmt = private unnamed_addr constant [9 x i8] c"ix: %ld\0A\00", align 1
@.myfmt2 = private unnamed_addr constant [20 x i8] c"buff: %d, rust: %d\0A\00", align 1

; std::sys_common::backtrace::__rust_begin_short_backtrace
; Function Attrs: noinline nonlazybind uwtable
define internal void @_ZN3std10sys_common9backtrace28__rust_begin_short_backtrace17hf2e9b22298432f3aE(void ()* %f) unnamed_addr #0 personality i32 (i32, i32, i64, %"unwind::libunwind::_Unwind_Exception"*, %"unwind::libunwind::_Unwind_Context"*)* @rust_eh_personality !dbg !108 {
start:
  %0 = alloca { i8*, i32 }, align 8
  %dummy.dbg.spill = alloca {}, align 1
  %f.dbg.spill = alloca void ()*, align 8
  %result.dbg.spill = alloca {}, align 1
  call void @llvm.dbg.declare(metadata {}* %result.dbg.spill, metadata !116, metadata !DIExpression()), !dbg !121
  store void ()* %f, void ()** %f.dbg.spill, align 8
  call void @llvm.dbg.declare(metadata void ()** %f.dbg.spill, metadata !115, metadata !DIExpression()), !dbg !122
  call void @llvm.dbg.declare(metadata {}* %dummy.dbg.spill, metadata !123, metadata !DIExpression()), !dbg !132
; call core::ops::function::FnOnce::call_once
  call void @_ZN4core3ops8function6FnOnce9call_once17h9079ea74dc689425E(void ()* %f), !dbg !134
  br label %bb1, !dbg !134

bb1:                                              ; preds = %start
  call void asm sideeffect "", "r,~{memory}"({}* undef), !dbg !132, !srcloc !135
  br label %bb4, !dbg !132

bb4:                                              ; preds = %bb1
  ret void, !dbg !136

bb2:                                              ; No predecessors!
  br label %bb3, !dbg !137

bb3:                                              ; preds = %bb2
  %1 = bitcast { i8*, i32 }* %0 to i8**, !dbg !138
  %2 = load i8*, i8** %1, align 8, !dbg !138
  %3 = getelementptr inbounds { i8*, i32 }, { i8*, i32 }* %0, i32 0, i32 1, !dbg !138
  %4 = load i32, i32* %3, align 8, !dbg !138
  %5 = insertvalue { i8*, i32 } undef, i8* %2, 0, !dbg !138
  %6 = insertvalue { i8*, i32 } %5, i32 %4, 1, !dbg !138
  resume { i8*, i32 } %6, !dbg !138
}

; std::rt::lang_start
; Function Attrs: nonlazybind uwtable
define hidden i64 @_ZN3std2rt10lang_start17h172f2b9dda84c65dE(void ()* %main, i64 %argc, i8** %argv) unnamed_addr #1 !dbg !139 {
start:
  %v.dbg.spill = alloca i64, align 8
  %argv.dbg.spill = alloca i8**, align 8
  %argc.dbg.spill = alloca i64, align 8
  %main.dbg.spill = alloca void ()*, align 8
  %_8 = alloca i64*, align 8
  %_4 = alloca i64, align 8
  store void ()* %main, void ()** %main.dbg.spill, align 8
  call void @llvm.dbg.declare(metadata void ()** %main.dbg.spill, metadata !147, metadata !DIExpression()), !dbg !152
  store i64 %argc, i64* %argc.dbg.spill, align 8
  call void @llvm.dbg.declare(metadata i64* %argc.dbg.spill, metadata !148, metadata !DIExpression()), !dbg !153
  store i8** %argv, i8*** %argv.dbg.spill, align 8
  call void @llvm.dbg.declare(metadata i8*** %argv.dbg.spill, metadata !149, metadata !DIExpression()), !dbg !154
  %0 = bitcast i64** %_8 to void ()**, !dbg !155
  store void ()* %main, void ()** %0, align 8, !dbg !155
  %_5.0 = bitcast i64** %_8 to {}*, !dbg !156
; call std::rt::lang_start_internal
  %1 = call i64 @_ZN3std2rt19lang_start_internal17h498f9556b87c8e5fE({}* align 1 %_5.0, [3 x i64]* align 8 bitcast (<{ i8*, [16 x i8], i8*, i8*, i8* }>* @vtable.0 to [3 x i64]*), i64 %argc, i8** %argv), !dbg !157
  store i64 %1, i64* %_4, align 8, !dbg !157
  br label %bb1, !dbg !157

bb1:                                              ; preds = %start
  %v = load i64, i64* %_4, align 8, !dbg !158
  store i64 %v, i64* %v.dbg.spill, align 8, !dbg !158
  call void @llvm.dbg.declare(metadata i64* %v.dbg.spill, metadata !150, metadata !DIExpression()), !dbg !159
  ret i64 %v, !dbg !160
}

; std::rt::lang_start::{{closure}}
; Function Attrs: inlinehint nonlazybind uwtable
define internal i32 @"_ZN3std2rt10lang_start28_$u7b$$u7b$closure$u7d$$u7d$17h12d0d995ecf3235aE"(i64** align 8 %_1) unnamed_addr #2 !dbg !161 {
start:
  %self.dbg.spill = alloca i8*, align 8
  %_1.dbg.spill = alloca i64**, align 8
  %self = alloca i8, align 1
  store i64** %_1, i64*** %_1.dbg.spill, align 8
  %0 = load i64**, i64*** %_1.dbg.spill, align 8, !nonnull !23, !align !167, !noundef !23
  %1 = bitcast i64** %0 to void ()**
  call void @llvm.dbg.declare(metadata i64*** %_1.dbg.spill, metadata !166, metadata !DIExpression(DW_OP_deref)), !dbg !168
  call void @llvm.dbg.declare(metadata i8* %self, metadata !169, metadata !DIExpression()), !dbg !187
  %2 = bitcast i64** %_1 to void ()**, !dbg !189
  %_4 = load void ()*, void ()** %2, align 8, !dbg !189, !nonnull !23, !noundef !23
; call std::sys_common::backtrace::__rust_begin_short_backtrace
  call void @_ZN3std10sys_common9backtrace28__rust_begin_short_backtrace17hf2e9b22298432f3aE(void ()* %_4), !dbg !188
  br label %bb1, !dbg !188

bb1:                                              ; preds = %start
; call <() as std::process::Termination>::report
  %3 = call i8 @"_ZN54_$LT$$LP$$RP$$u20$as$u20$std..process..Termination$GT$6report17h26c3cccde0afa982E"(), !dbg !188
  store i8 %3, i8* %self, align 1, !dbg !188
  br label %bb2, !dbg !188

bb2:                                              ; preds = %bb1
  store i8* %self, i8** %self.dbg.spill, align 8, !dbg !187
  call void @llvm.dbg.declare(metadata i8** %self.dbg.spill, metadata !190, metadata !DIExpression()), !dbg !198
  %_6 = load i8, i8* %self, align 1, !dbg !198
  %4 = zext i8 %_6 to i32, !dbg !198
  ret i32 %4, !dbg !200
}

; <&T as core::fmt::Debug>::fmt
; Function Attrs: nonlazybind uwtable
define internal zeroext i1 @"_ZN42_$LT$$RF$T$u20$as$u20$core..fmt..Debug$GT$3fmt17h26e9cde095860907E"([9 x i32]** align 8 %self, %"core::fmt::Formatter"* align 8 %f) unnamed_addr #1 !dbg !201 {
start:
  %f.dbg.spill = alloca %"core::fmt::Formatter"*, align 8
  %self.dbg.spill = alloca [9 x i32]**, align 8
  store [9 x i32]** %self, [9 x i32]*** %self.dbg.spill, align 8
  call void @llvm.dbg.declare(metadata [9 x i32]*** %self.dbg.spill, metadata !261, metadata !DIExpression()), !dbg !265
  store %"core::fmt::Formatter"* %f, %"core::fmt::Formatter"** %f.dbg.spill, align 8
  call void @llvm.dbg.declare(metadata %"core::fmt::Formatter"** %f.dbg.spill, metadata !262, metadata !DIExpression()), !dbg !266
  %_6 = load [9 x i32]*, [9 x i32]** %self, align 8, !dbg !267, !nonnull !23, !align !268, !noundef !23
; call core::array::<impl core::fmt::Debug for [T; N]>::fmt
  %0 = call zeroext i1 @"_ZN4core5array69_$LT$impl$u20$core..fmt..Debug$u20$for$u20$$u5b$T$u3b$$u20$N$u5d$$GT$3fmt17h07e8772a58f00566E"([9 x i32]* align 4 %_6, %"core::fmt::Formatter"* align 8 %f), !dbg !269
  br label %bb1, !dbg !269

bb1:                                              ; preds = %start
  ret i1 %0, !dbg !270
}

; <&T as core::fmt::Debug>::fmt
; Function Attrs: nonlazybind uwtable
define internal zeroext i1 @"_ZN42_$LT$$RF$T$u20$as$u20$core..fmt..Debug$GT$3fmt17h6255511693af7981E"([13 x i32]** align 8 %self, %"core::fmt::Formatter"* align 8 %f) unnamed_addr #1 !dbg !271 {
start:
  %f.dbg.spill = alloca %"core::fmt::Formatter"*, align 8
  %self.dbg.spill = alloca [13 x i32]**, align 8
  store [13 x i32]** %self, [13 x i32]*** %self.dbg.spill, align 8
  call void @llvm.dbg.declare(metadata [13 x i32]*** %self.dbg.spill, metadata !276, metadata !DIExpression()), !dbg !280
  store %"core::fmt::Formatter"* %f, %"core::fmt::Formatter"** %f.dbg.spill, align 8
  call void @llvm.dbg.declare(metadata %"core::fmt::Formatter"** %f.dbg.spill, metadata !277, metadata !DIExpression()), !dbg !281
  %_6 = load [13 x i32]*, [13 x i32]** %self, align 8, !dbg !282, !nonnull !23, !align !268, !noundef !23
; call core::array::<impl core::fmt::Debug for [T; N]>::fmt
  %0 = call zeroext i1 @"_ZN4core5array69_$LT$impl$u20$core..fmt..Debug$u20$for$u20$$u5b$T$u3b$$u20$N$u5d$$GT$3fmt17he5ea11d27dbc80b3E"([13 x i32]* align 4 %_6, %"core::fmt::Formatter"* align 8 %f), !dbg !283
  br label %bb1, !dbg !283

bb1:                                              ; preds = %start
  ret i1 %0, !dbg !284
}

; <&T as core::fmt::Debug>::fmt
; Function Attrs: nonlazybind uwtable
define internal zeroext i1 @"_ZN42_$LT$$RF$T$u20$as$u20$core..fmt..Debug$GT$3fmt17h63cd372a7b4a6edeE"(i32** align 8 %self, %"core::fmt::Formatter"* align 8 %f) unnamed_addr #1 !dbg !285 {
start:
  %f.dbg.spill = alloca %"core::fmt::Formatter"*, align 8
  %self.dbg.spill = alloca i32**, align 8
  store i32** %self, i32*** %self.dbg.spill, align 8
  call void @llvm.dbg.declare(metadata i32*** %self.dbg.spill, metadata !290, metadata !DIExpression()), !dbg !294
  store %"core::fmt::Formatter"* %f, %"core::fmt::Formatter"** %f.dbg.spill, align 8
  call void @llvm.dbg.declare(metadata %"core::fmt::Formatter"** %f.dbg.spill, metadata !291, metadata !DIExpression()), !dbg !295
  %_6 = load i32*, i32** %self, align 8, !dbg !296, !nonnull !23, !align !268, !noundef !23
; call core::fmt::num::<impl core::fmt::Debug for i32>::fmt
  %0 = call zeroext i1 @"_ZN4core3fmt3num50_$LT$impl$u20$core..fmt..Debug$u20$for$u20$i32$GT$3fmt17h89571e8f2057ff76E"(i32* align 4 %_6, %"core::fmt::Formatter"* align 8 %f), !dbg !297
  br label %bb1, !dbg !297

bb1:                                              ; preds = %start
  ret i1 %0, !dbg !298
}

; <&T as core::fmt::Debug>::fmt
; Function Attrs: nonlazybind uwtable
define internal zeroext i1 @"_ZN42_$LT$$RF$T$u20$as$u20$core..fmt..Debug$GT$3fmt17h6673b720ffefb3d9E"([2 x i32]** align 8 %self, %"core::fmt::Formatter"* align 8 %f) unnamed_addr #1 !dbg !299 {
start:
  %f.dbg.spill = alloca %"core::fmt::Formatter"*, align 8
  %self.dbg.spill = alloca [2 x i32]**, align 8
  store [2 x i32]** %self, [2 x i32]*** %self.dbg.spill, align 8
  call void @llvm.dbg.declare(metadata [2 x i32]*** %self.dbg.spill, metadata !304, metadata !DIExpression()), !dbg !308
  store %"core::fmt::Formatter"* %f, %"core::fmt::Formatter"** %f.dbg.spill, align 8
  call void @llvm.dbg.declare(metadata %"core::fmt::Formatter"** %f.dbg.spill, metadata !305, metadata !DIExpression()), !dbg !309
  %_6 = load [2 x i32]*, [2 x i32]** %self, align 8, !dbg !310, !nonnull !23, !align !268, !noundef !23
; call core::array::<impl core::fmt::Debug for [T; N]>::fmt
  %0 = call zeroext i1 @"_ZN4core5array69_$LT$impl$u20$core..fmt..Debug$u20$for$u20$$u5b$T$u3b$$u20$N$u5d$$GT$3fmt17h5770b1c70ea1efd2E"([2 x i32]* align 4 %_6, %"core::fmt::Formatter"* align 8 %f), !dbg !311
  br label %bb1, !dbg !311

bb1:                                              ; preds = %start
  ret i1 %0, !dbg !312
}

; <&T as core::fmt::Debug>::fmt
; Function Attrs: nonlazybind uwtable
define internal zeroext i1 @"_ZN42_$LT$$RF$T$u20$as$u20$core..fmt..Debug$GT$3fmt17hb3dae965c0a660a0E"([10 x i32]** align 8 %self, %"core::fmt::Formatter"* align 8 %f) unnamed_addr #1 !dbg !313 {
start:
  %f.dbg.spill = alloca %"core::fmt::Formatter"*, align 8
  %self.dbg.spill = alloca [10 x i32]**, align 8
  store [10 x i32]** %self, [10 x i32]*** %self.dbg.spill, align 8
  call void @llvm.dbg.declare(metadata [10 x i32]*** %self.dbg.spill, metadata !318, metadata !DIExpression()), !dbg !322
  store %"core::fmt::Formatter"* %f, %"core::fmt::Formatter"** %f.dbg.spill, align 8
  call void @llvm.dbg.declare(metadata %"core::fmt::Formatter"** %f.dbg.spill, metadata !319, metadata !DIExpression()), !dbg !323
  %_6 = load [10 x i32]*, [10 x i32]** %self, align 8, !dbg !324, !nonnull !23, !align !268, !noundef !23
; call core::array::<impl core::fmt::Debug for [T; N]>::fmt
  %0 = call zeroext i1 @"_ZN4core5array69_$LT$impl$u20$core..fmt..Debug$u20$for$u20$$u5b$T$u3b$$u20$N$u5d$$GT$3fmt17hb9ffe725b3e3a158E"([10 x i32]* align 4 %_6, %"core::fmt::Formatter"* align 8 %f), !dbg !325
  br label %bb1, !dbg !325

bb1:                                              ; preds = %start
  ret i1 %0, !dbg !326
}

; <&T as core::fmt::Debug>::fmt
; Function Attrs: nonlazybind uwtable
define internal zeroext i1 @"_ZN42_$LT$$RF$T$u20$as$u20$core..fmt..Debug$GT$3fmt17he0062553ed296761E"({ [0 x i32]*, i64 }* align 8 %self, %"core::fmt::Formatter"* align 8 %f) unnamed_addr #1 !dbg !327 {
start:
  %f.dbg.spill = alloca %"core::fmt::Formatter"*, align 8
  %self.dbg.spill = alloca { [0 x i32]*, i64 }*, align 8
  store { [0 x i32]*, i64 }* %self, { [0 x i32]*, i64 }** %self.dbg.spill, align 8
  call void @llvm.dbg.declare(metadata { [0 x i32]*, i64 }** %self.dbg.spill, metadata !337, metadata !DIExpression()), !dbg !339
  store %"core::fmt::Formatter"* %f, %"core::fmt::Formatter"** %f.dbg.spill, align 8
  call void @llvm.dbg.declare(metadata %"core::fmt::Formatter"** %f.dbg.spill, metadata !338, metadata !DIExpression()), !dbg !340
  %0 = getelementptr inbounds { [0 x i32]*, i64 }, { [0 x i32]*, i64 }* %self, i32 0, i32 0, !dbg !341
  %_6.0 = load [0 x i32]*, [0 x i32]** %0, align 8, !dbg !341, !nonnull !23, !align !268, !noundef !23
  %1 = getelementptr inbounds { [0 x i32]*, i64 }, { [0 x i32]*, i64 }* %self, i32 0, i32 1, !dbg !341
  %_6.1 = load i64, i64* %1, align 8, !dbg !341
; call <[T] as core::fmt::Debug>::fmt
  %2 = call zeroext i1 @"_ZN48_$LT$$u5b$T$u5d$$u20$as$u20$core..fmt..Debug$GT$3fmt17h3eb18c10daa2cad6E"([0 x i32]* align 4 %_6.0, i64 %_6.1, %"core::fmt::Formatter"* align 8 %f), !dbg !342
  br label %bb1, !dbg !342

bb1:                                              ; preds = %start
  ret i1 %2, !dbg !343
}

; <[T] as core::fmt::Debug>::fmt
; Function Attrs: nonlazybind uwtable
define internal zeroext i1 @"_ZN48_$LT$$u5b$T$u5d$$u20$as$u20$core..fmt..Debug$GT$3fmt17h3eb18c10daa2cad6E"([0 x i32]* align 4 %self.0, i64 %self.1, %"core::fmt::Formatter"* align 8 %f) unnamed_addr #1 !dbg !344 {
start:
  %self.dbg.spill1 = alloca { [0 x i32]*, i64 }, align 8
  %f.dbg.spill = alloca %"core::fmt::Formatter"*, align 8
  %self.dbg.spill = alloca { [0 x i32]*, i64 }, align 8
  %_6 = alloca %"core::fmt::builders::DebugList", align 8
  %0 = getelementptr inbounds { [0 x i32]*, i64 }, { [0 x i32]*, i64 }* %self.dbg.spill, i32 0, i32 0
  store [0 x i32]* %self.0, [0 x i32]** %0, align 8
  %1 = getelementptr inbounds { [0 x i32]*, i64 }, { [0 x i32]*, i64 }* %self.dbg.spill, i32 0, i32 1
  store i64 %self.1, i64* %1, align 8
  call void @llvm.dbg.declare(metadata { [0 x i32]*, i64 }* %self.dbg.spill, metadata !349, metadata !DIExpression()), !dbg !351
  store %"core::fmt::Formatter"* %f, %"core::fmt::Formatter"** %f.dbg.spill, align 8
  call void @llvm.dbg.declare(metadata %"core::fmt::Formatter"** %f.dbg.spill, metadata !350, metadata !DIExpression()), !dbg !352
; call core::fmt::Formatter::debug_list
  call void @_ZN4core3fmt9Formatter10debug_list17h2e70d1c34e8cb782E(%"core::fmt::builders::DebugList"* sret(%"core::fmt::builders::DebugList") %_6, %"core::fmt::Formatter"* align 8 %f), !dbg !353
  br label %bb1, !dbg !353

bb1:                                              ; preds = %start
  %2 = getelementptr inbounds { [0 x i32]*, i64 }, { [0 x i32]*, i64 }* %self.dbg.spill1, i32 0, i32 0, !dbg !354
  store [0 x i32]* %self.0, [0 x i32]** %2, align 8, !dbg !354
  %3 = getelementptr inbounds { [0 x i32]*, i64 }, { [0 x i32]*, i64 }* %self.dbg.spill1, i32 0, i32 1, !dbg !354
  store i64 %self.1, i64* %3, align 8, !dbg !354
  call void @llvm.dbg.declare(metadata { [0 x i32]*, i64 }* %self.dbg.spill1, metadata !355, metadata !DIExpression()), !dbg !380
; call core::slice::iter::Iter<T>::new
  %4 = call { i32*, i32* } @"_ZN4core5slice4iter13Iter$LT$T$GT$3new17h73dd602a46d26ccfE"([0 x i32]* align 4 %self.0, i64 %self.1), !dbg !380
  %_8.0 = extractvalue { i32*, i32* } %4, 0, !dbg !380
  %_8.1 = extractvalue { i32*, i32* } %4, 1, !dbg !380
  br label %bb4, !dbg !380

bb4:                                              ; preds = %bb1
; call core::fmt::builders::DebugList::entries
  %_4 = call align 8 %"core::fmt::builders::DebugList"* @_ZN4core3fmt8builders9DebugList7entries17h52ebd2f986e92362E(%"core::fmt::builders::DebugList"* align 8 %_6, i32* %_8.0, i32* %_8.1), !dbg !353
  br label %bb2, !dbg !353

bb2:                                              ; preds = %bb4
; call core::fmt::builders::DebugList::finish
  %5 = call zeroext i1 @_ZN4core3fmt8builders9DebugList6finish17ha896c0aa3642bf32E(%"core::fmt::builders::DebugList"* align 8 %_4), !dbg !353
  br label %bb3, !dbg !353

bb3:                                              ; preds = %bb2
  ret i1 %5, !dbg !381
}

; <usize as core::iter::range::Step>::forward_unchecked
; Function Attrs: inlinehint nonlazybind uwtable
define internal i64 @"_ZN49_$LT$usize$u20$as$u20$core..iter..range..Step$GT$17forward_unchecked17hc79bfb2ac9b2cb5eE"(i64 %start1, i64 %n) unnamed_addr #2 !dbg !382 {
start:
  %0 = alloca i64, align 8
  %rhs.dbg.spill = alloca i64, align 8
  %self.dbg.spill = alloca i64, align 8
  %n.dbg.spill = alloca i64, align 8
  %start.dbg.spill = alloca i64, align 8
  store i64 %start1, i64* %start.dbg.spill, align 8
  call void @llvm.dbg.declare(metadata i64* %start.dbg.spill, metadata !390, metadata !DIExpression()), !dbg !392
  store i64 %n, i64* %n.dbg.spill, align 8
  call void @llvm.dbg.declare(metadata i64* %n.dbg.spill, metadata !391, metadata !DIExpression()), !dbg !393
  store i64 %start1, i64* %self.dbg.spill, align 8, !dbg !394
  call void @llvm.dbg.declare(metadata i64* %self.dbg.spill, metadata !395, metadata !DIExpression()), !dbg !403
  store i64 %n, i64* %rhs.dbg.spill, align 8, !dbg !404
  call void @llvm.dbg.declare(metadata i64* %rhs.dbg.spill, metadata !402, metadata !DIExpression()), !dbg !403
  %1 = add nuw i64 %start1, %n, !dbg !403
  store i64 %1, i64* %0, align 8, !dbg !403
  %2 = load i64, i64* %0, align 8, !dbg !403
  br label %bb1, !dbg !403

bb1:                                              ; preds = %start
  ret i64 %2, !dbg !405
}

; core::cmp::impls::<impl core::cmp::PartialOrd for usize>::lt
; Function Attrs: inlinehint nonlazybind uwtable
define internal zeroext i1 @"_ZN4core3cmp5impls57_$LT$impl$u20$core..cmp..PartialOrd$u20$for$u20$usize$GT$2lt17hc46e3bc62fda279bE"(i64* align 8 %self, i64* align 8 %other) unnamed_addr #2 !dbg !406 {
start:
  %other.dbg.spill = alloca i64*, align 8
  %self.dbg.spill = alloca i64*, align 8
  store i64* %self, i64** %self.dbg.spill, align 8
  call void @llvm.dbg.declare(metadata i64** %self.dbg.spill, metadata !416, metadata !DIExpression()), !dbg !418
  store i64* %other, i64** %other.dbg.spill, align 8
  call void @llvm.dbg.declare(metadata i64** %other.dbg.spill, metadata !417, metadata !DIExpression()), !dbg !419
  %_3 = load i64, i64* %self, align 8, !dbg !420
  %_4 = load i64, i64* %other, align 8, !dbg !421
  %0 = icmp ult i64 %_3, %_4, !dbg !420
  ret i1 %0, !dbg !422
}

; core::fmt::ArgumentV1::new_display
; Function Attrs: inlinehint nonlazybind uwtable
define internal { i8*, i64* } @_ZN4core3fmt10ArgumentV111new_display17hf3724433314b8d87E(i64* align 8 %x) unnamed_addr #2 !dbg !423 {
start:
  %0 = alloca %"core::fmt::Opaque"*, align 8
  %1 = alloca i1 (%"core::fmt::Opaque"*, %"core::fmt::Formatter"*)*, align 8
  %f.dbg.spill = alloca i1 (i64*, %"core::fmt::Formatter"*)*, align 8
  %x.dbg.spill1 = alloca i64*, align 8
  %x.dbg.spill = alloca i64*, align 8
  %2 = alloca { i8*, i64* }, align 8
  store i64* %x, i64** %x.dbg.spill, align 8
  call void @llvm.dbg.declare(metadata i64** %x.dbg.spill, metadata !437, metadata !DIExpression()), !dbg !438
  store i64* %x, i64** %x.dbg.spill1, align 8, !dbg !439
  call void @llvm.dbg.declare(metadata i64** %x.dbg.spill1, metadata !440, metadata !DIExpression()), !dbg !449
  store i1 (i64*, %"core::fmt::Formatter"*)* @"_ZN4core3fmt3num3imp54_$LT$impl$u20$core..fmt..Display$u20$for$u20$usize$GT$3fmt17h13884cc54f932e9aE", i1 (i64*, %"core::fmt::Formatter"*)** %f.dbg.spill, align 8, !dbg !451
  call void @llvm.dbg.declare(metadata i1 (i64*, %"core::fmt::Formatter"*)** %f.dbg.spill, metadata !448, metadata !DIExpression()), !dbg !449
  store i1 (%"core::fmt::Opaque"*, %"core::fmt::Formatter"*)* bitcast (i1 (i64*, %"core::fmt::Formatter"*)* @"_ZN4core3fmt3num3imp54_$LT$impl$u20$core..fmt..Display$u20$for$u20$usize$GT$3fmt17h13884cc54f932e9aE" to i1 (%"core::fmt::Opaque"*, %"core::fmt::Formatter"*)*), i1 (%"core::fmt::Opaque"*, %"core::fmt::Formatter"*)** %1, align 8, !dbg !449
  %_4 = load i1 (%"core::fmt::Opaque"*, %"core::fmt::Formatter"*)*, i1 (%"core::fmt::Opaque"*, %"core::fmt::Formatter"*)** %1, align 8, !dbg !449, !nonnull !23, !noundef !23
  br label %bb1, !dbg !449

bb1:                                              ; preds = %start
  %3 = bitcast i64* %x to %"core::fmt::Opaque"*, !dbg !449
  store %"core::fmt::Opaque"* %3, %"core::fmt::Opaque"** %0, align 8, !dbg !449
  %_6 = load %"core::fmt::Opaque"*, %"core::fmt::Opaque"** %0, align 8, !dbg !449, !nonnull !23, !align !452, !noundef !23
  br label %bb2, !dbg !449

bb2:                                              ; preds = %bb1
  %4 = bitcast { i8*, i64* }* %2 to %"core::fmt::Opaque"**, !dbg !449
  store %"core::fmt::Opaque"* %_6, %"core::fmt::Opaque"** %4, align 8, !dbg !449
  %5 = getelementptr inbounds { i8*, i64* }, { i8*, i64* }* %2, i32 0, i32 1, !dbg !449
  %6 = bitcast i64** %5 to i1 (%"core::fmt::Opaque"*, %"core::fmt::Formatter"*)**, !dbg !449
  store i1 (%"core::fmt::Opaque"*, %"core::fmt::Formatter"*)* %_4, i1 (%"core::fmt::Opaque"*, %"core::fmt::Formatter"*)** %6, align 8, !dbg !449
  %7 = getelementptr inbounds { i8*, i64* }, { i8*, i64* }* %2, i32 0, i32 0, !dbg !453
  %8 = load i8*, i8** %7, align 8, !dbg !453, !nonnull !23, !align !452, !noundef !23
  %9 = getelementptr inbounds { i8*, i64* }, { i8*, i64* }* %2, i32 0, i32 1, !dbg !453
  %10 = load i64*, i64** %9, align 8, !dbg !453, !nonnull !23, !noundef !23
  %11 = insertvalue { i8*, i64* } undef, i8* %8, 0, !dbg !453
  %12 = insertvalue { i8*, i64* } %11, i64* %10, 1, !dbg !453
  ret { i8*, i64* } %12, !dbg !453
}

; core::fmt::num::<impl core::fmt::Debug for i32>::fmt
; Function Attrs: inlinehint nonlazybind uwtable
define internal zeroext i1 @"_ZN4core3fmt3num50_$LT$impl$u20$core..fmt..Debug$u20$for$u20$i32$GT$3fmt17h89571e8f2057ff76E"(i32* align 4 %self, %"core::fmt::Formatter"* align 8 %f) unnamed_addr #2 !dbg !454 {
start:
  %f.dbg.spill = alloca %"core::fmt::Formatter"*, align 8
  %self.dbg.spill = alloca i32*, align 8
  %0 = alloca i8, align 1
  store i32* %self, i32** %self.dbg.spill, align 8
  call void @llvm.dbg.declare(metadata i32** %self.dbg.spill, metadata !461, metadata !DIExpression()), !dbg !463
  store %"core::fmt::Formatter"* %f, %"core::fmt::Formatter"** %f.dbg.spill, align 8
  call void @llvm.dbg.declare(metadata %"core::fmt::Formatter"** %f.dbg.spill, metadata !462, metadata !DIExpression()), !dbg !464
; call core::fmt::Formatter::debug_lower_hex
  %_3 = call zeroext i1 @_ZN4core3fmt9Formatter15debug_lower_hex17h861f5ddbf758e4f9E(%"core::fmt::Formatter"* align 8 %f), !dbg !465
  br label %bb1, !dbg !465

bb1:                                              ; preds = %start
  br i1 %_3, label %bb2, label %bb4, !dbg !465

bb4:                                              ; preds = %bb1
; call core::fmt::Formatter::debug_upper_hex
  %_7 = call zeroext i1 @_ZN4core3fmt9Formatter15debug_upper_hex17h21ddf2be2e6a0fd5E(%"core::fmt::Formatter"* align 8 %f), !dbg !466
  br label %bb5, !dbg !466

bb2:                                              ; preds = %bb1
; call core::fmt::num::<impl core::fmt::LowerHex for i32>::fmt
  %1 = call zeroext i1 @"_ZN4core3fmt3num53_$LT$impl$u20$core..fmt..LowerHex$u20$for$u20$i32$GT$3fmt17h46ab6094afed2354E"(i32* align 4 %self, %"core::fmt::Formatter"* align 8 %f), !dbg !467
  %2 = zext i1 %1 to i8, !dbg !467
  store i8 %2, i8* %0, align 1, !dbg !467
  br label %bb3, !dbg !467

bb3:                                              ; preds = %bb2
  br label %bb11, !dbg !468

bb11:                                             ; preds = %bb10, %bb3
  %3 = load i8, i8* %0, align 1, !dbg !469, !range !470, !noundef !23
  %4 = trunc i8 %3 to i1, !dbg !469
  ret i1 %4, !dbg !469

bb5:                                              ; preds = %bb4
  br i1 %_7, label %bb6, label %bb8, !dbg !466

bb8:                                              ; preds = %bb5
; call core::fmt::num::imp::<impl core::fmt::Display for i32>::fmt
  %5 = call zeroext i1 @"_ZN4core3fmt3num3imp52_$LT$impl$u20$core..fmt..Display$u20$for$u20$i32$GT$3fmt17h52a4838d0eaa2babE"(i32* align 4 %self, %"core::fmt::Formatter"* align 8 %f), !dbg !471
  %6 = zext i1 %5 to i8, !dbg !471
  store i8 %6, i8* %0, align 1, !dbg !471
  br label %bb9, !dbg !471

bb6:                                              ; preds = %bb5
; call core::fmt::num::<impl core::fmt::UpperHex for i32>::fmt
  %7 = call zeroext i1 @"_ZN4core3fmt3num53_$LT$impl$u20$core..fmt..UpperHex$u20$for$u20$i32$GT$3fmt17h827553a54a7e037dE"(i32* align 4 %self, %"core::fmt::Formatter"* align 8 %f), !dbg !472
  %8 = zext i1 %7 to i8, !dbg !472
  store i8 %8, i8* %0, align 1, !dbg !472
  br label %bb7, !dbg !472

bb7:                                              ; preds = %bb6
  br label %bb10, !dbg !473

bb10:                                             ; preds = %bb9, %bb7
  br label %bb11, !dbg !468

bb9:                                              ; preds = %bb8
  br label %bb10, !dbg !473
}

; core::fmt::builders::DebugList::entries
; Function Attrs: nonlazybind uwtable
define internal align 8 %"core::fmt::builders::DebugList"* @_ZN4core3fmt8builders9DebugList7entries17h52ebd2f986e92362E(%"core::fmt::builders::DebugList"* align 8 %self, i32* %entries.0, i32* %entries.1) unnamed_addr #1 personality i32 (i32, i32, i64, %"unwind::libunwind::_Unwind_Exception"*, %"unwind::libunwind::_Unwind_Context"*)* @rust_eh_personality !dbg !474 {
start:
  %0 = alloca { i8*, i32 }, align 8
  %entries.dbg.spill = alloca { i32*, i32* }, align 8
  %self.dbg.spill = alloca %"core::fmt::builders::DebugList"*, align 8
  %entry = alloca i32*, align 8
  %_7 = alloca i32*, align 8
  %iter = alloca { i32*, i32* }, align 8
  store %"core::fmt::builders::DebugList"* %self, %"core::fmt::builders::DebugList"** %self.dbg.spill, align 8
  call void @llvm.dbg.declare(metadata %"core::fmt::builders::DebugList"** %self.dbg.spill, metadata !489, metadata !DIExpression()), !dbg !498
  %1 = getelementptr inbounds { i32*, i32* }, { i32*, i32* }* %entries.dbg.spill, i32 0, i32 0
  store i32* %entries.0, i32** %1, align 8
  %2 = getelementptr inbounds { i32*, i32* }, { i32*, i32* }* %entries.dbg.spill, i32 0, i32 1
  store i32* %entries.1, i32** %2, align 8
  call void @llvm.dbg.declare(metadata { i32*, i32* }* %entries.dbg.spill, metadata !490, metadata !DIExpression()), !dbg !499
  call void @llvm.dbg.declare(metadata { i32*, i32* }* %iter, metadata !491, metadata !DIExpression()), !dbg !500
  call void @llvm.dbg.declare(metadata i32** %entry, metadata !493, metadata !DIExpression()), !dbg !501
; call <I as core::iter::traits::collect::IntoIterator>::into_iter
  %3 = call { i32*, i32* } @"_ZN63_$LT$I$u20$as$u20$core..iter..traits..collect..IntoIterator$GT$9into_iter17h58cf76c283540358E"(i32* %entries.0, i32* %entries.1), !dbg !502
  %_4.0 = extractvalue { i32*, i32* } %3, 0, !dbg !502
  %_4.1 = extractvalue { i32*, i32* } %3, 1, !dbg !502
  br label %bb1, !dbg !502

bb1:                                              ; preds = %start
  %4 = getelementptr inbounds { i32*, i32* }, { i32*, i32* }* %iter, i32 0, i32 0, !dbg !502
  store i32* %_4.0, i32** %4, align 8, !dbg !502
  %5 = getelementptr inbounds { i32*, i32* }, { i32*, i32* }* %iter, i32 0, i32 1, !dbg !502
  store i32* %_4.1, i32** %5, align 8, !dbg !502
  br label %bb2, !dbg !503

bb2:                                              ; preds = %bb8, %bb1
; invoke <core::slice::iter::Iter<T> as core::iter::traits::iterator::Iterator>::next
  %6 = invoke align 4 i32* @"_ZN91_$LT$core..slice..iter..Iter$LT$T$GT$$u20$as$u20$core..iter..traits..iterator..Iterator$GT$4next17h50a7d57f3e901952E"({ i32*, i32* }* align 8 %iter)
          to label %bb3 unwind label %cleanup, !dbg !500

bb11:                                             ; preds = %bb10, %cleanup
  br label %bb12, !dbg !504

cleanup:                                          ; preds = %bb2
  %7 = landingpad { i8*, i32 }
          cleanup
  %8 = extractvalue { i8*, i32 } %7, 0
  %9 = extractvalue { i8*, i32 } %7, 1
  %10 = getelementptr inbounds { i8*, i32 }, { i8*, i32 }* %0, i32 0, i32 0
  store i8* %8, i8** %10, align 8
  %11 = getelementptr inbounds { i8*, i32 }, { i8*, i32 }* %0, i32 0, i32 1
  store i32 %9, i32* %11, align 8
  br label %bb11

bb3:                                              ; preds = %bb2
  store i32* %6, i32** %_7, align 8, !dbg !500
  %12 = bitcast i32** %_7 to {}**, !dbg !500
  %13 = load {}*, {}** %12, align 8, !dbg !500
  %14 = icmp eq {}* %13, null, !dbg !500
  %_10 = select i1 %14, i64 0, i64 1, !dbg !500
  switch i64 %_10, label %bb5 [
    i64 0, label %bb6
    i64 1, label %bb4
  ], !dbg !500

bb5:                                              ; preds = %bb3
  unreachable, !dbg !500

bb6:                                              ; preds = %bb3
  br label %bb9, !dbg !504

bb4:                                              ; preds = %bb3
  %15 = load i32*, i32** %_7, align 8, !dbg !505, !nonnull !23, !align !268, !noundef !23
  store i32* %15, i32** %entry, align 8, !dbg !505
  %_14.0 = bitcast i32** %entry to {}*, !dbg !506
; invoke core::fmt::builders::DebugList::entry
  %_12 = invoke align 8 %"core::fmt::builders::DebugList"* @_ZN4core3fmt8builders9DebugList5entry17h5007920add23274dE(%"core::fmt::builders::DebugList"* align 8 %self, {}* align 1 %_14.0, [3 x i64]* align 8 bitcast (<{ i8*, [16 x i8], i8* }>* @vtable.1 to [3 x i64]*))
          to label %bb7 unwind label %cleanup1, !dbg !507

bb10:                                             ; preds = %cleanup1
  br label %bb11, !dbg !508

cleanup1:                                         ; preds = %bb4
  %16 = landingpad { i8*, i32 }
          cleanup
  %17 = extractvalue { i8*, i32 } %16, 0
  %18 = extractvalue { i8*, i32 } %16, 1
  %19 = getelementptr inbounds { i8*, i32 }, { i8*, i32 }* %0, i32 0, i32 0
  store i8* %17, i8** %19, align 8
  %20 = getelementptr inbounds { i8*, i32 }, { i8*, i32 }* %0, i32 0, i32 1
  store i32 %18, i32* %20, align 8
  br label %bb10

bb7:                                              ; preds = %bb4
  br label %bb8, !dbg !508

bb8:                                              ; preds = %bb7
  br label %bb2, !dbg !503

bb12:                                             ; preds = %bb11
  %21 = bitcast { i8*, i32 }* %0 to i8**, !dbg !509
  %22 = load i8*, i8** %21, align 8, !dbg !509
  %23 = getelementptr inbounds { i8*, i32 }, { i8*, i32 }* %0, i32 0, i32 1, !dbg !509
  %24 = load i32, i32* %23, align 8, !dbg !509
  %25 = insertvalue { i8*, i32 } undef, i8* %22, 0, !dbg !509
  %26 = insertvalue { i8*, i32 } %25, i32 %24, 1, !dbg !509
  resume { i8*, i32 } %26, !dbg !509

bb9:                                              ; preds = %bb6
  ret %"core::fmt::builders::DebugList"* %self, !dbg !510
}

; core::fmt::Arguments::new_v1
; Function Attrs: inlinehint nonlazybind uwtable
define internal void @_ZN4core3fmt9Arguments6new_v117hf636da35ec9e1d99E(%"core::fmt::Arguments"* sret(%"core::fmt::Arguments") %0, [0 x { [0 x i8]*, i64 }]* align 8 %pieces.0, i64 %pieces.1, [0 x { i8*, i64* }]* align 8 %args.0, i64 %args.1) unnamed_addr #2 !dbg !511 {
start:
  %args.dbg.spill = alloca { [0 x { i8*, i64* }]*, i64 }, align 8
  %pieces.dbg.spill = alloca { [0 x { [0 x i8]*, i64 }]*, i64 }, align 8
  %_24 = alloca { i64*, i64 }, align 8
  %_16 = alloca %"core::fmt::Arguments", align 8
  %_3 = alloca i8, align 1
  %1 = getelementptr inbounds { [0 x { [0 x i8]*, i64 }]*, i64 }, { [0 x { [0 x i8]*, i64 }]*, i64 }* %pieces.dbg.spill, i32 0, i32 0
  store [0 x { [0 x i8]*, i64 }]* %pieces.0, [0 x { [0 x i8]*, i64 }]** %1, align 8
  %2 = getelementptr inbounds { [0 x { [0 x i8]*, i64 }]*, i64 }, { [0 x { [0 x i8]*, i64 }]*, i64 }* %pieces.dbg.spill, i32 0, i32 1
  store i64 %pieces.1, i64* %2, align 8
  call void @llvm.dbg.declare(metadata { [0 x { [0 x i8]*, i64 }]*, i64 }* %pieces.dbg.spill, metadata !579, metadata !DIExpression()), !dbg !581
  %3 = getelementptr inbounds { [0 x { i8*, i64* }]*, i64 }, { [0 x { i8*, i64* }]*, i64 }* %args.dbg.spill, i32 0, i32 0
  store [0 x { i8*, i64* }]* %args.0, [0 x { i8*, i64* }]** %3, align 8
  %4 = getelementptr inbounds { [0 x { i8*, i64* }]*, i64 }, { [0 x { i8*, i64* }]*, i64 }* %args.dbg.spill, i32 0, i32 1
  store i64 %args.1, i64* %4, align 8
  call void @llvm.dbg.declare(metadata { [0 x { i8*, i64* }]*, i64 }* %args.dbg.spill, metadata !580, metadata !DIExpression()), !dbg !582
  %_4 = icmp ult i64 %pieces.1, %args.1, !dbg !583
  br i1 %_4, label %bb1, label %bb2, !dbg !583

bb2:                                              ; preds = %start
  %_12 = add i64 %args.1, 1, !dbg !584
  %_9 = icmp ugt i64 %pieces.1, %_12, !dbg !585
  %5 = zext i1 %_9 to i8, !dbg !583
  store i8 %5, i8* %_3, align 1, !dbg !583
  br label %bb3, !dbg !583

bb1:                                              ; preds = %start
  store i8 1, i8* %_3, align 1, !dbg !583
  br label %bb3, !dbg !583

bb3:                                              ; preds = %bb2, %bb1
  %6 = load i8, i8* %_3, align 1, !dbg !583, !range !470, !noundef !23
  %7 = trunc i8 %6 to i1, !dbg !583
  br i1 %7, label %bb4, label %bb6, !dbg !583

bb6:                                              ; preds = %bb3
  %8 = bitcast { i64*, i64 }* %_24 to {}**, !dbg !586
  store {}* null, {}** %8, align 8, !dbg !586
  %9 = bitcast %"core::fmt::Arguments"* %0 to { [0 x { [0 x i8]*, i64 }]*, i64 }*, !dbg !587
  %10 = getelementptr inbounds { [0 x { [0 x i8]*, i64 }]*, i64 }, { [0 x { [0 x i8]*, i64 }]*, i64 }* %9, i32 0, i32 0, !dbg !587
  store [0 x { [0 x i8]*, i64 }]* %pieces.0, [0 x { [0 x i8]*, i64 }]** %10, align 8, !dbg !587
  %11 = getelementptr inbounds { [0 x { [0 x i8]*, i64 }]*, i64 }, { [0 x { [0 x i8]*, i64 }]*, i64 }* %9, i32 0, i32 1, !dbg !587
  store i64 %pieces.1, i64* %11, align 8, !dbg !587
  %12 = getelementptr inbounds %"core::fmt::Arguments", %"core::fmt::Arguments"* %0, i32 0, i32 1, !dbg !587
  %13 = getelementptr inbounds { i64*, i64 }, { i64*, i64 }* %_24, i32 0, i32 0, !dbg !587
  %14 = load i64*, i64** %13, align 8, !dbg !587, !align !167
  %15 = getelementptr inbounds { i64*, i64 }, { i64*, i64 }* %_24, i32 0, i32 1, !dbg !587
  %16 = load i64, i64* %15, align 8, !dbg !587
  %17 = getelementptr inbounds { i64*, i64 }, { i64*, i64 }* %12, i32 0, i32 0, !dbg !587
  store i64* %14, i64** %17, align 8, !dbg !587
  %18 = getelementptr inbounds { i64*, i64 }, { i64*, i64 }* %12, i32 0, i32 1, !dbg !587
  store i64 %16, i64* %18, align 8, !dbg !587
  %19 = getelementptr inbounds %"core::fmt::Arguments", %"core::fmt::Arguments"* %0, i32 0, i32 2, !dbg !587
  %20 = getelementptr inbounds { [0 x { i8*, i64* }]*, i64 }, { [0 x { i8*, i64* }]*, i64 }* %19, i32 0, i32 0, !dbg !587
  store [0 x { i8*, i64* }]* %args.0, [0 x { i8*, i64* }]** %20, align 8, !dbg !587
  %21 = getelementptr inbounds { [0 x { i8*, i64* }]*, i64 }, { [0 x { i8*, i64* }]*, i64 }* %19, i32 0, i32 1, !dbg !587
  store i64 %args.1, i64* %21, align 8, !dbg !587
  ret void, !dbg !588

bb4:                                              ; preds = %bb3
; call core::fmt::Arguments::new_v1
  call void @_ZN4core3fmt9Arguments6new_v117hf636da35ec9e1d99E(%"core::fmt::Arguments"* sret(%"core::fmt::Arguments") %_16, [0 x { [0 x i8]*, i64 }]* align 8 bitcast (<{ i8*, [8 x i8] }>* @alloc151 to [0 x { [0 x i8]*, i64 }]*), i64 1, [0 x { i8*, i64* }]* align 8 bitcast (<{}>* @alloc153 to [0 x { i8*, i64* }]*), i64 0), !dbg !589
  br label %bb5, !dbg !589

bb5:                                              ; preds = %bb4
; call core::panicking::panic_fmt
  call void @_ZN4core9panicking9panic_fmt17h62ccf03c8a8a51b5E(%"core::fmt::Arguments"* %_16, %"core::panic::location::Location"* align 8 bitcast (<{ i8*, [16 x i8] }>* @alloc352 to %"core::panic::location::Location"*)) #13, !dbg !589
  unreachable, !dbg !589
}

; core::mem::replace
; Function Attrs: inlinehint nonlazybind uwtable
define internal i64 @_ZN4core3mem7replace17he43a166baff3757aE(i64* align 8 %dest, i64 %src) unnamed_addr #2 personality i32 (i32, i32, i64, %"unwind::libunwind::_Unwind_Exception"*, %"unwind::libunwind::_Unwind_Context"*)* @rust_eh_personality !dbg !590 {
start:
  %dst.dbg.spill = alloca i64*, align 8
  %result.dbg.spill = alloca i64, align 8
  %slot.dbg.spill = alloca i64, align 8
  %0 = alloca { i8*, i32 }, align 8
  %self.dbg.spill3 = alloca i64, align 8
  %self.dbg.spill = alloca i64*, align 8
  %src.dbg.spill2 = alloca i64*, align 8
  %src.dbg.spill = alloca i64, align 8
  %dest.dbg.spill = alloca i64*, align 8
  %tmp = alloca i64, align 8
  %src1 = alloca i64, align 8
  store i64* %dest, i64** %dest.dbg.spill, align 8
  call void @llvm.dbg.declare(metadata i64** %dest.dbg.spill, metadata !597, metadata !DIExpression()), !dbg !601
  store i64 %src, i64* %src.dbg.spill, align 8
  call void @llvm.dbg.declare(metadata i64* %src.dbg.spill, metadata !598, metadata !DIExpression()), !dbg !602
  call void @llvm.dbg.declare(metadata i64* %src1, metadata !603, metadata !DIExpression()), !dbg !612
  call void @llvm.dbg.declare(metadata i64* %tmp, metadata !614, metadata !DIExpression()), !dbg !633
  store i64* %dest, i64** %src.dbg.spill2, align 8, !dbg !635
  call void @llvm.dbg.declare(metadata i64** %src.dbg.spill2, metadata !622, metadata !DIExpression()), !dbg !636
  %1 = bitcast i64* %tmp to {}*, !dbg !637
  store i64* %tmp, i64** %self.dbg.spill, align 8, !dbg !633
  call void @llvm.dbg.declare(metadata i64** %self.dbg.spill, metadata !644, metadata !DIExpression()), !dbg !651
  %2 = bitcast i64* %tmp to i8*, !dbg !633
  %3 = bitcast i64* %dest to i8*, !dbg !633
  call void @llvm.memcpy.p0i8.p0i8.i64(i8* align 8 %2, i8* align 8 %3, i64 8, i1 false), !dbg !633
  %self = load i64, i64* %tmp, align 8, !dbg !633
  store i64 %self, i64* %self.dbg.spill3, align 8, !dbg !633
  call void @llvm.dbg.declare(metadata i64* %self.dbg.spill3, metadata !653, metadata !DIExpression()), !dbg !667
  br label %bb4, !dbg !667

bb4:                                              ; preds = %start
  store i64 %self, i64* %slot.dbg.spill, align 8, !dbg !667
  call void @llvm.dbg.declare(metadata i64* %slot.dbg.spill, metadata !669, metadata !DIExpression()), !dbg !676
  store i64 %self, i64* %result.dbg.spill, align 8, !dbg !676
  call void @llvm.dbg.declare(metadata i64* %result.dbg.spill, metadata !599, metadata !DIExpression()), !dbg !678
  store i64* %dest, i64** %dst.dbg.spill, align 8, !dbg !679
  call void @llvm.dbg.declare(metadata i64** %dst.dbg.spill, metadata !611, metadata !DIExpression()), !dbg !612
  store i64 %src, i64* %src1, align 8, !dbg !680
  %4 = bitcast i64* %dest to i8*, !dbg !612
  %5 = bitcast i64* %src1 to i8*, !dbg !612
  call void @llvm.memcpy.p0i8.p0i8.i64(i8* align 8 %4, i8* align 8 %5, i64 8, i1 false), !dbg !612
  ret i64 %self, !dbg !681

bb3:                                              ; No predecessors!
  br i1 true, label %bb2, label %bb1, !dbg !682

bb1:                                              ; preds = %bb2, %bb3
  %6 = bitcast { i8*, i32 }* %0 to i8**, !dbg !683
  %7 = load i8*, i8** %6, align 8, !dbg !683
  %8 = getelementptr inbounds { i8*, i32 }, { i8*, i32 }* %0, i32 0, i32 1, !dbg !683
  %9 = load i32, i32* %8, align 8, !dbg !683
  %10 = insertvalue { i8*, i32 } undef, i8* %7, 0, !dbg !683
  %11 = insertvalue { i8*, i32 } %10, i32 %9, 1, !dbg !683
  resume { i8*, i32 } %11, !dbg !683

bb2:                                              ; preds = %bb3
  br label %bb1, !dbg !682
}

; core::ops::function::FnOnce::call_once{{vtable.shim}}
; Function Attrs: inlinehint nonlazybind uwtable
define internal i32 @"_ZN4core3ops8function6FnOnce40call_once$u7b$$u7b$vtable.shim$u7d$$u7d$17hbb97a15550ac3498E"(i64** %_1) unnamed_addr #2 !dbg !684 {
start:
  %_1.dbg.spill = alloca i64**, align 8
  %_2 = alloca {}, align 1
  store i64** %_1, i64*** %_1.dbg.spill, align 8
  call void @llvm.dbg.declare(metadata i64*** %_1.dbg.spill, metadata !693, metadata !DIExpression()), !dbg !698
  call void @llvm.dbg.declare(metadata {}* %_2, metadata !694, metadata !DIExpression()), !dbg !698
  %0 = load i64*, i64** %_1, align 8, !dbg !698, !nonnull !23, !noundef !23
; call core::ops::function::FnOnce::call_once
  %1 = call i32 @_ZN4core3ops8function6FnOnce9call_once17hd920c8b889d31488E(i64* %0), !dbg !698
  br label %bb1, !dbg !698

bb1:                                              ; preds = %start
  ret i32 %1, !dbg !698
}

; core::ops::function::FnOnce::call_once
; Function Attrs: inlinehint nonlazybind uwtable
define internal void @_ZN4core3ops8function6FnOnce9call_once17h4954cfa7b774e7f2E() unnamed_addr #2 personality i32 (i32, i32, i64, %"unwind::libunwind::_Unwind_Exception"*, %"unwind::libunwind::_Unwind_Context"*)* @rust_eh_personality !dbg !699 {
start:
  %0 = alloca { i8*, i32 }, align 8
  %_2 = alloca {}, align 1
  %_1 = alloca %"[closure@src/test_ints.rs:30:1: 45:2]", align 1
  call void @llvm.dbg.declare(metadata %"[closure@src/test_ints.rs:30:1: 45:2]"* %_1, metadata !707, metadata !DIExpression()), !dbg !711
  call void @llvm.dbg.declare(metadata {}* %_2, metadata !708, metadata !DIExpression()), !dbg !711
; invoke int_tests::test_ints::test_chars_buffer::{{closure}}
  invoke void @"_ZN9int_tests9test_ints17test_chars_buffer28_$u7b$$u7b$closure$u7d$$u7d$17h1a9daaf6faae76f4E"(%"[closure@src/test_ints.rs:30:1: 45:2]"* align 1 %_1)
          to label %bb1 unwind label %cleanup, !dbg !711

bb3:                                              ; preds = %cleanup
  br label %bb4, !dbg !711

cleanup:                                          ; preds = %start
  %1 = landingpad { i8*, i32 }
          cleanup
  %2 = extractvalue { i8*, i32 } %1, 0
  %3 = extractvalue { i8*, i32 } %1, 1
  %4 = getelementptr inbounds { i8*, i32 }, { i8*, i32 }* %0, i32 0, i32 0
  store i8* %2, i8** %4, align 8
  %5 = getelementptr inbounds { i8*, i32 }, { i8*, i32 }* %0, i32 0, i32 1
  store i32 %3, i32* %5, align 8
  br label %bb3

bb1:                                              ; preds = %start
  br label %bb2, !dbg !711

bb4:                                              ; preds = %bb3
  %6 = bitcast { i8*, i32 }* %0 to i8**, !dbg !711
  %7 = load i8*, i8** %6, align 8, !dbg !711
  %8 = getelementptr inbounds { i8*, i32 }, { i8*, i32 }* %0, i32 0, i32 1, !dbg !711
  %9 = load i32, i32* %8, align 8, !dbg !711
  %10 = insertvalue { i8*, i32 } undef, i8* %7, 0, !dbg !711
  %11 = insertvalue { i8*, i32 } %10, i32 %9, 1, !dbg !711
  resume { i8*, i32 } %11, !dbg !711

bb2:                                              ; preds = %bb1
  ret void, !dbg !711
}

; core::ops::function::FnOnce::call_once
; Function Attrs: inlinehint nonlazybind uwtable
define internal void @_ZN4core3ops8function6FnOnce9call_once17h4d720fc51c408c5cE() unnamed_addr #2 personality i32 (i32, i32, i64, %"unwind::libunwind::_Unwind_Exception"*, %"unwind::libunwind::_Unwind_Context"*)* @rust_eh_personality !dbg !712 {
start:
  %0 = alloca { i8*, i32 }, align 8
  %_2 = alloca {}, align 1
  %_1 = alloca %"[closure@src/test_compound_assignment.rs:14:1: 26:2]", align 1
  call void @llvm.dbg.declare(metadata %"[closure@src/test_compound_assignment.rs:14:1: 26:2]"* %_1, metadata !719, metadata !DIExpression()), !dbg !723
  call void @llvm.dbg.declare(metadata {}* %_2, metadata !720, metadata !DIExpression()), !dbg !723
; invoke int_tests::test_compound_assignment::test_compound_assignment_test_buffer::{{closure}}
  invoke void @"_ZN9int_tests24test_compound_assignment36test_compound_assignment_test_buffer28_$u7b$$u7b$closure$u7d$$u7d$17h82bbc2b3170b857eE"(%"[closure@src/test_compound_assignment.rs:14:1: 26:2]"* align 1 %_1)
          to label %bb1 unwind label %cleanup, !dbg !723

bb3:                                              ; preds = %cleanup
  br label %bb4, !dbg !723

cleanup:                                          ; preds = %start
  %1 = landingpad { i8*, i32 }
          cleanup
  %2 = extractvalue { i8*, i32 } %1, 0
  %3 = extractvalue { i8*, i32 } %1, 1
  %4 = getelementptr inbounds { i8*, i32 }, { i8*, i32 }* %0, i32 0, i32 0
  store i8* %2, i8** %4, align 8
  %5 = getelementptr inbounds { i8*, i32 }, { i8*, i32 }* %0, i32 0, i32 1
  store i32 %3, i32* %5, align 8
  br label %bb3

bb1:                                              ; preds = %start
  br label %bb2, !dbg !723

bb4:                                              ; preds = %bb3
  %6 = bitcast { i8*, i32 }* %0 to i8**, !dbg !723
  %7 = load i8*, i8** %6, align 8, !dbg !723
  %8 = getelementptr inbounds { i8*, i32 }, { i8*, i32 }* %0, i32 0, i32 1, !dbg !723
  %9 = load i32, i32* %8, align 8, !dbg !723
  %10 = insertvalue { i8*, i32 } undef, i8* %7, 0, !dbg !723
  %11 = insertvalue { i8*, i32 } %10, i32 %9, 1, !dbg !723
  resume { i8*, i32 } %11, !dbg !723

bb2:                                              ; preds = %bb1
  ret void, !dbg !723
}

; core::ops::function::FnOnce::call_once
; Function Attrs: inlinehint nonlazybind uwtable
define internal void @_ZN4core3ops8function6FnOnce9call_once17h4f890cd89a729c9cE() unnamed_addr #2 personality i32 (i32, i32, i64, %"unwind::libunwind::_Unwind_Exception"*, %"unwind::libunwind::_Unwind_Context"*)* @rust_eh_personality !dbg !724 {
start:
  %0 = alloca { i8*, i32 }, align 8
  %_2 = alloca {}, align 1
  %_1 = alloca %"[closure@src/test_volatile.rs:13:1: 25:2]", align 1
  call void @llvm.dbg.declare(metadata %"[closure@src/test_volatile.rs:13:1: 25:2]"* %_1, metadata !731, metadata !DIExpression()), !dbg !735
  call void @llvm.dbg.declare(metadata {}* %_2, metadata !732, metadata !DIExpression()), !dbg !735
; invoke int_tests::test_volatile::test_volatile_test_buffer::{{closure}}
  invoke void @"_ZN9int_tests13test_volatile25test_volatile_test_buffer28_$u7b$$u7b$closure$u7d$$u7d$17hc31e94d35945ec8fE"(%"[closure@src/test_volatile.rs:13:1: 25:2]"* align 1 %_1)
          to label %bb1 unwind label %cleanup, !dbg !735

bb3:                                              ; preds = %cleanup
  br label %bb4, !dbg !735

cleanup:                                          ; preds = %start
  %1 = landingpad { i8*, i32 }
          cleanup
  %2 = extractvalue { i8*, i32 } %1, 0
  %3 = extractvalue { i8*, i32 } %1, 1
  %4 = getelementptr inbounds { i8*, i32 }, { i8*, i32 }* %0, i32 0, i32 0
  store i8* %2, i8** %4, align 8
  %5 = getelementptr inbounds { i8*, i32 }, { i8*, i32 }* %0, i32 0, i32 1
  store i32 %3, i32* %5, align 8
  br label %bb3

bb1:                                              ; preds = %start
  br label %bb2, !dbg !735

bb4:                                              ; preds = %bb3
  %6 = bitcast { i8*, i32 }* %0 to i8**, !dbg !735
  %7 = load i8*, i8** %6, align 8, !dbg !735
  %8 = getelementptr inbounds { i8*, i32 }, { i8*, i32 }* %0, i32 0, i32 1, !dbg !735
  %9 = load i32, i32* %8, align 8, !dbg !735
  %10 = insertvalue { i8*, i32 } undef, i8* %7, 0, !dbg !735
  %11 = insertvalue { i8*, i32 } %10, i32 %9, 1, !dbg !735
  resume { i8*, i32 } %11, !dbg !735

bb2:                                              ; preds = %bb1
  ret void, !dbg !735
}

; core::ops::function::FnOnce::call_once
; Function Attrs: inlinehint nonlazybind uwtable
define internal void @_ZN4core3ops8function6FnOnce9call_once17h5a4c5acc0f6d687dE() unnamed_addr #2 personality i32 (i32, i32, i64, %"unwind::libunwind::_Unwind_Exception"*, %"unwind::libunwind::_Unwind_Context"*)* @rust_eh_personality !dbg !736 {
start:
  %0 = alloca { i8*, i32 }, align 8
  %_2 = alloca {}, align 1
  %_1 = alloca %"[closure@src/test_arithmetic.rs:13:1: 32:2]", align 1
  call void @llvm.dbg.declare(metadata %"[closure@src/test_arithmetic.rs:13:1: 32:2]"* %_1, metadata !743, metadata !DIExpression()), !dbg !747
  call void @llvm.dbg.declare(metadata {}* %_2, metadata !744, metadata !DIExpression()), !dbg !747
; invoke int_tests::test_arithmetic::test_arithmetic_test_buffer::{{closure}}
  invoke void @"_ZN9int_tests15test_arithmetic27test_arithmetic_test_buffer28_$u7b$$u7b$closure$u7d$$u7d$17h8fecd9a5aa2b010cE"(%"[closure@src/test_arithmetic.rs:13:1: 32:2]"* align 1 %_1)
          to label %bb1 unwind label %cleanup, !dbg !747

bb3:                                              ; preds = %cleanup
  br label %bb4, !dbg !747

cleanup:                                          ; preds = %start
  %1 = landingpad { i8*, i32 }
          cleanup
  %2 = extractvalue { i8*, i32 } %1, 0
  %3 = extractvalue { i8*, i32 } %1, 1
  %4 = getelementptr inbounds { i8*, i32 }, { i8*, i32 }* %0, i32 0, i32 0
  store i8* %2, i8** %4, align 8
  %5 = getelementptr inbounds { i8*, i32 }, { i8*, i32 }* %0, i32 0, i32 1
  store i32 %3, i32* %5, align 8
  br label %bb3

bb1:                                              ; preds = %start
  br label %bb2, !dbg !747

bb4:                                              ; preds = %bb3
  %6 = bitcast { i8*, i32 }* %0 to i8**, !dbg !747
  %7 = load i8*, i8** %6, align 8, !dbg !747
  %8 = getelementptr inbounds { i8*, i32 }, { i8*, i32 }* %0, i32 0, i32 1, !dbg !747
  %9 = load i32, i32* %8, align 8, !dbg !747
  %10 = insertvalue { i8*, i32 } undef, i8* %7, 0, !dbg !747
  %11 = insertvalue { i8*, i32 } %10, i32 %9, 1, !dbg !747
  resume { i8*, i32 } %11, !dbg !747

bb2:                                              ; preds = %bb1
  ret void, !dbg !747
}

; core::ops::function::FnOnce::call_once
; Function Attrs: inlinehint nonlazybind uwtable
define internal void @_ZN4core3ops8function6FnOnce9call_once17h7ae7471b0fd532f0E() unnamed_addr #2 personality i32 (i32, i32, i64, %"unwind::libunwind::_Unwind_Exception"*, %"unwind::libunwind::_Unwind_Context"*)* @rust_eh_personality !dbg !748 {
start:
  %0 = alloca { i8*, i32 }, align 8
  %_2 = alloca {}, align 1
  %_1 = alloca %"[closure@src/test_sieve_of_eratosthenes.rs:13:1: 32:2]", align 1
  call void @llvm.dbg.declare(metadata %"[closure@src/test_sieve_of_eratosthenes.rs:13:1: 32:2]"* %_1, metadata !755, metadata !DIExpression()), !dbg !759
  call void @llvm.dbg.declare(metadata {}* %_2, metadata !756, metadata !DIExpression()), !dbg !759
; invoke int_tests::test_sieve_of_eratosthenes::test_sieve_test_buffer::{{closure}}
  invoke void @"_ZN9int_tests26test_sieve_of_eratosthenes22test_sieve_test_buffer28_$u7b$$u7b$closure$u7d$$u7d$17h781a8330497e2859E"(%"[closure@src/test_sieve_of_eratosthenes.rs:13:1: 32:2]"* align 1 %_1)
          to label %bb1 unwind label %cleanup, !dbg !759

bb3:                                              ; preds = %cleanup
  br label %bb4, !dbg !759

cleanup:                                          ; preds = %start
  %1 = landingpad { i8*, i32 }
          cleanup
  %2 = extractvalue { i8*, i32 } %1, 0
  %3 = extractvalue { i8*, i32 } %1, 1
  %4 = getelementptr inbounds { i8*, i32 }, { i8*, i32 }* %0, i32 0, i32 0
  store i8* %2, i8** %4, align 8
  %5 = getelementptr inbounds { i8*, i32 }, { i8*, i32 }* %0, i32 0, i32 1
  store i32 %3, i32* %5, align 8
  br label %bb3

bb1:                                              ; preds = %start
  br label %bb2, !dbg !759

bb4:                                              ; preds = %bb3
  %6 = bitcast { i8*, i32 }* %0 to i8**, !dbg !759
  %7 = load i8*, i8** %6, align 8, !dbg !759
  %8 = getelementptr inbounds { i8*, i32 }, { i8*, i32 }* %0, i32 0, i32 1, !dbg !759
  %9 = load i32, i32* %8, align 8, !dbg !759
  %10 = insertvalue { i8*, i32 } undef, i8* %7, 0, !dbg !759
  %11 = insertvalue { i8*, i32 } %10, i32 %9, 1, !dbg !759
  resume { i8*, i32 } %11, !dbg !759

bb2:                                              ; preds = %bb1
  ret void, !dbg !759
}

; core::ops::function::FnOnce::call_once
; Function Attrs: inlinehint nonlazybind uwtable
define internal void @_ZN4core3ops8function6FnOnce9call_once17h9079ea74dc689425E(void ()* %_1) unnamed_addr #2 !dbg !760 {
start:
  %_1.dbg.spill = alloca void ()*, align 8
  %_2 = alloca {}, align 1
  store void ()* %_1, void ()** %_1.dbg.spill, align 8
  call void @llvm.dbg.declare(metadata void ()** %_1.dbg.spill, metadata !762, metadata !DIExpression()), !dbg !766
  call void @llvm.dbg.declare(metadata {}* %_2, metadata !763, metadata !DIExpression()), !dbg !766
  call void %_1(), !dbg !766
  br label %bb1, !dbg !766

bb1:                                              ; preds = %start
  ret void, !dbg !766
}

; core::ops::function::FnOnce::call_once
; Function Attrs: inlinehint nonlazybind uwtable
define internal void @_ZN4core3ops8function6FnOnce9call_once17ha47a3b0d86e074ebE() unnamed_addr #2 personality i32 (i32, i32, i64, %"unwind::libunwind::_Unwind_Exception"*, %"unwind::libunwind::_Unwind_Context"*)* @rust_eh_personality !dbg !767 {
start:
  %0 = alloca { i8*, i32 }, align 8
  %_2 = alloca {}, align 1
  %_1 = alloca %"[closure@src/test_ints.rs:15:1: 27:2]", align 1
  call void @llvm.dbg.declare(metadata %"[closure@src/test_ints.rs:15:1: 27:2]"* %_1, metadata !773, metadata !DIExpression()), !dbg !777
  call void @llvm.dbg.declare(metadata {}* %_2, metadata !774, metadata !DIExpression()), !dbg !777
; invoke int_tests::test_ints::test_size_t_buffer::{{closure}}
  invoke void @"_ZN9int_tests9test_ints18test_size_t_buffer28_$u7b$$u7b$closure$u7d$$u7d$17h4e15b05dfb6764e0E"(%"[closure@src/test_ints.rs:15:1: 27:2]"* align 1 %_1)
          to label %bb1 unwind label %cleanup, !dbg !777

bb3:                                              ; preds = %cleanup
  br label %bb4, !dbg !777

cleanup:                                          ; preds = %start
  %1 = landingpad { i8*, i32 }
          cleanup
  %2 = extractvalue { i8*, i32 } %1, 0
  %3 = extractvalue { i8*, i32 } %1, 1
  %4 = getelementptr inbounds { i8*, i32 }, { i8*, i32 }* %0, i32 0, i32 0
  store i8* %2, i8** %4, align 8
  %5 = getelementptr inbounds { i8*, i32 }, { i8*, i32 }* %0, i32 0, i32 1
  store i32 %3, i32* %5, align 8
  br label %bb3

bb1:                                              ; preds = %start
  br label %bb2, !dbg !777

bb4:                                              ; preds = %bb3
  %6 = bitcast { i8*, i32 }* %0 to i8**, !dbg !777
  %7 = load i8*, i8** %6, align 8, !dbg !777
  %8 = getelementptr inbounds { i8*, i32 }, { i8*, i32 }* %0, i32 0, i32 1, !dbg !777
  %9 = load i32, i32* %8, align 8, !dbg !777
  %10 = insertvalue { i8*, i32 } undef, i8* %7, 0, !dbg !777
  %11 = insertvalue { i8*, i32 } %10, i32 %9, 1, !dbg !777
  resume { i8*, i32 } %11, !dbg !777

bb2:                                              ; preds = %bb1
  ret void, !dbg !777
}

; core::ops::function::FnOnce::call_once
; Function Attrs: inlinehint nonlazybind uwtable
define internal void @_ZN4core3ops8function6FnOnce9call_once17ha53fc999d1173346E() unnamed_addr #2 personality i32 (i32, i32, i64, %"unwind::libunwind::_Unwind_Exception"*, %"unwind::libunwind::_Unwind_Context"*)* @rust_eh_personality !dbg !778 {
start:
  %0 = alloca { i8*, i32 }, align 8
  %_2 = alloca {}, align 1
  %_1 = alloca %"[closure@src/test_const.rs:12:1: 24:2]", align 1
  call void @llvm.dbg.declare(metadata %"[closure@src/test_const.rs:12:1: 24:2]"* %_1, metadata !785, metadata !DIExpression()), !dbg !789
  call void @llvm.dbg.declare(metadata {}* %_2, metadata !786, metadata !DIExpression()), !dbg !789
; invoke int_tests::test_const::test_const::{{closure}}
  invoke void @"_ZN9int_tests10test_const10test_const28_$u7b$$u7b$closure$u7d$$u7d$17hb21e4a816cc4dde5E"(%"[closure@src/test_const.rs:12:1: 24:2]"* align 1 %_1)
          to label %bb1 unwind label %cleanup, !dbg !789

bb3:                                              ; preds = %cleanup
  br label %bb4, !dbg !789

cleanup:                                          ; preds = %start
  %1 = landingpad { i8*, i32 }
          cleanup
  %2 = extractvalue { i8*, i32 } %1, 0
  %3 = extractvalue { i8*, i32 } %1, 1
  %4 = getelementptr inbounds { i8*, i32 }, { i8*, i32 }* %0, i32 0, i32 0
  store i8* %2, i8** %4, align 8
  %5 = getelementptr inbounds { i8*, i32 }, { i8*, i32 }* %0, i32 0, i32 1
  store i32 %3, i32* %5, align 8
  br label %bb3

bb1:                                              ; preds = %start
  br label %bb2, !dbg !789

bb4:                                              ; preds = %bb3
  %6 = bitcast { i8*, i32 }* %0 to i8**, !dbg !789
  %7 = load i8*, i8** %6, align 8, !dbg !789
  %8 = getelementptr inbounds { i8*, i32 }, { i8*, i32 }* %0, i32 0, i32 1, !dbg !789
  %9 = load i32, i32* %8, align 8, !dbg !789
  %10 = insertvalue { i8*, i32 } undef, i8* %7, 0, !dbg !789
  %11 = insertvalue { i8*, i32 } %10, i32 %9, 1, !dbg !789
  resume { i8*, i32 } %11, !dbg !789

bb2:                                              ; preds = %bb1
  ret void, !dbg !789
}

; core::ops::function::FnOnce::call_once
; Function Attrs: inlinehint nonlazybind uwtable
define internal i32 @_ZN4core3ops8function6FnOnce9call_once17hd920c8b889d31488E(i64* %0) unnamed_addr #2 personality i32 (i32, i32, i64, %"unwind::libunwind::_Unwind_Exception"*, %"unwind::libunwind::_Unwind_Context"*)* @rust_eh_personality !dbg !790 {
start:
  %1 = alloca { i8*, i32 }, align 8
  %_2 = alloca {}, align 1
  %_1 = alloca i64*, align 8
  store i64* %0, i64** %_1, align 8
  call void @llvm.dbg.declare(metadata i64** %_1, metadata !794, metadata !DIExpression()), !dbg !796
  call void @llvm.dbg.declare(metadata {}* %_2, metadata !795, metadata !DIExpression()), !dbg !796
; invoke std::rt::lang_start::{{closure}}
  %2 = invoke i32 @"_ZN3std2rt10lang_start28_$u7b$$u7b$closure$u7d$$u7d$17h12d0d995ecf3235aE"(i64** align 8 %_1)
          to label %bb1 unwind label %cleanup, !dbg !796

bb3:                                              ; preds = %cleanup
  br label %bb4, !dbg !796

cleanup:                                          ; preds = %start
  %3 = landingpad { i8*, i32 }
          cleanup
  %4 = extractvalue { i8*, i32 } %3, 0
  %5 = extractvalue { i8*, i32 } %3, 1
  %6 = getelementptr inbounds { i8*, i32 }, { i8*, i32 }* %1, i32 0, i32 0
  store i8* %4, i8** %6, align 8
  %7 = getelementptr inbounds { i8*, i32 }, { i8*, i32 }* %1, i32 0, i32 1
  store i32 %5, i32* %7, align 8
  br label %bb3

bb1:                                              ; preds = %start
  br label %bb2, !dbg !796

bb4:                                              ; preds = %bb3
  %8 = bitcast { i8*, i32 }* %1 to i8**, !dbg !796
  %9 = load i8*, i8** %8, align 8, !dbg !796
  %10 = getelementptr inbounds { i8*, i32 }, { i8*, i32 }* %1, i32 0, i32 1, !dbg !796
  %11 = load i32, i32* %10, align 8, !dbg !796
  %12 = insertvalue { i8*, i32 } undef, i8* %9, 0, !dbg !796
  %13 = insertvalue { i8*, i32 } %12, i32 %11, 1, !dbg !796
  resume { i8*, i32 } %13, !dbg !796

bb2:                                              ; preds = %bb1
  ret i32 %2, !dbg !796
}

; core::ptr::read_volatile
; Function Attrs: inlinehint nonlazybind uwtable
define internal i32 @_ZN4core3ptr13read_volatile17hbc8e1f6ec159c385E(i32* %src) unnamed_addr #2 !dbg !797 {
start:
  %0 = alloca i32, align 4
  %src.dbg.spill = alloca i32*, align 8
  store i32* %src, i32** %src.dbg.spill, align 8
  call void @llvm.dbg.declare(metadata i32** %src.dbg.spill, metadata !801, metadata !DIExpression()), !dbg !811
  %1 = load volatile i32, i32* %src, align 4, !dbg !812
  store i32 %1, i32* %0, align 4, !dbg !812
  %2 = load i32, i32* %0, align 4, !dbg !812
  br label %bb1, !dbg !812

bb1:                                              ; preds = %start
  ret i32 %2, !dbg !813
}

; core::ptr::read_volatile
; Function Attrs: inlinehint nonlazybind uwtable
define internal i8 @_ZN4core3ptr13read_volatile17hc175abf34ec46a96E(i8* %src) unnamed_addr #2 !dbg !814 {
start:
  %0 = alloca i8, align 1
  %src.dbg.spill = alloca i8*, align 8
  store i8* %src, i8** %src.dbg.spill, align 8
  call void @llvm.dbg.declare(metadata i8** %src.dbg.spill, metadata !818, metadata !DIExpression()), !dbg !828
  %1 = load volatile i8, i8* %src, align 1, !dbg !829
  store i8 %1, i8* %0, align 1, !dbg !829
  %2 = load i8, i8* %0, align 1, !dbg !829
  br label %bb1, !dbg !829

bb1:                                              ; preds = %start
  ret i8 %2, !dbg !830
}

; core::ptr::read_volatile
; Function Attrs: inlinehint nonlazybind uwtable
define internal i8 @_ZN4core3ptr13read_volatile17heb8183a6997daa8aE(i8* %src) unnamed_addr #2 !dbg !831 {
start:
  %0 = alloca i8, align 1
  %src.dbg.spill = alloca i8*, align 8
  store i8* %src, i8** %src.dbg.spill, align 8
  call void @llvm.dbg.declare(metadata i8** %src.dbg.spill, metadata !837, metadata !DIExpression()), !dbg !847
  %1 = load volatile i8, i8* %src, align 1, !dbg !848
  store i8 %1, i8* %0, align 1, !dbg !848
  %2 = load i8, i8* %0, align 1, !dbg !848
  br label %bb1, !dbg !848

bb1:                                              ; preds = %start
  ret i8 %2, !dbg !849
}

; core::ptr::write_volatile
; Function Attrs: inlinehint nonlazybind uwtable
define internal void @_ZN4core3ptr14write_volatile17h8813a3ae7e4a9b79E(i32* %dst, i32 %src) unnamed_addr #2 !dbg !850 {
start:
  %src.dbg.spill = alloca i32, align 4
  %dst.dbg.spill = alloca i32*, align 8
  store i32* %dst, i32** %dst.dbg.spill, align 8
  call void @llvm.dbg.declare(metadata i32** %dst.dbg.spill, metadata !855, metadata !DIExpression()), !dbg !865
  store i32 %src, i32* %src.dbg.spill, align 4
  call void @llvm.dbg.declare(metadata i32* %src.dbg.spill, metadata !856, metadata !DIExpression()), !dbg !866
  store volatile i32 %src, i32* %dst, align 4, !dbg !867
  br label %bb1, !dbg !867

bb1:                                              ; preds = %start
  ret void, !dbg !868
}

; core::ptr::write_volatile
; Function Attrs: inlinehint nonlazybind uwtable
define internal void @_ZN4core3ptr14write_volatile17hcc914a6832a1188eE(i8* %dst, i8 %src) unnamed_addr #2 !dbg !869 {
start:
  %src.dbg.spill = alloca i8, align 1
  %dst.dbg.spill = alloca i8*, align 8
  store i8* %dst, i8** %dst.dbg.spill, align 8
  call void @llvm.dbg.declare(metadata i8** %dst.dbg.spill, metadata !874, metadata !DIExpression()), !dbg !883
  store i8 %src, i8* %src.dbg.spill, align 1
  call void @llvm.dbg.declare(metadata i8* %src.dbg.spill, metadata !875, metadata !DIExpression()), !dbg !884
  store volatile i8 %src, i8* %dst, align 1, !dbg !885
  br label %bb1, !dbg !885

bb1:                                              ; preds = %start
  ret void, !dbg !886
}

; core::ptr::write_volatile
; Function Attrs: inlinehint nonlazybind uwtable
define internal void @_ZN4core3ptr14write_volatile17hf1bd68ce71c0fe5fE(i8* %dst, i8 %src) unnamed_addr #2 !dbg !887 {
start:
  %src.dbg.spill = alloca i8, align 1
  %dst.dbg.spill = alloca i8*, align 8
  store i8* %dst, i8** %dst.dbg.spill, align 8
  call void @llvm.dbg.declare(metadata i8** %dst.dbg.spill, metadata !892, metadata !DIExpression()), !dbg !901
  store i8 %src, i8* %src.dbg.spill, align 1
  call void @llvm.dbg.declare(metadata i8* %src.dbg.spill, metadata !893, metadata !DIExpression()), !dbg !902
  store volatile i8 %src, i8* %dst, align 1, !dbg !903
  br label %bb1, !dbg !903

bb1:                                              ; preds = %start
  ret void, !dbg !904
}

; core::ptr::drop_in_place<&i32>
; Function Attrs: inlinehint nonlazybind uwtable
define internal void @"_ZN4core3ptr28drop_in_place$LT$$RF$i32$GT$17h0a813c5725458d5dE"(i32** %_1) unnamed_addr #2 !dbg !905 {
start:
  %_1.dbg.spill = alloca i32**, align 8
  store i32** %_1, i32*** %_1.dbg.spill, align 8
  call void @llvm.dbg.declare(metadata i32*** %_1.dbg.spill, metadata !910, metadata !DIExpression()), !dbg !911
  ret void, !dbg !911
}

; core::ptr::drop_in_place<&[i32; 2]>
; Function Attrs: inlinehint nonlazybind uwtable
define internal void @"_ZN4core3ptr49drop_in_place$LT$$RF$$u5b$i32$u3b$$u20$2$u5d$$GT$17ha33d3db813a01d9bE"([2 x i32]** %_1) unnamed_addr #2 !dbg !912 {
start:
  %_1.dbg.spill = alloca [2 x i32]**, align 8
  store [2 x i32]** %_1, [2 x i32]*** %_1.dbg.spill, align 8
  call void @llvm.dbg.declare(metadata [2 x i32]*** %_1.dbg.spill, metadata !917, metadata !DIExpression()), !dbg !920
  ret void, !dbg !920
}

; core::ptr::drop_in_place<&[i32; 9]>
; Function Attrs: inlinehint nonlazybind uwtable
define internal void @"_ZN4core3ptr49drop_in_place$LT$$RF$$u5b$i32$u3b$$u20$9$u5d$$GT$17h40b9d21c1cc7bc79E"([9 x i32]** %_1) unnamed_addr #2 !dbg !921 {
start:
  %_1.dbg.spill = alloca [9 x i32]**, align 8
  store [9 x i32]** %_1, [9 x i32]*** %_1.dbg.spill, align 8
  call void @llvm.dbg.declare(metadata [9 x i32]*** %_1.dbg.spill, metadata !926, metadata !DIExpression()), !dbg !929
  ret void, !dbg !929
}

; core::ptr::drop_in_place<&[i32; 10]>
; Function Attrs: inlinehint nonlazybind uwtable
define internal void @"_ZN4core3ptr50drop_in_place$LT$$RF$$u5b$i32$u3b$$u20$10$u5d$$GT$17h96b93d7077f5230dE"([10 x i32]** %_1) unnamed_addr #2 !dbg !930 {
start:
  %_1.dbg.spill = alloca [10 x i32]**, align 8
  store [10 x i32]** %_1, [10 x i32]*** %_1.dbg.spill, align 8
  call void @llvm.dbg.declare(metadata [10 x i32]*** %_1.dbg.spill, metadata !935, metadata !DIExpression()), !dbg !938
  ret void, !dbg !938
}

; core::ptr::drop_in_place<&[i32; 13]>
; Function Attrs: inlinehint nonlazybind uwtable
define internal void @"_ZN4core3ptr50drop_in_place$LT$$RF$$u5b$i32$u3b$$u20$13$u5d$$GT$17h025bac5c7034e2eeE"([13 x i32]** %_1) unnamed_addr #2 !dbg !939 {
start:
  %_1.dbg.spill = alloca [13 x i32]**, align 8
  store [13 x i32]** %_1, [13 x i32]*** %_1.dbg.spill, align 8
  call void @llvm.dbg.declare(metadata [13 x i32]*** %_1.dbg.spill, metadata !944, metadata !DIExpression()), !dbg !947
  ret void, !dbg !947
}

; core::ptr::drop_in_place<std::rt::lang_start<()>::{{closure}}>
; Function Attrs: inlinehint nonlazybind uwtable
define internal void @"_ZN4core3ptr85drop_in_place$LT$std..rt..lang_start$LT$$LP$$RP$$GT$..$u7b$$u7b$closure$u7d$$u7d$$GT$17ha3700a3386ade2eeE"(i64** %_1) unnamed_addr #2 !dbg !948 {
start:
  %_1.dbg.spill = alloca i64**, align 8
  store i64** %_1, i64*** %_1.dbg.spill, align 8
  call void @llvm.dbg.declare(metadata i64*** %_1.dbg.spill, metadata !952, metadata !DIExpression()), !dbg !955
  ret void, !dbg !955
}

; core::iter::range::<impl core::iter::traits::iterator::Iterator for core::ops::range::Range<A>>::next
; Function Attrs: inlinehint nonlazybind uwtable
define internal { i64, i64 } @"_ZN4core4iter5range101_$LT$impl$u20$core..iter..traits..iterator..Iterator$u20$for$u20$core..ops..range..Range$LT$A$GT$$GT$4next17h421e301748a44ee7E"({ i64, i64 }* align 8 %self) unnamed_addr #2 !dbg !956 {
start:
  %self.dbg.spill = alloca { i64, i64 }*, align 8
  store { i64, i64 }* %self, { i64, i64 }** %self.dbg.spill, align 8
  call void @llvm.dbg.declare(metadata { i64, i64 }** %self.dbg.spill, metadata !969, metadata !DIExpression()), !dbg !972
; call <core::ops::range::Range<T> as core::iter::range::RangeIteratorImpl>::spec_next
  %0 = call { i64, i64 } @"_ZN89_$LT$core..ops..range..Range$LT$T$GT$$u20$as$u20$core..iter..range..RangeIteratorImpl$GT$9spec_next17h3d2f4c33804ca7f4E"({ i64, i64 }* align 8 %self), !dbg !973
  %1 = extractvalue { i64, i64 } %0, 0, !dbg !973
  %2 = extractvalue { i64, i64 } %0, 1, !dbg !973
  br label %bb1, !dbg !973

bb1:                                              ; preds = %start
  %3 = insertvalue { i64, i64 } undef, i64 %1, 0, !dbg !974
  %4 = insertvalue { i64, i64 } %3, i64 %2, 1, !dbg !974
  ret { i64, i64 } %4, !dbg !974
}

; core::array::<impl core::fmt::Debug for [T; N]>::fmt
; Function Attrs: nonlazybind uwtable
define internal zeroext i1 @"_ZN4core5array69_$LT$impl$u20$core..fmt..Debug$u20$for$u20$$u5b$T$u3b$$u20$N$u5d$$GT$3fmt17h07e8772a58f00566E"([9 x i32]* align 4 %self, %"core::fmt::Formatter"* align 8 %f) unnamed_addr #1 !dbg !975 {
start:
  %slice.dbg.spill = alloca { [0 x i32]*, i64 }, align 8
  %self.dbg.spill4 = alloca { [0 x i32]*, i64 }, align 8
  %self.dbg.spill3 = alloca [9 x i32]*, align 8
  %self.dbg.spill2 = alloca %"core::ops::range::RangeFull", align 1
  %index.dbg.spill1 = alloca %"core::ops::range::RangeFull", align 1
  %index.dbg.spill = alloca %"core::ops::range::RangeFull", align 1
  %f.dbg.spill = alloca %"core::fmt::Formatter"*, align 8
  %self.dbg.spill = alloca [9 x i32]*, align 8
  %_5 = alloca { [0 x i32]*, i64 }, align 8
  store [9 x i32]* %self, [9 x i32]** %self.dbg.spill, align 8
  call void @llvm.dbg.declare(metadata [9 x i32]** %self.dbg.spill, metadata !982, metadata !DIExpression()), !dbg !984
  store %"core::fmt::Formatter"* %f, %"core::fmt::Formatter"** %f.dbg.spill, align 8
  call void @llvm.dbg.declare(metadata %"core::fmt::Formatter"** %f.dbg.spill, metadata !983, metadata !DIExpression()), !dbg !985
  call void @llvm.dbg.declare(metadata %"core::ops::range::RangeFull"* %index.dbg.spill, metadata !986, metadata !DIExpression()), !dbg !996
  call void @llvm.dbg.declare(metadata %"core::ops::range::RangeFull"* %index.dbg.spill1, metadata !998, metadata !DIExpression()), !dbg !1008
  call void @llvm.dbg.declare(metadata %"core::ops::range::RangeFull"* %self.dbg.spill2, metadata !1010, metadata !DIExpression()), !dbg !1018
  store [9 x i32]* %self, [9 x i32]** %self.dbg.spill3, align 8, !dbg !997
  call void @llvm.dbg.declare(metadata [9 x i32]** %self.dbg.spill3, metadata !993, metadata !DIExpression()), !dbg !996
  %_11.0 = bitcast [9 x i32]* %self to [0 x i32]*, !dbg !996
  %0 = getelementptr inbounds { [0 x i32]*, i64 }, { [0 x i32]*, i64 }* %self.dbg.spill4, i32 0, i32 0, !dbg !996
  store [0 x i32]* %_11.0, [0 x i32]** %0, align 8, !dbg !996
  %1 = getelementptr inbounds { [0 x i32]*, i64 }, { [0 x i32]*, i64 }* %self.dbg.spill4, i32 0, i32 1, !dbg !996
  store i64 9, i64* %1, align 8, !dbg !996
  call void @llvm.dbg.declare(metadata { [0 x i32]*, i64 }* %self.dbg.spill4, metadata !1007, metadata !DIExpression()), !dbg !1008
  %2 = getelementptr inbounds { [0 x i32]*, i64 }, { [0 x i32]*, i64 }* %slice.dbg.spill, i32 0, i32 0, !dbg !1008
  store [0 x i32]* %_11.0, [0 x i32]** %2, align 8, !dbg !1008
  %3 = getelementptr inbounds { [0 x i32]*, i64 }, { [0 x i32]*, i64 }* %slice.dbg.spill, i32 0, i32 1, !dbg !1008
  store i64 9, i64* %3, align 8, !dbg !1008
  call void @llvm.dbg.declare(metadata { [0 x i32]*, i64 }* %slice.dbg.spill, metadata !1017, metadata !DIExpression()), !dbg !1018
  %4 = getelementptr inbounds { [0 x i32]*, i64 }, { [0 x i32]*, i64 }* %_5, i32 0, i32 0, !dbg !1020
  store [0 x i32]* %_11.0, [0 x i32]** %4, align 8, !dbg !1020
  %5 = getelementptr inbounds { [0 x i32]*, i64 }, { [0 x i32]*, i64 }* %_5, i32 0, i32 1, !dbg !1020
  store i64 9, i64* %5, align 8, !dbg !1020
; call <&T as core::fmt::Debug>::fmt
  %6 = call zeroext i1 @"_ZN42_$LT$$RF$T$u20$as$u20$core..fmt..Debug$GT$3fmt17he0062553ed296761E"({ [0 x i32]*, i64 }* align 8 %_5, %"core::fmt::Formatter"* align 8 %f), !dbg !1021
  br label %bb1, !dbg !1021

bb1:                                              ; preds = %start
  ret i1 %6, !dbg !1022
}

; core::array::<impl core::fmt::Debug for [T; N]>::fmt
; Function Attrs: nonlazybind uwtable
define internal zeroext i1 @"_ZN4core5array69_$LT$impl$u20$core..fmt..Debug$u20$for$u20$$u5b$T$u3b$$u20$N$u5d$$GT$3fmt17h5770b1c70ea1efd2E"([2 x i32]* align 4 %self, %"core::fmt::Formatter"* align 8 %f) unnamed_addr #1 !dbg !1023 {
start:
  %slice.dbg.spill = alloca { [0 x i32]*, i64 }, align 8
  %self.dbg.spill4 = alloca { [0 x i32]*, i64 }, align 8
  %self.dbg.spill3 = alloca [2 x i32]*, align 8
  %self.dbg.spill2 = alloca %"core::ops::range::RangeFull", align 1
  %index.dbg.spill1 = alloca %"core::ops::range::RangeFull", align 1
  %index.dbg.spill = alloca %"core::ops::range::RangeFull", align 1
  %f.dbg.spill = alloca %"core::fmt::Formatter"*, align 8
  %self.dbg.spill = alloca [2 x i32]*, align 8
  %_5 = alloca { [0 x i32]*, i64 }, align 8
  store [2 x i32]* %self, [2 x i32]** %self.dbg.spill, align 8
  call void @llvm.dbg.declare(metadata [2 x i32]** %self.dbg.spill, metadata !1027, metadata !DIExpression()), !dbg !1029
  store %"core::fmt::Formatter"* %f, %"core::fmt::Formatter"** %f.dbg.spill, align 8
  call void @llvm.dbg.declare(metadata %"core::fmt::Formatter"** %f.dbg.spill, metadata !1028, metadata !DIExpression()), !dbg !1030
  call void @llvm.dbg.declare(metadata %"core::ops::range::RangeFull"* %index.dbg.spill, metadata !1031, metadata !DIExpression()), !dbg !1037
  call void @llvm.dbg.declare(metadata %"core::ops::range::RangeFull"* %index.dbg.spill1, metadata !1039, metadata !DIExpression()), !dbg !1044
  call void @llvm.dbg.declare(metadata %"core::ops::range::RangeFull"* %self.dbg.spill2, metadata !1046, metadata !DIExpression()), !dbg !1051
  store [2 x i32]* %self, [2 x i32]** %self.dbg.spill3, align 8, !dbg !1038
  call void @llvm.dbg.declare(metadata [2 x i32]** %self.dbg.spill3, metadata !1036, metadata !DIExpression()), !dbg !1037
  %_11.0 = bitcast [2 x i32]* %self to [0 x i32]*, !dbg !1037
  %0 = getelementptr inbounds { [0 x i32]*, i64 }, { [0 x i32]*, i64 }* %self.dbg.spill4, i32 0, i32 0, !dbg !1037
  store [0 x i32]* %_11.0, [0 x i32]** %0, align 8, !dbg !1037
  %1 = getelementptr inbounds { [0 x i32]*, i64 }, { [0 x i32]*, i64 }* %self.dbg.spill4, i32 0, i32 1, !dbg !1037
  store i64 2, i64* %1, align 8, !dbg !1037
  call void @llvm.dbg.declare(metadata { [0 x i32]*, i64 }* %self.dbg.spill4, metadata !1043, metadata !DIExpression()), !dbg !1044
  %2 = getelementptr inbounds { [0 x i32]*, i64 }, { [0 x i32]*, i64 }* %slice.dbg.spill, i32 0, i32 0, !dbg !1044
  store [0 x i32]* %_11.0, [0 x i32]** %2, align 8, !dbg !1044
  %3 = getelementptr inbounds { [0 x i32]*, i64 }, { [0 x i32]*, i64 }* %slice.dbg.spill, i32 0, i32 1, !dbg !1044
  store i64 2, i64* %3, align 8, !dbg !1044
  call void @llvm.dbg.declare(metadata { [0 x i32]*, i64 }* %slice.dbg.spill, metadata !1050, metadata !DIExpression()), !dbg !1051
  %4 = getelementptr inbounds { [0 x i32]*, i64 }, { [0 x i32]*, i64 }* %_5, i32 0, i32 0, !dbg !1053
  store [0 x i32]* %_11.0, [0 x i32]** %4, align 8, !dbg !1053
  %5 = getelementptr inbounds { [0 x i32]*, i64 }, { [0 x i32]*, i64 }* %_5, i32 0, i32 1, !dbg !1053
  store i64 2, i64* %5, align 8, !dbg !1053
; call <&T as core::fmt::Debug>::fmt
  %6 = call zeroext i1 @"_ZN42_$LT$$RF$T$u20$as$u20$core..fmt..Debug$GT$3fmt17he0062553ed296761E"({ [0 x i32]*, i64 }* align 8 %_5, %"core::fmt::Formatter"* align 8 %f), !dbg !1054
  br label %bb1, !dbg !1054

bb1:                                              ; preds = %start
  ret i1 %6, !dbg !1055
}

; core::array::<impl core::fmt::Debug for [T; N]>::fmt
; Function Attrs: nonlazybind uwtable
define internal zeroext i1 @"_ZN4core5array69_$LT$impl$u20$core..fmt..Debug$u20$for$u20$$u5b$T$u3b$$u20$N$u5d$$GT$3fmt17hb9ffe725b3e3a158E"([10 x i32]* align 4 %self, %"core::fmt::Formatter"* align 8 %f) unnamed_addr #1 !dbg !1056 {
start:
  %slice.dbg.spill = alloca { [0 x i32]*, i64 }, align 8
  %self.dbg.spill4 = alloca { [0 x i32]*, i64 }, align 8
  %self.dbg.spill3 = alloca [10 x i32]*, align 8
  %self.dbg.spill2 = alloca %"core::ops::range::RangeFull", align 1
  %index.dbg.spill1 = alloca %"core::ops::range::RangeFull", align 1
  %index.dbg.spill = alloca %"core::ops::range::RangeFull", align 1
  %f.dbg.spill = alloca %"core::fmt::Formatter"*, align 8
  %self.dbg.spill = alloca [10 x i32]*, align 8
  %_5 = alloca { [0 x i32]*, i64 }, align 8
  store [10 x i32]* %self, [10 x i32]** %self.dbg.spill, align 8
  call void @llvm.dbg.declare(metadata [10 x i32]** %self.dbg.spill, metadata !1060, metadata !DIExpression()), !dbg !1062
  store %"core::fmt::Formatter"* %f, %"core::fmt::Formatter"** %f.dbg.spill, align 8
  call void @llvm.dbg.declare(metadata %"core::fmt::Formatter"** %f.dbg.spill, metadata !1061, metadata !DIExpression()), !dbg !1063
  call void @llvm.dbg.declare(metadata %"core::ops::range::RangeFull"* %index.dbg.spill, metadata !1064, metadata !DIExpression()), !dbg !1070
  call void @llvm.dbg.declare(metadata %"core::ops::range::RangeFull"* %index.dbg.spill1, metadata !1072, metadata !DIExpression()), !dbg !1077
  call void @llvm.dbg.declare(metadata %"core::ops::range::RangeFull"* %self.dbg.spill2, metadata !1079, metadata !DIExpression()), !dbg !1084
  store [10 x i32]* %self, [10 x i32]** %self.dbg.spill3, align 8, !dbg !1071
  call void @llvm.dbg.declare(metadata [10 x i32]** %self.dbg.spill3, metadata !1069, metadata !DIExpression()), !dbg !1070
  %_11.0 = bitcast [10 x i32]* %self to [0 x i32]*, !dbg !1070
  %0 = getelementptr inbounds { [0 x i32]*, i64 }, { [0 x i32]*, i64 }* %self.dbg.spill4, i32 0, i32 0, !dbg !1070
  store [0 x i32]* %_11.0, [0 x i32]** %0, align 8, !dbg !1070
  %1 = getelementptr inbounds { [0 x i32]*, i64 }, { [0 x i32]*, i64 }* %self.dbg.spill4, i32 0, i32 1, !dbg !1070
  store i64 10, i64* %1, align 8, !dbg !1070
  call void @llvm.dbg.declare(metadata { [0 x i32]*, i64 }* %self.dbg.spill4, metadata !1076, metadata !DIExpression()), !dbg !1077
  %2 = getelementptr inbounds { [0 x i32]*, i64 }, { [0 x i32]*, i64 }* %slice.dbg.spill, i32 0, i32 0, !dbg !1077
  store [0 x i32]* %_11.0, [0 x i32]** %2, align 8, !dbg !1077
  %3 = getelementptr inbounds { [0 x i32]*, i64 }, { [0 x i32]*, i64 }* %slice.dbg.spill, i32 0, i32 1, !dbg !1077
  store i64 10, i64* %3, align 8, !dbg !1077
  call void @llvm.dbg.declare(metadata { [0 x i32]*, i64 }* %slice.dbg.spill, metadata !1083, metadata !DIExpression()), !dbg !1084
  %4 = getelementptr inbounds { [0 x i32]*, i64 }, { [0 x i32]*, i64 }* %_5, i32 0, i32 0, !dbg !1086
  store [0 x i32]* %_11.0, [0 x i32]** %4, align 8, !dbg !1086
  %5 = getelementptr inbounds { [0 x i32]*, i64 }, { [0 x i32]*, i64 }* %_5, i32 0, i32 1, !dbg !1086
  store i64 10, i64* %5, align 8, !dbg !1086
; call <&T as core::fmt::Debug>::fmt
  %6 = call zeroext i1 @"_ZN42_$LT$$RF$T$u20$as$u20$core..fmt..Debug$GT$3fmt17he0062553ed296761E"({ [0 x i32]*, i64 }* align 8 %_5, %"core::fmt::Formatter"* align 8 %f), !dbg !1087
  br label %bb1, !dbg !1087

bb1:                                              ; preds = %start
  ret i1 %6, !dbg !1088
}

; core::array::<impl core::fmt::Debug for [T; N]>::fmt
; Function Attrs: nonlazybind uwtable
define internal zeroext i1 @"_ZN4core5array69_$LT$impl$u20$core..fmt..Debug$u20$for$u20$$u5b$T$u3b$$u20$N$u5d$$GT$3fmt17he5ea11d27dbc80b3E"([13 x i32]* align 4 %self, %"core::fmt::Formatter"* align 8 %f) unnamed_addr #1 !dbg !1089 {
start:
  %slice.dbg.spill = alloca { [0 x i32]*, i64 }, align 8
  %self.dbg.spill4 = alloca { [0 x i32]*, i64 }, align 8
  %self.dbg.spill3 = alloca [13 x i32]*, align 8
  %self.dbg.spill2 = alloca %"core::ops::range::RangeFull", align 1
  %index.dbg.spill1 = alloca %"core::ops::range::RangeFull", align 1
  %index.dbg.spill = alloca %"core::ops::range::RangeFull", align 1
  %f.dbg.spill = alloca %"core::fmt::Formatter"*, align 8
  %self.dbg.spill = alloca [13 x i32]*, align 8
  %_5 = alloca { [0 x i32]*, i64 }, align 8
  store [13 x i32]* %self, [13 x i32]** %self.dbg.spill, align 8
  call void @llvm.dbg.declare(metadata [13 x i32]** %self.dbg.spill, metadata !1093, metadata !DIExpression()), !dbg !1095
  store %"core::fmt::Formatter"* %f, %"core::fmt::Formatter"** %f.dbg.spill, align 8
  call void @llvm.dbg.declare(metadata %"core::fmt::Formatter"** %f.dbg.spill, metadata !1094, metadata !DIExpression()), !dbg !1096
  call void @llvm.dbg.declare(metadata %"core::ops::range::RangeFull"* %index.dbg.spill, metadata !1097, metadata !DIExpression()), !dbg !1103
  call void @llvm.dbg.declare(metadata %"core::ops::range::RangeFull"* %index.dbg.spill1, metadata !1105, metadata !DIExpression()), !dbg !1110
  call void @llvm.dbg.declare(metadata %"core::ops::range::RangeFull"* %self.dbg.spill2, metadata !1112, metadata !DIExpression()), !dbg !1117
  store [13 x i32]* %self, [13 x i32]** %self.dbg.spill3, align 8, !dbg !1104
  call void @llvm.dbg.declare(metadata [13 x i32]** %self.dbg.spill3, metadata !1102, metadata !DIExpression()), !dbg !1103
  %_11.0 = bitcast [13 x i32]* %self to [0 x i32]*, !dbg !1103
  %0 = getelementptr inbounds { [0 x i32]*, i64 }, { [0 x i32]*, i64 }* %self.dbg.spill4, i32 0, i32 0, !dbg !1103
  store [0 x i32]* %_11.0, [0 x i32]** %0, align 8, !dbg !1103
  %1 = getelementptr inbounds { [0 x i32]*, i64 }, { [0 x i32]*, i64 }* %self.dbg.spill4, i32 0, i32 1, !dbg !1103
  store i64 13, i64* %1, align 8, !dbg !1103
  call void @llvm.dbg.declare(metadata { [0 x i32]*, i64 }* %self.dbg.spill4, metadata !1109, metadata !DIExpression()), !dbg !1110
  %2 = getelementptr inbounds { [0 x i32]*, i64 }, { [0 x i32]*, i64 }* %slice.dbg.spill, i32 0, i32 0, !dbg !1110
  store [0 x i32]* %_11.0, [0 x i32]** %2, align 8, !dbg !1110
  %3 = getelementptr inbounds { [0 x i32]*, i64 }, { [0 x i32]*, i64 }* %slice.dbg.spill, i32 0, i32 1, !dbg !1110
  store i64 13, i64* %3, align 8, !dbg !1110
  call void @llvm.dbg.declare(metadata { [0 x i32]*, i64 }* %slice.dbg.spill, metadata !1116, metadata !DIExpression()), !dbg !1117
  %4 = getelementptr inbounds { [0 x i32]*, i64 }, { [0 x i32]*, i64 }* %_5, i32 0, i32 0, !dbg !1119
  store [0 x i32]* %_11.0, [0 x i32]** %4, align 8, !dbg !1119
  %5 = getelementptr inbounds { [0 x i32]*, i64 }, { [0 x i32]*, i64 }* %_5, i32 0, i32 1, !dbg !1119
  store i64 13, i64* %5, align 8, !dbg !1119
; call <&T as core::fmt::Debug>::fmt
  %6 = call zeroext i1 @"_ZN42_$LT$$RF$T$u20$as$u20$core..fmt..Debug$GT$3fmt17he0062553ed296761E"({ [0 x i32]*, i64 }* align 8 %_5, %"core::fmt::Formatter"* align 8 %f), !dbg !1120
  br label %bb1, !dbg !1120

bb1:                                              ; preds = %start
  ret i1 %6, !dbg !1121
}

; core::array::equality::<impl core::cmp::PartialEq<[B; N]> for [A; N]>::eq
; Function Attrs: inlinehint nonlazybind uwtable
define internal zeroext i1 @"_ZN4core5array8equality103_$LT$impl$u20$core..cmp..PartialEq$LT$$u5b$B$u3b$$u20$N$u5d$$GT$$u20$for$u20$$u5b$A$u3b$$u20$N$u5d$$GT$2eq17h0f99d7b080f32deaE"([10 x i32]* align 4 %self, [10 x i32]* align 4 %other) unnamed_addr #2 !dbg !1122 {
start:
  %other.dbg.spill = alloca [10 x i32]*, align 8
  %self.dbg.spill = alloca [10 x i32]*, align 8
  store [10 x i32]* %self, [10 x i32]** %self.dbg.spill, align 8
  call void @llvm.dbg.declare(metadata [10 x i32]** %self.dbg.spill, metadata !1129, metadata !DIExpression()), !dbg !1134
  store [10 x i32]* %other, [10 x i32]** %other.dbg.spill, align 8
  call void @llvm.dbg.declare(metadata [10 x i32]** %other.dbg.spill, metadata !1130, metadata !DIExpression()), !dbg !1135
; call <T as core::array::equality::SpecArrayEq<U,_>>::spec_eq
  %0 = call zeroext i1 @"_ZN69_$LT$T$u20$as$u20$core..array..equality..SpecArrayEq$LT$U$C$_$GT$$GT$7spec_eq17h0dafce3d240bf144E"([10 x i32]* align 4 %self, [10 x i32]* align 4 %other), !dbg !1136
  br label %bb1, !dbg !1136

bb1:                                              ; preds = %start
  ret i1 %0, !dbg !1137
}

; core::array::equality::<impl core::cmp::PartialEq<[B; N]> for [A; N]>::eq
; Function Attrs: inlinehint nonlazybind uwtable
define internal zeroext i1 @"_ZN4core5array8equality103_$LT$impl$u20$core..cmp..PartialEq$LT$$u5b$B$u3b$$u20$N$u5d$$GT$$u20$for$u20$$u5b$A$u3b$$u20$N$u5d$$GT$2eq17h337d67c01882925bE"([9 x i32]* align 4 %self, [9 x i32]* align 4 %other) unnamed_addr #2 !dbg !1138 {
start:
  %other.dbg.spill = alloca [9 x i32]*, align 8
  %self.dbg.spill = alloca [9 x i32]*, align 8
  store [9 x i32]* %self, [9 x i32]** %self.dbg.spill, align 8
  call void @llvm.dbg.declare(metadata [9 x i32]** %self.dbg.spill, metadata !1142, metadata !DIExpression()), !dbg !1144
  store [9 x i32]* %other, [9 x i32]** %other.dbg.spill, align 8
  call void @llvm.dbg.declare(metadata [9 x i32]** %other.dbg.spill, metadata !1143, metadata !DIExpression()), !dbg !1145
; call <T as core::array::equality::SpecArrayEq<U,_>>::spec_eq
  %0 = call zeroext i1 @"_ZN69_$LT$T$u20$as$u20$core..array..equality..SpecArrayEq$LT$U$C$_$GT$$GT$7spec_eq17h2ff4e01aa88879e0E"([9 x i32]* align 4 %self, [9 x i32]* align 4 %other), !dbg !1146
  br label %bb1, !dbg !1146

bb1:                                              ; preds = %start
  ret i1 %0, !dbg !1147
}

; core::array::equality::<impl core::cmp::PartialEq<[B; N]> for [A; N]>::eq
; Function Attrs: inlinehint nonlazybind uwtable
define internal zeroext i1 @"_ZN4core5array8equality103_$LT$impl$u20$core..cmp..PartialEq$LT$$u5b$B$u3b$$u20$N$u5d$$GT$$u20$for$u20$$u5b$A$u3b$$u20$N$u5d$$GT$2eq17h5c101176fd303f3cE"([2 x i32]* align 4 %self, [2 x i32]* align 4 %other) unnamed_addr #2 !dbg !1148 {
start:
  %other.dbg.spill = alloca [2 x i32]*, align 8
  %self.dbg.spill = alloca [2 x i32]*, align 8
  store [2 x i32]* %self, [2 x i32]** %self.dbg.spill, align 8
  call void @llvm.dbg.declare(metadata [2 x i32]** %self.dbg.spill, metadata !1152, metadata !DIExpression()), !dbg !1154
  store [2 x i32]* %other, [2 x i32]** %other.dbg.spill, align 8
  call void @llvm.dbg.declare(metadata [2 x i32]** %other.dbg.spill, metadata !1153, metadata !DIExpression()), !dbg !1155
; call <T as core::array::equality::SpecArrayEq<U,_>>::spec_eq
  %0 = call zeroext i1 @"_ZN69_$LT$T$u20$as$u20$core..array..equality..SpecArrayEq$LT$U$C$_$GT$$GT$7spec_eq17h2b20d90480380acfE"([2 x i32]* align 4 %self, [2 x i32]* align 4 %other), !dbg !1156
  br label %bb1, !dbg !1156

bb1:                                              ; preds = %start
  ret i1 %0, !dbg !1157
}

; core::array::equality::<impl core::cmp::PartialEq<[B; N]> for [A; N]>::eq
; Function Attrs: inlinehint nonlazybind uwtable
define internal zeroext i1 @"_ZN4core5array8equality103_$LT$impl$u20$core..cmp..PartialEq$LT$$u5b$B$u3b$$u20$N$u5d$$GT$$u20$for$u20$$u5b$A$u3b$$u20$N$u5d$$GT$2eq17hf90739c0cc45278eE"([13 x i32]* align 4 %self, [13 x i32]* align 4 %other) unnamed_addr #2 !dbg !1158 {
start:
  %other.dbg.spill = alloca [13 x i32]*, align 8
  %self.dbg.spill = alloca [13 x i32]*, align 8
  store [13 x i32]* %self, [13 x i32]** %self.dbg.spill, align 8
  call void @llvm.dbg.declare(metadata [13 x i32]** %self.dbg.spill, metadata !1162, metadata !DIExpression()), !dbg !1164
  store [13 x i32]* %other, [13 x i32]** %other.dbg.spill, align 8
  call void @llvm.dbg.declare(metadata [13 x i32]** %other.dbg.spill, metadata !1163, metadata !DIExpression()), !dbg !1165
; call <T as core::array::equality::SpecArrayEq<U,_>>::spec_eq
  %0 = call zeroext i1 @"_ZN69_$LT$T$u20$as$u20$core..array..equality..SpecArrayEq$LT$U$C$_$GT$$GT$7spec_eq17hc0f5eaf84d324339E"([13 x i32]* align 4 %self, [13 x i32]* align 4 %other), !dbg !1166
  br label %bb1, !dbg !1166

bb1:                                              ; preds = %start
  ret i1 %0, !dbg !1167
}

; core::clone::impls::<impl core::clone::Clone for usize>::clone
; Function Attrs: inlinehint nonlazybind uwtable
define internal i64 @"_ZN4core5clone5impls54_$LT$impl$u20$core..clone..Clone$u20$for$u20$usize$GT$5clone17h45c23c12c7b8466aE"(i64* align 8 %self) unnamed_addr #2 !dbg !1168 {
start:
  %self.dbg.spill = alloca i64*, align 8
  store i64* %self, i64** %self.dbg.spill, align 8
  call void @llvm.dbg.declare(metadata i64** %self.dbg.spill, metadata !1176, metadata !DIExpression()), !dbg !1177
  %0 = load i64, i64* %self, align 8, !dbg !1178
  ret i64 %0, !dbg !1179
}

; core::slice::<impl [T]>::as_mut_ptr
; Function Attrs: inlinehint nonlazybind uwtable
define internal i32* @"_ZN4core5slice29_$LT$impl$u20$$u5b$T$u5d$$GT$10as_mut_ptr17h767224ce790b03b8E"([0 x i32]* align 4 %self.0, i64 %self.1) unnamed_addr #2 !dbg !1180 {
start:
  %self.dbg.spill = alloca { [0 x i32]*, i64 }, align 8
  %0 = getelementptr inbounds { [0 x i32]*, i64 }, { [0 x i32]*, i64 }* %self.dbg.spill, i32 0, i32 0
  store [0 x i32]* %self.0, [0 x i32]** %0, align 8
  %1 = getelementptr inbounds { [0 x i32]*, i64 }, { [0 x i32]*, i64 }* %self.dbg.spill, i32 0, i32 1
  store i64 %self.1, i64* %1, align 8
  call void @llvm.dbg.declare(metadata { [0 x i32]*, i64 }* %self.dbg.spill, metadata !1188, metadata !DIExpression()), !dbg !1189
  %2 = bitcast [0 x i32]* %self.0 to i32*, !dbg !1190
  ret i32* %2, !dbg !1191
}

; core::slice::<impl [T]>::as_mut_ptr
; Function Attrs: inlinehint nonlazybind uwtable
define internal i8* @"_ZN4core5slice29_$LT$impl$u20$$u5b$T$u5d$$GT$10as_mut_ptr17hd37d38c0f9c24110E"([0 x i8]* align 1 %self.0, i64 %self.1) unnamed_addr #2 !dbg !1192 {
start:
  %self.dbg.spill = alloca { [0 x i8]*, i64 }, align 8
  %0 = getelementptr inbounds { [0 x i8]*, i64 }, { [0 x i8]*, i64 }* %self.dbg.spill, i32 0, i32 0
  store [0 x i8]* %self.0, [0 x i8]** %0, align 8
  %1 = getelementptr inbounds { [0 x i8]*, i64 }, { [0 x i8]*, i64 }* %self.dbg.spill, i32 0, i32 1
  store i64 %self.1, i64* %1, align 8
  call void @llvm.dbg.declare(metadata { [0 x i8]*, i64 }* %self.dbg.spill, metadata !1202, metadata !DIExpression()), !dbg !1205
  %2 = bitcast [0 x i8]* %self.0 to i8*, !dbg !1206
  ret i8* %2, !dbg !1207
}

; core::slice::<impl [T]>::as_mut_ptr
; Function Attrs: inlinehint nonlazybind uwtable
define internal i8* @"_ZN4core5slice29_$LT$impl$u20$$u5b$T$u5d$$GT$10as_mut_ptr17he30dd493ac2b4b98E"([0 x i8]* align 1 %self.0, i64 %self.1) unnamed_addr #2 !dbg !1208 {
start:
  %self.dbg.spill = alloca { [0 x i8]*, i64 }, align 8
  %0 = getelementptr inbounds { [0 x i8]*, i64 }, { [0 x i8]*, i64 }* %self.dbg.spill, i32 0, i32 0
  store [0 x i8]* %self.0, [0 x i8]** %0, align 8
  %1 = getelementptr inbounds { [0 x i8]*, i64 }, { [0 x i8]*, i64 }* %self.dbg.spill, i32 0, i32 1
  store i64 %self.1, i64* %1, align 8
  call void @llvm.dbg.declare(metadata { [0 x i8]*, i64 }* %self.dbg.spill, metadata !1217, metadata !DIExpression()), !dbg !1218
  %2 = bitcast [0 x i8]* %self.0 to i8*, !dbg !1219
  ret i8* %2, !dbg !1220
}

; core::slice::iter::Iter<T>::new
; Function Attrs: inlinehint nonlazybind uwtable
define internal { i32*, i32* } @"_ZN4core5slice4iter13Iter$LT$T$GT$3new17h73dd602a46d26ccfE"([0 x i32]* align 4 %slice.0, i64 %slice.1) unnamed_addr #2 !dbg !1221 {
start:
  %ptr.dbg.spill11 = alloca i32*, align 8
  %0 = alloca i8*, align 8
  %count.dbg.spill10 = alloca i64, align 8
  %self.dbg.spill9 = alloca i8*, align 8
  %count.dbg.spill8 = alloca i64, align 8
  %self.dbg.spill7 = alloca i8*, align 8
  %count.dbg.spill5 = alloca i64, align 8
  %self.dbg.spill4 = alloca i32*, align 8
  %count.dbg.spill = alloca i64, align 8
  %self.dbg.spill3 = alloca i32*, align 8
  %1 = alloca i8, align 1
  %other.dbg.spill = alloca i8*, align 8
  %data_address.dbg.spill = alloca {}*, align 8
  %2 = alloca {}*, align 8
  %self.dbg.spill2 = alloca i8*, align 8
  %self.dbg.spill1 = alloca i32*, align 8
  %ptr.dbg.spill = alloca i32*, align 8
  %self.dbg.spill = alloca { [0 x i32]*, i64 }, align 8
  %metadata.dbg.spill = alloca {}, align 1
  %slice.dbg.spill = alloca { [0 x i32]*, i64 }, align 8
  %_31 = alloca %"core::ptr::metadata::PtrComponents<u8>", align 8
  %_30 = alloca %"core::ptr::metadata::PtrRepr<u8>", align 8
  %_18 = alloca i32*, align 8
  %end = alloca i32*, align 8
  %3 = alloca { i32*, i32* }, align 8
  %4 = getelementptr inbounds { [0 x i32]*, i64 }, { [0 x i32]*, i64 }* %slice.dbg.spill, i32 0, i32 0
  store [0 x i32]* %slice.0, [0 x i32]** %4, align 8
  %5 = getelementptr inbounds { [0 x i32]*, i64 }, { [0 x i32]*, i64 }* %slice.dbg.spill, i32 0, i32 1
  store i64 %slice.1, i64* %5, align 8
  call void @llvm.dbg.declare(metadata { [0 x i32]*, i64 }* %slice.dbg.spill, metadata !1224, metadata !DIExpression()), !dbg !1229
  call void @llvm.dbg.declare(metadata i32** %end, metadata !1227, metadata !DIExpression()), !dbg !1230
  call void @llvm.dbg.declare(metadata {}* %metadata.dbg.spill, metadata !1231, metadata !DIExpression()), !dbg !1240
  %6 = getelementptr inbounds { [0 x i32]*, i64 }, { [0 x i32]*, i64 }* %self.dbg.spill, i32 0, i32 0, !dbg !1256
  store [0 x i32]* %slice.0, [0 x i32]** %6, align 8, !dbg !1256
  %7 = getelementptr inbounds { [0 x i32]*, i64 }, { [0 x i32]*, i64 }* %self.dbg.spill, i32 0, i32 1, !dbg !1256
  store i64 %slice.1, i64* %7, align 8, !dbg !1256
  call void @llvm.dbg.declare(metadata { [0 x i32]*, i64 }* %self.dbg.spill, metadata !1257, metadata !DIExpression()), !dbg !1263
  %ptr = bitcast [0 x i32]* %slice.0 to i32*, !dbg !1263
  store i32* %ptr, i32** %ptr.dbg.spill, align 8, !dbg !1263
  call void @llvm.dbg.declare(metadata i32** %ptr.dbg.spill, metadata !1225, metadata !DIExpression()), !dbg !1264
  store i32* %ptr, i32** %self.dbg.spill1, align 8, !dbg !1255
  call void @llvm.dbg.declare(metadata i32** %self.dbg.spill1, metadata !1253, metadata !DIExpression()), !dbg !1265
  %self = bitcast i32* %ptr to i8*, !dbg !1265
  store i8* %self, i8** %self.dbg.spill2, align 8, !dbg !1265
  call void @llvm.dbg.declare(metadata i8** %self.dbg.spill2, metadata !1266, metadata !DIExpression()), !dbg !1273
  %8 = bitcast {}** %2 to i64*, !dbg !1275
  store i64 0, i64* %8, align 8, !dbg !1275
  %data_address = load {}*, {}** %2, align 8, !dbg !1275
  store {}* %data_address, {}** %data_address.dbg.spill, align 8, !dbg !1275
  call void @llvm.dbg.declare(metadata {}** %data_address.dbg.spill, metadata !1239, metadata !DIExpression()), !dbg !1240
  br label %bb5, !dbg !1275

bb5:                                              ; preds = %start
  %9 = bitcast %"core::ptr::metadata::PtrComponents<u8>"* %_31 to {}**, !dbg !1240
  store {}* %data_address, {}** %9, align 8, !dbg !1240
  %10 = bitcast %"core::ptr::metadata::PtrRepr<u8>"* %_30 to %"core::ptr::metadata::PtrComponents<u8>"*, !dbg !1240
  %11 = bitcast %"core::ptr::metadata::PtrComponents<u8>"* %10 to i8*, !dbg !1240
  %12 = bitcast %"core::ptr::metadata::PtrComponents<u8>"* %_31 to i8*, !dbg !1240
  call void @llvm.memcpy.p0i8.p0i8.i64(i8* align 8 %11, i8* align 8 %12, i64 8, i1 false), !dbg !1240
  %13 = bitcast %"core::ptr::metadata::PtrRepr<u8>"* %_30 to i8**, !dbg !1240
  %other = load i8*, i8** %13, align 8, !dbg !1240
  store i8* %other, i8** %other.dbg.spill, align 8, !dbg !1240
  call void @llvm.dbg.declare(metadata i8** %other.dbg.spill, metadata !1272, metadata !DIExpression()), !dbg !1273
  %14 = icmp eq i8* %self, %other, !dbg !1273
  %15 = zext i1 %14 to i8, !dbg !1273
  store i8 %15, i8* %1, align 1, !dbg !1273
  %16 = load i8, i8* %1, align 1, !dbg !1273, !range !470, !noundef !23
  %_6 = trunc i8 %16 to i1, !dbg !1273
  br label %bb6, !dbg !1273

bb6:                                              ; preds = %bb5
  %_5 = xor i1 %_6, true, !dbg !1283
  call void @llvm.assume(i1 %_5), !dbg !1284
  br label %bb1, !dbg !1284

bb1:                                              ; preds = %bb6
  br i1 false, label %bb2, label %bb3, !dbg !1285

bb2:                                              ; preds = %bb1
  %self6 = bitcast i32* %ptr to i8*, !dbg !1286
  store i8* %self6, i8** %self.dbg.spill7, align 8, !dbg !1286
  call void @llvm.dbg.declare(metadata i8** %self.dbg.spill7, metadata !1287, metadata !DIExpression()), !dbg !1294
  store i64 %slice.1, i64* %count.dbg.spill8, align 8, !dbg !1295
  call void @llvm.dbg.declare(metadata i64* %count.dbg.spill8, metadata !1293, metadata !DIExpression()), !dbg !1294
  store i8* %self6, i8** %self.dbg.spill9, align 8, !dbg !1294
  call void @llvm.dbg.declare(metadata i8** %self.dbg.spill9, metadata !1296, metadata !DIExpression()), !dbg !1303
  store i64 %slice.1, i64* %count.dbg.spill10, align 8, !dbg !1294
  call void @llvm.dbg.declare(metadata i64* %count.dbg.spill10, metadata !1302, metadata !DIExpression()), !dbg !1303
  %17 = getelementptr i8, i8* %self6, i64 %slice.1, !dbg !1303
  store i8* %17, i8** %0, align 8, !dbg !1303
  %_10 = load i8*, i8** %0, align 8, !dbg !1303
  br label %bb7, !dbg !1303

bb3:                                              ; preds = %bb1
  store i32* %ptr, i32** %self.dbg.spill3, align 8, !dbg !1305
  call void @llvm.dbg.declare(metadata i32** %self.dbg.spill3, metadata !1306, metadata !DIExpression()), !dbg !1313
  store i64 %slice.1, i64* %count.dbg.spill, align 8, !dbg !1314
  call void @llvm.dbg.declare(metadata i64* %count.dbg.spill, metadata !1312, metadata !DIExpression()), !dbg !1313
  store i32* %ptr, i32** %self.dbg.spill4, align 8, !dbg !1313
  call void @llvm.dbg.declare(metadata i32** %self.dbg.spill4, metadata !1315, metadata !DIExpression()), !dbg !1322
  store i64 %slice.1, i64* %count.dbg.spill5, align 8, !dbg !1313
  call void @llvm.dbg.declare(metadata i64* %count.dbg.spill5, metadata !1321, metadata !DIExpression()), !dbg !1322
  %18 = getelementptr inbounds i32, i32* %ptr, i64 %slice.1, !dbg !1322
  store i32* %18, i32** %end, align 8, !dbg !1322
  br label %bb8, !dbg !1322

bb8:                                              ; preds = %bb3
  br label %bb4, !dbg !1324

bb4:                                              ; preds = %bb7, %bb8
  store i32* %ptr, i32** %ptr.dbg.spill11, align 8, !dbg !1325
  call void @llvm.dbg.declare(metadata i32** %ptr.dbg.spill11, metadata !1326, metadata !DIExpression()), !dbg !1333
  store i32* %ptr, i32** %_18, align 8, !dbg !1333
  %_21 = load i32*, i32** %end, align 8, !dbg !1335
  %19 = bitcast { i32*, i32* }* %3 to i32**, !dbg !1336
  %20 = load i32*, i32** %_18, align 8, !dbg !1336, !nonnull !23, !noundef !23
  store i32* %20, i32** %19, align 8, !dbg !1336
  %21 = getelementptr inbounds { i32*, i32* }, { i32*, i32* }* %3, i32 0, i32 1, !dbg !1336
  store i32* %_21, i32** %21, align 8, !dbg !1336
  %22 = getelementptr inbounds { i32*, i32* }, { i32*, i32* }* %3, i32 0, i32 0, !dbg !1337
  %23 = load i32*, i32** %22, align 8, !dbg !1337, !nonnull !23, !noundef !23
  %24 = getelementptr inbounds { i32*, i32* }, { i32*, i32* }* %3, i32 0, i32 1, !dbg !1337
  %25 = load i32*, i32** %24, align 8, !dbg !1337
  %26 = insertvalue { i32*, i32* } undef, i32* %23, 0, !dbg !1337
  %27 = insertvalue { i32*, i32* } %26, i32* %25, 1, !dbg !1337
  ret { i32*, i32* } %27, !dbg !1337

bb7:                                              ; preds = %bb2
  %28 = bitcast i8* %_10 to i32*, !dbg !1286
  store i32* %28, i32** %end, align 8, !dbg !1286
  br label %bb4, !dbg !1324
}

; core::panicking::assert_failed
; Function Attrs: cold noreturn nonlazybind uwtable
define internal void @_ZN4core9panicking13assert_failed17h41f999ce948f7ea4E(i8 %kind, i32* align 4 %0, i32* align 4 %1, %"core::option::Option<core::fmt::Arguments>"* %args, %"core::panic::location::Location"* align 8 %2) unnamed_addr #3 !dbg !1338 {
start:
  %kind.dbg.spill = alloca i8, align 1
  %_13 = alloca %"core::option::Option<core::fmt::Arguments>", align 8
  %right = alloca i32*, align 8
  %left = alloca i32*, align 8
  store i32* %0, i32** %left, align 8
  store i32* %1, i32** %right, align 8
  store i8 %kind, i8* %kind.dbg.spill, align 1
  call void @llvm.dbg.declare(metadata i8* %kind.dbg.spill, metadata !1356, metadata !DIExpression()), !dbg !1362
  call void @llvm.dbg.declare(metadata i32** %left, metadata !1357, metadata !DIExpression()), !dbg !1363
  call void @llvm.dbg.declare(metadata i32** %right, metadata !1358, metadata !DIExpression()), !dbg !1364
  call void @llvm.dbg.declare(metadata %"core::option::Option<core::fmt::Arguments>"* %args, metadata !1359, metadata !DIExpression()), !dbg !1365
  %_7.0 = bitcast i32** %left to {}*, !dbg !1366
  %_10.0 = bitcast i32** %right to {}*, !dbg !1367
  %3 = bitcast %"core::option::Option<core::fmt::Arguments>"* %_13 to i8*, !dbg !1368
  %4 = bitcast %"core::option::Option<core::fmt::Arguments>"* %args to i8*, !dbg !1368
  call void @llvm.memcpy.p0i8.p0i8.i64(i8* align 8 %3, i8* align 8 %4, i64 48, i1 false), !dbg !1368
; call core::panicking::assert_failed_inner
  call void @_ZN4core9panicking19assert_failed_inner17h2784388051aff910E(i8 %kind, {}* align 1 %_7.0, [3 x i64]* align 8 bitcast (<{ i8*, [16 x i8], i8* }>* @vtable.1 to [3 x i64]*), {}* align 1 %_10.0, [3 x i64]* align 8 bitcast (<{ i8*, [16 x i8], i8* }>* @vtable.1 to [3 x i64]*), %"core::option::Option<core::fmt::Arguments>"* %_13, %"core::panic::location::Location"* align 8 %2) #13, !dbg !1369
  unreachable, !dbg !1369
}

; core::panicking::assert_failed
; Function Attrs: cold noreturn nonlazybind uwtable
define internal void @_ZN4core9panicking13assert_failed17h4a2aa0583cf3a781E(i8 %kind, [9 x i32]* align 4 %0, [9 x i32]* align 4 %1, %"core::option::Option<core::fmt::Arguments>"* %args, %"core::panic::location::Location"* align 8 %2) unnamed_addr #3 !dbg !1370 {
start:
  %kind.dbg.spill = alloca i8, align 1
  %_13 = alloca %"core::option::Option<core::fmt::Arguments>", align 8
  %right = alloca [9 x i32]*, align 8
  %left = alloca [9 x i32]*, align 8
  store [9 x i32]* %0, [9 x i32]** %left, align 8
  store [9 x i32]* %1, [9 x i32]** %right, align 8
  store i8 %kind, i8* %kind.dbg.spill, align 1
  call void @llvm.dbg.declare(metadata i8* %kind.dbg.spill, metadata !1374, metadata !DIExpression()), !dbg !1380
  call void @llvm.dbg.declare(metadata [9 x i32]** %left, metadata !1375, metadata !DIExpression()), !dbg !1381
  call void @llvm.dbg.declare(metadata [9 x i32]** %right, metadata !1376, metadata !DIExpression()), !dbg !1382
  call void @llvm.dbg.declare(metadata %"core::option::Option<core::fmt::Arguments>"* %args, metadata !1377, metadata !DIExpression()), !dbg !1383
  %_7.0 = bitcast [9 x i32]** %left to {}*, !dbg !1384
  %_10.0 = bitcast [9 x i32]** %right to {}*, !dbg !1385
  %3 = bitcast %"core::option::Option<core::fmt::Arguments>"* %_13 to i8*, !dbg !1386
  %4 = bitcast %"core::option::Option<core::fmt::Arguments>"* %args to i8*, !dbg !1386
  call void @llvm.memcpy.p0i8.p0i8.i64(i8* align 8 %3, i8* align 8 %4, i64 48, i1 false), !dbg !1386
; call core::panicking::assert_failed_inner
  call void @_ZN4core9panicking19assert_failed_inner17h2784388051aff910E(i8 %kind, {}* align 1 %_7.0, [3 x i64]* align 8 bitcast (<{ i8*, [16 x i8], i8* }>* @vtable.2 to [3 x i64]*), {}* align 1 %_10.0, [3 x i64]* align 8 bitcast (<{ i8*, [16 x i8], i8* }>* @vtable.2 to [3 x i64]*), %"core::option::Option<core::fmt::Arguments>"* %_13, %"core::panic::location::Location"* align 8 %2) #13, !dbg !1387
  unreachable, !dbg !1387
}

; core::panicking::assert_failed
; Function Attrs: cold noreturn nonlazybind uwtable
define internal void @_ZN4core9panicking13assert_failed17h5b47309c8adc97caE(i8 %kind, [10 x i32]* align 4 %0, [10 x i32]* align 4 %1, %"core::option::Option<core::fmt::Arguments>"* %args, %"core::panic::location::Location"* align 8 %2) unnamed_addr #3 !dbg !1388 {
start:
  %kind.dbg.spill = alloca i8, align 1
  %_13 = alloca %"core::option::Option<core::fmt::Arguments>", align 8
  %right = alloca [10 x i32]*, align 8
  %left = alloca [10 x i32]*, align 8
  store [10 x i32]* %0, [10 x i32]** %left, align 8
  store [10 x i32]* %1, [10 x i32]** %right, align 8
  store i8 %kind, i8* %kind.dbg.spill, align 1
  call void @llvm.dbg.declare(metadata i8* %kind.dbg.spill, metadata !1392, metadata !DIExpression()), !dbg !1398
  call void @llvm.dbg.declare(metadata [10 x i32]** %left, metadata !1393, metadata !DIExpression()), !dbg !1399
  call void @llvm.dbg.declare(metadata [10 x i32]** %right, metadata !1394, metadata !DIExpression()), !dbg !1400
  call void @llvm.dbg.declare(metadata %"core::option::Option<core::fmt::Arguments>"* %args, metadata !1395, metadata !DIExpression()), !dbg !1401
  %_7.0 = bitcast [10 x i32]** %left to {}*, !dbg !1402
  %_10.0 = bitcast [10 x i32]** %right to {}*, !dbg !1403
  %3 = bitcast %"core::option::Option<core::fmt::Arguments>"* %_13 to i8*, !dbg !1404
  %4 = bitcast %"core::option::Option<core::fmt::Arguments>"* %args to i8*, !dbg !1404
  call void @llvm.memcpy.p0i8.p0i8.i64(i8* align 8 %3, i8* align 8 %4, i64 48, i1 false), !dbg !1404
; call core::panicking::assert_failed_inner
  call void @_ZN4core9panicking19assert_failed_inner17h2784388051aff910E(i8 %kind, {}* align 1 %_7.0, [3 x i64]* align 8 bitcast (<{ i8*, [16 x i8], i8* }>* @vtable.3 to [3 x i64]*), {}* align 1 %_10.0, [3 x i64]* align 8 bitcast (<{ i8*, [16 x i8], i8* }>* @vtable.3 to [3 x i64]*), %"core::option::Option<core::fmt::Arguments>"* %_13, %"core::panic::location::Location"* align 8 %2) #13, !dbg !1405
  unreachable, !dbg !1405
}

; core::panicking::assert_failed
; Function Attrs: cold noreturn nonlazybind uwtable
define internal void @_ZN4core9panicking13assert_failed17h917a5e9afb72d1c2E(i8 %kind, [13 x i32]* align 4 %0, [13 x i32]* align 4 %1, %"core::option::Option<core::fmt::Arguments>"* %args, %"core::panic::location::Location"* align 8 %2) unnamed_addr #3 !dbg !1406 {
start:
  %kind.dbg.spill = alloca i8, align 1
  %_13 = alloca %"core::option::Option<core::fmt::Arguments>", align 8
  %right = alloca [13 x i32]*, align 8
  %left = alloca [13 x i32]*, align 8
  store [13 x i32]* %0, [13 x i32]** %left, align 8
  store [13 x i32]* %1, [13 x i32]** %right, align 8
  store i8 %kind, i8* %kind.dbg.spill, align 1
  call void @llvm.dbg.declare(metadata i8* %kind.dbg.spill, metadata !1410, metadata !DIExpression()), !dbg !1416
  call void @llvm.dbg.declare(metadata [13 x i32]** %left, metadata !1411, metadata !DIExpression()), !dbg !1417
  call void @llvm.dbg.declare(metadata [13 x i32]** %right, metadata !1412, metadata !DIExpression()), !dbg !1418
  call void @llvm.dbg.declare(metadata %"core::option::Option<core::fmt::Arguments>"* %args, metadata !1413, metadata !DIExpression()), !dbg !1419
  %_7.0 = bitcast [13 x i32]** %left to {}*, !dbg !1420
  %_10.0 = bitcast [13 x i32]** %right to {}*, !dbg !1421
  %3 = bitcast %"core::option::Option<core::fmt::Arguments>"* %_13 to i8*, !dbg !1422
  %4 = bitcast %"core::option::Option<core::fmt::Arguments>"* %args to i8*, !dbg !1422
  call void @llvm.memcpy.p0i8.p0i8.i64(i8* align 8 %3, i8* align 8 %4, i64 48, i1 false), !dbg !1422
; call core::panicking::assert_failed_inner
  call void @_ZN4core9panicking19assert_failed_inner17h2784388051aff910E(i8 %kind, {}* align 1 %_7.0, [3 x i64]* align 8 bitcast (<{ i8*, [16 x i8], i8* }>* @vtable.4 to [3 x i64]*), {}* align 1 %_10.0, [3 x i64]* align 8 bitcast (<{ i8*, [16 x i8], i8* }>* @vtable.4 to [3 x i64]*), %"core::option::Option<core::fmt::Arguments>"* %_13, %"core::panic::location::Location"* align 8 %2) #13, !dbg !1423
  unreachable, !dbg !1423
}

; core::panicking::assert_failed
; Function Attrs: cold noreturn nonlazybind uwtable
define internal void @_ZN4core9panicking13assert_failed17hd8ef33cfc3652d17E(i8 %kind, [2 x i32]* align 4 %0, [2 x i32]* align 4 %1, %"core::option::Option<core::fmt::Arguments>"* %args, %"core::panic::location::Location"* align 8 %2) unnamed_addr #3 !dbg !1424 {
start:
  %kind.dbg.spill = alloca i8, align 1
  %_13 = alloca %"core::option::Option<core::fmt::Arguments>", align 8
  %right = alloca [2 x i32]*, align 8
  %left = alloca [2 x i32]*, align 8
  store [2 x i32]* %0, [2 x i32]** %left, align 8
  store [2 x i32]* %1, [2 x i32]** %right, align 8
  store i8 %kind, i8* %kind.dbg.spill, align 1
  call void @llvm.dbg.declare(metadata i8* %kind.dbg.spill, metadata !1428, metadata !DIExpression()), !dbg !1434
  call void @llvm.dbg.declare(metadata [2 x i32]** %left, metadata !1429, metadata !DIExpression()), !dbg !1435
  call void @llvm.dbg.declare(metadata [2 x i32]** %right, metadata !1430, metadata !DIExpression()), !dbg !1436
  call void @llvm.dbg.declare(metadata %"core::option::Option<core::fmt::Arguments>"* %args, metadata !1431, metadata !DIExpression()), !dbg !1437
  %_7.0 = bitcast [2 x i32]** %left to {}*, !dbg !1438
  %_10.0 = bitcast [2 x i32]** %right to {}*, !dbg !1439
  %3 = bitcast %"core::option::Option<core::fmt::Arguments>"* %_13 to i8*, !dbg !1440
  %4 = bitcast %"core::option::Option<core::fmt::Arguments>"* %args to i8*, !dbg !1440
  call void @llvm.memcpy.p0i8.p0i8.i64(i8* align 8 %3, i8* align 8 %4, i64 48, i1 false), !dbg !1440
; call core::panicking::assert_failed_inner
  call void @_ZN4core9panicking19assert_failed_inner17h2784388051aff910E(i8 %kind, {}* align 1 %_7.0, [3 x i64]* align 8 bitcast (<{ i8*, [16 x i8], i8* }>* @vtable.5 to [3 x i64]*), {}* align 1 %_10.0, [3 x i64]* align 8 bitcast (<{ i8*, [16 x i8], i8* }>* @vtable.5 to [3 x i64]*), %"core::option::Option<core::fmt::Arguments>"* %_13, %"core::panic::location::Location"* align 8 %2) #13, !dbg !1441
  unreachable, !dbg !1441
}

; test::assert_test_result
; Function Attrs: nonlazybind uwtable
define internal void @_ZN4test18assert_test_result17h648186efcf45e0dfE() unnamed_addr #1 !dbg !1442 {
start:
  %0 = alloca %"core::fmt::Opaque"*, align 8
  %1 = alloca i1 (%"core::fmt::Opaque"*, %"core::fmt::Formatter"*)*, align 8
  %f.dbg.spill = alloca i1 (i32*, %"core::fmt::Formatter"*)*, align 8
  %x.dbg.spill1 = alloca i32*, align 8
  %x.dbg.spill = alloca i32*, align 8
  %right_val.dbg.spill = alloca i32*, align 8
  %left_val.dbg.spill = alloca i32*, align 8
  %self.dbg.spill = alloca i8*, align 8
  %result.dbg.spill = alloca {}, align 1
  %_30 = alloca { i8*, i64* }, align 8
  %_29 = alloca [1 x { i8*, i64* }], align 8
  %_22 = alloca %"core::fmt::Arguments", align 8
  %_21 = alloca %"core::option::Option<core::fmt::Arguments>", align 8
  %_5 = alloca { i32*, i32* }, align 8
  %self = alloca i8, align 1
  %code = alloca i32, align 4
  call void @llvm.dbg.declare(metadata {}* %result.dbg.spill, metadata !1446, metadata !DIExpression()), !dbg !1457
  call void @llvm.dbg.declare(metadata i32* %code, metadata !1447, metadata !DIExpression()), !dbg !1458
  call void @llvm.dbg.declare(metadata i8* %self, metadata !1459, metadata !DIExpression()), !dbg !1463
; call <() as std::process::Termination>::report
  %2 = call i8 @"_ZN54_$LT$$LP$$RP$$u20$as$u20$std..process..Termination$GT$6report17h26c3cccde0afa982E"(), !dbg !1464
  store i8 %2, i8* %self, align 1, !dbg !1464
  br label %bb1, !dbg !1464

bb1:                                              ; preds = %start
  store i8* %self, i8** %self.dbg.spill, align 8, !dbg !1463
  call void @llvm.dbg.declare(metadata i8** %self.dbg.spill, metadata !1465, metadata !DIExpression()), !dbg !1469
  %_36 = load i8, i8* %self, align 1, !dbg !1469
  %3 = zext i8 %_36 to i32, !dbg !1469
  store i32 %3, i32* %code, align 4, !dbg !1469
  %4 = bitcast { i32*, i32* }* %_5 to i32**, !dbg !1471
  store i32* %code, i32** %4, align 8, !dbg !1471
  %5 = getelementptr inbounds { i32*, i32* }, { i32*, i32* }* %_5, i32 0, i32 1, !dbg !1471
  store i32* bitcast (<{ [4 x i8] }>* @alloc139 to i32*), i32** %5, align 8, !dbg !1471
  %6 = bitcast { i32*, i32* }* %_5 to i32**, !dbg !1471
  %left_val = load i32*, i32** %6, align 8, !dbg !1471, !nonnull !23, !align !268, !noundef !23
  store i32* %left_val, i32** %left_val.dbg.spill, align 8, !dbg !1471
  call void @llvm.dbg.declare(metadata i32** %left_val.dbg.spill, metadata !1449, metadata !DIExpression()), !dbg !1472
  %7 = getelementptr inbounds { i32*, i32* }, { i32*, i32* }* %_5, i32 0, i32 1, !dbg !1471
  %right_val = load i32*, i32** %7, align 8, !dbg !1471, !nonnull !23, !align !268, !noundef !23
  store i32* %right_val, i32** %right_val.dbg.spill, align 8, !dbg !1471
  call void @llvm.dbg.declare(metadata i32** %right_val.dbg.spill, metadata !1453, metadata !DIExpression()), !dbg !1472
  %_12 = load i32, i32* %left_val, align 4, !dbg !1472
  %_13 = load i32, i32* %right_val, align 4, !dbg !1472
  %_11 = icmp eq i32 %_12, %_13, !dbg !1472
  %_10 = xor i1 %_11, true, !dbg !1472
  br i1 %_10, label %bb2, label %bb4, !dbg !1472

bb4:                                              ; preds = %bb1
  ret void, !dbg !1473

bb2:                                              ; preds = %bb1
  store i32* %code, i32** %x.dbg.spill, align 8, !dbg !1474
  call void @llvm.dbg.declare(metadata i32** %x.dbg.spill, metadata !1475, metadata !DIExpression()), !dbg !1481
  store i32* %code, i32** %x.dbg.spill1, align 8, !dbg !1481
  call void @llvm.dbg.declare(metadata i32** %x.dbg.spill1, metadata !1483, metadata !DIExpression()), !dbg !1491
  store i1 (i32*, %"core::fmt::Formatter"*)* @"_ZN4core3fmt3num3imp52_$LT$impl$u20$core..fmt..Display$u20$for$u20$i32$GT$3fmt17h52a4838d0eaa2babE", i1 (i32*, %"core::fmt::Formatter"*)** %f.dbg.spill, align 8, !dbg !1481
  call void @llvm.dbg.declare(metadata i1 (i32*, %"core::fmt::Formatter"*)** %f.dbg.spill, metadata !1490, metadata !DIExpression()), !dbg !1491
  store i1 (%"core::fmt::Opaque"*, %"core::fmt::Formatter"*)* bitcast (i1 (i32*, %"core::fmt::Formatter"*)* @"_ZN4core3fmt3num3imp52_$LT$impl$u20$core..fmt..Display$u20$for$u20$i32$GT$3fmt17h52a4838d0eaa2babE" to i1 (%"core::fmt::Opaque"*, %"core::fmt::Formatter"*)*), i1 (%"core::fmt::Opaque"*, %"core::fmt::Formatter"*)** %1, align 8, !dbg !1491
  %_39 = load i1 (%"core::fmt::Opaque"*, %"core::fmt::Formatter"*)*, i1 (%"core::fmt::Opaque"*, %"core::fmt::Formatter"*)** %1, align 8, !dbg !1491, !nonnull !23, !noundef !23
  br label %bb5, !dbg !1491

bb5:                                              ; preds = %bb2
  %8 = bitcast i32* %code to %"core::fmt::Opaque"*, !dbg !1491
  store %"core::fmt::Opaque"* %8, %"core::fmt::Opaque"** %0, align 8, !dbg !1491
  %_41 = load %"core::fmt::Opaque"*, %"core::fmt::Opaque"** %0, align 8, !dbg !1491, !nonnull !23, !align !452, !noundef !23
  br label %bb6, !dbg !1491

bb6:                                              ; preds = %bb5
  %9 = bitcast { i8*, i64* }* %_30 to %"core::fmt::Opaque"**, !dbg !1491
  store %"core::fmt::Opaque"* %_41, %"core::fmt::Opaque"** %9, align 8, !dbg !1491
  %10 = getelementptr inbounds { i8*, i64* }, { i8*, i64* }* %_30, i32 0, i32 1, !dbg !1491
  %11 = bitcast i64** %10 to i1 (%"core::fmt::Opaque"*, %"core::fmt::Formatter"*)**, !dbg !1491
  store i1 (%"core::fmt::Opaque"*, %"core::fmt::Formatter"*)* %_39, i1 (%"core::fmt::Opaque"*, %"core::fmt::Formatter"*)** %11, align 8, !dbg !1491
  %12 = getelementptr inbounds { i8*, i64* }, { i8*, i64* }* %_30, i32 0, i32 0, !dbg !1474
  %13 = load i8*, i8** %12, align 8, !dbg !1474, !nonnull !23, !align !452, !noundef !23
  %14 = getelementptr inbounds { i8*, i64* }, { i8*, i64* }* %_30, i32 0, i32 1, !dbg !1474
  %15 = load i64*, i64** %14, align 8, !dbg !1474, !nonnull !23, !noundef !23
  %16 = getelementptr inbounds [1 x { i8*, i64* }], [1 x { i8*, i64* }]* %_29, i64 0, i64 0, !dbg !1474
  %17 = getelementptr inbounds { i8*, i64* }, { i8*, i64* }* %16, i32 0, i32 0, !dbg !1474
  store i8* %13, i8** %17, align 8, !dbg !1474
  %18 = getelementptr inbounds { i8*, i64* }, { i8*, i64* }* %16, i32 0, i32 1, !dbg !1474
  store i64* %15, i64** %18, align 8, !dbg !1474
  %_26.0 = bitcast [1 x { i8*, i64* }]* %_29 to [0 x { i8*, i64* }]*, !dbg !1474
; call core::fmt::Arguments::new_v1
  call void @_ZN4core3fmt9Arguments6new_v117hf636da35ec9e1d99E(%"core::fmt::Arguments"* sret(%"core::fmt::Arguments") %_22, [0 x { [0 x i8]*, i64 }]* align 8 bitcast (<{ i8*, [8 x i8], i8*, [8 x i8] }>* @alloc142 to [0 x { [0 x i8]*, i64 }]*), i64 2, [0 x { i8*, i64* }]* align 8 %_26.0, i64 1), !dbg !1474
  br label %bb3, !dbg !1474

bb3:                                              ; preds = %bb6
  %19 = bitcast %"core::option::Option<core::fmt::Arguments>"* %_21 to %"core::option::Option<core::fmt::Arguments>::Some"*, !dbg !1474
  %20 = bitcast %"core::option::Option<core::fmt::Arguments>::Some"* %19 to %"core::fmt::Arguments"*, !dbg !1474
  %21 = bitcast %"core::fmt::Arguments"* %20 to i8*, !dbg !1474
  %22 = bitcast %"core::fmt::Arguments"* %_22 to i8*, !dbg !1474
  call void @llvm.memcpy.p0i8.p0i8.i64(i8* align 8 %21, i8* align 8 %22, i64 48, i1 false), !dbg !1474
; call core::panicking::assert_failed
  call void @_ZN4core9panicking13assert_failed17h41f999ce948f7ea4E(i8 0, i32* align 4 %left_val, i32* align 4 %right_val, %"core::option::Option<core::fmt::Arguments>"* %_21, %"core::panic::location::Location"* align 8 bitcast (<{ i8*, [16 x i8] }>* @alloc366 to %"core::panic::location::Location"*)) #13, !dbg !1474
  unreachable, !dbg !1474
}

; <() as std::process::Termination>::report
; Function Attrs: inlinehint nonlazybind uwtable
define internal i8 @"_ZN54_$LT$$LP$$RP$$u20$as$u20$std..process..Termination$GT$6report17h26c3cccde0afa982E"() unnamed_addr #2 !dbg !1493 {
start:
  %self.dbg.spill = alloca {}, align 1
  call void @llvm.dbg.declare(metadata {}* %self.dbg.spill, metadata !1498, metadata !DIExpression()), !dbg !1499
  ret i8 0, !dbg !1500
}

; <I as core::iter::traits::collect::IntoIterator>::into_iter
; Function Attrs: inlinehint nonlazybind uwtable
define internal { i32*, i32* } @"_ZN63_$LT$I$u20$as$u20$core..iter..traits..collect..IntoIterator$GT$9into_iter17h58cf76c283540358E"(i32* %self.0, i32* %self.1) unnamed_addr #2 !dbg !1501 {
start:
  %self.dbg.spill = alloca { i32*, i32* }, align 8
  %0 = getelementptr inbounds { i32*, i32* }, { i32*, i32* }* %self.dbg.spill, i32 0, i32 0
  store i32* %self.0, i32** %0, align 8
  %1 = getelementptr inbounds { i32*, i32* }, { i32*, i32* }* %self.dbg.spill, i32 0, i32 1
  store i32* %self.1, i32** %1, align 8
  call void @llvm.dbg.declare(metadata { i32*, i32* }* %self.dbg.spill, metadata !1509, metadata !DIExpression()), !dbg !1511
  %2 = insertvalue { i32*, i32* } undef, i32* %self.0, 0, !dbg !1512
  %3 = insertvalue { i32*, i32* } %2, i32* %self.1, 1, !dbg !1512
  ret { i32*, i32* } %3, !dbg !1512
}

; <I as core::iter::traits::collect::IntoIterator>::into_iter
; Function Attrs: inlinehint nonlazybind uwtable
define internal { i64, i64 } @"_ZN63_$LT$I$u20$as$u20$core..iter..traits..collect..IntoIterator$GT$9into_iter17hc2aa83c550bed87cE"(i64 %self.0, i64 %self.1) unnamed_addr #2 !dbg !1513 {
start:
  %self.dbg.spill = alloca { i64, i64 }, align 8
  %0 = getelementptr inbounds { i64, i64 }, { i64, i64 }* %self.dbg.spill, i32 0, i32 0
  store i64 %self.0, i64* %0, align 8
  %1 = getelementptr inbounds { i64, i64 }, { i64, i64 }* %self.dbg.spill, i32 0, i32 1
  store i64 %self.1, i64* %1, align 8
  call void @llvm.dbg.declare(metadata { i64, i64 }* %self.dbg.spill, metadata !1517, metadata !DIExpression()), !dbg !1520
  %2 = insertvalue { i64, i64 } undef, i64 %self.0, 0, !dbg !1521
  %3 = insertvalue { i64, i64 } %2, i64 %self.1, 1, !dbg !1521
  ret { i64, i64 } %3, !dbg !1521
}

; <T as core::array::equality::SpecArrayEq<U,_>>::spec_eq
; Function Attrs: nonlazybind uwtable
define internal zeroext i1 @"_ZN69_$LT$T$u20$as$u20$core..array..equality..SpecArrayEq$LT$U$C$_$GT$$GT$7spec_eq17h0dafce3d240bf144E"([10 x i32]* align 4 %a, [10 x i32]* align 4 %b) unnamed_addr #1 !dbg !1522 {
start:
  %0 = alloca i8, align 1
  %b.dbg.spill2 = alloca [10 x i32]*, align 8
  %self.dbg.spill1 = alloca i32*, align 8
  %self.dbg.spill = alloca { [0 x i32]*, i64 }, align 8
  %b.dbg.spill = alloca [10 x i32]*, align 8
  %a.dbg.spill = alloca [10 x i32]*, align 8
  store [10 x i32]* %a, [10 x i32]** %a.dbg.spill, align 8
  call void @llvm.dbg.declare(metadata [10 x i32]** %a.dbg.spill, metadata !1525, metadata !DIExpression()), !dbg !1529
  store [10 x i32]* %b, [10 x i32]** %b.dbg.spill, align 8
  call void @llvm.dbg.declare(metadata [10 x i32]** %b.dbg.spill, metadata !1526, metadata !DIExpression()), !dbg !1530
  %self.0 = bitcast [10 x i32]* %b to [0 x i32]*, !dbg !1531
  %1 = getelementptr inbounds { [0 x i32]*, i64 }, { [0 x i32]*, i64 }* %self.dbg.spill, i32 0, i32 0, !dbg !1531
  store [0 x i32]* %self.0, [0 x i32]** %1, align 8, !dbg !1531
  %2 = getelementptr inbounds { [0 x i32]*, i64 }, { [0 x i32]*, i64 }* %self.dbg.spill, i32 0, i32 1, !dbg !1531
  store i64 10, i64* %2, align 8, !dbg !1531
  call void @llvm.dbg.declare(metadata { [0 x i32]*, i64 }* %self.dbg.spill, metadata !1532, metadata !DIExpression()), !dbg !1536
  %self = bitcast [0 x i32]* %self.0 to i32*, !dbg !1536
  store i32* %self, i32** %self.dbg.spill1, align 8, !dbg !1536
  call void @llvm.dbg.declare(metadata i32** %self.dbg.spill1, metadata !1537, metadata !DIExpression()), !dbg !1545
  %_4 = bitcast i32* %self to [10 x i32]*, !dbg !1545
  store [10 x i32]* %_4, [10 x i32]** %b.dbg.spill2, align 8, !dbg !1546
  call void @llvm.dbg.declare(metadata [10 x i32]** %b.dbg.spill2, metadata !1527, metadata !DIExpression()), !dbg !1547
  %3 = bitcast [10 x i32]* %a to i8*, !dbg !1548
  %4 = bitcast [10 x i32]* %_4 to i8*, !dbg !1548
  %5 = call i32 @memcmp(i8* %3, i8* %4, i64 40), !dbg !1548
  %6 = icmp eq i32 %5, 0, !dbg !1548
  %7 = zext i1 %6 to i8, !dbg !1548
  store i8 %7, i8* %0, align 1, !dbg !1548
  %8 = load i8, i8* %0, align 1, !dbg !1548, !range !470, !noundef !23
  %9 = trunc i8 %8 to i1, !dbg !1548
  br label %bb1, !dbg !1548

bb1:                                              ; preds = %start
  ret i1 %9, !dbg !1549
}

; <T as core::array::equality::SpecArrayEq<U,_>>::spec_eq
; Function Attrs: nonlazybind uwtable
define internal zeroext i1 @"_ZN69_$LT$T$u20$as$u20$core..array..equality..SpecArrayEq$LT$U$C$_$GT$$GT$7spec_eq17h2b20d90480380acfE"([2 x i32]* align 4 %a, [2 x i32]* align 4 %b) unnamed_addr #1 !dbg !1550 {
start:
  %0 = alloca i8, align 1
  %b.dbg.spill2 = alloca [2 x i32]*, align 8
  %self.dbg.spill1 = alloca i32*, align 8
  %self.dbg.spill = alloca { [0 x i32]*, i64 }, align 8
  %b.dbg.spill = alloca [2 x i32]*, align 8
  %a.dbg.spill = alloca [2 x i32]*, align 8
  store [2 x i32]* %a, [2 x i32]** %a.dbg.spill, align 8
  call void @llvm.dbg.declare(metadata [2 x i32]** %a.dbg.spill, metadata !1552, metadata !DIExpression()), !dbg !1556
  store [2 x i32]* %b, [2 x i32]** %b.dbg.spill, align 8
  call void @llvm.dbg.declare(metadata [2 x i32]** %b.dbg.spill, metadata !1553, metadata !DIExpression()), !dbg !1557
  %self.0 = bitcast [2 x i32]* %b to [0 x i32]*, !dbg !1558
  %1 = getelementptr inbounds { [0 x i32]*, i64 }, { [0 x i32]*, i64 }* %self.dbg.spill, i32 0, i32 0, !dbg !1558
  store [0 x i32]* %self.0, [0 x i32]** %1, align 8, !dbg !1558
  %2 = getelementptr inbounds { [0 x i32]*, i64 }, { [0 x i32]*, i64 }* %self.dbg.spill, i32 0, i32 1, !dbg !1558
  store i64 2, i64* %2, align 8, !dbg !1558
  call void @llvm.dbg.declare(metadata { [0 x i32]*, i64 }* %self.dbg.spill, metadata !1559, metadata !DIExpression()), !dbg !1563
  %self = bitcast [0 x i32]* %self.0 to i32*, !dbg !1563
  store i32* %self, i32** %self.dbg.spill1, align 8, !dbg !1563
  call void @llvm.dbg.declare(metadata i32** %self.dbg.spill1, metadata !1564, metadata !DIExpression()), !dbg !1572
  %_4 = bitcast i32* %self to [2 x i32]*, !dbg !1572
  store [2 x i32]* %_4, [2 x i32]** %b.dbg.spill2, align 8, !dbg !1573
  call void @llvm.dbg.declare(metadata [2 x i32]** %b.dbg.spill2, metadata !1554, metadata !DIExpression()), !dbg !1574
  %3 = bitcast [2 x i32]* %a to i64*, !dbg !1575
  %4 = load i64, i64* %3, align 4, !dbg !1575
  %5 = bitcast [2 x i32]* %_4 to i64*, !dbg !1575
  %6 = load i64, i64* %5, align 4, !dbg !1575
  %7 = icmp eq i64 %4, %6, !dbg !1575
  %8 = zext i1 %7 to i8, !dbg !1575
  store i8 %8, i8* %0, align 1, !dbg !1575
  %9 = load i8, i8* %0, align 1, !dbg !1575, !range !470, !noundef !23
  %10 = trunc i8 %9 to i1, !dbg !1575
  br label %bb1, !dbg !1575

bb1:                                              ; preds = %start
  ret i1 %10, !dbg !1576
}

; <T as core::array::equality::SpecArrayEq<U,_>>::spec_eq
; Function Attrs: nonlazybind uwtable
define internal zeroext i1 @"_ZN69_$LT$T$u20$as$u20$core..array..equality..SpecArrayEq$LT$U$C$_$GT$$GT$7spec_eq17h2ff4e01aa88879e0E"([9 x i32]* align 4 %a, [9 x i32]* align 4 %b) unnamed_addr #1 !dbg !1577 {
start:
  %0 = alloca i8, align 1
  %b.dbg.spill2 = alloca [9 x i32]*, align 8
  %self.dbg.spill1 = alloca i32*, align 8
  %self.dbg.spill = alloca { [0 x i32]*, i64 }, align 8
  %b.dbg.spill = alloca [9 x i32]*, align 8
  %a.dbg.spill = alloca [9 x i32]*, align 8
  store [9 x i32]* %a, [9 x i32]** %a.dbg.spill, align 8
  call void @llvm.dbg.declare(metadata [9 x i32]** %a.dbg.spill, metadata !1579, metadata !DIExpression()), !dbg !1583
  store [9 x i32]* %b, [9 x i32]** %b.dbg.spill, align 8
  call void @llvm.dbg.declare(metadata [9 x i32]** %b.dbg.spill, metadata !1580, metadata !DIExpression()), !dbg !1584
  %self.0 = bitcast [9 x i32]* %b to [0 x i32]*, !dbg !1585
  %1 = getelementptr inbounds { [0 x i32]*, i64 }, { [0 x i32]*, i64 }* %self.dbg.spill, i32 0, i32 0, !dbg !1585
  store [0 x i32]* %self.0, [0 x i32]** %1, align 8, !dbg !1585
  %2 = getelementptr inbounds { [0 x i32]*, i64 }, { [0 x i32]*, i64 }* %self.dbg.spill, i32 0, i32 1, !dbg !1585
  store i64 9, i64* %2, align 8, !dbg !1585
  call void @llvm.dbg.declare(metadata { [0 x i32]*, i64 }* %self.dbg.spill, metadata !1586, metadata !DIExpression()), !dbg !1590
  %self = bitcast [0 x i32]* %self.0 to i32*, !dbg !1590
  store i32* %self, i32** %self.dbg.spill1, align 8, !dbg !1590
  call void @llvm.dbg.declare(metadata i32** %self.dbg.spill1, metadata !1591, metadata !DIExpression()), !dbg !1599
  %_4 = bitcast i32* %self to [9 x i32]*, !dbg !1599
  store [9 x i32]* %_4, [9 x i32]** %b.dbg.spill2, align 8, !dbg !1600
  call void @llvm.dbg.declare(metadata [9 x i32]** %b.dbg.spill2, metadata !1581, metadata !DIExpression()), !dbg !1601
  %3 = bitcast [9 x i32]* %a to i8*, !dbg !1602
  %4 = bitcast [9 x i32]* %_4 to i8*, !dbg !1602
  %5 = call i32 @memcmp(i8* %3, i8* %4, i64 36), !dbg !1602
  %6 = icmp eq i32 %5, 0, !dbg !1602
  %7 = zext i1 %6 to i8, !dbg !1602
  store i8 %7, i8* %0, align 1, !dbg !1602
  %8 = load i8, i8* %0, align 1, !dbg !1602, !range !470, !noundef !23
  %9 = trunc i8 %8 to i1, !dbg !1602
  br label %bb1, !dbg !1602

bb1:                                              ; preds = %start
  ret i1 %9, !dbg !1603
}

; <T as core::array::equality::SpecArrayEq<U,_>>::spec_eq
; Function Attrs: nonlazybind uwtable
define internal zeroext i1 @"_ZN69_$LT$T$u20$as$u20$core..array..equality..SpecArrayEq$LT$U$C$_$GT$$GT$7spec_eq17hc0f5eaf84d324339E"([13 x i32]* align 4 %a, [13 x i32]* align 4 %b) unnamed_addr #1 !dbg !1604 {
start:
  %0 = alloca i8, align 1
  %b.dbg.spill2 = alloca [13 x i32]*, align 8
  %self.dbg.spill1 = alloca i32*, align 8
  %self.dbg.spill = alloca { [0 x i32]*, i64 }, align 8
  %b.dbg.spill = alloca [13 x i32]*, align 8
  %a.dbg.spill = alloca [13 x i32]*, align 8
  store [13 x i32]* %a, [13 x i32]** %a.dbg.spill, align 8
  call void @llvm.dbg.declare(metadata [13 x i32]** %a.dbg.spill, metadata !1606, metadata !DIExpression()), !dbg !1610
  store [13 x i32]* %b, [13 x i32]** %b.dbg.spill, align 8
  call void @llvm.dbg.declare(metadata [13 x i32]** %b.dbg.spill, metadata !1607, metadata !DIExpression()), !dbg !1611
  %self.0 = bitcast [13 x i32]* %b to [0 x i32]*, !dbg !1612
  %1 = getelementptr inbounds { [0 x i32]*, i64 }, { [0 x i32]*, i64 }* %self.dbg.spill, i32 0, i32 0, !dbg !1612
  store [0 x i32]* %self.0, [0 x i32]** %1, align 8, !dbg !1612
  %2 = getelementptr inbounds { [0 x i32]*, i64 }, { [0 x i32]*, i64 }* %self.dbg.spill, i32 0, i32 1, !dbg !1612
  store i64 13, i64* %2, align 8, !dbg !1612
  call void @llvm.dbg.declare(metadata { [0 x i32]*, i64 }* %self.dbg.spill, metadata !1613, metadata !DIExpression()), !dbg !1617
  %self = bitcast [0 x i32]* %self.0 to i32*, !dbg !1617
  store i32* %self, i32** %self.dbg.spill1, align 8, !dbg !1617
  call void @llvm.dbg.declare(metadata i32** %self.dbg.spill1, metadata !1618, metadata !DIExpression()), !dbg !1626
  %_4 = bitcast i32* %self to [13 x i32]*, !dbg !1626
  store [13 x i32]* %_4, [13 x i32]** %b.dbg.spill2, align 8, !dbg !1627
  call void @llvm.dbg.declare(metadata [13 x i32]** %b.dbg.spill2, metadata !1608, metadata !DIExpression()), !dbg !1628
  %3 = bitcast [13 x i32]* %a to i8*, !dbg !1629
  %4 = bitcast [13 x i32]* %_4 to i8*, !dbg !1629
  %5 = call i32 @memcmp(i8* %3, i8* %4, i64 52), !dbg !1629
  %6 = icmp eq i32 %5, 0, !dbg !1629
  %7 = zext i1 %6 to i8, !dbg !1629
  store i8 %7, i8* %0, align 1, !dbg !1629
  %8 = load i8, i8* %0, align 1, !dbg !1629, !range !470, !noundef !23
  %9 = trunc i8 %8 to i1, !dbg !1629
  br label %bb1, !dbg !1629

bb1:                                              ; preds = %start
  ret i1 %9, !dbg !1630
}

; <core::ops::range::Range<T> as core::iter::range::RangeIteratorImpl>::spec_next
; Function Attrs: inlinehint nonlazybind uwtable
define internal { i64, i64 } @"_ZN89_$LT$core..ops..range..Range$LT$T$GT$$u20$as$u20$core..iter..range..RangeIteratorImpl$GT$9spec_next17h3d2f4c33804ca7f4E"({ i64, i64 }* align 8 %self) unnamed_addr #2 !dbg !1631 {
start:
  %n.dbg.spill = alloca i64, align 8
  %self.dbg.spill = alloca { i64, i64 }*, align 8
  %0 = alloca { i64, i64 }, align 8
  store { i64, i64 }* %self, { i64, i64 }** %self.dbg.spill, align 8
  call void @llvm.dbg.declare(metadata { i64, i64 }** %self.dbg.spill, metadata !1634, metadata !DIExpression()), !dbg !1637
  %_3 = bitcast { i64, i64 }* %self to i64*, !dbg !1638
  %_4 = getelementptr inbounds { i64, i64 }, { i64, i64 }* %self, i32 0, i32 1, !dbg !1639
; call core::cmp::impls::<impl core::cmp::PartialOrd for usize>::lt
  %_2 = call zeroext i1 @"_ZN4core3cmp5impls57_$LT$impl$u20$core..cmp..PartialOrd$u20$for$u20$usize$GT$2lt17hc46e3bc62fda279bE"(i64* align 8 %_3, i64* align 8 %_4), !dbg !1638
  br label %bb1, !dbg !1638

bb1:                                              ; preds = %start
  br i1 %_2, label %bb2, label %bb6, !dbg !1638

bb6:                                              ; preds = %bb1
  %1 = bitcast { i64, i64 }* %0 to i64*, !dbg !1640
  store i64 0, i64* %1, align 8, !dbg !1640
  br label %bb7, !dbg !1641

bb2:                                              ; preds = %bb1
  %_7 = bitcast { i64, i64 }* %self to i64*, !dbg !1642
; call core::clone::impls::<impl core::clone::Clone for usize>::clone
  %_6 = call i64 @"_ZN4core5clone5impls54_$LT$impl$u20$core..clone..Clone$u20$for$u20$usize$GT$5clone17h45c23c12c7b8466aE"(i64* align 8 %_7), !dbg !1642
  br label %bb3, !dbg !1642

bb3:                                              ; preds = %bb2
; call <usize as core::iter::range::Step>::forward_unchecked
  %n = call i64 @"_ZN49_$LT$usize$u20$as$u20$core..iter..range..Step$GT$17forward_unchecked17hc79bfb2ac9b2cb5eE"(i64 %_6, i64 1), !dbg !1643
  store i64 %n, i64* %n.dbg.spill, align 8, !dbg !1643
  call void @llvm.dbg.declare(metadata i64* %n.dbg.spill, metadata !1635, metadata !DIExpression()), !dbg !1644
  br label %bb4, !dbg !1643

bb4:                                              ; preds = %bb3
  %_10 = bitcast { i64, i64 }* %self to i64*, !dbg !1645
; call core::mem::replace
  %_8 = call i64 @_ZN4core3mem7replace17he43a166baff3757aE(i64* align 8 %_10, i64 %n), !dbg !1646
  br label %bb5, !dbg !1646

bb5:                                              ; preds = %bb4
  %2 = getelementptr inbounds { i64, i64 }, { i64, i64 }* %0, i32 0, i32 1, !dbg !1647
  store i64 %_8, i64* %2, align 8, !dbg !1647
  %3 = bitcast { i64, i64 }* %0 to i64*, !dbg !1647
  store i64 1, i64* %3, align 8, !dbg !1647
  br label %bb7, !dbg !1641

bb7:                                              ; preds = %bb6, %bb5
  %4 = getelementptr inbounds { i64, i64 }, { i64, i64 }* %0, i32 0, i32 0, !dbg !1648
  %5 = load i64, i64* %4, align 8, !dbg !1648, !range !1649, !noundef !23
  %6 = getelementptr inbounds { i64, i64 }, { i64, i64 }* %0, i32 0, i32 1, !dbg !1648
  %7 = load i64, i64* %6, align 8, !dbg !1648
  %8 = insertvalue { i64, i64 } undef, i64 %5, 0, !dbg !1648
  %9 = insertvalue { i64, i64 } %8, i64 %7, 1, !dbg !1648
  ret { i64, i64 } %9, !dbg !1648
}

; <core::slice::iter::Iter<T> as core::iter::traits::iterator::Iterator>::next
; Function Attrs: inlinehint nonlazybind uwtable
define internal align 4 i32* @"_ZN91_$LT$core..slice..iter..Iter$LT$T$GT$$u20$as$u20$core..iter..traits..iterator..Iterator$GT$4next17h50a7d57f3e901952E"({ i32*, i32* }* align 8 %self) unnamed_addr #2 !dbg !1650 {
start:
  %self.dbg.spill26 = alloca i32*, align 8
  %0 = alloca i8*, align 8
  %self.dbg.spill24 = alloca i8*, align 8
  %ptr.dbg.spill = alloca i32*, align 8
  %1 = alloca i32*, align 8
  %self.dbg.spill22 = alloca i32*, align 8
  %self.dbg.spill21 = alloca i32*, align 8
  %old.dbg.spill = alloca i32*, align 8
  %self.dbg.spill19 = alloca i32*, align 8
  %self.dbg.spill17 = alloca { i32*, i32* }*, align 8
  %self.dbg.spill16 = alloca i32*, align 8
  %2 = alloca i8, align 1
  %other.dbg.spill14 = alloca i8*, align 8
  %data_address.dbg.spill12 = alloca {}*, align 8
  %3 = alloca {}*, align 8
  %self.dbg.spill10 = alloca i8*, align 8
  %self.dbg.spill8 = alloca i32*, align 8
  %4 = alloca i8, align 1
  %other.dbg.spill = alloca i8*, align 8
  %data_address.dbg.spill = alloca {}*, align 8
  %5 = alloca {}*, align 8
  %self.dbg.spill6 = alloca i8*, align 8
  %self.dbg.spill4 = alloca i32*, align 8
  %self.dbg.spill3 = alloca i32*, align 8
  %metadata.dbg.spill1 = alloca {}, align 1
  %metadata.dbg.spill = alloca {}, align 1
  %self.dbg.spill = alloca { i32*, i32* }*, align 8
  %_62 = alloca i32*, align 8
  %_47 = alloca %"core::ptr::metadata::PtrComponents<u8>", align 8
  %_46 = alloca %"core::ptr::metadata::PtrRepr<u8>", align 8
  %_30 = alloca %"core::ptr::metadata::PtrComponents<u8>", align 8
  %_29 = alloca %"core::ptr::metadata::PtrRepr<u8>", align 8
  %_19 = alloca i32*, align 8
  %6 = alloca i32*, align 8
  store { i32*, i32* }* %self, { i32*, i32* }** %self.dbg.spill, align 8
  call void @llvm.dbg.declare(metadata { i32*, i32* }** %self.dbg.spill, metadata !1668, metadata !DIExpression()), !dbg !1669
  call void @llvm.dbg.declare(metadata {}* %metadata.dbg.spill, metadata !1670, metadata !DIExpression()), !dbg !1678
  call void @llvm.dbg.declare(metadata {}* %metadata.dbg.spill1, metadata !1694, metadata !DIExpression()), !dbg !1699
  %7 = bitcast { i32*, i32* }* %self to i32**, !dbg !1693
  %self2 = load i32*, i32** %7, align 8, !dbg !1693, !nonnull !23, !noundef !23
  store i32* %self2, i32** %self.dbg.spill3, align 8, !dbg !1693
  call void @llvm.dbg.declare(metadata i32** %self.dbg.spill3, metadata !1708, metadata !DIExpression()), !dbg !1714
  store i32* %self2, i32** %self.dbg.spill4, align 8, !dbg !1714
  call void @llvm.dbg.declare(metadata i32** %self.dbg.spill4, metadata !1691, metadata !DIExpression()), !dbg !1715
  %self5 = bitcast i32* %self2 to i8*, !dbg !1715
  store i8* %self5, i8** %self.dbg.spill6, align 8, !dbg !1715
  call void @llvm.dbg.declare(metadata i8** %self.dbg.spill6, metadata !1716, metadata !DIExpression()), !dbg !1723
  %8 = bitcast {}** %5 to i64*, !dbg !1725
  store i64 0, i64* %8, align 8, !dbg !1725
  %data_address = load {}*, {}** %5, align 8, !dbg !1725
  store {}* %data_address, {}** %data_address.dbg.spill, align 8, !dbg !1725
  call void @llvm.dbg.declare(metadata {}** %data_address.dbg.spill, metadata !1677, metadata !DIExpression()), !dbg !1678
  br label %bb9, !dbg !1725

bb9:                                              ; preds = %start
  %9 = bitcast %"core::ptr::metadata::PtrComponents<u8>"* %_30 to {}**, !dbg !1678
  store {}* %data_address, {}** %9, align 8, !dbg !1678
  %10 = bitcast %"core::ptr::metadata::PtrRepr<u8>"* %_29 to %"core::ptr::metadata::PtrComponents<u8>"*, !dbg !1678
  %11 = bitcast %"core::ptr::metadata::PtrComponents<u8>"* %10 to i8*, !dbg !1678
  %12 = bitcast %"core::ptr::metadata::PtrComponents<u8>"* %_30 to i8*, !dbg !1678
  call void @llvm.memcpy.p0i8.p0i8.i64(i8* align 8 %11, i8* align 8 %12, i64 8, i1 false), !dbg !1678
  %13 = bitcast %"core::ptr::metadata::PtrRepr<u8>"* %_29 to i8**, !dbg !1678
  %other = load i8*, i8** %13, align 8, !dbg !1678
  store i8* %other, i8** %other.dbg.spill, align 8, !dbg !1678
  call void @llvm.dbg.declare(metadata i8** %other.dbg.spill, metadata !1722, metadata !DIExpression()), !dbg !1723
  %14 = icmp eq i8* %self5, %other, !dbg !1723
  %15 = zext i1 %14 to i8, !dbg !1723
  store i8 %15, i8* %4, align 1, !dbg !1723
  %16 = load i8, i8* %4, align 1, !dbg !1723, !range !470, !noundef !23
  %_4 = trunc i8 %16 to i1, !dbg !1723
  br label %bb10, !dbg !1723

bb10:                                             ; preds = %bb9
  %_3 = xor i1 %_4, true, !dbg !1733
  call void @llvm.assume(i1 %_3), !dbg !1734
  br label %bb1, !dbg !1734

bb1:                                              ; preds = %bb10
  br i1 false, label %bb4, label %bb2, !dbg !1735

bb4:                                              ; preds = %bb1
  br label %bb5, !dbg !1736

bb2:                                              ; preds = %bb1
  %17 = getelementptr inbounds { i32*, i32* }, { i32*, i32* }* %self, i32 0, i32 1, !dbg !1707
  %self7 = load i32*, i32** %17, align 8, !dbg !1707
  store i32* %self7, i32** %self.dbg.spill8, align 8, !dbg !1707
  call void @llvm.dbg.declare(metadata i32** %self.dbg.spill8, metadata !1705, metadata !DIExpression()), !dbg !1737
  %self9 = bitcast i32* %self7 to i8*, !dbg !1737
  store i8* %self9, i8** %self.dbg.spill10, align 8, !dbg !1737
  call void @llvm.dbg.declare(metadata i8** %self.dbg.spill10, metadata !1738, metadata !DIExpression()), !dbg !1743
  %18 = bitcast {}** %3 to i64*, !dbg !1745
  store i64 0, i64* %18, align 8, !dbg !1745
  %data_address11 = load {}*, {}** %3, align 8, !dbg !1745
  store {}* %data_address11, {}** %data_address.dbg.spill12, align 8, !dbg !1745
  call void @llvm.dbg.declare(metadata {}** %data_address.dbg.spill12, metadata !1698, metadata !DIExpression()), !dbg !1699
  br label %bb11, !dbg !1745

bb11:                                             ; preds = %bb2
  %19 = bitcast %"core::ptr::metadata::PtrComponents<u8>"* %_47 to {}**, !dbg !1699
  store {}* %data_address11, {}** %19, align 8, !dbg !1699
  %20 = bitcast %"core::ptr::metadata::PtrRepr<u8>"* %_46 to %"core::ptr::metadata::PtrComponents<u8>"*, !dbg !1699
  %21 = bitcast %"core::ptr::metadata::PtrComponents<u8>"* %20 to i8*, !dbg !1699
  %22 = bitcast %"core::ptr::metadata::PtrComponents<u8>"* %_47 to i8*, !dbg !1699
  call void @llvm.memcpy.p0i8.p0i8.i64(i8* align 8 %21, i8* align 8 %22, i64 8, i1 false), !dbg !1699
  %23 = bitcast %"core::ptr::metadata::PtrRepr<u8>"* %_46 to i8**, !dbg !1699
  %other13 = load i8*, i8** %23, align 8, !dbg !1699
  store i8* %other13, i8** %other.dbg.spill14, align 8, !dbg !1699
  call void @llvm.dbg.declare(metadata i8** %other.dbg.spill14, metadata !1742, metadata !DIExpression()), !dbg !1743
  %24 = icmp eq i8* %self9, %other13, !dbg !1743
  %25 = zext i1 %24 to i8, !dbg !1743
  store i8 %25, i8* %2, align 1, !dbg !1743
  %26 = load i8, i8* %2, align 1, !dbg !1743, !range !470, !noundef !23
  %_10 = trunc i8 %26 to i1, !dbg !1743
  br label %bb12, !dbg !1743

bb12:                                             ; preds = %bb11
  %_9 = xor i1 %_10, true, !dbg !1751
  call void @llvm.assume(i1 %_9), !dbg !1752
  br label %bb3, !dbg !1752

bb3:                                              ; preds = %bb12
  br label %bb5, !dbg !1736

bb5:                                              ; preds = %bb4, %bb3
  %27 = bitcast { i32*, i32* }* %self to i32**, !dbg !1753
  %self15 = load i32*, i32** %27, align 8, !dbg !1753, !nonnull !23, !noundef !23
  store i32* %self15, i32** %self.dbg.spill16, align 8, !dbg !1753
  call void @llvm.dbg.declare(metadata i32** %self.dbg.spill16, metadata !1754, metadata !DIExpression()), !dbg !1758
  %28 = getelementptr inbounds { i32*, i32* }, { i32*, i32* }* %self, i32 0, i32 1, !dbg !1753
  %_16 = load i32*, i32** %28, align 8, !dbg !1753
  %_12 = icmp eq i32* %self15, %_16, !dbg !1753
  br i1 %_12, label %bb6, label %bb7, !dbg !1753

bb7:                                              ; preds = %bb5
  store { i32*, i32* }* %self, { i32*, i32* }** %self.dbg.spill17, align 8, !dbg !1760
  call void @llvm.dbg.declare(metadata { i32*, i32* }** %self.dbg.spill17, metadata !1761, metadata !DIExpression()), !dbg !1769
  br i1 false, label %bb13, label %bb14, !dbg !1769

bb6:                                              ; preds = %bb5
  %29 = bitcast i32** %6 to {}**, !dbg !1771
  store {}* null, {}** %29, align 8, !dbg !1771
  br label %bb8, !dbg !1772

bb8:                                              ; preds = %bb15, %bb6
  %30 = load i32*, i32** %6, align 8, !dbg !1773, !align !268
  ret i32* %30, !dbg !1773

bb13:                                             ; preds = %bb7
  %31 = getelementptr inbounds { i32*, i32* }, { i32*, i32* }* %self, i32 0, i32 1, !dbg !1769
  %_56 = load i32*, i32** %31, align 8, !dbg !1769
  %self23 = bitcast i32* %_56 to i8*, !dbg !1769
  store i8* %self23, i8** %self.dbg.spill24, align 8, !dbg !1769
  call void @llvm.dbg.declare(metadata i8** %self.dbg.spill24, metadata !1774, metadata !DIExpression()), !dbg !1779
  %32 = getelementptr i8, i8* %self23, i64 -1, !dbg !1779
  store i8* %32, i8** %0, align 8, !dbg !1779
  %_54 = load i8*, i8** %0, align 8, !dbg !1779
  br label %bb16, !dbg !1779

bb14:                                             ; preds = %bb7
  %33 = bitcast { i32*, i32* }* %self to i32**, !dbg !1769
  %self18 = load i32*, i32** %33, align 8, !dbg !1769, !nonnull !23, !noundef !23
  store i32* %self18, i32** %self.dbg.spill19, align 8, !dbg !1769
  call void @llvm.dbg.declare(metadata i32** %self.dbg.spill19, metadata !1781, metadata !DIExpression()), !dbg !1785
  store i32* %self18, i32** %old.dbg.spill, align 8, !dbg !1785
  call void @llvm.dbg.declare(metadata i32** %old.dbg.spill, metadata !1767, metadata !DIExpression()), !dbg !1787
  %34 = bitcast { i32*, i32* }* %self to i32**, !dbg !1787
  %self20 = load i32*, i32** %34, align 8, !dbg !1787, !nonnull !23, !noundef !23
  store i32* %self20, i32** %self.dbg.spill21, align 8, !dbg !1787
  call void @llvm.dbg.declare(metadata i32** %self.dbg.spill21, metadata !1788, metadata !DIExpression()), !dbg !1792
  store i32* %self20, i32** %self.dbg.spill22, align 8, !dbg !1792
  call void @llvm.dbg.declare(metadata i32** %self.dbg.spill22, metadata !1794, metadata !DIExpression()), !dbg !1801
  %35 = getelementptr inbounds i32, i32* %self20, i64 1, !dbg !1801
  store i32* %35, i32** %1, align 8, !dbg !1801
  %_73 = load i32*, i32** %1, align 8, !dbg !1801
  br label %bb17, !dbg !1801

bb17:                                             ; preds = %bb14
  store i32* %_73, i32** %ptr.dbg.spill, align 8, !dbg !1801
  call void @llvm.dbg.declare(metadata i32** %ptr.dbg.spill, metadata !1802, metadata !DIExpression()), !dbg !1806
  store i32* %_73, i32** %_62, align 8, !dbg !1806
  %36 = bitcast { i32*, i32* }* %self to i32**, !dbg !1787
  %37 = load i32*, i32** %_62, align 8, !dbg !1787, !nonnull !23, !noundef !23
  store i32* %37, i32** %36, align 8, !dbg !1787
  store i32* %self18, i32** %_19, align 8, !dbg !1787
  br label %bb15, !dbg !1769

bb15:                                             ; preds = %bb16, %bb17
  %_18 = load i32*, i32** %_19, align 8, !dbg !1760
  store i32* %_18, i32** %6, align 8, !dbg !1808
  br label %bb8, !dbg !1772

bb16:                                             ; preds = %bb13
  %38 = getelementptr inbounds { i32*, i32* }, { i32*, i32* }* %self, i32 0, i32 1, !dbg !1769
  %39 = bitcast i8* %_54 to i32*, !dbg !1769
  store i32* %39, i32** %38, align 8, !dbg !1769
  %40 = bitcast { i32*, i32* }* %self to i32**, !dbg !1769
  %self25 = load i32*, i32** %40, align 8, !dbg !1769, !nonnull !23, !noundef !23
  store i32* %self25, i32** %self.dbg.spill26, align 8, !dbg !1769
  call void @llvm.dbg.declare(metadata i32** %self.dbg.spill26, metadata !1809, metadata !DIExpression()), !dbg !1813
  store i32* %self25, i32** %_19, align 8, !dbg !1769
  br label %bb15, !dbg !1769
}

; Function Attrs: nonlazybind uwtable
define dso_local i32 @rust_constant_arguments(i32 %x) unnamed_addr #1 !dbg !1815 {
start:
  %y.dbg.spill = alloca i32, align 4
  %x.dbg.spill = alloca i32, align 4
  store i32 %x, i32* %x.dbg.spill, align 4
  call void @llvm.dbg.declare(metadata i32* %x.dbg.spill, metadata !1821, metadata !DIExpression()), !dbg !1824
  %0 = call { i32, i1 } @llvm.sadd.with.overflow.i32(i32 %x, i32 2), !dbg !1825
  %_4.0 = extractvalue { i32, i1 } %0, 0, !dbg !1825
  %_4.1 = extractvalue { i32, i1 } %0, 1, !dbg !1825
  %1 = call i1 @llvm.expect.i1(i1 %_4.1, i1 false), !dbg !1825
  br i1 %1, label %panic, label %bb1, !dbg !1825

bb1:                                              ; preds = %start
  store i32 %_4.0, i32* %y.dbg.spill, align 4, !dbg !1825
  call void @llvm.dbg.declare(metadata i32* %y.dbg.spill, metadata !1822, metadata !DIExpression()), !dbg !1826
  ret i32 %_4.0, !dbg !1827

panic:                                            ; preds = %start
; call core::panicking::panic
  call void @_ZN4core9panicking5panic17hf5844c0338bd061cE([0 x i8]* align 1 bitcast ([28 x i8]* @str.6 to [0 x i8]*), i64 28, %"core::panic::location::Location"* align 8 bitcast (<{ i8*, [16 x i8] }>* @alloc368 to %"core::panic::location::Location"*)) #13, !dbg !1825
  unreachable, !dbg !1825
}

; Function Attrs: nonlazybind uwtable
define dso_local void @rust_constant_pointer(i32* %x) unnamed_addr #1 !dbg !1828 {
start:
  %x.dbg.spill = alloca i32*, align 8
  store i32* %x, i32** %x.dbg.spill, align 8
  call void @llvm.dbg.declare(metadata i32** %x.dbg.spill, metadata !1832, metadata !DIExpression()), !dbg !1833
  %0 = load i32, i32* %x, align 4, !dbg !1834
  %1 = call { i32, i1 } @llvm.sadd.with.overflow.i32(i32 %0, i32 1), !dbg !1834
  %_3.0 = extractvalue { i32, i1 } %1, 0, !dbg !1834
  %_3.1 = extractvalue { i32, i1 } %1, 1, !dbg !1834
  %2 = call i1 @llvm.expect.i1(i1 %_3.1, i1 false), !dbg !1834
  br i1 %2, label %panic, label %bb1, !dbg !1834

bb1:                                              ; preds = %start
  store i32 %_3.0, i32* %x, align 4, !dbg !1834
  ret void, !dbg !1835

panic:                                            ; preds = %start
; call core::panicking::panic
  call void @_ZN4core9panicking5panic17hf5844c0338bd061cE([0 x i8]* align 1 bitcast ([28 x i8]* @str.6 to [0 x i8]*), i64 28, %"core::panic::location::Location"* align 8 bitcast (<{ i8*, [16 x i8] }>* @alloc370 to %"core::panic::location::Location"*)) #13, !dbg !1834
  unreachable, !dbg !1834
}

; Function Attrs: nonlazybind uwtable
define dso_local i32 @rust_pointer_to_constant(i32* %x) unnamed_addr #1 !dbg !1836 {
start:
  %0 = alloca i32*, align 8
  %count.dbg.spill.i = alloca i64, align 8
  %self.dbg.spill.i = alloca i32*, align 8
  %x.dbg.spill = alloca i32*, align 8
  store i32* %x, i32** %x.dbg.spill, align 8
  call void @llvm.dbg.declare(metadata i32** %x.dbg.spill, metadata !1838, metadata !DIExpression()), !dbg !1839
  store i32* %x, i32** %self.dbg.spill.i, align 8
  call void @llvm.dbg.declare(metadata i32** %self.dbg.spill.i, metadata !1840, metadata !DIExpression()), !dbg !1844
  store i64 1, i64* %count.dbg.spill.i, align 8
  call void @llvm.dbg.declare(metadata i64* %count.dbg.spill.i, metadata !1843, metadata !DIExpression()), !dbg !1846
  %1 = getelementptr inbounds i32, i32* %x, i64 1, !dbg !1847
  store i32* %1, i32** %0, align 8, !dbg !1847
  %2 = load i32*, i32** %0, align 8, !dbg !1847
  br label %bb1, !dbg !1848

bb1:                                              ; preds = %start
  %_2 = load i32, i32* %2, align 4, !dbg !1849
  %3 = call { i32, i1 } @llvm.sadd.with.overflow.i32(i32 %_2, i32 1), !dbg !1849
  %_7.0 = extractvalue { i32, i1 } %3, 0, !dbg !1849
  %_7.1 = extractvalue { i32, i1 } %3, 1, !dbg !1849
  %4 = call i1 @llvm.expect.i1(i1 %_7.1, i1 false), !dbg !1849
  br i1 %4, label %panic, label %bb2, !dbg !1849

bb2:                                              ; preds = %bb1
  ret i32 %_7.0, !dbg !1850

panic:                                            ; preds = %bb1
; call core::panicking::panic
  call void @_ZN4core9panicking5panic17hf5844c0338bd061cE([0 x i8]* align 1 bitcast ([28 x i8]* @str.6 to [0 x i8]*), i64 28, %"core::panic::location::Location"* align 8 bitcast (<{ i8*, [16 x i8] }>* @alloc372 to %"core::panic::location::Location"*)) #13, !dbg !1849
  unreachable, !dbg !1849
}

; Function Attrs: nonlazybind uwtable
define dso_local void @rust_entry4(i32 %buffer_size, i32* %buffer) unnamed_addr #1 !dbg !1851 {
start:
  %0 = alloca i32*, align 8
  %count.dbg.spill.i4 = alloca i64, align 8
  %self.dbg.spill.i5 = alloca i32*, align 8
  %1 = alloca i32*, align 8
  %count.dbg.spill.i1 = alloca i64, align 8
  %self.dbg.spill.i2 = alloca i32*, align 8
  %2 = alloca i32*, align 8
  %count.dbg.spill.i = alloca i64, align 8
  %self.dbg.spill.i = alloca i32*, align 8
  %buffer.dbg.spill = alloca i32*, align 8
  %buffer_size.dbg.spill = alloca i32, align 4
  store i32 %buffer_size, i32* %buffer_size.dbg.spill, align 4
  call void @llvm.dbg.declare(metadata i32* %buffer_size.dbg.spill, metadata !1855, metadata !DIExpression()), !dbg !1857
  store i32* %buffer, i32** %buffer.dbg.spill, align 8
  call void @llvm.dbg.declare(metadata i32** %buffer.dbg.spill, metadata !1856, metadata !DIExpression()), !dbg !1858
  %_3 = call i32 @rust_constant_arguments(i32 1), !dbg !1859
  br label %bb1, !dbg !1859

bb1:                                              ; preds = %start
  store i32* %buffer, i32** %self.dbg.spill.i5, align 8
  call void @llvm.dbg.declare(metadata i32** %self.dbg.spill.i5, metadata !1860, metadata !DIExpression()), !dbg !1864
  store i64 0, i64* %count.dbg.spill.i4, align 8
  call void @llvm.dbg.declare(metadata i64* %count.dbg.spill.i4, metadata !1863, metadata !DIExpression()), !dbg !1866
  store i32* %buffer, i32** %0, align 8, !dbg !1867
  %_3.i6 = load i32*, i32** %0, align 8, !dbg !1867
  br label %bb2, !dbg !1868

bb2:                                              ; preds = %bb1
  store i32 %_3, i32* %_3.i6, align 4, !dbg !1869
  store i32* %buffer, i32** %self.dbg.spill.i2, align 8
  call void @llvm.dbg.declare(metadata i32** %self.dbg.spill.i2, metadata !1860, metadata !DIExpression()), !dbg !1870
  store i64 1, i64* %count.dbg.spill.i1, align 8
  call void @llvm.dbg.declare(metadata i64* %count.dbg.spill.i1, metadata !1863, metadata !DIExpression()), !dbg !1872
  %3 = getelementptr inbounds i32, i32* %buffer, i64 1, !dbg !1873
  store i32* %3, i32** %1, align 8, !dbg !1873
  %_3.i3 = load i32*, i32** %1, align 8, !dbg !1873
  br label %bb3, !dbg !1874

bb3:                                              ; preds = %bb2
  call void @rust_constant_pointer(i32* %_3.i3), !dbg !1875
  br label %bb4, !dbg !1875

bb4:                                              ; preds = %bb3
  %_14 = call i32 @rust_pointer_to_constant(i32* %buffer), !dbg !1876
  br label %bb5, !dbg !1876

bb5:                                              ; preds = %bb4
  store i32* %buffer, i32** %self.dbg.spill.i, align 8
  call void @llvm.dbg.declare(metadata i32** %self.dbg.spill.i, metadata !1860, metadata !DIExpression()), !dbg !1877
  store i64 1, i64* %count.dbg.spill.i, align 8
  call void @llvm.dbg.declare(metadata i64* %count.dbg.spill.i, metadata !1863, metadata !DIExpression()), !dbg !1879
  %4 = getelementptr inbounds i32, i32* %buffer, i64 1, !dbg !1880
  store i32* %4, i32** %2, align 8, !dbg !1880
  %_3.i = load i32*, i32** %2, align 8, !dbg !1880
  br label %bb6, !dbg !1881

bb6:                                              ; preds = %bb5
  store i32 %_14, i32* %_3.i, align 4, !dbg !1882
  ret void, !dbg !1883
}

; Function Attrs: nonlazybind uwtable
define dso_local void @rust_addr_of_const() unnamed_addr #1 !dbg !1884 {
start:
  %p3.dbg.spill = alloca i32*, align 8
  %p2.dbg.spill = alloca i32*, align 8
  %p1.dbg.spill = alloca i32*, align 8
  %i = alloca i32, align 4
  %ci = alloca i32, align 4
  call void @llvm.dbg.declare(metadata i32* %ci, metadata !1886, metadata !DIExpression()), !dbg !1896
  call void @llvm.dbg.declare(metadata i32* %i, metadata !1888, metadata !DIExpression()), !dbg !1897
  store i32 0, i32* %ci, align 4, !dbg !1898
  store i32 0, i32* %i, align 4, !dbg !1899
  store i32* %ci, i32** %p1.dbg.spill, align 8, !dbg !1900
  call void @llvm.dbg.declare(metadata i32** %p1.dbg.spill, metadata !1890, metadata !DIExpression()), !dbg !1901
  store i32* %i, i32** %p2.dbg.spill, align 8, !dbg !1902
  call void @llvm.dbg.declare(metadata i32** %p2.dbg.spill, metadata !1892, metadata !DIExpression()), !dbg !1903
  store i32* %i, i32** %p3.dbg.spill, align 8, !dbg !1904
  call void @llvm.dbg.declare(metadata i32** %p3.dbg.spill, metadata !1894, metadata !DIExpression()), !dbg !1905
  ret void, !dbg !1906
}

; Function Attrs: nonlazybind uwtable
define dso_local void @rust_entry(i32 %n, i32* %buf) unnamed_addr #1 !dbg !1907 {
start:
  %0 = alloca i32*, align 8
  %count.dbg.spill.i = alloca i64, align 8
  %self.dbg.spill.i = alloca i32*, align 8
  %z.dbg.spill = alloca i64, align 8
  %buf.dbg.spill = alloca i32*, align 8
  %n.dbg.spill = alloca i32, align 4
  store i32 %n, i32* %n.dbg.spill, align 4
  call void @llvm.dbg.declare(metadata i32* %n.dbg.spill, metadata !1911, metadata !DIExpression()), !dbg !1915
  store i32* %buf, i32** %buf.dbg.spill, align 8
  call void @llvm.dbg.declare(metadata i32** %buf.dbg.spill, metadata !1912, metadata !DIExpression()), !dbg !1916
  %_3 = icmp ult i32 %n, 10, !dbg !1917
  br i1 %_3, label %bb3, label %bb1, !dbg !1917

bb1:                                              ; preds = %start
  store i64 5, i64* %z.dbg.spill, align 8, !dbg !1918
  call void @llvm.dbg.declare(metadata i64* %z.dbg.spill, metadata !1913, metadata !DIExpression()), !dbg !1919
  store i32* %buf, i32** %self.dbg.spill.i, align 8
  call void @llvm.dbg.declare(metadata i32** %self.dbg.spill.i, metadata !1860, metadata !DIExpression()), !dbg !1920
  store i64 5, i64* %count.dbg.spill.i, align 8
  call void @llvm.dbg.declare(metadata i64* %count.dbg.spill.i, metadata !1863, metadata !DIExpression()), !dbg !1922
  %1 = getelementptr inbounds i32, i32* %buf, i64 5, !dbg !1923
  store i32* %1, i32** %0, align 8, !dbg !1923
  %_3.i = load i32*, i32** %0, align 8, !dbg !1923
  br label %bb2, !dbg !1924

bb3:                                              ; preds = %bb2, %start
  ret void, !dbg !1925

bb2:                                              ; preds = %bb1
  store i32 8, i32* %_3.i, align 4, !dbg !1926
  br label %bb3, !dbg !1925
}

; Function Attrs: nonlazybind uwtable
define dso_local void @rust_sieve_of_eratosthenes(i32* %buffer) unnamed_addr #1 !dbg !1927 {
start:
  %0 = alloca i32*, align 8
  %count.dbg.spill.i = alloca i64, align 8
  %self.dbg.spill.i = alloca i32*, align 8
  %buffer.dbg.spill = alloca i32*, align 8
  %p_0 = alloca i32, align 4
  %i = alloca i32, align 4
  %p = alloca i32, align 4
  %prime = alloca [102 x i8], align 1
  store i32* %buffer, i32** %buffer.dbg.spill, align 8
  call void @llvm.dbg.declare(metadata i32** %buffer.dbg.spill, metadata !1931, metadata !DIExpression()), !dbg !1943
  call void @llvm.dbg.declare(metadata [102 x i8]* %prime, metadata !1932, metadata !DIExpression()), !dbg !1944
  call void @llvm.dbg.declare(metadata i32* %p, metadata !1937, metadata !DIExpression()), !dbg !1945
  call void @llvm.dbg.declare(metadata i32* %i, metadata !1939, metadata !DIExpression()), !dbg !1946
  call void @llvm.dbg.declare(metadata i32* %p_0, metadata !1941, metadata !DIExpression()), !dbg !1947
  %1 = getelementptr inbounds [102 x i8], [102 x i8]* %prime, i64 0, i64 0, !dbg !1948
  call void @llvm.memset.p0i8.i64(i8* align 1 %1, i8 0, i64 102, i1 false), !dbg !1948
  %_6.0 = bitcast [102 x i8]* %prime to [0 x i8]*, !dbg !1949
; call core::slice::<impl [T]>::as_mut_ptr
  %_5 = call i8* @"_ZN4core5slice29_$LT$impl$u20$$u5b$T$u5d$$GT$10as_mut_ptr17hd37d38c0f9c24110E"([0 x i8]* align 1 %_6.0, i64 102), !dbg !1949
  br label %bb1, !dbg !1949

bb1:                                              ; preds = %start
  br label %bb2, !dbg !1950

bb2:                                              ; preds = %bb1
  %_3 = call i8* @memset(i8* %_5, i32 1, i64 102), !dbg !1951
  br label %bb3, !dbg !1951

bb3:                                              ; preds = %bb2
  store i32 2, i32* %p, align 4, !dbg !1952
  br label %bb4, !dbg !1953

bb4:                                              ; preds = %bb15, %bb3
  %_14 = load i32, i32* %p, align 4, !dbg !1954
  %_15 = load i32, i32* %p, align 4, !dbg !1955
  %2 = call { i32, i1 } @llvm.smul.with.overflow.i32(i32 %_14, i32 %_15), !dbg !1954
  %_16.0 = extractvalue { i32, i1 } %2, 0, !dbg !1954
  %_16.1 = extractvalue { i32, i1 } %2, 1, !dbg !1954
  %3 = call i1 @llvm.expect.i1(i1 %_16.1, i1 false), !dbg !1954
  br i1 %3, label %panic, label %bb5, !dbg !1954

bb5:                                              ; preds = %bb4
  %_12 = icmp sle i32 %_16.0, 101, !dbg !1954
  br i1 %_12, label %bb6, label %bb16, !dbg !1954

panic:                                            ; preds = %bb4
; call core::panicking::panic
  call void @_ZN4core9panicking5panic17hf5844c0338bd061cE([0 x i8]* align 1 bitcast ([33 x i8]* @str.7 to [0 x i8]*), i64 33, %"core::panic::location::Location"* align 8 bitcast (<{ i8*, [16 x i8] }>* @alloc374 to %"core::panic::location::Location"*)) #13, !dbg !1954
  unreachable, !dbg !1954

bb16:                                             ; preds = %bb5
  store i32 2, i32* %p_0, align 4, !dbg !1956
  br label %bb17, !dbg !1957

bb6:                                              ; preds = %bb5
  %_20 = load i32, i32* %p, align 4, !dbg !1958
  %_19 = sext i32 %_20 to i64, !dbg !1958
  %_22 = icmp ult i64 %_19, 102, !dbg !1959
  %4 = call i1 @llvm.expect.i1(i1 %_22, i1 true), !dbg !1959
  br i1 %4, label %bb7, label %panic1, !dbg !1959

bb7:                                              ; preds = %bb6
  %5 = getelementptr inbounds [102 x i8], [102 x i8]* %prime, i64 0, i64 %_19, !dbg !1959
  %6 = load i8, i8* %5, align 1, !dbg !1959, !range !470, !noundef !23
  %_18 = trunc i8 %6 to i1, !dbg !1959
  br i1 %_18, label %bb8, label %bb14, !dbg !1959

panic1:                                           ; preds = %bb6
; call core::panicking::panic_bounds_check
  call void @_ZN4core9panicking18panic_bounds_check17h66852fee8138fdc4E(i64 %_19, i64 102, %"core::panic::location::Location"* align 8 bitcast (<{ i8*, [16 x i8] }>* @alloc376 to %"core::panic::location::Location"*)) #13, !dbg !1959
  unreachable, !dbg !1959

bb14:                                             ; preds = %bb10, %bb7
  %7 = load i32, i32* %p, align 4, !dbg !1960
  %8 = call { i32, i1 } @llvm.sadd.with.overflow.i32(i32 %7, i32 1), !dbg !1960
  %_37.0 = extractvalue { i32, i1 } %8, 0, !dbg !1960
  %_37.1 = extractvalue { i32, i1 } %8, 1, !dbg !1960
  %9 = call i1 @llvm.expect.i1(i1 %_37.1, i1 false), !dbg !1960
  br i1 %9, label %panic5, label %bb15, !dbg !1960

bb8:                                              ; preds = %bb7
  %_24 = load i32, i32* %p, align 4, !dbg !1961
  %10 = call { i32, i1 } @llvm.smul.with.overflow.i32(i32 %_24, i32 2), !dbg !1961
  %_26.0 = extractvalue { i32, i1 } %10, 0, !dbg !1961
  %_26.1 = extractvalue { i32, i1 } %10, 1, !dbg !1961
  %11 = call i1 @llvm.expect.i1(i1 %_26.1, i1 false), !dbg !1961
  br i1 %11, label %panic2, label %bb9, !dbg !1961

bb9:                                              ; preds = %bb8
  store i32 %_26.0, i32* %i, align 4, !dbg !1961
  br label %bb10, !dbg !1962

panic2:                                           ; preds = %bb8
; call core::panicking::panic
  call void @_ZN4core9panicking5panic17hf5844c0338bd061cE([0 x i8]* align 1 bitcast ([33 x i8]* @str.7 to [0 x i8]*), i64 33, %"core::panic::location::Location"* align 8 bitcast (<{ i8*, [16 x i8] }>* @alloc378 to %"core::panic::location::Location"*)) #13, !dbg !1961
  unreachable, !dbg !1961

bb10:                                             ; preds = %bb13, %bb9
  %_28 = load i32, i32* %i, align 4, !dbg !1963
  %_27 = icmp sle i32 %_28, 100, !dbg !1963
  br i1 %_27, label %bb11, label %bb14, !dbg !1963

bb11:                                             ; preds = %bb10
  %_32 = load i32, i32* %i, align 4, !dbg !1964
  %_31 = sext i32 %_32 to i64, !dbg !1964
  %_34 = icmp ult i64 %_31, 102, !dbg !1965
  %12 = call i1 @llvm.expect.i1(i1 %_34, i1 true), !dbg !1965
  br i1 %12, label %bb12, label %panic3, !dbg !1965

bb12:                                             ; preds = %bb11
  %13 = getelementptr inbounds [102 x i8], [102 x i8]* %prime, i64 0, i64 %_31, !dbg !1965
  store i8 0, i8* %13, align 1, !dbg !1965
  %_35 = load i32, i32* %p, align 4, !dbg !1966
  %14 = load i32, i32* %i, align 4, !dbg !1967
  %15 = call { i32, i1 } @llvm.sadd.with.overflow.i32(i32 %14, i32 %_35), !dbg !1967
  %_36.0 = extractvalue { i32, i1 } %15, 0, !dbg !1967
  %_36.1 = extractvalue { i32, i1 } %15, 1, !dbg !1967
  %16 = call i1 @llvm.expect.i1(i1 %_36.1, i1 false), !dbg !1967
  br i1 %16, label %panic4, label %bb13, !dbg !1967

panic3:                                           ; preds = %bb11
; call core::panicking::panic_bounds_check
  call void @_ZN4core9panicking18panic_bounds_check17h66852fee8138fdc4E(i64 %_31, i64 102, %"core::panic::location::Location"* align 8 bitcast (<{ i8*, [16 x i8] }>* @alloc380 to %"core::panic::location::Location"*)) #13, !dbg !1965
  unreachable, !dbg !1965

bb13:                                             ; preds = %bb12
  store i32 %_36.0, i32* %i, align 4, !dbg !1967
  br label %bb10, !dbg !1962

panic4:                                           ; preds = %bb12
; call core::panicking::panic
  call void @_ZN4core9panicking5panic17hf5844c0338bd061cE([0 x i8]* align 1 bitcast ([28 x i8]* @str.6 to [0 x i8]*), i64 28, %"core::panic::location::Location"* align 8 bitcast (<{ i8*, [16 x i8] }>* @alloc382 to %"core::panic::location::Location"*)) #13, !dbg !1967
  unreachable, !dbg !1967

bb15:                                             ; preds = %bb14
  store i32 %_37.0, i32* %p, align 4, !dbg !1960
  br label %bb4, !dbg !1953

panic5:                                           ; preds = %bb14
; call core::panicking::panic
  call void @_ZN4core9panicking5panic17hf5844c0338bd061cE([0 x i8]* align 1 bitcast ([28 x i8]* @str.6 to [0 x i8]*), i64 28, %"core::panic::location::Location"* align 8 bitcast (<{ i8*, [16 x i8] }>* @alloc384 to %"core::panic::location::Location"*)) #13, !dbg !1960
  unreachable, !dbg !1960

bb17:                                             ; preds = %bb23, %bb16
  %_40 = load i32, i32* %p_0, align 4, !dbg !1968
  %_39 = icmp sle i32 %_40, 101, !dbg !1968
  br i1 %_39, label %bb18, label %bb24, !dbg !1968

bb24:                                             ; preds = %bb17
  ret void, !dbg !1969

bb18:                                             ; preds = %bb17
  %_44 = load i32, i32* %p_0, align 4, !dbg !1970
  %_43 = sext i32 %_44 to i64, !dbg !1970
  %_46 = icmp ult i64 %_43, 102, !dbg !1971
  %17 = call i1 @llvm.expect.i1(i1 %_46, i1 true), !dbg !1971
  br i1 %17, label %bb19, label %panic6, !dbg !1971

bb19:                                             ; preds = %bb18
  %18 = getelementptr inbounds [102 x i8], [102 x i8]* %prime, i64 0, i64 %_43, !dbg !1971
  %19 = load i8, i8* %18, align 1, !dbg !1971, !range !470, !noundef !23
  %_42 = trunc i8 %19 to i1, !dbg !1971
  br i1 %_42, label %bb20, label %bb22, !dbg !1971

panic6:                                           ; preds = %bb18
; call core::panicking::panic_bounds_check
  call void @_ZN4core9panicking18panic_bounds_check17h66852fee8138fdc4E(i64 %_43, i64 102, %"core::panic::location::Location"* align 8 bitcast (<{ i8*, [16 x i8] }>* @alloc386 to %"core::panic::location::Location"*)) #13, !dbg !1971
  unreachable, !dbg !1971

bb22:                                             ; preds = %bb21, %bb19
  %20 = load i32, i32* %p_0, align 4, !dbg !1972
  %21 = call { i32, i1 } @llvm.sadd.with.overflow.i32(i32 %20, i32 1), !dbg !1972
  %_52.0 = extractvalue { i32, i1 } %21, 0, !dbg !1972
  %_52.1 = extractvalue { i32, i1 } %21, 1, !dbg !1972
  %22 = call i1 @llvm.expect.i1(i1 %_52.1, i1 false), !dbg !1972
  br i1 %22, label %panic7, label %bb23, !dbg !1972

bb20:                                             ; preds = %bb19
  %_51 = load i32, i32* %p_0, align 4, !dbg !1973
  %_50 = sext i32 %_51 to i64, !dbg !1973
  store i32* %buffer, i32** %self.dbg.spill.i, align 8
  call void @llvm.dbg.declare(metadata i32** %self.dbg.spill.i, metadata !1860, metadata !DIExpression()), !dbg !1974
  store i64 %_50, i64* %count.dbg.spill.i, align 8
  call void @llvm.dbg.declare(metadata i64* %count.dbg.spill.i, metadata !1863, metadata !DIExpression()), !dbg !1976
  %23 = getelementptr inbounds i32, i32* %buffer, i64 %_50, !dbg !1977
  store i32* %23, i32** %0, align 8, !dbg !1977
  %_3.i = load i32*, i32** %0, align 8, !dbg !1977
  br label %bb21, !dbg !1978

bb21:                                             ; preds = %bb20
  store i32 1, i32* %_3.i, align 4, !dbg !1979
  br label %bb22, !dbg !1980

bb23:                                             ; preds = %bb22
  store i32 %_52.0, i32* %p_0, align 4, !dbg !1972
  br label %bb17, !dbg !1957

panic7:                                           ; preds = %bb22
; call core::panicking::panic
  call void @_ZN4core9panicking5panic17hf5844c0338bd061cE([0 x i8]* align 1 bitcast ([28 x i8]* @str.6 to [0 x i8]*), i64 28, %"core::panic::location::Location"* align 8 bitcast (<{ i8*, [16 x i8] }>* @alloc388 to %"core::panic::location::Location"*)) #13, !dbg !1972
  unreachable, !dbg !1972
}

; Function Attrs: nonlazybind uwtable
define dso_local i32 @rust_multibyte_chars(i32 %sz, i32* %buffer) unnamed_addr #1 !dbg !1981 {
start:
  %0 = alloca i32*, align 8
  %count.dbg.spill.i17 = alloca i64, align 8
  %self.dbg.spill.i18 = alloca i32*, align 8
  %1 = alloca i32*, align 8
  %count.dbg.spill.i14 = alloca i64, align 8
  %self.dbg.spill.i15 = alloca i32*, align 8
  %2 = alloca i32*, align 8
  %count.dbg.spill.i11 = alloca i64, align 8
  %self.dbg.spill.i12 = alloca i32*, align 8
  %3 = alloca i32*, align 8
  %count.dbg.spill.i8 = alloca i64, align 8
  %self.dbg.spill.i9 = alloca i32*, align 8
  %4 = alloca i32*, align 8
  %count.dbg.spill.i5 = alloca i64, align 8
  %self.dbg.spill.i6 = alloca i32*, align 8
  %5 = alloca i32*, align 8
  %count.dbg.spill.i = alloca i64, align 8
  %self.dbg.spill.i = alloca i32*, align 8
  %fresh5.dbg.spill = alloca i32, align 4
  %fresh4.dbg.spill = alloca i32, align 4
  %fresh3.dbg.spill = alloca i32, align 4
  %fresh2.dbg.spill = alloca i32, align 4
  %fresh1.dbg.spill = alloca i32, align 4
  %fresh0.dbg.spill = alloca i32, align 4
  %buffer.dbg.spill = alloca i32*, align 8
  %sz.dbg.spill = alloca i32, align 4
  %i = alloca i32, align 4
  call void @llvm.dbg.declare(metadata i32* %i, metadata !1989, metadata !DIExpression()), !dbg !2003
  store i32 %sz, i32* %sz.dbg.spill, align 4
  call void @llvm.dbg.declare(metadata i32* %sz.dbg.spill, metadata !1987, metadata !DIExpression()), !dbg !2004
  store i32* %buffer, i32** %buffer.dbg.spill, align 8
  call void @llvm.dbg.declare(metadata i32** %buffer.dbg.spill, metadata !1988, metadata !DIExpression()), !dbg !2005
  store i32 0, i32* %i, align 4, !dbg !2006
  store i32 0, i32* %fresh0.dbg.spill, align 4, !dbg !2007
  call void @llvm.dbg.declare(metadata i32* %fresh0.dbg.spill, metadata !1991, metadata !DIExpression()), !dbg !2008
  store i32 1, i32* %i, align 4, !dbg !2009
  store i32* %buffer, i32** %self.dbg.spill.i18, align 8
  call void @llvm.dbg.declare(metadata i32** %self.dbg.spill.i18, metadata !1860, metadata !DIExpression()), !dbg !2010
  store i64 0, i64* %count.dbg.spill.i17, align 8
  call void @llvm.dbg.declare(metadata i64* %count.dbg.spill.i17, metadata !1863, metadata !DIExpression()), !dbg !2012
  store i32* %buffer, i32** %0, align 8, !dbg !2013
  %_3.i19 = load i32*, i32** %0, align 8, !dbg !2013
  br label %bb1, !dbg !2014

bb1:                                              ; preds = %start
  store i32 10003, i32* %_3.i19, align 4, !dbg !2015
  %fresh1 = load i32, i32* %i, align 4, !dbg !2016
  store i32 %fresh1, i32* %fresh1.dbg.spill, align 4, !dbg !2016
  call void @llvm.dbg.declare(metadata i32* %fresh1.dbg.spill, metadata !1993, metadata !DIExpression()), !dbg !2017
  %_10 = load i32, i32* %i, align 4, !dbg !2018
  %6 = call { i32, i1 } @llvm.sadd.with.overflow.i32(i32 %_10, i32 1), !dbg !2018
  %_11.0 = extractvalue { i32, i1 } %6, 0, !dbg !2018
  %_11.1 = extractvalue { i32, i1 } %6, 1, !dbg !2018
  %7 = call i1 @llvm.expect.i1(i1 %_11.1, i1 false), !dbg !2018
  br i1 %7, label %panic, label %bb2, !dbg !2018

bb2:                                              ; preds = %bb1
  store i32 %_11.0, i32* %i, align 4, !dbg !2019
  %_15 = sext i32 %fresh1 to i64, !dbg !2020
  store i32* %buffer, i32** %self.dbg.spill.i15, align 8
  call void @llvm.dbg.declare(metadata i32** %self.dbg.spill.i15, metadata !1860, metadata !DIExpression()), !dbg !2021
  store i64 %_15, i64* %count.dbg.spill.i14, align 8
  call void @llvm.dbg.declare(metadata i64* %count.dbg.spill.i14, metadata !1863, metadata !DIExpression()), !dbg !2023
  %8 = getelementptr inbounds i32, i32* %buffer, i64 %_15, !dbg !2024
  store i32* %8, i32** %1, align 8, !dbg !2024
  %_3.i16 = load i32*, i32** %1, align 8, !dbg !2024
  br label %bb3, !dbg !2025

panic:                                            ; preds = %bb1
; call core::panicking::panic
  call void @_ZN4core9panicking5panic17hf5844c0338bd061cE([0 x i8]* align 1 bitcast ([28 x i8]* @str.6 to [0 x i8]*), i64 28, %"core::panic::location::Location"* align 8 bitcast (<{ i8*, [16 x i8] }>* @alloc390 to %"core::panic::location::Location"*)) #13, !dbg !2018
  unreachable, !dbg !2018

bb3:                                              ; preds = %bb2
  store i32 128561, i32* %_3.i16, align 4, !dbg !2026
  %fresh2 = load i32, i32* %i, align 4, !dbg !2027
  store i32 %fresh2, i32* %fresh2.dbg.spill, align 4, !dbg !2027
  call void @llvm.dbg.declare(metadata i32* %fresh2.dbg.spill, metadata !1995, metadata !DIExpression()), !dbg !2028
  %_18 = load i32, i32* %i, align 4, !dbg !2029
  %9 = call { i32, i1 } @llvm.sadd.with.overflow.i32(i32 %_18, i32 1), !dbg !2029
  %_19.0 = extractvalue { i32, i1 } %9, 0, !dbg !2029
  %_19.1 = extractvalue { i32, i1 } %9, 1, !dbg !2029
  %10 = call i1 @llvm.expect.i1(i1 %_19.1, i1 false), !dbg !2029
  br i1 %10, label %panic1, label %bb4, !dbg !2029

bb4:                                              ; preds = %bb3
  store i32 %_19.0, i32* %i, align 4, !dbg !2030
  %_22 = sext i32 %fresh2 to i64, !dbg !2031
  store i32* %buffer, i32** %self.dbg.spill.i12, align 8
  call void @llvm.dbg.declare(metadata i32** %self.dbg.spill.i12, metadata !1860, metadata !DIExpression()), !dbg !2032
  store i64 %_22, i64* %count.dbg.spill.i11, align 8
  call void @llvm.dbg.declare(metadata i64* %count.dbg.spill.i11, metadata !1863, metadata !DIExpression()), !dbg !2034
  %11 = getelementptr inbounds i32, i32* %buffer, i64 %_22, !dbg !2035
  store i32* %11, i32** %2, align 8, !dbg !2035
  %_3.i13 = load i32*, i32** %2, align 8, !dbg !2035
  br label %bb5, !dbg !2036

panic1:                                           ; preds = %bb3
; call core::panicking::panic
  call void @_ZN4core9panicking5panic17hf5844c0338bd061cE([0 x i8]* align 1 bitcast ([28 x i8]* @str.6 to [0 x i8]*), i64 28, %"core::panic::location::Location"* align 8 bitcast (<{ i8*, [16 x i8] }>* @alloc392 to %"core::panic::location::Location"*)) #13, !dbg !2029
  unreachable, !dbg !2029

bb5:                                              ; preds = %bb4
  store i32 128561, i32* %_3.i13, align 4, !dbg !2037
  %fresh3 = load i32, i32* %i, align 4, !dbg !2038
  store i32 %fresh3, i32* %fresh3.dbg.spill, align 4, !dbg !2038
  call void @llvm.dbg.declare(metadata i32* %fresh3.dbg.spill, metadata !1997, metadata !DIExpression()), !dbg !2039
  %_25 = load i32, i32* %i, align 4, !dbg !2040
  %12 = call { i32, i1 } @llvm.sadd.with.overflow.i32(i32 %_25, i32 1), !dbg !2040
  %_26.0 = extractvalue { i32, i1 } %12, 0, !dbg !2040
  %_26.1 = extractvalue { i32, i1 } %12, 1, !dbg !2040
  %13 = call i1 @llvm.expect.i1(i1 %_26.1, i1 false), !dbg !2040
  br i1 %13, label %panic2, label %bb6, !dbg !2040

bb6:                                              ; preds = %bb5
  store i32 %_26.0, i32* %i, align 4, !dbg !2041
  %_29 = sext i32 %fresh3 to i64, !dbg !2042
  store i32* %buffer, i32** %self.dbg.spill.i9, align 8
  call void @llvm.dbg.declare(metadata i32** %self.dbg.spill.i9, metadata !1860, metadata !DIExpression()), !dbg !2043
  store i64 %_29, i64* %count.dbg.spill.i8, align 8
  call void @llvm.dbg.declare(metadata i64* %count.dbg.spill.i8, metadata !1863, metadata !DIExpression()), !dbg !2045
  %14 = getelementptr inbounds i32, i32* %buffer, i64 %_29, !dbg !2046
  store i32* %14, i32** %3, align 8, !dbg !2046
  %_3.i10 = load i32*, i32** %3, align 8, !dbg !2046
  br label %bb7, !dbg !2047

panic2:                                           ; preds = %bb5
; call core::panicking::panic
  call void @_ZN4core9panicking5panic17hf5844c0338bd061cE([0 x i8]* align 1 bitcast ([28 x i8]* @str.6 to [0 x i8]*), i64 28, %"core::panic::location::Location"* align 8 bitcast (<{ i8*, [16 x i8] }>* @alloc394 to %"core::panic::location::Location"*)) #13, !dbg !2040
  unreachable, !dbg !2040

bb7:                                              ; preds = %bb6
  store i32 0, i32* %_3.i10, align 4, !dbg !2048
  %fresh4 = load i32, i32* %i, align 4, !dbg !2049
  store i32 %fresh4, i32* %fresh4.dbg.spill, align 4, !dbg !2049
  call void @llvm.dbg.declare(metadata i32* %fresh4.dbg.spill, metadata !1999, metadata !DIExpression()), !dbg !2050
  %_32 = load i32, i32* %i, align 4, !dbg !2051
  %15 = call { i32, i1 } @llvm.sadd.with.overflow.i32(i32 %_32, i32 1), !dbg !2051
  %_33.0 = extractvalue { i32, i1 } %15, 0, !dbg !2051
  %_33.1 = extractvalue { i32, i1 } %15, 1, !dbg !2051
  %16 = call i1 @llvm.expect.i1(i1 %_33.1, i1 false), !dbg !2051
  br i1 %16, label %panic3, label %bb8, !dbg !2051

bb8:                                              ; preds = %bb7
  store i32 %_33.0, i32* %i, align 4, !dbg !2052
  %_36 = sext i32 %fresh4 to i64, !dbg !2053
  store i32* %buffer, i32** %self.dbg.spill.i6, align 8
  call void @llvm.dbg.declare(metadata i32** %self.dbg.spill.i6, metadata !1860, metadata !DIExpression()), !dbg !2054
  store i64 %_36, i64* %count.dbg.spill.i5, align 8
  call void @llvm.dbg.declare(metadata i64* %count.dbg.spill.i5, metadata !1863, metadata !DIExpression()), !dbg !2056
  %17 = getelementptr inbounds i32, i32* %buffer, i64 %_36, !dbg !2057
  store i32* %17, i32** %4, align 8, !dbg !2057
  %_3.i7 = load i32*, i32** %4, align 8, !dbg !2057
  br label %bb9, !dbg !2058

panic3:                                           ; preds = %bb7
; call core::panicking::panic
  call void @_ZN4core9panicking5panic17hf5844c0338bd061cE([0 x i8]* align 1 bitcast ([28 x i8]* @str.6 to [0 x i8]*), i64 28, %"core::panic::location::Location"* align 8 bitcast (<{ i8*, [16 x i8] }>* @alloc396 to %"core::panic::location::Location"*)) #13, !dbg !2051
  unreachable, !dbg !2051

bb9:                                              ; preds = %bb8
  store i32 1, i32* %_3.i7, align 4, !dbg !2059
  %fresh5 = load i32, i32* %i, align 4, !dbg !2060
  store i32 %fresh5, i32* %fresh5.dbg.spill, align 4, !dbg !2060
  call void @llvm.dbg.declare(metadata i32* %fresh5.dbg.spill, metadata !2001, metadata !DIExpression()), !dbg !2061
  %_39 = load i32, i32* %i, align 4, !dbg !2062
  %18 = call { i32, i1 } @llvm.sadd.with.overflow.i32(i32 %_39, i32 1), !dbg !2062
  %_40.0 = extractvalue { i32, i1 } %18, 0, !dbg !2062
  %_40.1 = extractvalue { i32, i1 } %18, 1, !dbg !2062
  %19 = call i1 @llvm.expect.i1(i1 %_40.1, i1 false), !dbg !2062
  br i1 %19, label %panic4, label %bb10, !dbg !2062

bb10:                                             ; preds = %bb9
  store i32 %_40.0, i32* %i, align 4, !dbg !2063
  %_43 = sext i32 %fresh5 to i64, !dbg !2064
  store i32* %buffer, i32** %self.dbg.spill.i, align 8
  call void @llvm.dbg.declare(metadata i32** %self.dbg.spill.i, metadata !1860, metadata !DIExpression()), !dbg !2065
  store i64 %_43, i64* %count.dbg.spill.i, align 8
  call void @llvm.dbg.declare(metadata i64* %count.dbg.spill.i, metadata !1863, metadata !DIExpression()), !dbg !2067
  %20 = getelementptr inbounds i32, i32* %buffer, i64 %_43, !dbg !2068
  store i32* %20, i32** %5, align 8, !dbg !2068
  %_3.i = load i32*, i32** %5, align 8, !dbg !2068
  br label %bb11, !dbg !2069

panic4:                                           ; preds = %bb9
; call core::panicking::panic
  call void @_ZN4core9panicking5panic17hf5844c0338bd061cE([0 x i8]* align 1 bitcast ([28 x i8]* @str.6 to [0 x i8]*), i64 28, %"core::panic::location::Location"* align 8 bitcast (<{ i8*, [16 x i8] }>* @alloc398 to %"core::panic::location::Location"*)) #13, !dbg !2062
  unreachable, !dbg !2062

bb11:                                             ; preds = %bb10
  store i32 -1, i32* %_3.i, align 4, !dbg !2070
  %21 = load i32, i32* %i, align 4, !dbg !2071
  ret i32 %21, !dbg !2071
}

; Function Attrs: nonlazybind uwtable
define dso_local void @rust_mutate_buffer(i8* %0, i8* %1, i32 %2) unnamed_addr #1 !dbg !2072 {
start:
  %3 = alloca i8*, align 8
  %count.dbg.spill.i1 = alloca i64, align 8
  %self.dbg.spill.i2 = alloca i8*, align 8
  %4 = alloca i8*, align 8
  %count.dbg.spill.i = alloca i64, align 8
  %self.dbg.spill.i = alloca i8*, align 8
  %fresh2.dbg.spill = alloca i8*, align 8
  %fresh1.dbg.spill = alloca i8*, align 8
  %fresh0.dbg.spill = alloca i32, align 4
  %size = alloca i32, align 4
  %src = alloca i8*, align 8
  %dest = alloca i8*, align 8
  store i8* %0, i8** %dest, align 8
  store i8* %1, i8** %src, align 8
  store i32 %2, i32* %size, align 4
  call void @llvm.dbg.declare(metadata i8** %dest, metadata !2078, metadata !DIExpression()), !dbg !2087
  call void @llvm.dbg.declare(metadata i8** %src, metadata !2079, metadata !DIExpression()), !dbg !2088
  call void @llvm.dbg.declare(metadata i32* %size, metadata !2080, metadata !DIExpression()), !dbg !2089
  br label %bb1, !dbg !2090

bb1:                                              ; preds = %bb6, %start
  %fresh0 = load i32, i32* %size, align 4, !dbg !2091
  store i32 %fresh0, i32* %fresh0.dbg.spill, align 4, !dbg !2091
  call void @llvm.dbg.declare(metadata i32* %fresh0.dbg.spill, metadata !2081, metadata !DIExpression()), !dbg !2092
  %_5 = load i32, i32* %size, align 4, !dbg !2093
  %5 = call { i32, i1 } @llvm.ssub.with.overflow.i32(i32 %_5, i32 1), !dbg !2093
  %_6.0 = extractvalue { i32, i1 } %5, 0, !dbg !2093
  %_6.1 = extractvalue { i32, i1 } %5, 1, !dbg !2093
  %6 = call i1 @llvm.expect.i1(i1 %_6.1, i1 false), !dbg !2093
  br i1 %6, label %panic, label %bb2, !dbg !2093

bb2:                                              ; preds = %bb1
  store i32 %_6.0, i32* %size, align 4, !dbg !2094
  %_8 = icmp ne i32 %fresh0, 0, !dbg !2095
  %_7 = xor i1 %_8, true, !dbg !2096
  br i1 %_7, label %bb3, label %bb4, !dbg !2096

panic:                                            ; preds = %bb1
; call core::panicking::panic
  call void @_ZN4core9panicking5panic17hf5844c0338bd061cE([0 x i8]* align 1 bitcast ([33 x i8]* @str.8 to [0 x i8]*), i64 33, %"core::panic::location::Location"* align 8 bitcast (<{ i8*, [16 x i8] }>* @alloc400 to %"core::panic::location::Location"*)) #13, !dbg !2093
  unreachable, !dbg !2093

bb4:                                              ; preds = %bb2
  %fresh1 = load i8*, i8** %src, align 8, !dbg !2097
  store i8* %fresh1, i8** %fresh1.dbg.spill, align 8, !dbg !2097
  call void @llvm.dbg.declare(metadata i8** %fresh1.dbg.spill, metadata !2083, metadata !DIExpression()), !dbg !2098
  %_13 = load i8*, i8** %src, align 8, !dbg !2099
  store i8* %_13, i8** %self.dbg.spill.i2, align 8
  call void @llvm.dbg.declare(metadata i8** %self.dbg.spill.i2, metadata !2100, metadata !DIExpression()), !dbg !2106
  store i64 1, i64* %count.dbg.spill.i1, align 8
  call void @llvm.dbg.declare(metadata i64* %count.dbg.spill.i1, metadata !2105, metadata !DIExpression()), !dbg !2108
  %7 = getelementptr inbounds i8, i8* %_13, i64 1, !dbg !2109
  store i8* %7, i8** %3, align 8, !dbg !2109
  %8 = load i8*, i8** %3, align 8, !dbg !2109
  br label %bb5, !dbg !2099

bb3:                                              ; preds = %bb2
  ret void, !dbg !2110

bb5:                                              ; preds = %bb4
  store i8* %8, i8** %src, align 8, !dbg !2111
  %fresh2 = load i8*, i8** %dest, align 8, !dbg !2112
  store i8* %fresh2, i8** %fresh2.dbg.spill, align 8, !dbg !2112
  call void @llvm.dbg.declare(metadata i8** %fresh2.dbg.spill, metadata !2085, metadata !DIExpression()), !dbg !2113
  %_16 = load i8*, i8** %dest, align 8, !dbg !2114
  store i8* %_16, i8** %self.dbg.spill.i, align 8
  call void @llvm.dbg.declare(metadata i8** %self.dbg.spill.i, metadata !2115, metadata !DIExpression()), !dbg !2121
  store i64 1, i64* %count.dbg.spill.i, align 8
  call void @llvm.dbg.declare(metadata i64* %count.dbg.spill.i, metadata !2120, metadata !DIExpression()), !dbg !2123
  %9 = getelementptr inbounds i8, i8* %_16, i64 1, !dbg !2124
  store i8* %9, i8** %4, align 8, !dbg !2124
  %_3.i = load i8*, i8** %4, align 8, !dbg !2124
  br label %bb6, !dbg !2114

bb6:                                              ; preds = %bb5
  store i8* %_3.i, i8** %dest, align 8, !dbg !2125
  %_19 = load i8, i8* %fresh1, align 1, !dbg !2126
; call core::ptr::write_volatile
  call void @_ZN4core3ptr14write_volatile17hcc914a6832a1188eE(i8* %fresh2, i8 %_19), !dbg !2127
  br label %bb1, !dbg !2127
}

; Function Attrs: nonlazybind uwtable
define dso_local void @rust_entry3(i32 %buffer_size, i32* %buffer) unnamed_addr #1 !dbg !2128 {
start:
  %0 = alloca i32*, align 8
  %count.dbg.spill.i24 = alloca i64, align 8
  %self.dbg.spill.i25 = alloca i32*, align 8
  %1 = alloca i32*, align 8
  %count.dbg.spill.i21 = alloca i64, align 8
  %self.dbg.spill.i22 = alloca i32*, align 8
  %2 = alloca i32*, align 8
  %count.dbg.spill.i18 = alloca i64, align 8
  %self.dbg.spill.i19 = alloca i32*, align 8
  %3 = alloca i32*, align 8
  %count.dbg.spill.i15 = alloca i64, align 8
  %self.dbg.spill.i16 = alloca i32*, align 8
  %4 = alloca i32*, align 8
  %count.dbg.spill.i12 = alloca i64, align 8
  %self.dbg.spill.i13 = alloca i32*, align 8
  %5 = alloca i32*, align 8
  %count.dbg.spill.i9 = alloca i64, align 8
  %self.dbg.spill.i10 = alloca i32*, align 8
  %6 = alloca i32*, align 8
  %count.dbg.spill.i6 = alloca i64, align 8
  %self.dbg.spill.i7 = alloca i32*, align 8
  %7 = alloca i32*, align 8
  %count.dbg.spill.i3 = alloca i64, align 8
  %self.dbg.spill.i4 = alloca i32*, align 8
  %8 = alloca i32*, align 8
  %count.dbg.spill.i = alloca i64, align 8
  %self.dbg.spill.i = alloca i32*, align 8
  %9 = alloca [4 x i8]*, align 8
  %p.dbg.spill = alloca i32*, align 8
  %buffer.dbg.spill = alloca i32*, align 8
  %buffer_size.dbg.spill = alloca i32, align 4
  %_73 = alloca [10 x i8], align 1
  %s = alloca %"volatile::some_struct", align 1
  %src = alloca [4 x i8], align 1
  %c = alloca i8, align 1
  %n = alloca i32, align 4
  store i32 %buffer_size, i32* %buffer_size.dbg.spill, align 4
  call void @llvm.dbg.declare(metadata i32* %buffer_size.dbg.spill, metadata !2130, metadata !DIExpression()), !dbg !2149
  store i32* %buffer, i32** %buffer.dbg.spill, align 8
  call void @llvm.dbg.declare(metadata i32** %buffer.dbg.spill, metadata !2131, metadata !DIExpression()), !dbg !2150
  call void @llvm.dbg.declare(metadata i32* %n, metadata !2132, metadata !DIExpression()), !dbg !2151
  call void @llvm.dbg.declare(metadata i8* %c, metadata !2136, metadata !DIExpression()), !dbg !2152
  call void @llvm.dbg.declare(metadata [4 x i8]* %src, metadata !2138, metadata !DIExpression()), !dbg !2153
  call void @llvm.dbg.declare(metadata %"volatile::some_struct"* %s, metadata !2143, metadata !DIExpression()), !dbg !2154
  %_3 = icmp ult i32 %buffer_size, 5, !dbg !2155
  br i1 %_3, label %bb27, label %bb1, !dbg !2155

bb1:                                              ; preds = %start
  store i32 0, i32* %n, align 4, !dbg !2156
; call core::ptr::write_volatile
  call void @_ZN4core3ptr14write_volatile17h8813a3ae7e4a9b79E(i32* %n, i32 5), !dbg !2157
  br label %bb2, !dbg !2157

bb27:                                             ; preds = %bb26, %start
  ret void, !dbg !2158

bb2:                                              ; preds = %bb1
; call core::ptr::read_volatile
  %_11 = call i32 @_ZN4core3ptr13read_volatile17hbc8e1f6ec159c385E(i32* %n), !dbg !2159
  br label %bb3, !dbg !2159

bb3:                                              ; preds = %bb2
  store i32* %buffer, i32** %self.dbg.spill.i25, align 8
  call void @llvm.dbg.declare(metadata i32** %self.dbg.spill.i25, metadata !1860, metadata !DIExpression()), !dbg !2160
  store i64 0, i64* %count.dbg.spill.i24, align 8
  call void @llvm.dbg.declare(metadata i64* %count.dbg.spill.i24, metadata !1863, metadata !DIExpression()), !dbg !2162
  store i32* %buffer, i32** %0, align 8, !dbg !2163
  %_3.i26 = load i32*, i32** %0, align 8, !dbg !2163
  br label %bb4, !dbg !2164

bb4:                                              ; preds = %bb3
  store i32 %_11, i32* %_3.i26, align 4, !dbg !2165
; call core::ptr::read_volatile
  %_21 = call i32 @_ZN4core3ptr13read_volatile17hbc8e1f6ec159c385E(i32* %n), !dbg !2166
  br label %bb5, !dbg !2166

bb5:                                              ; preds = %bb4
  %10 = call { i32, i1 } @llvm.sadd.with.overflow.i32(i32 %_21, i32 4), !dbg !2166
  %_25.0 = extractvalue { i32, i1 } %10, 0, !dbg !2166
  %_25.1 = extractvalue { i32, i1 } %10, 1, !dbg !2166
  %11 = call i1 @llvm.expect.i1(i1 %_25.1, i1 false), !dbg !2166
  br i1 %11, label %panic, label %bb6, !dbg !2166

bb6:                                              ; preds = %bb5
; call core::ptr::write_volatile
  call void @_ZN4core3ptr14write_volatile17h8813a3ae7e4a9b79E(i32* %n, i32 %_25.0), !dbg !2167
  br label %bb7, !dbg !2167

panic:                                            ; preds = %bb5
; call core::panicking::panic
  call void @_ZN4core9panicking5panic17hf5844c0338bd061cE([0 x i8]* align 1 bitcast ([28 x i8]* @str.6 to [0 x i8]*), i64 28, %"core::panic::location::Location"* align 8 bitcast (<{ i8*, [16 x i8] }>* @alloc402 to %"core::panic::location::Location"*)) #13, !dbg !2166
  unreachable, !dbg !2166

bb7:                                              ; preds = %bb6
  %_26 = load i32, i32* %n, align 4, !dbg !2168
  %12 = call { i32, i1 } @llvm.sadd.with.overflow.i32(i32 %_26, i32 2), !dbg !2168
  %_28.0 = extractvalue { i32, i1 } %12, 0, !dbg !2168
  %_28.1 = extractvalue { i32, i1 } %12, 1, !dbg !2168
  %13 = call i1 @llvm.expect.i1(i1 %_28.1, i1 false), !dbg !2168
  br i1 %13, label %panic1, label %bb8, !dbg !2168

bb8:                                              ; preds = %bb7
  store i32* %buffer, i32** %self.dbg.spill.i22, align 8
  call void @llvm.dbg.declare(metadata i32** %self.dbg.spill.i22, metadata !1860, metadata !DIExpression()), !dbg !2169
  store i64 1, i64* %count.dbg.spill.i21, align 8
  call void @llvm.dbg.declare(metadata i64* %count.dbg.spill.i21, metadata !1863, metadata !DIExpression()), !dbg !2171
  %14 = getelementptr inbounds i32, i32* %buffer, i64 1, !dbg !2172
  store i32* %14, i32** %1, align 8, !dbg !2172
  %_3.i23 = load i32*, i32** %1, align 8, !dbg !2172
  br label %bb9, !dbg !2173

panic1:                                           ; preds = %bb7
; call core::panicking::panic
  call void @_ZN4core9panicking5panic17hf5844c0338bd061cE([0 x i8]* align 1 bitcast ([28 x i8]* @str.6 to [0 x i8]*), i64 28, %"core::panic::location::Location"* align 8 bitcast (<{ i8*, [16 x i8] }>* @alloc404 to %"core::panic::location::Location"*)) #13, !dbg !2168
  unreachable, !dbg !2168

bb9:                                              ; preds = %bb8
  store i32 %_28.0, i32* %_3.i23, align 4, !dbg !2174
  store i32* %n, i32** %p.dbg.spill, align 8, !dbg !2175
  call void @llvm.dbg.declare(metadata i32** %p.dbg.spill, metadata !2134, metadata !DIExpression()), !dbg !2176
; call core::ptr::write_volatile
  call void @_ZN4core3ptr14write_volatile17h8813a3ae7e4a9b79E(i32* %n, i32 5), !dbg !2177
  br label %bb10, !dbg !2177

bb10:                                             ; preds = %bb9
  %_37 = load i32, i32* %n, align 4, !dbg !2178
  store i32* %buffer, i32** %self.dbg.spill.i19, align 8
  call void @llvm.dbg.declare(metadata i32** %self.dbg.spill.i19, metadata !1860, metadata !DIExpression()), !dbg !2179
  store i64 2, i64* %count.dbg.spill.i18, align 8
  call void @llvm.dbg.declare(metadata i64* %count.dbg.spill.i18, metadata !1863, metadata !DIExpression()), !dbg !2181
  %15 = getelementptr inbounds i32, i32* %buffer, i64 2, !dbg !2182
  store i32* %15, i32** %2, align 8, !dbg !2182
  %_3.i20 = load i32*, i32** %2, align 8, !dbg !2182
  br label %bb11, !dbg !2183

bb11:                                             ; preds = %bb10
  store i32 %_37, i32* %_3.i20, align 4, !dbg !2184
; call core::ptr::read_volatile
  %_44 = call i32 @_ZN4core3ptr13read_volatile17hbc8e1f6ec159c385E(i32* %n), !dbg !2185
  br label %bb12, !dbg !2185

bb12:                                             ; preds = %bb11
  %16 = call { i32, i1 } @llvm.sadd.with.overflow.i32(i32 %_44, i32 4), !dbg !2185
  %_48.0 = extractvalue { i32, i1 } %16, 0, !dbg !2185
  %_48.1 = extractvalue { i32, i1 } %16, 1, !dbg !2185
  %17 = call i1 @llvm.expect.i1(i1 %_48.1, i1 false), !dbg !2185
  br i1 %17, label %panic2, label %bb13, !dbg !2185

bb13:                                             ; preds = %bb12
; call core::ptr::write_volatile
  call void @_ZN4core3ptr14write_volatile17h8813a3ae7e4a9b79E(i32* %n, i32 %_48.0), !dbg !2186
  br label %bb14, !dbg !2186

panic2:                                           ; preds = %bb12
; call core::panicking::panic
  call void @_ZN4core9panicking5panic17hf5844c0338bd061cE([0 x i8]* align 1 bitcast ([28 x i8]* @str.6 to [0 x i8]*), i64 28, %"core::panic::location::Location"* align 8 bitcast (<{ i8*, [16 x i8] }>* @alloc406 to %"core::panic::location::Location"*)) #13, !dbg !2185
  unreachable, !dbg !2185

bb14:                                             ; preds = %bb13
  %_49 = load i32, i32* %n, align 4, !dbg !2187
  store i32* %buffer, i32** %self.dbg.spill.i16, align 8
  call void @llvm.dbg.declare(metadata i32** %self.dbg.spill.i16, metadata !1860, metadata !DIExpression()), !dbg !2188
  store i64 3, i64* %count.dbg.spill.i15, align 8
  call void @llvm.dbg.declare(metadata i64* %count.dbg.spill.i15, metadata !1863, metadata !DIExpression()), !dbg !2190
  %18 = getelementptr inbounds i32, i32* %buffer, i64 3, !dbg !2191
  store i32* %18, i32** %3, align 8, !dbg !2191
  %_3.i17 = load i32*, i32** %3, align 8, !dbg !2191
  br label %bb15, !dbg !2192

bb15:                                             ; preds = %bb14
  store i32 %_49, i32* %_3.i17, align 4, !dbg !2193
  store i8 10, i8* %c, align 1, !dbg !2194
; call core::ptr::read_volatile
  %_61 = call i8 @_ZN4core3ptr13read_volatile17heb8183a6997daa8aE(i8* %c), !dbg !2195
  br label %bb16, !dbg !2195

bb16:                                             ; preds = %bb15
  %_60 = sitofp i8 %_61 to double, !dbg !2195
  %_59 = fmul double %_60, 9.900000e+00, !dbg !2196
  %_58 = call i8 @llvm.fptosi.sat.i8.f64(double %_59), !dbg !2196
; call core::ptr::write_volatile
  call void @_ZN4core3ptr14write_volatile17hcc914a6832a1188eE(i8* %c, i8 %_58), !dbg !2197
  br label %bb17, !dbg !2197

bb17:                                             ; preds = %bb16
  %_64 = load i8, i8* %c, align 1, !dbg !2198
  store i32* %buffer, i32** %self.dbg.spill.i13, align 8
  call void @llvm.dbg.declare(metadata i32** %self.dbg.spill.i13, metadata !1860, metadata !DIExpression()), !dbg !2199
  store i64 4, i64* %count.dbg.spill.i12, align 8
  call void @llvm.dbg.declare(metadata i64* %count.dbg.spill.i12, metadata !1863, metadata !DIExpression()), !dbg !2201
  %19 = getelementptr inbounds i32, i32* %buffer, i64 4, !dbg !2202
  store i32* %19, i32** %4, align 8, !dbg !2202
  %_3.i14 = load i32*, i32** %4, align 8, !dbg !2202
  br label %bb18, !dbg !2203

bb18:                                             ; preds = %bb17
  %20 = sext i8 %_64 to i32, !dbg !2204
  store i32 %20, i32* %_3.i14, align 4, !dbg !2204
  store [4 x i8]* getelementptr inbounds (<{ [4 x i8] }>, <{ [4 x i8] }>* @alloc21, i32 0, i32 0), [4 x i8]** %9, align 8, !dbg !2205
  %_69 = load [4 x i8]*, [4 x i8]** %9, align 8, !dbg !2205, !nonnull !23, !align !452, !noundef !23
  br label %bb19, !dbg !2205

bb19:                                             ; preds = %bb18
  %21 = bitcast [4 x i8]* %src to i8*, !dbg !2206
  %22 = bitcast [4 x i8]* %_69 to i8*, !dbg !2206
  call void @llvm.memcpy.p0i8.p0i8.i64(i8* align 1 %21, i8* align 1 %22, i64 4, i1 false), !dbg !2206
  %23 = getelementptr inbounds [10 x i8], [10 x i8]* %_73, i64 0, i64 0, !dbg !2207
  call void @llvm.memset.p0i8.i64(i8* align 1 %23, i8 0, i64 10, i1 false), !dbg !2207
  %24 = bitcast %"volatile::some_struct"* %s to [10 x i8]*, !dbg !2208
  %25 = bitcast [10 x i8]* %24 to i8*, !dbg !2208
  %26 = bitcast [10 x i8]* %_73 to i8*, !dbg !2208
  call void @llvm.memcpy.p0i8.p0i8.i64(i8* align 1 %25, i8* align 1 %26, i64 10, i1 false), !dbg !2208
  %_77 = bitcast %"volatile::some_struct"* %s to [10 x i8]*, !dbg !2209
  %_76.0 = bitcast [10 x i8]* %_77 to [0 x i8]*, !dbg !2209
; call core::slice::<impl [T]>::as_mut_ptr
  %_75 = call i8* @"_ZN4core5slice29_$LT$impl$u20$$u5b$T$u5d$$GT$10as_mut_ptr17he30dd493ac2b4b98E"([0 x i8]* align 1 %_76.0, i64 10), !dbg !2209
  br label %bb20, !dbg !2209

bb20:                                             ; preds = %bb19
  %_80.0 = bitcast [4 x i8]* %src to [0 x i8]*, !dbg !2210
; call core::slice::<impl [T]>::as_mut_ptr
  %_79 = call i8* @"_ZN4core5slice29_$LT$impl$u20$$u5b$T$u5d$$GT$10as_mut_ptr17he30dd493ac2b4b98E"([0 x i8]* align 1 %_80.0, i64 4), !dbg !2210
  br label %bb21, !dbg !2210

bb21:                                             ; preds = %bb20
  call void @rust_mutate_buffer(i8* %_75, i8* %_79, i32 4), !dbg !2211
  br label %bb22, !dbg !2211

bb22:                                             ; preds = %bb21
  %27 = bitcast %"volatile::some_struct"* %s to [10 x i8]*, !dbg !2212
  %28 = getelementptr inbounds [10 x i8], [10 x i8]* %27, i64 0, i64 0, !dbg !2212
  %_83 = load i8, i8* %28, align 1, !dbg !2212
  store i32* %buffer, i32** %self.dbg.spill.i10, align 8
  call void @llvm.dbg.declare(metadata i32** %self.dbg.spill.i10, metadata !1860, metadata !DIExpression()), !dbg !2213
  store i64 5, i64* %count.dbg.spill.i9, align 8
  call void @llvm.dbg.declare(metadata i64* %count.dbg.spill.i9, metadata !1863, metadata !DIExpression()), !dbg !2215
  %29 = getelementptr inbounds i32, i32* %buffer, i64 5, !dbg !2216
  store i32* %29, i32** %5, align 8, !dbg !2216
  %_3.i11 = load i32*, i32** %5, align 8, !dbg !2216
  br label %bb23, !dbg !2217

bb23:                                             ; preds = %bb22
  %30 = sext i8 %_83 to i32, !dbg !2218
  store i32 %30, i32* %_3.i11, align 4, !dbg !2218
  %31 = bitcast %"volatile::some_struct"* %s to [10 x i8]*, !dbg !2219
  %32 = getelementptr inbounds [10 x i8], [10 x i8]* %31, i64 0, i64 1, !dbg !2219
  %_88 = load i8, i8* %32, align 1, !dbg !2219
  store i32* %buffer, i32** %self.dbg.spill.i7, align 8
  call void @llvm.dbg.declare(metadata i32** %self.dbg.spill.i7, metadata !1860, metadata !DIExpression()), !dbg !2220
  store i64 6, i64* %count.dbg.spill.i6, align 8
  call void @llvm.dbg.declare(metadata i64* %count.dbg.spill.i6, metadata !1863, metadata !DIExpression()), !dbg !2222
  %33 = getelementptr inbounds i32, i32* %buffer, i64 6, !dbg !2223
  store i32* %33, i32** %6, align 8, !dbg !2223
  %_3.i8 = load i32*, i32** %6, align 8, !dbg !2223
  br label %bb24, !dbg !2224

bb24:                                             ; preds = %bb23
  %34 = sext i8 %_88 to i32, !dbg !2225
  store i32 %34, i32* %_3.i8, align 4, !dbg !2225
  %35 = bitcast %"volatile::some_struct"* %s to [10 x i8]*, !dbg !2226
  %36 = getelementptr inbounds [10 x i8], [10 x i8]* %35, i64 0, i64 2, !dbg !2226
  %_93 = load i8, i8* %36, align 1, !dbg !2226
  store i32* %buffer, i32** %self.dbg.spill.i4, align 8
  call void @llvm.dbg.declare(metadata i32** %self.dbg.spill.i4, metadata !1860, metadata !DIExpression()), !dbg !2227
  store i64 7, i64* %count.dbg.spill.i3, align 8
  call void @llvm.dbg.declare(metadata i64* %count.dbg.spill.i3, metadata !1863, metadata !DIExpression()), !dbg !2229
  %37 = getelementptr inbounds i32, i32* %buffer, i64 7, !dbg !2230
  store i32* %37, i32** %7, align 8, !dbg !2230
  %_3.i5 = load i32*, i32** %7, align 8, !dbg !2230
  br label %bb25, !dbg !2231

bb25:                                             ; preds = %bb24
  %38 = sext i8 %_93 to i32, !dbg !2232
  store i32 %38, i32* %_3.i5, align 4, !dbg !2232
  %39 = bitcast %"volatile::some_struct"* %s to [10 x i8]*, !dbg !2233
  %40 = getelementptr inbounds [10 x i8], [10 x i8]* %39, i64 0, i64 3, !dbg !2233
  %_98 = load i8, i8* %40, align 1, !dbg !2233
  store i32* %buffer, i32** %self.dbg.spill.i, align 8
  call void @llvm.dbg.declare(metadata i32** %self.dbg.spill.i, metadata !1860, metadata !DIExpression()), !dbg !2234
  store i64 8, i64* %count.dbg.spill.i, align 8
  call void @llvm.dbg.declare(metadata i64* %count.dbg.spill.i, metadata !1863, metadata !DIExpression()), !dbg !2236
  %41 = getelementptr inbounds i32, i32* %buffer, i64 8, !dbg !2237
  store i32* %41, i32** %8, align 8, !dbg !2237
  %_3.i = load i32*, i32** %8, align 8, !dbg !2237
  br label %bb26, !dbg !2238

bb26:                                             ; preds = %bb25
  %42 = sext i8 %_98 to i32, !dbg !2239
  store i32 %42, i32* %_3.i, align 4, !dbg !2239
  br label %bb27, !dbg !2158
}

; Function Attrs: nonlazybind uwtable
define dso_local void @rust_entry2(i32 %buffer_size, i32* %buffer) unnamed_addr #1 !dbg !2240 {
start:
  %0 = alloca i32*, align 8
  %count.dbg.spill.i175 = alloca i64, align 8
  %self.dbg.spill.i176 = alloca i32*, align 8
  %1 = alloca i32*, align 8
  %count.dbg.spill.i172 = alloca i64, align 8
  %self.dbg.spill.i173 = alloca i32*, align 8
  %2 = alloca i32*, align 8
  %count.dbg.spill.i169 = alloca i64, align 8
  %self.dbg.spill.i170 = alloca i32*, align 8
  %3 = alloca i32*, align 8
  %count.dbg.spill.i166 = alloca i64, align 8
  %self.dbg.spill.i167 = alloca i32*, align 8
  %4 = alloca i32*, align 8
  %count.dbg.spill.i163 = alloca i64, align 8
  %self.dbg.spill.i164 = alloca i32*, align 8
  %5 = alloca i32*, align 8
  %count.dbg.spill.i160 = alloca i64, align 8
  %self.dbg.spill.i161 = alloca i32*, align 8
  %6 = alloca i32*, align 8
  %count.dbg.spill.i157 = alloca i64, align 8
  %self.dbg.spill.i158 = alloca i32*, align 8
  %7 = alloca i32*, align 8
  %count.dbg.spill.i154 = alloca i64, align 8
  %self.dbg.spill.i155 = alloca i32*, align 8
  %8 = alloca i32*, align 8
  %count.dbg.spill.i151 = alloca i64, align 8
  %self.dbg.spill.i152 = alloca i32*, align 8
  %9 = alloca i32*, align 8
  %count.dbg.spill.i148 = alloca i64, align 8
  %self.dbg.spill.i149 = alloca i32*, align 8
  %10 = alloca i32*, align 8
  %count.dbg.spill.i145 = alloca i64, align 8
  %self.dbg.spill.i146 = alloca i32*, align 8
  %11 = alloca i32*, align 8
  %count.dbg.spill.i142 = alloca i64, align 8
  %self.dbg.spill.i143 = alloca i32*, align 8
  %12 = alloca i32*, align 8
  %count.dbg.spill.i139 = alloca i64, align 8
  %self.dbg.spill.i140 = alloca i32*, align 8
  %13 = alloca i32*, align 8
  %count.dbg.spill.i136 = alloca i64, align 8
  %self.dbg.spill.i137 = alloca i32*, align 8
  %14 = alloca i32*, align 8
  %count.dbg.spill.i133 = alloca i64, align 8
  %self.dbg.spill.i134 = alloca i32*, align 8
  %15 = alloca i32*, align 8
  %count.dbg.spill.i130 = alloca i64, align 8
  %self.dbg.spill.i131 = alloca i32*, align 8
  %16 = alloca i32*, align 8
  %count.dbg.spill.i127 = alloca i64, align 8
  %self.dbg.spill.i128 = alloca i32*, align 8
  %17 = alloca i32*, align 8
  %count.dbg.spill.i124 = alloca i64, align 8
  %self.dbg.spill.i125 = alloca i32*, align 8
  %18 = alloca i32*, align 8
  %count.dbg.spill.i121 = alloca i64, align 8
  %self.dbg.spill.i122 = alloca i32*, align 8
  %19 = alloca i32*, align 8
  %count.dbg.spill.i118 = alloca i64, align 8
  %self.dbg.spill.i119 = alloca i32*, align 8
  %20 = alloca i32*, align 8
  %count.dbg.spill.i115 = alloca i64, align 8
  %self.dbg.spill.i116 = alloca i32*, align 8
  %21 = alloca i32*, align 8
  %count.dbg.spill.i112 = alloca i64, align 8
  %self.dbg.spill.i113 = alloca i32*, align 8
  %22 = alloca i32*, align 8
  %count.dbg.spill.i109 = alloca i64, align 8
  %self.dbg.spill.i110 = alloca i32*, align 8
  %23 = alloca i32*, align 8
  %count.dbg.spill.i106 = alloca i64, align 8
  %self.dbg.spill.i107 = alloca i32*, align 8
  %24 = alloca i32*, align 8
  %count.dbg.spill.i103 = alloca i64, align 8
  %self.dbg.spill.i104 = alloca i32*, align 8
  %25 = alloca i32*, align 8
  %count.dbg.spill.i100 = alloca i64, align 8
  %self.dbg.spill.i101 = alloca i32*, align 8
  %26 = alloca i32*, align 8
  %count.dbg.spill.i97 = alloca i64, align 8
  %self.dbg.spill.i98 = alloca i32*, align 8
  %27 = alloca i32*, align 8
  %count.dbg.spill.i94 = alloca i64, align 8
  %self.dbg.spill.i95 = alloca i32*, align 8
  %28 = alloca i32*, align 8
  %count.dbg.spill.i91 = alloca i64, align 8
  %self.dbg.spill.i92 = alloca i32*, align 8
  %29 = alloca i32*, align 8
  %count.dbg.spill.i88 = alloca i64, align 8
  %self.dbg.spill.i89 = alloca i32*, align 8
  %30 = alloca i32*, align 8
  %count.dbg.spill.i85 = alloca i64, align 8
  %self.dbg.spill.i86 = alloca i32*, align 8
  %31 = alloca i32*, align 8
  %count.dbg.spill.i82 = alloca i64, align 8
  %self.dbg.spill.i83 = alloca i32*, align 8
  %32 = alloca i32*, align 8
  %count.dbg.spill.i79 = alloca i64, align 8
  %self.dbg.spill.i80 = alloca i32*, align 8
  %33 = alloca i32*, align 8
  %count.dbg.spill.i76 = alloca i64, align 8
  %self.dbg.spill.i77 = alloca i32*, align 8
  %34 = alloca i32*, align 8
  %count.dbg.spill.i73 = alloca i64, align 8
  %self.dbg.spill.i74 = alloca i32*, align 8
  %35 = alloca i32*, align 8
  %count.dbg.spill.i70 = alloca i64, align 8
  %self.dbg.spill.i71 = alloca i32*, align 8
  %36 = alloca i32*, align 8
  %count.dbg.spill.i67 = alloca i64, align 8
  %self.dbg.spill.i68 = alloca i32*, align 8
  %37 = alloca i32*, align 8
  %count.dbg.spill.i64 = alloca i64, align 8
  %self.dbg.spill.i65 = alloca i32*, align 8
  %38 = alloca i32*, align 8
  %count.dbg.spill.i61 = alloca i64, align 8
  %self.dbg.spill.i62 = alloca i32*, align 8
  %39 = alloca i32*, align 8
  %count.dbg.spill.i58 = alloca i64, align 8
  %self.dbg.spill.i59 = alloca i32*, align 8
  %40 = alloca i32*, align 8
  %count.dbg.spill.i55 = alloca i64, align 8
  %self.dbg.spill.i56 = alloca i32*, align 8
  %41 = alloca i32*, align 8
  %count.dbg.spill.i52 = alloca i64, align 8
  %self.dbg.spill.i53 = alloca i32*, align 8
  %42 = alloca i32*, align 8
  %count.dbg.spill.i49 = alloca i64, align 8
  %self.dbg.spill.i50 = alloca i32*, align 8
  %43 = alloca i32*, align 8
  %count.dbg.spill.i46 = alloca i64, align 8
  %self.dbg.spill.i47 = alloca i32*, align 8
  %44 = alloca i32*, align 8
  %count.dbg.spill.i43 = alloca i64, align 8
  %self.dbg.spill.i44 = alloca i32*, align 8
  %45 = alloca i32*, align 8
  %count.dbg.spill.i40 = alloca i64, align 8
  %self.dbg.spill.i41 = alloca i32*, align 8
  %46 = alloca i32*, align 8
  %count.dbg.spill.i37 = alloca i64, align 8
  %self.dbg.spill.i38 = alloca i32*, align 8
  %47 = alloca i32*, align 8
  %count.dbg.spill.i34 = alloca i64, align 8
  %self.dbg.spill.i35 = alloca i32*, align 8
  %48 = alloca i32*, align 8
  %count.dbg.spill.i31 = alloca i64, align 8
  %self.dbg.spill.i32 = alloca i32*, align 8
  %49 = alloca i32*, align 8
  %count.dbg.spill.i28 = alloca i64, align 8
  %self.dbg.spill.i29 = alloca i32*, align 8
  %50 = alloca i32*, align 8
  %count.dbg.spill.i25 = alloca i64, align 8
  %self.dbg.spill.i26 = alloca i32*, align 8
  %51 = alloca i32*, align 8
  %count.dbg.spill.i22 = alloca i64, align 8
  %self.dbg.spill.i23 = alloca i32*, align 8
  %52 = alloca i32*, align 8
  %count.dbg.spill.i19 = alloca i64, align 8
  %self.dbg.spill.i20 = alloca i32*, align 8
  %53 = alloca i32*, align 8
  %count.dbg.spill.i16 = alloca i64, align 8
  %self.dbg.spill.i17 = alloca i32*, align 8
  %54 = alloca i32*, align 8
  %count.dbg.spill.i13 = alloca i64, align 8
  %self.dbg.spill.i14 = alloca i32*, align 8
  %55 = alloca i32*, align 8
  %count.dbg.spill.i10 = alloca i64, align 8
  %self.dbg.spill.i11 = alloca i32*, align 8
  %56 = alloca i32*, align 8
  %count.dbg.spill.i7 = alloca i64, align 8
  %self.dbg.spill.i8 = alloca i32*, align 8
  %57 = alloca i32*, align 8
  %count.dbg.spill.i = alloca i64, align 8
  %self.dbg.spill.i = alloca i32*, align 8
  %fresh55.dbg.spill = alloca i32*, align 8
  %fresh54.dbg.spill = alloca i32*, align 8
  %fresh53.dbg.spill = alloca i32*, align 8
  %fresh52.dbg.spill = alloca i32*, align 8
  %fresh51.dbg.spill = alloca i32*, align 8
  %fresh50.dbg.spill = alloca i32*, align 8
  %fresh49.dbg.spill = alloca i32*, align 8
  %fresh48.dbg.spill = alloca i32*, align 8
  %fresh47.dbg.spill = alloca i32*, align 8
  %fresh46.dbg.spill = alloca i32*, align 8
  %fresh45.dbg.spill = alloca i32*, align 8
  %fresh44.dbg.spill = alloca i32*, align 8
  %fresh43.dbg.spill = alloca i32*, align 8
  %fresh42.dbg.spill = alloca i32*, align 8
  %fresh41.dbg.spill = alloca i32*, align 8
  %fresh40.dbg.spill = alloca i32*, align 8
  %fresh39.dbg.spill = alloca i32*, align 8
  %fresh38.dbg.spill = alloca i32*, align 8
  %fresh37.dbg.spill = alloca i32*, align 8
  %fresh36.dbg.spill = alloca i32*, align 8
  %fresh35.dbg.spill = alloca i32*, align 8
  %fresh34.dbg.spill = alloca i32*, align 8
  %fresh33.dbg.spill = alloca i32*, align 8
  %fresh32.dbg.spill = alloca i32*, align 8
  %fresh31.dbg.spill = alloca i32*, align 8
  %fresh30.dbg.spill = alloca i32*, align 8
  %fresh29.dbg.spill = alloca i32*, align 8
  %fresh28.dbg.spill = alloca i32*, align 8
  %fresh27.dbg.spill = alloca i32*, align 8
  %fresh26.dbg.spill = alloca i32*, align 8
  %fresh25.dbg.spill = alloca i32*, align 8
  %fresh24.dbg.spill = alloca i32*, align 8
  %fresh23.dbg.spill = alloca i32*, align 8
  %fresh22.dbg.spill = alloca i32*, align 8
  %fresh21.dbg.spill = alloca i32*, align 8
  %fresh20.dbg.spill = alloca i32*, align 8
  %fresh19.dbg.spill = alloca i32*, align 8
  %fresh17.dbg.spill = alloca i32*, align 8
  %fresh16.dbg.spill = alloca i32*, align 8
  %fresh15.dbg.spill = alloca i32*, align 8
  %fresh14.dbg.spill = alloca i32*, align 8
  %fresh12.dbg.spill = alloca i32*, align 8
  %fresh11.dbg.spill = alloca i32*, align 8
  %fresh10.dbg.spill = alloca i32*, align 8
  %fresh9.dbg.spill = alloca i32*, align 8
  %fresh8.dbg.spill = alloca i32*, align 8
  %fresh7.dbg.spill = alloca i32*, align 8
  %fresh6.dbg.spill = alloca i32*, align 8
  %fresh5.dbg.spill = alloca i32*, align 8
  %fresh4.dbg.spill = alloca i32*, align 8
  %fresh3.dbg.spill = alloca i32*, align 8
  %fresh2.dbg.spill = alloca i32*, align 8
  %fresh1.dbg.spill = alloca i32*, align 8
  %fresh0.dbg.spill = alloca i32*, align 8
  %buffer.dbg.spill = alloca i32*, align 8
  %buffer_size.dbg.spill = alloca i32, align 4
  %p = alloca i32*, align 8
  store i32 %buffer_size, i32* %buffer_size.dbg.spill, align 4
  call void @llvm.dbg.declare(metadata i32* %buffer_size.dbg.spill, metadata !2244, metadata !DIExpression()), !dbg !2361
  store i32* %buffer, i32** %buffer.dbg.spill, align 8
  call void @llvm.dbg.declare(metadata i32** %buffer.dbg.spill, metadata !2245, metadata !DIExpression()), !dbg !2362
  call void @llvm.dbg.declare(metadata i32** %p, metadata !2246, metadata !DIExpression()), !dbg !2363
  %_3 = icmp ult i32 %buffer_size, 100, !dbg !2364
  br i1 %_3, label %bb69, label %bb1, !dbg !2364

bb1:                                              ; preds = %start
  store i32* %buffer, i32** %p, align 8, !dbg !2365
  %58 = load i32*, i32** %p, align 8, !dbg !2366
  store i32 1, i32* %58, align 4, !dbg !2366
  %_9 = load i32*, i32** %p, align 8, !dbg !2367
  store i32* %_9, i32** %self.dbg.spill.i176, align 8
  call void @llvm.dbg.declare(metadata i32** %self.dbg.spill.i176, metadata !1860, metadata !DIExpression()), !dbg !2368
  store i64 1, i64* %count.dbg.spill.i175, align 8
  call void @llvm.dbg.declare(metadata i64* %count.dbg.spill.i175, metadata !1863, metadata !DIExpression()), !dbg !2370
  %59 = getelementptr inbounds i32, i32* %_9, i64 1, !dbg !2371
  store i32* %59, i32** %0, align 8, !dbg !2371
  %_3.i177 = load i32*, i32** %0, align 8, !dbg !2371
  br label %bb2, !dbg !2367

bb69:                                             ; preds = %bb68, %start
  ret void, !dbg !2372

bb2:                                              ; preds = %bb1
  store i32* %_3.i177, i32** %p, align 8, !dbg !2373
  %fresh0 = load i32*, i32** %p, align 8, !dbg !2374
  store i32* %fresh0, i32** %fresh0.dbg.spill, align 8, !dbg !2374
  call void @llvm.dbg.declare(metadata i32** %fresh0.dbg.spill, metadata !2248, metadata !DIExpression()), !dbg !2375
  %_12 = load i32*, i32** %p, align 8, !dbg !2376
  store i32* %_12, i32** %self.dbg.spill.i173, align 8
  call void @llvm.dbg.declare(metadata i32** %self.dbg.spill.i173, metadata !1860, metadata !DIExpression()), !dbg !2377
  store i64 1, i64* %count.dbg.spill.i172, align 8
  call void @llvm.dbg.declare(metadata i64* %count.dbg.spill.i172, metadata !1863, metadata !DIExpression()), !dbg !2379
  %60 = getelementptr inbounds i32, i32* %_12, i64 1, !dbg !2380
  store i32* %60, i32** %1, align 8, !dbg !2380
  %_3.i174 = load i32*, i32** %1, align 8, !dbg !2380
  br label %bb3, !dbg !2376

bb3:                                              ; preds = %bb2
  store i32* %_3.i174, i32** %p, align 8, !dbg !2381
  store i32 2, i32* %fresh0, align 4, !dbg !2382
  %_15 = load i32*, i32** %p, align 8, !dbg !2383
  store i32* %_15, i32** %self.dbg.spill.i170, align 8
  call void @llvm.dbg.declare(metadata i32** %self.dbg.spill.i170, metadata !1860, metadata !DIExpression()), !dbg !2384
  store i64 1, i64* %count.dbg.spill.i169, align 8
  call void @llvm.dbg.declare(metadata i64* %count.dbg.spill.i169, metadata !1863, metadata !DIExpression()), !dbg !2386
  %61 = getelementptr inbounds i32, i32* %_15, i64 1, !dbg !2387
  store i32* %61, i32** %2, align 8, !dbg !2387
  %_3.i171 = load i32*, i32** %2, align 8, !dbg !2387
  br label %bb4, !dbg !2383

bb4:                                              ; preds = %bb3
  store i32* %_3.i171, i32** %p, align 8, !dbg !2388
  %62 = load i32*, i32** %p, align 8, !dbg !2389
  %63 = load i32, i32* %62, align 4, !dbg !2389
  %64 = call { i32, i1 } @llvm.sadd.with.overflow.i32(i32 %63, i32 1), !dbg !2389
  %_16.0 = extractvalue { i32, i1 } %64, 0, !dbg !2389
  %_16.1 = extractvalue { i32, i1 } %64, 1, !dbg !2389
  %65 = call i1 @llvm.expect.i1(i1 %_16.1, i1 false), !dbg !2389
  br i1 %65, label %panic, label %bb5, !dbg !2389

bb5:                                              ; preds = %bb4
  %66 = load i32*, i32** %p, align 8, !dbg !2389
  store i32 %_16.0, i32* %66, align 4, !dbg !2389
  %_18 = load i32*, i32** %p, align 8, !dbg !2390
  store i32* %_18, i32** %self.dbg.spill.i167, align 8
  call void @llvm.dbg.declare(metadata i32** %self.dbg.spill.i167, metadata !1860, metadata !DIExpression()), !dbg !2391
  store i64 1, i64* %count.dbg.spill.i166, align 8
  call void @llvm.dbg.declare(metadata i64* %count.dbg.spill.i166, metadata !1863, metadata !DIExpression()), !dbg !2393
  %67 = getelementptr inbounds i32, i32* %_18, i64 1, !dbg !2394
  store i32* %67, i32** %3, align 8, !dbg !2394
  %_3.i168 = load i32*, i32** %3, align 8, !dbg !2394
  br label %bb6, !dbg !2390

panic:                                            ; preds = %bb4
; call core::panicking::panic
  call void @_ZN4core9panicking5panic17hf5844c0338bd061cE([0 x i8]* align 1 bitcast ([28 x i8]* @str.6 to [0 x i8]*), i64 28, %"core::panic::location::Location"* align 8 bitcast (<{ i8*, [16 x i8] }>* @alloc408 to %"core::panic::location::Location"*)) #13, !dbg !2389
  unreachable, !dbg !2389

bb6:                                              ; preds = %bb5
  store i32* %_3.i168, i32** %p, align 8, !dbg !2395
  %68 = load i32*, i32** %p, align 8, !dbg !2396
  %69 = load i32, i32* %68, align 4, !dbg !2396
  %70 = call { i32, i1 } @llvm.sadd.with.overflow.i32(i32 %69, i32 1), !dbg !2396
  %_19.0 = extractvalue { i32, i1 } %70, 0, !dbg !2396
  %_19.1 = extractvalue { i32, i1 } %70, 1, !dbg !2396
  %71 = call i1 @llvm.expect.i1(i1 %_19.1, i1 false), !dbg !2396
  br i1 %71, label %panic1, label %bb7, !dbg !2396

bb7:                                              ; preds = %bb6
  %72 = load i32*, i32** %p, align 8, !dbg !2396
  store i32 %_19.0, i32* %72, align 4, !dbg !2396
  %_21 = load i32*, i32** %p, align 8, !dbg !2397
  store i32* %_21, i32** %self.dbg.spill.i164, align 8
  call void @llvm.dbg.declare(metadata i32** %self.dbg.spill.i164, metadata !1860, metadata !DIExpression()), !dbg !2398
  store i64 1, i64* %count.dbg.spill.i163, align 8
  call void @llvm.dbg.declare(metadata i64* %count.dbg.spill.i163, metadata !1863, metadata !DIExpression()), !dbg !2400
  %73 = getelementptr inbounds i32, i32* %_21, i64 1, !dbg !2401
  store i32* %73, i32** %4, align 8, !dbg !2401
  %_3.i165 = load i32*, i32** %4, align 8, !dbg !2401
  br label %bb8, !dbg !2397

panic1:                                           ; preds = %bb6
; call core::panicking::panic
  call void @_ZN4core9panicking5panic17hf5844c0338bd061cE([0 x i8]* align 1 bitcast ([28 x i8]* @str.6 to [0 x i8]*), i64 28, %"core::panic::location::Location"* align 8 bitcast (<{ i8*, [16 x i8] }>* @alloc410 to %"core::panic::location::Location"*)) #13, !dbg !2396
  unreachable, !dbg !2396

bb8:                                              ; preds = %bb7
  store i32* %_3.i165, i32** %p, align 8, !dbg !2402
  %fresh1 = load i32*, i32** %p, align 8, !dbg !2403
  store i32* %fresh1, i32** %fresh1.dbg.spill, align 8, !dbg !2403
  call void @llvm.dbg.declare(metadata i32** %fresh1.dbg.spill, metadata !2250, metadata !DIExpression()), !dbg !2404
  %_24 = load i32*, i32** %p, align 8, !dbg !2405
  store i32* %_24, i32** %self.dbg.spill.i161, align 8
  call void @llvm.dbg.declare(metadata i32** %self.dbg.spill.i161, metadata !1860, metadata !DIExpression()), !dbg !2406
  store i64 1, i64* %count.dbg.spill.i160, align 8
  call void @llvm.dbg.declare(metadata i64* %count.dbg.spill.i160, metadata !1863, metadata !DIExpression()), !dbg !2408
  %74 = getelementptr inbounds i32, i32* %_24, i64 1, !dbg !2409
  store i32* %74, i32** %5, align 8, !dbg !2409
  %_3.i162 = load i32*, i32** %5, align 8, !dbg !2409
  br label %bb9, !dbg !2405

bb9:                                              ; preds = %bb8
  store i32* %_3.i162, i32** %p, align 8, !dbg !2410
  %_25.0 = load i32, i32* getelementptr inbounds ({ i32, i8 }, { i32, i8 }* bitcast (<{ [5 x i8], [3 x i8] }>* @0 to { i32, i8 }*), i32 0, i32 0), align 4, !dbg !2411
