; ModuleID = 'f128_input.d0c3c3a7-cgu.0'
source_filename = "f128_input.d0c3c3a7-cgu.0"
target datalayout = "e-m:e-p270:32:32-p271:32:32-p272:64:64-i64:64-f80:128-n8:16:32:64-S128"
target triple = "x86_64-unknown-linux-gnu"

%"std::thread::local::fast::Key<proc_macro::bridge::scoped_cell::ScopedCell<proc_macro::bridge::client::BridgeStateL>>" = type { %"std::thread::local::lazy::LazyKeyInner<proc_macro::bridge::scoped_cell::ScopedCell<proc_macro::bridge::client::BridgeStateL>>", i8, [7 x i8] }
%"std::thread::local::lazy::LazyKeyInner<proc_macro::bridge::scoped_cell::ScopedCell<proc_macro::bridge::client::BridgeStateL>>" = type { %"core::cell::UnsafeCell<core::option::Option<proc_macro::bridge::scoped_cell::ScopedCell<proc_macro::bridge::client::BridgeStateL>>>" }
%"core::cell::UnsafeCell<core::option::Option<proc_macro::bridge::scoped_cell::ScopedCell<proc_macro::bridge::client::BridgeStateL>>>" = type { %"core::option::Option<proc_macro::bridge::scoped_cell::ScopedCell<proc_macro::bridge::client::BridgeStateL>>" }
%"core::option::Option<proc_macro::bridge::scoped_cell::ScopedCell<proc_macro::bridge::client::BridgeStateL>>" = type { i64, [10 x i64] }
%"alloc::string::String" = type { %"alloc::vec::Vec<u8>" }
%"alloc::vec::Vec<u8>" = type { { i8*, i64 }, i64 }
%"core::panic::location::Location" = type { { [0 x i8]*, i64 }, i32, i32 }
%"core::ops::range::RangeFull" = type {}
%"core::ptr::metadata::PtrRepr<[u8]>" = type { [2 x i64] }
%"proc_macro::bridge::buffer::Buffer" = type { i8*, i64, i64, void (%"proc_macro::bridge::buffer::Buffer"*, %"proc_macro::bridge::buffer::Buffer"*, i64)*, void (%"proc_macro::bridge::buffer::Buffer"*)* }
%"[closure@<core::ops::range::Range<usize> as core::slice::index::SliceIndex<[u8]>>::get_unchecked_mut::{closure#0}]" = type { i64*, i64*, { [0 x i8]*, i64 }* }
%"proc_macro::bridge::ExpnGlobals<proc_macro::bridge::client::Span>" = type { i32, i32, i32 }
%"core::result::Result<(), proc_macro::bridge::rpc::PanicMessage>" = type { i64, [3 x i64] }
%"proc_macro::bridge::rpc::PanicMessage" = type { i64, [3 x i64] }
%"core::result::Result<(), proc_macro::bridge::rpc::PanicMessage>::Err" = type { %"proc_macro::bridge::rpc::PanicMessage" }
%"proc_macro::bridge::scoped_cell::ScopedCell<proc_macro::bridge::client::BridgeStateL>" = type { %"core::cell::Cell<proc_macro::bridge::client::BridgeState>" }
%"core::cell::Cell<proc_macro::bridge::client::BridgeState>" = type { %"core::cell::UnsafeCell<proc_macro::bridge::client::BridgeState>" }
%"core::cell::UnsafeCell<proc_macro::bridge::client::BridgeState>" = type { %"proc_macro::bridge::client::BridgeState" }
%"proc_macro::bridge::client::BridgeState" = type { i64, [9 x i64] }
%"[closure@proc_macro::bridge::client::run_client<proc_macro::bridge::client::TokenStream, core::option::Option<proc_macro::bridge::client::TokenStream>, [closure@proc_macro::bridge::client::Client<proc_macro::TokenStream, proc_macro::TokenStream>::expand1<fn(proc_macro::TokenStream) -> proc_macro::TokenStream {f128_inner}>::{closure#0}::{closure#0}]>::{closure#0}::{closure#0}::{closure#0}]" = type { i8*, %"proc_macro::bridge::buffer::Buffer"*, i32, [1 x i32] }
%"[closure@proc_macro::bridge::scoped_cell::ScopedCell<proc_macro::bridge::client::BridgeStateL>::set<(), [closure@proc_macro::bridge::client::run_client<proc_macro::bridge::client::TokenStream, core::option::Option<proc_macro::bridge::client::TokenStream>, [closure@proc_macro::bridge::client::Client<proc_macro::TokenStream, proc_macro::TokenStream>::expand1<fn(proc_macro::TokenStream) -> proc_macro::TokenStream {f128_inner}>::{closure#0}::{closure#0}]>::{closure#0}::{closure#0}::{closure#0}]>::{closure#0}]" = type { %"[closure@proc_macro::bridge::client::run_client<proc_macro::bridge::client::TokenStream, core::option::Option<proc_macro::bridge::client::TokenStream>, [closure@proc_macro::bridge::client::Client<proc_macro::TokenStream, proc_macro::TokenStream>::expand1<fn(proc_macro::TokenStream) -> proc_macro::TokenStream {f128_inner}>::{closure#0}::{closure#0}]>::{closure#0}::{closure#0}::{closure#0}]" }
%"core::option::Option<proc_macro::bridge::client::BridgeState>" = type { i64, [9 x i64] }
%"proc_macro::bridge::scoped_cell::ScopedCell<T>::replace::PutBackOnDrop<proc_macro::bridge::client::BridgeStateL>" = type { %"proc_macro::bridge::scoped_cell::ScopedCell<proc_macro::bridge::client::BridgeStateL>"*, %"core::option::Option<proc_macro::bridge::client::BridgeState>" }
%"core::option::Option<proc_macro::bridge::client::BridgeState>::Some" = type { %"proc_macro::bridge::client::BridgeState" }
%"[closure@proc_macro::bridge::client::BridgeState::with<proc_macro::bridge::buffer::Buffer, [closure@proc_macro::bridge::client::Bridge::with<proc_macro::bridge::buffer::Buffer, [closure@proc_macro::bridge::client::run_client<proc_macro::bridge::client::TokenStream, core::option::Option<proc_macro::bridge::client::TokenStream>, [closure@proc_macro::bridge::client::Client<proc_macro::TokenStream, proc_macro::TokenStream>::expand1<fn(proc_macro::TokenStream) -> proc_macro::TokenStream {f128_inner}>::{closure#0}::{closure#0}]>::{closure#0}::{closure#0}::{closure#0}::{closure#0}]>::{closure#0}]>::{closure#0}::{closure#0}]" = type { %"[closure@proc_macro::bridge::client::Bridge::with<proc_macro::bridge::buffer::Buffer, [closure@proc_macro::bridge::client::run_client<proc_macro::bridge::client::TokenStream, core::option::Option<proc_macro::bridge::client::TokenStream>, [closure@proc_macro::bridge::client::Client<proc_macro::TokenStream, proc_macro::TokenStream>::expand1<fn(proc_macro::TokenStream) -> proc_macro::TokenStream {f128_inner}>::{closure#0}::{closure#0}]>::{closure#0}::{closure#0}::{closure#0}::{closure#0}]>::{closure#0}]" }
%"[closure@proc_macro::bridge::client::Bridge::with<proc_macro::bridge::buffer::Buffer, [closure@proc_macro::bridge::client::run_client<proc_macro::bridge::client::TokenStream, core::option::Option<proc_macro::bridge::client::TokenStream>, [closure@proc_macro::bridge::client::Client<proc_macro::TokenStream, proc_macro::TokenStream>::expand1<fn(proc_macro::TokenStream) -> proc_macro::TokenStream {f128_inner}>::{closure#0}::{closure#0}]>::{closure#0}::{closure#0}::{closure#0}::{closure#0}]>::{closure#0}]" = type { %"[closure@proc_macro::bridge::client::run_client<proc_macro::bridge::client::TokenStream, core::option::Option<proc_macro::bridge::client::TokenStream>, [closure@proc_macro::bridge::client::Client<proc_macro::TokenStream, proc_macro::TokenStream>::expand1<fn(proc_macro::TokenStream) -> proc_macro::TokenStream {f128_inner}>::{closure#0}::{closure#0}]>::{closure#0}::{closure#0}::{closure#0}::{closure#0}]" }
%"[closure@proc_macro::bridge::client::run_client<proc_macro::bridge::client::TokenStream, core::option::Option<proc_macro::bridge::client::TokenStream>, [closure@proc_macro::bridge::client::Client<proc_macro::TokenStream, proc_macro::TokenStream>::expand1<fn(proc_macro::TokenStream) -> proc_macro::TokenStream {f128_inner}>::{closure#0}::{closure#0}]>::{closure#0}::{closure#0}::{closure#0}::{closure#0}]" = type {}
%"proc_macro::bridge::BridgeConfig" = type { %"proc_macro::bridge::buffer::Buffer", { i64*, i8* }, i8, %"core::marker::PhantomData<*mut ()>", [7 x i8] }
%"core::marker::PhantomData<*mut ()>" = type {}
%"core::mem::manually_drop::ManuallyDrop<[closure@proc_macro::bridge::client::Client<proc_macro::TokenStream, proc_macro::TokenStream>::expand1<fn(proc_macro::TokenStream) -> proc_macro::TokenStream {f128_inner}>::{closure#0}]>" = type { %"[closure@proc_macro::bridge::client::Client<proc_macro::TokenStream, proc_macro::TokenStream>::expand1<fn(proc_macro::TokenStream) -> proc_macro::TokenStream {f128_inner}>::{closure#0}]" }
%"[closure@proc_macro::bridge::client::Client<proc_macro::TokenStream, proc_macro::TokenStream>::expand1<fn(proc_macro::TokenStream) -> proc_macro::TokenStream {f128_inner}>::{closure#0}]" = type { {} }
%"core::mem::maybe_uninit::MaybeUninit<[closure@proc_macro::bridge::client::Client<proc_macro::TokenStream, proc_macro::TokenStream>::expand1<fn(proc_macro::TokenStream) -> proc_macro::TokenStream {f128_inner}>::{closure#0}]>" = type { [0 x i8] }
%"[closure@core::intrinsics::copy_nonoverlapping<u8>::{closure#0}]" = type { i8**, i8**, i64* }
%"[closure@proc_macro::bridge::client::run_client<proc_macro::bridge::client::TokenStream, core::option::Option<proc_macro::bridge::client::TokenStream>, [closure@proc_macro::bridge::client::Client<proc_macro::TokenStream, proc_macro::TokenStream>::expand1<fn(proc_macro::TokenStream) -> proc_macro::TokenStream {f128_inner}>::{closure#0}::{closure#0}]>::{closure#0}]" = type { i8*, %"proc_macro::bridge::buffer::Buffer"*, { i64*, i8* }, i8* }
%"core::panic::unwind_safe::AssertUnwindSafe<[closure@proc_macro::bridge::client::run_client<proc_macro::bridge::client::TokenStream, core::option::Option<proc_macro::bridge::client::TokenStream>, [closure@proc_macro::bridge::client::Client<proc_macro::TokenStream, proc_macro::TokenStream>::expand1<fn(proc_macro::TokenStream) -> proc_macro::TokenStream {f128_inner}>::{closure#0}::{closure#0}]>::{closure#0}]>" = type { %"[closure@proc_macro::bridge::client::run_client<proc_macro::bridge::client::TokenStream, core::option::Option<proc_macro::bridge::client::TokenStream>, [closure@proc_macro::bridge::client::Client<proc_macro::TokenStream, proc_macro::TokenStream>::expand1<fn(proc_macro::TokenStream) -> proc_macro::TokenStream {f128_inner}>::{closure#0}::{closure#0}]>::{closure#0}]" }
%"[closure@proc_macro::bridge::client::run_client<proc_macro::bridge::client::TokenStream, core::option::Option<proc_macro::bridge::client::TokenStream>, [closure@proc_macro::bridge::client::Client<proc_macro::TokenStream, proc_macro::TokenStream>::expand1<fn(proc_macro::TokenStream) -> proc_macro::TokenStream {f128_inner}>::{closure#0}::{closure#0}]>::{closure#0}::{closure#0}]" = type { %"proc_macro::bridge::client::BridgeState", i8*, %"proc_macro::bridge::buffer::Buffer"*, i32, [1 x i32] }
%"proc_macro::bridge::client::Bridge" = type { %"proc_macro::bridge::buffer::Buffer", { i64*, i8* }, %"proc_macro::bridge::ExpnGlobals<proc_macro::bridge::client::Span>", [1 x i32] }
%"proc_macro::bridge::client::BridgeState::Connected" = type { [1 x i64], %"proc_macro::bridge::client::Bridge" }
%"[closure@proc_macro::bridge::client::BridgeState::with<proc_macro::bridge::buffer::Buffer, [closure@proc_macro::bridge::client::Bridge::with<proc_macro::bridge::buffer::Buffer, [closure@proc_macro::bridge::client::run_client<proc_macro::bridge::client::TokenStream, core::option::Option<proc_macro::bridge::client::TokenStream>, [closure@proc_macro::bridge::client::Client<proc_macro::TokenStream, proc_macro::TokenStream>::expand1<fn(proc_macro::TokenStream) -> proc_macro::TokenStream {f128_inner}>::{closure#0}::{closure#0}]>::{closure#0}::{closure#0}::{closure#0}::{closure#0}]>::{closure#0}]>::{closure#0}]" = type { %"[closure@proc_macro::bridge::client::Bridge::with<proc_macro::bridge::buffer::Buffer, [closure@proc_macro::bridge::client::run_client<proc_macro::bridge::client::TokenStream, core::option::Option<proc_macro::bridge::client::TokenStream>, [closure@proc_macro::bridge::client::Client<proc_macro::TokenStream, proc_macro::TokenStream>::expand1<fn(proc_macro::TokenStream) -> proc_macro::TokenStream {f128_inner}>::{closure#0}::{closure#0}]>::{closure#0}::{closure#0}::{closure#0}::{closure#0}]>::{closure#0}]" }
%"core::option::Option<proc_macro::bridge::scoped_cell::ScopedCell<proc_macro::bridge::client::BridgeStateL>>::Some" = type { [1 x i64], %"proc_macro::bridge::scoped_cell::ScopedCell<proc_macro::bridge::client::BridgeStateL>" }
%"core::fmt::Arguments" = type { { [0 x { [0 x i8]*, i64 }]*, i64 }, { i64*, i64 }, { [0 x { i8*, i64* }]*, i64 } }
%"core::result::Result<f128_internal::f128_t::f128, alloc::ffi::c_str::NulError>" = type { i8, [39 x i8] }
%"f128_internal::f128_t::f128" = type { [16 x i8] }
%"core::result::Result<core::convert::Infallible, alloc::ffi::c_str::NulError>::Err" = type { %"alloc::ffi::c_str::NulError" }
%"alloc::ffi::c_str::NulError" = type { i64, %"alloc::vec::Vec<u8>" }
%"core::result::Result<alloc::ffi::c_str::CString, alloc::ffi::c_str::NulError>" = type { i64, [4 x i64] }
%"core::ops::control_flow::ControlFlow<core::result::Result<core::convert::Infallible, alloc::ffi::c_str::NulError>, alloc::ffi::c_str::CString>" = type { i64, [4 x i64] }
%"core::ops::control_flow::ControlFlow<core::result::Result<core::convert::Infallible, alloc::ffi::c_str::NulError>, alloc::ffi::c_str::CString>::Continue" = type { [1 x i64], { i8*, i64 } }
%"core::ffi::c_str::CStr" = type { [0 x i8] }
%"core::ops::control_flow::ControlFlow<core::result::Result<core::convert::Infallible, alloc::ffi::c_str::NulError>, alloc::ffi::c_str::CString>::Break" = type { [1 x i64], %"core::result::Result<core::convert::Infallible, alloc::ffi::c_str::NulError>::Err" }
%"core::result::Result<f128_internal::f128_t::f128, alloc::ffi::c_str::NulError>::Ok" = type { [1 x i8], %"f128_internal::f128_t::f128" }
%"core::result::Result<f128_internal::f128_t::f128, alloc::ffi::c_str::NulError>::Err" = type { [1 x i64], %"alloc::ffi::c_str::NulError" }
%"[closure@std::panicking::begin_panic<alloc::string::String>::{closure#0}]" = type { %"alloc::string::String", %"core::panic::location::Location"* }
%"std::io::error::ErrorData<alloc::boxed::Box<std::io::error::Custom>>" = type { i8, [15 x i8] }
%"std::io::error::SimpleMessage" = type { { [0 x i8]*, i64 }, i8, [7 x i8] }
%"std::io::error::Custom" = type { { {}*, [3 x i64]* }, i8, [7 x i8] }
%"[closure@<std::io::error::repr_bitpacked::Repr as core::ops::drop::Drop>::drop::{closure#0}]" = type {}
%"std::io::error::ErrorData<alloc::boxed::Box<std::io::error::Custom>>::Os" = type { [1 x i32], i32 }
%"std::io::error::ErrorData<alloc::boxed::Box<std::io::error::Custom>>::SimpleMessage" = type { [1 x i64], %"std::io::error::SimpleMessage"* }
%"std::io::error::ErrorData<alloc::boxed::Box<std::io::error::Custom>>::Custom" = type { [1 x i64], %"std::io::error::Custom"* }
%"std::io::error::ErrorData<alloc::boxed::Box<std::io::error::Custom>>::Simple" = type { [1 x i8], i8 }
%"core::fmt::UnsafeArg" = type { {} }
%"core::result::Result<proc_macro::bridge::buffer::Buffer, std::thread::local::AccessError>" = type { [3 x i64], {}*, [1 x i64] }
%"std::thread::local::AccessError" = type {}
%"core::result::Result<core::convert::Infallible, std::thread::local::AccessError>::Err" = type { %"std::thread::local::AccessError" }
%"core::result::Result<proc_macro::bridge::buffer::Buffer, std::thread::local::AccessError>::Ok" = type { %"proc_macro::bridge::buffer::Buffer" }
%"std::panicking::begin_panic::PanicPayload<alloc::string::String>" = type { %"core::option::Option<alloc::string::String>" }
%"core::option::Option<alloc::string::String>" = type { {}*, [2 x i64] }
%"core::option::Option<alloc::string::String>::Some" = type { %"alloc::string::String" }
%"core::mem::manually_drop::ManuallyDrop<()>" = type { {} }
%"core::mem::manually_drop::ManuallyDrop<core::panic::unwind_safe::AssertUnwindSafe<[closure@proc_macro::bridge::client::run_client<proc_macro::bridge::client::TokenStream, core::option::Option<proc_macro::bridge::client::TokenStream>, [closure@proc_macro::bridge::client::Client<proc_macro::TokenStream, proc_macro::TokenStream>::expand1<fn(proc_macro::TokenStream) -> proc_macro::TokenStream {f128_inner}>::{closure#0}::{closure#0}]>::{closure#0}]>>" = type { %"core::panic::unwind_safe::AssertUnwindSafe<[closure@proc_macro::bridge::client::run_client<proc_macro::bridge::client::TokenStream, core::option::Option<proc_macro::bridge::client::TokenStream>, [closure@proc_macro::bridge::client::Client<proc_macro::TokenStream, proc_macro::TokenStream>::expand1<fn(proc_macro::TokenStream) -> proc_macro::TokenStream {f128_inner}>::{closure#0}::{closure#0}]>::{closure#0}]>" }
%"std::panicking::try::Data<core::panic::unwind_safe::AssertUnwindSafe<[closure@proc_macro::bridge::client::run_client<proc_macro::bridge::client::TokenStream, core::option::Option<proc_macro::bridge::client::TokenStream>, [closure@proc_macro::bridge::client::Client<proc_macro::TokenStream, proc_macro::TokenStream>::expand1<fn(proc_macro::TokenStream) -> proc_macro::TokenStream {f128_inner}>::{closure#0}::{closure#0}]>::{closure#0}]>, ()>" = type { [5 x i64] }
%"core::result::Result<(), alloc::boxed::Box<dyn core::any::Any + core::marker::Send>>::Ok" = type { {} }
%"core::mem::maybe_uninit::MaybeUninit<core::panic::unwind_safe::AssertUnwindSafe<[closure@proc_macro::bridge::client::run_client<proc_macro::bridge::client::TokenStream, core::option::Option<proc_macro::bridge::client::TokenStream>, [closure@proc_macro::bridge::client::Client<proc_macro::TokenStream, proc_macro::TokenStream>::expand1<fn(proc_macro::TokenStream) -> proc_macro::TokenStream {f128_inner}>::{closure#0}::{closure#0}]>::{closure#0}]>>" = type { [5 x i64] }
%"core::fmt::Formatter" = type { { i64, i64 }, { i64, i64 }, { {}*, [3 x i64]* }, i32, i32, i8, [7 x i8] }
%"core::fmt::builders::DebugList" = type { %"core::fmt::builders::DebugInner" }
%"core::fmt::builders::DebugInner" = type { %"core::fmt::Formatter"*, i8, i8, [6 x i8] }
%"core::fmt::Opaque" = type {}
%"core::mem::maybe_uninit::MaybeUninit<proc_macro::bridge::client::BridgeState>" = type { [10 x i64] }
%"core::mem::manually_drop::ManuallyDrop<proc_macro::bridge::client::BridgeState>" = type { %"proc_macro::bridge::client::BridgeState" }
%"core::mem::maybe_uninit::MaybeUninit<core::option::Option<proc_macro::bridge::scoped_cell::ScopedCell<proc_macro::bridge::client::BridgeStateL>>>" = type { [11 x i64] }
%"core::mem::manually_drop::ManuallyDrop<core::option::Option<proc_macro::bridge::scoped_cell::ScopedCell<proc_macro::bridge::client::BridgeStateL>>>" = type { %"core::option::Option<proc_macro::bridge::scoped_cell::ScopedCell<proc_macro::bridge::client::BridgeStateL>>" }
%"core::mem::maybe_uninit::MaybeUninit<core::option::Option<proc_macro::bridge::client::BridgeState>>" = type { [10 x i64] }
%"core::mem::manually_drop::ManuallyDrop<core::option::Option<proc_macro::bridge::client::BridgeState>>" = type { %"core::option::Option<proc_macro::bridge::client::BridgeState>" }
%"core::mem::maybe_uninit::MaybeUninit<proc_macro::bridge::buffer::Buffer>" = type { [5 x i64] }
%"core::mem::manually_drop::ManuallyDrop<proc_macro::bridge::buffer::Buffer>" = type { %"proc_macro::bridge::buffer::Buffer" }
%"core::mem::maybe_uninit::MaybeUninit<core::option::Option<alloc::string::String>>" = type { [3 x i64] }
%"core::mem::manually_drop::ManuallyDrop<core::option::Option<alloc::string::String>>" = type { %"core::option::Option<alloc::string::String>" }
%"proc_macro::LexError" = type {}
%"proc_macro::bridge::rpc::PanicMessage::String" = type { [1 x i64], %"alloc::string::String" }
%"core::str::pattern::CharSearcher" = type { { [0 x i8]*, i64 }, i64, i64, i64, i32, [4 x i8] }
%"core::option::Option<(usize, &str)>" = type { [1 x i64], {}*, [1 x i64] }
%"core::option::Option<(usize, usize)>" = type { i64, [2 x i64] }
%"core::option::Option<(usize, usize)>::Some" = type { [1 x i64], { i64, i64 } }
%"core::option::Option<(usize, &str)>::Some" = type { { i64, { [0 x i8]*, i64 } } }
%"core::result::Result<core::ptr::non_null::NonNull<[u8]>, alloc::collections::TryReserveError>" = type { i64, [2 x i64] }
%"core::alloc::AllocError" = type {}
%"core::result::Result<core::ptr::non_null::NonNull<[u8]>, alloc::collections::TryReserveError>::Ok" = type { [1 x i64], { i8*, i64 } }
%"core::result::Result<core::ptr::non_null::NonNull<[u8]>, alloc::collections::TryReserveError>::Err" = type { [1 x i64], { i64, i64 } }
%"[closure@alloc::raw_vec::handle_reserve::{closure#0}]" = type {}
%"core::result::Result<(), alloc::collections::TryReserveErrorKind>::Ok" = type { {} }
%"core::result::Result<core::alloc::layout::Layout, alloc::collections::TryReserveErrorKind>" = type { i64, [2 x i64] }
%"core::alloc::layout::LayoutError" = type {}
%"[closure@alloc::raw_vec::finish_grow<alloc::alloc::Global>::{closure#0}]" = type {}
%"core::result::Result<core::alloc::layout::Layout, alloc::collections::TryReserveErrorKind>::Ok" = type { [1 x i64], { i64, i64 } }
%"core::result::Result<core::alloc::layout::Layout, alloc::collections::TryReserveErrorKind>::Err" = type { [1 x i64], { i64, i64 } }
%"core::result::Result<(), proc_macro::bridge::rpc::PanicMessage>::Ok" = type { {} }
%"core::str::iter::MatchIndicesInternal<char>" = type { %"core::str::pattern::CharSearcher" }
%"core::str::iter::MatchIndices<char>" = type { %"core::str::iter::MatchIndicesInternal<char>" }
%"alloc::alloc::Global" = type {}
%"core::result::Result<core::convert::Infallible, core::alloc::AllocError>::Err" = type { %"core::alloc::AllocError" }
%"core::mem::maybe_uninit::MaybeUninit<alloc::alloc::Global>" = type { [0 x i8] }
%"core::mem::manually_drop::ManuallyDrop<alloc::alloc::Global>" = type { %"alloc::alloc::Global" }
%"core::option::Option<(core::ptr::non_null::NonNull<u8>, core::alloc::layout::Layout)>" = type { [2 x i64], i64 }
%"core::ops::control_flow::ControlFlow<core::result::Result<core::convert::Infallible, alloc::collections::TryReserveErrorKind>, core::alloc::layout::Layout>" = type { i64, [2 x i64] }
%"core::ops::control_flow::ControlFlow<core::result::Result<core::convert::Infallible, alloc::collections::TryReserveErrorKind>, core::alloc::layout::Layout>::Continue" = type { [1 x i64], { i64, i64 } }
%"core::ops::control_flow::ControlFlow<core::result::Result<core::convert::Infallible, alloc::collections::TryReserveErrorKind>, core::alloc::layout::Layout>::Break" = type { [1 x i64], { i64, i64 } }
%"core::option::Option<(core::ptr::non_null::NonNull<u8>, core::alloc::layout::Layout)>::Some" = type { { i8*, { i64, i64 } } }
%"core::ops::control_flow::ControlFlow<core::result::Result<core::convert::Infallible, alloc::collections::TryReserveError>, core::ptr::non_null::NonNull<[u8]>>" = type { i64, [2 x i64] }
%"core::result::Result<usize, alloc::collections::TryReserveErrorKind>" = type { i64, [2 x i64] }
%"core::ops::control_flow::ControlFlow<core::result::Result<core::convert::Infallible, alloc::collections::TryReserveErrorKind>, usize>" = type { i64, [2 x i64] }
%"core::result::Result<usize, alloc::collections::TryReserveErrorKind>::Err" = type { [1 x i64], { i64, i64 } }
%"core::result::Result<usize, alloc::collections::TryReserveErrorKind>::Ok" = type { [1 x i64], i64 }
%"core::ops::control_flow::ControlFlow<core::result::Result<core::convert::Infallible, alloc::collections::TryReserveErrorKind>, usize>::Continue" = type { [1 x i64], i64 }
%"core::ops::control_flow::ControlFlow<core::result::Result<core::convert::Infallible, alloc::collections::TryReserveErrorKind>, usize>::Break" = type { [1 x i64], { i64, i64 } }
%"core::ops::control_flow::ControlFlow<core::result::Result<core::convert::Infallible, alloc::collections::TryReserveError>, core::ptr::non_null::NonNull<[u8]>>::Continue" = type { [1 x i64], { i8*, i64 } }
%"core::ops::control_flow::ControlFlow<core::result::Result<core::convert::Infallible, alloc::collections::TryReserveError>, core::ptr::non_null::NonNull<[u8]>>::Break" = type { [1 x i64], { i64, i64 } }
%"core::result::Result<alloc::ffi::c_str::CString, alloc::ffi::c_str::NulError>::Ok" = type { [1 x i64], { i8*, i64 } }
%"core::result::Result<alloc::ffi::c_str::CString, alloc::ffi::c_str::NulError>::Err" = type { [1 x i64], %"alloc::ffi::c_str::NulError" }
%"core::option::Option<core::convert::Infallible>::None" = type {}
%"unwind::libunwind::_Unwind_Exception" = type { i64, void (i32, %"unwind::libunwind::_Unwind_Exception"*)*, [6 x i64] }
%"unwind::libunwind::_Unwind_Context" = type { [0 x i8] }
%"proc_macro::bridge::client::HandleCounters" = type { %"core::sync::atomic::AtomicUsize", %"core::sync::atomic::AtomicUsize", %"core::sync::atomic::AtomicUsize", %"core::sync::atomic::AtomicUsize", %"core::sync::atomic::AtomicUsize", %"core::sync::atomic::AtomicUsize" }
%"core::sync::atomic::AtomicUsize" = type { i64 }

@alloc236 = private unnamed_addr constant <{ [43 x i8] }> <{ [43 x i8] c"called `Option::unwrap()` on a `None` value" }>, align 1
@alloc181 = private unnamed_addr constant <{ [92 x i8] }> <{ [92 x i8] c"/rustc/d394408fb38c4de61f765a3ed5189d2731a1da91/library/proc_macro/src/bridge/scoped_cell.rs" }>, align 1
@alloc174 = private unnamed_addr constant <{ i8*, [16 x i8] }> <{ i8* getelementptr inbounds (<{ [92 x i8] }>, <{ [92 x i8] }>* @alloc181, i32 0, i32 0, i32 0), [16 x i8] c"\\\00\00\00\00\00\00\00J\00\00\00\13\00\00\00" }>, align 8
@0 = private unnamed_addr constant <{ [16 x i8] }> <{ [16 x i8] c"\01\00\00\00\00\00\00\00\00\00\00\00\00\00\00\00" }>, align 8
@alloc71 = private unnamed_addr constant <{ i8* }> <{ i8* bitcast (i64* (i64*)* @_ZN10proc_macro6bridge6client12BRIDGE_STATE7__getit17hcbe55ff2dc409fbfE to i8*) }>, align 8
@_ZN10proc_macro6bridge6client12BRIDGE_STATE7__getit5__KEY17hf23c929d95a924ccE = external thread_local global %"std::thread::local::fast::Key<proc_macro::bridge::scoped_cell::ScopedCell<proc_macro::bridge::client::BridgeStateL>>"
@alloc78 = private unnamed_addr constant <{ [54 x i8] }> <{ [54 x i8] c"procedural macro API is used while it's already in use" }>, align 1
@alloc79 = private unnamed_addr constant <{ i8*, [8 x i8] }> <{ i8* getelementptr inbounds (<{ [54 x i8] }>, <{ [54 x i8] }>* @alloc78, i32 0, i32 0, i32 0), [8 x i8] c"6\00\00\00\00\00\00\00" }>, align 8
@alloc239 = private unnamed_addr constant <{}> zeroinitializer, align 8
@alloc178 = private unnamed_addr constant <{ [87 x i8] }> <{ [87 x i8] c"/rustc/d394408fb38c4de61f765a3ed5189d2731a1da91/library/proc_macro/src/bridge/client.rs" }>, align 1
@alloc177 = private unnamed_addr constant <{ i8*, [16 x i8] }> <{ i8* getelementptr inbounds (<{ [87 x i8] }>, <{ [87 x i8] }>* @alloc178, i32 0, i32 0, i32 0), [16 x i8] c"W\00\00\00\00\00\00\00<\01\00\00\11\00\00\00" }>, align 8
@alloc73 = private unnamed_addr constant <{ [58 x i8] }> <{ [58 x i8] c"procedural macro API is used outside of a procedural macro" }>, align 1
@alloc74 = private unnamed_addr constant <{ i8*, [8 x i8] }> <{ i8* getelementptr inbounds (<{ [58 x i8] }>, <{ [58 x i8] }>* @alloc73, i32 0, i32 0, i32 0), [8 x i8] c":\00\00\00\00\00\00\00" }>, align 8
@alloc179 = private unnamed_addr constant <{ i8*, [16 x i8] }> <{ i8* getelementptr inbounds (<{ [87 x i8] }>, <{ [87 x i8] }>* @alloc178, i32 0, i32 0, i32 0), [16 x i8] c"W\00\00\00\00\00\00\009\01\00\00\11\00\00\00" }>, align 8
@alloc182 = private unnamed_addr constant <{ i8*, [16 x i8] }> <{ i8* getelementptr inbounds (<{ [92 x i8] }>, <{ [92 x i8] }>* @alloc181, i32 0, i32 0, i32 0), [16 x i8] c"\\\00\00\00\00\00\00\00=\00\00\00!\00\00\00" }>, align 8
@alloc183 = private unnamed_addr constant <{ [94 x i8] }> <{ [94 x i8] c"/home/calvin/.cargo/registry/src/github.com-1ecc6299db9ec823/f128_internal-0.2.2/src/f128_t.rs" }>, align 1
@alloc184 = private unnamed_addr constant <{ i8*, [16 x i8] }> <{ i8* getelementptr inbounds (<{ [94 x i8] }>, <{ [94 x i8] }>* @alloc183, i32 0, i32 0, i32 0), [16 x i8] c"^\00\00\00\00\00\00\00\E7\00\00\00\14\00\00\00" }>, align 8
@alloc185 = private unnamed_addr constant <{ [40 x i8] }> <{ [40 x i8] c"internal error: entered unreachable code" }>, align 1
@alloc186 = private unnamed_addr constant <{ [90 x i8] }> <{ [90 x i8] c"/rustc/d394408fb38c4de61f765a3ed5189d2731a1da91/library/std/src/io/error/repr_bitpacked.rs" }>, align 1
@alloc187 = private unnamed_addr constant <{ i8*, [16 x i8] }> <{ i8* getelementptr inbounds (<{ [90 x i8] }>, <{ [90 x i8] }>* @alloc186, i32 0, i32 0, i32 0), [16 x i8] c"Z\00\00\00\00\00\00\00\18\01\00\00\0D\00\00\00" }>, align 8
@alloc191 = private unnamed_addr constant <{ [70 x i8] }> <{ [70 x i8] c"cannot access a Thread Local Storage value during or after destruction" }>, align 1
@alloc189 = private unnamed_addr constant <{ [79 x i8] }> <{ [79 x i8] c"/rustc/d394408fb38c4de61f765a3ed5189d2731a1da91/library/std/src/thread/local.rs" }>, align 1
@alloc190 = private unnamed_addr constant <{ i8*, [16 x i8] }> <{ i8* getelementptr inbounds (<{ [79 x i8] }>, <{ [79 x i8] }>* @alloc189, i32 0, i32 0, i32 0), [16 x i8] c"O\00\00\00\00\00\00\00\A5\01\00\00\1A\00\00\00" }>, align 8
@vtable.0 = private unnamed_addr constant <{ i8*, [16 x i8], i8*, i8* }> <{ i8* bitcast (void (%"std::panicking::begin_panic::PanicPayload<alloc::string::String>"*)* @"_ZN4core3ptr91drop_in_place$LT$std..panicking..begin_panic..PanicPayload$LT$alloc..string..String$GT$$GT$17hdb31efc448dc26bcE" to i8*), [16 x i8] c"\18\00\00\00\00\00\00\00\08\00\00\00\00\00\00\00", i8* bitcast ({ {}*, [3 x i64]* } (%"std::panicking::begin_panic::PanicPayload<alloc::string::String>"*)* @"_ZN91_$LT$std..panicking..begin_panic..PanicPayload$LT$A$GT$$u20$as$u20$core..panic..BoxMeUp$GT$8take_box17hf166ab1c4ec907f8E" to i8*), i8* bitcast ({ {}*, [3 x i64]* } (%"std::panicking::begin_panic::PanicPayload<alloc::string::String>"*)* @"_ZN91_$LT$std..panicking..begin_panic..PanicPayload$LT$A$GT$$u20$as$u20$core..panic..BoxMeUp$GT$3get17h4cad47839b91b8f4E" to i8*) }>, align 8, !dbg !0
@vtable.1 = private unnamed_addr constant <{ i8*, [16 x i8], i8* }> <{ i8* bitcast (void (i8**)* @"_ZN4core3ptr27drop_in_place$LT$$RF$u8$GT$17h3aab73b83e147934E" to i8*), [16 x i8] c"\08\00\00\00\00\00\00\00\08\00\00\00\00\00\00\00", i8* bitcast (i1 (i8**, %"core::fmt::Formatter"*)* @"_ZN42_$LT$$RF$T$u20$as$u20$core..fmt..Debug$GT$3fmt17hbc18d34cc4cf18f7E" to i8*) }>, align 8, !dbg !74
@alloc29 = private unnamed_addr constant <{ [12 x i8] }> <{ [12 x i8] c"invalid args" }>, align 1
@alloc30 = private unnamed_addr constant <{ i8*, [8 x i8] }> <{ i8* getelementptr inbounds (<{ [12 x i8] }>, <{ [12 x i8] }>* @alloc29, i32 0, i32 0, i32 0), [8 x i8] c"\0C\00\00\00\00\00\00\00" }>, align 8
@alloc200 = private unnamed_addr constant <{ [75 x i8] }> <{ [75 x i8] c"/rustc/d394408fb38c4de61f765a3ed5189d2731a1da91/library/core/src/fmt/mod.rs" }>, align 1
@alloc201 = private unnamed_addr constant <{ i8*, [16 x i8] }> <{ i8* getelementptr inbounds (<{ [75 x i8] }>, <{ [75 x i8] }>* @alloc200, i32 0, i32 0, i32 0), [16 x i8] c"K\00\00\00\00\00\00\00\88\01\00\00\0D\00\00\00" }>, align 8
@alloc24 = private unnamed_addr constant <{ [43 x i8] }> <{ [43 x i8] c"cannot transmute_copy if U is larger than T" }>, align 1
@alloc25 = private unnamed_addr constant <{ i8*, [8 x i8] }> <{ i8* getelementptr inbounds (<{ [43 x i8] }>, <{ [43 x i8] }>* @alloc24, i32 0, i32 0, i32 0), [8 x i8] c"+\00\00\00\00\00\00\00" }>, align 8
@alloc202 = private unnamed_addr constant <{ [75 x i8] }> <{ [75 x i8] c"/rustc/d394408fb38c4de61f765a3ed5189d2731a1da91/library/core/src/mem/mod.rs" }>, align 1
@alloc203 = private unnamed_addr constant <{ i8*, [16 x i8] }> <{ i8* getelementptr inbounds (<{ [75 x i8] }>, <{ [75 x i8] }>* @alloc202, i32 0, i32 0, i32 0), [16 x i8] c"K\00\00\00\00\00\00\00!\04\00\00\05\00\00\00" }>, align 8
@alloc206 = private unnamed_addr constant <{ [80 x i8] }> <{ [80 x i8] c"/rustc/d394408fb38c4de61f765a3ed5189d2731a1da91/library/core/src/char/methods.rs" }>, align 1
@alloc205 = private unnamed_addr constant <{ i8*, [16 x i8] }> <{ i8* getelementptr inbounds (<{ [80 x i8] }>, <{ [80 x i8] }>* @alloc206, i32 0, i32 0, i32 0), [16 x i8] c"P\00\00\00\00\00\00\00\A7\06\00\00\0A\00\00\00" }>, align 8
@alloc50 = private unnamed_addr constant <{ [18 x i8] }> <{ [18 x i8] c"encode_utf8: need " }>, align 1
@alloc52 = private unnamed_addr constant <{ [19 x i8] }> <{ [19 x i8] c" bytes to encode U+" }>, align 1
@alloc53 = private unnamed_addr constant <{ [21 x i8] }> <{ [21 x i8] c", but the buffer has " }>, align 1
@alloc51 = private unnamed_addr constant <{ i8*, [8 x i8], i8*, [8 x i8], i8*, [8 x i8] }> <{ i8* getelementptr inbounds (<{ [18 x i8] }>, <{ [18 x i8] }>* @alloc50, i32 0, i32 0, i32 0), [8 x i8] c"\12\00\00\00\00\00\00\00", i8* getelementptr inbounds (<{ [19 x i8] }>, <{ [19 x i8] }>* @alloc52, i32 0, i32 0, i32 0), [8 x i8] c"\13\00\00\00\00\00\00\00", i8* getelementptr inbounds (<{ [21 x i8] }>, <{ [21 x i8] }>* @alloc53, i32 0, i32 0, i32 0), [8 x i8] c"\15\00\00\00\00\00\00\00" }>, align 8
@alloc207 = private unnamed_addr constant <{ i8*, [16 x i8] }> <{ i8* getelementptr inbounds (<{ [80 x i8] }>, <{ [80 x i8] }>* @alloc206, i32 0, i32 0, i32 0), [16 x i8] c"P\00\00\00\00\00\00\00\A0\06\00\00\0E\00\00\00" }>, align 8
@vtable.2 = private unnamed_addr constant <{ i8*, [16 x i8], i8* }> <{ i8* bitcast (void (%"std::thread::local::AccessError"*)* @"_ZN4core3ptr52drop_in_place$LT$std..thread..local..AccessError$GT$17h6c4dc30a4bf43b0aE" to i8*), [16 x i8] c"\00\00\00\00\00\00\00\00\01\00\00\00\00\00\00\00", i8* bitcast (i1 (%"std::thread::local::AccessError"*, %"core::fmt::Formatter"*)* @"_ZN68_$LT$std..thread..local..AccessError$u20$as$u20$core..fmt..Debug$GT$3fmt17h3b11f678344b3b67E" to i8*) }>, align 8, !dbg !83
@alloc215 = private unnamed_addr constant <{ [43 x i8] }> <{ [43 x i8] c"called `Result::unwrap()` on an `Err` value" }>, align 1
@vtable.3 = private unnamed_addr constant <{ i8*, [16 x i8], i8* }> <{ i8* bitcast (void (i8**)* @"_ZN4core3ptr42drop_in_place$LT$std..io..error..Error$GT$17h32c7df30d12904acE" to i8*), [16 x i8] c"\08\00\00\00\00\00\00\00\08\00\00\00\00\00\00\00", i8* bitcast (i1 (i8**, %"core::fmt::Formatter"*)* @"_ZN58_$LT$std..io..error..Error$u20$as$u20$core..fmt..Debug$GT$3fmt17h9412cc25832b82a2E" to i8*) }>, align 8, !dbg !94
@vtable.4 = private unnamed_addr constant <{ i8*, [16 x i8], i8* }> <{ i8* bitcast (void (%"proc_macro::LexError"*)* @"_ZN4core3ptr41drop_in_place$LT$proc_macro..LexError$GT$17h3cebe70310e60f92E" to i8*), [16 x i8] c"\00\00\00\00\00\00\00\00\01\00\00\00\00\00\00\00", i8* bitcast (i1 (%"proc_macro::LexError"*, %"core::fmt::Formatter"*)* @"_ZN57_$LT$proc_macro..LexError$u20$as$u20$core..fmt..Debug$GT$3fmt17ha30ce66e4b763940E" to i8*) }>, align 8, !dbg !212
@alloc237 = private unnamed_addr constant <{ [84 x i8] }> <{ [84 x i8] c"/rustc/d394408fb38c4de61f765a3ed5189d2731a1da91/library/proc_macro/src/bridge/rpc.rs" }>, align 1
@alloc226 = private unnamed_addr constant <{ i8*, [16 x i8] }> <{ i8* getelementptr inbounds (<{ [84 x i8] }>, <{ [84 x i8] }>* @alloc237, i32 0, i32 0, i32 0), [16 x i8] c"T\00\00\00\00\00\00\00\82\00\00\00\01\00\00\00" }>, align 8
@alloc228 = private unnamed_addr constant <{ i8*, [16 x i8] }> <{ i8* getelementptr inbounds (<{ [84 x i8] }>, <{ [84 x i8] }>* @alloc237, i32 0, i32 0, i32 0), [16 x i8] c"T\00\00\00\00\00\00\00\BF\00\00\00\1B\00\00\00" }>, align 8
@alloc229 = private unnamed_addr constant <{ [79 x i8] }> <{ [79 x i8] c"/rustc/d394408fb38c4de61f765a3ed5189d2731a1da91/library/core/src/str/pattern.rs" }>, align 1
@alloc230 = private unnamed_addr constant <{ i8*, [16 x i8] }> <{ i8* getelementptr inbounds (<{ [79 x i8] }>, <{ [79 x i8] }>* @alloc229, i32 0, i32 0, i32 0), [16 x i8] c"O\00\00\00\00\00\00\00\B7\01\00\00&\00\00\00" }>, align 8
@alloc231 = private unnamed_addr constant <{ [78 x i8] }> <{ [78 x i8] c"/rustc/d394408fb38c4de61f765a3ed5189d2731a1da91/library/core/src/slice/iter.rs" }>, align 1
@alloc232 = private unnamed_addr constant <{ i8*, [16 x i8] }> <{ i8* getelementptr inbounds (<{ [78 x i8] }>, <{ [78 x i8] }>* @alloc231, i32 0, i32 0, i32 0), [16 x i8] c"N\00\00\00\00\00\00\00\87\00\00\00\01\00\00\00" }>, align 8
@str.5 = internal constant [28 x i8] c"attempt to add with overflow"
@vtable.6 = private unnamed_addr constant <{ i8*, [16 x i8], i8* }> <{ i8* bitcast (void (%"alloc::string::String"*)* @"_ZN4core3ptr42drop_in_place$LT$alloc..string..String$GT$17h323a221d64398080E" to i8*), [16 x i8] c"\18\00\00\00\00\00\00\00\08\00\00\00\00\00\00\00", i8* bitcast (i64 (%"alloc::string::String"*)* @"_ZN36_$LT$T$u20$as$u20$core..any..Any$GT$7type_id17h85c59b930058df08E" to i8*) }>, align 8, !dbg !222
@alloc238 = private unnamed_addr constant <{ i8*, [16 x i8] }> <{ i8* getelementptr inbounds (<{ [84 x i8] }>, <{ [84 x i8] }>* @alloc237, i32 0, i32 0, i32 0), [16 x i8] c"T\00\00\00\00\00\00\00\A9\00\00\00\09\00\00\00" }>, align 8
@alloc246 = private unnamed_addr constant <{ [88 x i8] }> <{ [88 x i8] c"/home/calvin/.cargo/registry/src/github.com-1ecc6299db9ec823/f128_input-0.2.1/src/lib.rs" }>, align 1
@alloc241 = private unnamed_addr constant <{ i8*, [16 x i8] }> <{ i8* getelementptr inbounds (<{ [88 x i8] }>, <{ [88 x i8] }>* @alloc246, i32 0, i32 0, i32 0), [16 x i8] c"X\00\00\00\00\00\00\00\0A\00\00\00\0E\00\00\00" }>, align 8
@alloc39 = private unnamed_addr constant <{ [1 x i8] }> <{ [1 x i8] c"'" }>, align 1
@alloc41 = private unnamed_addr constant <{ [21 x i8] }> <{ [21 x i8] c"' is not a valid f128" }>, align 1
@alloc40 = private unnamed_addr constant <{ i8*, [8 x i8], i8*, [8 x i8] }> <{ i8* getelementptr inbounds (<{ [1 x i8] }>, <{ [1 x i8] }>* @alloc39, i32 0, i32 0, i32 0), [8 x i8] c"\01\00\00\00\00\00\00\00", i8* getelementptr inbounds (<{ [21 x i8] }>, <{ [21 x i8] }>* @alloc41, i32 0, i32 0, i32 0), [8 x i8] c"\15\00\00\00\00\00\00\00" }>, align 8
@alloc243 = private unnamed_addr constant <{ i8*, [16 x i8] }> <{ i8* getelementptr inbounds (<{ [88 x i8] }>, <{ [88 x i8] }>* @alloc246, i32 0, i32 0, i32 0), [16 x i8] c"X\00\00\00\00\00\00\00\11\00\00\00\13\00\00\00" }>, align 8
@alloc43 = private unnamed_addr constant <{ [49 x i8] }> <{ [49 x i8] c"unsafe { ::std::mem::transmute::<[u8; 16], f128>(" }>, align 1
@alloc45 = private unnamed_addr constant <{ [3 x i8] }> <{ [3 x i8] c") }" }>, align 1
@alloc44 = private unnamed_addr constant <{ i8*, [8 x i8], i8*, [8 x i8] }> <{ i8* getelementptr inbounds (<{ [49 x i8] }>, <{ [49 x i8] }>* @alloc43, i32 0, i32 0, i32 0), [8 x i8] c"1\00\00\00\00\00\00\00", i8* getelementptr inbounds (<{ [3 x i8] }>, <{ [3 x i8] }>* @alloc45, i32 0, i32 0, i32 0), [8 x i8] c"\03\00\00\00\00\00\00\00" }>, align 8
@alloc245 = private unnamed_addr constant <{ i8*, [16 x i8] }> <{ i8* getelementptr inbounds (<{ [88 x i8] }>, <{ [88 x i8] }>* @alloc246, i32 0, i32 0, i32 0), [16 x i8] c"X\00\00\00\00\00\00\00\18\00\00\00\0C\00\00\00" }>, align 8
@alloc247 = private unnamed_addr constant <{ i8*, [16 x i8] }> <{ i8* getelementptr inbounds (<{ [88 x i8] }>, <{ [88 x i8] }>* @alloc246, i32 0, i32 0, i32 0), [16 x i8] c"X\00\00\00\00\00\00\00\18\00\00\00\1B\00\00\00" }>, align 8
@alloc4 = private unnamed_addr constant <{ [10 x i8] }> <{ [10 x i8] c"f128_inner" }>, align 1
@alloc11 = private unnamed_addr constant <{ [4 x i8], [4 x i8], i8*, [8 x i8], i8*, i8*, [16 x i8] }> <{ [4 x i8] c"\02\00\00\00", [4 x i8] undef, i8* getelementptr inbounds (<{ [10 x i8] }>, <{ [10 x i8] }>* @alloc4, i32 0, i32 0, i32 0), [8 x i8] c"\0A\00\00\00\00\00\00\00", i8* bitcast (%"proc_macro::bridge::client::HandleCounters"* ()* @_ZN10proc_macro6bridge6client14HandleCounters3get17h671f5d76124a041eE to i8*), i8* bitcast (void (%"proc_macro::bridge::buffer::Buffer"*, %"proc_macro::bridge::BridgeConfig"*)* @_ZN10proc_macro6bridge14selfless_reify31reify_to_extern_c_fn_hrt_bridge7wrapper17h42ad000de5b43883E to i8*), [16 x i8] undef }>, align 8
@__rustc_proc_macro_decls_df67d460d0c3c3a7__ = constant <{ i8*, [8 x i8] }> <{ i8* getelementptr inbounds (<{ [4 x i8], [4 x i8], i8*, [8 x i8], i8*, i8*, [16 x i8] }>, <{ [4 x i8], [4 x i8], i8*, [8 x i8], i8*, i8*, [16 x i8] }>* @alloc11, i32 0, i32 0, i32 0), [8 x i8] c"\01\00\00\00\00\00\00\00" }>, align 8, !dbg !230

; <alloc::string::String as core::ops::index::Index<core::ops::range::RangeFull>>::index
; Function Attrs: inlinehint nonlazybind uwtable
define internal { [0 x i8]*, i64 } @"_ZN100_$LT$alloc..string..String$u20$as$u20$core..ops..index..Index$LT$core..ops..range..RangeFull$GT$$GT$5index17h5b81c5e26663cc31E"(%"alloc::string::String"* align 8 %self, %"core::panic::location::Location"* align 8 %0) unnamed_addr #0 !dbg !499 {
start:
  %1 = alloca { [0 x i8]*, i64 }, align 8
  %v.dbg.spill = alloca { [0 x i8]*, i64 }, align 8
  %metadata.dbg.spill = alloca i64, align 8
  %data_address.dbg.spill = alloca {}*, align 8
  %self.dbg.spill4 = alloca i8*, align 8
  %len.dbg.spill3 = alloca i64, align 8
  %data.dbg.spill2 = alloca i8*, align 8
  %len.dbg.spill = alloca i64, align 8
  %data.dbg.spill = alloca i8*, align 8
  %self.dbg.spill1 = alloca %"alloc::vec::Vec<u8>"*, align 8
  %_index.dbg.spill = alloca %"core::ops::range::RangeFull", align 1
  %self.dbg.spill = alloca %"alloc::string::String"*, align 8
  %_19 = alloca { i8*, i64 }, align 8
  %_18 = alloca %"core::ptr::metadata::PtrRepr<[u8]>", align 8
  store %"alloc::string::String"* %self, %"alloc::string::String"** %self.dbg.spill, align 8
  call void @llvm.dbg.declare(metadata %"alloc::string::String"** %self.dbg.spill, metadata !517, metadata !DIExpression()), !dbg !519
  call void @llvm.dbg.declare(metadata %"core::ops::range::RangeFull"* %_index.dbg.spill, metadata !518, metadata !DIExpression()), !dbg !520
  %_6 = bitcast %"alloc::string::String"* %self to %"alloc::vec::Vec<u8>"*, !dbg !521
  store %"alloc::vec::Vec<u8>"* %_6, %"alloc::vec::Vec<u8>"** %self.dbg.spill1, align 8, !dbg !521
  call void @llvm.dbg.declare(metadata %"alloc::vec::Vec<u8>"** %self.dbg.spill1, metadata !522, metadata !DIExpression()), !dbg !535
; call alloc::vec::Vec<T,A>::as_ptr
  %data = call i8* @"_ZN5alloc3vec16Vec$LT$T$C$A$GT$6as_ptr17hf5c71e8a33b2e895E"(%"alloc::vec::Vec<u8>"* align 8 %_6), !dbg !535
  store i8* %data, i8** %data.dbg.spill, align 8, !dbg !535
  call void @llvm.dbg.declare(metadata i8** %data.dbg.spill, metadata !536, metadata !DIExpression()), !dbg !557
  br label %bb1, !dbg !535

bb1:                                              ; preds = %start
  %2 = getelementptr inbounds %"alloc::vec::Vec<u8>", %"alloc::vec::Vec<u8>"* %_6, i32 0, i32 1, !dbg !535
  %len = load i64, i64* %2, align 8, !dbg !535
  store i64 %len, i64* %len.dbg.spill, align 8, !dbg !535
  call void @llvm.dbg.declare(metadata i64* %len.dbg.spill, metadata !545, metadata !DIExpression()), !dbg !557
  store i8* %data, i8** %data.dbg.spill2, align 8, !dbg !557
  call void @llvm.dbg.declare(metadata i8** %data.dbg.spill2, metadata !559, metadata !DIExpression()), !dbg !571
  store i64 %len, i64* %len.dbg.spill3, align 8, !dbg !557
  call void @llvm.dbg.declare(metadata i64* %len.dbg.spill3, metadata !570, metadata !DIExpression()), !dbg !571
  store i8* %data, i8** %self.dbg.spill4, align 8, !dbg !571
  call void @llvm.dbg.declare(metadata i8** %self.dbg.spill4, metadata !573, metadata !DIExpression()), !dbg !584
  %data_address = bitcast i8* %data to {}*, !dbg !584
  store {}* %data_address, {}** %data_address.dbg.spill, align 8, !dbg !584
  call void @llvm.dbg.declare(metadata {}** %data_address.dbg.spill, metadata !586, metadata !DIExpression()), !dbg !595
  store i64 %len, i64* %metadata.dbg.spill, align 8, !dbg !571
  call void @llvm.dbg.declare(metadata i64* %metadata.dbg.spill, metadata !594, metadata !DIExpression()), !dbg !595
  %3 = bitcast { i8*, i64 }* %_19 to {}**, !dbg !595
  store {}* %data_address, {}** %3, align 8, !dbg !595
  %4 = getelementptr inbounds { i8*, i64 }, { i8*, i64 }* %_19, i32 0, i32 1, !dbg !595
  store i64 %len, i64* %4, align 8, !dbg !595
  %5 = bitcast %"core::ptr::metadata::PtrRepr<[u8]>"* %_18 to { i8*, i64 }*, !dbg !595
  %6 = getelementptr inbounds { i8*, i64 }, { i8*, i64 }* %_19, i32 0, i32 0, !dbg !595
  %7 = load i8*, i8** %6, align 8, !dbg !595
  %8 = getelementptr inbounds { i8*, i64 }, { i8*, i64 }* %_19, i32 0, i32 1, !dbg !595
  %9 = load i64, i64* %8, align 8, !dbg !595
  %10 = getelementptr inbounds { i8*, i64 }, { i8*, i64 }* %5, i32 0, i32 0, !dbg !595
  store i8* %7, i8** %10, align 8, !dbg !595
  %11 = getelementptr inbounds { i8*, i64 }, { i8*, i64 }* %5, i32 0, i32 1, !dbg !595
  store i64 %9, i64* %11, align 8, !dbg !595
  %12 = bitcast %"core::ptr::metadata::PtrRepr<[u8]>"* %_18 to { [0 x i8]*, i64 }*, !dbg !595
  %13 = getelementptr inbounds { [0 x i8]*, i64 }, { [0 x i8]*, i64 }* %12, i32 0, i32 0, !dbg !595
  %_11.0 = load [0 x i8]*, [0 x i8]** %13, align 8, !dbg !595
  %14 = getelementptr inbounds { [0 x i8]*, i64 }, { [0 x i8]*, i64 }* %12, i32 0, i32 1, !dbg !595
  %_11.1 = load i64, i64* %14, align 8, !dbg !595
  %15 = getelementptr inbounds { [0 x i8]*, i64 }, { [0 x i8]*, i64 }* %v.dbg.spill, i32 0, i32 0, !dbg !521
  store [0 x i8]* %_11.0, [0 x i8]** %15, align 8, !dbg !521
  %16 = getelementptr inbounds { [0 x i8]*, i64 }, { [0 x i8]*, i64 }* %v.dbg.spill, i32 0, i32 1, !dbg !521
  store i64 %_11.1, i64* %16, align 8, !dbg !521
  call void @llvm.dbg.declare(metadata { [0 x i8]*, i64 }* %v.dbg.spill, metadata !597, metadata !DIExpression()), !dbg !606
  %17 = getelementptr inbounds { [0 x i8]*, i64 }, { [0 x i8]*, i64 }* %1, i32 0, i32 0, !dbg !606
  store [0 x i8]* %_11.0, [0 x i8]** %17, align 8, !dbg !606
  %18 = getelementptr inbounds { [0 x i8]*, i64 }, { [0 x i8]*, i64 }* %1, i32 0, i32 1, !dbg !606
  store i64 %_11.1, i64* %18, align 8, !dbg !606
  %19 = getelementptr inbounds { [0 x i8]*, i64 }, { [0 x i8]*, i64 }* %1, i32 0, i32 0, !dbg !606
  %20 = load [0 x i8]*, [0 x i8]** %19, align 8, !dbg !606, !nonnull !27, !align !608, !noundef !27
  %21 = getelementptr inbounds { [0 x i8]*, i64 }, { [0 x i8]*, i64 }* %1, i32 0, i32 1, !dbg !606
  %22 = load i64, i64* %21, align 8, !dbg !606
  br label %bb2, !dbg !606

bb2:                                              ; preds = %bb1
  %23 = insertvalue { [0 x i8]*, i64 } undef, [0 x i8]* %20, 0, !dbg !609
  %24 = insertvalue { [0 x i8]*, i64 } %23, i64 %22, 1, !dbg !609
  ret { [0 x i8]*, i64 } %24, !dbg !609
}

; <proc_macro::bridge::client::TokenStream as proc_macro::bridge::rpc::Encode<S>>::encode
; Function Attrs: nonlazybind uwtable
define internal void @"_ZN100_$LT$proc_macro..bridge..client..TokenStream$u20$as$u20$proc_macro..bridge..rpc..Encode$LT$S$GT$$GT$6encode17h1c05180f801e837eE"(i32 %self, %"proc_macro::bridge::buffer::Buffer"* align 8 %w, {}* align 1 %s) unnamed_addr #1 !dbg !610 {
start:
  %handle.dbg.spill = alloca i32, align 4
  %s.dbg.spill = alloca {}*, align 8
  %w.dbg.spill = alloca %"proc_macro::bridge::buffer::Buffer"*, align 8
  %self.dbg.spill = alloca i32, align 4
  store i32 %self, i32* %self.dbg.spill, align 4
  call void @llvm.dbg.declare(metadata i32* %self.dbg.spill, metadata !617, metadata !DIExpression()), !dbg !624
  store %"proc_macro::bridge::buffer::Buffer"* %w, %"proc_macro::bridge::buffer::Buffer"** %w.dbg.spill, align 8
  call void @llvm.dbg.declare(metadata %"proc_macro::bridge::buffer::Buffer"** %w.dbg.spill, metadata !618, metadata !DIExpression()), !dbg !625
  store {}* %s, {}** %s.dbg.spill, align 8
  call void @llvm.dbg.declare(metadata {}** %s.dbg.spill, metadata !619, metadata !DIExpression()), !dbg !626
  store i32 %self, i32* %handle.dbg.spill, align 4, !dbg !627
  call void @llvm.dbg.declare(metadata i32* %handle.dbg.spill, metadata !620, metadata !DIExpression()), !dbg !628
; call <core::num::nonzero::NonZeroU32 as proc_macro::bridge::rpc::Encode<S>>::encode
  call void @"_ZN91_$LT$core..num..nonzero..NonZeroU32$u20$as$u20$proc_macro..bridge..rpc..Encode$LT$S$GT$$GT$6encode17h6eff8dc709d18f76E"(i32 %self, %"proc_macro::bridge::buffer::Buffer"* align 8 %w, {}* align 1 %s), !dbg !629
  br label %bb1, !dbg !629

bb1:                                              ; preds = %start
  ret void, !dbg !630
}

; <proc_macro::bridge::client::TokenStream as proc_macro::bridge::rpc::DecodeMut<S>>::decode
; Function Attrs: nonlazybind uwtable
define internal i32 @"_ZN103_$LT$proc_macro..bridge..client..TokenStream$u20$as$u20$proc_macro..bridge..rpc..DecodeMut$LT$S$GT$$GT$6decode17he5ea93e573f0561cE"({ [0 x i8]*, i64 }* align 8 %r, {}* align 1 %s) unnamed_addr #1 !dbg !631 {
start:
  %s.dbg.spill = alloca {}*, align 8
  %r.dbg.spill = alloca { [0 x i8]*, i64 }*, align 8
  %0 = alloca i32, align 4
  store { [0 x i8]*, i64 }* %r, { [0 x i8]*, i64 }** %r.dbg.spill, align 8
  call void @llvm.dbg.declare(metadata { [0 x i8]*, i64 }** %r.dbg.spill, metadata !637, metadata !DIExpression()), !dbg !639
  store {}* %s, {}** %s.dbg.spill, align 8
  call void @llvm.dbg.declare(metadata {}** %s.dbg.spill, metadata !638, metadata !DIExpression()), !dbg !640
; call <core::num::nonzero::NonZeroU32 as proc_macro::bridge::rpc::DecodeMut<S>>::decode
  %_3 = call i32 @"_ZN94_$LT$core..num..nonzero..NonZeroU32$u20$as$u20$proc_macro..bridge..rpc..DecodeMut$LT$S$GT$$GT$6decode17h195da8d32a305c54E"({ [0 x i8]*, i64 }* align 8 %r, {}* align 1 %s), !dbg !641, !range !642
  br label %bb1, !dbg !641

bb1:                                              ; preds = %start
  store i32 %_3, i32* %0, align 4, !dbg !643
  %1 = load i32, i32* %0, align 4, !dbg !644, !range !642, !noundef !27
  ret i32 %1, !dbg !644
}

; <core::ops::range::Range<usize> as core::slice::index::SliceIndex<[T]>>::get_unchecked_mut
; Function Attrs: inlinehint nonlazybind uwtable
define internal { [0 x i8]*, i64 } @"_ZN106_$LT$core..ops..range..Range$LT$usize$GT$$u20$as$u20$core..slice..index..SliceIndex$LT$$u5b$T$u5d$$GT$$GT$17get_unchecked_mut17h6f044855ca2f8af0E"(i64 %self.0, i64 %self.1, [0 x i8]* %slice.0, i64 %slice.1) unnamed_addr #0 !dbg !645 {
start:
  %metadata.dbg.spill = alloca i64, align 8
  %data_address.dbg.spill = alloca {}*, align 8
  %self.dbg.spill5 = alloca i8*, align 8
  %len.dbg.spill = alloca i64, align 8
  %data.dbg.spill = alloca i8*, align 8
  %0 = alloca i8*, align 8
  %count.dbg.spill4 = alloca i64, align 8
  %self.dbg.spill3 = alloca i8*, align 8
  %count.dbg.spill = alloca i64, align 8
  %self.dbg.spill2 = alloca i8*, align 8
  %self.dbg.spill1 = alloca { [0 x i8]*, i64 }, align 8
  %slice.dbg.spill = alloca { [0 x i8]*, i64 }, align 8
  %self.dbg.spill = alloca { i64, i64 }, align 8
  %_24 = alloca { i8*, i64 }, align 8
  %_23 = alloca %"core::ptr::metadata::PtrRepr<[u8]>", align 8
  %runtime = alloca %"[closure@<core::ops::range::Range<usize> as core::slice::index::SliceIndex<[u8]>>::get_unchecked_mut::{closure#0}]", align 8
  %1 = getelementptr inbounds { i64, i64 }, { i64, i64 }* %self.dbg.spill, i32 0, i32 0
  store i64 %self.0, i64* %1, align 8
  %2 = getelementptr inbounds { i64, i64 }, { i64, i64 }* %self.dbg.spill, i32 0, i32 1
  store i64 %self.1, i64* %2, align 8
  call void @llvm.dbg.declare(metadata { i64, i64 }* %self.dbg.spill, metadata !662, metadata !DIExpression()), !dbg !674
  %3 = getelementptr inbounds { [0 x i8]*, i64 }, { [0 x i8]*, i64 }* %slice.dbg.spill, i32 0, i32 0
  store [0 x i8]* %slice.0, [0 x i8]** %3, align 8
  %4 = getelementptr inbounds { [0 x i8]*, i64 }, { [0 x i8]*, i64 }* %slice.dbg.spill, i32 0, i32 1
  store i64 %slice.1, i64* %4, align 8
  call void @llvm.dbg.declare(metadata { [0 x i8]*, i64 }* %slice.dbg.spill, metadata !663, metadata !DIExpression()), !dbg !675
  call void @llvm.dbg.declare(metadata %"[closure@<core::ops::range::Range<usize> as core::slice::index::SliceIndex<[u8]>>::get_unchecked_mut::{closure#0}]"* %runtime, metadata !664, metadata !DIExpression()), !dbg !676
  %5 = getelementptr inbounds { [0 x i8]*, i64 }, { [0 x i8]*, i64 }* %self.dbg.spill1, i32 0, i32 0, !dbg !677
  store [0 x i8]* %slice.0, [0 x i8]** %5, align 8, !dbg !677
  %6 = getelementptr inbounds { [0 x i8]*, i64 }, { [0 x i8]*, i64 }* %self.dbg.spill1, i32 0, i32 1, !dbg !677
  store i64 %slice.1, i64* %6, align 8, !dbg !677
  call void @llvm.dbg.declare(metadata { [0 x i8]*, i64 }* %self.dbg.spill1, metadata !678, metadata !DIExpression()), !dbg !687
  %self = bitcast [0 x i8]* %slice.0 to i8*, !dbg !687
  store i8* %self, i8** %self.dbg.spill2, align 8, !dbg !687
  call void @llvm.dbg.declare(metadata i8** %self.dbg.spill2, metadata !688, metadata !DIExpression()), !dbg !696
  store i64 %self.0, i64* %count.dbg.spill, align 8, !dbg !697
  call void @llvm.dbg.declare(metadata i64* %count.dbg.spill, metadata !695, metadata !DIExpression()), !dbg !696
  store i8* %self, i8** %self.dbg.spill3, align 8, !dbg !696
  call void @llvm.dbg.declare(metadata i8** %self.dbg.spill3, metadata !698, metadata !DIExpression()), !dbg !706
  store i64 %self.0, i64* %count.dbg.spill4, align 8, !dbg !696
  call void @llvm.dbg.declare(metadata i64* %count.dbg.spill4, metadata !705, metadata !DIExpression()), !dbg !706
  %7 = getelementptr inbounds i8, i8* %self, i64 %self.0, !dbg !706
  store i8* %7, i8** %0, align 8, !dbg !706
  %_15 = load i8*, i8** %0, align 8, !dbg !706
  br label %bb1, !dbg !706

bb1:                                              ; preds = %start
  store i8* %_15, i8** %data.dbg.spill, align 8, !dbg !706
  call void @llvm.dbg.declare(metadata i8** %data.dbg.spill, metadata !708, metadata !DIExpression()), !dbg !715
  %len = sub i64 %self.1, %self.0, !dbg !717
  store i64 %len, i64* %len.dbg.spill, align 8, !dbg !717
  call void @llvm.dbg.declare(metadata i64* %len.dbg.spill, metadata !714, metadata !DIExpression()), !dbg !715
  store i8* %_15, i8** %self.dbg.spill5, align 8, !dbg !715
  call void @llvm.dbg.declare(metadata i8** %self.dbg.spill5, metadata !718, metadata !DIExpression()), !dbg !724
  %data_address = bitcast i8* %_15 to {}*, !dbg !724
  store {}* %data_address, {}** %data_address.dbg.spill, align 8, !dbg !724
  call void @llvm.dbg.declare(metadata {}** %data_address.dbg.spill, metadata !726, metadata !DIExpression()), !dbg !733
  store i64 %len, i64* %metadata.dbg.spill, align 8, !dbg !715
  call void @llvm.dbg.declare(metadata i64* %metadata.dbg.spill, metadata !732, metadata !DIExpression()), !dbg !733
  %8 = bitcast { i8*, i64 }* %_24 to {}**, !dbg !733
  store {}* %data_address, {}** %8, align 8, !dbg !733
  %9 = getelementptr inbounds { i8*, i64 }, { i8*, i64 }* %_24, i32 0, i32 1, !dbg !733
  store i64 %len, i64* %9, align 8, !dbg !733
  %10 = bitcast %"core::ptr::metadata::PtrRepr<[u8]>"* %_23 to { i8*, i64 }*, !dbg !733
  %11 = getelementptr inbounds { i8*, i64 }, { i8*, i64 }* %_24, i32 0, i32 0, !dbg !733
  %12 = load i8*, i8** %11, align 8, !dbg !733
  %13 = getelementptr inbounds { i8*, i64 }, { i8*, i64 }* %_24, i32 0, i32 1, !dbg !733
  %14 = load i64, i64* %13, align 8, !dbg !733
  %15 = getelementptr inbounds { i8*, i64 }, { i8*, i64 }* %10, i32 0, i32 0, !dbg !733
  store i8* %12, i8** %15, align 8, !dbg !733
  %16 = getelementptr inbounds { i8*, i64 }, { i8*, i64 }* %10, i32 0, i32 1, !dbg !733
  store i64 %14, i64* %16, align 8, !dbg !733
  %17 = bitcast %"core::ptr::metadata::PtrRepr<[u8]>"* %_23 to { [0 x i8]*, i64 }*, !dbg !733
  %18 = getelementptr inbounds { [0 x i8]*, i64 }, { [0 x i8]*, i64 }* %17, i32 0, i32 0, !dbg !733
  %19 = load [0 x i8]*, [0 x i8]** %18, align 8, !dbg !733
  %20 = getelementptr inbounds { [0 x i8]*, i64 }, { [0 x i8]*, i64 }* %17, i32 0, i32 1, !dbg !733
  %21 = load i64, i64* %20, align 8, !dbg !733
  %22 = insertvalue { [0 x i8]*, i64 } undef, [0 x i8]* %19, 0, !dbg !735
  %23 = insertvalue { [0 x i8]*, i64 } %22, i64 %21, 1, !dbg !735
  ret { [0 x i8]*, i64 } %23, !dbg !735
}

; <core::ops::range::Range<usize> as core::slice::index::SliceIndex<[T]>>::get
; Function Attrs: inlinehint nonlazybind uwtable
define internal { i8*, i64 } @"_ZN106_$LT$core..ops..range..Range$LT$usize$GT$$u20$as$u20$core..slice..index..SliceIndex$LT$$u5b$T$u5d$$GT$$GT$3get17hcac955a39670c74cE"(i64 %self.0, i64 %self.1, [0 x i8]* align 1 %slice.0, i64 %slice.1) unnamed_addr #0 !dbg !736 {
start:
  %slice.dbg.spill = alloca { [0 x i8]*, i64 }, align 8
  %self.dbg.spill = alloca { i64, i64 }, align 8
  %_3 = alloca i8, align 1
  %0 = alloca { i8*, i64 }, align 8
  %1 = getelementptr inbounds { i64, i64 }, { i64, i64 }* %self.dbg.spill, i32 0, i32 0
  store i64 %self.0, i64* %1, align 8
  %2 = getelementptr inbounds { i64, i64 }, { i64, i64 }* %self.dbg.spill, i32 0, i32 1
  store i64 %self.1, i64* %2, align 8
  call void @llvm.dbg.declare(metadata { i64, i64 }* %self.dbg.spill, metadata !753, metadata !DIExpression()), !dbg !755
  %3 = getelementptr inbounds { [0 x i8]*, i64 }, { [0 x i8]*, i64 }* %slice.dbg.spill, i32 0, i32 0
  store [0 x i8]* %slice.0, [0 x i8]** %3, align 8
  %4 = getelementptr inbounds { [0 x i8]*, i64 }, { [0 x i8]*, i64 }* %slice.dbg.spill, i32 0, i32 1
  store i64 %slice.1, i64* %4, align 8
  call void @llvm.dbg.declare(metadata { [0 x i8]*, i64 }* %slice.dbg.spill, metadata !754, metadata !DIExpression()), !dbg !756
  %_4 = icmp ugt i64 %self.0, %self.1, !dbg !757
  br i1 %_4, label %bb1, label %bb2, !dbg !757

bb2:                                              ; preds = %start
  %_7 = icmp ugt i64 %self.1, %slice.1, !dbg !758
  %5 = zext i1 %_7 to i8, !dbg !757
  store i8 %5, i8* %_3, align 1, !dbg !757
  br label %bb3, !dbg !757

bb1:                                              ; preds = %start
  store i8 1, i8* %_3, align 1, !dbg !757
  br label %bb3, !dbg !757

bb3:                                              ; preds = %bb2, %bb1
  %6 = load i8, i8* %_3, align 1, !dbg !757, !range !759, !noundef !27
  %7 = trunc i8 %6 to i1, !dbg !757
  br i1 %7, label %bb4, label %bb5, !dbg !757

bb5:                                              ; preds = %bb3
; call <core::ops::range::Range<usize> as core::slice::index::SliceIndex<[T]>>::get_unchecked
  %8 = call { [0 x i8]*, i64 } @"_ZN106_$LT$core..ops..range..Range$LT$usize$GT$$u20$as$u20$core..slice..index..SliceIndex$LT$$u5b$T$u5d$$GT$$GT$13get_unchecked17h027adc00ed696f09E"(i64 %self.0, i64 %self.1, [0 x i8]* %slice.0, i64 %slice.1), !dbg !760
  %_13.0 = extractvalue { [0 x i8]*, i64 } %8, 0, !dbg !760
  %_13.1 = extractvalue { [0 x i8]*, i64 } %8, 1, !dbg !760
  br label %bb6, !dbg !760

bb4:                                              ; preds = %bb3
  %9 = bitcast { i8*, i64 }* %0 to {}**, !dbg !761
  store {}* null, {}** %9, align 8, !dbg !761
  br label %bb7, !dbg !762

bb7:                                              ; preds = %bb6, %bb4
  %10 = getelementptr inbounds { i8*, i64 }, { i8*, i64 }* %0, i32 0, i32 0, !dbg !763
  %11 = load i8*, i8** %10, align 8, !dbg !763, !align !608
  %12 = getelementptr inbounds { i8*, i64 }, { i8*, i64 }* %0, i32 0, i32 1, !dbg !763
  %13 = load i64, i64* %12, align 8, !dbg !763
  %14 = insertvalue { i8*, i64 } undef, i8* %11, 0, !dbg !763
  %15 = insertvalue { i8*, i64 } %14, i64 %13, 1, !dbg !763
  ret { i8*, i64 } %15, !dbg !763

bb6:                                              ; preds = %bb5
  %16 = bitcast { i8*, i64 }* %0 to { [0 x i8]*, i64 }*, !dbg !764
  %17 = getelementptr inbounds { [0 x i8]*, i64 }, { [0 x i8]*, i64 }* %16, i32 0, i32 0, !dbg !764
  store [0 x i8]* %_13.0, [0 x i8]** %17, align 8, !dbg !764
  %18 = getelementptr inbounds { [0 x i8]*, i64 }, { [0 x i8]*, i64 }* %16, i32 0, i32 1, !dbg !764
  store i64 %_13.1, i64* %18, align 8, !dbg !764
  br label %bb7, !dbg !762
}

; <core::ops::range::Range<usize> as core::slice::index::SliceIndex<[T]>>::index_mut
; Function Attrs: inlinehint nonlazybind uwtable
define internal { [0 x i8]*, i64 } @"_ZN106_$LT$core..ops..range..Range$LT$usize$GT$$u20$as$u20$core..slice..index..SliceIndex$LT$$u5b$T$u5d$$GT$$GT$9index_mut17h49eca17de111d561E"(i64 %self.0, i64 %self.1, [0 x i8]* align 1 %slice.0, i64 %slice.1, %"core::panic::location::Location"* align 8 %0) unnamed_addr #0 !dbg !765 {
start:
  %slice.dbg.spill = alloca { [0 x i8]*, i64 }, align 8
  %self.dbg.spill = alloca { i64, i64 }, align 8
  %1 = getelementptr inbounds { i64, i64 }, { i64, i64 }* %self.dbg.spill, i32 0, i32 0
  store i64 %self.0, i64* %1, align 8
  %2 = getelementptr inbounds { i64, i64 }, { i64, i64 }* %self.dbg.spill, i32 0, i32 1
  store i64 %self.1, i64* %2, align 8
  call void @llvm.dbg.declare(metadata { i64, i64 }* %self.dbg.spill, metadata !773, metadata !DIExpression()), !dbg !775
  %3 = getelementptr inbounds { [0 x i8]*, i64 }, { [0 x i8]*, i64 }* %slice.dbg.spill, i32 0, i32 0
  store [0 x i8]* %slice.0, [0 x i8]** %3, align 8
  %4 = getelementptr inbounds { [0 x i8]*, i64 }, { [0 x i8]*, i64 }* %slice.dbg.spill, i32 0, i32 1
  store i64 %slice.1, i64* %4, align 8
  call void @llvm.dbg.declare(metadata { [0 x i8]*, i64 }* %slice.dbg.spill, metadata !774, metadata !DIExpression()), !dbg !776
  %_4 = icmp ugt i64 %self.0, %self.1, !dbg !777
  br i1 %_4, label %bb1, label %bb2, !dbg !777

bb2:                                              ; preds = %start
  %_10 = icmp ugt i64 %self.1, %slice.1, !dbg !778
  br i1 %_10, label %bb3, label %bb4, !dbg !778

bb1:                                              ; preds = %start
; call core::slice::index::slice_index_order_fail
  call void @_ZN4core5slice5index22slice_index_order_fail17ha5ea6a931f940f05E(i64 %self.0, i64 %self.1, %"core::panic::location::Location"* align 8 %0) #18, !dbg !779
  unreachable, !dbg !779

bb4:                                              ; preds = %bb2
; call <core::ops::range::Range<usize> as core::slice::index::SliceIndex<[T]>>::get_unchecked_mut
  %5 = call { [0 x i8]*, i64 } @"_ZN106_$LT$core..ops..range..Range$LT$usize$GT$$u20$as$u20$core..slice..index..SliceIndex$LT$$u5b$T$u5d$$GT$$GT$17get_unchecked_mut17h6f044855ca2f8af0E"(i64 %self.0, i64 %self.1, [0 x i8]* %slice.0, i64 %slice.1), !dbg !780
  %_20.0 = extractvalue { [0 x i8]*, i64 } %5, 0, !dbg !780
  %_20.1 = extractvalue { [0 x i8]*, i64 } %5, 1, !dbg !780
  br label %bb5, !dbg !780

bb3:                                              ; preds = %bb2
; call core::slice::index::slice_end_index_len_fail
  call void @_ZN4core5slice5index24slice_end_index_len_fail17hc132699ea07ad3eeE(i64 %self.1, i64 %slice.1, %"core::panic::location::Location"* align 8 %0) #18, !dbg !781
  unreachable, !dbg !781

bb5:                                              ; preds = %bb4
  %6 = insertvalue { [0 x i8]*, i64 } undef, [0 x i8]* %_20.0, 0, !dbg !782
  %7 = insertvalue { [0 x i8]*, i64 } %6, i64 %_20.1, 1, !dbg !782
  ret { [0 x i8]*, i64 } %7, !dbg !782
}

; <proc_macro::bridge::ExpnGlobals<Span> as proc_macro::bridge::rpc::DecodeMut<S>>::decode
; Function Attrs: nonlazybind uwtable
define internal void @"_ZN107_$LT$proc_macro..bridge..ExpnGlobals$LT$Span$GT$$u20$as$u20$proc_macro..bridge..rpc..DecodeMut$LT$S$GT$$GT$6decode17h8296fd1bf7e4ce1dE"(%"proc_macro::bridge::ExpnGlobals<proc_macro::bridge::client::Span>"* sret(%"proc_macro::bridge::ExpnGlobals<proc_macro::bridge::client::Span>") %0, { [0 x i8]*, i64 }* align 8 %r, {}* align 1 %s) unnamed_addr #1 personality i32 (i32, i32, i64, %"unwind::libunwind::_Unwind_Exception"*, %"unwind::libunwind::_Unwind_Context"*)* @rust_eh_personality !dbg !783 {
start:
  %1 = alloca { i8*, i32 }, align 8
  %s.dbg.spill = alloca {}*, align 8
  %r.dbg.spill = alloca { [0 x i8]*, i64 }*, align 8
  store { [0 x i8]*, i64 }* %r, { [0 x i8]*, i64 }** %r.dbg.spill, align 8
  call void @llvm.dbg.declare(metadata { [0 x i8]*, i64 }** %r.dbg.spill, metadata !800, metadata !DIExpression()), !dbg !803
  store {}* %s, {}** %s.dbg.spill, align 8
  call void @llvm.dbg.declare(metadata {}** %s.dbg.spill, metadata !801, metadata !DIExpression()), !dbg !804
; call <proc_macro::bridge::client::Span as proc_macro::bridge::rpc::DecodeMut<S>>::decode
  %_3 = call i32 @"_ZN96_$LT$proc_macro..bridge..client..Span$u20$as$u20$proc_macro..bridge..rpc..DecodeMut$LT$S$GT$$GT$6decode17h393090e286eefc6cE"({ [0 x i8]*, i64 }* align 8 %r, {}* align 1 %s), !dbg !805, !range !642
  br label %bb1, !dbg !805

bb1:                                              ; preds = %start
; invoke <proc_macro::bridge::client::Span as proc_macro::bridge::rpc::DecodeMut<S>>::decode
  %_6 = invoke i32 @"_ZN96_$LT$proc_macro..bridge..client..Span$u20$as$u20$proc_macro..bridge..rpc..DecodeMut$LT$S$GT$$GT$6decode17h393090e286eefc6cE"({ [0 x i8]*, i64 }* align 8 %r, {}* align 1 %s)
          to label %bb2 unwind label %cleanup, !dbg !805, !range !642

bb5:                                              ; preds = %bb4, %cleanup
  br label %bb6, !dbg !806

cleanup:                                          ; preds = %bb1
  %2 = landingpad { i8*, i32 }
          cleanup
  %3 = extractvalue { i8*, i32 } %2, 0
  %4 = extractvalue { i8*, i32 } %2, 1
  %5 = getelementptr inbounds { i8*, i32 }, { i8*, i32 }* %1, i32 0, i32 0
  store i8* %3, i8** %5, align 8
  %6 = getelementptr inbounds { i8*, i32 }, { i8*, i32 }* %1, i32 0, i32 1
  store i32 %4, i32* %6, align 8
  br label %bb5

bb2:                                              ; preds = %bb1
; invoke <proc_macro::bridge::client::Span as proc_macro::bridge::rpc::DecodeMut<S>>::decode
  %_9 = invoke i32 @"_ZN96_$LT$proc_macro..bridge..client..Span$u20$as$u20$proc_macro..bridge..rpc..DecodeMut$LT$S$GT$$GT$6decode17h393090e286eefc6cE"({ [0 x i8]*, i64 }* align 8 %r, {}* align 1 %s)
          to label %bb3 unwind label %cleanup1, !dbg !805, !range !642

bb4:                                              ; preds = %cleanup1
  br label %bb5, !dbg !806

cleanup1:                                         ; preds = %bb2
  %7 = landingpad { i8*, i32 }
          cleanup
  %8 = extractvalue { i8*, i32 } %7, 0
  %9 = extractvalue { i8*, i32 } %7, 1
  %10 = getelementptr inbounds { i8*, i32 }, { i8*, i32 }* %1, i32 0, i32 0
  store i8* %8, i8** %10, align 8
  %11 = getelementptr inbounds { i8*, i32 }, { i8*, i32 }* %1, i32 0, i32 1
  store i32 %9, i32* %11, align 8
  br label %bb4

bb3:                                              ; preds = %bb2
  %12 = bitcast %"proc_macro::bridge::ExpnGlobals<proc_macro::bridge::client::Span>"* %0 to i32*, !dbg !807
  store i32 %_3, i32* %12, align 4, !dbg !807
  %13 = getelementptr inbounds %"proc_macro::bridge::ExpnGlobals<proc_macro::bridge::client::Span>", %"proc_macro::bridge::ExpnGlobals<proc_macro::bridge::client::Span>"* %0, i32 0, i32 1, !dbg !807
  store i32 %_6, i32* %13, align 4, !dbg !807
  %14 = getelementptr inbounds %"proc_macro::bridge::ExpnGlobals<proc_macro::bridge::client::Span>", %"proc_macro::bridge::ExpnGlobals<proc_macro::bridge::client::Span>"* %0, i32 0, i32 2, !dbg !807
  store i32 %_9, i32* %14, align 4, !dbg !807
  ret void, !dbg !808

bb6:                                              ; preds = %bb5
  %15 = bitcast { i8*, i32 }* %1 to i8**, !dbg !809
  %16 = load i8*, i8** %15, align 8, !dbg !809
  %17 = getelementptr inbounds { i8*, i32 }, { i8*, i32 }* %1, i32 0, i32 1, !dbg !809
  %18 = load i32, i32* %17, align 8, !dbg !809
  %19 = insertvalue { i8*, i32 } undef, i8* %16, 0, !dbg !809
  %20 = insertvalue { i8*, i32 } %19, i32 %18, 1, !dbg !809
  resume { i8*, i32 } %20, !dbg !809
}

; proc_macro::bridge::<impl proc_macro::bridge::rpc::Encode<S> for core::option::Option<T>>::encode
; Function Attrs: nonlazybind uwtable
define internal void @"_ZN10proc_macro6bridge100_$LT$impl$u20$proc_macro..bridge..rpc..Encode$LT$S$GT$$u20$for$u20$core..option..Option$LT$T$GT$$GT$6encode17h0ce7338230398f4dE"(i8* align 1 %0, i64 %1, %"proc_macro::bridge::buffer::Buffer"* align 8 %w, {}* align 1 %s) unnamed_addr #1 personality i32 (i32, i32, i64, %"unwind::libunwind::_Unwind_Exception"*, %"unwind::libunwind::_Unwind_Context"*)* @rust_eh_personality !dbg !810 {
start:
  %2 = alloca { i8*, i32 }, align 8
  %t.dbg.spill = alloca { [0 x i8]*, i64 }, align 8
  %s.dbg.spill = alloca {}*, align 8
  %w.dbg.spill = alloca %"proc_macro::bridge::buffer::Buffer"*, align 8
  %_16 = alloca i8, align 1
  %self = alloca { i8*, i64 }, align 8
  %3 = getelementptr inbounds { i8*, i64 }, { i8*, i64 }* %self, i32 0, i32 0
  store i8* %0, i8** %3, align 8
  %4 = getelementptr inbounds { i8*, i64 }, { i8*, i64 }* %self, i32 0, i32 1
  store i64 %1, i64* %4, align 8
  call void @llvm.dbg.declare(metadata { i8*, i64 }* %self, metadata !828, metadata !DIExpression()), !dbg !834
  store %"proc_macro::bridge::buffer::Buffer"* %w, %"proc_macro::bridge::buffer::Buffer"** %w.dbg.spill, align 8
  call void @llvm.dbg.declare(metadata %"proc_macro::bridge::buffer::Buffer"** %w.dbg.spill, metadata !829, metadata !DIExpression()), !dbg !835
  store {}* %s, {}** %s.dbg.spill, align 8
  call void @llvm.dbg.declare(metadata {}** %s.dbg.spill, metadata !830, metadata !DIExpression()), !dbg !836
  %5 = bitcast { i8*, i64 }* %self to {}**, !dbg !837
  %6 = load {}*, {}** %5, align 8, !dbg !837
  %7 = icmp eq {}* %6, null, !dbg !837
  %_4 = select i1 %7, i64 0, i64 1, !dbg !837
  switch i64 %_4, label %bb2 [
    i64 0, label %bb1
    i64 1, label %bb3
  ], !dbg !838

bb2:                                              ; preds = %start
  unreachable, !dbg !837

bb1:                                              ; preds = %start
; call <u8 as proc_macro::bridge::rpc::Encode<S>>::encode
  call void @"_ZN63_$LT$u8$u20$as$u20$proc_macro..bridge..rpc..Encode$LT$S$GT$$GT$6encode17h18dcaaf63bdfe937E"(i8 1, %"proc_macro::bridge::buffer::Buffer"* align 8 %w, {}* align 1 %s), !dbg !839
  br label %bb6, !dbg !839

bb3:                                              ; preds = %start
  store i8 1, i8* %_16, align 1, !dbg !840
  %8 = bitcast { i8*, i64 }* %self to { [0 x i8]*, i64 }*, !dbg !840
  %9 = getelementptr inbounds { [0 x i8]*, i64 }, { [0 x i8]*, i64 }* %8, i32 0, i32 0, !dbg !840
  %t.0 = load [0 x i8]*, [0 x i8]** %9, align 8, !dbg !840, !nonnull !27, !align !608, !noundef !27
  %10 = getelementptr inbounds { [0 x i8]*, i64 }, { [0 x i8]*, i64 }* %8, i32 0, i32 1, !dbg !840
  %t.1 = load i64, i64* %10, align 8, !dbg !840
  %11 = getelementptr inbounds { [0 x i8]*, i64 }, { [0 x i8]*, i64 }* %t.dbg.spill, i32 0, i32 0, !dbg !840
  store [0 x i8]* %t.0, [0 x i8]** %11, align 8, !dbg !840
  %12 = getelementptr inbounds { [0 x i8]*, i64 }, { [0 x i8]*, i64 }* %t.dbg.spill, i32 0, i32 1, !dbg !840
  store i64 %t.1, i64* %12, align 8, !dbg !840
  call void @llvm.dbg.declare(metadata { [0 x i8]*, i64 }* %t.dbg.spill, metadata !831, metadata !DIExpression()), !dbg !841
; invoke <u8 as proc_macro::bridge::rpc::Encode<S>>::encode
  invoke void @"_ZN63_$LT$u8$u20$as$u20$proc_macro..bridge..rpc..Encode$LT$S$GT$$GT$6encode17h18dcaaf63bdfe937E"(i8 0, %"proc_macro::bridge::buffer::Buffer"* align 8 %w, {}* align 1 %s)
          to label %bb4 unwind label %cleanup, !dbg !842

bb9:                                              ; preds = %cleanup
  %13 = load i8, i8* %_16, align 1, !dbg !843, !range !759, !noundef !27
  %14 = trunc i8 %13 to i1, !dbg !843
  br i1 %14, label %bb8, label %bb10, !dbg !843

cleanup:                                          ; preds = %bb4, %bb3
  %15 = landingpad { i8*, i32 }
          cleanup
  %16 = extractvalue { i8*, i32 } %15, 0
  %17 = extractvalue { i8*, i32 } %15, 1
  %18 = getelementptr inbounds { i8*, i32 }, { i8*, i32 }* %2, i32 0, i32 0
  store i8* %16, i8** %18, align 8
  %19 = getelementptr inbounds { i8*, i32 }, { i8*, i32 }* %2, i32 0, i32 1
  store i32 %17, i32* %19, align 8
  br label %bb9

bb4:                                              ; preds = %bb3
  store i8 0, i8* %_16, align 1, !dbg !844
; invoke <&str as proc_macro::bridge::rpc::Encode<S>>::encode
  invoke void @"_ZN68_$LT$$RF$str$u20$as$u20$proc_macro..bridge..rpc..Encode$LT$S$GT$$GT$6encode17hba6464c36be37697E"([0 x i8]* align 1 %t.0, i64 %t.1, %"proc_macro::bridge::buffer::Buffer"* align 8 %w, {}* align 1 %s)
          to label %bb5 unwind label %cleanup, !dbg !844

bb5:                                              ; preds = %bb4
  br label %bb7, !dbg !843

bb10:                                             ; preds = %bb8, %bb9
  %20 = bitcast { i8*, i32 }* %2 to i8**, !dbg !845
  %21 = load i8*, i8** %20, align 8, !dbg !845
  %22 = getelementptr inbounds { i8*, i32 }, { i8*, i32 }* %2, i32 0, i32 1, !dbg !845
  %23 = load i32, i32* %22, align 8, !dbg !845
  %24 = insertvalue { i8*, i32 } undef, i8* %21, 0, !dbg !845
  %25 = insertvalue { i8*, i32 } %24, i32 %23, 1, !dbg !845
  resume { i8*, i32 } %25, !dbg !845

bb8:                                              ; preds = %bb9
  br label %bb10, !dbg !843

bb7:                                              ; preds = %bb6, %bb5
  ret void, !dbg !846

bb6:                                              ; preds = %bb1
  br label %bb7, !dbg !847
}

; proc_macro::bridge::<impl proc_macro::bridge::rpc::Encode<S> for core::option::Option<T>>::encode
; Function Attrs: nonlazybind uwtable
define internal void @"_ZN10proc_macro6bridge100_$LT$impl$u20$proc_macro..bridge..rpc..Encode$LT$S$GT$$u20$for$u20$core..option..Option$LT$T$GT$$GT$6encode17haa31a8d681da04b6E"(i32 %0, %"proc_macro::bridge::buffer::Buffer"* align 8 %w, {}* align 1 %s) unnamed_addr #1 personality i32 (i32, i32, i64, %"unwind::libunwind::_Unwind_Exception"*, %"unwind::libunwind::_Unwind_Context"*)* @rust_eh_personality !dbg !848 {
start:
  %1 = alloca { i8*, i32 }, align 8
  %s.dbg.spill = alloca {}*, align 8
  %w.dbg.spill = alloca %"proc_macro::bridge::buffer::Buffer"*, align 8
  %_16 = alloca i8, align 1
  %t = alloca i32, align 4
  %self = alloca i32, align 4
  store i32 %0, i32* %self, align 4
  call void @llvm.dbg.declare(metadata i32* %self, metadata !852, metadata !DIExpression()), !dbg !858
  store %"proc_macro::bridge::buffer::Buffer"* %w, %"proc_macro::bridge::buffer::Buffer"** %w.dbg.spill, align 8
  call void @llvm.dbg.declare(metadata %"proc_macro::bridge::buffer::Buffer"** %w.dbg.spill, metadata !853, metadata !DIExpression()), !dbg !859
  store {}* %s, {}** %s.dbg.spill, align 8
  call void @llvm.dbg.declare(metadata {}** %s.dbg.spill, metadata !854, metadata !DIExpression()), !dbg !860
  call void @llvm.dbg.declare(metadata i32* %t, metadata !855, metadata !DIExpression()), !dbg !861
  %2 = load i32, i32* %self, align 4, !dbg !862
  %3 = icmp eq i32 %2, 0, !dbg !862
  %_4 = select i1 %3, i64 0, i64 1, !dbg !862
  switch i64 %_4, label %bb2 [
    i64 0, label %bb1
    i64 1, label %bb3
  ], !dbg !863

bb2:                                              ; preds = %start
  unreachable, !dbg !862

bb1:                                              ; preds = %start
; call <u8 as proc_macro::bridge::rpc::Encode<S>>::encode
  call void @"_ZN63_$LT$u8$u20$as$u20$proc_macro..bridge..rpc..Encode$LT$S$GT$$GT$6encode17h18dcaaf63bdfe937E"(i8 1, %"proc_macro::bridge::buffer::Buffer"* align 8 %w, {}* align 1 %s), !dbg !864
  br label %bb6, !dbg !864

bb3:                                              ; preds = %start
  store i8 1, i8* %_16, align 1, !dbg !865
  %4 = load i32, i32* %self, align 4, !dbg !865, !range !642, !noundef !27
  store i32 %4, i32* %t, align 4, !dbg !865
; invoke <u8 as proc_macro::bridge::rpc::Encode<S>>::encode
  invoke void @"_ZN63_$LT$u8$u20$as$u20$proc_macro..bridge..rpc..Encode$LT$S$GT$$GT$6encode17h18dcaaf63bdfe937E"(i8 0, %"proc_macro::bridge::buffer::Buffer"* align 8 %w, {}* align 1 %s)
          to label %bb4 unwind label %cleanup, !dbg !866

bb9:                                              ; preds = %cleanup
  %5 = load i8, i8* %_16, align 1, !dbg !867, !range !759, !noundef !27
  %6 = trunc i8 %5 to i1, !dbg !867
  br i1 %6, label %bb8, label %bb10, !dbg !867

cleanup:                                          ; preds = %bb4, %bb3
  %7 = landingpad { i8*, i32 }
          cleanup
  %8 = extractvalue { i8*, i32 } %7, 0
  %9 = extractvalue { i8*, i32 } %7, 1
  %10 = getelementptr inbounds { i8*, i32 }, { i8*, i32 }* %1, i32 0, i32 0
  store i8* %8, i8** %10, align 8
  %11 = getelementptr inbounds { i8*, i32 }, { i8*, i32 }* %1, i32 0, i32 1
  store i32 %9, i32* %11, align 8
  br label %bb9

bb4:                                              ; preds = %bb3
  store i8 0, i8* %_16, align 1, !dbg !868
  %_10 = load i32, i32* %t, align 4, !dbg !868, !range !642, !noundef !27
; invoke <proc_macro::bridge::client::TokenStream as proc_macro::bridge::rpc::Encode<S>>::encode
  invoke void @"_ZN100_$LT$proc_macro..bridge..client..TokenStream$u20$as$u20$proc_macro..bridge..rpc..Encode$LT$S$GT$$GT$6encode17h1c05180f801e837eE"(i32 %_10, %"proc_macro::bridge::buffer::Buffer"* align 8 %w, {}* align 1 %s)
          to label %bb5 unwind label %cleanup, !dbg !868

bb5:                                              ; preds = %bb4
  br label %bb7, !dbg !867

bb10:                                             ; preds = %bb8, %bb9
  %12 = bitcast { i8*, i32 }* %1 to i8**, !dbg !869
  %13 = load i8*, i8** %12, align 8, !dbg !869
  %14 = getelementptr inbounds { i8*, i32 }, { i8*, i32 }* %1, i32 0, i32 1, !dbg !869
  %15 = load i32, i32* %14, align 8, !dbg !869
  %16 = insertvalue { i8*, i32 } undef, i8* %13, 0, !dbg !869
  %17 = insertvalue { i8*, i32 } %16, i32 %15, 1, !dbg !869
  resume { i8*, i32 } %17, !dbg !869

bb8:                                              ; preds = %bb9
; invoke core::ptr::drop_in_place<proc_macro::bridge::client::TokenStream>
  invoke void @"_ZN4core3ptr60drop_in_place$LT$proc_macro..bridge..client..TokenStream$GT$17h6e4ae08084020ae3E"(i32* %t) #19
          to label %bb10 unwind label %abort, !dbg !867

abort:                                            ; preds = %bb8
  %18 = landingpad { i8*, i32 }
          cleanup, !dbg !869
; call core::panicking::panic_no_unwind
  call void @_ZN4core9panicking15panic_no_unwind17h62f8113f44cbfcbfE() #20, !dbg !869
  unreachable, !dbg !869

bb7:                                              ; preds = %bb6, %bb5
  ret void, !dbg !870

bb6:                                              ; preds = %bb1
  br label %bb7, !dbg !871
}

; proc_macro::bridge::<impl proc_macro::bridge::rpc::Encode<S> for core::result::Result<T,E>>::encode
; Function Attrs: nonlazybind uwtable
define internal void @"_ZN10proc_macro6bridge104_$LT$impl$u20$proc_macro..bridge..rpc..Encode$LT$S$GT$$u20$for$u20$core..result..Result$LT$T$C$E$GT$$GT$6encode17h3118e371acb46529E"(%"core::result::Result<(), proc_macro::bridge::rpc::PanicMessage>"* %self, %"proc_macro::bridge::buffer::Buffer"* align 8 %w, {}* align 1 %s) unnamed_addr #1 personality i32 (i32, i32, i64, %"unwind::libunwind::_Unwind_Exception"*, %"unwind::libunwind::_Unwind_Context"*)* @rust_eh_personality !dbg !872 {
start:
  %0 = alloca { i8*, i32 }, align 8
  %t.dbg.spill = alloca {}, align 1
  %s.dbg.spill = alloca {}*, align 8
  %w.dbg.spill = alloca %"proc_macro::bridge::buffer::Buffer"*, align 8
  %_22 = alloca i8, align 1
  %_21 = alloca i8, align 1
  %_18 = alloca %"proc_macro::bridge::rpc::PanicMessage", align 8
  %e = alloca %"proc_macro::bridge::rpc::PanicMessage", align 8
  call void @llvm.dbg.declare(metadata %"core::result::Result<(), proc_macro::bridge::rpc::PanicMessage>"* %self, metadata !909, metadata !DIExpression()), !dbg !917
  store %"proc_macro::bridge::buffer::Buffer"* %w, %"proc_macro::bridge::buffer::Buffer"** %w.dbg.spill, align 8
  call void @llvm.dbg.declare(metadata %"proc_macro::bridge::buffer::Buffer"** %w.dbg.spill, metadata !910, metadata !DIExpression()), !dbg !918
  store {}* %s, {}** %s.dbg.spill, align 8
  call void @llvm.dbg.declare(metadata {}** %s.dbg.spill, metadata !911, metadata !DIExpression()), !dbg !919
  call void @llvm.dbg.declare(metadata {}* %t.dbg.spill, metadata !912, metadata !DIExpression()), !dbg !920
  call void @llvm.dbg.declare(metadata %"proc_macro::bridge::rpc::PanicMessage"* %e, metadata !914, metadata !DIExpression()), !dbg !921
  %1 = bitcast %"core::result::Result<(), proc_macro::bridge::rpc::PanicMessage>"* %self to i64*, !dbg !922
  %2 = load i64, i64* %1, align 8, !dbg !922, !range !923, !noundef !27
  %3 = sub i64 %2, 3, !dbg !922
  %4 = icmp eq i64 %3, 0, !dbg !922
  %_4 = select i1 %4, i64 0, i64 1, !dbg !922
  switch i64 %_4, label %bb2 [
    i64 0, label %bb3
    i64 1, label %bb1
  ], !dbg !924

bb2:                                              ; preds = %start
  unreachable, !dbg !922

bb3:                                              ; preds = %start
  store i8 1, i8* %_22, align 1, !dbg !925
; invoke <u8 as proc_macro::bridge::rpc::Encode<S>>::encode
  invoke void @"_ZN63_$LT$u8$u20$as$u20$proc_macro..bridge..rpc..Encode$LT$S$GT$$GT$6encode17h18dcaaf63bdfe937E"(i8 0, %"proc_macro::bridge::buffer::Buffer"* align 8 %w, {}* align 1 %s)
          to label %bb4 unwind label %cleanup1, !dbg !926

bb1:                                              ; preds = %start
  store i8 1, i8* %_21, align 1, !dbg !925
  %5 = bitcast %"core::result::Result<(), proc_macro::bridge::rpc::PanicMessage>"* %self to %"core::result::Result<(), proc_macro::bridge::rpc::PanicMessage>::Err"*, !dbg !925
  %6 = bitcast %"core::result::Result<(), proc_macro::bridge::rpc::PanicMessage>::Err"* %5 to %"proc_macro::bridge::rpc::PanicMessage"*, !dbg !925
  %7 = bitcast %"proc_macro::bridge::rpc::PanicMessage"* %e to i8*, !dbg !925
  %8 = bitcast %"proc_macro::bridge::rpc::PanicMessage"* %6 to i8*, !dbg !925
  call void @llvm.memcpy.p0i8.p0i8.i64(i8* align 8 %7, i8* align 8 %8, i64 32, i1 false), !dbg !925
; invoke <u8 as proc_macro::bridge::rpc::Encode<S>>::encode
  invoke void @"_ZN63_$LT$u8$u20$as$u20$proc_macro..bridge..rpc..Encode$LT$S$GT$$GT$6encode17h18dcaaf63bdfe937E"(i8 1, %"proc_macro::bridge::buffer::Buffer"* align 8 %w, {}* align 1 %s)
          to label %bb6 unwind label %cleanup, !dbg !927

bb10:                                             ; preds = %cleanup
  %9 = load i8, i8* %_21, align 1, !dbg !928, !range !759, !noundef !27
  %10 = trunc i8 %9 to i1, !dbg !928
  br i1 %10, label %bb9, label %bb13, !dbg !928

cleanup:                                          ; preds = %bb6, %bb1
  %11 = landingpad { i8*, i32 }
          cleanup
  %12 = extractvalue { i8*, i32 } %11, 0
  %13 = extractvalue { i8*, i32 } %11, 1
  %14 = getelementptr inbounds { i8*, i32 }, { i8*, i32 }* %0, i32 0, i32 0
  store i8* %12, i8** %14, align 8
  %15 = getelementptr inbounds { i8*, i32 }, { i8*, i32 }* %0, i32 0, i32 1
  store i32 %13, i32* %15, align 8
  br label %bb10

bb6:                                              ; preds = %bb1
  store i8 0, i8* %_21, align 1, !dbg !929
  %16 = bitcast %"proc_macro::bridge::rpc::PanicMessage"* %_18 to i8*, !dbg !929
  %17 = bitcast %"proc_macro::bridge::rpc::PanicMessage"* %e to i8*, !dbg !929
  call void @llvm.memcpy.p0i8.p0i8.i64(i8* align 8 %16, i8* align 8 %17, i64 32, i1 false), !dbg !929
; invoke <proc_macro::bridge::rpc::PanicMessage as proc_macro::bridge::rpc::Encode<S>>::encode
  invoke void @"_ZN98_$LT$proc_macro..bridge..rpc..PanicMessage$u20$as$u20$proc_macro..bridge..rpc..Encode$LT$S$GT$$GT$6encode17h48e5f54ac329d40aE"(%"proc_macro::bridge::rpc::PanicMessage"* %_18, %"proc_macro::bridge::buffer::Buffer"* align 8 %w, {}* align 1 %s)
          to label %bb7 unwind label %cleanup, !dbg !929

bb7:                                              ; preds = %bb6
  br label %bb8, !dbg !928

bb13:                                             ; preds = %bb11, %bb12, %bb9, %bb10
  %18 = bitcast { i8*, i32 }* %0 to i8**, !dbg !930
  %19 = load i8*, i8** %18, align 8, !dbg !930
  %20 = getelementptr inbounds { i8*, i32 }, { i8*, i32 }* %0, i32 0, i32 1, !dbg !930
  %21 = load i32, i32* %20, align 8, !dbg !930
  %22 = insertvalue { i8*, i32 } undef, i8* %19, 0, !dbg !930
  %23 = insertvalue { i8*, i32 } %22, i32 %21, 1, !dbg !930
  resume { i8*, i32 } %23, !dbg !930

bb9:                                              ; preds = %bb10
; invoke core::ptr::drop_in_place<proc_macro::bridge::rpc::PanicMessage>
  invoke void @"_ZN4core3ptr58drop_in_place$LT$proc_macro..bridge..rpc..PanicMessage$GT$17ha026d0b68f540484E"(%"proc_macro::bridge::rpc::PanicMessage"* %e) #19
          to label %bb13 unwind label %abort, !dbg !928

abort:                                            ; preds = %bb9
  %24 = landingpad { i8*, i32 }
          cleanup, !dbg !930
; call core::panicking::panic_no_unwind
  call void @_ZN4core9panicking15panic_no_unwind17h62f8113f44cbfcbfE() #20, !dbg !930
  unreachable, !dbg !930

bb8:                                              ; preds = %bb5, %bb7
  ret void, !dbg !931

bb12:                                             ; preds = %cleanup1
  %25 = load i8, i8* %_22, align 1, !dbg !928, !range !759, !noundef !27
  %26 = trunc i8 %25 to i1, !dbg !928
  br i1 %26, label %bb11, label %bb13, !dbg !928

cleanup1:                                         ; preds = %bb4, %bb3
  %27 = landingpad { i8*, i32 }
          cleanup
  %28 = extractvalue { i8*, i32 } %27, 0
  %29 = extractvalue { i8*, i32 } %27, 1
  %30 = getelementptr inbounds { i8*, i32 }, { i8*, i32 }* %0, i32 0, i32 0
  store i8* %28, i8** %30, align 8
  %31 = getelementptr inbounds { i8*, i32 }, { i8*, i32 }* %0, i32 0, i32 1
  store i32 %29, i32* %31, align 8
  br label %bb12

bb4:                                              ; preds = %bb3
  store i8 0, i8* %_22, align 1, !dbg !932
; invoke <() as proc_macro::bridge::rpc::Encode<S>>::encode
  invoke void @"_ZN69_$LT$$LP$$RP$$u20$as$u20$proc_macro..bridge..rpc..Encode$LT$S$GT$$GT$6encode17h89c64569fb1c86c5E"(%"proc_macro::bridge::buffer::Buffer"* align 8 %w, {}* align 1 %s)
          to label %bb5 unwind label %cleanup1, !dbg !932

bb5:                                              ; preds = %bb4
  br label %bb8, !dbg !928

bb11:                                             ; preds = %bb12
  br label %bb13, !dbg !928
}

; proc_macro::bridge::<impl proc_macro::bridge::rpc::Encode<S> for core::result::Result<T,E>>::encode
; Function Attrs: nonlazybind uwtable
define internal void @"_ZN10proc_macro6bridge104_$LT$impl$u20$proc_macro..bridge..rpc..Encode$LT$S$GT$$u20$for$u20$core..result..Result$LT$T$C$E$GT$$GT$6encode17h8ab643544b667b03E"(i32 %0, i32 %1, %"proc_macro::bridge::buffer::Buffer"* align 8 %w, {}* align 1 %s) unnamed_addr #1 personality i32 (i32, i32, i64, %"unwind::libunwind::_Unwind_Exception"*, %"unwind::libunwind::_Unwind_Context"*)* @rust_eh_personality !dbg !933 {
start:
  %2 = alloca { i8*, i32 }, align 8
  %e.dbg.spill = alloca {}, align 1
  %s.dbg.spill = alloca {}*, align 8
  %w.dbg.spill = alloca %"proc_macro::bridge::buffer::Buffer"*, align 8
  %_22 = alloca i8, align 1
  %_21 = alloca i8, align 1
  %t = alloca i32, align 4
  %self = alloca { i32, i32 }, align 4
  %3 = getelementptr inbounds { i32, i32 }, { i32, i32 }* %self, i32 0, i32 0
  store i32 %0, i32* %3, align 4
  %4 = getelementptr inbounds { i32, i32 }, { i32, i32 }* %self, i32 0, i32 1
  store i32 %1, i32* %4, align 4
  call void @llvm.dbg.declare(metadata { i32, i32 }* %self, metadata !953, metadata !DIExpression()), !dbg !961
  store %"proc_macro::bridge::buffer::Buffer"* %w, %"proc_macro::bridge::buffer::Buffer"** %w.dbg.spill, align 8
  call void @llvm.dbg.declare(metadata %"proc_macro::bridge::buffer::Buffer"** %w.dbg.spill, metadata !954, metadata !DIExpression()), !dbg !962
  store {}* %s, {}** %s.dbg.spill, align 8
  call void @llvm.dbg.declare(metadata {}** %s.dbg.spill, metadata !955, metadata !DIExpression()), !dbg !963
  call void @llvm.dbg.declare(metadata i32* %t, metadata !956, metadata !DIExpression()), !dbg !964
  call void @llvm.dbg.declare(metadata {}* %e.dbg.spill, metadata !958, metadata !DIExpression()), !dbg !965
  %5 = bitcast { i32, i32 }* %self to i32*, !dbg !966
  %6 = load i32, i32* %5, align 4, !dbg !966, !range !967, !noundef !27
  %_4 = zext i32 %6 to i64, !dbg !966
  switch i64 %_4, label %bb2 [
    i64 0, label %bb3
    i64 1, label %bb1
  ], !dbg !968

bb2:                                              ; preds = %start
  unreachable, !dbg !966

bb3:                                              ; preds = %start
  store i8 1, i8* %_22, align 1, !dbg !969
  %7 = getelementptr inbounds { i32, i32 }, { i32, i32 }* %self, i32 0, i32 1, !dbg !969
  %8 = load i32, i32* %7, align 4, !dbg !969
  store i32 %8, i32* %t, align 4, !dbg !969
; invoke <u8 as proc_macro::bridge::rpc::Encode<S>>::encode
  invoke void @"_ZN63_$LT$u8$u20$as$u20$proc_macro..bridge..rpc..Encode$LT$S$GT$$GT$6encode17h18dcaaf63bdfe937E"(i8 0, %"proc_macro::bridge::buffer::Buffer"* align 8 %w, {}* align 1 %s)
          to label %bb4 unwind label %cleanup1, !dbg !970

bb1:                                              ; preds = %start
  store i8 1, i8* %_21, align 1, !dbg !969
; invoke <u8 as proc_macro::bridge::rpc::Encode<S>>::encode
  invoke void @"_ZN63_$LT$u8$u20$as$u20$proc_macro..bridge..rpc..Encode$LT$S$GT$$GT$6encode17h18dcaaf63bdfe937E"(i8 1, %"proc_macro::bridge::buffer::Buffer"* align 8 %w, {}* align 1 %s)
          to label %bb6 unwind label %cleanup, !dbg !971

bb10:                                             ; preds = %cleanup
  %9 = load i8, i8* %_21, align 1, !dbg !972, !range !759, !noundef !27
  %10 = trunc i8 %9 to i1, !dbg !972
  br i1 %10, label %bb9, label %bb13, !dbg !972

cleanup:                                          ; preds = %bb6, %bb1
  %11 = landingpad { i8*, i32 }
          cleanup
  %12 = extractvalue { i8*, i32 } %11, 0
  %13 = extractvalue { i8*, i32 } %11, 1
  %14 = getelementptr inbounds { i8*, i32 }, { i8*, i32 }* %2, i32 0, i32 0
  store i8* %12, i8** %14, align 8
  %15 = getelementptr inbounds { i8*, i32 }, { i8*, i32 }* %2, i32 0, i32 1
  store i32 %13, i32* %15, align 8
  br label %bb10

bb6:                                              ; preds = %bb1
  store i8 0, i8* %_21, align 1, !dbg !973
; invoke <() as proc_macro::bridge::rpc::Encode<S>>::encode
  invoke void @"_ZN69_$LT$$LP$$RP$$u20$as$u20$proc_macro..bridge..rpc..Encode$LT$S$GT$$GT$6encode17h89c64569fb1c86c5E"(%"proc_macro::bridge::buffer::Buffer"* align 8 %w, {}* align 1 %s)
          to label %bb7 unwind label %cleanup, !dbg !973

bb7:                                              ; preds = %bb6
  br label %bb8, !dbg !972

bb13:                                             ; preds = %bb11, %bb12, %bb9, %bb10
  %16 = bitcast { i8*, i32 }* %2 to i8**, !dbg !974
  %17 = load i8*, i8** %16, align 8, !dbg !974
  %18 = getelementptr inbounds { i8*, i32 }, { i8*, i32 }* %2, i32 0, i32 1, !dbg !974
  %19 = load i32, i32* %18, align 8, !dbg !974
  %20 = insertvalue { i8*, i32 } undef, i8* %17, 0, !dbg !974
  %21 = insertvalue { i8*, i32 } %20, i32 %19, 1, !dbg !974
  resume { i8*, i32 } %21, !dbg !974

bb9:                                              ; preds = %bb10
  br label %bb13, !dbg !972

bb8:                                              ; preds = %bb5, %bb7
  ret void, !dbg !975

bb12:                                             ; preds = %cleanup1
  %22 = load i8, i8* %_22, align 1, !dbg !972, !range !759, !noundef !27
  %23 = trunc i8 %22 to i1, !dbg !972
  br i1 %23, label %bb11, label %bb13, !dbg !972

cleanup1:                                         ; preds = %bb4, %bb3
  %24 = landingpad { i8*, i32 }
          cleanup
  %25 = extractvalue { i8*, i32 } %24, 0
  %26 = extractvalue { i8*, i32 } %24, 1
  %27 = getelementptr inbounds { i8*, i32 }, { i8*, i32 }* %2, i32 0, i32 0
  store i8* %25, i8** %27, align 8
  %28 = getelementptr inbounds { i8*, i32 }, { i8*, i32 }* %2, i32 0, i32 1
  store i32 %26, i32* %28, align 8
  br label %bb12

bb4:                                              ; preds = %bb3
  store i8 0, i8* %_22, align 1, !dbg !976
  %_10 = load i32, i32* %t, align 4, !dbg !976
; invoke proc_macro::bridge::<impl proc_macro::bridge::rpc::Encode<S> for core::option::Option<T>>::encode
  invoke void @"_ZN10proc_macro6bridge100_$LT$impl$u20$proc_macro..bridge..rpc..Encode$LT$S$GT$$u20$for$u20$core..option..Option$LT$T$GT$$GT$6encode17haa31a8d681da04b6E"(i32 %_10, %"proc_macro::bridge::buffer::Buffer"* align 8 %w, {}* align 1 %s)
          to label %bb5 unwind label %cleanup1, !dbg !976

bb5:                                              ; preds = %bb4
  br label %bb8, !dbg !972

bb11:                                             ; preds = %bb12
; invoke core::ptr::drop_in_place<core::option::Option<proc_macro::bridge::client::TokenStream>>
  invoke void @"_ZN4core3ptr88drop_in_place$LT$core..option..Option$LT$proc_macro..bridge..client..TokenStream$GT$$GT$17h0d2fe3aa7bb6e441E"(i32* %t) #19
          to label %bb13 unwind label %abort, !dbg !972

abort:                                            ; preds = %bb11
  %29 = landingpad { i8*, i32 }
          cleanup, !dbg !974
; call core::panicking::panic_no_unwind
  call void @_ZN4core9panicking15panic_no_unwind17h62f8113f44cbfcbfE() #20, !dbg !974
  unreachable, !dbg !974
}

; proc_macro::bridge::scoped_cell::ScopedCell<T>::new
; Function Attrs: nonlazybind uwtable
define internal void @"_ZN10proc_macro6bridge11scoped_cell19ScopedCell$LT$T$GT$3new17hfe6f4b7449893b9bE"(%"proc_macro::bridge::scoped_cell::ScopedCell<proc_macro::bridge::client::BridgeStateL>"* sret(%"proc_macro::bridge::scoped_cell::ScopedCell<proc_macro::bridge::client::BridgeStateL>") %0, %"proc_macro::bridge::client::BridgeState"* %value) unnamed_addr #1 !dbg !977 {
start:
  %_6 = alloca %"proc_macro::bridge::client::BridgeState", align 8
  %value2 = alloca %"proc_macro::bridge::client::BridgeState", align 8
  %_4 = alloca %"core::cell::UnsafeCell<proc_macro::bridge::client::BridgeState>", align 8
  %value1 = alloca %"proc_macro::bridge::client::BridgeState", align 8
  %_2 = alloca %"core::cell::Cell<proc_macro::bridge::client::BridgeState>", align 8
  call void @llvm.dbg.declare(metadata %"proc_macro::bridge::client::BridgeState"* %value, metadata !1017, metadata !DIExpression()), !dbg !1018
  call void @llvm.dbg.declare(metadata %"proc_macro::bridge::client::BridgeState"* %value1, metadata !1019, metadata !DIExpression()), !dbg !1026
  call void @llvm.dbg.declare(metadata %"proc_macro::bridge::client::BridgeState"* %value2, metadata !1028, metadata !DIExpression()), !dbg !1034
  %1 = bitcast %"proc_macro::bridge::client::BridgeState"* %value1 to i8*, !dbg !1036
  %2 = bitcast %"proc_macro::bridge::client::BridgeState"* %value to i8*, !dbg !1036
  call void @llvm.memcpy.p0i8.p0i8.i64(i8* align 8 %1, i8* align 8 %2, i64 80, i1 false), !dbg !1036
  %3 = bitcast %"proc_macro::bridge::client::BridgeState"* %value2 to i8*, !dbg !1026
  %4 = bitcast %"proc_macro::bridge::client::BridgeState"* %value1 to i8*, !dbg !1026
  call void @llvm.memcpy.p0i8.p0i8.i64(i8* align 8 %3, i8* align 8 %4, i64 80, i1 false), !dbg !1026
  %5 = bitcast %"proc_macro::bridge::client::BridgeState"* %_6 to i8*, !dbg !1034
  %6 = bitcast %"proc_macro::bridge::client::BridgeState"* %value2 to i8*, !dbg !1034
  call void @llvm.memcpy.p0i8.p0i8.i64(i8* align 8 %5, i8* align 8 %6, i64 80, i1 false), !dbg !1034
  %7 = bitcast %"core::cell::UnsafeCell<proc_macro::bridge::client::BridgeState>"* %_4 to %"proc_macro::bridge::client::BridgeState"*, !dbg !1034
  %8 = bitcast %"proc_macro::bridge::client::BridgeState"* %7 to i8*, !dbg !1034
  %9 = bitcast %"proc_macro::bridge::client::BridgeState"* %_6 to i8*, !dbg !1034
  call void @llvm.memcpy.p0i8.p0i8.i64(i8* align 8 %8, i8* align 8 %9, i64 80, i1 false), !dbg !1034
  %10 = bitcast %"core::cell::Cell<proc_macro::bridge::client::BridgeState>"* %_2 to %"core::cell::UnsafeCell<proc_macro::bridge::client::BridgeState>"*, !dbg !1026
  %11 = bitcast %"core::cell::UnsafeCell<proc_macro::bridge::client::BridgeState>"* %10 to i8*, !dbg !1026
  %12 = bitcast %"core::cell::UnsafeCell<proc_macro::bridge::client::BridgeState>"* %_4 to i8*, !dbg !1026
  call void @llvm.memcpy.p0i8.p0i8.i64(i8* align 8 %11, i8* align 8 %12, i64 80, i1 false), !dbg !1026
  %13 = bitcast %"proc_macro::bridge::scoped_cell::ScopedCell<proc_macro::bridge::client::BridgeStateL>"* %0 to %"core::cell::Cell<proc_macro::bridge::client::BridgeState>"*, !dbg !1037
  %14 = bitcast %"core::cell::Cell<proc_macro::bridge::client::BridgeState>"* %13 to i8*, !dbg !1037
  %15 = bitcast %"core::cell::Cell<proc_macro::bridge::client::BridgeState>"* %_2 to i8*, !dbg !1037
  call void @llvm.memcpy.p0i8.p0i8.i64(i8* align 8 %14, i8* align 8 %15, i64 80, i1 false), !dbg !1037
  ret void, !dbg !1038
}

; proc_macro::bridge::scoped_cell::ScopedCell<T>::set
; Function Attrs: nonlazybind uwtable
define internal void @"_ZN10proc_macro6bridge11scoped_cell19ScopedCell$LT$T$GT$3set17hf32551b6ab7cf3cdE"(%"proc_macro::bridge::scoped_cell::ScopedCell<proc_macro::bridge::client::BridgeStateL>"* align 8 %self, %"proc_macro::bridge::client::BridgeState"* %value, %"[closure@proc_macro::bridge::client::run_client<proc_macro::bridge::client::TokenStream, core::option::Option<proc_macro::bridge::client::TokenStream>, [closure@proc_macro::bridge::client::Client<proc_macro::TokenStream, proc_macro::TokenStream>::expand1<fn(proc_macro::TokenStream) -> proc_macro::TokenStream {f128_inner}>::{closure#0}::{closure#0}]>::{closure#0}::{closure#0}::{closure#0}]"* %f) unnamed_addr #1 !dbg !1039 {
start:
  %self.dbg.spill = alloca %"proc_macro::bridge::scoped_cell::ScopedCell<proc_macro::bridge::client::BridgeStateL>"*, align 8
  %_6 = alloca %"[closure@proc_macro::bridge::scoped_cell::ScopedCell<proc_macro::bridge::client::BridgeStateL>::set<(), [closure@proc_macro::bridge::client::run_client<proc_macro::bridge::client::TokenStream, core::option::Option<proc_macro::bridge::client::TokenStream>, [closure@proc_macro::bridge::client::Client<proc_macro::TokenStream, proc_macro::TokenStream>::expand1<fn(proc_macro::TokenStream) -> proc_macro::TokenStream {f128_inner}>::{closure#0}::{closure#0}]>::{closure#0}::{closure#0}::{closure#0}]>::{closure#0}]", align 8
  %_5 = alloca %"proc_macro::bridge::client::BridgeState", align 8
  store %"proc_macro::bridge::scoped_cell::ScopedCell<proc_macro::bridge::client::BridgeStateL>"* %self, %"proc_macro::bridge::scoped_cell::ScopedCell<proc_macro::bridge::client::BridgeStateL>"** %self.dbg.spill, align 8
  call void @llvm.dbg.declare(metadata %"proc_macro::bridge::scoped_cell::ScopedCell<proc_macro::bridge::client::BridgeStateL>"** %self.dbg.spill, metadata !1059, metadata !DIExpression()), !dbg !1065
  call void @llvm.dbg.declare(metadata %"proc_macro::bridge::client::BridgeState"* %value, metadata !1060, metadata !DIExpression()), !dbg !1066
  call void @llvm.dbg.declare(metadata %"[closure@proc_macro::bridge::client::run_client<proc_macro::bridge::client::TokenStream, core::option::Option<proc_macro::bridge::client::TokenStream>, [closure@proc_macro::bridge::client::Client<proc_macro::TokenStream, proc_macro::TokenStream>::expand1<fn(proc_macro::TokenStream) -> proc_macro::TokenStream {f128_inner}>::{closure#0}::{closure#0}]>::{closure#0}::{closure#0}::{closure#0}]"* %f, metadata !1061, metadata !DIExpression()), !dbg !1067
  %0 = bitcast %"proc_macro::bridge::client::BridgeState"* %_5 to i8*, !dbg !1068
  %1 = bitcast %"proc_macro::bridge::client::BridgeState"* %value to i8*, !dbg !1068
  call void @llvm.memcpy.p0i8.p0i8.i64(i8* align 8 %0, i8* align 8 %1, i64 80, i1 false), !dbg !1068
  %2 = bitcast %"[closure@proc_macro::bridge::scoped_cell::ScopedCell<proc_macro::bridge::client::BridgeStateL>::set<(), [closure@proc_macro::bridge::client::run_client<proc_macro::bridge::client::TokenStream, core::option::Option<proc_macro::bridge::client::TokenStream>, [closure@proc_macro::bridge::client::Client<proc_macro::TokenStream, proc_macro::TokenStream>::expand1<fn(proc_macro::TokenStream) -> proc_macro::TokenStream {f128_inner}>::{closure#0}::{closure#0}]>::{closure#0}::{closure#0}::{closure#0}]>::{closure#0}]"* %_6 to %"[closure@proc_macro::bridge::client::run_client<proc_macro::bridge::client::TokenStream, core::option::Option<proc_macro::bridge::client::TokenStream>, [closure@proc_macro::bridge::client::Client<proc_macro::TokenStream, proc_macro::TokenStream>::expand1<fn(proc_macro::TokenStream) -> proc_macro::TokenStream {f128_inner}>::{closure#0}::{closure#0}]>::{closure#0}::{closure#0}::{closure#0}]"*, !dbg !1069
  %3 = bitcast %"[closure@proc_macro::bridge::client::run_client<proc_macro::bridge::client::TokenStream, core::option::Option<proc_macro::bridge::client::TokenStream>, [closure@proc_macro::bridge::client::Client<proc_macro::TokenStream, proc_macro::TokenStream>::expand1<fn(proc_macro::TokenStream) -> proc_macro::TokenStream {f128_inner}>::{closure#0}::{closure#0}]>::{closure#0}::{closure#0}::{closure#0}]"* %2 to i8*, !dbg !1069
  %4 = bitcast %"[closure@proc_macro::bridge::client::run_client<proc_macro::bridge::client::TokenStream, core::option::Option<proc_macro::bridge::client::TokenStream>, [closure@proc_macro::bridge::client::Client<proc_macro::TokenStream, proc_macro::TokenStream>::expand1<fn(proc_macro::TokenStream) -> proc_macro::TokenStream {f128_inner}>::{closure#0}::{closure#0}]>::{closure#0}::{closure#0}::{closure#0}]"* %f to i8*, !dbg !1069
  call void @llvm.memcpy.p0i8.p0i8.i64(i8* align 8 %3, i8* align 8 %4, i64 24, i1 false), !dbg !1069
; call proc_macro::bridge::scoped_cell::ScopedCell<T>::replace
  call void @"_ZN10proc_macro6bridge11scoped_cell19ScopedCell$LT$T$GT$7replace17h464957909ae8eab9E"(%"proc_macro::bridge::scoped_cell::ScopedCell<proc_macro::bridge::client::BridgeStateL>"* align 8 %self, %"proc_macro::bridge::client::BridgeState"* %_5, %"[closure@proc_macro::bridge::scoped_cell::ScopedCell<proc_macro::bridge::client::BridgeStateL>::set<(), [closure@proc_macro::bridge::client::run_client<proc_macro::bridge::client::TokenStream, core::option::Option<proc_macro::bridge::client::TokenStream>, [closure@proc_macro::bridge::client::Client<proc_macro::TokenStream, proc_macro::TokenStream>::expand1<fn(proc_macro::TokenStream) -> proc_macro::TokenStream {f128_inner}>::{closure#0}::{closure#0}]>::{closure#0}::{closure#0}::{closure#0}]>::{closure#0}]"* %_6), !dbg !1070
  br label %bb1, !dbg !1070

bb1:                                              ; preds = %start
  ret void, !dbg !1071
}

; proc_macro::bridge::scoped_cell::ScopedCell<T>::set::{{closure}}
; Function Attrs: inlinehint nonlazybind uwtable
define internal void @"_ZN10proc_macro6bridge11scoped_cell19ScopedCell$LT$T$GT$3set28_$u7b$$u7b$closure$u7d$$u7d$17h1a2c85c9c6853d0fE"(%"[closure@proc_macro::bridge::scoped_cell::ScopedCell<proc_macro::bridge::client::BridgeStateL>::set<(), [closure@proc_macro::bridge::client::run_client<proc_macro::bridge::client::TokenStream, core::option::Option<proc_macro::bridge::client::TokenStream>, [closure@proc_macro::bridge::client::Client<proc_macro::TokenStream, proc_macro::TokenStream>::expand1<fn(proc_macro::TokenStream) -> proc_macro::TokenStream {f128_inner}>::{closure#0}::{closure#0}]>::{closure#0}::{closure#0}::{closure#0}]>::{closure#0}]"* %_1, i64* align 8 %_2) unnamed_addr #0 !dbg !1072 {
start:
  %_2.dbg.spill = alloca i64*, align 8
  %_3 = alloca %"[closure@proc_macro::bridge::client::run_client<proc_macro::bridge::client::TokenStream, core::option::Option<proc_macro::bridge::client::TokenStream>, [closure@proc_macro::bridge::client::Client<proc_macro::TokenStream, proc_macro::TokenStream>::expand1<fn(proc_macro::TokenStream) -> proc_macro::TokenStream {f128_inner}>::{closure#0}::{closure#0}]>::{closure#0}::{closure#0}::{closure#0}]", align 8
  %0 = bitcast %"[closure@proc_macro::bridge::scoped_cell::ScopedCell<proc_macro::bridge::client::BridgeStateL>::set<(), [closure@proc_macro::bridge::client::run_client<proc_macro::bridge::client::TokenStream, core::option::Option<proc_macro::bridge::client::TokenStream>, [closure@proc_macro::bridge::client::Client<proc_macro::TokenStream, proc_macro::TokenStream>::expand1<fn(proc_macro::TokenStream) -> proc_macro::TokenStream {f128_inner}>::{closure#0}::{closure#0}]>::{closure#0}::{closure#0}::{closure#0}]>::{closure#0}]"* %_1 to %"[closure@proc_macro::bridge::client::run_client<proc_macro::bridge::client::TokenStream, core::option::Option<proc_macro::bridge::client::TokenStream>, [closure@proc_macro::bridge::client::Client<proc_macro::TokenStream, proc_macro::TokenStream>::expand1<fn(proc_macro::TokenStream) -> proc_macro::TokenStream {f128_inner}>::{closure#0}::{closure#0}]>::{closure#0}::{closure#0}::{closure#0}]"*
  call void @llvm.dbg.declare(metadata %"[closure@proc_macro::bridge::scoped_cell::ScopedCell<proc_macro::bridge::client::BridgeStateL>::set<(), [closure@proc_macro::bridge::client::run_client<proc_macro::bridge::client::TokenStream, core::option::Option<proc_macro::bridge::client::TokenStream>, [closure@proc_macro::bridge::client::Client<proc_macro::TokenStream, proc_macro::TokenStream>::expand1<fn(proc_macro::TokenStream) -> proc_macro::TokenStream {f128_inner}>::{closure#0}::{closure#0}]>::{closure#0}::{closure#0}::{closure#0}]>::{closure#0}]"* %_1, metadata !1085, metadata !DIExpression()), !dbg !1087
  store i64* %_2, i64** %_2.dbg.spill, align 8
  call void @llvm.dbg.declare(metadata i64** %_2.dbg.spill, metadata !1086, metadata !DIExpression()), !dbg !1088
  %1 = bitcast %"[closure@proc_macro::bridge::scoped_cell::ScopedCell<proc_macro::bridge::client::BridgeStateL>::set<(), [closure@proc_macro::bridge::client::run_client<proc_macro::bridge::client::TokenStream, core::option::Option<proc_macro::bridge::client::TokenStream>, [closure@proc_macro::bridge::client::Client<proc_macro::TokenStream, proc_macro::TokenStream>::expand1<fn(proc_macro::TokenStream) -> proc_macro::TokenStream {f128_inner}>::{closure#0}::{closure#0}]>::{closure#0}::{closure#0}::{closure#0}]>::{closure#0}]"* %_1 to %"[closure@proc_macro::bridge::client::run_client<proc_macro::bridge::client::TokenStream, core::option::Option<proc_macro::bridge::client::TokenStream>, [closure@proc_macro::bridge::client::Client<proc_macro::TokenStream, proc_macro::TokenStream>::expand1<fn(proc_macro::TokenStream) -> proc_macro::TokenStream {f128_inner}>::{closure#0}::{closure#0}]>::{closure#0}::{closure#0}::{closure#0}]"*, !dbg !1089
  %2 = bitcast %"[closure@proc_macro::bridge::client::run_client<proc_macro::bridge::client::TokenStream, core::option::Option<proc_macro::bridge::client::TokenStream>, [closure@proc_macro::bridge::client::Client<proc_macro::TokenStream, proc_macro::TokenStream>::expand1<fn(proc_macro::TokenStream) -> proc_macro::TokenStream {f128_inner}>::{closure#0}::{closure#0}]>::{closure#0}::{closure#0}::{closure#0}]"* %_3 to i8*, !dbg !1089
  %3 = bitcast %"[closure@proc_macro::bridge::client::run_client<proc_macro::bridge::client::TokenStream, core::option::Option<proc_macro::bridge::client::TokenStream>, [closure@proc_macro::bridge::client::Client<proc_macro::TokenStream, proc_macro::TokenStream>::expand1<fn(proc_macro::TokenStream) -> proc_macro::TokenStream {f128_inner}>::{closure#0}::{closure#0}]>::{closure#0}::{closure#0}::{closure#0}]"* %1 to i8*, !dbg !1089
  call void @llvm.memcpy.p0i8.p0i8.i64(i8* align 8 %2, i8* align 8 %3, i64 24, i1 false), !dbg !1089
; call proc_macro::bridge::client::run_client::{{closure}}::{{closure}}::{{closure}}
  call void @"_ZN10proc_macro6bridge6client10run_client28_$u7b$$u7b$closure$u7d$$u7d$28_$u7b$$u7b$closure$u7d$$u7d$28_$u7b$$u7b$closure$u7d$$u7d$17h2884d7662d45a5aeE"(%"[closure@proc_macro::bridge::client::run_client<proc_macro::bridge::client::TokenStream, core::option::Option<proc_macro::bridge::client::TokenStream>, [closure@proc_macro::bridge::client::Client<proc_macro::TokenStream, proc_macro::TokenStream>::expand1<fn(proc_macro::TokenStream) -> proc_macro::TokenStream {f128_inner}>::{closure#0}::{closure#0}]>::{closure#0}::{closure#0}::{closure#0}]"* %_3), !dbg !1089
  br label %bb1, !dbg !1089

bb1:                                              ; preds = %start
  ret void, !dbg !1090
}

; proc_macro::bridge::scoped_cell::ScopedCell<T>::replace
; Function Attrs: nonlazybind uwtable
define internal void @"_ZN10proc_macro6bridge11scoped_cell19ScopedCell$LT$T$GT$7replace17h464957909ae8eab9E"(%"proc_macro::bridge::scoped_cell::ScopedCell<proc_macro::bridge::client::BridgeStateL>"* align 8 %self, %"proc_macro::bridge::client::BridgeState"* %replacement, %"[closure@proc_macro::bridge::scoped_cell::ScopedCell<proc_macro::bridge::client::BridgeStateL>::set<(), [closure@proc_macro::bridge::client::run_client<proc_macro::bridge::client::TokenStream, core::option::Option<proc_macro::bridge::client::TokenStream>, [closure@proc_macro::bridge::client::Client<proc_macro::TokenStream, proc_macro::TokenStream>::expand1<fn(proc_macro::TokenStream) -> proc_macro::TokenStream {f128_inner}>::{closure#0}::{closure#0}]>::{closure#0}::{closure#0}::{closure#0}]>::{closure#0}]"* %f) unnamed_addr #1 personality i32 (i32, i32, i64, %"unwind::libunwind::_Unwind_Exception"*, %"unwind::libunwind::_Unwind_Context"*)* @rust_eh_personality !dbg !1091 {
start:
  %val.dbg.spill = alloca %"proc_macro::bridge::client::BridgeState"*, align 8
  %x.dbg.spill = alloca %"proc_macro::bridge::client::BridgeState"*, align 8
  %self.dbg.spill3 = alloca %"core::option::Option<proc_macro::bridge::client::BridgeState>"*, align 8
  %0 = alloca { i8*, i32 }, align 8
  %self.dbg.spill = alloca %"proc_macro::bridge::scoped_cell::ScopedCell<proc_macro::bridge::client::BridgeStateL>"*, align 8
  %value = alloca %"proc_macro::bridge::client::BridgeState", align 8
  %_23 = alloca i8, align 1
  %_22 = alloca i8, align 1
  %_21 = alloca i8, align 1
  %self1 = alloca i64*, align 8
  %_16 = alloca i64*, align 8
  %_15 = alloca i64*, align 8
  %_14 = alloca %"[closure@proc_macro::bridge::scoped_cell::ScopedCell<proc_macro::bridge::client::BridgeStateL>::set<(), [closure@proc_macro::bridge::client::run_client<proc_macro::bridge::client::TokenStream, core::option::Option<proc_macro::bridge::client::TokenStream>, [closure@proc_macro::bridge::client::Client<proc_macro::TokenStream, proc_macro::TokenStream>::expand1<fn(proc_macro::TokenStream) -> proc_macro::TokenStream {f128_inner}>::{closure#0}::{closure#0}]>::{closure#0}::{closure#0}::{closure#0}]>::{closure#0}]", align 8
  %t = alloca %"proc_macro::bridge::client::BridgeState", align 8
  %erased = alloca %"proc_macro::bridge::client::BridgeState", align 8
  %_9 = alloca %"proc_macro::bridge::client::BridgeState", align 8
  %_7 = alloca %"proc_macro::bridge::client::BridgeState", align 8
  %_6 = alloca %"core::option::Option<proc_macro::bridge::client::BridgeState>", align 8
  %put_back_on_drop = alloca %"proc_macro::bridge::scoped_cell::ScopedCell<T>::replace::PutBackOnDrop<proc_macro::bridge::client::BridgeStateL>", align 8
  store %"proc_macro::bridge::scoped_cell::ScopedCell<proc_macro::bridge::client::BridgeStateL>"* %self, %"proc_macro::bridge::scoped_cell::ScopedCell<proc_macro::bridge::client::BridgeStateL>"** %self.dbg.spill, align 8
  call void @llvm.dbg.declare(metadata %"proc_macro::bridge::scoped_cell::ScopedCell<proc_macro::bridge::client::BridgeStateL>"** %self.dbg.spill, metadata !1095, metadata !DIExpression()), !dbg !1120
  call void @llvm.dbg.declare(metadata %"proc_macro::bridge::client::BridgeState"* %replacement, metadata !1096, metadata !DIExpression()), !dbg !1121
  call void @llvm.dbg.declare(metadata %"[closure@proc_macro::bridge::scoped_cell::ScopedCell<proc_macro::bridge::client::BridgeStateL>::set<(), [closure@proc_macro::bridge::client::run_client<proc_macro::bridge::client::TokenStream, core::option::Option<proc_macro::bridge::client::TokenStream>, [closure@proc_macro::bridge::client::Client<proc_macro::TokenStream, proc_macro::TokenStream>::expand1<fn(proc_macro::TokenStream) -> proc_macro::TokenStream {f128_inner}>::{closure#0}::{closure#0}]>::{closure#0}::{closure#0}::{closure#0}]>::{closure#0}]"* %f, metadata !1097, metadata !DIExpression()), !dbg !1122
  call void @llvm.dbg.declare(metadata %"proc_macro::bridge::scoped_cell::ScopedCell<T>::replace::PutBackOnDrop<proc_macro::bridge::client::BridgeStateL>"* %put_back_on_drop, metadata !1098, metadata !DIExpression()), !dbg !1123
  call void @llvm.dbg.declare(metadata %"proc_macro::bridge::client::BridgeState"* %erased, metadata !1116, metadata !DIExpression()), !dbg !1124
  call void @llvm.dbg.declare(metadata %"proc_macro::bridge::client::BridgeState"* %t, metadata !1125, metadata !DIExpression()), !dbg !1132
  call void @llvm.dbg.declare(metadata i64** %self1, metadata !1134, metadata !DIExpression()), !dbg !1157
  call void @llvm.dbg.declare(metadata %"proc_macro::bridge::client::BridgeState"* %value, metadata !1159, metadata !DIExpression()), !dbg !1170
  store i8 1, i8* %_23, align 1, !dbg !1172
  store i8 1, i8* %_22, align 1, !dbg !1172
  %_8 = bitcast %"proc_macro::bridge::scoped_cell::ScopedCell<proc_macro::bridge::client::BridgeStateL>"* %self to %"core::cell::Cell<proc_macro::bridge::client::BridgeState>"*, !dbg !1173
; invoke core::mem::transmute_copy
  invoke void @_ZN4core3mem14transmute_copy17h2e6e4585588377faE(%"proc_macro::bridge::client::BridgeState"* sret(%"proc_macro::bridge::client::BridgeState") %erased, %"proc_macro::bridge::client::BridgeState"* align 8 %replacement)
          to label %bb1 unwind label %cleanup, !dbg !1174

bb12:                                             ; preds = %bb6, %cleanup
  %1 = load i8, i8* %_22, align 1, !dbg !1175, !range !759, !noundef !27
  %2 = trunc i8 %1 to i1, !dbg !1175
  br i1 %2, label %bb11, label %bb7, !dbg !1175

cleanup:                                          ; preds = %bb4, %bb1, %start
  %3 = landingpad { i8*, i32 }
          cleanup
  %4 = extractvalue { i8*, i32 } %3, 0
  %5 = extractvalue { i8*, i32 } %3, 1
  %6 = getelementptr inbounds { i8*, i32 }, { i8*, i32 }* %0, i32 0, i32 0
  store i8* %4, i8** %6, align 8
  %7 = getelementptr inbounds { i8*, i32 }, { i8*, i32 }* %0, i32 0, i32 1
  store i32 %5, i32* %7, align 8
  br label %bb12

bb1:                                              ; preds = %start
  store i8 0, i8* %_23, align 1, !dbg !1176
  %8 = bitcast %"proc_macro::bridge::client::BridgeState"* %_9 to i8*, !dbg !1177
  %9 = bitcast %"proc_macro::bridge::client::BridgeState"* %erased to i8*, !dbg !1177
  call void @llvm.memcpy.p0i8.p0i8.i64(i8* align 8 %8, i8* align 8 %9, i64 80, i1 false), !dbg !1177
; invoke core::cell::Cell<T>::replace
  invoke void @"_ZN4core4cell13Cell$LT$T$GT$7replace17h0488958ed4ddb4e1E"(%"proc_macro::bridge::client::BridgeState"* sret(%"proc_macro::bridge::client::BridgeState") %_7, %"core::cell::Cell<proc_macro::bridge::client::BridgeState>"* align 8 %_8, %"proc_macro::bridge::client::BridgeState"* %_9)
          to label %bb2 unwind label %cleanup, !dbg !1173

bb2:                                              ; preds = %bb1
  %10 = bitcast %"core::option::Option<proc_macro::bridge::client::BridgeState>"* %_6 to %"core::option::Option<proc_macro::bridge::client::BridgeState>::Some"*, !dbg !1178
  %11 = bitcast %"core::option::Option<proc_macro::bridge::client::BridgeState>::Some"* %10 to %"proc_macro::bridge::client::BridgeState"*, !dbg !1178
  %12 = bitcast %"proc_macro::bridge::client::BridgeState"* %11 to i8*, !dbg !1178
  %13 = bitcast %"proc_macro::bridge::client::BridgeState"* %_7 to i8*, !dbg !1178
  call void @llvm.memcpy.p0i8.p0i8.i64(i8* align 8 %12, i8* align 8 %13, i64 80, i1 false), !dbg !1178
  %14 = bitcast %"proc_macro::bridge::scoped_cell::ScopedCell<T>::replace::PutBackOnDrop<proc_macro::bridge::client::BridgeStateL>"* %put_back_on_drop to %"proc_macro::bridge::scoped_cell::ScopedCell<proc_macro::bridge::client::BridgeStateL>"**, !dbg !1179
  store %"proc_macro::bridge::scoped_cell::ScopedCell<proc_macro::bridge::client::BridgeStateL>"* %self, %"proc_macro::bridge::scoped_cell::ScopedCell<proc_macro::bridge::client::BridgeStateL>"** %14, align 8, !dbg !1179
  %15 = getelementptr inbounds %"proc_macro::bridge::scoped_cell::ScopedCell<T>::replace::PutBackOnDrop<proc_macro::bridge::client::BridgeStateL>", %"proc_macro::bridge::scoped_cell::ScopedCell<T>::replace::PutBackOnDrop<proc_macro::bridge::client::BridgeStateL>"* %put_back_on_drop, i32 0, i32 1, !dbg !1179
  %16 = bitcast %"core::option::Option<proc_macro::bridge::client::BridgeState>"* %15 to i8*, !dbg !1179
  %17 = bitcast %"core::option::Option<proc_macro::bridge::client::BridgeState>"* %_6 to i8*, !dbg !1179
  call void @llvm.memcpy.p0i8.p0i8.i64(i8* align 8 %16, i8* align 8 %17, i64 80, i1 false), !dbg !1179
  store i8 0, i8* %_22, align 1, !dbg !1180
  store i8 1, i8* %_21, align 1, !dbg !1180
  %18 = bitcast %"[closure@proc_macro::bridge::scoped_cell::ScopedCell<proc_macro::bridge::client::BridgeStateL>::set<(), [closure@proc_macro::bridge::client::run_client<proc_macro::bridge::client::TokenStream, core::option::Option<proc_macro::bridge::client::TokenStream>, [closure@proc_macro::bridge::client::Client<proc_macro::TokenStream, proc_macro::TokenStream>::expand1<fn(proc_macro::TokenStream) -> proc_macro::TokenStream {f128_inner}>::{closure#0}::{closure#0}]>::{closure#0}::{closure#0}::{closure#0}]>::{closure#0}]"* %_14 to i8*, !dbg !1180
  %19 = bitcast %"[closure@proc_macro::bridge::scoped_cell::ScopedCell<proc_macro::bridge::client::BridgeStateL>::set<(), [closure@proc_macro::bridge::client::run_client<proc_macro::bridge::client::TokenStream, core::option::Option<proc_macro::bridge::client::TokenStream>, [closure@proc_macro::bridge::client::Client<proc_macro::TokenStream, proc_macro::TokenStream>::expand1<fn(proc_macro::TokenStream) -> proc_macro::TokenStream {f128_inner}>::{closure#0}::{closure#0}]>::{closure#0}::{closure#0}::{closure#0}]>::{closure#0}]"* %f to i8*, !dbg !1180
  call void @llvm.memcpy.p0i8.p0i8.i64(i8* align 8 %18, i8* align 8 %19, i64 24, i1 false), !dbg !1180
  %self2 = getelementptr inbounds %"proc_macro::bridge::scoped_cell::ScopedCell<T>::replace::PutBackOnDrop<proc_macro::bridge::client::BridgeStateL>", %"proc_macro::bridge::scoped_cell::ScopedCell<T>::replace::PutBackOnDrop<proc_macro::bridge::client::BridgeStateL>"* %put_back_on_drop, i32 0, i32 1, !dbg !1158
  store %"core::option::Option<proc_macro::bridge::client::BridgeState>"* %self2, %"core::option::Option<proc_macro::bridge::client::BridgeState>"** %self.dbg.spill3, align 8, !dbg !1158
  call void @llvm.dbg.declare(metadata %"core::option::Option<proc_macro::bridge::client::BridgeState>"** %self.dbg.spill3, metadata !1181, metadata !DIExpression()), !dbg !1191
  %20 = bitcast %"core::option::Option<proc_macro::bridge::client::BridgeState>"* %self2 to i64*, !dbg !1191
  %21 = load i64, i64* %20, align 8, !dbg !1191, !range !923, !noundef !27
  %22 = sub i64 %21, 3, !dbg !1191
  %23 = icmp eq i64 %22, 0, !dbg !1191
  %_25 = select i1 %23, i64 0, i64 1, !dbg !1191
  switch i64 %_25, label %bb15 [
    i64 0, label %bb14
    i64 1, label %bb16
  ], !dbg !1191

bb15:                                             ; preds = %bb2
  unreachable, !dbg !1191

bb14:                                             ; preds = %bb2
  %24 = bitcast i64** %self1 to {}**, !dbg !1191
  store {}* null, {}** %24, align 8, !dbg !1191
  br label %bb3, !dbg !1191

bb16:                                             ; preds = %bb2
  %25 = bitcast %"core::option::Option<proc_macro::bridge::client::BridgeState>"* %self2 to %"core::option::Option<proc_macro::bridge::client::BridgeState>::Some"*, !dbg !1191
  %x = bitcast %"core::option::Option<proc_macro::bridge::client::BridgeState>::Some"* %25 to %"proc_macro::bridge::client::BridgeState"*, !dbg !1191
  store %"proc_macro::bridge::client::BridgeState"* %x, %"proc_macro::bridge::client::BridgeState"** %x.dbg.spill, align 8, !dbg !1191
  call void @llvm.dbg.declare(metadata %"proc_macro::bridge::client::BridgeState"** %x.dbg.spill, metadata !1188, metadata !DIExpression()), !dbg !1192
  %26 = bitcast i64** %self1 to %"proc_macro::bridge::client::BridgeState"**, !dbg !1192
  store %"proc_macro::bridge::client::BridgeState"* %x, %"proc_macro::bridge::client::BridgeState"** %26, align 8, !dbg !1192
  br label %bb3, !dbg !1191

bb3:                                              ; preds = %bb14, %bb16
  %27 = bitcast i64** %self1 to {}**, !dbg !1157
  %28 = load {}*, {}** %27, align 8, !dbg !1157
  %29 = icmp eq {}* %28, null, !dbg !1157
  %_28 = select i1 %29, i64 0, i64 1, !dbg !1157
  switch i64 %_28, label %bb18 [
    i64 0, label %bb17
    i64 1, label %bb19
  ], !dbg !1157

bb18:                                             ; preds = %bb3
  unreachable, !dbg !1157

bb17:                                             ; preds = %bb3
; invoke core::panicking::panic
  invoke void @_ZN4core9panicking5panic17hf5844c0338bd061cE([0 x i8]* align 1 bitcast (<{ [43 x i8] }>* @alloc236 to [0 x i8]*), i64 43, %"core::panic::location::Location"* align 8 bitcast (<{ i8*, [16 x i8] }>* @alloc174 to %"core::panic::location::Location"*)) #18
          to label %unreachable unwind label %cleanup4, !dbg !1157

bb19:                                             ; preds = %bb3
  %30 = bitcast i64** %self1 to %"proc_macro::bridge::client::BridgeState"**, !dbg !1157
  %val = load %"proc_macro::bridge::client::BridgeState"*, %"proc_macro::bridge::client::BridgeState"** %30, align 8, !dbg !1157, !nonnull !27, !align !1193, !noundef !27
  store %"proc_macro::bridge::client::BridgeState"* %val, %"proc_macro::bridge::client::BridgeState"** %val.dbg.spill, align 8, !dbg !1157
  call void @llvm.dbg.declare(metadata %"proc_macro::bridge::client::BridgeState"** %val.dbg.spill, metadata !1154, metadata !DIExpression()), !dbg !1194
  %31 = bitcast i64** %_16 to %"proc_macro::bridge::client::BridgeState"**, !dbg !1195
  store %"proc_macro::bridge::client::BridgeState"* %val, %"proc_macro::bridge::client::BridgeState"** %31, align 8, !dbg !1195
  %32 = load i64*, i64** %_16, align 8, !dbg !1180, !nonnull !27, !align !1193, !noundef !27
  store i64* %32, i64** %_15, align 8, !dbg !1180
  store i8 0, i8* %_21, align 1, !dbg !1180
  %33 = load i64*, i64** %_15, align 8, !dbg !1180, !nonnull !27, !align !1193, !noundef !27
; invoke proc_macro::bridge::scoped_cell::ScopedCell<T>::set::{{closure}}
  invoke void @"_ZN10proc_macro6bridge11scoped_cell19ScopedCell$LT$T$GT$3set28_$u7b$$u7b$closure$u7d$$u7d$17h1a2c85c9c6853d0fE"(%"[closure@proc_macro::bridge::scoped_cell::ScopedCell<proc_macro::bridge::client::BridgeStateL>::set<(), [closure@proc_macro::bridge::client::run_client<proc_macro::bridge::client::TokenStream, core::option::Option<proc_macro::bridge::client::TokenStream>, [closure@proc_macro::bridge::client::Client<proc_macro::TokenStream, proc_macro::TokenStream>::expand1<fn(proc_macro::TokenStream) -> proc_macro::TokenStream {f128_inner}>::{closure#0}::{closure#0}]>::{closure#0}::{closure#0}::{closure#0}]>::{closure#0}]"* %_14, i64* align 8 %33)
          to label %bb4 unwind label %cleanup4, !dbg !1180

bb10:                                             ; preds = %cleanup4
  %34 = load i8, i8* %_21, align 1, !dbg !1196, !range !759, !noundef !27
  %35 = trunc i8 %34 to i1, !dbg !1196
  br i1 %35, label %bb9, label %bb6, !dbg !1196

cleanup4:                                         ; preds = %bb17, %bb19
  %36 = landingpad { i8*, i32 }
          cleanup
  %37 = extractvalue { i8*, i32 } %36, 0
  %38 = extractvalue { i8*, i32 } %36, 1
  %39 = getelementptr inbounds { i8*, i32 }, { i8*, i32 }* %0, i32 0, i32 0
  store i8* %37, i8** %39, align 8
  %40 = getelementptr inbounds { i8*, i32 }, { i8*, i32 }* %0, i32 0, i32 1
  store i32 %38, i32* %40, align 8
  br label %bb10

bb4:                                              ; preds = %bb19
; invoke core::ptr::drop_in_place<proc_macro::bridge::scoped_cell::ScopedCell<T>::replace::PutBackOnDrop<proc_macro::bridge::client::BridgeStateL>>
  invoke void @"_ZN4core3ptr145drop_in_place$LT$proc_macro..bridge..scoped_cell..ScopedCell$LT$T$GT$..replace..PutBackOnDrop$LT$proc_macro..bridge..client..BridgeStateL$GT$$GT$17h4f995b6b6f582f16E"(%"proc_macro::bridge::scoped_cell::ScopedCell<T>::replace::PutBackOnDrop<proc_macro::bridge::client::BridgeStateL>"* %put_back_on_drop)
          to label %bb5 unwind label %cleanup, !dbg !1175

bb5:                                              ; preds = %bb4
  ret void, !dbg !1197

unreachable:                                      ; preds = %bb17
  unreachable

bb6:                                              ; preds = %bb9, %bb10
; invoke core::ptr::drop_in_place<proc_macro::bridge::scoped_cell::ScopedCell<T>::replace::PutBackOnDrop<proc_macro::bridge::client::BridgeStateL>>
  invoke void @"_ZN4core3ptr145drop_in_place$LT$proc_macro..bridge..scoped_cell..ScopedCell$LT$T$GT$..replace..PutBackOnDrop$LT$proc_macro..bridge..client..BridgeStateL$GT$$GT$17h4f995b6b6f582f16E"(%"proc_macro::bridge::scoped_cell::ScopedCell<T>::replace::PutBackOnDrop<proc_macro::bridge::client::BridgeStateL>"* %put_back_on_drop) #19
          to label %bb12 unwind label %abort, !dbg !1175

bb9:                                              ; preds = %bb10
; invoke core::ptr::drop_in_place<proc_macro::bridge::scoped_cell::ScopedCell<proc_macro::bridge::client::BridgeStateL>::set<(),proc_macro::bridge::client::run_client<proc_macro::bridge::client::TokenStream,core::option::Option<proc_macro::bridge::client::TokenStream>,proc_macro::bridge::client::Client<proc_macro::TokenStream,proc_macro::TokenStream>::expand1<f128_input::f128_inner>::{{closure}}::{{closure}}>::{{closure}}::{{closure}}::{{closure}}>::{{closure}}>
  invoke void @"_ZN4core3ptr598drop_in_place$LT$proc_macro..bridge..scoped_cell..ScopedCell$LT$proc_macro..bridge..client..BridgeStateL$GT$..set$LT$$LP$$RP$$C$proc_macro..bridge..client..run_client$LT$proc_macro..bridge..client..TokenStream$C$core..option..Option$LT$proc_macro..bridge..client..TokenStream$GT$$C$proc_macro..bridge..client..Client$LT$proc_macro..TokenStream$C$proc_macro..TokenStream$GT$..expand1$LT$f128_input..f128_inner$GT$..$u7b$$u7b$closure$u7d$$u7d$..$u7b$$u7b$closure$u7d$$u7d$$GT$..$u7b$$u7b$closure$u7d$$u7d$..$u7b$$u7b$closure$u7d$$u7d$..$u7b$$u7b$closure$u7d$$u7d$$GT$..$u7b$$u7b$closure$u7d$$u7d$$GT$17hb875581cfeba128dE"(%"[closure@proc_macro::bridge::scoped_cell::ScopedCell<proc_macro::bridge::client::BridgeStateL>::set<(), [closure@proc_macro::bridge::client::run_client<proc_macro::bridge::client::TokenStream, core::option::Option<proc_macro::bridge::client::TokenStream>, [closure@proc_macro::bridge::client::Client<proc_macro::TokenStream, proc_macro::TokenStream>::expand1<fn(proc_macro::TokenStream) -> proc_macro::TokenStream {f128_inner}>::{closure#0}::{closure#0}]>::{closure#0}::{closure#0}::{closure#0}]>::{closure#0}]"* %_14) #19
          to label %bb6 unwind label %abort, !dbg !1196

abort:                                            ; preds = %bb13, %bb11, %bb6, %bb9
  %41 = landingpad { i8*, i32 }
          cleanup, !dbg !1198
; call core::panicking::panic_no_unwind
  call void @_ZN4core9panicking15panic_no_unwind17h62f8113f44cbfcbfE() #20, !dbg !1198
  unreachable, !dbg !1198

bb7:                                              ; preds = %bb11, %bb12
  %42 = load i8, i8* %_23, align 1, !dbg !1175, !range !759, !noundef !27
  %43 = trunc i8 %42 to i1, !dbg !1175
  br i1 %43, label %bb13, label %bb8, !dbg !1175

bb11:                                             ; preds = %bb12
; invoke core::ptr::drop_in_place<proc_macro::bridge::scoped_cell::ScopedCell<proc_macro::bridge::client::BridgeStateL>::set<(),proc_macro::bridge::client::run_client<proc_macro::bridge::client::TokenStream,core::option::Option<proc_macro::bridge::client::TokenStream>,proc_macro::bridge::client::Client<proc_macro::TokenStream,proc_macro::TokenStream>::expand1<f128_input::f128_inner>::{{closure}}::{{closure}}>::{{closure}}::{{closure}}::{{closure}}>::{{closure}}>
  invoke void @"_ZN4core3ptr598drop_in_place$LT$proc_macro..bridge..scoped_cell..ScopedCell$LT$proc_macro..bridge..client..BridgeStateL$GT$..set$LT$$LP$$RP$$C$proc_macro..bridge..client..run_client$LT$proc_macro..bridge..client..TokenStream$C$core..option..Option$LT$proc_macro..bridge..client..TokenStream$GT$$C$proc_macro..bridge..client..Client$LT$proc_macro..TokenStream$C$proc_macro..TokenStream$GT$..expand1$LT$f128_input..f128_inner$GT$..$u7b$$u7b$closure$u7d$$u7d$..$u7b$$u7b$closure$u7d$$u7d$$GT$..$u7b$$u7b$closure$u7d$$u7d$..$u7b$$u7b$closure$u7d$$u7d$..$u7b$$u7b$closure$u7d$$u7d$$GT$..$u7b$$u7b$closure$u7d$$u7d$$GT$17hb875581cfeba128dE"(%"[closure@proc_macro::bridge::scoped_cell::ScopedCell<proc_macro::bridge::client::BridgeStateL>::set<(), [closure@proc_macro::bridge::client::run_client<proc_macro::bridge::client::TokenStream, core::option::Option<proc_macro::bridge::client::TokenStream>, [closure@proc_macro::bridge::client::Client<proc_macro::TokenStream, proc_macro::TokenStream>::expand1<fn(proc_macro::TokenStream) -> proc_macro::TokenStream {f128_inner}>::{closure#0}::{closure#0}]>::{closure#0}::{closure#0}::{closure#0}]>::{closure#0}]"* %f) #19
          to label %bb7 unwind label %abort, !dbg !1175

bb8:                                              ; preds = %bb13, %bb7
  %44 = bitcast { i8*, i32 }* %0 to i8**, !dbg !1198
  %45 = load i8*, i8** %44, align 8, !dbg !1198
  %46 = getelementptr inbounds { i8*, i32 }, { i8*, i32 }* %0, i32 0, i32 1, !dbg !1198
  %47 = load i32, i32* %46, align 8, !dbg !1198
  %48 = insertvalue { i8*, i32 } undef, i8* %45, 0, !dbg !1198
  %49 = insertvalue { i8*, i32 } %48, i32 %47, 1, !dbg !1198
  resume { i8*, i32 } %49, !dbg !1198

bb13:                                             ; preds = %bb7
; invoke core::ptr::drop_in_place<proc_macro::bridge::client::BridgeState>
  invoke void @"_ZN4core3ptr60drop_in_place$LT$proc_macro..bridge..client..BridgeState$GT$17haf8a3b6b03ea9458E"(%"proc_macro::bridge::client::BridgeState"* %replacement) #19
          to label %bb8 unwind label %abort, !dbg !1175
}

; proc_macro::bridge::scoped_cell::ScopedCell<T>::replace
; Function Attrs: nonlazybind uwtable
define internal void @"_ZN10proc_macro6bridge11scoped_cell19ScopedCell$LT$T$GT$7replace17heea85a70599103bbE"(%"proc_macro::bridge::buffer::Buffer"* sret(%"proc_macro::bridge::buffer::Buffer") %0, %"proc_macro::bridge::scoped_cell::ScopedCell<proc_macro::bridge::client::BridgeStateL>"* align 8 %self, %"proc_macro::bridge::client::BridgeState"* %replacement) unnamed_addr #1 personality i32 (i32, i32, i64, %"unwind::libunwind::_Unwind_Exception"*, %"unwind::libunwind::_Unwind_Context"*)* @rust_eh_personality !dbg !1199 {
start:
  %val.dbg.spill = alloca %"proc_macro::bridge::client::BridgeState"*, align 8
  %x.dbg.spill = alloca %"proc_macro::bridge::client::BridgeState"*, align 8
  %self.dbg.spill3 = alloca %"core::option::Option<proc_macro::bridge::client::BridgeState>"*, align 8
  %1 = alloca { i8*, i32 }, align 8
  %f.dbg.spill = alloca %"[closure@proc_macro::bridge::client::BridgeState::with<proc_macro::bridge::buffer::Buffer, [closure@proc_macro::bridge::client::Bridge::with<proc_macro::bridge::buffer::Buffer, [closure@proc_macro::bridge::client::run_client<proc_macro::bridge::client::TokenStream, core::option::Option<proc_macro::bridge::client::TokenStream>, [closure@proc_macro::bridge::client::Client<proc_macro::TokenStream, proc_macro::TokenStream>::expand1<fn(proc_macro::TokenStream) -> proc_macro::TokenStream {f128_inner}>::{closure#0}::{closure#0}]>::{closure#0}::{closure#0}::{closure#0}::{closure#0}]>::{closure#0}]>::{closure#0}::{closure#0}]", align 1
  %self.dbg.spill = alloca %"proc_macro::bridge::scoped_cell::ScopedCell<proc_macro::bridge::client::BridgeStateL>"*, align 8
  %value = alloca %"proc_macro::bridge::client::BridgeState", align 8
  %_23 = alloca i8, align 1
  %_22 = alloca i8, align 1
  %_21 = alloca i8, align 1
  %self1 = alloca i64*, align 8
  %_16 = alloca i64*, align 8
  %_15 = alloca i64*, align 8
  %t = alloca %"proc_macro::bridge::client::BridgeState", align 8
  %erased = alloca %"proc_macro::bridge::client::BridgeState", align 8
  %_9 = alloca %"proc_macro::bridge::client::BridgeState", align 8
  %_7 = alloca %"proc_macro::bridge::client::BridgeState", align 8
  %_6 = alloca %"core::option::Option<proc_macro::bridge::client::BridgeState>", align 8
  %put_back_on_drop = alloca %"proc_macro::bridge::scoped_cell::ScopedCell<T>::replace::PutBackOnDrop<proc_macro::bridge::client::BridgeStateL>", align 8
  store %"proc_macro::bridge::scoped_cell::ScopedCell<proc_macro::bridge::client::BridgeStateL>"* %self, %"proc_macro::bridge::scoped_cell::ScopedCell<proc_macro::bridge::client::BridgeStateL>"** %self.dbg.spill, align 8
  call void @llvm.dbg.declare(metadata %"proc_macro::bridge::scoped_cell::ScopedCell<proc_macro::bridge::client::BridgeStateL>"** %self.dbg.spill, metadata !1216, metadata !DIExpression()), !dbg !1225
  call void @llvm.dbg.declare(metadata %"proc_macro::bridge::client::BridgeState"* %replacement, metadata !1217, metadata !DIExpression()), !dbg !1226
  call void @llvm.dbg.declare(metadata %"[closure@proc_macro::bridge::client::BridgeState::with<proc_macro::bridge::buffer::Buffer, [closure@proc_macro::bridge::client::Bridge::with<proc_macro::bridge::buffer::Buffer, [closure@proc_macro::bridge::client::run_client<proc_macro::bridge::client::TokenStream, core::option::Option<proc_macro::bridge::client::TokenStream>, [closure@proc_macro::bridge::client::Client<proc_macro::TokenStream, proc_macro::TokenStream>::expand1<fn(proc_macro::TokenStream) -> proc_macro::TokenStream {f128_inner}>::{closure#0}::{closure#0}]>::{closure#0}::{closure#0}::{closure#0}::{closure#0}]>::{closure#0}]>::{closure#0}::{closure#0}]"* %f.dbg.spill, metadata !1218, metadata !DIExpression()), !dbg !1227
  call void @llvm.dbg.declare(metadata %"proc_macro::bridge::scoped_cell::ScopedCell<T>::replace::PutBackOnDrop<proc_macro::bridge::client::BridgeStateL>"* %put_back_on_drop, metadata !1219, metadata !DIExpression()), !dbg !1228
  call void @llvm.dbg.declare(metadata %"proc_macro::bridge::client::BridgeState"* %erased, metadata !1221, metadata !DIExpression()), !dbg !1229
  call void @llvm.dbg.declare(metadata %"proc_macro::bridge::client::BridgeState"* %t, metadata !1230, metadata !DIExpression()), !dbg !1234
  call void @llvm.dbg.declare(metadata i64** %self1, metadata !1236, metadata !DIExpression()), !dbg !1243
  call void @llvm.dbg.declare(metadata %"proc_macro::bridge::client::BridgeState"* %value, metadata !1245, metadata !DIExpression()), !dbg !1249
  store i8 1, i8* %_23, align 1, !dbg !1251
  store i8 1, i8* %_22, align 1, !dbg !1251
  %_8 = bitcast %"proc_macro::bridge::scoped_cell::ScopedCell<proc_macro::bridge::client::BridgeStateL>"* %self to %"core::cell::Cell<proc_macro::bridge::client::BridgeState>"*, !dbg !1252
; invoke core::mem::transmute_copy
  invoke void @_ZN4core3mem14transmute_copy17h2e6e4585588377faE(%"proc_macro::bridge::client::BridgeState"* sret(%"proc_macro::bridge::client::BridgeState") %erased, %"proc_macro::bridge::client::BridgeState"* align 8 %replacement)
          to label %bb1 unwind label %cleanup, !dbg !1253

bb12:                                             ; preds = %bb6, %cleanup
  %2 = load i8, i8* %_22, align 1, !dbg !1254, !range !759, !noundef !27
  %3 = trunc i8 %2 to i1, !dbg !1254
  br i1 %3, label %bb11, label %bb7, !dbg !1254

cleanup:                                          ; preds = %bb4, %bb1, %start
  %4 = landingpad { i8*, i32 }
          cleanup
  %5 = extractvalue { i8*, i32 } %4, 0
  %6 = extractvalue { i8*, i32 } %4, 1
  %7 = getelementptr inbounds { i8*, i32 }, { i8*, i32 }* %1, i32 0, i32 0
  store i8* %5, i8** %7, align 8
  %8 = getelementptr inbounds { i8*, i32 }, { i8*, i32 }* %1, i32 0, i32 1
  store i32 %6, i32* %8, align 8
  br label %bb12

bb1:                                              ; preds = %start
  store i8 0, i8* %_23, align 1, !dbg !1255
  %9 = bitcast %"proc_macro::bridge::client::BridgeState"* %_9 to i8*, !dbg !1256
  %10 = bitcast %"proc_macro::bridge::client::BridgeState"* %erased to i8*, !dbg !1256
  call void @llvm.memcpy.p0i8.p0i8.i64(i8* align 8 %9, i8* align 8 %10, i64 80, i1 false), !dbg !1256
; invoke core::cell::Cell<T>::replace
  invoke void @"_ZN4core4cell13Cell$LT$T$GT$7replace17h0488958ed4ddb4e1E"(%"proc_macro::bridge::client::BridgeState"* sret(%"proc_macro::bridge::client::BridgeState") %_7, %"core::cell::Cell<proc_macro::bridge::client::BridgeState>"* align 8 %_8, %"proc_macro::bridge::client::BridgeState"* %_9)
          to label %bb2 unwind label %cleanup, !dbg !1252

bb2:                                              ; preds = %bb1
  %11 = bitcast %"core::option::Option<proc_macro::bridge::client::BridgeState>"* %_6 to %"core::option::Option<proc_macro::bridge::client::BridgeState>::Some"*, !dbg !1257
  %12 = bitcast %"core::option::Option<proc_macro::bridge::client::BridgeState>::Some"* %11 to %"proc_macro::bridge::client::BridgeState"*, !dbg !1257
  %13 = bitcast %"proc_macro::bridge::client::BridgeState"* %12 to i8*, !dbg !1257
  %14 = bitcast %"proc_macro::bridge::client::BridgeState"* %_7 to i8*, !dbg !1257
  call void @llvm.memcpy.p0i8.p0i8.i64(i8* align 8 %13, i8* align 8 %14, i64 80, i1 false), !dbg !1257
  %15 = bitcast %"proc_macro::bridge::scoped_cell::ScopedCell<T>::replace::PutBackOnDrop<proc_macro::bridge::client::BridgeStateL>"* %put_back_on_drop to %"proc_macro::bridge::scoped_cell::ScopedCell<proc_macro::bridge::client::BridgeStateL>"**, !dbg !1258
  store %"proc_macro::bridge::scoped_cell::ScopedCell<proc_macro::bridge::client::BridgeStateL>"* %self, %"proc_macro::bridge::scoped_cell::ScopedCell<proc_macro::bridge::client::BridgeStateL>"** %15, align 8, !dbg !1258
  %16 = getelementptr inbounds %"proc_macro::bridge::scoped_cell::ScopedCell<T>::replace::PutBackOnDrop<proc_macro::bridge::client::BridgeStateL>", %"proc_macro::bridge::scoped_cell::ScopedCell<T>::replace::PutBackOnDrop<proc_macro::bridge::client::BridgeStateL>"* %put_back_on_drop, i32 0, i32 1, !dbg !1258
  %17 = bitcast %"core::option::Option<proc_macro::bridge::client::BridgeState>"* %16 to i8*, !dbg !1258
  %18 = bitcast %"core::option::Option<proc_macro::bridge::client::BridgeState>"* %_6 to i8*, !dbg !1258
  call void @llvm.memcpy.p0i8.p0i8.i64(i8* align 8 %17, i8* align 8 %18, i64 80, i1 false), !dbg !1258
  store i8 0, i8* %_22, align 1, !dbg !1259
  store i8 1, i8* %_21, align 1, !dbg !1259
  %self2 = getelementptr inbounds %"proc_macro::bridge::scoped_cell::ScopedCell<T>::replace::PutBackOnDrop<proc_macro::bridge::client::BridgeStateL>", %"proc_macro::bridge::scoped_cell::ScopedCell<T>::replace::PutBackOnDrop<proc_macro::bridge::client::BridgeStateL>"* %put_back_on_drop, i32 0, i32 1, !dbg !1244
  store %"core::option::Option<proc_macro::bridge::client::BridgeState>"* %self2, %"core::option::Option<proc_macro::bridge::client::BridgeState>"** %self.dbg.spill3, align 8, !dbg !1244
  call void @llvm.dbg.declare(metadata %"core::option::Option<proc_macro::bridge::client::BridgeState>"** %self.dbg.spill3, metadata !1260, metadata !DIExpression()), !dbg !1267
  %19 = bitcast %"core::option::Option<proc_macro::bridge::client::BridgeState>"* %self2 to i64*, !dbg !1267
  %20 = load i64, i64* %19, align 8, !dbg !1267, !range !923, !noundef !27
  %21 = sub i64 %20, 3, !dbg !1267
  %22 = icmp eq i64 %21, 0, !dbg !1267
  %_25 = select i1 %22, i64 0, i64 1, !dbg !1267
  switch i64 %_25, label %bb15 [
    i64 0, label %bb14
    i64 1, label %bb16
  ], !dbg !1267

bb15:                                             ; preds = %bb2
  unreachable, !dbg !1267

bb14:                                             ; preds = %bb2
  %23 = bitcast i64** %self1 to {}**, !dbg !1267
  store {}* null, {}** %23, align 8, !dbg !1267
  br label %bb3, !dbg !1267

bb16:                                             ; preds = %bb2
  %24 = bitcast %"core::option::Option<proc_macro::bridge::client::BridgeState>"* %self2 to %"core::option::Option<proc_macro::bridge::client::BridgeState>::Some"*, !dbg !1267
  %x = bitcast %"core::option::Option<proc_macro::bridge::client::BridgeState>::Some"* %24 to %"proc_macro::bridge::client::BridgeState"*, !dbg !1267
  store %"proc_macro::bridge::client::BridgeState"* %x, %"proc_macro::bridge::client::BridgeState"** %x.dbg.spill, align 8, !dbg !1267
  call void @llvm.dbg.declare(metadata %"proc_macro::bridge::client::BridgeState"** %x.dbg.spill, metadata !1264, metadata !DIExpression()), !dbg !1268
  %25 = bitcast i64** %self1 to %"proc_macro::bridge::client::BridgeState"**, !dbg !1268
  store %"proc_macro::bridge::client::BridgeState"* %x, %"proc_macro::bridge::client::BridgeState"** %25, align 8, !dbg !1268
  br label %bb3, !dbg !1267

bb3:                                              ; preds = %bb14, %bb16
  %26 = bitcast i64** %self1 to {}**, !dbg !1243
  %27 = load {}*, {}** %26, align 8, !dbg !1243
  %28 = icmp eq {}* %27, null, !dbg !1243
  %_28 = select i1 %28, i64 0, i64 1, !dbg !1243
  switch i64 %_28, label %bb18 [
    i64 0, label %bb17
    i64 1, label %bb19
  ], !dbg !1243

bb18:                                             ; preds = %bb3
  unreachable, !dbg !1243

bb17:                                             ; preds = %bb3
; invoke core::panicking::panic
  invoke void @_ZN4core9panicking5panic17hf5844c0338bd061cE([0 x i8]* align 1 bitcast (<{ [43 x i8] }>* @alloc236 to [0 x i8]*), i64 43, %"core::panic::location::Location"* align 8 bitcast (<{ i8*, [16 x i8] }>* @alloc174 to %"core::panic::location::Location"*)) #18
          to label %unreachable unwind label %cleanup4, !dbg !1243

bb19:                                             ; preds = %bb3
  %29 = bitcast i64** %self1 to %"proc_macro::bridge::client::BridgeState"**, !dbg !1243
  %val = load %"proc_macro::bridge::client::BridgeState"*, %"proc_macro::bridge::client::BridgeState"** %29, align 8, !dbg !1243, !nonnull !27, !align !1193, !noundef !27
  store %"proc_macro::bridge::client::BridgeState"* %val, %"proc_macro::bridge::client::BridgeState"** %val.dbg.spill, align 8, !dbg !1243
  call void @llvm.dbg.declare(metadata %"proc_macro::bridge::client::BridgeState"** %val.dbg.spill, metadata !1240, metadata !DIExpression()), !dbg !1269
  %30 = bitcast i64** %_16 to %"proc_macro::bridge::client::BridgeState"**, !dbg !1270
  store %"proc_macro::bridge::client::BridgeState"* %val, %"proc_macro::bridge::client::BridgeState"** %30, align 8, !dbg !1270
  %31 = load i64*, i64** %_16, align 8, !dbg !1259, !nonnull !27, !align !1193, !noundef !27
  store i64* %31, i64** %_15, align 8, !dbg !1259
  store i8 0, i8* %_21, align 1, !dbg !1259
  %32 = load i64*, i64** %_15, align 8, !dbg !1259, !nonnull !27, !align !1193, !noundef !27
; invoke proc_macro::bridge::client::BridgeState::with::{{closure}}::{{closure}}
  invoke void @"_ZN10proc_macro6bridge6client11BridgeState4with28_$u7b$$u7b$closure$u7d$$u7d$28_$u7b$$u7b$closure$u7d$$u7d$17hc8c1d915ee284f69E"(%"proc_macro::bridge::buffer::Buffer"* sret(%"proc_macro::bridge::buffer::Buffer") %0, i64* align 8 %32)
          to label %bb4 unwind label %cleanup4, !dbg !1259

bb10:                                             ; preds = %cleanup4
  %33 = load i8, i8* %_21, align 1, !dbg !1271, !range !759, !noundef !27
  %34 = trunc i8 %33 to i1, !dbg !1271
  br i1 %34, label %bb9, label %bb6, !dbg !1271

cleanup4:                                         ; preds = %bb17, %bb19
  %35 = landingpad { i8*, i32 }
          cleanup
  %36 = extractvalue { i8*, i32 } %35, 0
  %37 = extractvalue { i8*, i32 } %35, 1
  %38 = getelementptr inbounds { i8*, i32 }, { i8*, i32 }* %1, i32 0, i32 0
  store i8* %36, i8** %38, align 8
  %39 = getelementptr inbounds { i8*, i32 }, { i8*, i32 }* %1, i32 0, i32 1
  store i32 %37, i32* %39, align 8
  br label %bb10

bb4:                                              ; preds = %bb19
; invoke core::ptr::drop_in_place<proc_macro::bridge::scoped_cell::ScopedCell<T>::replace::PutBackOnDrop<proc_macro::bridge::client::BridgeStateL>>
  invoke void @"_ZN4core3ptr145drop_in_place$LT$proc_macro..bridge..scoped_cell..ScopedCell$LT$T$GT$..replace..PutBackOnDrop$LT$proc_macro..bridge..client..BridgeStateL$GT$$GT$17h4f995b6b6f582f16E"(%"proc_macro::bridge::scoped_cell::ScopedCell<T>::replace::PutBackOnDrop<proc_macro::bridge::client::BridgeStateL>"* %put_back_on_drop)
          to label %bb5 unwind label %cleanup, !dbg !1254

bb5:                                              ; preds = %bb4
  ret void, !dbg !1272

unreachable:                                      ; preds = %bb17
  unreachable

bb6:                                              ; preds = %bb9, %bb10
; invoke core::ptr::drop_in_place<proc_macro::bridge::scoped_cell::ScopedCell<T>::replace::PutBackOnDrop<proc_macro::bridge::client::BridgeStateL>>
  invoke void @"_ZN4core3ptr145drop_in_place$LT$proc_macro..bridge..scoped_cell..ScopedCell$LT$T$GT$..replace..PutBackOnDrop$LT$proc_macro..bridge..client..BridgeStateL$GT$$GT$17h4f995b6b6f582f16E"(%"proc_macro::bridge::scoped_cell::ScopedCell<T>::replace::PutBackOnDrop<proc_macro::bridge::client::BridgeStateL>"* %put_back_on_drop) #19
          to label %bb12 unwind label %abort, !dbg !1254

bb9:                                              ; preds = %bb10
  br label %bb6, !dbg !1271

abort:                                            ; preds = %bb13, %bb6
  %40 = landingpad { i8*, i32 }
          cleanup, !dbg !1273
; call core::panicking::panic_no_unwind
  call void @_ZN4core9panicking15panic_no_unwind17h62f8113f44cbfcbfE() #20, !dbg !1273
  unreachable, !dbg !1273

bb7:                                              ; preds = %bb11, %bb12
  %41 = load i8, i8* %_23, align 1, !dbg !1254, !range !759, !noundef !27
  %42 = trunc i8 %41 to i1, !dbg !1254
  br i1 %42, label %bb13, label %bb8, !dbg !1254

bb11:                                             ; preds = %bb12
  br label %bb7, !dbg !1254

bb8:                                              ; preds = %bb13, %bb7
  %43 = bitcast { i8*, i32 }* %1 to i8**, !dbg !1273
  %44 = load i8*, i8** %43, align 8, !dbg !1273
  %45 = getelementptr inbounds { i8*, i32 }, { i8*, i32 }* %1, i32 0, i32 1, !dbg !1273
  %46 = load i32, i32* %45, align 8, !dbg !1273
  %47 = insertvalue { i8*, i32 } undef, i8* %44, 0, !dbg !1273
  %48 = insertvalue { i8*, i32 } %47, i32 %46, 1, !dbg !1273
  resume { i8*, i32 } %48, !dbg !1273

bb13:                                             ; preds = %bb7
; invoke core::ptr::drop_in_place<proc_macro::bridge::client::BridgeState>
  invoke void @"_ZN4core3ptr60drop_in_place$LT$proc_macro..bridge..client..BridgeState$GT$17haf8a3b6b03ea9458E"(%"proc_macro::bridge::client::BridgeState"* %replacement) #19
          to label %bb8 unwind label %abort, !dbg !1254
}

; proc_macro::bridge::selfless_reify::reify_to_extern_c_fn_hrt_bridge::wrapper
; Function Attrs: nonlazybind uwtable
define internal void @_ZN10proc_macro6bridge14selfless_reify31reify_to_extern_c_fn_hrt_bridge7wrapper17h42ad000de5b43883E(%"proc_macro::bridge::buffer::Buffer"* sret(%"proc_macro::bridge::buffer::Buffer") %0, %"proc_macro::bridge::BridgeConfig"* byval(%"proc_macro::bridge::BridgeConfig") %bridge) unnamed_addr #1 personality i32 (i32, i32, i64, %"unwind::libunwind::_Unwind_Exception"*, %"unwind::libunwind::_Unwind_Context"*)* @rust_eh_personality !dbg !1274 {
start:
  %1 = alloca { i8*, i32 }, align 8
  %slot.dbg.spill = alloca %"core::mem::manually_drop::ManuallyDrop<[closure@proc_macro::bridge::client::Client<proc_macro::TokenStream, proc_macro::TokenStream>::expand1<fn(proc_macro::TokenStream) -> proc_macro::TokenStream {f128_inner}>::{closure#0}]>", align 1
  %_7 = alloca i8, align 1
  %_6 = alloca %"proc_macro::bridge::BridgeConfig", align 8
  %_5 = alloca { %"proc_macro::bridge::BridgeConfig" }, align 8
  %self = alloca %"core::mem::maybe_uninit::MaybeUninit<[closure@proc_macro::bridge::client::Client<proc_macro::TokenStream, proc_macro::TokenStream>::expand1<fn(proc_macro::TokenStream) -> proc_macro::TokenStream {f128_inner}>::{closure#0}]>", align 1
  %f = alloca %"[closure@proc_macro::bridge::client::Client<proc_macro::TokenStream, proc_macro::TokenStream>::expand1<fn(proc_macro::TokenStream) -> proc_macro::TokenStream {f128_inner}>::{closure#0}]", align 1
  call void @llvm.dbg.declare(metadata %"proc_macro::bridge::BridgeConfig"* %bridge, metadata !1279, metadata !DIExpression()), !dbg !1287
  call void @llvm.dbg.declare(metadata %"[closure@proc_macro::bridge::client::Client<proc_macro::TokenStream, proc_macro::TokenStream>::expand1<fn(proc_macro::TokenStream) -> proc_macro::TokenStream {f128_inner}>::{closure#0}]"* %f, metadata !1280, metadata !DIExpression()), !dbg !1288
  call void @llvm.dbg.declare(metadata %"core::mem::maybe_uninit::MaybeUninit<[closure@proc_macro::bridge::client::Client<proc_macro::TokenStream, proc_macro::TokenStream>::expand1<fn(proc_macro::TokenStream) -> proc_macro::TokenStream {f128_inner}>::{closure#0}]>"* %self, metadata !1289, metadata !DIExpression()), !dbg !1306
  call void @llvm.dbg.declare(metadata %"core::mem::manually_drop::ManuallyDrop<[closure@proc_macro::bridge::client::Client<proc_macro::TokenStream, proc_macro::TokenStream>::expand1<fn(proc_macro::TokenStream) -> proc_macro::TokenStream {f128_inner}>::{closure#0}]>"* %slot.dbg.spill, metadata !1308, metadata !DIExpression()), !dbg !1314
  store i8 1, i8* %_7, align 1, !dbg !1316
  %2 = bitcast %"core::mem::maybe_uninit::MaybeUninit<[closure@proc_macro::bridge::client::Client<proc_macro::TokenStream, proc_macro::TokenStream>::expand1<fn(proc_macro::TokenStream) -> proc_macro::TokenStream {f128_inner}>::{closure#0}]>"* %self to {}*, !dbg !1317
  br label %bb5, !dbg !1306

bb5:                                              ; preds = %start
  store i8 0, i8* %_7, align 1, !dbg !1322
  %3 = bitcast %"proc_macro::bridge::BridgeConfig"* %_6 to i8*, !dbg !1322
  %4 = bitcast %"proc_macro::bridge::BridgeConfig"* %bridge to i8*, !dbg !1322
  call void @llvm.memcpy.p0i8.p0i8.i64(i8* align 8 %3, i8* align 8 %4, i64 64, i1 false), !dbg !1322
  %5 = bitcast { %"proc_macro::bridge::BridgeConfig" }* %_5 to %"proc_macro::bridge::BridgeConfig"*, !dbg !1323
  %6 = bitcast %"proc_macro::bridge::BridgeConfig"* %5 to i8*, !dbg !1323
  %7 = bitcast %"proc_macro::bridge::BridgeConfig"* %_6 to i8*, !dbg !1323
  call void @llvm.memcpy.p0i8.p0i8.i64(i8* align 8 %6, i8* align 8 %7, i64 64, i1 false), !dbg !1323
  %8 = bitcast { %"proc_macro::bridge::BridgeConfig" }* %_5 to %"proc_macro::bridge::BridgeConfig"*, !dbg !1323
; invoke proc_macro::bridge::client::Client<proc_macro::TokenStream,proc_macro::TokenStream>::expand1::{{closure}}
  invoke void @"_ZN10proc_macro6bridge6client63Client$LT$proc_macro..TokenStream$C$proc_macro..TokenStream$GT$7expand128_$u7b$$u7b$closure$u7d$$u7d$17h67025ea0df26fe70E"(%"proc_macro::bridge::buffer::Buffer"* sret(%"proc_macro::bridge::buffer::Buffer") %0, %"[closure@proc_macro::bridge::client::Client<proc_macro::TokenStream, proc_macro::TokenStream>::expand1<fn(proc_macro::TokenStream) -> proc_macro::TokenStream {f128_inner}>::{closure#0}]"* align 1 %f, %"proc_macro::bridge::BridgeConfig"* %8)
          to label %bb1 unwind label %cleanup, !dbg !1323

bb4:                                              ; preds = %cleanup
  %9 = load i8, i8* %_7, align 1, !dbg !1324, !range !759, !noundef !27
  %10 = trunc i8 %9 to i1, !dbg !1324
  br i1 %10, label %bb3, label %bb2, !dbg !1324

cleanup:                                          ; preds = %bb5
  %11 = landingpad { i8*, i32 }
          cleanup
  %12 = extractvalue { i8*, i32 } %11, 0
  %13 = extractvalue { i8*, i32 } %11, 1
  %14 = getelementptr inbounds { i8*, i32 }, { i8*, i32 }* %1, i32 0, i32 0
  store i8* %12, i8** %14, align 8
  %15 = getelementptr inbounds { i8*, i32 }, { i8*, i32 }* %1, i32 0, i32 1
  store i32 %13, i32* %15, align 8
  br label %bb4

bb1:                                              ; preds = %bb5
  ret void, !dbg !1325

bb2:                                              ; preds = %bb3, %bb4
  %16 = bitcast { i8*, i32 }* %1 to i8**, !dbg !1326
  %17 = load i8*, i8** %16, align 8, !dbg !1326
  %18 = getelementptr inbounds { i8*, i32 }, { i8*, i32 }* %1, i32 0, i32 1, !dbg !1326
  %19 = load i32, i32* %18, align 8, !dbg !1326
  %20 = insertvalue { i8*, i32 } undef, i8* %17, 0, !dbg !1326
  %21 = insertvalue { i8*, i32 } %20, i32 %19, 1, !dbg !1326
  resume { i8*, i32 } %21, !dbg !1326

bb3:                                              ; preds = %bb4
; invoke core::ptr::drop_in_place<proc_macro::bridge::BridgeConfig>
  invoke void @"_ZN4core3ptr53drop_in_place$LT$proc_macro..bridge..BridgeConfig$GT$17hddb41ec64c3227ecE"(%"proc_macro::bridge::BridgeConfig"* %bridge) #19
          to label %bb2 unwind label %abort, !dbg !1324

abort:                                            ; preds = %bb3
  %22 = landingpad { i8*, i32 }
          cleanup, !dbg !1326
; call core::panicking::panic_no_unwind
  call void @_ZN4core9panicking15panic_no_unwind17h62f8113f44cbfcbfE() #20, !dbg !1326
  unreachable, !dbg !1326
}

; proc_macro::bridge::buffer::Buffer::extend_from_array
; Function Attrs: inlinehint nonlazybind uwtable
define internal void @_ZN10proc_macro6bridge6buffer6Buffer17extend_from_array17h2a6c1ed1be41c0e6E(%"proc_macro::bridge::buffer::Buffer"* align 8 %self, [4 x i8]* align 1 %xs) unnamed_addr #0 personality i32 (i32, i32, i64, %"unwind::libunwind::_Unwind_Exception"*, %"unwind::libunwind::_Unwind_Context"*)* @rust_eh_personality !dbg !1327 {
start:
  %count.dbg.spill14 = alloca i64, align 8
  %dst.dbg.spill = alloca i8*, align 8
  %src.dbg.spill = alloca i8*, align 8
  %count.dbg.spill13 = alloca i64, align 8
  %dest.dbg.spill12 = alloca i8*, align 8
  %0 = alloca i8*, align 8
  %count.dbg.spill11 = alloca i64, align 8
  %self.dbg.spill10 = alloca i8*, align 8
  %count.dbg.spill = alloca i64, align 8
  %self.dbg.spill9 = alloca i8*, align 8
  %self.dbg.spill7 = alloca i8*, align 8
  %self.dbg.spill5 = alloca { [0 x i8]*, i64 }, align 8
  %1 = alloca { i8*, i32 }, align 8
  %self.dbg.spill2 = alloca { [0 x i8]*, i64 }, align 8
  %dest.dbg.spill = alloca %"proc_macro::bridge::buffer::Buffer"*, align 8
  %self.dbg.spill1 = alloca %"proc_macro::bridge::buffer::Buffer"*, align 8
  %xs.dbg.spill = alloca [4 x i8]*, align 8
  %self.dbg.spill = alloca %"proc_macro::bridge::buffer::Buffer"*, align 8
  %runtime = alloca %"[closure@core::intrinsics::copy_nonoverlapping<u8>::{closure#0}]", align 8
  %_36 = alloca %"core::ptr::metadata::PtrRepr<[u8]>", align 8
  %_34 = alloca %"alloc::vec::Vec<u8>", align 8
  %_33 = alloca %"proc_macro::bridge::buffer::Buffer", align 8
  %_14 = alloca %"proc_macro::bridge::buffer::Buffer", align 8
  %_12 = alloca %"proc_macro::bridge::buffer::Buffer", align 8
  %b = alloca %"proc_macro::bridge::buffer::Buffer", align 8
  store %"proc_macro::bridge::buffer::Buffer"* %self, %"proc_macro::bridge::buffer::Buffer"** %self.dbg.spill, align 8
  call void @llvm.dbg.declare(metadata %"proc_macro::bridge::buffer::Buffer"** %self.dbg.spill, metadata !1336, metadata !DIExpression()), !dbg !1340
  store [4 x i8]* %xs, [4 x i8]** %xs.dbg.spill, align 8
  call void @llvm.dbg.declare(metadata [4 x i8]** %xs.dbg.spill, metadata !1337, metadata !DIExpression()), !dbg !1341
  call void @llvm.dbg.declare(metadata %"proc_macro::bridge::buffer::Buffer"* %b, metadata !1338, metadata !DIExpression()), !dbg !1342
  call void @llvm.dbg.declare(metadata %"[closure@core::intrinsics::copy_nonoverlapping<u8>::{closure#0}]"* %runtime, metadata !1343, metadata !DIExpression()), !dbg !1362
  %_5.0 = bitcast [4 x i8]* %xs to [0 x i8]*, !dbg !1371
  %2 = getelementptr inbounds %"proc_macro::bridge::buffer::Buffer", %"proc_macro::bridge::buffer::Buffer"* %self, i32 0, i32 2, !dbg !1372
  %_8 = load i64, i64* %2, align 8, !dbg !1372
  %3 = getelementptr inbounds %"proc_macro::bridge::buffer::Buffer", %"proc_macro::bridge::buffer::Buffer"* %self, i32 0, i32 1, !dbg !1373
  %_9 = load i64, i64* %3, align 8, !dbg !1373
  %_7 = sub i64 %_8, %_9, !dbg !1374
  %_3 = icmp ugt i64 4, %_7, !dbg !1371
  br i1 %_3, label %bb1, label %bb3, !dbg !1371

bb3:                                              ; preds = %bb6, %start
  %self.04 = bitcast [4 x i8]* %xs to [0 x i8]*, !dbg !1370
  %4 = getelementptr inbounds { [0 x i8]*, i64 }, { [0 x i8]*, i64 }* %self.dbg.spill5, i32 0, i32 0, !dbg !1370
  store [0 x i8]* %self.04, [0 x i8]** %4, align 8, !dbg !1370
  %5 = getelementptr inbounds { [0 x i8]*, i64 }, { [0 x i8]*, i64 }* %self.dbg.spill5, i32 0, i32 1, !dbg !1370
  store i64 4, i64* %5, align 8, !dbg !1370
  call void @llvm.dbg.declare(metadata { [0 x i8]*, i64 }* %self.dbg.spill5, metadata !1375, metadata !DIExpression()), !dbg !1383
  %self6 = bitcast [0 x i8]* %self.04 to i8*, !dbg !1383
  store i8* %self6, i8** %self.dbg.spill7, align 8, !dbg !1383
  call void @llvm.dbg.declare(metadata i8** %self.dbg.spill7, metadata !1366, metadata !DIExpression()), !dbg !1384
  %6 = bitcast %"proc_macro::bridge::buffer::Buffer"* %self to i8**, !dbg !1385
  %self8 = load i8*, i8** %6, align 8, !dbg !1385
  store i8* %self8, i8** %self.dbg.spill9, align 8, !dbg !1385
  call void @llvm.dbg.declare(metadata i8** %self.dbg.spill9, metadata !1386, metadata !DIExpression()), !dbg !1391
  %7 = getelementptr inbounds %"proc_macro::bridge::buffer::Buffer", %"proc_macro::bridge::buffer::Buffer"* %self, i32 0, i32 1, !dbg !1392
  %count = load i64, i64* %7, align 8, !dbg !1392
  store i64 %count, i64* %count.dbg.spill, align 8, !dbg !1392
  call void @llvm.dbg.declare(metadata i64* %count.dbg.spill, metadata !1390, metadata !DIExpression()), !dbg !1391
  store i8* %self8, i8** %self.dbg.spill10, align 8, !dbg !1391
  call void @llvm.dbg.declare(metadata i8** %self.dbg.spill10, metadata !1393, metadata !DIExpression()), !dbg !1398
  store i64 %count, i64* %count.dbg.spill11, align 8, !dbg !1391
  call void @llvm.dbg.declare(metadata i64* %count.dbg.spill11, metadata !1397, metadata !DIExpression()), !dbg !1398
  %8 = getelementptr inbounds i8, i8* %self8, i64 %count, !dbg !1398
  store i8* %8, i8** %0, align 8, !dbg !1398
  %_42 = load i8*, i8** %0, align 8, !dbg !1398
  br label %bb11, !dbg !1398

bb1:                                              ; preds = %start
  store %"proc_macro::bridge::buffer::Buffer"* %self, %"proc_macro::bridge::buffer::Buffer"** %self.dbg.spill1, align 8, !dbg !1400
  call void @llvm.dbg.declare(metadata %"proc_macro::bridge::buffer::Buffer"** %self.dbg.spill1, metadata !1401, metadata !DIExpression()), !dbg !1406
  store %"proc_macro::bridge::buffer::Buffer"* %self, %"proc_macro::bridge::buffer::Buffer"** %dest.dbg.spill, align 8, !dbg !1406
  call void @llvm.dbg.declare(metadata %"proc_macro::bridge::buffer::Buffer"** %dest.dbg.spill, metadata !1407, metadata !DIExpression()), !dbg !1413
  %_35.0 = load i8*, i8** getelementptr inbounds ({ i8*, i64 }, { i8*, i64 }* bitcast (<{ [16 x i8] }>* @0 to { i8*, i64 }*), i32 0, i32 0), align 8, !dbg !1415, !nonnull !27, !noundef !27
  %_35.1 = load i64, i64* getelementptr inbounds ({ i8*, i64 }, { i8*, i64 }* bitcast (<{ [16 x i8] }>* @0 to { i8*, i64 }*), i32 0, i32 1), align 8, !dbg !1415
  %9 = bitcast %"alloc::vec::Vec<u8>"* %_34 to { i8*, i64 }*, !dbg !1415
  %10 = getelementptr inbounds { i8*, i64 }, { i8*, i64 }* %9, i32 0, i32 0, !dbg !1415
  store i8* %_35.0, i8** %10, align 8, !dbg !1415
  %11 = getelementptr inbounds { i8*, i64 }, { i8*, i64 }* %9, i32 0, i32 1, !dbg !1415
  store i64 %_35.1, i64* %11, align 8, !dbg !1415
  %12 = getelementptr inbounds %"alloc::vec::Vec<u8>", %"alloc::vec::Vec<u8>"* %_34, i32 0, i32 1, !dbg !1415
  store i64 0, i64* %12, align 8, !dbg !1415
; call <proc_macro::bridge::buffer::Buffer as core::convert::From<alloc::vec::Vec<u8>>>::from
  call void @"_ZN107_$LT$proc_macro..bridge..buffer..Buffer$u20$as$u20$core..convert..From$LT$alloc..vec..Vec$LT$u8$GT$$GT$$GT$4from17hae087b0765d8b4d8E"(%"proc_macro::bridge::buffer::Buffer"* sret(%"proc_macro::bridge::buffer::Buffer") %_33, %"alloc::vec::Vec<u8>"* %_34), !dbg !1428
  br label %bb10, !dbg !1428

bb10:                                             ; preds = %bb1
; call core::mem::replace
  call void @_ZN4core3mem7replace17haedb1d51e20a5159E(%"proc_macro::bridge::buffer::Buffer"* sret(%"proc_macro::bridge::buffer::Buffer") %b, %"proc_macro::bridge::buffer::Buffer"* align 8 %self, %"proc_macro::bridge::buffer::Buffer"* %_33), !dbg !1413
  br label %bb9, !dbg !1413

bb9:                                              ; preds = %bb10
  %13 = getelementptr inbounds %"proc_macro::bridge::buffer::Buffer", %"proc_macro::bridge::buffer::Buffer"* %b, i32 0, i32 3, !dbg !1429
  %_13 = load void (%"proc_macro::bridge::buffer::Buffer"*, %"proc_macro::bridge::buffer::Buffer"*, i64)*, void (%"proc_macro::bridge::buffer::Buffer"*, %"proc_macro::bridge::buffer::Buffer"*, i64)** %13, align 8, !dbg !1429, !nonnull !27, !noundef !27
  %14 = bitcast %"proc_macro::bridge::buffer::Buffer"* %_14 to i8*, !dbg !1430
  %15 = bitcast %"proc_macro::bridge::buffer::Buffer"* %b to i8*, !dbg !1430
  call void @llvm.memcpy.p0i8.p0i8.i64(i8* align 8 %14, i8* align 8 %15, i64 40, i1 false), !dbg !1430
  %self.0 = bitcast [4 x i8]* %xs to [0 x i8]*, !dbg !1431
  %16 = getelementptr inbounds { [0 x i8]*, i64 }, { [0 x i8]*, i64 }* %self.dbg.spill2, i32 0, i32 0, !dbg !1431
  store [0 x i8]* %self.0, [0 x i8]** %16, align 8, !dbg !1431
  %17 = getelementptr inbounds { [0 x i8]*, i64 }, { [0 x i8]*, i64 }* %self.dbg.spill2, i32 0, i32 1, !dbg !1431
  store i64 4, i64* %17, align 8, !dbg !1431
  call void @llvm.dbg.declare(metadata { [0 x i8]*, i64 }* %self.dbg.spill2, metadata !1432, metadata !DIExpression()), !dbg !1438
  %18 = bitcast %"core::ptr::metadata::PtrRepr<[u8]>"* %_36 to { [0 x i8]*, i64 }*, !dbg !1438
  %19 = getelementptr inbounds { [0 x i8]*, i64 }, { [0 x i8]*, i64 }* %18, i32 0, i32 0, !dbg !1438
  store [0 x i8]* %self.0, [0 x i8]** %19, align 8, !dbg !1438
  %20 = getelementptr inbounds { [0 x i8]*, i64 }, { [0 x i8]*, i64 }* %18, i32 0, i32 1, !dbg !1438
  store i64 4, i64* %20, align 8, !dbg !1438
  %21 = bitcast %"core::ptr::metadata::PtrRepr<[u8]>"* %_36 to { i8*, i64 }*, !dbg !1438
  %22 = getelementptr inbounds { i8*, i64 }, { i8*, i64 }* %21, i32 0, i32 1, !dbg !1438
  %_15 = load i64, i64* %22, align 8, !dbg !1438
  invoke void %_13(%"proc_macro::bridge::buffer::Buffer"* sret(%"proc_macro::bridge::buffer::Buffer") %_12, %"proc_macro::bridge::buffer::Buffer"* byval(%"proc_macro::bridge::buffer::Buffer") %_14, i64 %_15)
          to label %bb2 unwind label %cleanup, !dbg !1429

bb8:                                              ; preds = %cleanup
  br i1 false, label %bb7, label %bb4, !dbg !1439

cleanup:                                          ; preds = %bb9
  %23 = landingpad { i8*, i32 }
          cleanup
  %24 = extractvalue { i8*, i32 } %23, 0
  %25 = extractvalue { i8*, i32 } %23, 1
  %26 = getelementptr inbounds { i8*, i32 }, { i8*, i32 }* %1, i32 0, i32 0
  store i8* %24, i8** %26, align 8
  %27 = getelementptr inbounds { i8*, i32 }, { i8*, i32 }* %1, i32 0, i32 1
  store i32 %25, i32* %27, align 8
  br label %bb8

bb2:                                              ; preds = %bb9
; invoke core::ptr::drop_in_place<proc_macro::bridge::buffer::Buffer>
  invoke void @"_ZN4core3ptr55drop_in_place$LT$proc_macro..bridge..buffer..Buffer$GT$17ha3af9902afa5dfbfE"(%"proc_macro::bridge::buffer::Buffer"* %self)
          to label %bb6 unwind label %cleanup3, !dbg !1440

bb4:                                              ; preds = %bb5, %bb7, %bb8
  %28 = bitcast { i8*, i32 }* %1 to i8**, !dbg !1441
  %29 = load i8*, i8** %28, align 8, !dbg !1441
  %30 = getelementptr inbounds { i8*, i32 }, { i8*, i32 }* %1, i32 0, i32 1, !dbg !1441
  %31 = load i32, i32* %30, align 8, !dbg !1441
  %32 = insertvalue { i8*, i32 } undef, i8* %29, 0, !dbg !1441
  %33 = insertvalue { i8*, i32 } %32, i32 %31, 1, !dbg !1441
  resume { i8*, i32 } %33, !dbg !1441

bb7:                                              ; preds = %bb8
; invoke core::ptr::drop_in_place<proc_macro::bridge::buffer::Buffer>
  invoke void @"_ZN4core3ptr55drop_in_place$LT$proc_macro..bridge..buffer..Buffer$GT$17ha3af9902afa5dfbfE"(%"proc_macro::bridge::buffer::Buffer"* %_14) #19
          to label %bb4 unwind label %abort, !dbg !1439

abort:                                            ; preds = %bb7
  %34 = landingpad { i8*, i32 }
          cleanup, !dbg !1441
; call core::panicking::panic_no_unwind
  call void @_ZN4core9panicking15panic_no_unwind17h62f8113f44cbfcbfE() #20, !dbg !1441
  unreachable, !dbg !1441

bb5:                                              ; preds = %cleanup3
  %35 = bitcast %"proc_macro::bridge::buffer::Buffer"* %self to i8*, !dbg !1440
  %36 = bitcast %"proc_macro::bridge::buffer::Buffer"* %_12 to i8*, !dbg !1440
  call void @llvm.memcpy.p0i8.p0i8.i64(i8* align 8 %35, i8* align 8 %36, i64 40, i1 false), !dbg !1440
  br label %bb4, !dbg !1440

cleanup3:                                         ; preds = %bb2
  %37 = landingpad { i8*, i32 }
          cleanup
  %38 = extractvalue { i8*, i32 } %37, 0
  %39 = extractvalue { i8*, i32 } %37, 1
  %40 = getelementptr inbounds { i8*, i32 }, { i8*, i32 }* %1, i32 0, i32 0
  store i8* %38, i8** %40, align 8
  %41 = getelementptr inbounds { i8*, i32 }, { i8*, i32 }* %1, i32 0, i32 1
  store i32 %39, i32* %41, align 8
  br label %bb5

bb6:                                              ; preds = %bb2
  %42 = bitcast %"proc_macro::bridge::buffer::Buffer"* %self to i8*, !dbg !1440
  %43 = bitcast %"proc_macro::bridge::buffer::Buffer"* %_12 to i8*, !dbg !1440
  call void @llvm.memcpy.p0i8.p0i8.i64(i8* align 8 %42, i8* align 8 %43, i64 40, i1 false), !dbg !1440
  br label %bb3, !dbg !1442

bb11:                                             ; preds = %bb3
  store i8* %_42, i8** %dest.dbg.spill12, align 8, !dbg !1398
  call void @llvm.dbg.declare(metadata i8** %dest.dbg.spill12, metadata !1368, metadata !DIExpression()), !dbg !1384
  %_25.0 = bitcast [4 x i8]* %xs to [0 x i8]*, !dbg !1443
  store i64 4, i64* %count.dbg.spill13, align 8, !dbg !1443
  call void @llvm.dbg.declare(metadata i64* %count.dbg.spill13, metadata !1369, metadata !DIExpression()), !dbg !1384
  store i8* %self6, i8** %src.dbg.spill, align 8, !dbg !1384
  call void @llvm.dbg.declare(metadata i8** %src.dbg.spill, metadata !1351, metadata !DIExpression()), !dbg !1444
  store i8* %_42, i8** %dst.dbg.spill, align 8, !dbg !1384
  call void @llvm.dbg.declare(metadata i8** %dst.dbg.spill, metadata !1353, metadata !DIExpression()), !dbg !1444
  store i64 4, i64* %count.dbg.spill14, align 8, !dbg !1384
  call void @llvm.dbg.declare(metadata i64* %count.dbg.spill14, metadata !1354, metadata !DIExpression()), !dbg !1444
  call void @llvm.memcpy.p0i8.p0i8.i64(i8* align 1 %_42, i8* align 1 %self6, i64 4, i1 false), !dbg !1444
  %_28.0 = bitcast [4 x i8]* %xs to [0 x i8]*, !dbg !1445
  %44 = getelementptr inbounds %"proc_macro::bridge::buffer::Buffer", %"proc_macro::bridge::buffer::Buffer"* %self, i32 0, i32 1, !dbg !1446
  %45 = getelementptr inbounds %"proc_macro::bridge::buffer::Buffer", %"proc_macro::bridge::buffer::Buffer"* %self, i32 0, i32 1, !dbg !1446
  %46 = load i64, i64* %45, align 8, !dbg !1446
  %47 = add i64 %46, 4, !dbg !1446
  store i64 %47, i64* %44, align 8, !dbg !1446
  ret void, !dbg !1447
}

; proc_macro::bridge::buffer::Buffer::extend_from_array
; Function Attrs: inlinehint nonlazybind uwtable
define internal void @_ZN10proc_macro6bridge6buffer6Buffer17extend_from_array17h52eeff7a999f4e59E(%"proc_macro::bridge::buffer::Buffer"* align 8 %self, [8 x i8]* align 1 %xs) unnamed_addr #0 personality i32 (i32, i32, i64, %"unwind::libunwind::_Unwind_Exception"*, %"unwind::libunwind::_Unwind_Context"*)* @rust_eh_personality !dbg !1448 {
start:
  %count.dbg.spill14 = alloca i64, align 8
  %dst.dbg.spill = alloca i8*, align 8
  %src.dbg.spill = alloca i8*, align 8
  %count.dbg.spill13 = alloca i64, align 8
  %dest.dbg.spill12 = alloca i8*, align 8
  %0 = alloca i8*, align 8
  %count.dbg.spill11 = alloca i64, align 8
  %self.dbg.spill10 = alloca i8*, align 8
  %count.dbg.spill = alloca i64, align 8
  %self.dbg.spill9 = alloca i8*, align 8
  %self.dbg.spill7 = alloca i8*, align 8
  %self.dbg.spill5 = alloca { [0 x i8]*, i64 }, align 8
  %1 = alloca { i8*, i32 }, align 8
  %self.dbg.spill2 = alloca { [0 x i8]*, i64 }, align 8
  %dest.dbg.spill = alloca %"proc_macro::bridge::buffer::Buffer"*, align 8
  %self.dbg.spill1 = alloca %"proc_macro::bridge::buffer::Buffer"*, align 8
  %xs.dbg.spill = alloca [8 x i8]*, align 8
  %self.dbg.spill = alloca %"proc_macro::bridge::buffer::Buffer"*, align 8
  %runtime = alloca %"[closure@core::intrinsics::copy_nonoverlapping<u8>::{closure#0}]", align 8
  %_36 = alloca %"core::ptr::metadata::PtrRepr<[u8]>", align 8
  %_34 = alloca %"alloc::vec::Vec<u8>", align 8
  %_33 = alloca %"proc_macro::bridge::buffer::Buffer", align 8
  %_14 = alloca %"proc_macro::bridge::buffer::Buffer", align 8
  %_12 = alloca %"proc_macro::bridge::buffer::Buffer", align 8
  %b = alloca %"proc_macro::bridge::buffer::Buffer", align 8
  store %"proc_macro::bridge::buffer::Buffer"* %self, %"proc_macro::bridge::buffer::Buffer"** %self.dbg.spill, align 8
  call void @llvm.dbg.declare(metadata %"proc_macro::bridge::buffer::Buffer"** %self.dbg.spill, metadata !1456, metadata !DIExpression()), !dbg !1460
  store [8 x i8]* %xs, [8 x i8]** %xs.dbg.spill, align 8
  call void @llvm.dbg.declare(metadata [8 x i8]** %xs.dbg.spill, metadata !1457, metadata !DIExpression()), !dbg !1461
  call void @llvm.dbg.declare(metadata %"proc_macro::bridge::buffer::Buffer"* %b, metadata !1458, metadata !DIExpression()), !dbg !1462
  call void @llvm.dbg.declare(metadata %"[closure@core::intrinsics::copy_nonoverlapping<u8>::{closure#0}]"* %runtime, metadata !1463, metadata !DIExpression()), !dbg !1472
  %_5.0 = bitcast [8 x i8]* %xs to [0 x i8]*, !dbg !1481
  %2 = getelementptr inbounds %"proc_macro::bridge::buffer::Buffer", %"proc_macro::bridge::buffer::Buffer"* %self, i32 0, i32 2, !dbg !1482
  %_8 = load i64, i64* %2, align 8, !dbg !1482
  %3 = getelementptr inbounds %"proc_macro::bridge::buffer::Buffer", %"proc_macro::bridge::buffer::Buffer"* %self, i32 0, i32 1, !dbg !1483
  %_9 = load i64, i64* %3, align 8, !dbg !1483
  %_7 = sub i64 %_8, %_9, !dbg !1484
  %_3 = icmp ugt i64 8, %_7, !dbg !1481
  br i1 %_3, label %bb1, label %bb3, !dbg !1481

bb3:                                              ; preds = %bb6, %start
  %self.04 = bitcast [8 x i8]* %xs to [0 x i8]*, !dbg !1480
  %4 = getelementptr inbounds { [0 x i8]*, i64 }, { [0 x i8]*, i64 }* %self.dbg.spill5, i32 0, i32 0, !dbg !1480
  store [0 x i8]* %self.04, [0 x i8]** %4, align 8, !dbg !1480
  %5 = getelementptr inbounds { [0 x i8]*, i64 }, { [0 x i8]*, i64 }* %self.dbg.spill5, i32 0, i32 1, !dbg !1480
  store i64 8, i64* %5, align 8, !dbg !1480
  call void @llvm.dbg.declare(metadata { [0 x i8]*, i64 }* %self.dbg.spill5, metadata !1485, metadata !DIExpression()), !dbg !1489
  %self6 = bitcast [0 x i8]* %self.04 to i8*, !dbg !1489
  store i8* %self6, i8** %self.dbg.spill7, align 8, !dbg !1489
  call void @llvm.dbg.declare(metadata i8** %self.dbg.spill7, metadata !1476, metadata !DIExpression()), !dbg !1490
  %6 = bitcast %"proc_macro::bridge::buffer::Buffer"* %self to i8**, !dbg !1491
  %self8 = load i8*, i8** %6, align 8, !dbg !1491
  store i8* %self8, i8** %self.dbg.spill9, align 8, !dbg !1491
  call void @llvm.dbg.declare(metadata i8** %self.dbg.spill9, metadata !1492, metadata !DIExpression()), !dbg !1497
  %7 = getelementptr inbounds %"proc_macro::bridge::buffer::Buffer", %"proc_macro::bridge::buffer::Buffer"* %self, i32 0, i32 1, !dbg !1498
  %count = load i64, i64* %7, align 8, !dbg !1498
  store i64 %count, i64* %count.dbg.spill, align 8, !dbg !1498
  call void @llvm.dbg.declare(metadata i64* %count.dbg.spill, metadata !1496, metadata !DIExpression()), !dbg !1497
  store i8* %self8, i8** %self.dbg.spill10, align 8, !dbg !1497
  call void @llvm.dbg.declare(metadata i8** %self.dbg.spill10, metadata !1499, metadata !DIExpression()), !dbg !1504
  store i64 %count, i64* %count.dbg.spill11, align 8, !dbg !1497
  call void @llvm.dbg.declare(metadata i64* %count.dbg.spill11, metadata !1503, metadata !DIExpression()), !dbg !1504
  %8 = getelementptr inbounds i8, i8* %self8, i64 %count, !dbg !1504
  store i8* %8, i8** %0, align 8, !dbg !1504
  %_42 = load i8*, i8** %0, align 8, !dbg !1504
  br label %bb11, !dbg !1504

bb1:                                              ; preds = %start
  store %"proc_macro::bridge::buffer::Buffer"* %self, %"proc_macro::bridge::buffer::Buffer"** %self.dbg.spill1, align 8, !dbg !1506
  call void @llvm.dbg.declare(metadata %"proc_macro::bridge::buffer::Buffer"** %self.dbg.spill1, metadata !1507, metadata !DIExpression()), !dbg !1510
  store %"proc_macro::bridge::buffer::Buffer"* %self, %"proc_macro::bridge::buffer::Buffer"** %dest.dbg.spill, align 8, !dbg !1510
  call void @llvm.dbg.declare(metadata %"proc_macro::bridge::buffer::Buffer"** %dest.dbg.spill, metadata !1511, metadata !DIExpression()), !dbg !1515
  %_35.0 = load i8*, i8** getelementptr inbounds ({ i8*, i64 }, { i8*, i64 }* bitcast (<{ [16 x i8] }>* @0 to { i8*, i64 }*), i32 0, i32 0), align 8, !dbg !1517, !nonnull !27, !noundef !27
  %_35.1 = load i64, i64* getelementptr inbounds ({ i8*, i64 }, { i8*, i64 }* bitcast (<{ [16 x i8] }>* @0 to { i8*, i64 }*), i32 0, i32 1), align 8, !dbg !1517
  %9 = bitcast %"alloc::vec::Vec<u8>"* %_34 to { i8*, i64 }*, !dbg !1517
  %10 = getelementptr inbounds { i8*, i64 }, { i8*, i64 }* %9, i32 0, i32 0, !dbg !1517
  store i8* %_35.0, i8** %10, align 8, !dbg !1517
  %11 = getelementptr inbounds { i8*, i64 }, { i8*, i64 }* %9, i32 0, i32 1, !dbg !1517
  store i64 %_35.1, i64* %11, align 8, !dbg !1517
  %12 = getelementptr inbounds %"alloc::vec::Vec<u8>", %"alloc::vec::Vec<u8>"* %_34, i32 0, i32 1, !dbg !1517
  store i64 0, i64* %12, align 8, !dbg !1517
; call <proc_macro::bridge::buffer::Buffer as core::convert::From<alloc::vec::Vec<u8>>>::from
  call void @"_ZN107_$LT$proc_macro..bridge..buffer..Buffer$u20$as$u20$core..convert..From$LT$alloc..vec..Vec$LT$u8$GT$$GT$$GT$4from17hae087b0765d8b4d8E"(%"proc_macro::bridge::buffer::Buffer"* sret(%"proc_macro::bridge::buffer::Buffer") %_33, %"alloc::vec::Vec<u8>"* %_34), !dbg !1524
  br label %bb10, !dbg !1524

bb10:                                             ; preds = %bb1
; call core::mem::replace
  call void @_ZN4core3mem7replace17haedb1d51e20a5159E(%"proc_macro::bridge::buffer::Buffer"* sret(%"proc_macro::bridge::buffer::Buffer") %b, %"proc_macro::bridge::buffer::Buffer"* align 8 %self, %"proc_macro::bridge::buffer::Buffer"* %_33), !dbg !1515
  br label %bb9, !dbg !1515

bb9:                                              ; preds = %bb10
  %13 = getelementptr inbounds %"proc_macro::bridge::buffer::Buffer", %"proc_macro::bridge::buffer::Buffer"* %b, i32 0, i32 3, !dbg !1525
  %_13 = load void (%"proc_macro::bridge::buffer::Buffer"*, %"proc_macro::bridge::buffer::Buffer"*, i64)*, void (%"proc_macro::bridge::buffer::Buffer"*, %"proc_macro::bridge::buffer::Buffer"*, i64)** %13, align 8, !dbg !1525, !nonnull !27, !noundef !27
  %14 = bitcast %"proc_macro::bridge::buffer::Buffer"* %_14 to i8*, !dbg !1526
  %15 = bitcast %"proc_macro::bridge::buffer::Buffer"* %b to i8*, !dbg !1526
  call void @llvm.memcpy.p0i8.p0i8.i64(i8* align 8 %14, i8* align 8 %15, i64 40, i1 false), !dbg !1526
  %self.0 = bitcast [8 x i8]* %xs to [0 x i8]*, !dbg !1527
  %16 = getelementptr inbounds { [0 x i8]*, i64 }, { [0 x i8]*, i64 }* %self.dbg.spill2, i32 0, i32 0, !dbg !1527
  store [0 x i8]* %self.0, [0 x i8]** %16, align 8, !dbg !1527
  %17 = getelementptr inbounds { [0 x i8]*, i64 }, { [0 x i8]*, i64 }* %self.dbg.spill2, i32 0, i32 1, !dbg !1527
  store i64 8, i64* %17, align 8, !dbg !1527
  call void @llvm.dbg.declare(metadata { [0 x i8]*, i64 }* %self.dbg.spill2, metadata !1528, metadata !DIExpression()), !dbg !1532
  %18 = bitcast %"core::ptr::metadata::PtrRepr<[u8]>"* %_36 to { [0 x i8]*, i64 }*, !dbg !1532
  %19 = getelementptr inbounds { [0 x i8]*, i64 }, { [0 x i8]*, i64 }* %18, i32 0, i32 0, !dbg !1532
  store [0 x i8]* %self.0, [0 x i8]** %19, align 8, !dbg !1532
  %20 = getelementptr inbounds { [0 x i8]*, i64 }, { [0 x i8]*, i64 }* %18, i32 0, i32 1, !dbg !1532
  store i64 8, i64* %20, align 8, !dbg !1532
  %21 = bitcast %"core::ptr::metadata::PtrRepr<[u8]>"* %_36 to { i8*, i64 }*, !dbg !1532
  %22 = getelementptr inbounds { i8*, i64 }, { i8*, i64 }* %21, i32 0, i32 1, !dbg !1532
  %_15 = load i64, i64* %22, align 8, !dbg !1532
  invoke void %_13(%"proc_macro::bridge::buffer::Buffer"* sret(%"proc_macro::bridge::buffer::Buffer") %_12, %"proc_macro::bridge::buffer::Buffer"* byval(%"proc_macro::bridge::buffer::Buffer") %_14, i64 %_15)
          to label %bb2 unwind label %cleanup, !dbg !1525

bb8:                                              ; preds = %cleanup
  br i1 false, label %bb7, label %bb4, !dbg !1533

cleanup:                                          ; preds = %bb9
  %23 = landingpad { i8*, i32 }
          cleanup
  %24 = extractvalue { i8*, i32 } %23, 0
  %25 = extractvalue { i8*, i32 } %23, 1
  %26 = getelementptr inbounds { i8*, i32 }, { i8*, i32 }* %1, i32 0, i32 0
  store i8* %24, i8** %26, align 8
  %27 = getelementptr inbounds { i8*, i32 }, { i8*, i32 }* %1, i32 0, i32 1
  store i32 %25, i32* %27, align 8
  br label %bb8

bb2:                                              ; preds = %bb9
; invoke core::ptr::drop_in_place<proc_macro::bridge::buffer::Buffer>
  invoke void @"_ZN4core3ptr55drop_in_place$LT$proc_macro..bridge..buffer..Buffer$GT$17ha3af9902afa5dfbfE"(%"proc_macro::bridge::buffer::Buffer"* %self)
          to label %bb6 unwind label %cleanup3, !dbg !1534

bb4:                                              ; preds = %bb5, %bb7, %bb8
  %28 = bitcast { i8*, i32 }* %1 to i8**, !dbg !1535
  %29 = load i8*, i8** %28, align 8, !dbg !1535
  %30 = getelementptr inbounds { i8*, i32 }, { i8*, i32 }* %1, i32 0, i32 1, !dbg !1535
  %31 = load i32, i32* %30, align 8, !dbg !1535
  %32 = insertvalue { i8*, i32 } undef, i8* %29, 0, !dbg !1535
  %33 = insertvalue { i8*, i32 } %32, i32 %31, 1, !dbg !1535
  resume { i8*, i32 } %33, !dbg !1535

bb7:                                              ; preds = %bb8
; invoke core::ptr::drop_in_place<proc_macro::bridge::buffer::Buffer>
  invoke void @"_ZN4core3ptr55drop_in_place$LT$proc_macro..bridge..buffer..Buffer$GT$17ha3af9902afa5dfbfE"(%"proc_macro::bridge::buffer::Buffer"* %_14) #19
          to label %bb4 unwind label %abort, !dbg !1533

abort:                                            ; preds = %bb7
  %34 = landingpad { i8*, i32 }
          cleanup, !dbg !1535
; call core::panicking::panic_no_unwind
  call void @_ZN4core9panicking15panic_no_unwind17h62f8113f44cbfcbfE() #20, !dbg !1535
  unreachable, !dbg !1535

bb5:                                              ; preds = %cleanup3
  %35 = bitcast %"proc_macro::bridge::buffer::Buffer"* %self to i8*, !dbg !1534
  %36 = bitcast %"proc_macro::bridge::buffer::Buffer"* %_12 to i8*, !dbg !1534
  call void @llvm.memcpy.p0i8.p0i8.i64(i8* align 8 %35, i8* align 8 %36, i64 40, i1 false), !dbg !1534
  br label %bb4, !dbg !1534

cleanup3:                                         ; preds = %bb2
  %37 = landingpad { i8*, i32 }
          cleanup
  %38 = extractvalue { i8*, i32 } %37, 0
  %39 = extractvalue { i8*, i32 } %37, 1
  %40 = getelementptr inbounds { i8*, i32 }, { i8*, i32 }* %1, i32 0, i32 0
  store i8* %38, i8** %40, align 8
  %41 = getelementptr inbounds { i8*, i32 }, { i8*, i32 }* %1, i32 0, i32 1
  store i32 %39, i32* %41, align 8
  br label %bb5

bb6:                                              ; preds = %bb2
  %42 = bitcast %"proc_macro::bridge::buffer::Buffer"* %self to i8*, !dbg !1534
  %43 = bitcast %"proc_macro::bridge::buffer::Buffer"* %_12 to i8*, !dbg !1534
  call void @llvm.memcpy.p0i8.p0i8.i64(i8* align 8 %42, i8* align 8 %43, i64 40, i1 false), !dbg !1534
  br label %bb3, !dbg !1536

bb11:                                             ; preds = %bb3
  store i8* %_42, i8** %dest.dbg.spill12, align 8, !dbg !1504
  call void @llvm.dbg.declare(metadata i8** %dest.dbg.spill12, metadata !1478, metadata !DIExpression()), !dbg !1490
  %_25.0 = bitcast [8 x i8]* %xs to [0 x i8]*, !dbg !1537
  store i64 8, i64* %count.dbg.spill13, align 8, !dbg !1537
  call void @llvm.dbg.declare(metadata i64* %count.dbg.spill13, metadata !1479, metadata !DIExpression()), !dbg !1490
  store i8* %self6, i8** %src.dbg.spill, align 8, !dbg !1490
  call void @llvm.dbg.declare(metadata i8** %src.dbg.spill, metadata !1468, metadata !DIExpression()), !dbg !1538
  store i8* %_42, i8** %dst.dbg.spill, align 8, !dbg !1490
  call void @llvm.dbg.declare(metadata i8** %dst.dbg.spill, metadata !1470, metadata !DIExpression()), !dbg !1538
  store i64 8, i64* %count.dbg.spill14, align 8, !dbg !1490
  call void @llvm.dbg.declare(metadata i64* %count.dbg.spill14, metadata !1471, metadata !DIExpression()), !dbg !1538
  call void @llvm.memcpy.p0i8.p0i8.i64(i8* align 1 %_42, i8* align 1 %self6, i64 8, i1 false), !dbg !1538
  %_28.0 = bitcast [8 x i8]* %xs to [0 x i8]*, !dbg !1539
  %44 = getelementptr inbounds %"proc_macro::bridge::buffer::Buffer", %"proc_macro::bridge::buffer::Buffer"* %self, i32 0, i32 1, !dbg !1540
  %45 = getelementptr inbounds %"proc_macro::bridge::buffer::Buffer", %"proc_macro::bridge::buffer::Buffer"* %self, i32 0, i32 1, !dbg !1540
  %46 = load i64, i64* %45, align 8, !dbg !1540
  %47 = add i64 %46, 8, !dbg !1540
  store i64 %47, i64* %44, align 8, !dbg !1540
  ret void, !dbg !1541
}

; proc_macro::bridge::buffer::Buffer::extend_from_slice
; Function Attrs: inlinehint nonlazybind uwtable
define internal void @_ZN10proc_macro6bridge6buffer6Buffer17extend_from_slice17hfbb611c0c268f353E(%"proc_macro::bridge::buffer::Buffer"* align 8 %self, [0 x i8]* align 1 %xs.0, i64 %xs.1) unnamed_addr #0 personality i32 (i32, i32, i64, %"unwind::libunwind::_Unwind_Exception"*, %"unwind::libunwind::_Unwind_Context"*)* @rust_eh_personality !dbg !1542 {
start:
  %count.dbg.spill13 = alloca i64, align 8
  %dst.dbg.spill = alloca i8*, align 8
  %src.dbg.spill = alloca i8*, align 8
  %count.dbg.spill12 = alloca i64, align 8
  %dest.dbg.spill11 = alloca i8*, align 8
  %0 = alloca i8*, align 8
  %count.dbg.spill10 = alloca i64, align 8
  %self.dbg.spill9 = alloca i8*, align 8
  %count.dbg.spill = alloca i64, align 8
  %self.dbg.spill8 = alloca i8*, align 8
  %self.dbg.spill6 = alloca i8*, align 8
  %self.dbg.spill4 = alloca { [0 x i8]*, i64 }, align 8
  %1 = alloca { i8*, i32 }, align 8
  %self.dbg.spill2 = alloca { [0 x i8]*, i64 }, align 8
  %dest.dbg.spill = alloca %"proc_macro::bridge::buffer::Buffer"*, align 8
  %self.dbg.spill1 = alloca %"proc_macro::bridge::buffer::Buffer"*, align 8
  %xs.dbg.spill = alloca { [0 x i8]*, i64 }, align 8
  %self.dbg.spill = alloca %"proc_macro::bridge::buffer::Buffer"*, align 8
  %runtime = alloca %"[closure@core::intrinsics::copy_nonoverlapping<u8>::{closure#0}]", align 8
  %_31 = alloca %"core::ptr::metadata::PtrRepr<[u8]>", align 8
  %_29 = alloca %"alloc::vec::Vec<u8>", align 8
  %_28 = alloca %"proc_macro::bridge::buffer::Buffer", align 8
  %_13 = alloca %"proc_macro::bridge::buffer::Buffer", align 8
  %_11 = alloca %"proc_macro::bridge::buffer::Buffer", align 8
  %b = alloca %"proc_macro::bridge::buffer::Buffer", align 8
  store %"proc_macro::bridge::buffer::Buffer"* %self, %"proc_macro::bridge::buffer::Buffer"** %self.dbg.spill, align 8
  call void @llvm.dbg.declare(metadata %"proc_macro::bridge::buffer::Buffer"** %self.dbg.spill, metadata !1546, metadata !DIExpression()), !dbg !1550
  %2 = getelementptr inbounds { [0 x i8]*, i64 }, { [0 x i8]*, i64 }* %xs.dbg.spill, i32 0, i32 0
  store [0 x i8]* %xs.0, [0 x i8]** %2, align 8
  %3 = getelementptr inbounds { [0 x i8]*, i64 }, { [0 x i8]*, i64 }* %xs.dbg.spill, i32 0, i32 1
  store i64 %xs.1, i64* %3, align 8
  call void @llvm.dbg.declare(metadata { [0 x i8]*, i64 }* %xs.dbg.spill, metadata !1547, metadata !DIExpression()), !dbg !1551
  call void @llvm.dbg.declare(metadata %"proc_macro::bridge::buffer::Buffer"* %b, metadata !1548, metadata !DIExpression()), !dbg !1552
  call void @llvm.dbg.declare(metadata %"[closure@core::intrinsics::copy_nonoverlapping<u8>::{closure#0}]"* %runtime, metadata !1553, metadata !DIExpression()), !dbg !1562
  %4 = getelementptr inbounds %"proc_macro::bridge::buffer::Buffer", %"proc_macro::bridge::buffer::Buffer"* %self, i32 0, i32 2, !dbg !1571
  %_7 = load i64, i64* %4, align 8, !dbg !1571
  %5 = getelementptr inbounds %"proc_macro::bridge::buffer::Buffer", %"proc_macro::bridge::buffer::Buffer"* %self, i32 0, i32 1, !dbg !1572
  %_8 = load i64, i64* %5, align 8, !dbg !1572
  %_6 = sub i64 %_7, %_8, !dbg !1573
  %_3 = icmp ugt i64 %xs.1, %_6, !dbg !1574
  br i1 %_3, label %bb1, label %bb3, !dbg !1574

bb3:                                              ; preds = %bb6, %start
  %6 = getelementptr inbounds { [0 x i8]*, i64 }, { [0 x i8]*, i64 }* %self.dbg.spill4, i32 0, i32 0, !dbg !1570
  store [0 x i8]* %xs.0, [0 x i8]** %6, align 8, !dbg !1570
  %7 = getelementptr inbounds { [0 x i8]*, i64 }, { [0 x i8]*, i64 }* %self.dbg.spill4, i32 0, i32 1, !dbg !1570
  store i64 %xs.1, i64* %7, align 8, !dbg !1570
  call void @llvm.dbg.declare(metadata { [0 x i8]*, i64 }* %self.dbg.spill4, metadata !1575, metadata !DIExpression()), !dbg !1579
  %self5 = bitcast [0 x i8]* %xs.0 to i8*, !dbg !1579
  store i8* %self5, i8** %self.dbg.spill6, align 8, !dbg !1579
  call void @llvm.dbg.declare(metadata i8** %self.dbg.spill6, metadata !1566, metadata !DIExpression()), !dbg !1580
  %8 = bitcast %"proc_macro::bridge::buffer::Buffer"* %self to i8**, !dbg !1581
  %self7 = load i8*, i8** %8, align 8, !dbg !1581
  store i8* %self7, i8** %self.dbg.spill8, align 8, !dbg !1581
  call void @llvm.dbg.declare(metadata i8** %self.dbg.spill8, metadata !1582, metadata !DIExpression()), !dbg !1587
  %9 = getelementptr inbounds %"proc_macro::bridge::buffer::Buffer", %"proc_macro::bridge::buffer::Buffer"* %self, i32 0, i32 1, !dbg !1588
  %count = load i64, i64* %9, align 8, !dbg !1588
  store i64 %count, i64* %count.dbg.spill, align 8, !dbg !1588
  call void @llvm.dbg.declare(metadata i64* %count.dbg.spill, metadata !1586, metadata !DIExpression()), !dbg !1587
  store i8* %self7, i8** %self.dbg.spill9, align 8, !dbg !1587
  call void @llvm.dbg.declare(metadata i8** %self.dbg.spill9, metadata !1589, metadata !DIExpression()), !dbg !1594
  store i64 %count, i64* %count.dbg.spill10, align 8, !dbg !1587
  call void @llvm.dbg.declare(metadata i64* %count.dbg.spill10, metadata !1593, metadata !DIExpression()), !dbg !1594
  %10 = getelementptr inbounds i8, i8* %self7, i64 %count, !dbg !1594
  store i8* %10, i8** %0, align 8, !dbg !1594
  %_37 = load i8*, i8** %0, align 8, !dbg !1594
  br label %bb11, !dbg !1594

bb1:                                              ; preds = %start
  store %"proc_macro::bridge::buffer::Buffer"* %self, %"proc_macro::bridge::buffer::Buffer"** %self.dbg.spill1, align 8, !dbg !1596
  call void @llvm.dbg.declare(metadata %"proc_macro::bridge::buffer::Buffer"** %self.dbg.spill1, metadata !1597, metadata !DIExpression()), !dbg !1600
  store %"proc_macro::bridge::buffer::Buffer"* %self, %"proc_macro::bridge::buffer::Buffer"** %dest.dbg.spill, align 8, !dbg !1600
  call void @llvm.dbg.declare(metadata %"proc_macro::bridge::buffer::Buffer"** %dest.dbg.spill, metadata !1601, metadata !DIExpression()), !dbg !1605
  %_30.0 = load i8*, i8** getelementptr inbounds ({ i8*, i64 }, { i8*, i64 }* bitcast (<{ [16 x i8] }>* @0 to { i8*, i64 }*), i32 0, i32 0), align 8, !dbg !1607, !nonnull !27, !noundef !27
  %_30.1 = load i64, i64* getelementptr inbounds ({ i8*, i64 }, { i8*, i64 }* bitcast (<{ [16 x i8] }>* @0 to { i8*, i64 }*), i32 0, i32 1), align 8, !dbg !1607
  %11 = bitcast %"alloc::vec::Vec<u8>"* %_29 to { i8*, i64 }*, !dbg !1607
  %12 = getelementptr inbounds { i8*, i64 }, { i8*, i64 }* %11, i32 0, i32 0, !dbg !1607
  store i8* %_30.0, i8** %12, align 8, !dbg !1607
  %13 = getelementptr inbounds { i8*, i64 }, { i8*, i64 }* %11, i32 0, i32 1, !dbg !1607
  store i64 %_30.1, i64* %13, align 8, !dbg !1607
  %14 = getelementptr inbounds %"alloc::vec::Vec<u8>", %"alloc::vec::Vec<u8>"* %_29, i32 0, i32 1, !dbg !1607
  store i64 0, i64* %14, align 8, !dbg !1607
; call <proc_macro::bridge::buffer::Buffer as core::convert::From<alloc::vec::Vec<u8>>>::from
  call void @"_ZN107_$LT$proc_macro..bridge..buffer..Buffer$u20$as$u20$core..convert..From$LT$alloc..vec..Vec$LT$u8$GT$$GT$$GT$4from17hae087b0765d8b4d8E"(%"proc_macro::bridge::buffer::Buffer"* sret(%"proc_macro::bridge::buffer::Buffer") %_28, %"alloc::vec::Vec<u8>"* %_29), !dbg !1614
  br label %bb10, !dbg !1614

bb10:                                             ; preds = %bb1
; call core::mem::replace
  call void @_ZN4core3mem7replace17haedb1d51e20a5159E(%"proc_macro::bridge::buffer::Buffer"* sret(%"proc_macro::bridge::buffer::Buffer") %b, %"proc_macro::bridge::buffer::Buffer"* align 8 %self, %"proc_macro::bridge::buffer::Buffer"* %_28), !dbg !1605
  br label %bb9, !dbg !1605

bb9:                                              ; preds = %bb10
  %15 = getelementptr inbounds %"proc_macro::bridge::buffer::Buffer", %"proc_macro::bridge::buffer::Buffer"* %b, i32 0, i32 3, !dbg !1615
  %_12 = load void (%"proc_macro::bridge::buffer::Buffer"*, %"proc_macro::bridge::buffer::Buffer"*, i64)*, void (%"proc_macro::bridge::buffer::Buffer"*, %"proc_macro::bridge::buffer::Buffer"*, i64)** %15, align 8, !dbg !1615, !nonnull !27, !noundef !27
  %16 = bitcast %"proc_macro::bridge::buffer::Buffer"* %_13 to i8*, !dbg !1616
  %17 = bitcast %"proc_macro::bridge::buffer::Buffer"* %b to i8*, !dbg !1616
  call void @llvm.memcpy.p0i8.p0i8.i64(i8* align 8 %16, i8* align 8 %17, i64 40, i1 false), !dbg !1616
  %18 = getelementptr inbounds { [0 x i8]*, i64 }, { [0 x i8]*, i64 }* %self.dbg.spill2, i32 0, i32 0, !dbg !1617
  store [0 x i8]* %xs.0, [0 x i8]** %18, align 8, !dbg !1617
  %19 = getelementptr inbounds { [0 x i8]*, i64 }, { [0 x i8]*, i64 }* %self.dbg.spill2, i32 0, i32 1, !dbg !1617
  store i64 %xs.1, i64* %19, align 8, !dbg !1617
  call void @llvm.dbg.declare(metadata { [0 x i8]*, i64 }* %self.dbg.spill2, metadata !1618, metadata !DIExpression()), !dbg !1622
  %20 = bitcast %"core::ptr::metadata::PtrRepr<[u8]>"* %_31 to { [0 x i8]*, i64 }*, !dbg !1622
  %21 = getelementptr inbounds { [0 x i8]*, i64 }, { [0 x i8]*, i64 }* %20, i32 0, i32 0, !dbg !1622
  store [0 x i8]* %xs.0, [0 x i8]** %21, align 8, !dbg !1622
  %22 = getelementptr inbounds { [0 x i8]*, i64 }, { [0 x i8]*, i64 }* %20, i32 0, i32 1, !dbg !1622
  store i64 %xs.1, i64* %22, align 8, !dbg !1622
  %23 = bitcast %"core::ptr::metadata::PtrRepr<[u8]>"* %_31 to { i8*, i64 }*, !dbg !1622
  %24 = getelementptr inbounds { i8*, i64 }, { i8*, i64 }* %23, i32 0, i32 1, !dbg !1622
  %_14 = load i64, i64* %24, align 8, !dbg !1622
  invoke void %_12(%"proc_macro::bridge::buffer::Buffer"* sret(%"proc_macro::bridge::buffer::Buffer") %_11, %"proc_macro::bridge::buffer::Buffer"* byval(%"proc_macro::bridge::buffer::Buffer") %_13, i64 %_14)
          to label %bb2 unwind label %cleanup, !dbg !1615

bb8:                                              ; preds = %cleanup
  br i1 false, label %bb7, label %bb4, !dbg !1623

cleanup:                                          ; preds = %bb9
  %25 = landingpad { i8*, i32 }
          cleanup
  %26 = extractvalue { i8*, i32 } %25, 0
  %27 = extractvalue { i8*, i32 } %25, 1
  %28 = getelementptr inbounds { i8*, i32 }, { i8*, i32 }* %1, i32 0, i32 0
  store i8* %26, i8** %28, align 8
  %29 = getelementptr inbounds { i8*, i32 }, { i8*, i32 }* %1, i32 0, i32 1
  store i32 %27, i32* %29, align 8
  br label %bb8

bb2:                                              ; preds = %bb9
; invoke core::ptr::drop_in_place<proc_macro::bridge::buffer::Buffer>
  invoke void @"_ZN4core3ptr55drop_in_place$LT$proc_macro..bridge..buffer..Buffer$GT$17ha3af9902afa5dfbfE"(%"proc_macro::bridge::buffer::Buffer"* %self)
          to label %bb6 unwind label %cleanup3, !dbg !1624

bb4:                                              ; preds = %bb5, %bb7, %bb8
  %30 = bitcast { i8*, i32 }* %1 to i8**, !dbg !1625
  %31 = load i8*, i8** %30, align 8, !dbg !1625
  %32 = getelementptr inbounds { i8*, i32 }, { i8*, i32 }* %1, i32 0, i32 1, !dbg !1625
  %33 = load i32, i32* %32, align 8, !dbg !1625
  %34 = insertvalue { i8*, i32 } undef, i8* %31, 0, !dbg !1625
  %35 = insertvalue { i8*, i32 } %34, i32 %33, 1, !dbg !1625
  resume { i8*, i32 } %35, !dbg !1625

bb7:                                              ; preds = %bb8
; invoke core::ptr::drop_in_place<proc_macro::bridge::buffer::Buffer>
  invoke void @"_ZN4core3ptr55drop_in_place$LT$proc_macro..bridge..buffer..Buffer$GT$17ha3af9902afa5dfbfE"(%"proc_macro::bridge::buffer::Buffer"* %_13) #19
          to label %bb4 unwind label %abort, !dbg !1623

abort:                                            ; preds = %bb7
  %36 = landingpad { i8*, i32 }
          cleanup, !dbg !1625
; call core::panicking::panic_no_unwind
  call void @_ZN4core9panicking15panic_no_unwind17h62f8113f44cbfcbfE() #20, !dbg !1625
  unreachable, !dbg !1625

bb5:                                              ; preds = %cleanup3
  %37 = bitcast %"proc_macro::bridge::buffer::Buffer"* %self to i8*, !dbg !1624
  %38 = bitcast %"proc_macro::bridge::buffer::Buffer"* %_11 to i8*, !dbg !1624
  call void @llvm.memcpy.p0i8.p0i8.i64(i8* align 8 %37, i8* align 8 %38, i64 40, i1 false), !dbg !1624
  br label %bb4, !dbg !1624

cleanup3:                                         ; preds = %bb2
  %39 = landingpad { i8*, i32 }
          cleanup
  %40 = extractvalue { i8*, i32 } %39, 0
  %41 = extractvalue { i8*, i32 } %39, 1
  %42 = getelementptr inbounds { i8*, i32 }, { i8*, i32 }* %1, i32 0, i32 0
  store i8* %40, i8** %42, align 8
  %43 = getelementptr inbounds { i8*, i32 }, { i8*, i32 }* %1, i32 0, i32 1
  store i32 %41, i32* %43, align 8
  br label %bb5

bb6:                                              ; preds = %bb2
  %44 = bitcast %"proc_macro::bridge::buffer::Buffer"* %self to i8*, !dbg !1624
  %45 = bitcast %"proc_macro::bridge::buffer::Buffer"* %_11 to i8*, !dbg !1624
  call void @llvm.memcpy.p0i8.p0i8.i64(i8* align 8 %44, i8* align 8 %45, i64 40, i1 false), !dbg !1624
  br label %bb3, !dbg !1626

bb11:                                             ; preds = %bb3
  store i8* %_37, i8** %dest.dbg.spill11, align 8, !dbg !1594
  call void @llvm.dbg.declare(metadata i8** %dest.dbg.spill11, metadata !1568, metadata !DIExpression()), !dbg !1580
  store i64 %xs.1, i64* %count.dbg.spill12, align 8, !dbg !1627
  call void @llvm.dbg.declare(metadata i64* %count.dbg.spill12, metadata !1569, metadata !DIExpression()), !dbg !1580
  store i8* %self5, i8** %src.dbg.spill, align 8, !dbg !1580
  call void @llvm.dbg.declare(metadata i8** %src.dbg.spill, metadata !1558, metadata !DIExpression()), !dbg !1628
  store i8* %_37, i8** %dst.dbg.spill, align 8, !dbg !1580
  call void @llvm.dbg.declare(metadata i8** %dst.dbg.spill, metadata !1560, metadata !DIExpression()), !dbg !1628
  store i64 %xs.1, i64* %count.dbg.spill13, align 8, !dbg !1580
  call void @llvm.dbg.declare(metadata i64* %count.dbg.spill13, metadata !1561, metadata !DIExpression()), !dbg !1628
  %46 = mul i64 %xs.1, 1, !dbg !1628
  call void @llvm.memcpy.p0i8.p0i8.i64(i8* align 1 %_37, i8* align 1 %self5, i64 %46, i1 false), !dbg !1628
  %47 = getelementptr inbounds %"proc_macro::bridge::buffer::Buffer", %"proc_macro::bridge::buffer::Buffer"* %self, i32 0, i32 1, !dbg !1629
  %48 = getelementptr inbounds %"proc_macro::bridge::buffer::Buffer", %"proc_macro::bridge::buffer::Buffer"* %self, i32 0, i32 1, !dbg !1629
  %49 = load i64, i64* %48, align 8, !dbg !1629
  %50 = add i64 %49, %xs.1, !dbg !1629
  store i64 %50, i64* %47, align 8, !dbg !1629
  ret void, !dbg !1630
}

; proc_macro::bridge::buffer::Buffer::push
; Function Attrs: inlinehint nonlazybind uwtable
define internal void @_ZN10proc_macro6bridge6buffer6Buffer4push17h641e142eab244a8dE(%"proc_macro::bridge::buffer::Buffer"* align 8 %self, i8 %v) unnamed_addr #0 personality i32 (i32, i32, i64, %"unwind::libunwind::_Unwind_Exception"*, %"unwind::libunwind::_Unwind_Context"*)* @rust_eh_personality !dbg !1631 {
start:
  %0 = alloca i8*, align 8
  %count.dbg.spill5 = alloca i64, align 8
  %self.dbg.spill4 = alloca i8*, align 8
  %count.dbg.spill = alloca i64, align 8
  %self.dbg.spill3 = alloca i8*, align 8
  %1 = alloca { i8*, i32 }, align 8
  %dest.dbg.spill = alloca %"proc_macro::bridge::buffer::Buffer"*, align 8
  %self.dbg.spill1 = alloca %"proc_macro::bridge::buffer::Buffer"*, align 8
  %v.dbg.spill = alloca i8, align 1
  %self.dbg.spill = alloca %"proc_macro::bridge::buffer::Buffer"*, align 8
  %_18 = alloca %"alloc::vec::Vec<u8>", align 8
  %_17 = alloca %"proc_macro::bridge::buffer::Buffer", align 8
  %_10 = alloca %"proc_macro::bridge::buffer::Buffer", align 8
  %_8 = alloca %"proc_macro::bridge::buffer::Buffer", align 8
  %b = alloca %"proc_macro::bridge::buffer::Buffer", align 8
  store %"proc_macro::bridge::buffer::Buffer"* %self, %"proc_macro::bridge::buffer::Buffer"** %self.dbg.spill, align 8
  call void @llvm.dbg.declare(metadata %"proc_macro::bridge::buffer::Buffer"** %self.dbg.spill, metadata !1635, metadata !DIExpression()), !dbg !1639
  store i8 %v, i8* %v.dbg.spill, align 1
  call void @llvm.dbg.declare(metadata i8* %v.dbg.spill, metadata !1636, metadata !DIExpression()), !dbg !1640
  call void @llvm.dbg.declare(metadata %"proc_macro::bridge::buffer::Buffer"* %b, metadata !1637, metadata !DIExpression()), !dbg !1641
  %2 = getelementptr inbounds %"proc_macro::bridge::buffer::Buffer", %"proc_macro::bridge::buffer::Buffer"* %self, i32 0, i32 1, !dbg !1642
  %_4 = load i64, i64* %2, align 8, !dbg !1642
  %3 = getelementptr inbounds %"proc_macro::bridge::buffer::Buffer", %"proc_macro::bridge::buffer::Buffer"* %self, i32 0, i32 2, !dbg !1643
  %_5 = load i64, i64* %3, align 8, !dbg !1643
  %_3 = icmp eq i64 %_4, %_5, !dbg !1642
  br i1 %_3, label %bb1, label %bb3, !dbg !1642

bb3:                                              ; preds = %bb5, %start
  %4 = bitcast %"proc_macro::bridge::buffer::Buffer"* %self to i8**, !dbg !1644
  %self2 = load i8*, i8** %4, align 8, !dbg !1644
  store i8* %self2, i8** %self.dbg.spill3, align 8, !dbg !1644
  call void @llvm.dbg.declare(metadata i8** %self.dbg.spill3, metadata !1645, metadata !DIExpression()), !dbg !1650
  %5 = getelementptr inbounds %"proc_macro::bridge::buffer::Buffer", %"proc_macro::bridge::buffer::Buffer"* %self, i32 0, i32 1, !dbg !1651
  %count = load i64, i64* %5, align 8, !dbg !1651
  store i64 %count, i64* %count.dbg.spill, align 8, !dbg !1651
  call void @llvm.dbg.declare(metadata i64* %count.dbg.spill, metadata !1649, metadata !DIExpression()), !dbg !1650
  store i8* %self2, i8** %self.dbg.spill4, align 8, !dbg !1650
  call void @llvm.dbg.declare(metadata i8** %self.dbg.spill4, metadata !1652, metadata !DIExpression()), !dbg !1657
  store i64 %count, i64* %count.dbg.spill5, align 8, !dbg !1650
  call void @llvm.dbg.declare(metadata i64* %count.dbg.spill5, metadata !1656, metadata !DIExpression()), !dbg !1657
  %6 = getelementptr inbounds i8, i8* %self2, i64 %count, !dbg !1657
  store i8* %6, i8** %0, align 8, !dbg !1657
  %_23 = load i8*, i8** %0, align 8, !dbg !1657
  br label %bb8, !dbg !1657

bb1:                                              ; preds = %start
  store %"proc_macro::bridge::buffer::Buffer"* %self, %"proc_macro::bridge::buffer::Buffer"** %self.dbg.spill1, align 8, !dbg !1659
  call void @llvm.dbg.declare(metadata %"proc_macro::bridge::buffer::Buffer"** %self.dbg.spill1, metadata !1660, metadata !DIExpression()), !dbg !1663
  store %"proc_macro::bridge::buffer::Buffer"* %self, %"proc_macro::bridge::buffer::Buffer"** %dest.dbg.spill, align 8, !dbg !1663
  call void @llvm.dbg.declare(metadata %"proc_macro::bridge::buffer::Buffer"** %dest.dbg.spill, metadata !1664, metadata !DIExpression()), !dbg !1668
  %_19.0 = load i8*, i8** getelementptr inbounds ({ i8*, i64 }, { i8*, i64 }* bitcast (<{ [16 x i8] }>* @0 to { i8*, i64 }*), i32 0, i32 0), align 8, !dbg !1670, !nonnull !27, !noundef !27
  %_19.1 = load i64, i64* getelementptr inbounds ({ i8*, i64 }, { i8*, i64 }* bitcast (<{ [16 x i8] }>* @0 to { i8*, i64 }*), i32 0, i32 1), align 8, !dbg !1670
  %7 = bitcast %"alloc::vec::Vec<u8>"* %_18 to { i8*, i64 }*, !dbg !1670
  %8 = getelementptr inbounds { i8*, i64 }, { i8*, i64 }* %7, i32 0, i32 0, !dbg !1670
  store i8* %_19.0, i8** %8, align 8, !dbg !1670
  %9 = getelementptr inbounds { i8*, i64 }, { i8*, i64 }* %7, i32 0, i32 1, !dbg !1670
  store i64 %_19.1, i64* %9, align 8, !dbg !1670
  %10 = getelementptr inbounds %"alloc::vec::Vec<u8>", %"alloc::vec::Vec<u8>"* %_18, i32 0, i32 1, !dbg !1670
  store i64 0, i64* %10, align 8, !dbg !1670
; call <proc_macro::bridge::buffer::Buffer as core::convert::From<alloc::vec::Vec<u8>>>::from
  call void @"_ZN107_$LT$proc_macro..bridge..buffer..Buffer$u20$as$u20$core..convert..From$LT$alloc..vec..Vec$LT$u8$GT$$GT$$GT$4from17hae087b0765d8b4d8E"(%"proc_macro::bridge::buffer::Buffer"* sret(%"proc_macro::bridge::buffer::Buffer") %_17, %"alloc::vec::Vec<u8>"* %_18), !dbg !1677
  br label %bb7, !dbg !1677

bb7:                                              ; preds = %bb1
; call core::mem::replace
  call void @_ZN4core3mem7replace17haedb1d51e20a5159E(%"proc_macro::bridge::buffer::Buffer"* sret(%"proc_macro::bridge::buffer::Buffer") %b, %"proc_macro::bridge::buffer::Buffer"* align 8 %self, %"proc_macro::bridge::buffer::Buffer"* %_17), !dbg !1668
  br label %bb6, !dbg !1668

bb6:                                              ; preds = %bb7
  %11 = getelementptr inbounds %"proc_macro::bridge::buffer::Buffer", %"proc_macro::bridge::buffer::Buffer"* %b, i32 0, i32 3, !dbg !1678
  %_9 = load void (%"proc_macro::bridge::buffer::Buffer"*, %"proc_macro::bridge::buffer::Buffer"*, i64)*, void (%"proc_macro::bridge::buffer::Buffer"*, %"proc_macro::bridge::buffer::Buffer"*, i64)** %11, align 8, !dbg !1678, !nonnull !27, !noundef !27
  %12 = bitcast %"proc_macro::bridge::buffer::Buffer"* %_10 to i8*, !dbg !1679
  %13 = bitcast %"proc_macro::bridge::buffer::Buffer"* %b to i8*, !dbg !1679
  call void @llvm.memcpy.p0i8.p0i8.i64(i8* align 8 %12, i8* align 8 %13, i64 40, i1 false), !dbg !1679
  call void %_9(%"proc_macro::bridge::buffer::Buffer"* sret(%"proc_macro::bridge::buffer::Buffer") %_8, %"proc_macro::bridge::buffer::Buffer"* byval(%"proc_macro::bridge::buffer::Buffer") %_10, i64 1), !dbg !1678
  br label %bb2, !dbg !1678

bb2:                                              ; preds = %bb6
; invoke core::ptr::drop_in_place<proc_macro::bridge::buffer::Buffer>
  invoke void @"_ZN4core3ptr55drop_in_place$LT$proc_macro..bridge..buffer..Buffer$GT$17ha3af9902afa5dfbfE"(%"proc_macro::bridge::buffer::Buffer"* %self)
          to label %bb5 unwind label %cleanup, !dbg !1680

bb4:                                              ; preds = %cleanup
  %14 = bitcast %"proc_macro::bridge::buffer::Buffer"* %self to i8*, !dbg !1680
  %15 = bitcast %"proc_macro::bridge::buffer::Buffer"* %_8 to i8*, !dbg !1680
  call void @llvm.memcpy.p0i8.p0i8.i64(i8* align 8 %14, i8* align 8 %15, i64 40, i1 false), !dbg !1680
  %16 = bitcast { i8*, i32 }* %1 to i8**, !dbg !1681
  %17 = load i8*, i8** %16, align 8, !dbg !1681
  %18 = getelementptr inbounds { i8*, i32 }, { i8*, i32 }* %1, i32 0, i32 1, !dbg !1681
  %19 = load i32, i32* %18, align 8, !dbg !1681
  %20 = insertvalue { i8*, i32 } undef, i8* %17, 0, !dbg !1681
  %21 = insertvalue { i8*, i32 } %20, i32 %19, 1, !dbg !1681
  resume { i8*, i32 } %21, !dbg !1681

cleanup:                                          ; preds = %bb2
  %22 = landingpad { i8*, i32 }
          cleanup
  %23 = extractvalue { i8*, i32 } %22, 0
  %24 = extractvalue { i8*, i32 } %22, 1
  %25 = getelementptr inbounds { i8*, i32 }, { i8*, i32 }* %1, i32 0, i32 0
  store i8* %23, i8** %25, align 8
  %26 = getelementptr inbounds { i8*, i32 }, { i8*, i32 }* %1, i32 0, i32 1
  store i32 %24, i32* %26, align 8
  br label %bb4

bb5:                                              ; preds = %bb2
  %27 = bitcast %"proc_macro::bridge::buffer::Buffer"* %self to i8*, !dbg !1680
  %28 = bitcast %"proc_macro::bridge::buffer::Buffer"* %_8 to i8*, !dbg !1680
  call void @llvm.memcpy.p0i8.p0i8.i64(i8* align 8 %27, i8* align 8 %28, i64 40, i1 false), !dbg !1680
  br label %bb3, !dbg !1682

bb8:                                              ; preds = %bb3
  store i8 %v, i8* %_23, align 1, !dbg !1683
  %29 = getelementptr inbounds %"proc_macro::bridge::buffer::Buffer", %"proc_macro::bridge::buffer::Buffer"* %self, i32 0, i32 1, !dbg !1684
  %30 = getelementptr inbounds %"proc_macro::bridge::buffer::Buffer", %"proc_macro::bridge::buffer::Buffer"* %self, i32 0, i32 1, !dbg !1684
  %31 = load i64, i64* %30, align 8, !dbg !1684
  %32 = add i64 %31, 1, !dbg !1684
  store i64 %32, i64* %29, align 8, !dbg !1684
  ret void, !dbg !1685
}

; proc_macro::bridge::client::run_client
; Function Attrs: nonlazybind uwtable
define internal void @_ZN10proc_macro6bridge6client10run_client17h655ca071f1606824E(%"proc_macro::bridge::buffer::Buffer"* sret(%"proc_macro::bridge::buffer::Buffer") %buf, %"proc_macro::bridge::BridgeConfig"* %config, i8* align 1 %f) unnamed_addr #1 personality i32 (i32, i32, i64, %"unwind::libunwind::_Unwind_Exception"*, %"unwind::libunwind::_Unwind_Context"*)* @rust_eh_personality !dbg !1686 {
start:
  %0 = alloca { i8*, i32 }, align 8
  %dispatch.dbg.spill = alloca { i64*, i8* }, align 8
  %f.dbg.spill = alloca i8*, align 8
  %_12 = alloca i64*, align 8
  %_9 = alloca %"[closure@proc_macro::bridge::client::run_client<proc_macro::bridge::client::TokenStream, core::option::Option<proc_macro::bridge::client::TokenStream>, [closure@proc_macro::bridge::client::Client<proc_macro::TokenStream, proc_macro::TokenStream>::expand1<fn(proc_macro::TokenStream) -> proc_macro::TokenStream {f128_inner}>::{closure#0}::{closure#0}]>::{closure#0}]", align 8
  %_8 = alloca %"core::panic::unwind_safe::AssertUnwindSafe<[closure@proc_macro::bridge::client::run_client<proc_macro::bridge::client::TokenStream, core::option::Option<proc_macro::bridge::client::TokenStream>, [closure@proc_macro::bridge::client::Client<proc_macro::TokenStream, proc_macro::TokenStream>::expand1<fn(proc_macro::TokenStream) -> proc_macro::TokenStream {f128_inner}>::{closure#0}::{closure#0}]>::{closure#0}]>", align 8
  %_6 = alloca %"core::result::Result<(), proc_macro::bridge::rpc::PanicMessage>", align 8
  %force_show_panics = alloca i8, align 1
  call void @llvm.dbg.declare(metadata %"proc_macro::bridge::buffer::Buffer"* %buf, metadata !1692, metadata !DIExpression()), !dbg !1700
  call void @llvm.dbg.declare(metadata %"proc_macro::bridge::BridgeConfig"* %config, metadata !1690, metadata !DIExpression()), !dbg !1701
  store i8* %f, i8** %f.dbg.spill, align 8
  call void @llvm.dbg.declare(metadata i8** %f.dbg.spill, metadata !1691, metadata !DIExpression()), !dbg !1702
  call void @llvm.dbg.declare(metadata i8* %force_show_panics, metadata !1695, metadata !DIExpression()), !dbg !1703
  %1 = bitcast %"proc_macro::bridge::BridgeConfig"* %config to %"proc_macro::bridge::buffer::Buffer"*, !dbg !1704
  %2 = bitcast %"proc_macro::bridge::buffer::Buffer"* %buf to i8*, !dbg !1704
  %3 = bitcast %"proc_macro::bridge::buffer::Buffer"* %1 to i8*, !dbg !1704
  call void @llvm.memcpy.p0i8.p0i8.i64(i8* align 8 %2, i8* align 8 %3, i64 40, i1 false), !dbg !1704
  %4 = getelementptr inbounds %"proc_macro::bridge::BridgeConfig", %"proc_macro::bridge::BridgeConfig"* %config, i32 0, i32 1, !dbg !1705
  %5 = getelementptr inbounds { i64*, i8* }, { i64*, i8* }* %4, i32 0, i32 0, !dbg !1705
  %dispatch.0 = load i64*, i64** %5, align 8, !dbg !1705, !nonnull !27, !noundef !27
  %6 = getelementptr inbounds { i64*, i8* }, { i64*, i8* }* %4, i32 0, i32 1, !dbg !1705
  %dispatch.1 = load i8*, i8** %6, align 8, !dbg !1705
  %7 = getelementptr inbounds { i64*, i8* }, { i64*, i8* }* %dispatch.dbg.spill, i32 0, i32 0, !dbg !1705
  store i64* %dispatch.0, i64** %7, align 8, !dbg !1705
  %8 = getelementptr inbounds { i64*, i8* }, { i64*, i8* }* %dispatch.dbg.spill, i32 0, i32 1, !dbg !1705
  store i8* %dispatch.1, i8** %8, align 8, !dbg !1705
  call void @llvm.dbg.declare(metadata { i64*, i8* }* %dispatch.dbg.spill, metadata !1694, metadata !DIExpression()), !dbg !1706
  %9 = getelementptr inbounds %"proc_macro::bridge::BridgeConfig", %"proc_macro::bridge::BridgeConfig"* %config, i32 0, i32 2, !dbg !1707
  %10 = load i8, i8* %9, align 8, !dbg !1707, !range !759, !noundef !27
  %11 = trunc i8 %10 to i1, !dbg !1707
  %12 = zext i1 %11 to i8, !dbg !1707
  store i8 %12, i8* %force_show_panics, align 1, !dbg !1707
  %13 = bitcast %"[closure@proc_macro::bridge::client::run_client<proc_macro::bridge::client::TokenStream, core::option::Option<proc_macro::bridge::client::TokenStream>, [closure@proc_macro::bridge::client::Client<proc_macro::TokenStream, proc_macro::TokenStream>::expand1<fn(proc_macro::TokenStream) -> proc_macro::TokenStream {f128_inner}>::{closure#0}::{closure#0}]>::{closure#0}]"* %_9 to i8**, !dbg !1708
  store i8* %force_show_panics, i8** %13, align 8, !dbg !1708
  %14 = getelementptr inbounds %"[closure@proc_macro::bridge::client::run_client<proc_macro::bridge::client::TokenStream, core::option::Option<proc_macro::bridge::client::TokenStream>, [closure@proc_macro::bridge::client::Client<proc_macro::TokenStream, proc_macro::TokenStream>::expand1<fn(proc_macro::TokenStream) -> proc_macro::TokenStream {f128_inner}>::{closure#0}::{closure#0}]>::{closure#0}]", %"[closure@proc_macro::bridge::client::run_client<proc_macro::bridge::client::TokenStream, core::option::Option<proc_macro::bridge::client::TokenStream>, [closure@proc_macro::bridge::client::Client<proc_macro::TokenStream, proc_macro::TokenStream>::expand1<fn(proc_macro::TokenStream) -> proc_macro::TokenStream {f128_inner}>::{closure#0}::{closure#0}]>::{closure#0}]"* %_9, i32 0, i32 1, !dbg !1708
  store %"proc_macro::bridge::buffer::Buffer"* %buf, %"proc_macro::bridge::buffer::Buffer"** %14, align 8, !dbg !1708
  %15 = getelementptr inbounds %"[closure@proc_macro::bridge::client::run_client<proc_macro::bridge::client::TokenStream, core::option::Option<proc_macro::bridge::client::TokenStream>, [closure@proc_macro::bridge::client::Client<proc_macro::TokenStream, proc_macro::TokenStream>::expand1<fn(proc_macro::TokenStream) -> proc_macro::TokenStream {f128_inner}>::{closure#0}::{closure#0}]>::{closure#0}]", %"[closure@proc_macro::bridge::client::run_client<proc_macro::bridge::client::TokenStream, core::option::Option<proc_macro::bridge::client::TokenStream>, [closure@proc_macro::bridge::client::Client<proc_macro::TokenStream, proc_macro::TokenStream>::expand1<fn(proc_macro::TokenStream) -> proc_macro::TokenStream {f128_inner}>::{closure#0}::{closure#0}]>::{closure#0}]"* %_9, i32 0, i32 2, !dbg !1708
  %16 = getelementptr inbounds { i64*, i8* }, { i64*, i8* }* %15, i32 0, i32 0, !dbg !1708
  store i64* %dispatch.0, i64** %16, align 8, !dbg !1708
  %17 = getelementptr inbounds { i64*, i8* }, { i64*, i8* }* %15, i32 0, i32 1, !dbg !1708
  store i8* %dispatch.1, i8** %17, align 8, !dbg !1708
  %18 = getelementptr inbounds %"[closure@proc_macro::bridge::client::run_client<proc_macro::bridge::client::TokenStream, core::option::Option<proc_macro::bridge::client::TokenStream>, [closure@proc_macro::bridge::client::Client<proc_macro::TokenStream, proc_macro::TokenStream>::expand1<fn(proc_macro::TokenStream) -> proc_macro::TokenStream {f128_inner}>::{closure#0}::{closure#0}]>::{closure#0}]", %"[closure@proc_macro::bridge::client::run_client<proc_macro::bridge::client::TokenStream, core::option::Option<proc_macro::bridge::client::TokenStream>, [closure@proc_macro::bridge::client::Client<proc_macro::TokenStream, proc_macro::TokenStream>::expand1<fn(proc_macro::TokenStream) -> proc_macro::TokenStream {f128_inner}>::{closure#0}::{closure#0}]>::{closure#0}]"* %_9, i32 0, i32 3, !dbg !1708
  store i8* %f, i8** %18, align 8, !dbg !1708
  %19 = bitcast %"core::panic::unwind_safe::AssertUnwindSafe<[closure@proc_macro::bridge::client::run_client<proc_macro::bridge::client::TokenStream, core::option::Option<proc_macro::bridge::client::TokenStream>, [closure@proc_macro::bridge::client::Client<proc_macro::TokenStream, proc_macro::TokenStream>::expand1<fn(proc_macro::TokenStream) -> proc_macro::TokenStream {f128_inner}>::{closure#0}::{closure#0}]>::{closure#0}]>"* %_8 to %"[closure@proc_macro::bridge::client::run_client<proc_macro::bridge::client::TokenStream, core::option::Option<proc_macro::bridge::client::TokenStream>, [closure@proc_macro::bridge::client::Client<proc_macro::TokenStream, proc_macro::TokenStream>::expand1<fn(proc_macro::TokenStream) -> proc_macro::TokenStream {f128_inner}>::{closure#0}::{closure#0}]>::{closure#0}]"*, !dbg !1709
  %20 = bitcast %"[closure@proc_macro::bridge::client::run_client<proc_macro::bridge::client::TokenStream, core::option::Option<proc_macro::bridge::client::TokenStream>, [closure@proc_macro::bridge::client::Client<proc_macro::TokenStream, proc_macro::TokenStream>::expand1<fn(proc_macro::TokenStream) -> proc_macro::TokenStream {f128_inner}>::{closure#0}::{closure#0}]>::{closure#0}]"* %19 to i8*, !dbg !1709
  %21 = bitcast %"[closure@proc_macro::bridge::client::run_client<proc_macro::bridge::client::TokenStream, core::option::Option<proc_macro::bridge::client::TokenStream>, [closure@proc_macro::bridge::client::Client<proc_macro::TokenStream, proc_macro::TokenStream>::expand1<fn(proc_macro::TokenStream) -> proc_macro::TokenStream {f128_inner}>::{closure#0}::{closure#0}]>::{closure#0}]"* %_9 to i8*, !dbg !1709
  call void @llvm.memcpy.p0i8.p0i8.i64(i8* align 8 %20, i8* align 8 %21, i64 40, i1 false), !dbg !1709
; invoke std::panic::catch_unwind
  %22 = invoke { i8*, i8* } @_ZN3std5panic12catch_unwind17h4585c9830b5c7ae1E(%"core::panic::unwind_safe::AssertUnwindSafe<[closure@proc_macro::bridge::client::run_client<proc_macro::bridge::client::TokenStream, core::option::Option<proc_macro::bridge::client::TokenStream>, [closure@proc_macro::bridge::client::Client<proc_macro::TokenStream, proc_macro::TokenStream>::expand1<fn(proc_macro::TokenStream) -> proc_macro::TokenStream {f128_inner}>::{closure#0}::{closure#0}]>::{closure#0}]>"* %_8)
          to label %bb1 unwind label %cleanup, !dbg !1710

bb5:                                              ; preds = %cleanup
; invoke core::ptr::drop_in_place<proc_macro::bridge::buffer::Buffer>
  invoke void @"_ZN4core3ptr55drop_in_place$LT$proc_macro..bridge..buffer..Buffer$GT$17ha3af9902afa5dfbfE"(%"proc_macro::bridge::buffer::Buffer"* %buf) #19
          to label %bb6 unwind label %abort, !dbg !1711

cleanup:                                          ; preds = %bb3, %bb2, %bb1, %start
  %23 = landingpad { i8*, i32 }
          cleanup
  %24 = extractvalue { i8*, i32 } %23, 0
  %25 = extractvalue { i8*, i32 } %23, 1
  %26 = getelementptr inbounds { i8*, i32 }, { i8*, i32 }* %0, i32 0, i32 0
  store i8* %24, i8** %26, align 8
  %27 = getelementptr inbounds { i8*, i32 }, { i8*, i32 }* %0, i32 0, i32 1
  store i32 %25, i32* %27, align 8
  br label %bb5

bb1:                                              ; preds = %start
  %_7.0 = extractvalue { i8*, i8* } %22, 0, !dbg !1710
  %_7.1 = extractvalue { i8*, i8* } %22, 1, !dbg !1710
; invoke core::result::Result<T,E>::map_err
  invoke void @"_ZN4core6result19Result$LT$T$C$E$GT$7map_err17ha3fa06a25fa3eb8fE"(%"core::result::Result<(), proc_macro::bridge::rpc::PanicMessage>"* sret(%"core::result::Result<(), proc_macro::bridge::rpc::PanicMessage>") %_6, i8* align 1 %_7.0, i8* %_7.1)
          to label %bb2 unwind label %cleanup, !dbg !1710

bb2:                                              ; preds = %bb1
  %28 = bitcast i64** %_12 to %"proc_macro::bridge::buffer::Buffer"**, !dbg !1712
  store %"proc_macro::bridge::buffer::Buffer"* %buf, %"proc_macro::bridge::buffer::Buffer"** %28, align 8, !dbg !1712
  %29 = load i64*, i64** %_12, align 8, !dbg !1710, !nonnull !27, !align !1193, !noundef !27
; invoke core::result::Result<T,E>::unwrap_or_else
  invoke void @"_ZN4core6result19Result$LT$T$C$E$GT$14unwrap_or_else17hb6b1d8dc2e2d1c2bE"(%"core::result::Result<(), proc_macro::bridge::rpc::PanicMessage>"* %_6, i64* align 8 %29)
          to label %bb3 unwind label %cleanup, !dbg !1710

bb3:                                              ; preds = %bb2
; invoke proc_macro::bridge::symbol::Symbol::invalidate_all
  invoke void @_ZN10proc_macro6bridge6symbol6Symbol14invalidate_all17ha1707764c36a0d84E()
          to label %bb4 unwind label %cleanup, !dbg !1713

bb4:                                              ; preds = %bb3
  ret void, !dbg !1714

abort:                                            ; preds = %bb5
  %30 = landingpad { i8*, i32 }
          cleanup, !dbg !1715
; call core::panicking::panic_no_unwind
  call void @_ZN4core9panicking15panic_no_unwind17h62f8113f44cbfcbfE() #20, !dbg !1715
  unreachable, !dbg !1715

bb6:                                              ; preds = %bb5
  %31 = bitcast { i8*, i32 }* %0 to i8**, !dbg !1715
  %32 = load i8*, i8** %31, align 8, !dbg !1715
  %33 = getelementptr inbounds { i8*, i32 }, { i8*, i32 }* %0, i32 0, i32 1, !dbg !1715
  %34 = load i32, i32* %33, align 8, !dbg !1715
  %35 = insertvalue { i8*, i32 } undef, i8* %32, 0, !dbg !1715
  %36 = insertvalue { i8*, i32 } %35, i32 %34, 1, !dbg !1715
  resume { i8*, i32 } %36, !dbg !1715
}

; proc_macro::bridge::client::run_client::{{closure}}
; Function Attrs: inlinehint nonlazybind uwtable
define internal void @"_ZN10proc_macro6bridge6client10run_client28_$u7b$$u7b$closure$u7d$$u7d$17h7bb2dd194cb78232E"(i64* align 8 %0, %"proc_macro::bridge::rpc::PanicMessage"* %e) unnamed_addr #0 personality i32 (i32, i32, i64, %"unwind::libunwind::_Unwind_Exception"*, %"unwind::libunwind::_Unwind_Context"*)* @rust_eh_personality !dbg !1716 {
start:
  %1 = alloca { i8*, i32 }, align 8
  %self.dbg.spill = alloca %"proc_macro::bridge::buffer::Buffer"*, align 8
  %_11 = alloca {}, align 1
  %_6 = alloca %"proc_macro::bridge::rpc::PanicMessage", align 8
  %_5 = alloca %"core::result::Result<(), proc_macro::bridge::rpc::PanicMessage>", align 8
  %_1 = alloca i64*, align 8
  store i64* %0, i64** %_1, align 8
  %2 = bitcast i64** %_1 to %"proc_macro::bridge::buffer::Buffer"**
  %3 = load %"proc_macro::bridge::buffer::Buffer"*, %"proc_macro::bridge::buffer::Buffer"** %2, align 8, !nonnull !27, !align !1193, !noundef !27
  call void @llvm.dbg.declare(metadata i64** %_1, metadata !1724, metadata !DIExpression(DW_OP_deref)), !dbg !1725
  call void @llvm.dbg.declare(metadata %"proc_macro::bridge::rpc::PanicMessage"* %e, metadata !1723, metadata !DIExpression()), !dbg !1726
  %4 = bitcast i64** %_1 to %"proc_macro::bridge::buffer::Buffer"**, !dbg !1727
  %_12 = load %"proc_macro::bridge::buffer::Buffer"*, %"proc_macro::bridge::buffer::Buffer"** %4, align 8, !dbg !1727, !nonnull !27, !align !1193, !noundef !27
  store %"proc_macro::bridge::buffer::Buffer"* %_12, %"proc_macro::bridge::buffer::Buffer"** %self.dbg.spill, align 8, !dbg !1727
  call void @llvm.dbg.declare(metadata %"proc_macro::bridge::buffer::Buffer"** %self.dbg.spill, metadata !1728, metadata !DIExpression()), !dbg !1734
  %5 = getelementptr inbounds %"proc_macro::bridge::buffer::Buffer", %"proc_macro::bridge::buffer::Buffer"* %_12, i32 0, i32 1, !dbg !1734
  store i64 0, i64* %5, align 8, !dbg !1734
  %6 = bitcast %"proc_macro::bridge::rpc::PanicMessage"* %_6 to i8*, !dbg !1735
  %7 = bitcast %"proc_macro::bridge::rpc::PanicMessage"* %e to i8*, !dbg !1735
  call void @llvm.memcpy.p0i8.p0i8.i64(i8* align 8 %6, i8* align 8 %7, i64 32, i1 false), !dbg !1735
  %8 = bitcast %"core::result::Result<(), proc_macro::bridge::rpc::PanicMessage>"* %_5 to %"core::result::Result<(), proc_macro::bridge::rpc::PanicMessage>::Err"*, !dbg !1736
  %9 = bitcast %"core::result::Result<(), proc_macro::bridge::rpc::PanicMessage>::Err"* %8 to %"proc_macro::bridge::rpc::PanicMessage"*, !dbg !1736
  %10 = bitcast %"proc_macro::bridge::rpc::PanicMessage"* %9 to i8*, !dbg !1736
  %11 = bitcast %"proc_macro::bridge::rpc::PanicMessage"* %_6 to i8*, !dbg !1736
  call void @llvm.memcpy.p0i8.p0i8.i64(i8* align 8 %10, i8* align 8 %11, i64 32, i1 false), !dbg !1736
  %12 = bitcast i64** %_1 to %"proc_macro::bridge::buffer::Buffer"**, !dbg !1737
  %_13 = load %"proc_macro::bridge::buffer::Buffer"*, %"proc_macro::bridge::buffer::Buffer"** %12, align 8, !dbg !1737, !nonnull !27, !align !1193, !noundef !27
; invoke proc_macro::bridge::<impl proc_macro::bridge::rpc::Encode<S> for core::result::Result<T,E>>::encode
  invoke void @"_ZN10proc_macro6bridge104_$LT$impl$u20$proc_macro..bridge..rpc..Encode$LT$S$GT$$u20$for$u20$core..result..Result$LT$T$C$E$GT$$GT$6encode17h3118e371acb46529E"(%"core::result::Result<(), proc_macro::bridge::rpc::PanicMessage>"* %_5, %"proc_macro::bridge::buffer::Buffer"* align 8 %_13, {}* align 1 %_11)
          to label %bb1 unwind label %cleanup, !dbg !1736

bb4:                                              ; preds = %cleanup
  br i1 false, label %bb3, label %bb2, !dbg !1738

cleanup:                                          ; preds = %start
  %13 = landingpad { i8*, i32 }
          cleanup
  %14 = extractvalue { i8*, i32 } %13, 0
  %15 = extractvalue { i8*, i32 } %13, 1
  %16 = getelementptr inbounds { i8*, i32 }, { i8*, i32 }* %1, i32 0, i32 0
  store i8* %14, i8** %16, align 8
  %17 = getelementptr inbounds { i8*, i32 }, { i8*, i32 }* %1, i32 0, i32 1
  store i32 %15, i32* %17, align 8
  br label %bb4

bb1:                                              ; preds = %start
  ret void, !dbg !1739

bb2:                                              ; preds = %bb3, %bb4
  %18 = bitcast { i8*, i32 }* %1 to i8**, !dbg !1740
  %19 = load i8*, i8** %18, align 8, !dbg !1740
  %20 = getelementptr inbounds { i8*, i32 }, { i8*, i32 }* %1, i32 0, i32 1, !dbg !1740
  %21 = load i32, i32* %20, align 8, !dbg !1740
  %22 = insertvalue { i8*, i32 } undef, i8* %19, 0, !dbg !1740
  %23 = insertvalue { i8*, i32 } %22, i32 %21, 1, !dbg !1740
  resume { i8*, i32 } %23, !dbg !1740

bb3:                                              ; preds = %bb4
; invoke core::ptr::drop_in_place<proc_macro::bridge::rpc::PanicMessage>
  invoke void @"_ZN4core3ptr58drop_in_place$LT$proc_macro..bridge..rpc..PanicMessage$GT$17ha026d0b68f540484E"(%"proc_macro::bridge::rpc::PanicMessage"* %e) #19
          to label %bb2 unwind label %abort, !dbg !1738

abort:                                            ; preds = %bb3
  %24 = landingpad { i8*, i32 }
          cleanup, !dbg !1740
; call core::panicking::panic_no_unwind
  call void @_ZN4core9panicking15panic_no_unwind17h62f8113f44cbfcbfE() #20, !dbg !1740
  unreachable, !dbg !1740
}

; proc_macro::bridge::client::run_client::{{closure}}
; Function Attrs: inlinehint nonlazybind uwtable
define internal void @"_ZN10proc_macro6bridge6client10run_client28_$u7b$$u7b$closure$u7d$$u7d$17hebaacc5d58c41ba4E"(%"[closure@proc_macro::bridge::client::run_client<proc_macro::bridge::client::TokenStream, core::option::Option<proc_macro::bridge::client::TokenStream>, [closure@proc_macro::bridge::client::Client<proc_macro::TokenStream, proc_macro::TokenStream>::expand1<fn(proc_macro::TokenStream) -> proc_macro::TokenStream {f128_inner}>::{closure#0}::{closure#0}]>::{closure#0}]"* %_1) unnamed_addr #0 personality i32 (i32, i32, i64, %"unwind::libunwind::_Unwind_Exception"*, %"unwind::libunwind::_Unwind_Context"*)* @rust_eh_personality !dbg !1741 {
start:
  %dest.dbg.spill = alloca %"proc_macro::bridge::buffer::Buffer"*, align 8
  %self.dbg.spill6 = alloca %"proc_macro::bridge::buffer::Buffer"*, align 8
  %reader.dbg.spill = alloca { [0 x i8]*, i64 }*, align 8
  %slice.dbg.spill = alloca { [0 x i8]*, i64 }, align 8
  %self.dbg.spill5 = alloca { [0 x i8]*, i64 }, align 8
  %metadata.dbg.spill = alloca i64, align 8
  %data_address.dbg.spill = alloca {}*, align 8
  %self.dbg.spill4 = alloca i8*, align 8
  %len.dbg.spill3 = alloca i64, align 8
  %data.dbg.spill2 = alloca i8*, align 8
  %len.dbg.spill = alloca i64, align 8
  %data.dbg.spill = alloca i8*, align 8
  %self.dbg.spill1 = alloca %"proc_macro::bridge::buffer::Buffer"*, align 8
  %0 = alloca { i8*, i32 }, align 8
  %self.dbg.spill = alloca %"core::ops::range::RangeFull", align 1
  %index.dbg.spill = alloca %"core::ops::range::RangeFull", align 1
  %_55 = alloca %"alloc::vec::Vec<u8>", align 8
  %_54 = alloca %"proc_macro::bridge::buffer::Buffer", align 8
  %_47 = alloca { i8*, i64 }, align 8
  %_46 = alloca %"core::ptr::metadata::PtrRepr<[u8]>", align 8
  %_34 = alloca i8, align 1
  %_33 = alloca i8, align 1
  %_26 = alloca %"[closure@proc_macro::bridge::client::run_client<proc_macro::bridge::client::TokenStream, core::option::Option<proc_macro::bridge::client::TokenStream>, [closure@proc_macro::bridge::client::Client<proc_macro::TokenStream, proc_macro::TokenStream>::expand1<fn(proc_macro::TokenStream) -> proc_macro::TokenStream {f128_inner}>::{closure#0}::{closure#0}]>::{closure#0}::{closure#0}]", align 8
  %_24 = alloca %"proc_macro::bridge::ExpnGlobals<proc_macro::bridge::client::Span>", align 4
  %_21 = alloca %"proc_macro::bridge::buffer::Buffer", align 8
  %_20 = alloca %"proc_macro::bridge::client::Bridge", align 8
  %new_state = alloca %"proc_macro::bridge::client::BridgeState", align 8
  %_18 = alloca {}, align 1
  %_14 = alloca { %"proc_macro::bridge::ExpnGlobals<proc_macro::bridge::client::Span>", i32 }, align 4
  %input = alloca i32, align 4
  %globals = alloca %"proc_macro::bridge::ExpnGlobals<proc_macro::bridge::client::Span>", align 4
  %_6 = alloca { [0 x i8]*, i64 }, align 8
  %1 = bitcast %"[closure@proc_macro::bridge::client::run_client<proc_macro::bridge::client::TokenStream, core::option::Option<proc_macro::bridge::client::TokenStream>, [closure@proc_macro::bridge::client::Client<proc_macro::TokenStream, proc_macro::TokenStream>::expand1<fn(proc_macro::TokenStream) -> proc_macro::TokenStream {f128_inner}>::{closure#0}::{closure#0}]>::{closure#0}]"* %_1 to i8**
  %2 = load i8*, i8** %1, align 8, !nonnull !27, !align !608, !noundef !27
  call void @llvm.dbg.declare(metadata %"[closure@proc_macro::bridge::client::run_client<proc_macro::bridge::client::TokenStream, core::option::Option<proc_macro::bridge::client::TokenStream>, [closure@proc_macro::bridge::client::Client<proc_macro::TokenStream, proc_macro::TokenStream>::expand1<fn(proc_macro::TokenStream) -> proc_macro::TokenStream {f128_inner}>::{closure#0}::{closure#0}]>::{closure#0}]"* %_1, metadata !1752, metadata !DIExpression(DW_OP_deref)), !dbg !1763
  %3 = getelementptr inbounds %"[closure@proc_macro::bridge::client::run_client<proc_macro::bridge::client::TokenStream, core::option::Option<proc_macro::bridge::client::TokenStream>, [closure@proc_macro::bridge::client::Client<proc_macro::TokenStream, proc_macro::TokenStream>::expand1<fn(proc_macro::TokenStream) -> proc_macro::TokenStream {f128_inner}>::{closure#0}::{closure#0}]>::{closure#0}]", %"[closure@proc_macro::bridge::client::run_client<proc_macro::bridge::client::TokenStream, core::option::Option<proc_macro::bridge::client::TokenStream>, [closure@proc_macro::bridge::client::Client<proc_macro::TokenStream, proc_macro::TokenStream>::expand1<fn(proc_macro::TokenStream) -> proc_macro::TokenStream {f128_inner}>::{closure#0}::{closure#0}]>::{closure#0}]"* %_1, i32 0, i32 1
  %4 = load %"proc_macro::bridge::buffer::Buffer"*, %"proc_macro::bridge::buffer::Buffer"** %3, align 8, !nonnull !27, !align !1193, !noundef !27
  call void @llvm.dbg.declare(metadata %"[closure@proc_macro::bridge::client::run_client<proc_macro::bridge::client::TokenStream, core::option::Option<proc_macro::bridge::client::TokenStream>, [closure@proc_macro::bridge::client::Client<proc_macro::TokenStream, proc_macro::TokenStream>::expand1<fn(proc_macro::TokenStream) -> proc_macro::TokenStream {f128_inner}>::{closure#0}::{closure#0}]>::{closure#0}]"* %_1, metadata !1753, metadata !DIExpression(DW_OP_plus_uconst, 8, DW_OP_deref)), !dbg !1764
  %5 = getelementptr inbounds %"[closure@proc_macro::bridge::client::run_client<proc_macro::bridge::client::TokenStream, core::option::Option<proc_macro::bridge::client::TokenStream>, [closure@proc_macro::bridge::client::Client<proc_macro::TokenStream, proc_macro::TokenStream>::expand1<fn(proc_macro::TokenStream) -> proc_macro::TokenStream {f128_inner}>::{closure#0}::{closure#0}]>::{closure#0}]", %"[closure@proc_macro::bridge::client::run_client<proc_macro::bridge::client::TokenStream, core::option::Option<proc_macro::bridge::client::TokenStream>, [closure@proc_macro::bridge::client::Client<proc_macro::TokenStream, proc_macro::TokenStream>::expand1<fn(proc_macro::TokenStream) -> proc_macro::TokenStream {f128_inner}>::{closure#0}::{closure#0}]>::{closure#0}]"* %_1, i32 0, i32 2
  call void @llvm.dbg.declare(metadata %"[closure@proc_macro::bridge::client::run_client<proc_macro::bridge::client::TokenStream, core::option::Option<proc_macro::bridge::client::TokenStream>, [closure@proc_macro::bridge::client::Client<proc_macro::TokenStream, proc_macro::TokenStream>::expand1<fn(proc_macro::TokenStream) -> proc_macro::TokenStream {f128_inner}>::{closure#0}::{closure#0}]>::{closure#0}]"* %_1, metadata !1754, metadata !DIExpression(DW_OP_plus_uconst, 16)), !dbg !1765
  %6 = getelementptr inbounds %"[closure@proc_macro::bridge::client::run_client<proc_macro::bridge::client::TokenStream, core::option::Option<proc_macro::bridge::client::TokenStream>, [closure@proc_macro::bridge::client::Client<proc_macro::TokenStream, proc_macro::TokenStream>::expand1<fn(proc_macro::TokenStream) -> proc_macro::TokenStream {f128_inner}>::{closure#0}::{closure#0}]>::{closure#0}]", %"[closure@proc_macro::bridge::client::run_client<proc_macro::bridge::client::TokenStream, core::option::Option<proc_macro::bridge::client::TokenStream>, [closure@proc_macro::bridge::client::Client<proc_macro::TokenStream, proc_macro::TokenStream>::expand1<fn(proc_macro::TokenStream) -> proc_macro::TokenStream {f128_inner}>::{closure#0}::{closure#0}]>::{closure#0}]"* %_1, i32 0, i32 3
  call void @llvm.dbg.declare(metadata %"[closure@proc_macro::bridge::client::run_client<proc_macro::bridge::client::TokenStream, core::option::Option<proc_macro::bridge::client::TokenStream>, [closure@proc_macro::bridge::client::Client<proc_macro::TokenStream, proc_macro::TokenStream>::expand1<fn(proc_macro::TokenStream) -> proc_macro::TokenStream {f128_inner}>::{closure#0}::{closure#0}]>::{closure#0}]"* %_1, metadata !1755, metadata !DIExpression(DW_OP_plus_uconst, 32)), !dbg !1766
  call void @llvm.dbg.declare(metadata %"core::ops::range::RangeFull"* %index.dbg.spill, metadata !1767, metadata !DIExpression()), !dbg !1777
  call void @llvm.dbg.declare(metadata %"proc_macro::bridge::ExpnGlobals<proc_macro::bridge::client::Span>"* %globals, metadata !1758, metadata !DIExpression()), !dbg !1779
  call void @llvm.dbg.declare(metadata i32* %input, metadata !1760, metadata !DIExpression()), !dbg !1780
  call void @llvm.dbg.declare(metadata %"proc_macro::bridge::client::BridgeState"* %new_state, metadata !1761, metadata !DIExpression()), !dbg !1781
  call void @llvm.dbg.declare(metadata %"core::ops::range::RangeFull"* %self.dbg.spill, metadata !1782, metadata !DIExpression()), !dbg !1790
  store i8 1, i8* %_34, align 1, !dbg !1792
  %7 = bitcast %"[closure@proc_macro::bridge::client::run_client<proc_macro::bridge::client::TokenStream, core::option::Option<proc_macro::bridge::client::TokenStream>, [closure@proc_macro::bridge::client::Client<proc_macro::TokenStream, proc_macro::TokenStream>::expand1<fn(proc_macro::TokenStream) -> proc_macro::TokenStream {f128_inner}>::{closure#0}::{closure#0}]>::{closure#0}]"* %_1 to i8**, !dbg !1793
  %_29 = load i8*, i8** %7, align 8, !dbg !1793, !nonnull !27, !align !608, !noundef !27
  %8 = load i8, i8* %_29, align 1, !dbg !1793, !range !759, !noundef !27
  %_3 = trunc i8 %8 to i1, !dbg !1793
; invoke proc_macro::bridge::client::maybe_install_panic_hook
  invoke void @_ZN10proc_macro6bridge6client24maybe_install_panic_hook17hc0c60877daa0e856E(i1 zeroext %_3)
          to label %bb1 unwind label %cleanup, !dbg !1792

bb9:                                              ; preds = %bb6, %bb7, %cleanup
  %9 = load i8, i8* %_34, align 1, !dbg !1794, !range !759, !noundef !27
  %10 = trunc i8 %9 to i1, !dbg !1794
  br i1 %10, label %bb8, label %bb5, !dbg !1794

cleanup:                                          ; preds = %bb2, %bb1, %start
  %11 = landingpad { i8*, i32 }
          cleanup
  %12 = extractvalue { i8*, i32 } %11, 0
  %13 = extractvalue { i8*, i32 } %11, 1
  %14 = getelementptr inbounds { i8*, i32 }, { i8*, i32 }* %0, i32 0, i32 0
  store i8* %12, i8** %14, align 8
  %15 = getelementptr inbounds { i8*, i32 }, { i8*, i32 }* %0, i32 0, i32 1
  store i32 %13, i32* %15, align 8
  br label %bb9

bb1:                                              ; preds = %start
; invoke proc_macro::bridge::symbol::Symbol::invalidate_all
  invoke void @_ZN10proc_macro6bridge6symbol6Symbol14invalidate_all17ha1707764c36a0d84E()
          to label %bb2 unwind label %cleanup, !dbg !1795

bb2:                                              ; preds = %bb1
  %16 = getelementptr inbounds %"[closure@proc_macro::bridge::client::run_client<proc_macro::bridge::client::TokenStream, core::option::Option<proc_macro::bridge::client::TokenStream>, [closure@proc_macro::bridge::client::Client<proc_macro::TokenStream, proc_macro::TokenStream>::expand1<fn(proc_macro::TokenStream) -> proc_macro::TokenStream {f128_inner}>::{closure#0}::{closure#0}]>::{closure#0}]", %"[closure@proc_macro::bridge::client::run_client<proc_macro::bridge::client::TokenStream, core::option::Option<proc_macro::bridge::client::TokenStream>, [closure@proc_macro::bridge::client::Client<proc_macro::TokenStream, proc_macro::TokenStream>::expand1<fn(proc_macro::TokenStream) -> proc_macro::TokenStream {f128_inner}>::{closure#0}::{closure#0}]>::{closure#0}]"* %_1, i32 0, i32 1, !dbg !1778
  %_30 = load %"proc_macro::bridge::buffer::Buffer"*, %"proc_macro::bridge::buffer::Buffer"** %16, align 8, !dbg !1778, !nonnull !27, !align !1193, !noundef !27
  store %"proc_macro::bridge::buffer::Buffer"* %_30, %"proc_macro::bridge::buffer::Buffer"** %self.dbg.spill1, align 8, !dbg !1778
  call void @llvm.dbg.declare(metadata %"proc_macro::bridge::buffer::Buffer"** %self.dbg.spill1, metadata !1796, metadata !DIExpression()), !dbg !1804
  %17 = bitcast %"proc_macro::bridge::buffer::Buffer"* %_30 to i8**, !dbg !1804
  %_36 = load i8*, i8** %17, align 8, !dbg !1804
  store i8* %_36, i8** %data.dbg.spill, align 8, !dbg !1804
  call void @llvm.dbg.declare(metadata i8** %data.dbg.spill, metadata !1805, metadata !DIExpression()), !dbg !1813
  %18 = getelementptr inbounds %"proc_macro::bridge::buffer::Buffer", %"proc_macro::bridge::buffer::Buffer"* %_30, i32 0, i32 1, !dbg !1804
  %len = load i64, i64* %18, align 8, !dbg !1804
  store i64 %len, i64* %len.dbg.spill, align 8, !dbg !1804
  call void @llvm.dbg.declare(metadata i64* %len.dbg.spill, metadata !1809, metadata !DIExpression()), !dbg !1813
  store i8* %_36, i8** %data.dbg.spill2, align 8, !dbg !1813
  call void @llvm.dbg.declare(metadata i8** %data.dbg.spill2, metadata !1815, metadata !DIExpression()), !dbg !1820
  store i64 %len, i64* %len.dbg.spill3, align 8, !dbg !1813
  call void @llvm.dbg.declare(metadata i64* %len.dbg.spill3, metadata !1819, metadata !DIExpression()), !dbg !1820
  store i8* %_36, i8** %self.dbg.spill4, align 8, !dbg !1820
  call void @llvm.dbg.declare(metadata i8** %self.dbg.spill4, metadata !1822, metadata !DIExpression()), !dbg !1826
  %data_address = bitcast i8* %_36 to {}*, !dbg !1826
  store {}* %data_address, {}** %data_address.dbg.spill, align 8, !dbg !1826
  call void @llvm.dbg.declare(metadata {}** %data_address.dbg.spill, metadata !1828, metadata !DIExpression()), !dbg !1833
  store i64 %len, i64* %metadata.dbg.spill, align 8, !dbg !1820
  call void @llvm.dbg.declare(metadata i64* %metadata.dbg.spill, metadata !1832, metadata !DIExpression()), !dbg !1833
  %19 = bitcast { i8*, i64 }* %_47 to {}**, !dbg !1833
  store {}* %data_address, {}** %19, align 8, !dbg !1833
  %20 = getelementptr inbounds { i8*, i64 }, { i8*, i64 }* %_47, i32 0, i32 1, !dbg !1833
  store i64 %len, i64* %20, align 8, !dbg !1833
  %21 = bitcast %"core::ptr::metadata::PtrRepr<[u8]>"* %_46 to { i8*, i64 }*, !dbg !1833
  %22 = getelementptr inbounds { i8*, i64 }, { i8*, i64 }* %_47, i32 0, i32 0, !dbg !1833
  %23 = load i8*, i8** %22, align 8, !dbg !1833
  %24 = getelementptr inbounds { i8*, i64 }, { i8*, i64 }* %_47, i32 0, i32 1, !dbg !1833
  %25 = load i64, i64* %24, align 8, !dbg !1833
  %26 = getelementptr inbounds { i8*, i64 }, { i8*, i64 }* %21, i32 0, i32 0, !dbg !1833
  store i8* %23, i8** %26, align 8, !dbg !1833
  %27 = getelementptr inbounds { i8*, i64 }, { i8*, i64 }* %21, i32 0, i32 1, !dbg !1833
  store i64 %25, i64* %27, align 8, !dbg !1833
  %28 = bitcast %"core::ptr::metadata::PtrRepr<[u8]>"* %_46 to { [0 x i8]*, i64 }*, !dbg !1833
  %29 = getelementptr inbounds { [0 x i8]*, i64 }, { [0 x i8]*, i64 }* %28, i32 0, i32 0, !dbg !1833
  %_39.0 = load [0 x i8]*, [0 x i8]** %29, align 8, !dbg !1833
  %30 = getelementptr inbounds { [0 x i8]*, i64 }, { [0 x i8]*, i64 }* %28, i32 0, i32 1, !dbg !1833
  %_39.1 = load i64, i64* %30, align 8, !dbg !1833
  %31 = getelementptr inbounds { [0 x i8]*, i64 }, { [0 x i8]*, i64 }* %self.dbg.spill5, i32 0, i32 0, !dbg !1778
  store [0 x i8]* %_39.0, [0 x i8]** %31, align 8, !dbg !1778
  %32 = getelementptr inbounds { [0 x i8]*, i64 }, { [0 x i8]*, i64 }* %self.dbg.spill5, i32 0, i32 1, !dbg !1778
  store i64 %_39.1, i64* %32, align 8, !dbg !1778
  call void @llvm.dbg.declare(metadata { [0 x i8]*, i64 }* %self.dbg.spill5, metadata !1774, metadata !DIExpression()), !dbg !1777
  %33 = getelementptr inbounds { [0 x i8]*, i64 }, { [0 x i8]*, i64 }* %slice.dbg.spill, i32 0, i32 0, !dbg !1777
  store [0 x i8]* %_39.0, [0 x i8]** %33, align 8, !dbg !1777
  %34 = getelementptr inbounds { [0 x i8]*, i64 }, { [0 x i8]*, i64 }* %slice.dbg.spill, i32 0, i32 1, !dbg !1777
  store i64 %_39.1, i64* %34, align 8, !dbg !1777
  call void @llvm.dbg.declare(metadata { [0 x i8]*, i64 }* %slice.dbg.spill, metadata !1789, metadata !DIExpression()), !dbg !1790
  %35 = getelementptr inbounds { [0 x i8]*, i64 }, { [0 x i8]*, i64 }* %_6, i32 0, i32 0, !dbg !1835
  store [0 x i8]* %_39.0, [0 x i8]** %35, align 8, !dbg !1835
  %36 = getelementptr inbounds { [0 x i8]*, i64 }, { [0 x i8]*, i64 }* %_6, i32 0, i32 1, !dbg !1835
  store i64 %_39.1, i64* %36, align 8, !dbg !1835
  store { [0 x i8]*, i64 }* %_6, { [0 x i8]*, i64 }** %reader.dbg.spill, align 8, !dbg !1836
  call void @llvm.dbg.declare(metadata { [0 x i8]*, i64 }** %reader.dbg.spill, metadata !1756, metadata !DIExpression()), !dbg !1837
; invoke <(A,B) as proc_macro::bridge::rpc::DecodeMut<S>>::decode
  invoke void @"_ZN77_$LT$$LP$A$C$B$RP$$u20$as$u20$proc_macro..bridge..rpc..DecodeMut$LT$S$GT$$GT$6decode17hd565458767a4d1cdE"({ %"proc_macro::bridge::ExpnGlobals<proc_macro::bridge::client::Span>", i32 }* sret({ %"proc_macro::bridge::ExpnGlobals<proc_macro::bridge::client::Span>", i32 }) %_14, { [0 x i8]*, i64 }* align 8 %_6, {}* align 1 %_18)
          to label %bb3 unwind label %cleanup, !dbg !1838

bb3:                                              ; preds = %bb2
  %37 = bitcast { %"proc_macro::bridge::ExpnGlobals<proc_macro::bridge::client::Span>", i32 }* %_14 to %"proc_macro::bridge::ExpnGlobals<proc_macro::bridge::client::Span>"*, !dbg !1839
  %38 = bitcast %"proc_macro::bridge::ExpnGlobals<proc_macro::bridge::client::Span>"* %globals to i8*, !dbg !1839
  %39 = bitcast %"proc_macro::bridge::ExpnGlobals<proc_macro::bridge::client::Span>"* %37 to i8*, !dbg !1839
  call void @llvm.memcpy.p0i8.p0i8.i64(i8* align 4 %38, i8* align 4 %39, i64 12, i1 false), !dbg !1839
  store i8 1, i8* %_33, align 1, !dbg !1840
  %40 = getelementptr inbounds { %"proc_macro::bridge::ExpnGlobals<proc_macro::bridge::client::Span>", i32 }, { %"proc_macro::bridge::ExpnGlobals<proc_macro::bridge::client::Span>", i32 }* %_14, i32 0, i32 1, !dbg !1840
  %41 = load i32, i32* %40, align 4, !dbg !1840, !range !642, !noundef !27
  store i32 %41, i32* %input, align 4, !dbg !1840
  %42 = getelementptr inbounds %"[closure@proc_macro::bridge::client::run_client<proc_macro::bridge::client::TokenStream, core::option::Option<proc_macro::bridge::client::TokenStream>, [closure@proc_macro::bridge::client::Client<proc_macro::TokenStream, proc_macro::TokenStream>::expand1<fn(proc_macro::TokenStream) -> proc_macro::TokenStream {f128_inner}>::{closure#0}::{closure#0}]>::{closure#0}]", %"[closure@proc_macro::bridge::client::run_client<proc_macro::bridge::client::TokenStream, core::option::Option<proc_macro::bridge::client::TokenStream>, [closure@proc_macro::bridge::client::Client<proc_macro::TokenStream, proc_macro::TokenStream>::expand1<fn(proc_macro::TokenStream) -> proc_macro::TokenStream {f128_inner}>::{closure#0}::{closure#0}]>::{closure#0}]"* %_1, i32 0, i32 1, !dbg !1841
  %_31 = load %"proc_macro::bridge::buffer::Buffer"*, %"proc_macro::bridge::buffer::Buffer"** %42, align 8, !dbg !1841, !nonnull !27, !align !1193, !noundef !27
  store %"proc_macro::bridge::buffer::Buffer"* %_31, %"proc_macro::bridge::buffer::Buffer"** %self.dbg.spill6, align 8, !dbg !1841
  call void @llvm.dbg.declare(metadata %"proc_macro::bridge::buffer::Buffer"** %self.dbg.spill6, metadata !1842, metadata !DIExpression()), !dbg !1846
  store %"proc_macro::bridge::buffer::Buffer"* %_31, %"proc_macro::bridge::buffer::Buffer"** %dest.dbg.spill, align 8, !dbg !1846
  call void @llvm.dbg.declare(metadata %"proc_macro::bridge::buffer::Buffer"** %dest.dbg.spill, metadata !1847, metadata !DIExpression()), !dbg !1851
  %_56.0 = load i8*, i8** getelementptr inbounds ({ i8*, i64 }, { i8*, i64 }* bitcast (<{ [16 x i8] }>* @0 to { i8*, i64 }*), i32 0, i32 0), align 8, !dbg !1853, !nonnull !27, !noundef !27
  %_56.1 = load i64, i64* getelementptr inbounds ({ i8*, i64 }, { i8*, i64 }* bitcast (<{ [16 x i8] }>* @0 to { i8*, i64 }*), i32 0, i32 1), align 8, !dbg !1853
  %43 = bitcast %"alloc::vec::Vec<u8>"* %_55 to { i8*, i64 }*, !dbg !1853
  %44 = getelementptr inbounds { i8*, i64 }, { i8*, i64 }* %43, i32 0, i32 0, !dbg !1853
  store i8* %_56.0, i8** %44, align 8, !dbg !1853
  %45 = getelementptr inbounds { i8*, i64 }, { i8*, i64 }* %43, i32 0, i32 1, !dbg !1853
  store i64 %_56.1, i64* %45, align 8, !dbg !1853
  %46 = getelementptr inbounds %"alloc::vec::Vec<u8>", %"alloc::vec::Vec<u8>"* %_55, i32 0, i32 1, !dbg !1853
  store i64 0, i64* %46, align 8, !dbg !1853
; invoke <proc_macro::bridge::buffer::Buffer as core::convert::From<alloc::vec::Vec<u8>>>::from
  invoke void @"_ZN107_$LT$proc_macro..bridge..buffer..Buffer$u20$as$u20$core..convert..From$LT$alloc..vec..Vec$LT$u8$GT$$GT$$GT$4from17hae087b0765d8b4d8E"(%"proc_macro::bridge::buffer::Buffer"* sret(%"proc_macro::bridge::buffer::Buffer") %_54, %"alloc::vec::Vec<u8>"* %_55)
          to label %bb11 unwind label %cleanup7, !dbg !1860

bb7:                                              ; preds = %cleanup7
  %47 = load i8, i8* %_33, align 1, !dbg !1862, !range !759, !noundef !27
  %48 = trunc i8 %47 to i1, !dbg !1862
  br i1 %48, label %bb6, label %bb9, !dbg !1862

cleanup7:                                         ; preds = %bb10, %bb11, %bb3
  %49 = landingpad { i8*, i32 }
          cleanup
  %50 = extractvalue { i8*, i32 } %49, 0
  %51 = extractvalue { i8*, i32 } %49, 1
  %52 = getelementptr inbounds { i8*, i32 }, { i8*, i32 }* %0, i32 0, i32 0
  store i8* %50, i8** %52, align 8
  %53 = getelementptr inbounds { i8*, i32 }, { i8*, i32 }* %0, i32 0, i32 1
  store i32 %51, i32* %53, align 8
  br label %bb7

bb11:                                             ; preds = %bb3
; invoke core::mem::replace
  invoke void @_ZN4core3mem7replace17haedb1d51e20a5159E(%"proc_macro::bridge::buffer::Buffer"* sret(%"proc_macro::bridge::buffer::Buffer") %_21, %"proc_macro::bridge::buffer::Buffer"* align 8 %_31, %"proc_macro::bridge::buffer::Buffer"* %_54)
          to label %bb10 unwind label %cleanup7, !dbg !1851

bb10:                                             ; preds = %bb11
  %54 = getelementptr inbounds %"[closure@proc_macro::bridge::client::run_client<proc_macro::bridge::client::TokenStream, core::option::Option<proc_macro::bridge::client::TokenStream>, [closure@proc_macro::bridge::client::Client<proc_macro::TokenStream, proc_macro::TokenStream>::expand1<fn(proc_macro::TokenStream) -> proc_macro::TokenStream {f128_inner}>::{closure#0}::{closure#0}]>::{closure#0}]", %"[closure@proc_macro::bridge::client::run_client<proc_macro::bridge::client::TokenStream, core::option::Option<proc_macro::bridge::client::TokenStream>, [closure@proc_macro::bridge::client::Client<proc_macro::TokenStream, proc_macro::TokenStream>::expand1<fn(proc_macro::TokenStream) -> proc_macro::TokenStream {f128_inner}>::{closure#0}::{closure#0}]>::{closure#0}]"* %_1, i32 0, i32 2, !dbg !1863
  %55 = getelementptr inbounds { i64*, i8* }, { i64*, i8* }* %54, i32 0, i32 0, !dbg !1863
  %_23.0 = load i64*, i64** %55, align 8, !dbg !1863, !nonnull !27, !noundef !27
  %56 = getelementptr inbounds { i64*, i8* }, { i64*, i8* }* %54, i32 0, i32 1, !dbg !1863
  %_23.1 = load i8*, i8** %56, align 8, !dbg !1863
  %57 = bitcast %"proc_macro::bridge::ExpnGlobals<proc_macro::bridge::client::Span>"* %_24 to i8*, !dbg !1864
  %58 = bitcast %"proc_macro::bridge::ExpnGlobals<proc_macro::bridge::client::Span>"* %globals to i8*, !dbg !1864
  call void @llvm.memcpy.p0i8.p0i8.i64(i8* align 4 %57, i8* align 4 %58, i64 12, i1 false), !dbg !1864
  %59 = bitcast %"proc_macro::bridge::client::Bridge"* %_20 to %"proc_macro::bridge::buffer::Buffer"*, !dbg !1865
  %60 = bitcast %"proc_macro::bridge::buffer::Buffer"* %59 to i8*, !dbg !1865
  %61 = bitcast %"proc_macro::bridge::buffer::Buffer"* %_21 to i8*, !dbg !1865
  call void @llvm.memcpy.p0i8.p0i8.i64(i8* align 8 %60, i8* align 8 %61, i64 40, i1 false), !dbg !1865
  %62 = getelementptr inbounds %"proc_macro::bridge::client::Bridge", %"proc_macro::bridge::client::Bridge"* %_20, i32 0, i32 1, !dbg !1865
  %63 = getelementptr inbounds { i64*, i8* }, { i64*, i8* }* %62, i32 0, i32 0, !dbg !1865
  store i64* %_23.0, i64** %63, align 8, !dbg !1865
  %64 = getelementptr inbounds { i64*, i8* }, { i64*, i8* }* %62, i32 0, i32 1, !dbg !1865
  store i8* %_23.1, i8** %64, align 8, !dbg !1865
  %65 = getelementptr inbounds %"proc_macro::bridge::client::Bridge", %"proc_macro::bridge::client::Bridge"* %_20, i32 0, i32 2, !dbg !1865
  %66 = bitcast %"proc_macro::bridge::ExpnGlobals<proc_macro::bridge::client::Span>"* %65 to i8*, !dbg !1865
  %67 = bitcast %"proc_macro::bridge::ExpnGlobals<proc_macro::bridge::client::Span>"* %_24 to i8*, !dbg !1865
  call void @llvm.memcpy.p0i8.p0i8.i64(i8* align 8 %66, i8* align 4 %67, i64 12, i1 false), !dbg !1865
  %68 = bitcast %"proc_macro::bridge::client::BridgeState"* %new_state to %"proc_macro::bridge::client::BridgeState::Connected"*, !dbg !1866
  %69 = getelementptr inbounds %"proc_macro::bridge::client::BridgeState::Connected", %"proc_macro::bridge::client::BridgeState::Connected"* %68, i32 0, i32 1, !dbg !1866
  %70 = bitcast %"proc_macro::bridge::client::Bridge"* %69 to i8*, !dbg !1866
  %71 = bitcast %"proc_macro::bridge::client::Bridge"* %_20 to i8*, !dbg !1866
  call void @llvm.memcpy.p0i8.p0i8.i64(i8* align 8 %70, i8* align 8 %71, i64 72, i1 false), !dbg !1866
  %72 = bitcast %"proc_macro::bridge::client::BridgeState"* %new_state to i64*, !dbg !1866
  store i64 1, i64* %72, align 8, !dbg !1866
  %73 = getelementptr inbounds %"[closure@proc_macro::bridge::client::run_client<proc_macro::bridge::client::TokenStream, core::option::Option<proc_macro::bridge::client::TokenStream>, [closure@proc_macro::bridge::client::Client<proc_macro::TokenStream, proc_macro::TokenStream>::expand1<fn(proc_macro::TokenStream) -> proc_macro::TokenStream {f128_inner}>::{closure#0}::{closure#0}]>::{closure#0}]", %"[closure@proc_macro::bridge::client::run_client<proc_macro::bridge::client::TokenStream, core::option::Option<proc_macro::bridge::client::TokenStream>, [closure@proc_macro::bridge::client::Client<proc_macro::TokenStream, proc_macro::TokenStream>::expand1<fn(proc_macro::TokenStream) -> proc_macro::TokenStream {f128_inner}>::{closure#0}::{closure#0}]>::{closure#0}]"* %_1, i32 0, i32 1, !dbg !1867
  %_32 = load %"proc_macro::bridge::buffer::Buffer"*, %"proc_macro::bridge::buffer::Buffer"** %73, align 8, !dbg !1867, !nonnull !27, !align !1193, !noundef !27
  store i8 0, i8* %_34, align 1, !dbg !1867
  store i8 0, i8* %_33, align 1, !dbg !1867
  %74 = bitcast %"[closure@proc_macro::bridge::client::run_client<proc_macro::bridge::client::TokenStream, core::option::Option<proc_macro::bridge::client::TokenStream>, [closure@proc_macro::bridge::client::Client<proc_macro::TokenStream, proc_macro::TokenStream>::expand1<fn(proc_macro::TokenStream) -> proc_macro::TokenStream {f128_inner}>::{closure#0}::{closure#0}]>::{closure#0}::{closure#0}]"* %_26 to %"proc_macro::bridge::client::BridgeState"*, !dbg !1867
  %75 = bitcast %"proc_macro::bridge::client::BridgeState"* %74 to i8*, !dbg !1867
  %76 = bitcast %"proc_macro::bridge::client::BridgeState"* %new_state to i8*, !dbg !1867
  call void @llvm.memcpy.p0i8.p0i8.i64(i8* align 8 %75, i8* align 8 %76, i64 80, i1 false), !dbg !1867
  %77 = getelementptr inbounds %"[closure@proc_macro::bridge::client::run_client<proc_macro::bridge::client::TokenStream, core::option::Option<proc_macro::bridge::client::TokenStream>, [closure@proc_macro::bridge::client::Client<proc_macro::TokenStream, proc_macro::TokenStream>::expand1<fn(proc_macro::TokenStream) -> proc_macro::TokenStream {f128_inner}>::{closure#0}::{closure#0}]>::{closure#0}::{closure#0}]", %"[closure@proc_macro::bridge::client::run_client<proc_macro::bridge::client::TokenStream, core::option::Option<proc_macro::bridge::client::TokenStream>, [closure@proc_macro::bridge::client::Client<proc_macro::TokenStream, proc_macro::TokenStream>::expand1<fn(proc_macro::TokenStream) -> proc_macro::TokenStream {f128_inner}>::{closure#0}::{closure#0}]>::{closure#0}::{closure#0}]"* %_26, i32 0, i32 1, !dbg !1867
