; ModuleID = 'num_traits.ecb74699-cgu.0'
source_filename = "num_traits.ecb74699-cgu.0"
target datalayout = "e-m:e-p270:32:32-p271:32:32-p272:64:64-i64:64-f80:128-n8:16:32:64-S128"
target triple = "x86_64-unknown-linux-gnu"

%"core::iter::adapters::zip::Zip<core::slice::iter::Iter<u8>, core::slice::iter::Iter<u8>>" = type { { i8*, i8* }, { i8*, i8* }, i64, i64, i64 }
%"core::iter::adapters::zip::Zip<core::str::iter::Bytes, core::str::iter::Bytes>" = type { { i8*, i8* }, { i8*, i8* }, i64, i64, i64 }
%"core::option::Option<(u8, u8)>" = type { i8, [2 x i8] }
%"core::ops::control_flow::ControlFlow<(), core::convert::Infallible>::Break" = type { {} }
%"core::ptr::metadata::PtrRepr<[u8]>" = type { [2 x i64] }
%"[closure@<core::ops::range::Range<usize> as core::slice::index::SliceIndex<[u8]>>::get_unchecked::{closure#0}]" = type { i64*, i64*, { [0 x i8]*, i64 }* }
%"core::iter::adapters::enumerate::Enumerate<core::str::iter::Chars>" = type { { i8*, i8* }, i64 }
%"core::option::Option<core::convert::Infallible>::None" = type {}
%"core::panic::location::Location" = type { { [0 x i8]*, i64 }, i32, i32 }
%"core::option::Option<(u8, u8)>::Some" = type { [1 x i8], { i8, i8 } }
%"core::fmt::Formatter" = type { { i64, i64 }, { i64, i64 }, { {}*, [3 x i64]* }, i32, i32, i8, [7 x i8] }
%"[closure@core::f32::<impl f32>::to_bits::{closure#0}]" = type {}
%"[closure@core::f64::<impl f64>::to_bits::{closure#0}]" = type {}
%"core::fmt::Arguments" = type { { [0 x { [0 x i8]*, i64 }]*, i64 }, { i64*, i64 }, { [0 x { i8*, i64* }]*, i64 } }
%"core::num::dec2flt::decimal::Decimal" = type { i64, i32, i8, [768 x i8], [3 x i8] }
%"[closure@core::num::dec2flt::slow::parse_long_mantissa<f32>::{closure#0}]" = type {}
%"[closure@core::num::dec2flt::slow::parse_long_mantissa<f64>::{closure#0}]" = type {}
%"core::option::Option<(f64, usize)>" = type { i64, [2 x i64] }
%"core::option::Option<(f64, usize)>::Some" = type { [1 x i64], { double, i64 } }
%"core::option::Option<(f32, usize)>" = type { i64, [2 x i64] }
%"core::option::Option<(f32, usize)>::Some" = type { [1 x i64], { float, i64 } }
%"core::result::Result<f32, core::num::dec2flt::ParseFloatError>" = type { i8, [7 x i8] }
%"core::result::Result<f64, core::num::dec2flt::ParseFloatError>" = type { i8, [15 x i8] }
%"[closure@<[u8] as core::num::dec2flt::common::ByteSlice>::starts_with_ignore_case::{closure#0}]" = type {}
%"core::num::dec2flt::number::Number" = type { i64, i64, i8, i8, [6 x i8] }
%"core::option::Option<core::num::dec2flt::number::Number>" = type { [16 x i8], i8, [7 x i8] }
%"core::result::Result<f64, core::num::dec2flt::ParseFloatError>::Err" = type { [1 x i8], i8 }
%"core::option::Option<core::num::dec2flt::number::Number>::Some" = type { %"core::num::dec2flt::number::Number" }
%"core::result::Result<f64, core::num::dec2flt::ParseFloatError>::Ok" = type { [1 x i64], double }
%"core::result::Result<f32, core::num::dec2flt::ParseFloatError>::Err" = type { [1 x i8], i8 }
%"core::result::Result<f32, core::num::dec2flt::ParseFloatError>::Ok" = type { [1 x i32], float }
%"core::result::Result<usize, core::num::error::ParseIntError>" = type { i8, [15 x i8] }
%"[closure@/home/calvin/.cargo/registry/src/github.com-1ecc6299db9ec823/num-traits-0.2.19/src/lib.rs:212:41: 212:49]" = type {}
%"[closure@core::iter::traits::iterator::Iterator::all::check<(u8, u8), [closure@/home/calvin/.cargo/registry/src/github.com-1ecc6299db9ec823/num-traits-0.2.19/src/lib.rs:212:41: 212:49]>::{closure#0}]" = type { %"[closure@/home/calvin/.cargo/registry/src/github.com-1ecc6299db9ec823/num-traits-0.2.19/src/lib.rs:212:41: 212:49]" }
%"core::ptr::metadata::PtrComponents<u8>" = type { {}*, {} }
%"core::ptr::metadata::PtrRepr<u8>" = type { [1 x i64] }
%"[closure@<core::str::iter::Chars as core::iter::traits::iterator::Iterator>::next::{closure#0}]" = type {}
%"core::result::Result<f32, ParseFloatError>" = type { i8, [7 x i8] }
%"core::result::Result<f32, ParseFloatError>::Ok" = type { [1 x i32], float }
%"core::result::Result<f32, ParseFloatError>::Err" = type { [1 x i8], i8 }
%"core::result::Result<f64, ParseFloatError>" = type { i8, [15 x i8] }
%"core::result::Result<f64, ParseFloatError>::Ok" = type { [1 x i64], double }
%"core::result::Result<f64, ParseFloatError>::Err" = type { [1 x i8], i8 }
%"core::option::Option<(char, &str)>" = type { i32, [5 x i32] }
%"core::option::Option<(char, &str)>::Some" = type { { i32, [1 x i32], { [0 x i8]*, i64 } } }
%"core::result::Result<usize, core::num::error::ParseIntError>::Ok" = type { [1 x i64], i64 }
%"unwind::libunwind::_Unwind_Exception" = type { i64, void (i32, %"unwind::libunwind::_Unwind_Exception"*)*, [6 x i64] }
%"unwind::libunwind::_Unwind_Context" = type { [0 x i8] }

@alloc6353 = private unnamed_addr constant <{ [91 x i8] }> <{ [91 x i8] c"/rustc/d394408fb38c4de61f765a3ed5189d2731a1da91/library/core/src/iter/adapters/enumerate.rs" }>, align 1
@alloc6354 = private unnamed_addr constant <{ i8*, [16 x i8] }> <{ i8* getelementptr inbounds (<{ [91 x i8] }>, <{ [91 x i8] }>* @alloc6353, i32 0, i32 0, i32 0), [16 x i8] c"[\00\00\00\00\00\00\000\00\00\00\09\00\00\00" }>, align 8
@str.0 = internal constant [28 x i8] c"attempt to add with overflow"
@alloc6184 = private unnamed_addr constant <{ [12 x i8] }> <{ [12 x i8] c"invalid args" }>, align 1
@alloc6185 = private unnamed_addr constant <{ i8*, [8 x i8] }> <{ i8* getelementptr inbounds (<{ [12 x i8] }>, <{ [12 x i8] }>* @alloc6184, i32 0, i32 0, i32 0), [8 x i8] c"\0C\00\00\00\00\00\00\00" }>, align 8
@alloc6395 = private unnamed_addr constant <{}> zeroinitializer, align 8
@alloc6355 = private unnamed_addr constant <{ [75 x i8] }> <{ [75 x i8] c"/rustc/d394408fb38c4de61f765a3ed5189d2731a1da91/library/core/src/fmt/mod.rs" }>, align 1
@alloc6356 = private unnamed_addr constant <{ i8*, [16 x i8] }> <{ i8* getelementptr inbounds (<{ [75 x i8] }>, <{ [75 x i8] }>* @alloc6355, i32 0, i32 0, i32 0), [16 x i8] c"K\00\00\00\00\00\00\00\88\01\00\00\0D\00\00\00" }>, align 8
@0 = private unnamed_addr constant <{ [19 x i8] }> <{ [19 x i8] c"\00\03\06\09\0D\10\13\17\1A\1D!$'+.158;" }>, align 1
@alloc6359 = private unnamed_addr constant <{ [84 x i8] }> <{ [84 x i8] c"/rustc/d394408fb38c4de61f765a3ed5189d2731a1da91/library/core/src/num/dec2flt/slow.rs" }>, align 1
@alloc6360 = private unnamed_addr constant <{ i8*, [16 x i8] }> <{ i8* getelementptr inbounds (<{ [84 x i8] }>, <{ [84 x i8] }>* @alloc6359, i32 0, i32 0, i32 0), [16 x i8] c"T\00\00\00\00\00\00\00!\00\00\00\1D\00\00\00" }>, align 8
@alloc6393 = private unnamed_addr constant <{ [3 x i8] }> <{ [3 x i8] c"nan" }>, align 1
@alloc6389 = private unnamed_addr constant <{ [3 x i8] }> <{ [3 x i8] c"inf" }>, align 1
@alloc6361 = private unnamed_addr constant <{ [86 x i8] }> <{ [86 x i8] c"/rustc/d394408fb38c4de61f765a3ed5189d2731a1da91/library/core/src/num/dec2flt/common.rs" }>, align 1
@alloc6362 = private unnamed_addr constant <{ i8*, [16 x i8] }> <{ i8* getelementptr inbounds (<{ [86 x i8] }>, <{ [86 x i8] }>* @alloc6361, i32 0, i32 0, i32 0), [16 x i8] c"V\00\00\00\00\00\00\000\00\00\00\0A\00\00\00" }>, align 8
@1 = private unnamed_addr constant <{ [128 x i8] }> <{ [128 x i8] c"\01\00\00\00\00\00\00\00\0A\00\00\00\00\00\00\00d\00\00\00\00\00\00\00\E8\03\00\00\00\00\00\00\10'\00\00\00\00\00\00\A0\86\01\00\00\00\00\00@B\0F\00\00\00\00\00\80\96\98\00\00\00\00\00\00\E1\F5\05\00\00\00\00\00\CA\9A;\00\00\00\00\00\E4\0BT\02\00\00\00\00\E8vH\17\00\00\00\00\10\A5\D4\E8\00\00\00\00\A0rN\18\09\00\00\00@z\10\F3Z\00\00\00\80\C6\A4~\8D\03\00" }>, align 8
@alloc6363 = private unnamed_addr constant <{ [86 x i8] }> <{ [86 x i8] c"/rustc/d394408fb38c4de61f765a3ed5189d2731a1da91/library/core/src/num/dec2flt/number.rs" }>, align 1
@alloc6364 = private unnamed_addr constant <{ i8*, [16 x i8] }> <{ i8* getelementptr inbounds (<{ [86 x i8] }>, <{ [86 x i8] }>* @alloc6363, i32 0, i32 0, i32 0), [16 x i8] c"V\00\00\00\00\00\00\00H\00\00\00:\00\00\00" }>, align 8
@alloc6179 = private unnamed_addr constant <{ [40 x i8] }> <{ [40 x i8] c"to_digit: radix is too high (maximum 36)" }>, align 1
@alloc6180 = private unnamed_addr constant <{ i8*, [8 x i8] }> <{ i8* getelementptr inbounds (<{ [40 x i8] }>, <{ [40 x i8] }>* @alloc6179, i32 0, i32 0, i32 0), [8 x i8] c"(\00\00\00\00\00\00\00" }>, align 8
@alloc6365 = private unnamed_addr constant <{ [80 x i8] }> <{ [80 x i8] c"/rustc/d394408fb38c4de61f765a3ed5189d2731a1da91/library/core/src/char/methods.rs" }>, align 1
@alloc6366 = private unnamed_addr constant <{ i8*, [16 x i8] }> <{ i8* getelementptr inbounds (<{ [80 x i8] }>, <{ [80 x i8] }>* @alloc6365, i32 0, i32 0, i32 0), [16 x i8] c"P\00\00\00\00\00\00\00]\01\00\00\0D\00\00\00" }>, align 8
@alloc6166 = private unnamed_addr constant <{ [1 x i8] }> zeroinitializer, align 1
@alloc6369 = private unnamed_addr constant <{ [91 x i8] }> <{ [91 x i8] c"/home/calvin/.cargo/registry/src/github.com-1ecc6299db9ec823/num-traits-0.2.19/src/float.rs" }>, align 1
@alloc6368 = private unnamed_addr constant <{ i8*, [16 x i8] }> <{ i8* getelementptr inbounds (<{ [91 x i8] }>, <{ [91 x i8] }>* @alloc6369, i32 0, i32 0, i32 0), [16 x i8] c"[\00\00\00\00\00\00\00\0B\08\00\00\05\00\00\00" }>, align 8
@str.1 = internal constant [33 x i8] c"attempt to subtract with overflow"
@alloc6370 = private unnamed_addr constant <{ i8*, [16 x i8] }> <{ i8* getelementptr inbounds (<{ [91 x i8] }>, <{ [91 x i8] }>* @alloc6369, i32 0, i32 0, i32 0), [16 x i8] c"[\00\00\00\00\00\00\00\19\08\00\00\05\00\00\00" }>, align 8
@alloc6371 = private unnamed_addr constant <{ [21 x i8] }> <{ [21 x i8] c"invalid float literal" }>, align 1
@alloc6372 = private unnamed_addr constant <{ [36 x i8] }> <{ [36 x i8] c"cannot parse float from empty string" }>, align 1
@alloc6373 = private unnamed_addr constant <{ [7 x i8] }> <{ [7 x i8] c"Invalid" }>, align 1
@alloc6374 = private unnamed_addr constant <{ [5 x i8] }> <{ [5 x i8] c"Empty" }>, align 1
@alloc6375 = private unnamed_addr constant <{ [15 x i8] }> <{ [15 x i8] c"ParseFloatError" }>, align 1
@alloc6376 = private unnamed_addr constant <{ [4 x i8] }> <{ [4 x i8] c"kind" }>, align 1
@vtable.2 = private unnamed_addr constant <{ i8*, [16 x i8], i8* }> <{ i8* bitcast (void (i8**)* @"_ZN4core3ptr51drop_in_place$LT$$RF$num_traits..FloatErrorKind$GT$17h6269996c26482c3bE" to i8*), [16 x i8] c"\08\00\00\00\00\00\00\00\08\00\00\00\00\00\00\00", i8* bitcast (i1 (i8**, %"core::fmt::Formatter"*)* @"_ZN42_$LT$$RF$T$u20$as$u20$core..fmt..Debug$GT$3fmt17h8581425018b943f1E" to i8*) }>, align 8, !dbg !0
@alloc6390 = private unnamed_addr constant <{ [8 x i8] }> <{ [8 x i8] c"infinity" }>, align 1
@alloc6391 = private unnamed_addr constant <{ [4 x i8] }> <{ [4 x i8] c"-inf" }>, align 1
@alloc6392 = private unnamed_addr constant <{ [9 x i8] }> <{ [9 x i8] c"-infinity" }>, align 1
@alloc6394 = private unnamed_addr constant <{ [4 x i8] }> <{ [4 x i8] c"-nan" }>, align 1
@alloc6387 = private unnamed_addr constant <{ [89 x i8] }> <{ [89 x i8] c"/home/calvin/.cargo/registry/src/github.com-1ecc6299db9ec823/num-traits-0.2.19/src/lib.rs" }>, align 1
@alloc6388 = private unnamed_addr constant <{ i8*, [16 x i8] }> <{ i8* getelementptr inbounds (<{ [89 x i8] }>, <{ [89 x i8] }>* @alloc6387, i32 0, i32 0, i32 0), [16 x i8] c"Y\00\00\00\00\00\00\00\88\01\00\00\01\00\00\00" }>, align 8

; <core::iter::adapters::zip::Zip<A,B> as core::iter::traits::iterator::Iterator>::next
; Function Attrs: inlinehint nonlazybind uwtable
define { i8*, i8* } @"_ZN102_$LT$core..iter..adapters..zip..Zip$LT$A$C$B$GT$$u20$as$u20$core..iter..traits..iterator..Iterator$GT$4next17h4a8492ba729d29abE"(%"core::iter::adapters::zip::Zip<core::slice::iter::Iter<u8>, core::slice::iter::Iter<u8>>"* align 8 %self) unnamed_addr #0 !dbg !55 {
start:
  %self.dbg.spill = alloca %"core::iter::adapters::zip::Zip<core::slice::iter::Iter<u8>, core::slice::iter::Iter<u8>>"*, align 8
  store %"core::iter::adapters::zip::Zip<core::slice::iter::Iter<u8>, core::slice::iter::Iter<u8>>"* %self, %"core::iter::adapters::zip::Zip<core::slice::iter::Iter<u8>, core::slice::iter::Iter<u8>>"** %self.dbg.spill, align 8
  call void @llvm.dbg.declare(metadata %"core::iter::adapters::zip::Zip<core::slice::iter::Iter<u8>, core::slice::iter::Iter<u8>>"** %self.dbg.spill, metadata !114, metadata !DIExpression()), !dbg !115
; call <core::iter::adapters::zip::Zip<A,B> as core::iter::adapters::zip::ZipImpl<A,B>>::next
  %0 = call { i8*, i8* } @"_ZN111_$LT$core..iter..adapters..zip..Zip$LT$A$C$B$GT$$u20$as$u20$core..iter..adapters..zip..ZipImpl$LT$A$C$B$GT$$GT$4next17h21390a2de8906e8eE"(%"core::iter::adapters::zip::Zip<core::slice::iter::Iter<u8>, core::slice::iter::Iter<u8>>"* align 8 %self), !dbg !116
  %1 = extractvalue { i8*, i8* } %0, 0, !dbg !116
  %2 = extractvalue { i8*, i8* } %0, 1, !dbg !116
  br label %bb1, !dbg !116

bb1:                                              ; preds = %start
  %3 = insertvalue { i8*, i8* } undef, i8* %1, 0, !dbg !117
  %4 = insertvalue { i8*, i8* } %3, i8* %2, 1, !dbg !117
  ret { i8*, i8* } %4, !dbg !117
}

; <core::iter::adapters::zip::Zip<A,B> as core::iter::traits::iterator::Iterator>::next
; Function Attrs: inlinehint nonlazybind uwtable
define i24 @"_ZN102_$LT$core..iter..adapters..zip..Zip$LT$A$C$B$GT$$u20$as$u20$core..iter..traits..iterator..Iterator$GT$4next17h837551cd9ed82fb3E"(%"core::iter::adapters::zip::Zip<core::str::iter::Bytes, core::str::iter::Bytes>"* align 8 %self) unnamed_addr #0 !dbg !118 {
start:
  %0 = alloca i24, align 4
  %self.dbg.spill = alloca %"core::iter::adapters::zip::Zip<core::str::iter::Bytes, core::str::iter::Bytes>"*, align 8
  %1 = alloca %"core::option::Option<(u8, u8)>", align 1
  store %"core::iter::adapters::zip::Zip<core::str::iter::Bytes, core::str::iter::Bytes>"* %self, %"core::iter::adapters::zip::Zip<core::str::iter::Bytes, core::str::iter::Bytes>"** %self.dbg.spill, align 8
  call void @llvm.dbg.declare(metadata %"core::iter::adapters::zip::Zip<core::str::iter::Bytes, core::str::iter::Bytes>"** %self.dbg.spill, metadata !161, metadata !DIExpression()), !dbg !162
; call <core::iter::adapters::zip::Zip<A,B> as core::iter::adapters::zip::ZipImpl<A,B>>::next
  %2 = call i24 @"_ZN111_$LT$core..iter..adapters..zip..Zip$LT$A$C$B$GT$$u20$as$u20$core..iter..adapters..zip..ZipImpl$LT$A$C$B$GT$$GT$4next17h2465c73547f4a034E"(%"core::iter::adapters::zip::Zip<core::str::iter::Bytes, core::str::iter::Bytes>"* align 8 %self), !dbg !163
  store i24 %2, i24* %0, align 4, !dbg !163
  %3 = bitcast %"core::option::Option<(u8, u8)>"* %1 to i8*, !dbg !163
  %4 = bitcast i24* %0 to i8*, !dbg !163
  call void @llvm.memcpy.p0i8.p0i8.i64(i8* align 1 %3, i8* align 4 %4, i64 3, i1 false), !dbg !163
  br label %bb1, !dbg !163

bb1:                                              ; preds = %start
  %5 = bitcast %"core::option::Option<(u8, u8)>"* %1 to i24*, !dbg !164
  %6 = load i24, i24* %5, align 1, !dbg !164
  ret i24 %6, !dbg !164
}

; <core::iter::adapters::copied::Copied<I> as core::iter::traits::iterator::Iterator>::__iterator_get_unchecked
; Function Attrs: nonlazybind uwtable
define i8 @"_ZN104_$LT$core..iter..adapters..copied..Copied$LT$I$GT$$u20$as$u20$core..iter..traits..iterator..Iterator$GT$24__iterator_get_unchecked17h19dc1639f28d90b1E"({ i8*, i8* }* align 8 %self, i64 %idx) unnamed_addr #1 !dbg !165 {
start:
  %idx.dbg.spill1 = alloca i64, align 8
  %it.dbg.spill = alloca { i8*, i8* }*, align 8
  %idx.dbg.spill = alloca i64, align 8
  %self.dbg.spill = alloca { i8*, i8* }*, align 8
  store { i8*, i8* }* %self, { i8*, i8* }** %self.dbg.spill, align 8
  call void @llvm.dbg.declare(metadata { i8*, i8* }** %self.dbg.spill, metadata !172, metadata !DIExpression()), !dbg !175
  store i64 %idx, i64* %idx.dbg.spill, align 8
  call void @llvm.dbg.declare(metadata i64* %idx.dbg.spill, metadata !173, metadata !DIExpression()), !dbg !176
  store { i8*, i8* }* %self, { i8*, i8* }** %it.dbg.spill, align 8, !dbg !177
  call void @llvm.dbg.declare(metadata { i8*, i8* }** %it.dbg.spill, metadata !178, metadata !DIExpression()), !dbg !186
  store i64 %idx, i64* %idx.dbg.spill1, align 8, !dbg !188
  call void @llvm.dbg.declare(metadata i64* %idx.dbg.spill1, metadata !185, metadata !DIExpression()), !dbg !186
; call <I as core::iter::adapters::zip::SpecTrustedRandomAccess>::try_get_unchecked
  %_3 = call align 1 i8* @"_ZN72_$LT$I$u20$as$u20$core..iter..adapters..zip..SpecTrustedRandomAccess$GT$17try_get_unchecked17h48c4431c05125caeE"({ i8*, i8* }* align 8 %self, i64 %idx), !dbg !186
  br label %bb1, !dbg !186

bb1:                                              ; preds = %start
  %0 = load i8, i8* %_3, align 1, !dbg !189
  ret i8 %0, !dbg !190
}

; <core::iter::adapters::copied::Copied<I> as core::iter::traits::iterator::Iterator>::size_hint
; Function Attrs: nonlazybind uwtable
define void @"_ZN104_$LT$core..iter..adapters..copied..Copied$LT$I$GT$$u20$as$u20$core..iter..traits..iterator..Iterator$GT$9size_hint17h9ed59b6c5a0a8a4aE"({ i64, { i64, i64 } }* sret({ i64, { i64, i64 } }) %0, { i8*, i8* }* align 8 %self) unnamed_addr #1 !dbg !191 {
start:
  %self.dbg.spill = alloca { i8*, i8* }*, align 8
  store { i8*, i8* }* %self, { i8*, i8* }** %self.dbg.spill, align 8
  call void @llvm.dbg.declare(metadata { i8*, i8* }** %self.dbg.spill, metadata !213, metadata !DIExpression()), !dbg !214
; call <core::slice::iter::Iter<T> as core::iter::traits::iterator::Iterator>::size_hint
  call void @"_ZN91_$LT$core..slice..iter..Iter$LT$T$GT$$u20$as$u20$core..iter..traits..iterator..Iterator$GT$9size_hint17h69a171558dec0b6eE"({ i64, { i64, i64 } }* sret({ i64, { i64, i64 } }) %0, { i8*, i8* }* align 8 %self), !dbg !215
  br label %bb1, !dbg !215

bb1:                                              ; preds = %start
  ret void, !dbg !216
}

; <core::ops::control_flow::ControlFlow<B,C> as core::ops::try_trait::FromResidual>::from_residual
; Function Attrs: inlinehint nonlazybind uwtable
define zeroext i1 @"_ZN104_$LT$core..ops..control_flow..ControlFlow$LT$B$C$C$GT$$u20$as$u20$core..ops..try_trait..FromResidual$GT$13from_residual17h1e66e656f3c187b8E"() unnamed_addr #0 !dbg !217 {
start:
  %b.dbg.spill = alloca {}, align 1
  %residual.dbg.spill = alloca %"core::ops::control_flow::ControlFlow<(), core::convert::Infallible>::Break", align 1
  %0 = alloca i8, align 1
  call void @llvm.dbg.declare(metadata %"core::ops::control_flow::ControlFlow<(), core::convert::Infallible>::Break"* %residual.dbg.spill, metadata !259, metadata !DIExpression()), !dbg !262
  call void @llvm.dbg.declare(metadata {}* %b.dbg.spill, metadata !260, metadata !DIExpression()), !dbg !263
  %1 = getelementptr i8, i8* %0, i64 1, !dbg !264
  %2 = bitcast i8* %1 to {}*, !dbg !264
  store i8 1, i8* %0, align 1, !dbg !264
  %3 = load i8, i8* %0, align 1, !dbg !265, !range !266, !noundef !19
  %4 = trunc i8 %3 to i1, !dbg !265
  ret i1 %4, !dbg !265
}

; <core::ops::range::Range<usize> as core::slice::index::SliceIndex<[T]>>::get_unchecked
; Function Attrs: inlinehint nonlazybind uwtable
define { [0 x i8]*, i64 } @"_ZN106_$LT$core..ops..range..Range$LT$usize$GT$$u20$as$u20$core..slice..index..SliceIndex$LT$$u5b$T$u5d$$GT$$GT$13get_unchecked17h027adc00ed696f09E"(i64 %self.0, i64 %self.1, [0 x i8]* %slice.0, i64 %slice.1) unnamed_addr #0 !dbg !267 {
start:
  %metadata.dbg.spill = alloca i64, align 8
  %data_address.dbg.spill = alloca {}*, align 8
  %self.dbg.spill5 = alloca i8*, align 8
  %len.dbg.spill = alloca i64, align 8
  %data.dbg.spill = alloca i8*, align 8
  %0 = alloca i8*, align 8
  %count.dbg.spill4 = alloca i64, align 8
  %self.dbg.spill3 = alloca i8*, align 8
  %count.dbg.spill = alloca i64, align 8
  %self.dbg.spill2 = alloca i8*, align 8
  %self.dbg.spill1 = alloca { [0 x i8]*, i64 }, align 8
  %slice.dbg.spill = alloca { [0 x i8]*, i64 }, align 8
  %self.dbg.spill = alloca { i64, i64 }, align 8
  %_22 = alloca { i8*, i64 }, align 8
  %_21 = alloca %"core::ptr::metadata::PtrRepr<[u8]>", align 8
  %runtime = alloca %"[closure@<core::ops::range::Range<usize> as core::slice::index::SliceIndex<[u8]>>::get_unchecked::{closure#0}]", align 8
  %1 = getelementptr inbounds { i64, i64 }, { i64, i64 }* %self.dbg.spill, i32 0, i32 0
  store i64 %self.0, i64* %1, align 8
  %2 = getelementptr inbounds { i64, i64 }, { i64, i64 }* %self.dbg.spill, i32 0, i32 1
  store i64 %self.1, i64* %2, align 8
  call void @llvm.dbg.declare(metadata { i64, i64 }* %self.dbg.spill, metadata !286, metadata !DIExpression()), !dbg !300
  %3 = getelementptr inbounds { [0 x i8]*, i64 }, { [0 x i8]*, i64 }* %slice.dbg.spill, i32 0, i32 0
  store [0 x i8]* %slice.0, [0 x i8]** %3, align 8
  %4 = getelementptr inbounds { [0 x i8]*, i64 }, { [0 x i8]*, i64 }* %slice.dbg.spill, i32 0, i32 1
  store i64 %slice.1, i64* %4, align 8
  call void @llvm.dbg.declare(metadata { [0 x i8]*, i64 }* %slice.dbg.spill, metadata !287, metadata !DIExpression()), !dbg !301
  call void @llvm.dbg.declare(metadata %"[closure@<core::ops::range::Range<usize> as core::slice::index::SliceIndex<[u8]>>::get_unchecked::{closure#0}]"* %runtime, metadata !288, metadata !DIExpression()), !dbg !302
  %5 = getelementptr inbounds { [0 x i8]*, i64 }, { [0 x i8]*, i64 }* %self.dbg.spill1, i32 0, i32 0, !dbg !303
  store [0 x i8]* %slice.0, [0 x i8]** %5, align 8, !dbg !303
  %6 = getelementptr inbounds { [0 x i8]*, i64 }, { [0 x i8]*, i64 }* %self.dbg.spill1, i32 0, i32 1, !dbg !303
  store i64 %slice.1, i64* %6, align 8, !dbg !303
  call void @llvm.dbg.declare(metadata { [0 x i8]*, i64 }* %self.dbg.spill1, metadata !304, metadata !DIExpression()), !dbg !313
  %self = bitcast [0 x i8]* %slice.0 to i8*, !dbg !313
  store i8* %self, i8** %self.dbg.spill2, align 8, !dbg !313
  call void @llvm.dbg.declare(metadata i8** %self.dbg.spill2, metadata !314, metadata !DIExpression()), !dbg !322
  store i64 %self.0, i64* %count.dbg.spill, align 8, !dbg !323
  call void @llvm.dbg.declare(metadata i64* %count.dbg.spill, metadata !321, metadata !DIExpression()), !dbg !322
  store i8* %self, i8** %self.dbg.spill3, align 8, !dbg !322
  call void @llvm.dbg.declare(metadata i8** %self.dbg.spill3, metadata !324, metadata !DIExpression()), !dbg !332
  store i64 %self.0, i64* %count.dbg.spill4, align 8, !dbg !322
  call void @llvm.dbg.declare(metadata i64* %count.dbg.spill4, metadata !331, metadata !DIExpression()), !dbg !332
  %7 = getelementptr inbounds i8, i8* %self, i64 %self.0, !dbg !332
  store i8* %7, i8** %0, align 8, !dbg !332
  %data = load i8*, i8** %0, align 8, !dbg !332
  store i8* %data, i8** %data.dbg.spill, align 8, !dbg !332
  call void @llvm.dbg.declare(metadata i8** %data.dbg.spill, metadata !334, metadata !DIExpression()), !dbg !342
  br label %bb1, !dbg !332

bb1:                                              ; preds = %start
  %len = sub i64 %self.1, %self.0, !dbg !344
  store i64 %len, i64* %len.dbg.spill, align 8, !dbg !344
  call void @llvm.dbg.declare(metadata i64* %len.dbg.spill, metadata !341, metadata !DIExpression()), !dbg !342
  store i8* %data, i8** %self.dbg.spill5, align 8, !dbg !342
  call void @llvm.dbg.declare(metadata i8** %self.dbg.spill5, metadata !345, metadata !DIExpression()), !dbg !353
  %data_address = bitcast i8* %data to {}*, !dbg !353
  store {}* %data_address, {}** %data_address.dbg.spill, align 8, !dbg !353
  call void @llvm.dbg.declare(metadata {}** %data_address.dbg.spill, metadata !355, metadata !DIExpression()), !dbg !364
  store i64 %len, i64* %metadata.dbg.spill, align 8, !dbg !342
  call void @llvm.dbg.declare(metadata i64* %metadata.dbg.spill, metadata !363, metadata !DIExpression()), !dbg !364
  %8 = bitcast { i8*, i64 }* %_22 to {}**, !dbg !364
  store {}* %data_address, {}** %8, align 8, !dbg !364
  %9 = getelementptr inbounds { i8*, i64 }, { i8*, i64 }* %_22, i32 0, i32 1, !dbg !364
  store i64 %len, i64* %9, align 8, !dbg !364
  %10 = bitcast %"core::ptr::metadata::PtrRepr<[u8]>"* %_21 to { i8*, i64 }*, !dbg !364
  %11 = getelementptr inbounds { i8*, i64 }, { i8*, i64 }* %_22, i32 0, i32 0, !dbg !364
  %12 = load i8*, i8** %11, align 8, !dbg !364
  %13 = getelementptr inbounds { i8*, i64 }, { i8*, i64 }* %_22, i32 0, i32 1, !dbg !364
  %14 = load i64, i64* %13, align 8, !dbg !364
  %15 = getelementptr inbounds { i8*, i64 }, { i8*, i64 }* %10, i32 0, i32 0, !dbg !364
  store i8* %12, i8** %15, align 8, !dbg !364
  %16 = getelementptr inbounds { i8*, i64 }, { i8*, i64 }* %10, i32 0, i32 1, !dbg !364
  store i64 %14, i64* %16, align 8, !dbg !364
  %17 = bitcast %"core::ptr::metadata::PtrRepr<[u8]>"* %_21 to { [0 x i8]*, i64 }*, !dbg !364
  %18 = getelementptr inbounds { [0 x i8]*, i64 }, { [0 x i8]*, i64 }* %17, i32 0, i32 0, !dbg !364
  %19 = load [0 x i8]*, [0 x i8]** %18, align 8, !dbg !364
  %20 = getelementptr inbounds { [0 x i8]*, i64 }, { [0 x i8]*, i64 }* %17, i32 0, i32 1, !dbg !364
  %21 = load i64, i64* %20, align 8, !dbg !364
  %22 = insertvalue { [0 x i8]*, i64 } undef, [0 x i8]* %19, 0, !dbg !366
  %23 = insertvalue { [0 x i8]*, i64 } %22, i64 %21, 1, !dbg !366
  ret { [0 x i8]*, i64 } %23, !dbg !366
}

; <core::iter::adapters::enumerate::Enumerate<I> as core::iter::traits::iterator::Iterator>::next
; Function Attrs: inlinehint nonlazybind uwtable
define { i64, i32 } @"_ZN110_$LT$core..iter..adapters..enumerate..Enumerate$LT$I$GT$$u20$as$u20$core..iter..traits..iterator..Iterator$GT$4next17h8661d2a79e81aa4fE"(%"core::iter::adapters::enumerate::Enumerate<core::str::iter::Chars>"* align 8 %self) unnamed_addr #0 personality i32 (i32, i32, i64, %"unwind::libunwind::_Unwind_Exception"*, %"unwind::libunwind::_Unwind_Context"*)* @rust_eh_personality !dbg !367 {
start:
  %0 = alloca { i8*, i32 }, align 8
  %i.dbg.spill = alloca i64, align 8
  %a.dbg.spill = alloca i32, align 4
  %val.dbg.spill = alloca i32, align 4
  %v.dbg.spill = alloca i32, align 4
  %residual.dbg.spill2 = alloca %"core::option::Option<core::convert::Infallible>::None", align 1
  %residual.dbg.spill = alloca %"core::option::Option<core::convert::Infallible>::None", align 1
  %self.dbg.spill = alloca %"core::iter::adapters::enumerate::Enumerate<core::str::iter::Chars>"*, align 8
  %_12 = alloca { i64, i32 }, align 8
  %self1 = alloca i32, align 4
  %_3 = alloca i32, align 4
  %1 = alloca { i64, i32 }, align 8
  store %"core::iter::adapters::enumerate::Enumerate<core::str::iter::Chars>"* %self, %"core::iter::adapters::enumerate::Enumerate<core::str::iter::Chars>"** %self.dbg.spill, align 8
  call void @llvm.dbg.declare(metadata %"core::iter::adapters::enumerate::Enumerate<core::str::iter::Chars>"** %self.dbg.spill, metadata !403, metadata !DIExpression()), !dbg !424
  call void @llvm.dbg.declare(metadata i32* %self1, metadata !425, metadata !DIExpression()), !dbg !465
  call void @llvm.dbg.declare(metadata %"core::option::Option<core::convert::Infallible>::None"* %residual.dbg.spill, metadata !406, metadata !DIExpression()), !dbg !467
  call void @llvm.dbg.declare(metadata %"core::option::Option<core::convert::Infallible>::None"* %residual.dbg.spill2, metadata !468, metadata !DIExpression()), !dbg !475
  %_5 = bitcast %"core::iter::adapters::enumerate::Enumerate<core::str::iter::Chars>"* %self to { i8*, i8* }*, !dbg !466
; call <core::str::iter::Chars as core::iter::traits::iterator::Iterator>::next
  %2 = call i32 @"_ZN81_$LT$core..str..iter..Chars$u20$as$u20$core..iter..traits..iterator..Iterator$GT$4next17hc2c8c40ef0f18e21E"({ i8*, i8* }* align 8 %_5), !dbg !466, !range !477
  store i32 %2, i32* %self1, align 4, !dbg !466
  br label %bb1, !dbg !466

bb1:                                              ; preds = %start
  %3 = load i32, i32* %self1, align 4, !dbg !465, !range !477, !noundef !19
  %4 = sub i32 %3, 1114112, !dbg !465
  %5 = icmp eq i32 %4, 0, !dbg !465
  %_15 = select i1 %5, i64 0, i64 1, !dbg !465
  switch i64 %_15, label %bb11 [
    i64 0, label %bb10
    i64 1, label %bb12
  ], !dbg !465

bb11:                                             ; preds = %bb1
  unreachable, !dbg !465

bb10:                                             ; preds = %bb1
  store i32 1114112, i32* %_3, align 4, !dbg !465
  br label %bb2, !dbg !465

bb12:                                             ; preds = %bb1
  %v = load i32, i32* %self1, align 4, !dbg !465, !range !478, !noundef !19
  store i32 %v, i32* %v.dbg.spill, align 4, !dbg !465
  call void @llvm.dbg.declare(metadata i32* %v.dbg.spill, metadata !462, metadata !DIExpression()), !dbg !479
  store i32 %v, i32* %_3, align 4, !dbg !479
  br label %bb2, !dbg !465

bb2:                                              ; preds = %bb10, %bb12
  %6 = load i32, i32* %_3, align 4, !dbg !466, !range !477, !noundef !19
  %7 = sub i32 %6, 1114112, !dbg !466
  %8 = icmp eq i32 %7, 0, !dbg !466
  %_6 = select i1 %8, i64 1, i64 0, !dbg !466
  switch i64 %_6, label %bb4 [
    i64 0, label %bb3
    i64 1, label %bb5
  ], !dbg !466

bb4:                                              ; preds = %bb2
  unreachable, !dbg !466

bb3:                                              ; preds = %bb2
  %val = load i32, i32* %_3, align 4, !dbg !466, !range !478, !noundef !19
  store i32 %val, i32* %val.dbg.spill, align 4, !dbg !466
  call void @llvm.dbg.declare(metadata i32* %val.dbg.spill, metadata !420, metadata !DIExpression()), !dbg !480
  store i32 %val, i32* %a.dbg.spill, align 4, !dbg !480
  call void @llvm.dbg.declare(metadata i32* %a.dbg.spill, metadata !404, metadata !DIExpression()), !dbg !481
  %9 = getelementptr inbounds %"core::iter::adapters::enumerate::Enumerate<core::str::iter::Chars>", %"core::iter::adapters::enumerate::Enumerate<core::str::iter::Chars>"* %self, i32 0, i32 1, !dbg !482
  %i = load i64, i64* %9, align 8, !dbg !482
  store i64 %i, i64* %i.dbg.spill, align 8, !dbg !482
  call void @llvm.dbg.declare(metadata i64* %i.dbg.spill, metadata !422, metadata !DIExpression()), !dbg !483
  %10 = getelementptr inbounds %"core::iter::adapters::enumerate::Enumerate<core::str::iter::Chars>", %"core::iter::adapters::enumerate::Enumerate<core::str::iter::Chars>"* %self, i32 0, i32 1, !dbg !484
  %11 = load i64, i64* %10, align 8, !dbg !484
  %12 = call { i64, i1 } @llvm.uadd.with.overflow.i64(i64 %11, i64 1), !dbg !484
  %_11.0 = extractvalue { i64, i1 } %12, 0, !dbg !484
  %_11.1 = extractvalue { i64, i1 } %12, 1, !dbg !484
  %13 = call i1 @llvm.expect.i1(i1 %_11.1, i1 false), !dbg !484
  br i1 %13, label %panic, label %bb6, !dbg !484

bb5:                                              ; preds = %bb2
  %14 = getelementptr inbounds { i64, i32 }, { i64, i32 }* %1, i32 0, i32 1, !dbg !475
  store i32 1114112, i32* %14, align 8, !dbg !475
  br label %bb7, !dbg !485

bb7:                                              ; preds = %bb6, %bb5
  %15 = getelementptr inbounds { i64, i32 }, { i64, i32 }* %1, i32 0, i32 0, !dbg !485
  %16 = load i64, i64* %15, align 8, !dbg !485
  %17 = getelementptr inbounds { i64, i32 }, { i64, i32 }* %1, i32 0, i32 1, !dbg !485
  %18 = load i32, i32* %17, align 8, !dbg !485, !range !477, !noundef !19
  %19 = insertvalue { i64, i32 } undef, i64 %16, 0, !dbg !485
  %20 = insertvalue { i64, i32 } %19, i32 %18, 1, !dbg !485
  ret { i64, i32 } %20, !dbg !485

bb6:                                              ; preds = %bb3
  %21 = getelementptr inbounds %"core::iter::adapters::enumerate::Enumerate<core::str::iter::Chars>", %"core::iter::adapters::enumerate::Enumerate<core::str::iter::Chars>"* %self, i32 0, i32 1, !dbg !484
  store i64 %_11.0, i64* %21, align 8, !dbg !484
  %22 = bitcast { i64, i32 }* %_12 to i64*, !dbg !486
  store i64 %i, i64* %22, align 8, !dbg !486
  %23 = getelementptr inbounds { i64, i32 }, { i64, i32 }* %_12, i32 0, i32 1, !dbg !486
  store i32 %val, i32* %23, align 8, !dbg !486
  %24 = getelementptr inbounds { i64, i32 }, { i64, i32 }* %_12, i32 0, i32 0, !dbg !487
  %25 = load i64, i64* %24, align 8, !dbg !487
  %26 = getelementptr inbounds { i64, i32 }, { i64, i32 }* %_12, i32 0, i32 1, !dbg !487
  %27 = load i32, i32* %26, align 8, !dbg !487, !range !478, !noundef !19
  %28 = getelementptr inbounds { i64, i32 }, { i64, i32 }* %1, i32 0, i32 0, !dbg !487
  store i64 %25, i64* %28, align 8, !dbg !487
  %29 = getelementptr inbounds { i64, i32 }, { i64, i32 }* %1, i32 0, i32 1, !dbg !487
  store i32 %27, i32* %29, align 8, !dbg !487
  br label %bb7, !dbg !485

panic:                                            ; preds = %bb3
; invoke core::panicking::panic
  invoke void @_ZN4core9panicking5panic17hf5844c0338bd061cE([0 x i8]* align 1 bitcast ([28 x i8]* @str.0 to [0 x i8]*), i64 28, %"core::panic::location::Location"* align 8 bitcast (<{ i8*, [16 x i8] }>* @alloc6354 to %"core::panic::location::Location"*)) #7
          to label %unreachable unwind label %cleanup, !dbg !484

bb8:                                              ; preds = %cleanup
  br label %bb9, !dbg !488

cleanup:                                          ; preds = %panic
  %30 = landingpad { i8*, i32 }
          cleanup
  %31 = extractvalue { i8*, i32 } %30, 0
  %32 = extractvalue { i8*, i32 } %30, 1
  %33 = getelementptr inbounds { i8*, i32 }, { i8*, i32 }* %0, i32 0, i32 0
  store i8* %31, i8** %33, align 8
  %34 = getelementptr inbounds { i8*, i32 }, { i8*, i32 }* %0, i32 0, i32 1
  store i32 %32, i32* %34, align 8
  br label %bb8

unreachable:                                      ; preds = %panic
  unreachable

bb9:                                              ; preds = %bb8
  %35 = bitcast { i8*, i32 }* %0 to i8**, !dbg !489
  %36 = load i8*, i8** %35, align 8, !dbg !489
  %37 = getelementptr inbounds { i8*, i32 }, { i8*, i32 }* %0, i32 0, i32 1, !dbg !489
  %38 = load i32, i32* %37, align 8, !dbg !489
  %39 = insertvalue { i8*, i32 } undef, i8* %36, 0, !dbg !489
  %40 = insertvalue { i8*, i32 } %39, i32 %38, 1, !dbg !489
  resume { i8*, i32 } %40, !dbg !489
}

; <core::ops::range::RangeFrom<usize> as core::slice::index::SliceIndex<[T]>>::index
; Function Attrs: inlinehint nonlazybind uwtable
define { [0 x i8]*, i64 } @"_ZN110_$LT$core..ops..range..RangeFrom$LT$usize$GT$$u20$as$u20$core..slice..index..SliceIndex$LT$$u5b$T$u5d$$GT$$GT$5index17hb301fe5216e6dc3bE"(i64 %self, [0 x i8]* align 1 %slice.0, i64 %slice.1, %"core::panic::location::Location"* align 8 %0) unnamed_addr #0 !dbg !490 {
start:
  %ptr.dbg.spill = alloca { [0 x i8]*, i64 }, align 8
  %self.dbg.spill3 = alloca { [0 x i8]*, i64 }, align 8
  %slice.dbg.spill2 = alloca { [0 x i8]*, i64 }, align 8
  %self.dbg.spill1 = alloca i64, align 8
  %slice.dbg.spill = alloca { [0 x i8]*, i64 }, align 8
  %self.dbg.spill = alloca i64, align 8
  %_20 = alloca %"core::ptr::metadata::PtrRepr<[u8]>", align 8
  %_14 = alloca { i64, i64 }, align 8
  store i64 %self, i64* %self.dbg.spill, align 8
  call void @llvm.dbg.declare(metadata i64* %self.dbg.spill, metadata !514, metadata !DIExpression()), !dbg !516
  %1 = getelementptr inbounds { [0 x i8]*, i64 }, { [0 x i8]*, i64 }* %slice.dbg.spill, i32 0, i32 0
  store [0 x i8]* %slice.0, [0 x i8]** %1, align 8
  %2 = getelementptr inbounds { [0 x i8]*, i64 }, { [0 x i8]*, i64 }* %slice.dbg.spill, i32 0, i32 1
  store i64 %slice.1, i64* %2, align 8
  call void @llvm.dbg.declare(metadata { [0 x i8]*, i64 }* %slice.dbg.spill, metadata !515, metadata !DIExpression()), !dbg !517
  %_3 = icmp ugt i64 %self, %slice.1, !dbg !518
  br i1 %_3, label %bb1, label %bb2, !dbg !518

bb2:                                              ; preds = %start
  store i64 %self, i64* %self.dbg.spill1, align 8, !dbg !519
  call void @llvm.dbg.declare(metadata i64* %self.dbg.spill1, metadata !520, metadata !DIExpression()), !dbg !526
  %3 = getelementptr inbounds { [0 x i8]*, i64 }, { [0 x i8]*, i64 }* %slice.dbg.spill2, i32 0, i32 0, !dbg !527
  store [0 x i8]* %slice.0, [0 x i8]** %3, align 8, !dbg !527
  %4 = getelementptr inbounds { [0 x i8]*, i64 }, { [0 x i8]*, i64 }* %slice.dbg.spill2, i32 0, i32 1, !dbg !527
  store i64 %slice.1, i64* %4, align 8, !dbg !527
  call void @llvm.dbg.declare(metadata { [0 x i8]*, i64 }* %slice.dbg.spill2, metadata !525, metadata !DIExpression()), !dbg !526
  %5 = getelementptr inbounds { [0 x i8]*, i64 }, { [0 x i8]*, i64 }* %self.dbg.spill3, i32 0, i32 0, !dbg !526
  store [0 x i8]* %slice.0, [0 x i8]** %5, align 8, !dbg !526
  %6 = getelementptr inbounds { [0 x i8]*, i64 }, { [0 x i8]*, i64 }* %self.dbg.spill3, i32 0, i32 1, !dbg !526
  store i64 %slice.1, i64* %6, align 8, !dbg !526
  call void @llvm.dbg.declare(metadata { [0 x i8]*, i64 }* %self.dbg.spill3, metadata !528, metadata !DIExpression()), !dbg !534
  %7 = getelementptr inbounds { [0 x i8]*, i64 }, { [0 x i8]*, i64 }* %ptr.dbg.spill, i32 0, i32 0, !dbg !534
  store [0 x i8]* %slice.0, [0 x i8]** %7, align 8, !dbg !534
  %8 = getelementptr inbounds { [0 x i8]*, i64 }, { [0 x i8]*, i64 }* %ptr.dbg.spill, i32 0, i32 1, !dbg !534
  store i64 %slice.1, i64* %8, align 8, !dbg !534
  call void @llvm.dbg.declare(metadata { [0 x i8]*, i64 }* %ptr.dbg.spill, metadata !536, metadata !DIExpression()), !dbg !540
  %9 = bitcast %"core::ptr::metadata::PtrRepr<[u8]>"* %_20 to { [0 x i8]*, i64 }*, !dbg !540
  %10 = getelementptr inbounds { [0 x i8]*, i64 }, { [0 x i8]*, i64 }* %9, i32 0, i32 0, !dbg !540
  store [0 x i8]* %slice.0, [0 x i8]** %10, align 8, !dbg !540
  %11 = getelementptr inbounds { [0 x i8]*, i64 }, { [0 x i8]*, i64 }* %9, i32 0, i32 1, !dbg !540
  store i64 %slice.1, i64* %11, align 8, !dbg !540
  %12 = bitcast %"core::ptr::metadata::PtrRepr<[u8]>"* %_20 to { i8*, i64 }*, !dbg !540
  %13 = getelementptr inbounds { i8*, i64 }, { i8*, i64 }* %12, i32 0, i32 1, !dbg !540
  %_16 = load i64, i64* %13, align 8, !dbg !540
  %14 = bitcast { i64, i64 }* %_14 to i64*, !dbg !526
  store i64 %self, i64* %14, align 8, !dbg !526
  %15 = getelementptr inbounds { i64, i64 }, { i64, i64 }* %_14, i32 0, i32 1, !dbg !526
  store i64 %_16, i64* %15, align 8, !dbg !526
  %16 = getelementptr inbounds { i64, i64 }, { i64, i64 }* %_14, i32 0, i32 0, !dbg !526
  %17 = load i64, i64* %16, align 8, !dbg !526
  %18 = getelementptr inbounds { i64, i64 }, { i64, i64 }* %_14, i32 0, i32 1, !dbg !526
  %19 = load i64, i64* %18, align 8, !dbg !526
; call <core::ops::range::Range<usize> as core::slice::index::SliceIndex<[T]>>::get_unchecked
  %20 = call { [0 x i8]*, i64 } @"_ZN106_$LT$core..ops..range..Range$LT$usize$GT$$u20$as$u20$core..slice..index..SliceIndex$LT$$u5b$T$u5d$$GT$$GT$13get_unchecked17h027adc00ed696f09E"(i64 %17, i64 %19, [0 x i8]* %slice.0, i64 %slice.1), !dbg !526
  %_11.0 = extractvalue { [0 x i8]*, i64 } %20, 0, !dbg !526
  %_11.1 = extractvalue { [0 x i8]*, i64 } %20, 1, !dbg !526
  br label %bb3, !dbg !526

bb1:                                              ; preds = %start
; call core::slice::index::slice_start_index_len_fail
  call void @_ZN4core5slice5index26slice_start_index_len_fail17hd34676e4711f38b9E(i64 %self, i64 %slice.1, %"core::panic::location::Location"* align 8 %0) #7, !dbg !542
  unreachable, !dbg !542

bb3:                                              ; preds = %bb2
  %21 = insertvalue { [0 x i8]*, i64 } undef, [0 x i8]* %_11.0, 0, !dbg !543
  %22 = insertvalue { [0 x i8]*, i64 } %21, i64 %_11.1, 1, !dbg !543
  ret { [0 x i8]*, i64 } %22, !dbg !543
}

; <core::iter::adapters::zip::Zip<A,B> as core::iter::adapters::zip::ZipImpl<A,B>>::new
; Function Attrs: nonlazybind uwtable
define void @"_ZN111_$LT$core..iter..adapters..zip..Zip$LT$A$C$B$GT$$u20$as$u20$core..iter..adapters..zip..ZipImpl$LT$A$C$B$GT$$GT$3new17h217811916799bea8E"(%"core::iter::adapters::zip::Zip<core::str::iter::Bytes, core::str::iter::Bytes>"* sret(%"core::iter::adapters::zip::Zip<core::str::iter::Bytes, core::str::iter::Bytes>") %0, i8* %1, i8* %2, i8* %3, i8* %4) unnamed_addr #1 personality i32 (i32, i32, i64, %"unwind::libunwind::_Unwind_Exception"*, %"unwind::libunwind::_Unwind_Context"*)* @rust_eh_personality !dbg !544 {
start:
  %len.dbg.spill = alloca i64, align 8
  %v2.dbg.spill = alloca i64, align 8
  %v1.dbg.spill = alloca i64, align 8
  %a_len.dbg.spill = alloca i64, align 8
  %5 = alloca { i8*, i32 }, align 8
  %b = alloca { i8*, i8* }, align 8
  %a = alloca { i8*, i8* }, align 8
  %6 = getelementptr inbounds { i8*, i8* }, { i8*, i8* }* %a, i32 0, i32 0
  store i8* %1, i8** %6, align 8
  %7 = getelementptr inbounds { i8*, i8* }, { i8*, i8* }* %a, i32 0, i32 1
  store i8* %2, i8** %7, align 8
  %8 = getelementptr inbounds { i8*, i8* }, { i8*, i8* }* %b, i32 0, i32 0
  store i8* %3, i8** %8, align 8
  %9 = getelementptr inbounds { i8*, i8* }, { i8*, i8* }* %b, i32 0, i32 1
  store i8* %4, i8** %9, align 8
  call void @llvm.dbg.declare(metadata { i8*, i8* }* %a, metadata !549, metadata !DIExpression()), !dbg !555
  call void @llvm.dbg.declare(metadata { i8*, i8* }* %b, metadata !550, metadata !DIExpression()), !dbg !556
; invoke core::iter::adapters::zip::TrustedRandomAccessNoCoerce::size
  %a_len = invoke i64 @_ZN4core4iter8adapters3zip27TrustedRandomAccessNoCoerce4size17hcb4ffd2378459e25E({ i8*, i8* }* align 8 %a)
          to label %bb1 unwind label %cleanup, !dbg !557

bb3:                                              ; preds = %cleanup
  br label %bb4, !dbg !558

cleanup:                                          ; preds = %bb2, %bb1, %start
  %10 = landingpad { i8*, i32 }
          cleanup
  %11 = extractvalue { i8*, i32 } %10, 0
  %12 = extractvalue { i8*, i32 } %10, 1
  %13 = getelementptr inbounds { i8*, i32 }, { i8*, i32 }* %5, i32 0, i32 0
  store i8* %11, i8** %13, align 8
  %14 = getelementptr inbounds { i8*, i32 }, { i8*, i32 }* %5, i32 0, i32 1
  store i32 %12, i32* %14, align 8
  br label %bb3

bb1:                                              ; preds = %start
  store i64 %a_len, i64* %a_len.dbg.spill, align 8, !dbg !557
  call void @llvm.dbg.declare(metadata i64* %a_len.dbg.spill, metadata !551, metadata !DIExpression()), !dbg !559
  store i64 %a_len, i64* %v1.dbg.spill, align 8, !dbg !560
  call void @llvm.dbg.declare(metadata i64* %v1.dbg.spill, metadata !561, metadata !DIExpression()), !dbg !569
; invoke core::iter::adapters::zip::TrustedRandomAccessNoCoerce::size
  %v2 = invoke i64 @_ZN4core4iter8adapters3zip27TrustedRandomAccessNoCoerce4size17hcb4ffd2378459e25E({ i8*, i8* }* align 8 %b)
          to label %bb2 unwind label %cleanup, !dbg !571

bb2:                                              ; preds = %bb1
  store i64 %v2, i64* %v2.dbg.spill, align 8, !dbg !571
  call void @llvm.dbg.declare(metadata i64* %v2.dbg.spill, metadata !568, metadata !DIExpression()), !dbg !569
; invoke core::cmp::Ord::min
  %len = invoke i64 @_ZN4core3cmp3Ord3min17hcb69de752336567cE(i64 %a_len, i64 %v2)
          to label %bb6 unwind label %cleanup, !dbg !569

bb6:                                              ; preds = %bb2
  store i64 %len, i64* %len.dbg.spill, align 8, !dbg !569
  call void @llvm.dbg.declare(metadata i64* %len.dbg.spill, metadata !553, metadata !DIExpression()), !dbg !572
  %15 = getelementptr inbounds { i8*, i8* }, { i8*, i8* }* %a, i32 0, i32 0, !dbg !573
  %_9.0 = load i8*, i8** %15, align 8, !dbg !573, !nonnull !19, !noundef !19
  %16 = getelementptr inbounds { i8*, i8* }, { i8*, i8* }* %a, i32 0, i32 1, !dbg !573
  %_9.1 = load i8*, i8** %16, align 8, !dbg !573
  %17 = getelementptr inbounds { i8*, i8* }, { i8*, i8* }* %b, i32 0, i32 0, !dbg !574
  %_10.0 = load i8*, i8** %17, align 8, !dbg !574, !nonnull !19, !noundef !19
  %18 = getelementptr inbounds { i8*, i8* }, { i8*, i8* }* %b, i32 0, i32 1, !dbg !574
  %_10.1 = load i8*, i8** %18, align 8, !dbg !574
  %19 = bitcast %"core::iter::adapters::zip::Zip<core::str::iter::Bytes, core::str::iter::Bytes>"* %0 to { i8*, i8* }*, !dbg !575
  %20 = getelementptr inbounds { i8*, i8* }, { i8*, i8* }* %19, i32 0, i32 0, !dbg !575
  store i8* %_9.0, i8** %20, align 8, !dbg !575
  %21 = getelementptr inbounds { i8*, i8* }, { i8*, i8* }* %19, i32 0, i32 1, !dbg !575
  store i8* %_9.1, i8** %21, align 8, !dbg !575
  %22 = getelementptr inbounds %"core::iter::adapters::zip::Zip<core::str::iter::Bytes, core::str::iter::Bytes>", %"core::iter::adapters::zip::Zip<core::str::iter::Bytes, core::str::iter::Bytes>"* %0, i32 0, i32 1, !dbg !575
  %23 = getelementptr inbounds { i8*, i8* }, { i8*, i8* }* %22, i32 0, i32 0, !dbg !575
  store i8* %_10.0, i8** %23, align 8, !dbg !575
  %24 = getelementptr inbounds { i8*, i8* }, { i8*, i8* }* %22, i32 0, i32 1, !dbg !575
  store i8* %_10.1, i8** %24, align 8, !dbg !575
  %25 = getelementptr inbounds %"core::iter::adapters::zip::Zip<core::str::iter::Bytes, core::str::iter::Bytes>", %"core::iter::adapters::zip::Zip<core::str::iter::Bytes, core::str::iter::Bytes>"* %0, i32 0, i32 2, !dbg !575
  store i64 0, i64* %25, align 8, !dbg !575
  %26 = getelementptr inbounds %"core::iter::adapters::zip::Zip<core::str::iter::Bytes, core::str::iter::Bytes>", %"core::iter::adapters::zip::Zip<core::str::iter::Bytes, core::str::iter::Bytes>"* %0, i32 0, i32 3, !dbg !575
  store i64 %len, i64* %26, align 8, !dbg !575
  %27 = getelementptr inbounds %"core::iter::adapters::zip::Zip<core::str::iter::Bytes, core::str::iter::Bytes>", %"core::iter::adapters::zip::Zip<core::str::iter::Bytes, core::str::iter::Bytes>"* %0, i32 0, i32 4, !dbg !575
  store i64 %a_len, i64* %27, align 8, !dbg !575
  ret void, !dbg !576

bb4:                                              ; preds = %bb3
  br label %bb5, !dbg !558

bb5:                                              ; preds = %bb4
  %28 = bitcast { i8*, i32 }* %5 to i8**, !dbg !577
  %29 = load i8*, i8** %28, align 8, !dbg !577
  %30 = getelementptr inbounds { i8*, i32 }, { i8*, i32 }* %5, i32 0, i32 1, !dbg !577
  %31 = load i32, i32* %30, align 8, !dbg !577
  %32 = insertvalue { i8*, i32 } undef, i8* %29, 0, !dbg !577
  %33 = insertvalue { i8*, i32 } %32, i32 %31, 1, !dbg !577
  resume { i8*, i32 } %33, !dbg !577
}

; <core::iter::adapters::zip::Zip<A,B> as core::iter::adapters::zip::ZipImpl<A,B>>::new
; Function Attrs: nonlazybind uwtable
define void @"_ZN111_$LT$core..iter..adapters..zip..Zip$LT$A$C$B$GT$$u20$as$u20$core..iter..adapters..zip..ZipImpl$LT$A$C$B$GT$$GT$3new17h737ceea019c6f944E"(%"core::iter::adapters::zip::Zip<core::slice::iter::Iter<u8>, core::slice::iter::Iter<u8>>"* sret(%"core::iter::adapters::zip::Zip<core::slice::iter::Iter<u8>, core::slice::iter::Iter<u8>>") %0, i8* %1, i8* %2, i8* %3, i8* %4) unnamed_addr #1 personality i32 (i32, i32, i64, %"unwind::libunwind::_Unwind_Exception"*, %"unwind::libunwind::_Unwind_Context"*)* @rust_eh_personality !dbg !578 {
start:
  %len.dbg.spill = alloca i64, align 8
  %v2.dbg.spill = alloca i64, align 8
  %v1.dbg.spill = alloca i64, align 8
  %a_len.dbg.spill = alloca i64, align 8
  %5 = alloca { i8*, i32 }, align 8
  %b = alloca { i8*, i8* }, align 8
  %a = alloca { i8*, i8* }, align 8
  %6 = getelementptr inbounds { i8*, i8* }, { i8*, i8* }* %a, i32 0, i32 0
  store i8* %1, i8** %6, align 8
  %7 = getelementptr inbounds { i8*, i8* }, { i8*, i8* }* %a, i32 0, i32 1
  store i8* %2, i8** %7, align 8
  %8 = getelementptr inbounds { i8*, i8* }, { i8*, i8* }* %b, i32 0, i32 0
  store i8* %3, i8** %8, align 8
  %9 = getelementptr inbounds { i8*, i8* }, { i8*, i8* }* %b, i32 0, i32 1
  store i8* %4, i8** %9, align 8
  call void @llvm.dbg.declare(metadata { i8*, i8* }* %a, metadata !582, metadata !DIExpression()), !dbg !588
  call void @llvm.dbg.declare(metadata { i8*, i8* }* %b, metadata !583, metadata !DIExpression()), !dbg !589
; invoke core::iter::adapters::zip::TrustedRandomAccessNoCoerce::size
  %a_len = invoke i64 @_ZN4core4iter8adapters3zip27TrustedRandomAccessNoCoerce4size17hab0864515fa45a0fE({ i8*, i8* }* align 8 %a)
          to label %bb1 unwind label %cleanup, !dbg !590

bb3:                                              ; preds = %cleanup
  br label %bb4, !dbg !591

cleanup:                                          ; preds = %bb2, %bb1, %start
  %10 = landingpad { i8*, i32 }
          cleanup
  %11 = extractvalue { i8*, i32 } %10, 0
  %12 = extractvalue { i8*, i32 } %10, 1
  %13 = getelementptr inbounds { i8*, i32 }, { i8*, i32 }* %5, i32 0, i32 0
  store i8* %11, i8** %13, align 8
  %14 = getelementptr inbounds { i8*, i32 }, { i8*, i32 }* %5, i32 0, i32 1
  store i32 %12, i32* %14, align 8
  br label %bb3

bb1:                                              ; preds = %start
  store i64 %a_len, i64* %a_len.dbg.spill, align 8, !dbg !590
  call void @llvm.dbg.declare(metadata i64* %a_len.dbg.spill, metadata !584, metadata !DIExpression()), !dbg !592
  store i64 %a_len, i64* %v1.dbg.spill, align 8, !dbg !593
  call void @llvm.dbg.declare(metadata i64* %v1.dbg.spill, metadata !594, metadata !DIExpression()), !dbg !599
; invoke core::iter::adapters::zip::TrustedRandomAccessNoCoerce::size
  %v2 = invoke i64 @_ZN4core4iter8adapters3zip27TrustedRandomAccessNoCoerce4size17hab0864515fa45a0fE({ i8*, i8* }* align 8 %b)
          to label %bb2 unwind label %cleanup, !dbg !601

bb2:                                              ; preds = %bb1
  store i64 %v2, i64* %v2.dbg.spill, align 8, !dbg !601
  call void @llvm.dbg.declare(metadata i64* %v2.dbg.spill, metadata !598, metadata !DIExpression()), !dbg !599
; invoke core::cmp::Ord::min
  %len = invoke i64 @_ZN4core3cmp3Ord3min17hcb69de752336567cE(i64 %a_len, i64 %v2)
          to label %bb6 unwind label %cleanup, !dbg !599

bb6:                                              ; preds = %bb2
  store i64 %len, i64* %len.dbg.spill, align 8, !dbg !599
  call void @llvm.dbg.declare(metadata i64* %len.dbg.spill, metadata !586, metadata !DIExpression()), !dbg !602
  %15 = getelementptr inbounds { i8*, i8* }, { i8*, i8* }* %a, i32 0, i32 0, !dbg !603
  %_9.0 = load i8*, i8** %15, align 8, !dbg !603, !nonnull !19, !noundef !19
  %16 = getelementptr inbounds { i8*, i8* }, { i8*, i8* }* %a, i32 0, i32 1, !dbg !603
  %_9.1 = load i8*, i8** %16, align 8, !dbg !603
  %17 = getelementptr inbounds { i8*, i8* }, { i8*, i8* }* %b, i32 0, i32 0, !dbg !604
  %_10.0 = load i8*, i8** %17, align 8, !dbg !604, !nonnull !19, !noundef !19
  %18 = getelementptr inbounds { i8*, i8* }, { i8*, i8* }* %b, i32 0, i32 1, !dbg !604
  %_10.1 = load i8*, i8** %18, align 8, !dbg !604
  %19 = bitcast %"core::iter::adapters::zip::Zip<core::slice::iter::Iter<u8>, core::slice::iter::Iter<u8>>"* %0 to { i8*, i8* }*, !dbg !605
  %20 = getelementptr inbounds { i8*, i8* }, { i8*, i8* }* %19, i32 0, i32 0, !dbg !605
  store i8* %_9.0, i8** %20, align 8, !dbg !605
  %21 = getelementptr inbounds { i8*, i8* }, { i8*, i8* }* %19, i32 0, i32 1, !dbg !605
  store i8* %_9.1, i8** %21, align 8, !dbg !605
  %22 = getelementptr inbounds %"core::iter::adapters::zip::Zip<core::slice::iter::Iter<u8>, core::slice::iter::Iter<u8>>", %"core::iter::adapters::zip::Zip<core::slice::iter::Iter<u8>, core::slice::iter::Iter<u8>>"* %0, i32 0, i32 1, !dbg !605
  %23 = getelementptr inbounds { i8*, i8* }, { i8*, i8* }* %22, i32 0, i32 0, !dbg !605
  store i8* %_10.0, i8** %23, align 8, !dbg !605
  %24 = getelementptr inbounds { i8*, i8* }, { i8*, i8* }* %22, i32 0, i32 1, !dbg !605
  store i8* %_10.1, i8** %24, align 8, !dbg !605
  %25 = getelementptr inbounds %"core::iter::adapters::zip::Zip<core::slice::iter::Iter<u8>, core::slice::iter::Iter<u8>>", %"core::iter::adapters::zip::Zip<core::slice::iter::Iter<u8>, core::slice::iter::Iter<u8>>"* %0, i32 0, i32 2, !dbg !605
  store i64 0, i64* %25, align 8, !dbg !605
  %26 = getelementptr inbounds %"core::iter::adapters::zip::Zip<core::slice::iter::Iter<u8>, core::slice::iter::Iter<u8>>", %"core::iter::adapters::zip::Zip<core::slice::iter::Iter<u8>, core::slice::iter::Iter<u8>>"* %0, i32 0, i32 3, !dbg !605
  store i64 %len, i64* %26, align 8, !dbg !605
  %27 = getelementptr inbounds %"core::iter::adapters::zip::Zip<core::slice::iter::Iter<u8>, core::slice::iter::Iter<u8>>", %"core::iter::adapters::zip::Zip<core::slice::iter::Iter<u8>, core::slice::iter::Iter<u8>>"* %0, i32 0, i32 4, !dbg !605
  store i64 %a_len, i64* %27, align 8, !dbg !605
  ret void, !dbg !606

bb4:                                              ; preds = %bb3
  br label %bb5, !dbg !591

bb5:                                              ; preds = %bb4
  %28 = bitcast { i8*, i32 }* %5 to i8**, !dbg !607
  %29 = load i8*, i8** %28, align 8, !dbg !607
  %30 = getelementptr inbounds { i8*, i32 }, { i8*, i32 }* %5, i32 0, i32 1, !dbg !607
  %31 = load i32, i32* %30, align 8, !dbg !607
  %32 = insertvalue { i8*, i32 } undef, i8* %29, 0, !dbg !607
  %33 = insertvalue { i8*, i32 } %32, i32 %31, 1, !dbg !607
  resume { i8*, i32 } %33, !dbg !607
}

; <core::iter::adapters::zip::Zip<A,B> as core::iter::adapters::zip::ZipImpl<A,B>>::next
; Function Attrs: inlinehint nonlazybind uwtable
define { i8*, i8* } @"_ZN111_$LT$core..iter..adapters..zip..Zip$LT$A$C$B$GT$$u20$as$u20$core..iter..adapters..zip..ZipImpl$LT$A$C$B$GT$$GT$4next17h21390a2de8906e8eE"(%"core::iter::adapters::zip::Zip<core::slice::iter::Iter<u8>, core::slice::iter::Iter<u8>>"* align 8 %self) unnamed_addr #0 personality i32 (i32, i32, i64, %"unwind::libunwind::_Unwind_Exception"*, %"unwind::libunwind::_Unwind_Context"*)* @rust_eh_personality !dbg !608 {
start:
  %i.dbg.spill2 = alloca i64, align 8
  %0 = alloca { i8*, i32 }, align 8
  %i.dbg.spill = alloca i64, align 8
  %self.dbg.spill = alloca %"core::iter::adapters::zip::Zip<core::slice::iter::Iter<u8>, core::slice::iter::Iter<u8>>"*, align 8
  %_13 = alloca i8, align 1
  %_6 = alloca { i8*, i8* }, align 8
  %1 = alloca { i8*, i8* }, align 8
  store %"core::iter::adapters::zip::Zip<core::slice::iter::Iter<u8>, core::slice::iter::Iter<u8>>"* %self, %"core::iter::adapters::zip::Zip<core::slice::iter::Iter<u8>, core::slice::iter::Iter<u8>>"** %self.dbg.spill, align 8
  call void @llvm.dbg.declare(metadata %"core::iter::adapters::zip::Zip<core::slice::iter::Iter<u8>, core::slice::iter::Iter<u8>>"** %self.dbg.spill, metadata !610, metadata !DIExpression()), !dbg !615
  %2 = getelementptr inbounds %"core::iter::adapters::zip::Zip<core::slice::iter::Iter<u8>, core::slice::iter::Iter<u8>>", %"core::iter::adapters::zip::Zip<core::slice::iter::Iter<u8>, core::slice::iter::Iter<u8>>"* %self, i32 0, i32 2, !dbg !616
  %_3 = load i64, i64* %2, align 8, !dbg !616
  %3 = getelementptr inbounds %"core::iter::adapters::zip::Zip<core::slice::iter::Iter<u8>, core::slice::iter::Iter<u8>>", %"core::iter::adapters::zip::Zip<core::slice::iter::Iter<u8>, core::slice::iter::Iter<u8>>"* %self, i32 0, i32 3, !dbg !617
  %_4 = load i64, i64* %3, align 8, !dbg !617
  %_2 = icmp ult i64 %_3, %_4, !dbg !616
  br i1 %_2, label %bb1, label %bb4, !dbg !616

bb4:                                              ; preds = %start
  br i1 false, label %bb6, label %bb5, !dbg !618

bb1:                                              ; preds = %start
  %4 = getelementptr inbounds %"core::iter::adapters::zip::Zip<core::slice::iter::Iter<u8>, core::slice::iter::Iter<u8>>", %"core::iter::adapters::zip::Zip<core::slice::iter::Iter<u8>, core::slice::iter::Iter<u8>>"* %self, i32 0, i32 2, !dbg !619
  %i = load i64, i64* %4, align 8, !dbg !619
  store i64 %i, i64* %i.dbg.spill, align 8, !dbg !619
  call void @llvm.dbg.declare(metadata i64* %i.dbg.spill, metadata !611, metadata !DIExpression()), !dbg !620
  %5 = getelementptr inbounds %"core::iter::adapters::zip::Zip<core::slice::iter::Iter<u8>, core::slice::iter::Iter<u8>>", %"core::iter::adapters::zip::Zip<core::slice::iter::Iter<u8>, core::slice::iter::Iter<u8>>"* %self, i32 0, i32 2, !dbg !621
  %6 = getelementptr inbounds %"core::iter::adapters::zip::Zip<core::slice::iter::Iter<u8>, core::slice::iter::Iter<u8>>", %"core::iter::adapters::zip::Zip<core::slice::iter::Iter<u8>, core::slice::iter::Iter<u8>>"* %self, i32 0, i32 2, !dbg !621
  %7 = load i64, i64* %6, align 8, !dbg !621
  %8 = add i64 %7, 1, !dbg !621
  store i64 %8, i64* %5, align 8, !dbg !621
  %_8 = bitcast %"core::iter::adapters::zip::Zip<core::slice::iter::Iter<u8>, core::slice::iter::Iter<u8>>"* %self to { i8*, i8* }*, !dbg !622
; call <core::slice::iter::Iter<T> as core::iter::traits::iterator::Iterator>::__iterator_get_unchecked
  %_7 = call align 1 i8* @"_ZN91_$LT$core..slice..iter..Iter$LT$T$GT$$u20$as$u20$core..iter..traits..iterator..Iterator$GT$24__iterator_get_unchecked17h029f0420f93161dbE"({ i8*, i8* }* align 8 %_8, i64 %i), !dbg !622
  br label %bb2, !dbg !622

bb2:                                              ; preds = %bb1
  %_11 = getelementptr inbounds %"core::iter::adapters::zip::Zip<core::slice::iter::Iter<u8>, core::slice::iter::Iter<u8>>", %"core::iter::adapters::zip::Zip<core::slice::iter::Iter<u8>, core::slice::iter::Iter<u8>>"* %self, i32 0, i32 1, !dbg !623
; invoke <core::slice::iter::Iter<T> as core::iter::traits::iterator::Iterator>::__iterator_get_unchecked
  %_10 = invoke align 1 i8* @"_ZN91_$LT$core..slice..iter..Iter$LT$T$GT$$u20$as$u20$core..iter..traits..iterator..Iterator$GT$24__iterator_get_unchecked17h029f0420f93161dbE"({ i8*, i8* }* align 8 %_11, i64 %i)
          to label %bb3 unwind label %cleanup, !dbg !623

bb14:                                             ; preds = %cleanup
  br label %bb15, !dbg !624

cleanup:                                          ; preds = %bb2
  %9 = landingpad { i8*, i32 }
          cleanup
  %10 = extractvalue { i8*, i32 } %9, 0
  %11 = extractvalue { i8*, i32 } %9, 1
  %12 = getelementptr inbounds { i8*, i32 }, { i8*, i32 }* %0, i32 0, i32 0
  store i8* %10, i8** %12, align 8
  %13 = getelementptr inbounds { i8*, i32 }, { i8*, i32 }* %0, i32 0, i32 1
  store i32 %11, i32* %13, align 8
  br label %bb14

bb3:                                              ; preds = %bb2
  %14 = bitcast { i8*, i8* }* %_6 to i8**, !dbg !625
  store i8* %_7, i8** %14, align 8, !dbg !625
  %15 = getelementptr inbounds { i8*, i8* }, { i8*, i8* }* %_6, i32 0, i32 1, !dbg !625
  store i8* %_10, i8** %15, align 8, !dbg !625
  %16 = getelementptr inbounds { i8*, i8* }, { i8*, i8* }* %_6, i32 0, i32 0, !dbg !626
  %17 = load i8*, i8** %16, align 8, !dbg !626, !nonnull !19, !align !627, !noundef !19
  %18 = getelementptr inbounds { i8*, i8* }, { i8*, i8* }* %_6, i32 0, i32 1, !dbg !626
  %19 = load i8*, i8** %18, align 8, !dbg !626, !nonnull !19, !align !627, !noundef !19
  %20 = getelementptr inbounds { i8*, i8* }, { i8*, i8* }* %1, i32 0, i32 0, !dbg !626
  store i8* %17, i8** %20, align 8, !dbg !626
  %21 = getelementptr inbounds { i8*, i8* }, { i8*, i8* }* %1, i32 0, i32 1, !dbg !626
  store i8* %19, i8** %21, align 8, !dbg !626
  br label %bb13, !dbg !628

bb15:                                             ; preds = %bb14
  %22 = bitcast { i8*, i32 }* %0 to i8**, !dbg !629
  %23 = load i8*, i8** %22, align 8, !dbg !629
  %24 = getelementptr inbounds { i8*, i32 }, { i8*, i32 }* %0, i32 0, i32 1, !dbg !629
  %25 = load i32, i32* %24, align 8, !dbg !629
  %26 = insertvalue { i8*, i32 } undef, i8* %23, 0, !dbg !629
  %27 = insertvalue { i8*, i32 } %26, i32 %25, 1, !dbg !629
  resume { i8*, i32 } %27, !dbg !629

bb13:                                             ; preds = %bb12, %bb3
  %28 = getelementptr inbounds { i8*, i8* }, { i8*, i8* }* %1, i32 0, i32 0, !dbg !630
  %29 = load i8*, i8** %28, align 8, !dbg !630, !align !627
  %30 = getelementptr inbounds { i8*, i8* }, { i8*, i8* }* %1, i32 0, i32 1, !dbg !630
  %31 = load i8*, i8** %30, align 8, !dbg !630
  %32 = insertvalue { i8*, i8* } undef, i8* %29, 0, !dbg !630
  %33 = insertvalue { i8*, i8* } %32, i8* %31, 1, !dbg !630
  ret { i8*, i8* } %33, !dbg !630

bb5:                                              ; preds = %bb4
  store i8 0, i8* %_13, align 1, !dbg !618
  br label %bb7, !dbg !618

bb6:                                              ; preds = %bb4
  %34 = getelementptr inbounds %"core::iter::adapters::zip::Zip<core::slice::iter::Iter<u8>, core::slice::iter::Iter<u8>>", %"core::iter::adapters::zip::Zip<core::slice::iter::Iter<u8>, core::slice::iter::Iter<u8>>"* %self, i32 0, i32 2, !dbg !631
  %_15 = load i64, i64* %34, align 8, !dbg !631
  %35 = getelementptr inbounds %"core::iter::adapters::zip::Zip<core::slice::iter::Iter<u8>, core::slice::iter::Iter<u8>>", %"core::iter::adapters::zip::Zip<core::slice::iter::Iter<u8>, core::slice::iter::Iter<u8>>"* %self, i32 0, i32 4, !dbg !632
  %_16 = load i64, i64* %35, align 8, !dbg !632
  %_14 = icmp ult i64 %_15, %_16, !dbg !631
  %36 = zext i1 %_14 to i8, !dbg !618
  store i8 %36, i8* %_13, align 1, !dbg !618
  br label %bb7, !dbg !618

bb7:                                              ; preds = %bb5, %bb6
  %37 = load i8, i8* %_13, align 1, !dbg !618, !range !266, !noundef !19
  %38 = trunc i8 %37 to i1, !dbg !618
  br i1 %38, label %bb8, label %bb11, !dbg !618

bb11:                                             ; preds = %bb7
  %39 = bitcast { i8*, i8* }* %1 to {}**, !dbg !633
  store {}* null, {}** %39, align 8, !dbg !633
  br label %bb12, !dbg !634

bb8:                                              ; preds = %bb7
  %40 = getelementptr inbounds %"core::iter::adapters::zip::Zip<core::slice::iter::Iter<u8>, core::slice::iter::Iter<u8>>", %"core::iter::adapters::zip::Zip<core::slice::iter::Iter<u8>, core::slice::iter::Iter<u8>>"* %self, i32 0, i32 2, !dbg !635
  %i1 = load i64, i64* %40, align 8, !dbg !635
  store i64 %i1, i64* %i.dbg.spill2, align 8, !dbg !635
  call void @llvm.dbg.declare(metadata i64* %i.dbg.spill2, metadata !613, metadata !DIExpression()), !dbg !636
  %41 = getelementptr inbounds %"core::iter::adapters::zip::Zip<core::slice::iter::Iter<u8>, core::slice::iter::Iter<u8>>", %"core::iter::adapters::zip::Zip<core::slice::iter::Iter<u8>, core::slice::iter::Iter<u8>>"* %self, i32 0, i32 2, !dbg !637
  %42 = getelementptr inbounds %"core::iter::adapters::zip::Zip<core::slice::iter::Iter<u8>, core::slice::iter::Iter<u8>>", %"core::iter::adapters::zip::Zip<core::slice::iter::Iter<u8>, core::slice::iter::Iter<u8>>"* %self, i32 0, i32 2, !dbg !637
  %43 = load i64, i64* %42, align 8, !dbg !637
  %44 = add i64 %43, 1, !dbg !637
  store i64 %44, i64* %41, align 8, !dbg !637
  %45 = getelementptr inbounds %"core::iter::adapters::zip::Zip<core::slice::iter::Iter<u8>, core::slice::iter::Iter<u8>>", %"core::iter::adapters::zip::Zip<core::slice::iter::Iter<u8>, core::slice::iter::Iter<u8>>"* %self, i32 0, i32 3, !dbg !638
  %46 = getelementptr inbounds %"core::iter::adapters::zip::Zip<core::slice::iter::Iter<u8>, core::slice::iter::Iter<u8>>", %"core::iter::adapters::zip::Zip<core::slice::iter::Iter<u8>, core::slice::iter::Iter<u8>>"* %self, i32 0, i32 3, !dbg !638
  %47 = load i64, i64* %46, align 8, !dbg !638
  %48 = add i64 %47, 1, !dbg !638
  store i64 %48, i64* %45, align 8, !dbg !638
  %_19 = bitcast %"core::iter::adapters::zip::Zip<core::slice::iter::Iter<u8>, core::slice::iter::Iter<u8>>"* %self to { i8*, i8* }*, !dbg !639
; call <core::slice::iter::Iter<T> as core::iter::traits::iterator::Iterator>::__iterator_get_unchecked
  %_18 = call align 1 i8* @"_ZN91_$LT$core..slice..iter..Iter$LT$T$GT$$u20$as$u20$core..iter..traits..iterator..Iterator$GT$24__iterator_get_unchecked17h029f0420f93161dbE"({ i8*, i8* }* align 8 %_19, i64 %i1), !dbg !639
  br label %bb9, !dbg !639

bb9:                                              ; preds = %bb8
  br label %bb10, !dbg !640

bb10:                                             ; preds = %bb9
  %49 = bitcast { i8*, i8* }* %1 to {}**, !dbg !641
  store {}* null, {}** %49, align 8, !dbg !641
  br label %bb12, !dbg !634

bb12:                                             ; preds = %bb11, %bb10
  br label %bb13, !dbg !628
}

; <core::iter::adapters::zip::Zip<A,B> as core::iter::adapters::zip::ZipImpl<A,B>>::next
; Function Attrs: inlinehint nonlazybind uwtable
define i24 @"_ZN111_$LT$core..iter..adapters..zip..Zip$LT$A$C$B$GT$$u20$as$u20$core..iter..adapters..zip..ZipImpl$LT$A$C$B$GT$$GT$4next17h2465c73547f4a034E"(%"core::iter::adapters::zip::Zip<core::str::iter::Bytes, core::str::iter::Bytes>"* align 8 %self) unnamed_addr #0 personality i32 (i32, i32, i64, %"unwind::libunwind::_Unwind_Exception"*, %"unwind::libunwind::_Unwind_Context"*)* @rust_eh_personality !dbg !642 {
start:
  %i.dbg.spill2 = alloca i64, align 8
  %0 = alloca { i8*, i32 }, align 8
  %i.dbg.spill = alloca i64, align 8
  %self.dbg.spill = alloca %"core::iter::adapters::zip::Zip<core::str::iter::Bytes, core::str::iter::Bytes>"*, align 8
  %_13 = alloca i8, align 1
  %_6 = alloca { i8, i8 }, align 1
  %1 = alloca %"core::option::Option<(u8, u8)>", align 1
  store %"core::iter::adapters::zip::Zip<core::str::iter::Bytes, core::str::iter::Bytes>"* %self, %"core::iter::adapters::zip::Zip<core::str::iter::Bytes, core::str::iter::Bytes>"** %self.dbg.spill, align 8
  call void @llvm.dbg.declare(metadata %"core::iter::adapters::zip::Zip<core::str::iter::Bytes, core::str::iter::Bytes>"** %self.dbg.spill, metadata !644, metadata !DIExpression()), !dbg !649
  %2 = getelementptr inbounds %"core::iter::adapters::zip::Zip<core::str::iter::Bytes, core::str::iter::Bytes>", %"core::iter::adapters::zip::Zip<core::str::iter::Bytes, core::str::iter::Bytes>"* %self, i32 0, i32 2, !dbg !650
  %_3 = load i64, i64* %2, align 8, !dbg !650
  %3 = getelementptr inbounds %"core::iter::adapters::zip::Zip<core::str::iter::Bytes, core::str::iter::Bytes>", %"core::iter::adapters::zip::Zip<core::str::iter::Bytes, core::str::iter::Bytes>"* %self, i32 0, i32 3, !dbg !651
  %_4 = load i64, i64* %3, align 8, !dbg !651
  %_2 = icmp ult i64 %_3, %_4, !dbg !650
  br i1 %_2, label %bb1, label %bb4, !dbg !650

bb4:                                              ; preds = %start
  br i1 false, label %bb6, label %bb5, !dbg !652

bb1:                                              ; preds = %start
  %4 = getelementptr inbounds %"core::iter::adapters::zip::Zip<core::str::iter::Bytes, core::str::iter::Bytes>", %"core::iter::adapters::zip::Zip<core::str::iter::Bytes, core::str::iter::Bytes>"* %self, i32 0, i32 2, !dbg !653
  %i = load i64, i64* %4, align 8, !dbg !653
  store i64 %i, i64* %i.dbg.spill, align 8, !dbg !653
  call void @llvm.dbg.declare(metadata i64* %i.dbg.spill, metadata !645, metadata !DIExpression()), !dbg !654
  %5 = getelementptr inbounds %"core::iter::adapters::zip::Zip<core::str::iter::Bytes, core::str::iter::Bytes>", %"core::iter::adapters::zip::Zip<core::str::iter::Bytes, core::str::iter::Bytes>"* %self, i32 0, i32 2, !dbg !655
  %6 = getelementptr inbounds %"core::iter::adapters::zip::Zip<core::str::iter::Bytes, core::str::iter::Bytes>", %"core::iter::adapters::zip::Zip<core::str::iter::Bytes, core::str::iter::Bytes>"* %self, i32 0, i32 2, !dbg !655
  %7 = load i64, i64* %6, align 8, !dbg !655
  %8 = add i64 %7, 1, !dbg !655
  store i64 %8, i64* %5, align 8, !dbg !655
  %_8 = bitcast %"core::iter::adapters::zip::Zip<core::str::iter::Bytes, core::str::iter::Bytes>"* %self to { i8*, i8* }*, !dbg !656
; call <core::str::iter::Bytes as core::iter::traits::iterator::Iterator>::__iterator_get_unchecked
  %_7 = call i8 @"_ZN81_$LT$core..str..iter..Bytes$u20$as$u20$core..iter..traits..iterator..Iterator$GT$24__iterator_get_unchecked17h3121124e48e5ceddE"({ i8*, i8* }* align 8 %_8, i64 %i), !dbg !656
  br label %bb2, !dbg !656

bb2:                                              ; preds = %bb1
  %_11 = getelementptr inbounds %"core::iter::adapters::zip::Zip<core::str::iter::Bytes, core::str::iter::Bytes>", %"core::iter::adapters::zip::Zip<core::str::iter::Bytes, core::str::iter::Bytes>"* %self, i32 0, i32 1, !dbg !657
; invoke <core::str::iter::Bytes as core::iter::traits::iterator::Iterator>::__iterator_get_unchecked
  %_10 = invoke i8 @"_ZN81_$LT$core..str..iter..Bytes$u20$as$u20$core..iter..traits..iterator..Iterator$GT$24__iterator_get_unchecked17h3121124e48e5ceddE"({ i8*, i8* }* align 8 %_11, i64 %i)
          to label %bb3 unwind label %cleanup, !dbg !657

bb14:                                             ; preds = %cleanup
  br label %bb15, !dbg !658

cleanup:                                          ; preds = %bb2
  %9 = landingpad { i8*, i32 }
          cleanup
  %10 = extractvalue { i8*, i32 } %9, 0
  %11 = extractvalue { i8*, i32 } %9, 1
  %12 = getelementptr inbounds { i8*, i32 }, { i8*, i32 }* %0, i32 0, i32 0
  store i8* %10, i8** %12, align 8
  %13 = getelementptr inbounds { i8*, i32 }, { i8*, i32 }* %0, i32 0, i32 1
  store i32 %11, i32* %13, align 8
  br label %bb14

bb3:                                              ; preds = %bb2
  %14 = bitcast { i8, i8 }* %_6 to i8*, !dbg !659
  store i8 %_7, i8* %14, align 1, !dbg !659
  %15 = getelementptr inbounds { i8, i8 }, { i8, i8 }* %_6, i32 0, i32 1, !dbg !659
  store i8 %_10, i8* %15, align 1, !dbg !659
  %16 = bitcast %"core::option::Option<(u8, u8)>"* %1 to %"core::option::Option<(u8, u8)>::Some"*, !dbg !660
  %17 = getelementptr inbounds %"core::option::Option<(u8, u8)>::Some", %"core::option::Option<(u8, u8)>::Some"* %16, i32 0, i32 1, !dbg !660
  %18 = getelementptr inbounds { i8, i8 }, { i8, i8 }* %_6, i32 0, i32 0, !dbg !660
  %19 = load i8, i8* %18, align 1, !dbg !660
  %20 = getelementptr inbounds { i8, i8 }, { i8, i8 }* %_6, i32 0, i32 1, !dbg !660
  %21 = load i8, i8* %20, align 1, !dbg !660
  %22 = getelementptr inbounds { i8, i8 }, { i8, i8 }* %17, i32 0, i32 0, !dbg !660
  store i8 %19, i8* %22, align 1, !dbg !660
  %23 = getelementptr inbounds { i8, i8 }, { i8, i8 }* %17, i32 0, i32 1, !dbg !660
  store i8 %21, i8* %23, align 1, !dbg !660
  %24 = bitcast %"core::option::Option<(u8, u8)>"* %1 to i8*, !dbg !660
  store i8 1, i8* %24, align 1, !dbg !660
  br label %bb13, !dbg !661

bb15:                                             ; preds = %bb14
  %25 = bitcast { i8*, i32 }* %0 to i8**, !dbg !662
  %26 = load i8*, i8** %25, align 8, !dbg !662
  %27 = getelementptr inbounds { i8*, i32 }, { i8*, i32 }* %0, i32 0, i32 1, !dbg !662
  %28 = load i32, i32* %27, align 8, !dbg !662
  %29 = insertvalue { i8*, i32 } undef, i8* %26, 0, !dbg !662
  %30 = insertvalue { i8*, i32 } %29, i32 %28, 1, !dbg !662
  resume { i8*, i32 } %30, !dbg !662

bb13:                                             ; preds = %bb12, %bb3
  %31 = bitcast %"core::option::Option<(u8, u8)>"* %1 to i24*, !dbg !663
  %32 = load i24, i24* %31, align 1, !dbg !663
  ret i24 %32, !dbg !663

bb5:                                              ; preds = %bb4
  store i8 0, i8* %_13, align 1, !dbg !652
  br label %bb7, !dbg !652

bb6:                                              ; preds = %bb4
  %33 = getelementptr inbounds %"core::iter::adapters::zip::Zip<core::str::iter::Bytes, core::str::iter::Bytes>", %"core::iter::adapters::zip::Zip<core::str::iter::Bytes, core::str::iter::Bytes>"* %self, i32 0, i32 2, !dbg !664
  %_15 = load i64, i64* %33, align 8, !dbg !664
  %34 = getelementptr inbounds %"core::iter::adapters::zip::Zip<core::str::iter::Bytes, core::str::iter::Bytes>", %"core::iter::adapters::zip::Zip<core::str::iter::Bytes, core::str::iter::Bytes>"* %self, i32 0, i32 4, !dbg !665
  %_16 = load i64, i64* %34, align 8, !dbg !665
  %_14 = icmp ult i64 %_15, %_16, !dbg !664
  %35 = zext i1 %_14 to i8, !dbg !652
  store i8 %35, i8* %_13, align 1, !dbg !652
  br label %bb7, !dbg !652

bb7:                                              ; preds = %bb5, %bb6
  %36 = load i8, i8* %_13, align 1, !dbg !652, !range !266, !noundef !19
  %37 = trunc i8 %36 to i1, !dbg !652
  br i1 %37, label %bb8, label %bb11, !dbg !652

bb11:                                             ; preds = %bb7
  %38 = bitcast %"core::option::Option<(u8, u8)>"* %1 to i8*, !dbg !666
  store i8 0, i8* %38, align 1, !dbg !666
  br label %bb12, !dbg !667

bb8:                                              ; preds = %bb7
  %39 = getelementptr inbounds %"core::iter::adapters::zip::Zip<core::str::iter::Bytes, core::str::iter::Bytes>", %"core::iter::adapters::zip::Zip<core::str::iter::Bytes, core::str::iter::Bytes>"* %self, i32 0, i32 2, !dbg !668
  %i1 = load i64, i64* %39, align 8, !dbg !668
  store i64 %i1, i64* %i.dbg.spill2, align 8, !dbg !668
  call void @llvm.dbg.declare(metadata i64* %i.dbg.spill2, metadata !647, metadata !DIExpression()), !dbg !669
  %40 = getelementptr inbounds %"core::iter::adapters::zip::Zip<core::str::iter::Bytes, core::str::iter::Bytes>", %"core::iter::adapters::zip::Zip<core::str::iter::Bytes, core::str::iter::Bytes>"* %self, i32 0, i32 2, !dbg !670
  %41 = getelementptr inbounds %"core::iter::adapters::zip::Zip<core::str::iter::Bytes, core::str::iter::Bytes>", %"core::iter::adapters::zip::Zip<core::str::iter::Bytes, core::str::iter::Bytes>"* %self, i32 0, i32 2, !dbg !670
  %42 = load i64, i64* %41, align 8, !dbg !670
  %43 = add i64 %42, 1, !dbg !670
  store i64 %43, i64* %40, align 8, !dbg !670
  %44 = getelementptr inbounds %"core::iter::adapters::zip::Zip<core::str::iter::Bytes, core::str::iter::Bytes>", %"core::iter::adapters::zip::Zip<core::str::iter::Bytes, core::str::iter::Bytes>"* %self, i32 0, i32 3, !dbg !671
  %45 = getelementptr inbounds %"core::iter::adapters::zip::Zip<core::str::iter::Bytes, core::str::iter::Bytes>", %"core::iter::adapters::zip::Zip<core::str::iter::Bytes, core::str::iter::Bytes>"* %self, i32 0, i32 3, !dbg !671
  %46 = load i64, i64* %45, align 8, !dbg !671
  %47 = add i64 %46, 1, !dbg !671
  store i64 %47, i64* %44, align 8, !dbg !671
  %_19 = bitcast %"core::iter::adapters::zip::Zip<core::str::iter::Bytes, core::str::iter::Bytes>"* %self to { i8*, i8* }*, !dbg !672
; call <core::str::iter::Bytes as core::iter::traits::iterator::Iterator>::__iterator_get_unchecked
  %_18 = call i8 @"_ZN81_$LT$core..str..iter..Bytes$u20$as$u20$core..iter..traits..iterator..Iterator$GT$24__iterator_get_unchecked17h3121124e48e5ceddE"({ i8*, i8* }* align 8 %_19, i64 %i1), !dbg !672
  br label %bb9, !dbg !672

bb9:                                              ; preds = %bb8
  br label %bb10, !dbg !673

bb10:                                             ; preds = %bb9
  %48 = bitcast %"core::option::Option<(u8, u8)>"* %1 to i8*, !dbg !674
  store i8 0, i8* %48, align 1, !dbg !674
  br label %bb12, !dbg !667

bb12:                                             ; preds = %bb11, %bb10
  br label %bb13, !dbg !661
}

; std::f32::<impl f32>::powi
; Function Attrs: inlinehint nonlazybind uwtable
define internal float @"_ZN3std3f3221_$LT$impl$u20$f32$GT$4powi17hb7e08f9d89fee4c8E"(float %self, i32 %n) unnamed_addr #0 !dbg !675 {
start:
  %0 = alloca float, align 4
  %n.dbg.spill = alloca i32, align 4
  %self.dbg.spill = alloca float, align 4
  store float %self, float* %self.dbg.spill, align 4
  call void @llvm.dbg.declare(metadata float* %self.dbg.spill, metadata !685, metadata !DIExpression()), !dbg !687
  store i32 %n, i32* %n.dbg.spill, align 4
  call void @llvm.dbg.declare(metadata i32* %n.dbg.spill, metadata !686, metadata !DIExpression()), !dbg !688
  %1 = call float @llvm.powi.f32.i32(float %self, i32 %n), !dbg !689
  store float %1, float* %0, align 4, !dbg !689
  %2 = load float, float* %0, align 4, !dbg !689
  br label %bb1, !dbg !689

bb1:                                              ; preds = %start
  ret float %2, !dbg !690
}

; std::f64::<impl f64>::powi
; Function Attrs: inlinehint nonlazybind uwtable
define internal double @"_ZN3std3f6421_$LT$impl$u20$f64$GT$4powi17h7a90dd3638f61957E"(double %self, i32 %n) unnamed_addr #0 !dbg !691 {
start:
  %0 = alloca double, align 8
  %n.dbg.spill = alloca i32, align 4
  %self.dbg.spill = alloca double, align 8
  store double %self, double* %self.dbg.spill, align 8
  call void @llvm.dbg.declare(metadata double* %self.dbg.spill, metadata !699, metadata !DIExpression()), !dbg !701
  store i32 %n, i32* %n.dbg.spill, align 4
  call void @llvm.dbg.declare(metadata i32* %n.dbg.spill, metadata !700, metadata !DIExpression()), !dbg !702
  %1 = call double @llvm.powi.f64.i32(double %self, i32 %n), !dbg !703
  store double %1, double* %0, align 8, !dbg !703
  %2 = load double, double* %0, align 8, !dbg !703
  br label %bb1, !dbg !703

bb1:                                              ; preds = %start
  ret double %2, !dbg !704
}

; <&T as core::fmt::Debug>::fmt
; Function Attrs: nonlazybind uwtable
define zeroext i1 @"_ZN42_$LT$$RF$T$u20$as$u20$core..fmt..Debug$GT$3fmt17h8581425018b943f1E"(i8** align 8 %self, %"core::fmt::Formatter"* align 8 %f) unnamed_addr #1 !dbg !705 {
start:
  %f.dbg.spill = alloca %"core::fmt::Formatter"*, align 8
  %self.dbg.spill = alloca i8**, align 8
  store i8** %self, i8*** %self.dbg.spill, align 8
  call void @llvm.dbg.declare(metadata i8*** %self.dbg.spill, metadata !749, metadata !DIExpression()), !dbg !753
  store %"core::fmt::Formatter"* %f, %"core::fmt::Formatter"** %f.dbg.spill, align 8
  call void @llvm.dbg.declare(metadata %"core::fmt::Formatter"** %f.dbg.spill, metadata !750, metadata !DIExpression()), !dbg !754
  %_6 = load i8*, i8** %self, align 8, !dbg !755, !nonnull !19, !align !627, !noundef !19
; call <num_traits::FloatErrorKind as core::fmt::Debug>::fmt
  %0 = call zeroext i1 @"_ZN63_$LT$num_traits..FloatErrorKind$u20$as$u20$core..fmt..Debug$GT$3fmt17h4a8ab705b67ee6caE"(i8* align 1 %_6, %"core::fmt::Formatter"* align 8 %f), !dbg !756
  br label %bb1, !dbg !756

bb1:                                              ; preds = %start
  ret i1 %0, !dbg !757
}

; <f32 as core::ops::arith::Div>::div
; Function Attrs: inlinehint nonlazybind uwtable
define internal float @"_ZN45_$LT$f32$u20$as$u20$core..ops..arith..Div$GT$3div17h486d2693cf3cae96E"(float %self, float %other) unnamed_addr #0 !dbg !758 {
start:
  %other.dbg.spill = alloca float, align 4
  %self.dbg.spill = alloca float, align 4
  store float %self, float* %self.dbg.spill, align 4
  call void @llvm.dbg.declare(metadata float* %self.dbg.spill, metadata !765, metadata !DIExpression()), !dbg !767
  store float %other, float* %other.dbg.spill, align 4
  call void @llvm.dbg.declare(metadata float* %other.dbg.spill, metadata !766, metadata !DIExpression()), !dbg !768
  %0 = fdiv float %self, %other, !dbg !769
  ret float %0, !dbg !770
}

; <f32 as core::ops::arith::Mul>::mul
; Function Attrs: inlinehint nonlazybind uwtable
define internal float @"_ZN45_$LT$f32$u20$as$u20$core..ops..arith..Mul$GT$3mul17h76b1e3c0dcee3a2eE"(float %self, float %other) unnamed_addr #0 !dbg !771 {
start:
  %other.dbg.spill = alloca float, align 4
  %self.dbg.spill = alloca float, align 4
  store float %self, float* %self.dbg.spill, align 4
  call void @llvm.dbg.declare(metadata float* %self.dbg.spill, metadata !774, metadata !DIExpression()), !dbg !776
  store float %other, float* %other.dbg.spill, align 4
  call void @llvm.dbg.declare(metadata float* %other.dbg.spill, metadata !775, metadata !DIExpression()), !dbg !777
  %0 = fmul float %self, %other, !dbg !778
  ret float %0, !dbg !779
}

; <f32 as core::ops::arith::Neg>::neg
; Function Attrs: inlinehint nonlazybind uwtable
define internal float @"_ZN45_$LT$f32$u20$as$u20$core..ops..arith..Neg$GT$3neg17hf2d7af8905ae0e44E"(float %self) unnamed_addr #0 !dbg !780 {
start:
  %self.dbg.spill = alloca float, align 4
  store float %self, float* %self.dbg.spill, align 4
  call void @llvm.dbg.declare(metadata float* %self.dbg.spill, metadata !785, metadata !DIExpression()), !dbg !786
  %0 = fneg float %self, !dbg !787
  ret float %0, !dbg !788
}

; <f64 as core::ops::arith::Div>::div
; Function Attrs: inlinehint nonlazybind uwtable
define internal double @"_ZN45_$LT$f64$u20$as$u20$core..ops..arith..Div$GT$3div17h51eab12971dd6ab7E"(double %self, double %other) unnamed_addr #0 !dbg !789 {
start:
  %other.dbg.spill = alloca double, align 8
  %self.dbg.spill = alloca double, align 8
  store double %self, double* %self.dbg.spill, align 8
  call void @llvm.dbg.declare(metadata double* %self.dbg.spill, metadata !794, metadata !DIExpression()), !dbg !796
  store double %other, double* %other.dbg.spill, align 8
  call void @llvm.dbg.declare(metadata double* %other.dbg.spill, metadata !795, metadata !DIExpression()), !dbg !797
  %0 = fdiv double %self, %other, !dbg !798
  ret double %0, !dbg !799
}

; <f64 as core::ops::arith::Mul>::mul
; Function Attrs: inlinehint nonlazybind uwtable
define internal double @"_ZN45_$LT$f64$u20$as$u20$core..ops..arith..Mul$GT$3mul17h9b80d3a4e27ba66bE"(double %self, double %other) unnamed_addr #0 !dbg !800 {
start:
  %other.dbg.spill = alloca double, align 8
  %self.dbg.spill = alloca double, align 8
  store double %self, double* %self.dbg.spill, align 8
  call void @llvm.dbg.declare(metadata double* %self.dbg.spill, metadata !803, metadata !DIExpression()), !dbg !805
  store double %other, double* %other.dbg.spill, align 8
  call void @llvm.dbg.declare(metadata double* %other.dbg.spill, metadata !804, metadata !DIExpression()), !dbg !806
  %0 = fmul double %self, %other, !dbg !807
  ret double %0, !dbg !808
}

; <f64 as core::ops::arith::Neg>::neg
; Function Attrs: inlinehint nonlazybind uwtable
define internal double @"_ZN45_$LT$f64$u20$as$u20$core..ops..arith..Neg$GT$3neg17h2916e189c8f22844E"(double %self) unnamed_addr #0 !dbg !809 {
start:
  %self.dbg.spill = alloca double, align 8
  store double %self, double* %self.dbg.spill, align 8
  call void @llvm.dbg.declare(metadata double* %self.dbg.spill, metadata !814, metadata !DIExpression()), !dbg !815
  %0 = fneg double %self, !dbg !816
  ret double %0, !dbg !817
}

; core::intrinsics::const_eval_select
; Function Attrs: inlinehint nonlazybind uwtable
define i32 @_ZN4core10intrinsics17const_eval_select17h6441fb96c40482f1E(float %arg) unnamed_addr #0 personality i32 (i32, i32, i64, %"unwind::libunwind::_Unwind_Exception"*, %"unwind::libunwind::_Unwind_Context"*)* @rust_eh_personality !dbg !818 {
start:
  %0 = alloca { i8*, i32 }, align 8
  %called_at_rt.dbg.spill = alloca %"[closure@core::f32::<impl f32>::to_bits::{closure#0}]", align 1
  %_called_in_const.dbg.spill = alloca {}, align 1
  %arg.dbg.spill = alloca float, align 4
  store float %arg, float* %arg.dbg.spill, align 4
  call void @llvm.dbg.declare(metadata float* %arg.dbg.spill, metadata !833, metadata !DIExpression()), !dbg !841
  call void @llvm.dbg.declare(metadata {}* %_called_in_const.dbg.spill, metadata !834, metadata !DIExpression()), !dbg !842
  call void @llvm.dbg.declare(metadata %"[closure@core::f32::<impl f32>::to_bits::{closure#0}]"* %called_at_rt.dbg.spill, metadata !835, metadata !DIExpression()), !dbg !843
; invoke core::ops::function::FnOnce::call_once
  %1 = invoke i32 @_ZN4core3ops8function6FnOnce9call_once17h212bd856a0daefdeE(float %arg)
          to label %bb1 unwind label %cleanup, !dbg !844

bb3:                                              ; preds = %cleanup
  br label %bb4, !dbg !845

cleanup:                                          ; preds = %start
  %2 = landingpad { i8*, i32 }
          cleanup
  %3 = extractvalue { i8*, i32 } %2, 0
  %4 = extractvalue { i8*, i32 } %2, 1
  %5 = getelementptr inbounds { i8*, i32 }, { i8*, i32 }* %0, i32 0, i32 0
  store i8* %3, i8** %5, align 8
  %6 = getelementptr inbounds { i8*, i32 }, { i8*, i32 }* %0, i32 0, i32 1
  store i32 %4, i32* %6, align 8
  br label %bb3

bb1:                                              ; preds = %start
  br label %bb2, !dbg !845

bb4:                                              ; preds = %bb3
  %7 = bitcast { i8*, i32 }* %0 to i8**, !dbg !846
  %8 = load i8*, i8** %7, align 8, !dbg !846
  %9 = getelementptr inbounds { i8*, i32 }, { i8*, i32 }* %0, i32 0, i32 1, !dbg !846
  %10 = load i32, i32* %9, align 8, !dbg !846
  %11 = insertvalue { i8*, i32 } undef, i8* %8, 0, !dbg !846
  %12 = insertvalue { i8*, i32 } %11, i32 %10, 1, !dbg !846
  resume { i8*, i32 } %12, !dbg !846

bb2:                                              ; preds = %bb1
  ret i32 %1, !dbg !847
}

; core::intrinsics::const_eval_select
; Function Attrs: inlinehint nonlazybind uwtable
define i64 @_ZN4core10intrinsics17const_eval_select17ha6458f317d7f2ac2E(double %arg) unnamed_addr #0 personality i32 (i32, i32, i64, %"unwind::libunwind::_Unwind_Exception"*, %"unwind::libunwind::_Unwind_Context"*)* @rust_eh_personality !dbg !848 {
start:
  %0 = alloca { i8*, i32 }, align 8
  %called_at_rt.dbg.spill = alloca %"[closure@core::f64::<impl f64>::to_bits::{closure#0}]", align 1
  %_called_in_const.dbg.spill = alloca {}, align 1
  %arg.dbg.spill = alloca double, align 8
  store double %arg, double* %arg.dbg.spill, align 8
  call void @llvm.dbg.declare(metadata double* %arg.dbg.spill, metadata !862, metadata !DIExpression()), !dbg !870
  call void @llvm.dbg.declare(metadata {}* %_called_in_const.dbg.spill, metadata !863, metadata !DIExpression()), !dbg !871
  call void @llvm.dbg.declare(metadata %"[closure@core::f64::<impl f64>::to_bits::{closure#0}]"* %called_at_rt.dbg.spill, metadata !864, metadata !DIExpression()), !dbg !872
; invoke core::ops::function::FnOnce::call_once
  %1 = invoke i64 @_ZN4core3ops8function6FnOnce9call_once17h0ed0ba15af3d259dE(double %arg)
          to label %bb1 unwind label %cleanup, !dbg !873

bb3:                                              ; preds = %cleanup
  br label %bb4, !dbg !874

cleanup:                                          ; preds = %start
  %2 = landingpad { i8*, i32 }
          cleanup
  %3 = extractvalue { i8*, i32 } %2, 0
  %4 = extractvalue { i8*, i32 } %2, 1
  %5 = getelementptr inbounds { i8*, i32 }, { i8*, i32 }* %0, i32 0, i32 0
  store i8* %3, i8** %5, align 8
  %6 = getelementptr inbounds { i8*, i32 }, { i8*, i32 }* %0, i32 0, i32 1
  store i32 %4, i32* %6, align 8
  br label %bb3

bb1:                                              ; preds = %start
  br label %bb2, !dbg !874

bb4:                                              ; preds = %bb3
  %7 = bitcast { i8*, i32 }* %0 to i8**, !dbg !875
  %8 = load i8*, i8** %7, align 8, !dbg !875
  %9 = getelementptr inbounds { i8*, i32 }, { i8*, i32 }* %0, i32 0, i32 1, !dbg !875
  %10 = load i32, i32* %9, align 8, !dbg !875
  %11 = insertvalue { i8*, i32 } undef, i8* %8, 0, !dbg !875
  %12 = insertvalue { i8*, i32 } %11, i32 %10, 1, !dbg !875
  resume { i8*, i32 } %12, !dbg !875

bb2:                                              ; preds = %bb1
  ret i64 %1, !dbg !876
}

; core::cmp::Ord::min
; Function Attrs: inlinehint nonlazybind uwtable
define i64 @_ZN4core3cmp3Ord3min17hcb69de752336567cE(i64 %0, i64 %1) unnamed_addr #0 personality i32 (i32, i32, i64, %"unwind::libunwind::_Unwind_Exception"*, %"unwind::libunwind::_Unwind_Context"*)* @rust_eh_personality !dbg !877 {
start:
  %2 = alloca { i8*, i32 }, align 8
  %_9 = alloca i8, align 1
  %_8 = alloca i8, align 1
  %_3 = alloca i8, align 1
  %3 = alloca i64, align 8
  %other = alloca i64, align 8
  %self = alloca i64, align 8
  store i64 %0, i64* %self, align 8
  store i64 %1, i64* %other, align 8
  call void @llvm.dbg.declare(metadata i64* %self, metadata !880, metadata !DIExpression()), !dbg !884
  call void @llvm.dbg.declare(metadata i64* %other, metadata !881, metadata !DIExpression()), !dbg !885
  store i8 1, i8* %_9, align 1, !dbg !886
  store i8 1, i8* %_8, align 1, !dbg !886
; invoke core::cmp::impls::<impl core::cmp::Ord for usize>::cmp
  %4 = invoke i8 @"_ZN4core3cmp5impls50_$LT$impl$u20$core..cmp..Ord$u20$for$u20$usize$GT$3cmp17heff2ceaf2d9ed1e3E"(i64* align 8 %self, i64* align 8 %other)
          to label %bb1 unwind label %cleanup, !dbg !886, !range !887

bb8:                                              ; preds = %cleanup
  br label %bb13, !dbg !888

cleanup:                                          ; preds = %start
  %5 = landingpad { i8*, i32 }
          cleanup
  %6 = extractvalue { i8*, i32 } %5, 0
  %7 = extractvalue { i8*, i32 } %5, 1
  %8 = getelementptr inbounds { i8*, i32 }, { i8*, i32 }* %2, i32 0, i32 0
  store i8* %6, i8** %8, align 8
  %9 = getelementptr inbounds { i8*, i32 }, { i8*, i32 }* %2, i32 0, i32 1
  store i32 %7, i32* %9, align 8
  br label %bb8

bb1:                                              ; preds = %start
  store i8 %4, i8* %_3, align 1, !dbg !886
  %_7 = load i8, i8* %_3, align 1, !dbg !886, !range !887, !noundef !19
  switch i8 %_7, label %bb3 [
    i8 -1, label %bb4
    i8 0, label %bb4
    i8 1, label %bb2
  ], !dbg !889

bb13:                                             ; preds = %bb8
  %10 = load i8, i8* %_9, align 1, !dbg !888, !range !266, !noundef !19
  %11 = trunc i8 %10 to i1, !dbg !888
  br i1 %11, label %bb12, label %bb9, !dbg !888

bb3:                                              ; preds = %bb1
  unreachable, !dbg !886

bb4:                                              ; preds = %bb1, %bb1
  store i8 0, i8* %_9, align 1, !dbg !890
  %12 = load i64, i64* %self, align 8, !dbg !890
  store i64 %12, i64* %3, align 8, !dbg !890
  br label %bb5, !dbg !890

bb2:                                              ; preds = %bb1
  store i8 0, i8* %_8, align 1, !dbg !891
  %13 = load i64, i64* %other, align 8, !dbg !891
  store i64 %13, i64* %3, align 8, !dbg !891
  br label %bb5, !dbg !891

bb5:                                              ; preds = %bb4, %bb2
  %14 = load i8, i8* %_8, align 1, !dbg !888, !range !266, !noundef !19
  %15 = trunc i8 %14 to i1, !dbg !888
  br i1 %15, label %bb10, label %bb6, !dbg !888

bb6:                                              ; preds = %bb10, %bb5
  %16 = load i8, i8* %_9, align 1, !dbg !888, !range !266, !noundef !19
  %17 = trunc i8 %16 to i1, !dbg !888
  br i1 %17, label %bb11, label %bb7, !dbg !888

bb10:                                             ; preds = %bb5
  br label %bb6, !dbg !888

bb9:                                              ; preds = %bb12, %bb13
  %18 = bitcast { i8*, i32 }* %2 to i8**, !dbg !892
  %19 = load i8*, i8** %18, align 8, !dbg !892
  %20 = getelementptr inbounds { i8*, i32 }, { i8*, i32 }* %2, i32 0, i32 1, !dbg !892
  %21 = load i32, i32* %20, align 8, !dbg !892
  %22 = insertvalue { i8*, i32 } undef, i8* %19, 0, !dbg !892
  %23 = insertvalue { i8*, i32 } %22, i32 %21, 1, !dbg !892
  resume { i8*, i32 } %23, !dbg !892

bb12:                                             ; preds = %bb13
  br label %bb9, !dbg !888

bb7:                                              ; preds = %bb11, %bb6
  %24 = load i64, i64* %3, align 8, !dbg !893
  ret i64 %24, !dbg !893

bb11:                                             ; preds = %bb6
  br label %bb7, !dbg !888
}

; core::cmp::impls::<impl core::cmp::Ord for usize>::cmp
; Function Attrs: inlinehint nonlazybind uwtable
define internal i8 @"_ZN4core3cmp5impls50_$LT$impl$u20$core..cmp..Ord$u20$for$u20$usize$GT$3cmp17heff2ceaf2d9ed1e3E"(i64* align 8 %self, i64* align 8 %other) unnamed_addr #0 !dbg !894 {
start:
  %other.dbg.spill = alloca i64*, align 8
  %self.dbg.spill = alloca i64*, align 8
  %0 = alloca i8, align 1
  store i64* %self, i64** %self.dbg.spill, align 8
  call void @llvm.dbg.declare(metadata i64** %self.dbg.spill, metadata !900, metadata !DIExpression()), !dbg !902
  store i64* %other, i64** %other.dbg.spill, align 8
  call void @llvm.dbg.declare(metadata i64** %other.dbg.spill, metadata !901, metadata !DIExpression()), !dbg !903
  %_4 = load i64, i64* %self, align 8, !dbg !904
  %_5 = load i64, i64* %other, align 8, !dbg !905
  %_3 = icmp ult i64 %_4, %_5, !dbg !904
  br i1 %_3, label %bb1, label %bb2, !dbg !904

bb2:                                              ; preds = %start
  %_7 = load i64, i64* %self, align 8, !dbg !906
  %_8 = load i64, i64* %other, align 8, !dbg !907
  %_6 = icmp eq i64 %_7, %_8, !dbg !906
  br i1 %_6, label %bb3, label %bb4, !dbg !906

bb1:                                              ; preds = %start
  store i8 -1, i8* %0, align 1, !dbg !908
  br label %bb6, !dbg !909

bb6:                                              ; preds = %bb5, %bb1
  %1 = load i8, i8* %0, align 1, !dbg !910, !range !887, !noundef !19
  ret i8 %1, !dbg !910

bb4:                                              ; preds = %bb2
  store i8 1, i8* %0, align 1, !dbg !911
  br label %bb5, !dbg !912

bb3:                                              ; preds = %bb2
  store i8 0, i8* %0, align 1, !dbg !913
  br label %bb5, !dbg !912

bb5:                                              ; preds = %bb4, %bb3
  br label %bb6, !dbg !909
}

; core::cmp::impls::<impl core::cmp::PartialEq for ()>::eq
; Function Attrs: inlinehint nonlazybind uwtable
define internal zeroext i1 @"_ZN4core3cmp5impls59_$LT$impl$u20$core..cmp..PartialEq$u20$for$u20$$LP$$RP$$GT$2eq17hedefb1bc4fc3afaaE"({}* align 1 %self, {}* align 1 %_other) unnamed_addr #0 !dbg !914 {
start:
  %_other.dbg.spill = alloca {}*, align 8
  %self.dbg.spill = alloca {}*, align 8
  store {}* %self, {}** %self.dbg.spill, align 8
  call void @llvm.dbg.declare(metadata {}** %self.dbg.spill, metadata !921, metadata !DIExpression()), !dbg !923
  store {}* %_other, {}** %_other.dbg.spill, align 8
  call void @llvm.dbg.declare(metadata {}** %_other.dbg.spill, metadata !922, metadata !DIExpression()), !dbg !924
  ret i1 true, !dbg !925
}

; core::f32::<impl f32>::to_bits
; Function Attrs: inlinehint nonlazybind uwtable
define internal i32 @"_ZN4core3f3221_$LT$impl$u20$f32$GT$7to_bits17hf9f914d93b7e51c5E"(float %self) unnamed_addr #0 !dbg !926 {
start:
  %rt_f32_to_u32.dbg.spill = alloca %"[closure@core::f32::<impl f32>::to_bits::{closure#0}]", align 1
  %self.dbg.spill = alloca float, align 4
  %_3 = alloca float, align 4
  store float %self, float* %self.dbg.spill, align 4
  call void @llvm.dbg.declare(metadata float* %self.dbg.spill, metadata !929, metadata !DIExpression()), !dbg !932
  call void @llvm.dbg.declare(metadata %"[closure@core::f32::<impl f32>::to_bits::{closure#0}]"* %rt_f32_to_u32.dbg.spill, metadata !930, metadata !DIExpression()), !dbg !933
  store float %self, float* %_3, align 4, !dbg !934
  %0 = load float, float* %_3, align 4, !dbg !935
; call core::intrinsics::const_eval_select
  %1 = call i32 @_ZN4core10intrinsics17const_eval_select17h6441fb96c40482f1E(float %0), !dbg !935
  br label %bb1, !dbg !935

bb1:                                              ; preds = %start
  ret i32 %1, !dbg !936
}

; core::f32::<impl f32>::to_bits::{{closure}}
; Function Attrs: inlinehint nonlazybind uwtable
define i32 @"_ZN4core3f3221_$LT$impl$u20$f32$GT$7to_bits28_$u7b$$u7b$closure$u7d$$u7d$17h12ec8e0264003088E"(%"[closure@core::f32::<impl f32>::to_bits::{closure#0}]"* align 1 %_1, float %rt) unnamed_addr #0 !dbg !937 {
start:
  %0 = alloca i32, align 4
  %rt.dbg.spill = alloca float, align 4
  %_1.dbg.spill = alloca %"[closure@core::f32::<impl f32>::to_bits::{closure#0}]"*, align 8
  store %"[closure@core::f32::<impl f32>::to_bits::{closure#0}]"* %_1, %"[closure@core::f32::<impl f32>::to_bits::{closure#0}]"** %_1.dbg.spill, align 8
  call void @llvm.dbg.declare(metadata %"[closure@core::f32::<impl f32>::to_bits::{closure#0}]"** %_1.dbg.spill, metadata !943, metadata !DIExpression()), !dbg !944
  store float %rt, float* %rt.dbg.spill, align 4
  call void @llvm.dbg.declare(metadata float* %rt.dbg.spill, metadata !942, metadata !DIExpression()), !dbg !945
  %1 = bitcast float %rt to i32, !dbg !946
  store i32 %1, i32* %0, align 4, !dbg !946
  %2 = load i32, i32* %0, align 4, !dbg !946
  br label %bb1, !dbg !946

bb1:                                              ; preds = %start
  ret i32 %2, !dbg !947
}

; core::f64::<impl f64>::to_bits
; Function Attrs: inlinehint nonlazybind uwtable
define internal i64 @"_ZN4core3f6421_$LT$impl$u20$f64$GT$7to_bits17h62495e472a5a58ecE"(double %self) unnamed_addr #0 !dbg !948 {
start:
  %rt_f64_to_u64.dbg.spill = alloca %"[closure@core::f64::<impl f64>::to_bits::{closure#0}]", align 1
  %self.dbg.spill = alloca double, align 8
  %_3 = alloca double, align 8
  store double %self, double* %self.dbg.spill, align 8
  call void @llvm.dbg.declare(metadata double* %self.dbg.spill, metadata !951, metadata !DIExpression()), !dbg !954
  call void @llvm.dbg.declare(metadata %"[closure@core::f64::<impl f64>::to_bits::{closure#0}]"* %rt_f64_to_u64.dbg.spill, metadata !952, metadata !DIExpression()), !dbg !955
  store double %self, double* %_3, align 8, !dbg !956
  %0 = load double, double* %_3, align 8, !dbg !957
; call core::intrinsics::const_eval_select
  %1 = call i64 @_ZN4core10intrinsics17const_eval_select17ha6458f317d7f2ac2E(double %0), !dbg !957
  br label %bb1, !dbg !957

bb1:                                              ; preds = %start
  ret i64 %1, !dbg !958
}

; core::f64::<impl f64>::to_bits::{{closure}}
; Function Attrs: inlinehint nonlazybind uwtable
define i64 @"_ZN4core3f6421_$LT$impl$u20$f64$GT$7to_bits28_$u7b$$u7b$closure$u7d$$u7d$17hce21388d0321e24aE"(%"[closure@core::f64::<impl f64>::to_bits::{closure#0}]"* align 1 %_1, double %rt) unnamed_addr #0 !dbg !959 {
start:
  %0 = alloca i64, align 8
  %rt.dbg.spill = alloca double, align 8
  %_1.dbg.spill = alloca %"[closure@core::f64::<impl f64>::to_bits::{closure#0}]"*, align 8
  store %"[closure@core::f64::<impl f64>::to_bits::{closure#0}]"* %_1, %"[closure@core::f64::<impl f64>::to_bits::{closure#0}]"** %_1.dbg.spill, align 8
  call void @llvm.dbg.declare(metadata %"[closure@core::f64::<impl f64>::to_bits::{closure#0}]"** %_1.dbg.spill, metadata !965, metadata !DIExpression()), !dbg !966
  store double %rt, double* %rt.dbg.spill, align 8
  call void @llvm.dbg.declare(metadata double* %rt.dbg.spill, metadata !964, metadata !DIExpression()), !dbg !967
  %1 = bitcast double %rt to i64, !dbg !968
  store i64 %1, i64* %0, align 8, !dbg !968
  %2 = load i64, i64* %0, align 8, !dbg !968
  br label %bb1, !dbg !968

bb1:                                              ; preds = %start
  ret i64 %2, !dbg !969
}

; core::fmt::Arguments::new_v1
; Function Attrs: inlinehint nonlazybind uwtable
define internal void @_ZN4core3fmt9Arguments6new_v117h97872f408723ca1bE(%"core::fmt::Arguments"* sret(%"core::fmt::Arguments") %0, [0 x { [0 x i8]*, i64 }]* align 8 %pieces.0, i64 %pieces.1, [0 x { i8*, i64* }]* align 8 %args.0, i64 %args.1) unnamed_addr #0 !dbg !970 {
start:
  %args.dbg.spill = alloca { [0 x { i8*, i64* }]*, i64 }, align 8
  %pieces.dbg.spill = alloca { [0 x { [0 x i8]*, i64 }]*, i64 }, align 8
  %_24 = alloca { i64*, i64 }, align 8
  %_16 = alloca %"core::fmt::Arguments", align 8
  %_3 = alloca i8, align 1
  %1 = getelementptr inbounds { [0 x { [0 x i8]*, i64 }]*, i64 }, { [0 x { [0 x i8]*, i64 }]*, i64 }* %pieces.dbg.spill, i32 0, i32 0
  store [0 x { [0 x i8]*, i64 }]* %pieces.0, [0 x { [0 x i8]*, i64 }]** %1, align 8
  %2 = getelementptr inbounds { [0 x { [0 x i8]*, i64 }]*, i64 }, { [0 x { [0 x i8]*, i64 }]*, i64 }* %pieces.dbg.spill, i32 0, i32 1
  store i64 %pieces.1, i64* %2, align 8
  call void @llvm.dbg.declare(metadata { [0 x { [0 x i8]*, i64 }]*, i64 }* %pieces.dbg.spill, metadata !1043, metadata !DIExpression()), !dbg !1045
  %3 = getelementptr inbounds { [0 x { i8*, i64* }]*, i64 }, { [0 x { i8*, i64* }]*, i64 }* %args.dbg.spill, i32 0, i32 0
  store [0 x { i8*, i64* }]* %args.0, [0 x { i8*, i64* }]** %3, align 8
  %4 = getelementptr inbounds { [0 x { i8*, i64* }]*, i64 }, { [0 x { i8*, i64* }]*, i64 }* %args.dbg.spill, i32 0, i32 1
  store i64 %args.1, i64* %4, align 8
  call void @llvm.dbg.declare(metadata { [0 x { i8*, i64* }]*, i64 }* %args.dbg.spill, metadata !1044, metadata !DIExpression()), !dbg !1046
  %_4 = icmp ult i64 %pieces.1, %args.1, !dbg !1047
  br i1 %_4, label %bb1, label %bb2, !dbg !1047

bb2:                                              ; preds = %start
  %_12 = add i64 %args.1, 1, !dbg !1048
  %_9 = icmp ugt i64 %pieces.1, %_12, !dbg !1049
  %5 = zext i1 %_9 to i8, !dbg !1047
  store i8 %5, i8* %_3, align 1, !dbg !1047
  br label %bb3, !dbg !1047

bb1:                                              ; preds = %start
  store i8 1, i8* %_3, align 1, !dbg !1047
  br label %bb3, !dbg !1047

bb3:                                              ; preds = %bb2, %bb1
  %6 = load i8, i8* %_3, align 1, !dbg !1047, !range !266, !noundef !19
  %7 = trunc i8 %6 to i1, !dbg !1047
  br i1 %7, label %bb4, label %bb6, !dbg !1047

bb6:                                              ; preds = %bb3
  %8 = bitcast { i64*, i64 }* %_24 to {}**, !dbg !1050
  store {}* null, {}** %8, align 8, !dbg !1050
  %9 = bitcast %"core::fmt::Arguments"* %0 to { [0 x { [0 x i8]*, i64 }]*, i64 }*, !dbg !1051
  %10 = getelementptr inbounds { [0 x { [0 x i8]*, i64 }]*, i64 }, { [0 x { [0 x i8]*, i64 }]*, i64 }* %9, i32 0, i32 0, !dbg !1051
  store [0 x { [0 x i8]*, i64 }]* %pieces.0, [0 x { [0 x i8]*, i64 }]** %10, align 8, !dbg !1051
  %11 = getelementptr inbounds { [0 x { [0 x i8]*, i64 }]*, i64 }, { [0 x { [0 x i8]*, i64 }]*, i64 }* %9, i32 0, i32 1, !dbg !1051
  store i64 %pieces.1, i64* %11, align 8, !dbg !1051
  %12 = getelementptr inbounds %"core::fmt::Arguments", %"core::fmt::Arguments"* %0, i32 0, i32 1, !dbg !1051
  %13 = getelementptr inbounds { i64*, i64 }, { i64*, i64 }* %_24, i32 0, i32 0, !dbg !1051
  %14 = load i64*, i64** %13, align 8, !dbg !1051, !align !1052
  %15 = getelementptr inbounds { i64*, i64 }, { i64*, i64 }* %_24, i32 0, i32 1, !dbg !1051
  %16 = load i64, i64* %15, align 8, !dbg !1051
  %17 = getelementptr inbounds { i64*, i64 }, { i64*, i64 }* %12, i32 0, i32 0, !dbg !1051
  store i64* %14, i64** %17, align 8, !dbg !1051
  %18 = getelementptr inbounds { i64*, i64 }, { i64*, i64 }* %12, i32 0, i32 1, !dbg !1051
  store i64 %16, i64* %18, align 8, !dbg !1051
  %19 = getelementptr inbounds %"core::fmt::Arguments", %"core::fmt::Arguments"* %0, i32 0, i32 2, !dbg !1051
  %20 = getelementptr inbounds { [0 x { i8*, i64* }]*, i64 }, { [0 x { i8*, i64* }]*, i64 }* %19, i32 0, i32 0, !dbg !1051
  store [0 x { i8*, i64* }]* %args.0, [0 x { i8*, i64* }]** %20, align 8, !dbg !1051
  %21 = getelementptr inbounds { [0 x { i8*, i64* }]*, i64 }, { [0 x { i8*, i64* }]*, i64 }* %19, i32 0, i32 1, !dbg !1051
  store i64 %args.1, i64* %21, align 8, !dbg !1051
  ret void, !dbg !1053

bb4:                                              ; preds = %bb3
; call core::fmt::Arguments::new_v1
  call void @_ZN4core3fmt9Arguments6new_v117h97872f408723ca1bE(%"core::fmt::Arguments"* sret(%"core::fmt::Arguments") %_16, [0 x { [0 x i8]*, i64 }]* align 8 bitcast (<{ i8*, [8 x i8] }>* @alloc6185 to [0 x { [0 x i8]*, i64 }]*), i64 1, [0 x { i8*, i64* }]* align 8 bitcast (<{}>* @alloc6395 to [0 x { i8*, i64* }]*), i64 0), !dbg !1054
  br label %bb5, !dbg !1054

bb5:                                              ; preds = %bb4
; call core::panicking::panic_fmt
  call void @_ZN4core9panicking9panic_fmt17h62ccf03c8a8a51b5E(%"core::fmt::Arguments"* %_16, %"core::panic::location::Location"* align 8 bitcast (<{ i8*, [16 x i8] }>* @alloc6356 to %"core::panic::location::Location"*)) #7, !dbg !1054
  unreachable, !dbg !1054
}

; core::num::<impl u64>::checked_mul
; Function Attrs: inlinehint nonlazybind uwtable
define internal { i64, i64 } @"_ZN4core3num21_$LT$impl$u20$u64$GT$11checked_mul17h0a8d9e77c5cdaf25E"(i64 %self, i64 %rhs) unnamed_addr #0 !dbg !1055 {
start:
  %0 = alloca i8, align 1
  %b.dbg.spill4 = alloca i8, align 1
  %a.dbg.spill3 = alloca i64, align 8
  %b.dbg.spill = alloca i8, align 1
  %a.dbg.spill = alloca i64, align 8
  %1 = alloca { i64, i8 }, align 8
  %rhs.dbg.spill2 = alloca i64, align 8
  %self.dbg.spill1 = alloca i64, align 8
  %rhs.dbg.spill = alloca i64, align 8
  %self.dbg.spill = alloca i64, align 8
  %_5 = alloca { i64, i8 }, align 8
  %2 = alloca { i64, i64 }, align 8
  store i64 %self, i64* %self.dbg.spill, align 8
  call void @llvm.dbg.declare(metadata i64* %self.dbg.spill, metadata !1074, metadata !DIExpression()), !dbg !1079
  store i64 %rhs, i64* %rhs.dbg.spill, align 8
  call void @llvm.dbg.declare(metadata i64* %rhs.dbg.spill, metadata !1075, metadata !DIExpression()), !dbg !1080
  store i64 %self, i64* %self.dbg.spill1, align 8, !dbg !1081
  call void @llvm.dbg.declare(metadata i64* %self.dbg.spill1, metadata !1082, metadata !DIExpression()), !dbg !1095
  store i64 %rhs, i64* %rhs.dbg.spill2, align 8, !dbg !1096
  call void @llvm.dbg.declare(metadata i64* %rhs.dbg.spill2, metadata !1091, metadata !DIExpression()), !dbg !1095
  %3 = call { i64, i1 } @llvm.umul.with.overflow.i64(i64 %self, i64 %rhs), !dbg !1095
  %4 = extractvalue { i64, i1 } %3, 0, !dbg !1095
  %5 = extractvalue { i64, i1 } %3, 1, !dbg !1095
  %6 = zext i1 %5 to i8, !dbg !1095
  %7 = bitcast { i64, i8 }* %1 to i64*, !dbg !1095
  store i64 %4, i64* %7, align 8, !dbg !1095
  %8 = getelementptr inbounds { i64, i8 }, { i64, i8 }* %1, i32 0, i32 1, !dbg !1095
  store i8 %6, i8* %8, align 8, !dbg !1095
  %9 = getelementptr inbounds { i64, i8 }, { i64, i8 }* %1, i32 0, i32 0, !dbg !1095
  %_13.0 = load i64, i64* %9, align 8, !dbg !1095
  %10 = getelementptr inbounds { i64, i8 }, { i64, i8 }* %1, i32 0, i32 1, !dbg !1095
  %11 = load i8, i8* %10, align 8, !dbg !1095, !range !266, !noundef !19
  %_13.1 = trunc i8 %11 to i1, !dbg !1095
  br label %bb5, !dbg !1095

bb5:                                              ; preds = %start
  store i64 %_13.0, i64* %a.dbg.spill, align 8, !dbg !1095
  call void @llvm.dbg.declare(metadata i64* %a.dbg.spill, metadata !1092, metadata !DIExpression()), !dbg !1097
  %12 = zext i1 %_13.1 to i8, !dbg !1095
  store i8 %12, i8* %b.dbg.spill, align 1, !dbg !1095
  call void @llvm.dbg.declare(metadata i8* %b.dbg.spill, metadata !1094, metadata !DIExpression()), !dbg !1097
  %13 = bitcast { i64, i8 }* %_5 to i64*, !dbg !1097
  store i64 %_13.0, i64* %13, align 8, !dbg !1097
  %14 = getelementptr inbounds { i64, i8 }, { i64, i8 }* %_5, i32 0, i32 1, !dbg !1097
  %15 = zext i1 %_13.1 to i8, !dbg !1097
  store i8 %15, i8* %14, align 8, !dbg !1097
  %16 = bitcast { i64, i8 }* %_5 to i64*, !dbg !1098
  %a = load i64, i64* %16, align 8, !dbg !1098
  store i64 %a, i64* %a.dbg.spill3, align 8, !dbg !1098
  call void @llvm.dbg.declare(metadata i64* %a.dbg.spill3, metadata !1076, metadata !DIExpression()), !dbg !1099
  %17 = getelementptr inbounds { i64, i8 }, { i64, i8 }* %_5, i32 0, i32 1, !dbg !1100
  %18 = load i8, i8* %17, align 8, !dbg !1100, !range !266, !noundef !19
  %b = trunc i8 %18 to i1, !dbg !1100
  %19 = zext i1 %b to i8, !dbg !1100
  store i8 %19, i8* %b.dbg.spill4, align 1, !dbg !1100
  call void @llvm.dbg.declare(metadata i8* %b.dbg.spill4, metadata !1078, metadata !DIExpression()), !dbg !1101
  %20 = call i1 @llvm.expect.i1(i1 %b, i1 false), !dbg !1102
  %21 = zext i1 %20 to i8, !dbg !1102
  store i8 %21, i8* %0, align 1, !dbg !1102
  %22 = load i8, i8* %0, align 1, !dbg !1102, !range !266, !noundef !19
  %_8 = trunc i8 %22 to i1, !dbg !1102
  br label %bb1, !dbg !1102

bb1:                                              ; preds = %bb5
  br i1 %_8, label %bb2, label %bb3, !dbg !1102

bb3:                                              ; preds = %bb1
  %23 = getelementptr inbounds { i64, i64 }, { i64, i64 }* %2, i32 0, i32 1, !dbg !1103
  store i64 %a, i64* %23, align 8, !dbg !1103
  %24 = bitcast { i64, i64 }* %2 to i64*, !dbg !1103
  store i64 1, i64* %24, align 8, !dbg !1103
  br label %bb4, !dbg !1104

bb2:                                              ; preds = %bb1
  %25 = bitcast { i64, i64 }* %2 to i64*, !dbg !1105
  store i64 0, i64* %25, align 8, !dbg !1105
  br label %bb4, !dbg !1104

bb4:                                              ; preds = %bb3, %bb2
  %26 = getelementptr inbounds { i64, i64 }, { i64, i64 }* %2, i32 0, i32 0, !dbg !1106
  %27 = load i64, i64* %26, align 8, !dbg !1106, !range !1107, !noundef !19
  %28 = getelementptr inbounds { i64, i64 }, { i64, i64 }* %2, i32 0, i32 1, !dbg !1106
  %29 = load i64, i64* %28, align 8, !dbg !1106
  %30 = insertvalue { i64, i64 } undef, i64 %27, 0, !dbg !1106
  %31 = insertvalue { i64, i64 } %30, i64 %29, 1, !dbg !1106
  ret { i64, i64 } %31, !dbg !1106
}

; core::num::dec2flt::biased_fp_to_float
; Function Attrs: nonlazybind uwtable
define float @_ZN4core3num7dec2flt18biased_fp_to_float17h8e8c78e060cb1e4eE(i64 %x.0, i32 %x.1) unnamed_addr #1 !dbg !1108 {
start:
  %x.dbg.spill = alloca { i64, i32 }, align 8
  %word = alloca i64, align 8
  %0 = getelementptr inbounds { i64, i32 }, { i64, i32 }* %x.dbg.spill, i32 0, i32 0
  store i64 %x.0, i64* %0, align 8
  %1 = getelementptr inbounds { i64, i32 }, { i64, i32 }* %x.dbg.spill, i32 0, i32 1
  store i32 %x.1, i32* %1, align 8
  call void @llvm.dbg.declare(metadata { i64, i32 }* %x.dbg.spill, metadata !1118, metadata !DIExpression()), !dbg !1123
  call void @llvm.dbg.declare(metadata i64* %word, metadata !1119, metadata !DIExpression()), !dbg !1124
  store i64 %x.0, i64* %word, align 8, !dbg !1125
  %_4 = sext i32 %x.1 to i64, !dbg !1126
  %_3 = shl i64 %_4, 23, !dbg !1126
  %2 = load i64, i64* %word, align 8, !dbg !1127
  %3 = or i64 %2, %_3, !dbg !1127
  store i64 %3, i64* %word, align 8, !dbg !1127
  %_6 = load i64, i64* %word, align 8, !dbg !1128
; call <f32 as core::num::dec2flt::float::RawFloat>::from_u64_bits
  %4 = call float @"_ZN59_$LT$f32$u20$as$u20$core..num..dec2flt..float..RawFloat$GT$13from_u64_bits17hd1c32c961a815893E"(i64 %_6), !dbg !1129
  br label %bb1, !dbg !1129

bb1:                                              ; preds = %start
  ret float %4, !dbg !1130
}

; core::num::dec2flt::biased_fp_to_float
; Function Attrs: nonlazybind uwtable
define double @_ZN4core3num7dec2flt18biased_fp_to_float17hc1c4bf2578871969E(i64 %x.0, i32 %x.1) unnamed_addr #1 !dbg !1131 {
start:
  %x.dbg.spill = alloca { i64, i32 }, align 8
  %word = alloca i64, align 8
  %0 = getelementptr inbounds { i64, i32 }, { i64, i32 }* %x.dbg.spill, i32 0, i32 0
  store i64 %x.0, i64* %0, align 8
  %1 = getelementptr inbounds { i64, i32 }, { i64, i32 }* %x.dbg.spill, i32 0, i32 1
  store i32 %x.1, i32* %1, align 8
  call void @llvm.dbg.declare(metadata { i64, i32 }* %x.dbg.spill, metadata !1135, metadata !DIExpression()), !dbg !1140
  call void @llvm.dbg.declare(metadata i64* %word, metadata !1136, metadata !DIExpression()), !dbg !1141
  store i64 %x.0, i64* %word, align 8, !dbg !1142
  %_4 = sext i32 %x.1 to i64, !dbg !1143
  %_3 = shl i64 %_4, 52, !dbg !1143
  %2 = load i64, i64* %word, align 8, !dbg !1144
  %3 = or i64 %2, %_3, !dbg !1144
  store i64 %3, i64* %word, align 8, !dbg !1144
  %_6 = load i64, i64* %word, align 8, !dbg !1145
; call <f64 as core::num::dec2flt::float::RawFloat>::from_u64_bits
  %4 = call double @"_ZN59_$LT$f64$u20$as$u20$core..num..dec2flt..float..RawFloat$GT$13from_u64_bits17h6bd64b42d686b3b4E"(i64 %_6), !dbg !1146
  br label %bb1, !dbg !1146

bb1:                                              ; preds = %start
  ret double %4, !dbg !1147
}

; core::num::dec2flt::fpu::fpu_precision::set_precision
; Function Attrs: nonlazybind uwtable
define void @_ZN4core3num7dec2flt3fpu13fpu_precision13set_precision17h04310024efb0e55cE() unnamed_addr #1 !dbg !1148 {
start:
  ret void, !dbg !1154
}

; core::num::dec2flt::fpu::fpu_precision::set_precision
; Function Attrs: nonlazybind uwtable
define void @_ZN4core3num7dec2flt3fpu13fpu_precision13set_precision17h3aa663e467ff5488E() unnamed_addr #1 !dbg !1155 {
start:
  ret void, !dbg !1156
}

; core::num::dec2flt::slow::parse_long_mantissa
; Function Attrs: nonlazybind uwtable
define { i64, i32 } @_ZN4core3num7dec2flt4slow19parse_long_mantissa17hda08111204ded613E([0 x i8]* align 1 %s.0, i64 %s.1) unnamed_addr #1 !dbg !1157 {
start:
  %digit.dbg.spill = alloca i8*, align 8
  %shift.dbg.spill = alloca i64, align 8
  %n.dbg.spill = alloca i64, align 8
  %fp_inf.dbg.spill = alloca { i64, i32 }, align 8
  %fp_zero.dbg.spill = alloca { i64, i32 }, align 8
  %s.dbg.spill = alloca { [0 x i8]*, i64 }, align 8
  %power2 = alloca i32, align 4
  %mantissa = alloca i64, align 8
  %n = alloca i64, align 8
  %_40 = alloca i64, align 8
  %shift = alloca i64, align 8
  %_20 = alloca i64, align 8
  %exp2 = alloca i32, align 4
  %_7 = alloca i8, align 1
  %d = alloca %"core::num::dec2flt::decimal::Decimal", align 8
  %get_shift = alloca %"[closure@core::num::dec2flt::slow::parse_long_mantissa<f32>::{closure#0}]", align 1
  %0 = alloca { i64, i32 }, align 8
  %1 = getelementptr inbounds { [0 x i8]*, i64 }, { [0 x i8]*, i64 }* %s.dbg.spill, i32 0, i32 0
  store [0 x i8]* %s.0, [0 x i8]** %1, align 8
  %2 = getelementptr inbounds { [0 x i8]*, i64 }, { [0 x i8]*, i64 }* %s.dbg.spill, i32 0, i32 1
  store i64 %s.1, i64* %2, align 8
  call void @llvm.dbg.declare(metadata { [0 x i8]*, i64 }* %s.dbg.spill, metadata !1163, metadata !DIExpression()), !dbg !1203
  call void @llvm.dbg.declare(metadata %"[closure@core::num::dec2flt::slow::parse_long_mantissa<f32>::{closure#0}]"* %get_shift, metadata !1164, metadata !DIExpression()), !dbg !1204
  call void @llvm.dbg.declare(metadata %"core::num::dec2flt::decimal::Decimal"* %d, metadata !1172, metadata !DIExpression()), !dbg !1205
  call void @llvm.dbg.declare(metadata i32* %exp2, metadata !1184, metadata !DIExpression()), !dbg !1206
  call void @llvm.dbg.declare(metadata i64* %shift, metadata !1190, metadata !DIExpression()), !dbg !1207
  call void @llvm.dbg.declare(metadata i64* %n, metadata !1195, metadata !DIExpression()), !dbg !1208
  call void @llvm.dbg.declare(metadata i64* %mantissa, metadata !1197, metadata !DIExpression()), !dbg !1209
  call void @llvm.dbg.declare(metadata i32* %power2, metadata !1199, metadata !DIExpression()), !dbg !1210
; call core::num::dec2flt::common::BiasedFp::zero_pow2
  %3 = call { i64, i32 } @_ZN4core3num7dec2flt6common8BiasedFp9zero_pow217he9d0af27d074a382E(i32 0), !dbg !1211
  %fp_zero.0 = extractvalue { i64, i32 } %3, 0, !dbg !1211
  %fp_zero.1 = extractvalue { i64, i32 } %3, 1, !dbg !1211
  %4 = getelementptr inbounds { i64, i32 }, { i64, i32 }* %fp_zero.dbg.spill, i32 0, i32 0, !dbg !1211
  store i64 %fp_zero.0, i64* %4, align 8, !dbg !1211
  %5 = getelementptr inbounds { i64, i32 }, { i64, i32 }* %fp_zero.dbg.spill, i32 0, i32 1, !dbg !1211
  store i32 %fp_zero.1, i32* %5, align 8, !dbg !1211
  call void @llvm.dbg.declare(metadata { i64, i32 }* %fp_zero.dbg.spill, metadata !1168, metadata !DIExpression()), !dbg !1212
  br label %bb1, !dbg !1211

bb1:                                              ; preds = %start
; call core::num::dec2flt::common::BiasedFp::zero_pow2
  %6 = call { i64, i32 } @_ZN4core3num7dec2flt6common8BiasedFp9zero_pow217he9d0af27d074a382E(i32 255), !dbg !1213
  %fp_inf.0 = extractvalue { i64, i32 } %6, 0, !dbg !1213
  %fp_inf.1 = extractvalue { i64, i32 } %6, 1, !dbg !1213
  %7 = getelementptr inbounds { i64, i32 }, { i64, i32 }* %fp_inf.dbg.spill, i32 0, i32 0, !dbg !1213
  store i64 %fp_inf.0, i64* %7, align 8, !dbg !1213
  %8 = getelementptr inbounds { i64, i32 }, { i64, i32 }* %fp_inf.dbg.spill, i32 0, i32 1, !dbg !1213
  store i32 %fp_inf.1, i32* %8, align 8, !dbg !1213
  call void @llvm.dbg.declare(metadata { i64, i32 }* %fp_inf.dbg.spill, metadata !1170, metadata !DIExpression()), !dbg !1214
  br label %bb2, !dbg !1213

bb2:                                              ; preds = %bb1
; call core::num::dec2flt::decimal::parse_decimal
  call void @_ZN4core3num7dec2flt7decimal13parse_decimal17hf4914cdf3def232bE(%"core::num::dec2flt::decimal::Decimal"* sret(%"core::num::dec2flt::decimal::Decimal") %d, [0 x i8]* align 1 %s.0, i64 %s.1), !dbg !1215
  br label %bb3, !dbg !1215

bb3:                                              ; preds = %bb2
  %9 = bitcast %"core::num::dec2flt::decimal::Decimal"* %d to i64*, !dbg !1216
  %_8 = load i64, i64* %9, align 8, !dbg !1216
  %10 = icmp eq i64 %_8, 0, !dbg !1216
  br i1 %10, label %bb4, label %bb5, !dbg !1216

bb4:                                              ; preds = %bb3
  store i8 1, i8* %_7, align 1, !dbg !1216
  br label %bb6, !dbg !1216

bb5:                                              ; preds = %bb3
  %11 = getelementptr inbounds %"core::num::dec2flt::decimal::Decimal", %"core::num::dec2flt::decimal::Decimal"* %d, i32 0, i32 1, !dbg !1217
  %_10 = load i32, i32* %11, align 8, !dbg !1217
  %_9 = icmp slt i32 %_10, -324, !dbg !1217
  %12 = zext i1 %_9 to i8, !dbg !1216
  store i8 %12, i8* %_7, align 1, !dbg !1216
  br label %bb6, !dbg !1216

bb6:                                              ; preds = %bb4, %bb5
  %13 = load i8, i8* %_7, align 1, !dbg !1216, !range !266, !noundef !19
  %14 = trunc i8 %13 to i1, !dbg !1216
  br i1 %14, label %bb7, label %bb8, !dbg !1216

bb8:                                              ; preds = %bb6
  %15 = getelementptr inbounds %"core::num::dec2flt::decimal::Decimal", %"core::num::dec2flt::decimal::Decimal"* %d, i32 0, i32 1, !dbg !1218
  %_12 = load i32, i32* %15, align 8, !dbg !1218
  %_11 = icmp sge i32 %_12, 310, !dbg !1218
  br i1 %_11, label %bb9, label %bb10, !dbg !1218

bb7:                                              ; preds = %bb6
  %16 = getelementptr inbounds { i64, i32 }, { i64, i32 }* %0, i32 0, i32 0, !dbg !1219
  store i64 %fp_zero.0, i64* %16, align 8, !dbg !1219
  %17 = getelementptr inbounds { i64, i32 }, { i64, i32 }* %0, i32 0, i32 1, !dbg !1219
  store i32 %fp_zero.1, i32* %17, align 8, !dbg !1219
  br label %bb53, !dbg !1220

bb53:                                             ; preds = %bb9, %bb7
  br label %bb54, !dbg !1221

bb10:                                             ; preds = %bb8
  store i32 0, i32* %exp2, align 4, !dbg !1224
  br label %bb11, !dbg !1225

bb9:                                              ; preds = %bb8
  %18 = getelementptr inbounds { i64, i32 }, { i64, i32 }* %0, i32 0, i32 0, !dbg !1226
  store i64 %fp_inf.0, i64* %18, align 8, !dbg !1226
  %19 = getelementptr inbounds { i64, i32 }, { i64, i32 }* %0, i32 0, i32 1, !dbg !1226
  store i32 %fp_inf.1, i32* %19, align 8, !dbg !1226
  br label %bb53, !dbg !1221

bb54:                                             ; preds = %bb52, %bb53
  br label %bb55, !dbg !1227

bb11:                                             ; preds = %bb16, %bb10
  %20 = getelementptr inbounds %"core::num::dec2flt::decimal::Decimal", %"core::num::dec2flt::decimal::Decimal"* %d, i32 0, i32 1, !dbg !1228
  %_15 = load i32, i32* %20, align 8, !dbg !1228
  %_14 = icmp sgt i32 %_15, 0, !dbg !1228
  br i1 %_14, label %bb12, label %bb17, !dbg !1228

bb17:                                             ; preds = %bb11
  br label %bb18, !dbg !1229

bb12:                                             ; preds = %bb11
  %21 = getelementptr inbounds %"core::num::dec2flt::decimal::Decimal", %"core::num::dec2flt::decimal::Decimal"* %d, i32 0, i32 1, !dbg !1230
  %_17 = load i32, i32* %21, align 8, !dbg !1230
  %n1 = sext i32 %_17 to i64, !dbg !1230
  store i64 %n1, i64* %n.dbg.spill, align 8, !dbg !1230
  call void @llvm.dbg.declare(metadata i64* %n.dbg.spill, metadata !1186, metadata !DIExpression()), !dbg !1231
  store i64 %n1, i64* %_20, align 8, !dbg !1232
  %22 = load i64, i64* %_20, align 8, !dbg !1232
; call core::num::dec2flt::slow::parse_long_mantissa::{{closure}}
  %shift2 = call i64 @"_ZN4core3num7dec2flt4slow19parse_long_mantissa28_$u7b$$u7b$closure$u7d$$u7d$17h75f79c57090ebb62E"(%"[closure@core::num::dec2flt::slow::parse_long_mantissa<f32>::{closure#0}]"* align 1 %get_shift, i64 %22), !dbg !1232
  store i64 %shift2, i64* %shift.dbg.spill, align 8, !dbg !1232
  call void @llvm.dbg.declare(metadata i64* %shift.dbg.spill, metadata !1188, metadata !DIExpression()), !dbg !1233
  br label %bb13, !dbg !1232

bb13:                                             ; preds = %bb12
; call core::num::dec2flt::decimal::Decimal::right_shift
  call void @_ZN4core3num7dec2flt7decimal7Decimal11right_shift17ha78a92e3c7a8e301E(%"core::num::dec2flt::decimal::Decimal"* align 8 %d, i64 %shift2), !dbg !1234
  br label %bb14, !dbg !1234

bb14:                                             ; preds = %bb13
  %23 = getelementptr inbounds %"core::num::dec2flt::decimal::Decimal", %"core::num::dec2flt::decimal::Decimal"* %d, i32 0, i32 1, !dbg !1235
  %_26 = load i32, i32* %23, align 8, !dbg !1235
  %_25 = icmp slt i32 %_26, -2047, !dbg !1235
  br i1 %_25, label %bb15, label %bb16, !dbg !1235

bb16:                                             ; preds = %bb14
  %_28 = trunc i64 %shift2 to i32, !dbg !1236
  %24 = load i32, i32* %exp2, align 4, !dbg !1237
  %25 = add i32 %24, %_28, !dbg !1237
  store i32 %25, i32* %exp2, align 4, !dbg !1237
  br label %bb11, !dbg !1225

bb15:                                             ; preds = %bb14
  %26 = getelementptr inbounds { i64, i32 }, { i64, i32 }* %0, i32 0, i32 0, !dbg !1238
  store i64 %fp_zero.0, i64* %26, align 8, !dbg !1238
  %27 = getelementptr inbounds { i64, i32 }, { i64, i32 }* %0, i32 0, i32 1, !dbg !1238
  store i32 %fp_zero.1, i32* %27, align 8, !dbg !1238
  br label %bb52, !dbg !1239

bb52:                                             ; preds = %bb47, %bb40, %bb30, %bb15
  br label %bb54, !dbg !1221

bb18:                                             ; preds = %bb31, %bb17
  %28 = getelementptr inbounds %"core::num::dec2flt::decimal::Decimal", %"core::num::dec2flt::decimal::Decimal"* %d, i32 0, i32 1, !dbg !1241
  %_31 = load i32, i32* %28, align 8, !dbg !1241
  %_30 = icmp sle i32 %_31, 0, !dbg !1241
  br i1 %_30, label %bb19, label %bb32, !dbg !1241

bb32:                                             ; preds = %bb18
  br label %bb33, !dbg !1239

bb19:                                             ; preds = %bb18
  %29 = getelementptr inbounds %"core::num::dec2flt::decimal::Decimal", %"core::num::dec2flt::decimal::Decimal"* %d, i32 0, i32 1, !dbg !1242
  %_33 = load i32, i32* %29, align 8, !dbg !1242
  %30 = icmp eq i32 %_33, 0, !dbg !1242
  br i1 %30, label %bb20, label %bb26, !dbg !1242

bb20:                                             ; preds = %bb19
  %31 = getelementptr inbounds %"core::num::dec2flt::decimal::Decimal", %"core::num::dec2flt::decimal::Decimal"* %d, i32 0, i32 3, !dbg !1243
  %digit = getelementptr inbounds [768 x i8], [768 x i8]* %31, i64 0, i64 0, !dbg !1243
  store i8* %digit, i8** %digit.dbg.spill, align 8, !dbg !1243
  call void @llvm.dbg.declare(metadata i8** %digit.dbg.spill, metadata !1194, metadata !DIExpression()), !dbg !1244
  %_38 = load i8, i8* %digit, align 1, !dbg !1245
  %_37 = icmp uge i8 %_38, 5, !dbg !1245
  br i1 %_37, label %bb22, label %bb23, !dbg !1245

bb26:                                             ; preds = %bb19
  %32 = getelementptr inbounds %"core::num::dec2flt::decimal::Decimal", %"core::num::dec2flt::decimal::Decimal"* %d, i32 0, i32 1, !dbg !1246
  %_44 = load i32, i32* %32, align 8, !dbg !1246
  %_43 = sub i32 0, %_44, !dbg !1247
  %_42 = sext i32 %_43 to i64, !dbg !1247
  store i64 %_42, i64* %_40, align 8, !dbg !1248
  %33 = load i64, i64* %_40, align 8, !dbg !1248
; call core::num::dec2flt::slow::parse_long_mantissa::{{closure}}
  %34 = call i64 @"_ZN4core3num7dec2flt4slow19parse_long_mantissa28_$u7b$$u7b$closure$u7d$$u7d$17h75f79c57090ebb62E"(%"[closure@core::num::dec2flt::slow::parse_long_mantissa<f32>::{closure#0}]"* align 1 %get_shift, i64 %33), !dbg !1248
  store i64 %34, i64* %shift, align 8, !dbg !1248
  br label %bb27, !dbg !1248

bb27:                                             ; preds = %bb26
  br label %bb28, !dbg !1249

bb28:                                             ; preds = %bb25, %bb27
  %_47 = load i64, i64* %shift, align 8, !dbg !1250
; call core::num::dec2flt::decimal::Decimal::left_shift
  call void @_ZN4core3num7dec2flt7decimal7Decimal10left_shift17h364ee52e1cf58023E(%"core::num::dec2flt::decimal::Decimal"* align 8 %d, i64 %_47), !dbg !1251
  br label %bb29, !dbg !1251

bb23:                                             ; preds = %bb20
  %35 = getelementptr inbounds %"core::num::dec2flt::decimal::Decimal", %"core::num::dec2flt::decimal::Decimal"* %d, i32 0, i32 3, !dbg !1252
  %36 = getelementptr inbounds [768 x i8], [768 x i8]* %35, i64 0, i64 0, !dbg !1252
  %37 = load i8, i8* %36, align 1, !dbg !1252
  switch i8 %37, label %bb21 [
    i8 0, label %bb24
    i8 1, label %bb24
  ], !dbg !1252

bb22:                                             ; preds = %bb20
  br label %bb33, !dbg !1239

bb33:                                             ; preds = %bb32, %bb22
  %38 = load i32, i32* %exp2, align 4, !dbg !1253
  %39 = sub i32 %38, 1, !dbg !1253
  store i32 %39, i32* %exp2, align 4, !dbg !1253
  br label %bb34, !dbg !1254

bb21:                                             ; preds = %bb23
  store i64 1, i64* %shift, align 8, !dbg !1255
  br label %bb25, !dbg !1255

bb24:                                             ; preds = %bb23, %bb23
  store i64 2, i64* %shift, align 8, !dbg !1256
  br label %bb25, !dbg !1256

bb25:                                             ; preds = %bb24, %bb21
  br label %bb28, !dbg !1249

bb29:                                             ; preds = %bb28
  %40 = getelementptr inbounds %"core::num::dec2flt::decimal::Decimal", %"core::num::dec2flt::decimal::Decimal"* %d, i32 0, i32 1, !dbg !1257
  %_49 = load i32, i32* %40, align 8, !dbg !1257
  %_48 = icmp sgt i32 %_49, 2047, !dbg !1257
  br i1 %_48, label %bb30, label %bb31, !dbg !1257

bb31:                                             ; preds = %bb29
  %_51 = load i64, i64* %shift, align 8, !dbg !1258
  %_50 = trunc i64 %_51 to i32, !dbg !1258
  %41 = load i32, i32* %exp2, align 4, !dbg !1259
  %42 = sub i32 %41, %_50, !dbg !1259
  store i32 %42, i32* %exp2, align 4, !dbg !1259
  br label %bb18, !dbg !1229

bb30:                                             ; preds = %bb29
  %43 = getelementptr inbounds { i64, i32 }, { i64, i32 }* %0, i32 0, i32 0, !dbg !1260
  store i64 %fp_inf.0, i64* %43, align 8, !dbg !1260
  %44 = getelementptr inbounds { i64, i32 }, { i64, i32 }* %0, i32 0, i32 1, !dbg !1260
  store i32 %fp_inf.1, i32* %44, align 8, !dbg !1260
  br label %bb52, !dbg !1239

bb34:                                             ; preds = %bb38, %bb33
  %_54 = load i32, i32* %exp2, align 4, !dbg !1261
  %_52 = icmp sgt i32 -126, %_54, !dbg !1262
  br i1 %_52, label %bb35, label %bb39, !dbg !1262

bb39:                                             ; preds = %bb34
  %_68 = load i32, i32* %exp2, align 4, !dbg !1263
  %_67 = sub i32 %_68, -127, !dbg !1264
  %_66 = icmp sge i32 %_67, 255, !dbg !1264
  br i1 %_66, label %bb40, label %bb41, !dbg !1264

bb35:                                             ; preds = %bb34
  %_58 = load i32, i32* %exp2, align 4, !dbg !1265
  %_56 = sub i32 -126, %_58, !dbg !1266
  %45 = sext i32 %_56 to i64, !dbg !1266
  store i64 %45, i64* %n, align 8, !dbg !1266
  %_60 = load i64, i64* %n, align 8, !dbg !1267
  %_59 = icmp ugt i64 %_60, 60, !dbg !1267
  br i1 %_59, label %bb36, label %bb37, !dbg !1267

bb37:                                             ; preds = %bb36, %bb35
  %_63 = load i64, i64* %n, align 8, !dbg !1268
; call core::num::dec2flt::decimal::Decimal::right_shift
  call void @_ZN4core3num7dec2flt7decimal7Decimal11right_shift17ha78a92e3c7a8e301E(%"core::num::dec2flt::decimal::Decimal"* align 8 %d, i64 %_63), !dbg !1269
  br label %bb38, !dbg !1269

bb36:                                             ; preds = %bb35
  store i64 60, i64* %n, align 8, !dbg !1270
  br label %bb37, !dbg !1271

bb38:                                             ; preds = %bb37
  %_65 = load i64, i64* %n, align 8, !dbg !1272
  %_64 = trunc i64 %_65 to i32, !dbg !1272
  %46 = load i32, i32* %exp2, align 4, !dbg !1273
  %47 = add i32 %46, %_64, !dbg !1273
  store i32 %47, i32* %exp2, align 4, !dbg !1273
  br label %bb34, !dbg !1254

bb41:                                             ; preds = %bb39
; call core::num::dec2flt::decimal::Decimal::left_shift
  call void @_ZN4core3num7dec2flt7decimal7Decimal10left_shift17h364ee52e1cf58023E(%"core::num::dec2flt::decimal::Decimal"* align 8 %d, i64 24), !dbg !1274
  br label %bb42, !dbg !1274

bb40:                                             ; preds = %bb39
  %48 = getelementptr inbounds { i64, i32 }, { i64, i32 }* %0, i32 0, i32 0, !dbg !1275
  store i64 %fp_inf.0, i64* %48, align 8, !dbg !1275
  %49 = getelementptr inbounds { i64, i32 }, { i64, i32 }* %0, i32 0, i32 1, !dbg !1275
  store i32 %fp_inf.1, i32* %49, align 8, !dbg !1275
  br label %bb52, !dbg !1239

bb42:                                             ; preds = %bb41
; call core::num::dec2flt::decimal::Decimal::round
  %50 = call i64 @_ZN4core3num7dec2flt7decimal7Decimal5round17h8282f629b6a14406E(%"core::num::dec2flt::decimal::Decimal"* align 8 %d), !dbg !1276
  store i64 %50, i64* %mantissa, align 8, !dbg !1276
  br label %bb43, !dbg !1276

bb43:                                             ; preds = %bb42
  %_75 = load i64, i64* %mantissa, align 8, !dbg !1277
  %_74 = icmp uge i64 %_75, 16777216, !dbg !1277
  br i1 %_74, label %bb44, label %bb49, !dbg !1277

bb49:                                             ; preds = %bb48, %bb43
  %_86 = load i32, i32* %exp2, align 4, !dbg !1278
  %51 = sub i32 %_86, -127, !dbg !1278
  store i32 %51, i32* %power2, align 4, !dbg !1278
  %_88 = load i64, i64* %mantissa, align 8, !dbg !1279
  %_87 = icmp ult i64 %_88, 8388608, !dbg !1279
  br i1 %_87, label %bb50, label %bb51, !dbg !1279

bb44:                                             ; preds = %bb43
; call core::num::dec2flt::decimal::Decimal::right_shift
  call void @_ZN4core3num7dec2flt7decimal7Decimal11right_shift17ha78a92e3c7a8e301E(%"core::num::dec2flt::decimal::Decimal"* align 8 %d, i64 1), !dbg !1280
  br label %bb45, !dbg !1280

bb45:                                             ; preds = %bb44
  %52 = load i32, i32* %exp2, align 4, !dbg !1281
  %53 = add i32 %52, 1, !dbg !1281
  store i32 %53, i32* %exp2, align 4, !dbg !1281
; call core::num::dec2flt::decimal::Decimal::round
  %_80 = call i64 @_ZN4core3num7dec2flt7decimal7Decimal5round17h8282f629b6a14406E(%"core::num::dec2flt::decimal::Decimal"* align 8 %d), !dbg !1282
  br label %bb46, !dbg !1282

bb46:                                             ; preds = %bb45
  store i64 %_80, i64* %mantissa, align 8, !dbg !1283
  %_84 = load i32, i32* %exp2, align 4, !dbg !1284
  %_83 = sub i32 %_84, -127, !dbg !1285
  %_82 = icmp sge i32 %_83, 255, !dbg !1285
  br i1 %_82, label %bb47, label %bb48, !dbg !1285

bb48:                                             ; preds = %bb46
  br label %bb49, !dbg !1286

bb47:                                             ; preds = %bb46
  %54 = getelementptr inbounds { i64, i32 }, { i64, i32 }* %0, i32 0, i32 0, !dbg !1287
  store i64 %fp_inf.0, i64* %54, align 8, !dbg !1287
  %55 = getelementptr inbounds { i64, i32 }, { i64, i32 }* %0, i32 0, i32 1, !dbg !1287
  store i32 %fp_inf.1, i32* %55, align 8, !dbg !1287
  br label %bb52, !dbg !1239

bb55:                                             ; preds = %bb51, %bb54
  %56 = getelementptr inbounds { i64, i32 }, { i64, i32 }* %0, i32 0, i32 0, !dbg !1227
  %57 = load i64, i64* %56, align 8, !dbg !1227
  %58 = getelementptr inbounds { i64, i32 }, { i64, i32 }* %0, i32 0, i32 1, !dbg !1227
  %59 = load i32, i32* %58, align 8, !dbg !1227
  %60 = insertvalue { i64, i32 } undef, i64 %57, 0, !dbg !1227
  %61 = insertvalue { i64, i32 } %60, i32 %59, 1, !dbg !1227
  ret { i64, i32 } %61, !dbg !1227

bb51:                                             ; preds = %bb50, %bb49
  %62 = load i64, i64* %mantissa, align 8, !dbg !1288
  %63 = and i64 %62, 8388607, !dbg !1288
  store i64 %63, i64* %mantissa, align 8, !dbg !1288
  %_92 = load i64, i64* %mantissa, align 8, !dbg !1289
  %_93 = load i32, i32* %power2, align 4, !dbg !1290
  %64 = bitcast { i64, i32 }* %0 to i64*, !dbg !1291
  store i64 %_92, i64* %64, align 8, !dbg !1291
  %65 = getelementptr inbounds { i64, i32 }, { i64, i32 }* %0, i32 0, i32 1, !dbg !1291
  store i32 %_93, i32* %65, align 8, !dbg !1291
  br label %bb55, !dbg !1227

bb50:                                             ; preds = %bb49
  %66 = load i32, i32* %power2, align 4, !dbg !1292
  %67 = sub i32 %66, 1, !dbg !1292
  store i32 %67, i32* %power2, align 4, !dbg !1292
  br label %bb51, !dbg !1293
}

; core::num::dec2flt::slow::parse_long_mantissa
; Function Attrs: nonlazybind uwtable
define { i64, i32 } @_ZN4core3num7dec2flt4slow19parse_long_mantissa17hf4d7f84352164288E([0 x i8]* align 1 %s.0, i64 %s.1) unnamed_addr #1 !dbg !1294 {
start:
  %digit.dbg.spill = alloca i8*, align 8
  %shift.dbg.spill = alloca i64, align 8
  %n.dbg.spill = alloca i64, align 8
  %fp_inf.dbg.spill = alloca { i64, i32 }, align 8
  %fp_zero.dbg.spill = alloca { i64, i32 }, align 8
  %s.dbg.spill = alloca { [0 x i8]*, i64 }, align 8
  %power2 = alloca i32, align 4
  %mantissa = alloca i64, align 8
  %n = alloca i64, align 8
  %_40 = alloca i64, align 8
  %shift = alloca i64, align 8
  %_20 = alloca i64, align 8
  %exp2 = alloca i32, align 4
  %_7 = alloca i8, align 1
  %d = alloca %"core::num::dec2flt::decimal::Decimal", align 8
  %get_shift = alloca %"[closure@core::num::dec2flt::slow::parse_long_mantissa<f64>::{closure#0}]", align 1
  %0 = alloca { i64, i32 }, align 8
  %1 = getelementptr inbounds { [0 x i8]*, i64 }, { [0 x i8]*, i64 }* %s.dbg.spill, i32 0, i32 0
  store [0 x i8]* %s.0, [0 x i8]** %1, align 8
  %2 = getelementptr inbounds { [0 x i8]*, i64 }, { [0 x i8]*, i64 }* %s.dbg.spill, i32 0, i32 1
  store i64 %s.1, i64* %2, align 8
  call void @llvm.dbg.declare(metadata { [0 x i8]*, i64 }* %s.dbg.spill, metadata !1296, metadata !DIExpression()), !dbg !1325
  call void @llvm.dbg.declare(metadata %"[closure@core::num::dec2flt::slow::parse_long_mantissa<f64>::{closure#0}]"* %get_shift, metadata !1297, metadata !DIExpression()), !dbg !1326
  call void @llvm.dbg.declare(metadata %"core::num::dec2flt::decimal::Decimal"* %d, metadata !1304, metadata !DIExpression()), !dbg !1327
  call void @llvm.dbg.declare(metadata i32* %exp2, metadata !1306, metadata !DIExpression()), !dbg !1328
  call void @llvm.dbg.declare(metadata i64* %shift, metadata !1312, metadata !DIExpression()), !dbg !1329
  call void @llvm.dbg.declare(metadata i64* %n, metadata !1317, metadata !DIExpression()), !dbg !1330
  call void @llvm.dbg.declare(metadata i64* %mantissa, metadata !1319, metadata !DIExpression()), !dbg !1331
  call void @llvm.dbg.declare(metadata i32* %power2, metadata !1321, metadata !DIExpression()), !dbg !1332
; call core::num::dec2flt::common::BiasedFp::zero_pow2
  %3 = call { i64, i32 } @_ZN4core3num7dec2flt6common8BiasedFp9zero_pow217he9d0af27d074a382E(i32 0), !dbg !1333
  %fp_zero.0 = extractvalue { i64, i32 } %3, 0, !dbg !1333
  %fp_zero.1 = extractvalue { i64, i32 } %3, 1, !dbg !1333
  %4 = getelementptr inbounds { i64, i32 }, { i64, i32 }* %fp_zero.dbg.spill, i32 0, i32 0, !dbg !1333
  store i64 %fp_zero.0, i64* %4, align 8, !dbg !1333
  %5 = getelementptr inbounds { i64, i32 }, { i64, i32 }* %fp_zero.dbg.spill, i32 0, i32 1, !dbg !1333
  store i32 %fp_zero.1, i32* %5, align 8, !dbg !1333
  call void @llvm.dbg.declare(metadata { i64, i32 }* %fp_zero.dbg.spill, metadata !1300, metadata !DIExpression()), !dbg !1334
  br label %bb1, !dbg !1333

bb1:                                              ; preds = %start
; call core::num::dec2flt::common::BiasedFp::zero_pow2
  %6 = call { i64, i32 } @_ZN4core3num7dec2flt6common8BiasedFp9zero_pow217he9d0af27d074a382E(i32 2047), !dbg !1335
  %fp_inf.0 = extractvalue { i64, i32 } %6, 0, !dbg !1335
  %fp_inf.1 = extractvalue { i64, i32 } %6, 1, !dbg !1335
  %7 = getelementptr inbounds { i64, i32 }, { i64, i32 }* %fp_inf.dbg.spill, i32 0, i32 0, !dbg !1335
  store i64 %fp_inf.0, i64* %7, align 8, !dbg !1335
  %8 = getelementptr inbounds { i64, i32 }, { i64, i32 }* %fp_inf.dbg.spill, i32 0, i32 1, !dbg !1335
  store i32 %fp_inf.1, i32* %8, align 8, !dbg !1335
  call void @llvm.dbg.declare(metadata { i64, i32 }* %fp_inf.dbg.spill, metadata !1302, metadata !DIExpression()), !dbg !1336
  br label %bb2, !dbg !1335

bb2:                                              ; preds = %bb1
; call core::num::dec2flt::decimal::parse_decimal
  call void @_ZN4core3num7dec2flt7decimal13parse_decimal17hf4914cdf3def232bE(%"core::num::dec2flt::decimal::Decimal"* sret(%"core::num::dec2flt::decimal::Decimal") %d, [0 x i8]* align 1 %s.0, i64 %s.1), !dbg !1337
  br label %bb3, !dbg !1337

bb3:                                              ; preds = %bb2
  %9 = bitcast %"core::num::dec2flt::decimal::Decimal"* %d to i64*, !dbg !1338
  %_8 = load i64, i64* %9, align 8, !dbg !1338
  %10 = icmp eq i64 %_8, 0, !dbg !1338
  br i1 %10, label %bb4, label %bb5, !dbg !1338

bb4:                                              ; preds = %bb3
  store i8 1, i8* %_7, align 1, !dbg !1338
  br label %bb6, !dbg !1338

bb5:                                              ; preds = %bb3
  %11 = getelementptr inbounds %"core::num::dec2flt::decimal::Decimal", %"core::num::dec2flt::decimal::Decimal"* %d, i32 0, i32 1, !dbg !1339
  %_10 = load i32, i32* %11, align 8, !dbg !1339
  %_9 = icmp slt i32 %_10, -324, !dbg !1339
  %12 = zext i1 %_9 to i8, !dbg !1338
  store i8 %12, i8* %_7, align 1, !dbg !1338
  br label %bb6, !dbg !1338

bb6:                                              ; preds = %bb4, %bb5
  %13 = load i8, i8* %_7, align 1, !dbg !1338, !range !266, !noundef !19
  %14 = trunc i8 %13 to i1, !dbg !1338
  br i1 %14, label %bb7, label %bb8, !dbg !1338

bb8:                                              ; preds = %bb6
  %15 = getelementptr inbounds %"core::num::dec2flt::decimal::Decimal", %"core::num::dec2flt::decimal::Decimal"* %d, i32 0, i32 1, !dbg !1340
  %_12 = load i32, i32* %15, align 8, !dbg !1340
  %_11 = icmp sge i32 %_12, 310, !dbg !1340
  br i1 %_11, label %bb9, label %bb10, !dbg !1340

bb7:                                              ; preds = %bb6
  %16 = getelementptr inbounds { i64, i32 }, { i64, i32 }* %0, i32 0, i32 0, !dbg !1341
  store i64 %fp_zero.0, i64* %16, align 8, !dbg !1341
  %17 = getelementptr inbounds { i64, i32 }, { i64, i32 }* %0, i32 0, i32 1, !dbg !1341
  store i32 %fp_zero.1, i32* %17, align 8, !dbg !1341
  br label %bb53, !dbg !1342

bb53:                                             ; preds = %bb9, %bb7
  br label %bb54, !dbg !1343

bb10:                                             ; preds = %bb8
  store i32 0, i32* %exp2, align 4, !dbg !1345
  br label %bb11, !dbg !1346

bb9:                                              ; preds = %bb8
  %18 = getelementptr inbounds { i64, i32 }, { i64, i32 }* %0, i32 0, i32 0, !dbg !1347
  store i64 %fp_inf.0, i64* %18, align 8, !dbg !1347
  %19 = getelementptr inbounds { i64, i32 }, { i64, i32 }* %0, i32 0, i32 1, !dbg !1347
  store i32 %fp_inf.1, i32* %19, align 8, !dbg !1347
  br label %bb53, !dbg !1343

bb54:                                             ; preds = %bb52, %bb53
  br label %bb55, !dbg !1348

bb11:                                             ; preds = %bb16, %bb10
  %20 = getelementptr inbounds %"core::num::dec2flt::decimal::Decimal", %"core::num::dec2flt::decimal::Decimal"* %d, i32 0, i32 1, !dbg !1349
  %_15 = load i32, i32* %20, align 8, !dbg !1349
  %_14 = icmp sgt i32 %_15, 0, !dbg !1349
  br i1 %_14, label %bb12, label %bb17, !dbg !1349

bb17:                                             ; preds = %bb11
  br label %bb18, !dbg !1350

bb12:                                             ; preds = %bb11
  %21 = getelementptr inbounds %"core::num::dec2flt::decimal::Decimal", %"core::num::dec2flt::decimal::Decimal"* %d, i32 0, i32 1, !dbg !1351
  %_17 = load i32, i32* %21, align 8, !dbg !1351
  %n1 = sext i32 %_17 to i64, !dbg !1351
  store i64 %n1, i64* %n.dbg.spill, align 8, !dbg !1351
  call void @llvm.dbg.declare(metadata i64* %n.dbg.spill, metadata !1308, metadata !DIExpression()), !dbg !1352
  store i64 %n1, i64* %_20, align 8, !dbg !1353
  %22 = load i64, i64* %_20, align 8, !dbg !1353
; call core::num::dec2flt::slow::parse_long_mantissa::{{closure}}
  %shift2 = call i64 @"_ZN4core3num7dec2flt4slow19parse_long_mantissa28_$u7b$$u7b$closure$u7d$$u7d$17h428c76813a9a5625E"(%"[closure@core::num::dec2flt::slow::parse_long_mantissa<f64>::{closure#0}]"* align 1 %get_shift, i64 %22), !dbg !1353
  store i64 %shift2, i64* %shift.dbg.spill, align 8, !dbg !1353
  call void @llvm.dbg.declare(metadata i64* %shift.dbg.spill, metadata !1310, metadata !DIExpression()), !dbg !1354
  br label %bb13, !dbg !1353

bb13:                                             ; preds = %bb12
; call core::num::dec2flt::decimal::Decimal::right_shift
  call void @_ZN4core3num7dec2flt7decimal7Decimal11right_shift17ha78a92e3c7a8e301E(%"core::num::dec2flt::decimal::Decimal"* align 8 %d, i64 %shift2), !dbg !1355
  br label %bb14, !dbg !1355

bb14:                                             ; preds = %bb13
  %23 = getelementptr inbounds %"core::num::dec2flt::decimal::Decimal", %"core::num::dec2flt::decimal::Decimal"* %d, i32 0, i32 1, !dbg !1356
  %_26 = load i32, i32* %23, align 8, !dbg !1356
  %_25 = icmp slt i32 %_26, -2047, !dbg !1356
  br i1 %_25, label %bb15, label %bb16, !dbg !1356

bb16:                                             ; preds = %bb14
  %_28 = trunc i64 %shift2 to i32, !dbg !1357
  %24 = load i32, i32* %exp2, align 4, !dbg !1358
  %25 = add i32 %24, %_28, !dbg !1358
  store i32 %25, i32* %exp2, align 4, !dbg !1358
  br label %bb11, !dbg !1346

bb15:                                             ; preds = %bb14
  %26 = getelementptr inbounds { i64, i32 }, { i64, i32 }* %0, i32 0, i32 0, !dbg !1359
  store i64 %fp_zero.0, i64* %26, align 8, !dbg !1359
  %27 = getelementptr inbounds { i64, i32 }, { i64, i32 }* %0, i32 0, i32 1, !dbg !1359
  store i32 %fp_zero.1, i32* %27, align 8, !dbg !1359
  br label %bb52, !dbg !1360

bb52:                                             ; preds = %bb47, %bb40, %bb30, %bb15
  br label %bb54, !dbg !1343

bb18:                                             ; preds = %bb31, %bb17
  %28 = getelementptr inbounds %"core::num::dec2flt::decimal::Decimal", %"core::num::dec2flt::decimal::Decimal"* %d, i32 0, i32 1, !dbg !1362
  %_31 = load i32, i32* %28, align 8, !dbg !1362
  %_30 = icmp sle i32 %_31, 0, !dbg !1362
  br i1 %_30, label %bb19, label %bb32, !dbg !1362

bb32:                                             ; preds = %bb18
  br label %bb33, !dbg !1360

bb19:                                             ; preds = %bb18
  %29 = getelementptr inbounds %"core::num::dec2flt::decimal::Decimal", %"core::num::dec2flt::decimal::Decimal"* %d, i32 0, i32 1, !dbg !1363
  %_33 = load i32, i32* %29, align 8, !dbg !1363
  %30 = icmp eq i32 %_33, 0, !dbg !1363
  br i1 %30, label %bb20, label %bb26, !dbg !1363

bb20:                                             ; preds = %bb19
  %31 = getelementptr inbounds %"core::num::dec2flt::decimal::Decimal", %"core::num::dec2flt::decimal::Decimal"* %d, i32 0, i32 3, !dbg !1364
  %digit = getelementptr inbounds [768 x i8], [768 x i8]* %31, i64 0, i64 0, !dbg !1364
  store i8* %digit, i8** %digit.dbg.spill, align 8, !dbg !1364
  call void @llvm.dbg.declare(metadata i8** %digit.dbg.spill, metadata !1316, metadata !DIExpression()), !dbg !1365
  %_38 = load i8, i8* %digit, align 1, !dbg !1366
  %_37 = icmp uge i8 %_38, 5, !dbg !1366
  br i1 %_37, label %bb22, label %bb23, !dbg !1366

bb26:                                             ; preds = %bb19
  %32 = getelementptr inbounds %"core::num::dec2flt::decimal::Decimal", %"core::num::dec2flt::decimal::Decimal"* %d, i32 0, i32 1, !dbg !1367
  %_44 = load i32, i32* %32, align 8, !dbg !1367
  %_43 = sub i32 0, %_44, !dbg !1368
  %_42 = sext i32 %_43 to i64, !dbg !1368
  store i64 %_42, i64* %_40, align 8, !dbg !1369
  %33 = load i64, i64* %_40, align 8, !dbg !1369
; call core::num::dec2flt::slow::parse_long_mantissa::{{closure}}
  %34 = call i64 @"_ZN4core3num7dec2flt4slow19parse_long_mantissa28_$u7b$$u7b$closure$u7d$$u7d$17h428c76813a9a5625E"(%"[closure@core::num::dec2flt::slow::parse_long_mantissa<f64>::{closure#0}]"* align 1 %get_shift, i64 %33), !dbg !1369
  store i64 %34, i64* %shift, align 8, !dbg !1369
  br label %bb27, !dbg !1369

bb27:                                             ; preds = %bb26
  br label %bb28, !dbg !1370

bb28:                                             ; preds = %bb25, %bb27
  %_47 = load i64, i64* %shift, align 8, !dbg !1371
; call core::num::dec2flt::decimal::Decimal::left_shift
  call void @_ZN4core3num7dec2flt7decimal7Decimal10left_shift17h364ee52e1cf58023E(%"core::num::dec2flt::decimal::Decimal"* align 8 %d, i64 %_47), !dbg !1372
  br label %bb29, !dbg !1372

bb23:                                             ; preds = %bb20
  %35 = getelementptr inbounds %"core::num::dec2flt::decimal::Decimal", %"core::num::dec2flt::decimal::Decimal"* %d, i32 0, i32 3, !dbg !1373
  %36 = getelementptr inbounds [768 x i8], [768 x i8]* %35, i64 0, i64 0, !dbg !1373
  %37 = load i8, i8* %36, align 1, !dbg !1373
  switch i8 %37, label %bb21 [
    i8 0, label %bb24
    i8 1, label %bb24
  ], !dbg !1373

bb22:                                             ; preds = %bb20
  br label %bb33, !dbg !1360

bb33:                                             ; preds = %bb32, %bb22
  %38 = load i32, i32* %exp2, align 4, !dbg !1374
  %39 = sub i32 %38, 1, !dbg !1374
  store i32 %39, i32* %exp2, align 4, !dbg !1374
  br label %bb34, !dbg !1375

bb21:                                             ; preds = %bb23
  store i64 1, i64* %shift, align 8, !dbg !1376
  br label %bb25, !dbg !1376

bb24:                                             ; preds = %bb23, %bb23
  store i64 2, i64* %shift, align 8, !dbg !1377
  br label %bb25, !dbg !1377

bb25:                                             ; preds = %bb24, %bb21
  br label %bb28, !dbg !1370

bb29:                                             ; preds = %bb28
  %40 = getelementptr inbounds %"core::num::dec2flt::decimal::Decimal", %"core::num::dec2flt::decimal::Decimal"* %d, i32 0, i32 1, !dbg !1378
  %_49 = load i32, i32* %40, align 8, !dbg !1378
  %_48 = icmp sgt i32 %_49, 2047, !dbg !1378
  br i1 %_48, label %bb30, label %bb31, !dbg !1378

bb31:                                             ; preds = %bb29
  %_51 = load i64, i64* %shift, align 8, !dbg !1379
  %_50 = trunc i64 %_51 to i32, !dbg !1379
  %41 = load i32, i32* %exp2, align 4, !dbg !1380
  %42 = sub i32 %41, %_50, !dbg !1380
  store i32 %42, i32* %exp2, align 4, !dbg !1380
  br label %bb18, !dbg !1350

bb30:                                             ; preds = %bb29
  %43 = getelementptr inbounds { i64, i32 }, { i64, i32 }* %0, i32 0, i32 0, !dbg !1381
  store i64 %fp_inf.0, i64* %43, align 8, !dbg !1381
  %44 = getelementptr inbounds { i64, i32 }, { i64, i32 }* %0, i32 0, i32 1, !dbg !1381
  store i32 %fp_inf.1, i32* %44, align 8, !dbg !1381
  br label %bb52, !dbg !1360

bb34:                                             ; preds = %bb38, %bb33
  %_54 = load i32, i32* %exp2, align 4, !dbg !1382
  %_52 = icmp sgt i32 -1022, %_54, !dbg !1383
  br i1 %_52, label %bb35, label %bb39, !dbg !1383

bb39:                                             ; preds = %bb34
  %_68 = load i32, i32* %exp2, align 4, !dbg !1384
  %_67 = sub i32 %_68, -1023, !dbg !1385
  %_66 = icmp sge i32 %_67, 2047, !dbg !1385
  br i1 %_66, label %bb40, label %bb41, !dbg !1385

bb35:                                             ; preds = %bb34
  %_58 = load i32, i32* %exp2, align 4, !dbg !1386
  %_56 = sub i32 -1022, %_58, !dbg !1387
  %45 = sext i32 %_56 to i64, !dbg !1387
  store i64 %45, i64* %n, align 8, !dbg !1387
  %_60 = load i64, i64* %n, align 8, !dbg !1388
  %_59 = icmp ugt i64 %_60, 60, !dbg !1388
  br i1 %_59, label %bb36, label %bb37, !dbg !1388

bb37:                                             ; preds = %bb36, %bb35
  %_63 = load i64, i64* %n, align 8, !dbg !1389
; call core::num::dec2flt::decimal::Decimal::right_shift
  call void @_ZN4core3num7dec2flt7decimal7Decimal11right_shift17ha78a92e3c7a8e301E(%"core::num::dec2flt::decimal::Decimal"* align 8 %d, i64 %_63), !dbg !1390
  br label %bb38, !dbg !1390

bb36:                                             ; preds = %bb35
  store i64 60, i64* %n, align 8, !dbg !1391
  br label %bb37, !dbg !1392

bb38:                                             ; preds = %bb37
  %_65 = load i64, i64* %n, align 8, !dbg !1393
  %_64 = trunc i64 %_65 to i32, !dbg !1393
  %46 = load i32, i32* %exp2, align 4, !dbg !1394
  %47 = add i32 %46, %_64, !dbg !1394
  store i32 %47, i32* %exp2, align 4, !dbg !1394
  br label %bb34, !dbg !1375

bb41:                                             ; preds = %bb39
; call core::num::dec2flt::decimal::Decimal::left_shift
  call void @_ZN4core3num7dec2flt7decimal7Decimal10left_shift17h364ee52e1cf58023E(%"core::num::dec2flt::decimal::Decimal"* align 8 %d, i64 53), !dbg !1395
  br label %bb42, !dbg !1395

bb40:                                             ; preds = %bb39
  %48 = getelementptr inbounds { i64, i32 }, { i64, i32 }* %0, i32 0, i32 0, !dbg !1396
  store i64 %fp_inf.0, i64* %48, align 8, !dbg !1396
  %49 = getelementptr inbounds { i64, i32 }, { i64, i32 }* %0, i32 0, i32 1, !dbg !1396
  store i32 %fp_inf.1, i32* %49, align 8, !dbg !1396
  br label %bb52, !dbg !1360

bb42:                                             ; preds = %bb41
; call core::num::dec2flt::decimal::Decimal::round
  %50 = call i64 @_ZN4core3num7dec2flt7decimal7Decimal5round17h8282f629b6a14406E(%"core::num::dec2flt::decimal::Decimal"* align 8 %d), !dbg !1397
  store i64 %50, i64* %mantissa, align 8, !dbg !1397
  br label %bb43, !dbg !1397

bb43:                                             ; preds = %bb42
  %_75 = load i64, i64* %mantissa, align 8, !dbg !1398
  %_74 = icmp uge i64 %_75, 9007199254740992, !dbg !1398
  br i1 %_74, label %bb44, label %bb49, !dbg !1398

bb49:                                             ; preds = %bb48, %bb43
  %_86 = load i32, i32* %exp2, align 4, !dbg !1399
  %51 = sub i32 %_86, -1023, !dbg !1399
  store i32 %51, i32* %power2, align 4, !dbg !1399
  %_88 = load i64, i64* %mantissa, align 8, !dbg !1400
  %_87 = icmp ult i64 %_88, 4503599627370496, !dbg !1400
  br i1 %_87, label %bb50, label %bb51, !dbg !1400

bb44:                                             ; preds = %bb43
; call core::num::dec2flt::decimal::Decimal::right_shift
  call void @_ZN4core3num7dec2flt7decimal7Decimal11right_shift17ha78a92e3c7a8e301E(%"core::num::dec2flt::decimal::Decimal"* align 8 %d, i64 1), !dbg !1401
  br label %bb45, !dbg !1401

bb45:                                             ; preds = %bb44
  %52 = load i32, i32* %exp2, align 4, !dbg !1402
  %53 = add i32 %52, 1, !dbg !1402
  store i32 %53, i32* %exp2, align 4, !dbg !1402
; call core::num::dec2flt::decimal::Decimal::round
  %_80 = call i64 @_ZN4core3num7dec2flt7decimal7Decimal5round17h8282f629b6a14406E(%"core::num::dec2flt::decimal::Decimal"* align 8 %d), !dbg !1403
  br label %bb46, !dbg !1403

bb46:                                             ; preds = %bb45
  store i64 %_80, i64* %mantissa, align 8, !dbg !1404
  %_84 = load i32, i32* %exp2, align 4, !dbg !1405
  %_83 = sub i32 %_84, -1023, !dbg !1406
  %_82 = icmp sge i32 %_83, 2047, !dbg !1406
  br i1 %_82, label %bb47, label %bb48, !dbg !1406

bb48:                                             ; preds = %bb46
  br label %bb49, !dbg !1407

bb47:                                             ; preds = %bb46
  %54 = getelementptr inbounds { i64, i32 }, { i64, i32 }* %0, i32 0, i32 0, !dbg !1408
  store i64 %fp_inf.0, i64* %54, align 8, !dbg !1408
  %55 = getelementptr inbounds { i64, i32 }, { i64, i32 }* %0, i32 0, i32 1, !dbg !1408
  store i32 %fp_inf.1, i32* %55, align 8, !dbg !1408
  br label %bb52, !dbg !1360

bb55:                                             ; preds = %bb51, %bb54
  %56 = getelementptr inbounds { i64, i32 }, { i64, i32 }* %0, i32 0, i32 0, !dbg !1348
  %57 = load i64, i64* %56, align 8, !dbg !1348
  %58 = getelementptr inbounds { i64, i32 }, { i64, i32 }* %0, i32 0, i32 1, !dbg !1348
  %59 = load i32, i32* %58, align 8, !dbg !1348
  %60 = insertvalue { i64, i32 } undef, i64 %57, 0, !dbg !1348
  %61 = insertvalue { i64, i32 } %60, i32 %59, 1, !dbg !1348
  ret { i64, i32 } %61, !dbg !1348

bb51:                                             ; preds = %bb50, %bb49
  %62 = load i64, i64* %mantissa, align 8, !dbg !1409
  %63 = and i64 %62, 4503599627370495, !dbg !1409
  store i64 %63, i64* %mantissa, align 8, !dbg !1409
  %_92 = load i64, i64* %mantissa, align 8, !dbg !1410
  %_93 = load i32, i32* %power2, align 4, !dbg !1411
  %64 = bitcast { i64, i32 }* %0 to i64*, !dbg !1412
  store i64 %_92, i64* %64, align 8, !dbg !1412
  %65 = getelementptr inbounds { i64, i32 }, { i64, i32 }* %0, i32 0, i32 1, !dbg !1412
  store i32 %_93, i32* %65, align 8, !dbg !1412
  br label %bb55, !dbg !1348

bb50:                                             ; preds = %bb49
  %66 = load i32, i32* %power2, align 4, !dbg !1413
  %67 = sub i32 %66, 1, !dbg !1413
  store i32 %67, i32* %power2, align 4, !dbg !1413
  br label %bb51, !dbg !1414
}

; core::num::dec2flt::slow::parse_long_mantissa::{{closure}}
; Function Attrs: inlinehint nonlazybind uwtable
define i64 @"_ZN4core3num7dec2flt4slow19parse_long_mantissa28_$u7b$$u7b$closure$u7d$$u7d$17h428c76813a9a5625E"(%"[closure@core::num::dec2flt::slow::parse_long_mantissa<f64>::{closure#0}]"* align 1 %_1, i64 %n) unnamed_addr #0 !dbg !1415 {
start:
  %n.dbg.spill = alloca i64, align 8
  %_1.dbg.spill = alloca %"[closure@core::num::dec2flt::slow::parse_long_mantissa<f64>::{closure#0}]"*, align 8
  %_6 = alloca [19 x i8], align 1
  %0 = alloca i64, align 8
  store %"[closure@core::num::dec2flt::slow::parse_long_mantissa<f64>::{closure#0}]"* %_1, %"[closure@core::num::dec2flt::slow::parse_long_mantissa<f64>::{closure#0}]"** %_1.dbg.spill, align 8
  call void @llvm.dbg.declare(metadata %"[closure@core::num::dec2flt::slow::parse_long_mantissa<f64>::{closure#0}]"** %_1.dbg.spill, metadata !1421, metadata !DIExpression()), !dbg !1422
  store i64 %n, i64* %n.dbg.spill, align 8
  call void @llvm.dbg.declare(metadata i64* %n.dbg.spill, metadata !1420, metadata !DIExpression()), !dbg !1423
  %_3 = icmp ult i64 %n, 19, !dbg !1424
  br i1 %_3, label %bb1, label %bb3, !dbg !1424

bb3:                                              ; preds = %start
  store i64 60, i64* %0, align 8, !dbg !1425
  br label %bb4, !dbg !1426

bb1:                                              ; preds = %start
  %1 = bitcast [19 x i8]* %_6 to i8*, !dbg !1427
  call void @llvm.memcpy.p0i8.p0i8.i64(i8* align 1 %1, i8* align 1 getelementptr inbounds (<{ [19 x i8] }>, <{ [19 x i8] }>* @0, i32 0, i32 0, i32 0), i64 19, i1 false), !dbg !1427
  %_9 = icmp ult i64 %n, 19, !dbg !1427
  %2 = call i1 @llvm.expect.i1(i1 %_9, i1 true), !dbg !1427
  br i1 %2, label %bb2, label %panic, !dbg !1427

bb2:                                              ; preds = %bb1
  %3 = getelementptr inbounds [19 x i8], [19 x i8]* %_6, i64 0, i64 %n, !dbg !1427
  %_5 = load i8, i8* %3, align 1, !dbg !1427
  %4 = zext i8 %_5 to i64, !dbg !1427
  store i64 %4, i64* %0, align 8, !dbg !1427
  br label %bb4, !dbg !1426

panic:                                            ; preds = %bb1
; call core::panicking::panic_bounds_check
  call void @_ZN4core9panicking18panic_bounds_check17h66852fee8138fdc4E(i64 %n, i64 19, %"core::panic::location::Location"* align 8 bitcast (<{ i8*, [16 x i8] }>* @alloc6360 to %"core::panic::location::Location"*)) #7, !dbg !1427
  unreachable, !dbg !1427

bb4:                                              ; preds = %bb3, %bb2
  %5 = load i64, i64* %0, align 8, !dbg !1428
  ret i64 %5, !dbg !1428
}

; core::num::dec2flt::slow::parse_long_mantissa::{{closure}}
; Function Attrs: inlinehint nonlazybind uwtable
define i64 @"_ZN4core3num7dec2flt4slow19parse_long_mantissa28_$u7b$$u7b$closure$u7d$$u7d$17h75f79c57090ebb62E"(%"[closure@core::num::dec2flt::slow::parse_long_mantissa<f32>::{closure#0}]"* align 1 %_1, i64 %n) unnamed_addr #0 !dbg !1429 {
start:
  %n.dbg.spill = alloca i64, align 8
  %_1.dbg.spill = alloca %"[closure@core::num::dec2flt::slow::parse_long_mantissa<f32>::{closure#0}]"*, align 8
  %_6 = alloca [19 x i8], align 1
  %0 = alloca i64, align 8
  store %"[closure@core::num::dec2flt::slow::parse_long_mantissa<f32>::{closure#0}]"* %_1, %"[closure@core::num::dec2flt::slow::parse_long_mantissa<f32>::{closure#0}]"** %_1.dbg.spill, align 8
  call void @llvm.dbg.declare(metadata %"[closure@core::num::dec2flt::slow::parse_long_mantissa<f32>::{closure#0}]"** %_1.dbg.spill, metadata !1435, metadata !DIExpression()), !dbg !1436
  store i64 %n, i64* %n.dbg.spill, align 8
  call void @llvm.dbg.declare(metadata i64* %n.dbg.spill, metadata !1434, metadata !DIExpression()), !dbg !1437
  %_3 = icmp ult i64 %n, 19, !dbg !1438
  br i1 %_3, label %bb1, label %bb3, !dbg !1438

bb3:                                              ; preds = %start
  store i64 60, i64* %0, align 8, !dbg !1439
  br label %bb4, !dbg !1440

bb1:                                              ; preds = %start
  %1 = bitcast [19 x i8]* %_6 to i8*, !dbg !1441
  call void @llvm.memcpy.p0i8.p0i8.i64(i8* align 1 %1, i8* align 1 getelementptr inbounds (<{ [19 x i8] }>, <{ [19 x i8] }>* @0, i32 0, i32 0, i32 0), i64 19, i1 false), !dbg !1441
  %_9 = icmp ult i64 %n, 19, !dbg !1441
  %2 = call i1 @llvm.expect.i1(i1 %_9, i1 true), !dbg !1441
  br i1 %2, label %bb2, label %panic, !dbg !1441

bb2:                                              ; preds = %bb1
  %3 = getelementptr inbounds [19 x i8], [19 x i8]* %_6, i64 0, i64 %n, !dbg !1441
  %_5 = load i8, i8* %3, align 1, !dbg !1441
  %4 = zext i8 %_5 to i64, !dbg !1441
  store i64 %4, i64* %0, align 8, !dbg !1441
  br label %bb4, !dbg !1440

panic:                                            ; preds = %bb1
; call core::panicking::panic_bounds_check
  call void @_ZN4core9panicking18panic_bounds_check17h66852fee8138fdc4E(i64 %n, i64 19, %"core::panic::location::Location"* align 8 bitcast (<{ i8*, [16 x i8] }>* @alloc6360 to %"core::panic::location::Location"*)) #7, !dbg !1441
  unreachable, !dbg !1441

bb4:                                              ; preds = %bb3, %bb2
  %5 = load i64, i64* %0, align 8, !dbg !1442
  ret i64 %5, !dbg !1442
}

; core::num::dec2flt::parse::parse_inf_nan
; Function Attrs: nonlazybind uwtable
define { i64, double } @_ZN4core3num7dec2flt5parse13parse_inf_nan17h0def64f125fb9befE([0 x i8]* align 1 %s.0, i64 %s.1, i1 zeroext %negative) unnamed_addr #1 !dbg !1443 {
start:
  %rest.dbg.spill = alloca i64, align 8
  %negative.dbg.spill = alloca i8, align 1
  %s.dbg.spill = alloca { [0 x i8]*, i64 }, align 8
  %float = alloca double, align 8
  %_3 = alloca %"core::option::Option<(f64, usize)>", align 8
  %0 = alloca { i64, double }, align 8
  %1 = getelementptr inbounds { [0 x i8]*, i64 }, { [0 x i8]*, i64 }* %s.dbg.spill, i32 0, i32 0
  store [0 x i8]* %s.0, [0 x i8]** %1, align 8
  %2 = getelementptr inbounds { [0 x i8]*, i64 }, { [0 x i8]*, i64 }* %s.dbg.spill, i32 0, i32 1
  store i64 %s.1, i64* %2, align 8
  call void @llvm.dbg.declare(metadata { [0 x i8]*, i64 }* %s.dbg.spill, metadata !1460, metadata !DIExpression()), !dbg !1465
  %3 = zext i1 %negative to i8
  store i8 %3, i8* %negative.dbg.spill, align 1
  call void @llvm.dbg.declare(metadata i8* %negative.dbg.spill, metadata !1461, metadata !DIExpression()), !dbg !1466
  call void @llvm.dbg.declare(metadata double* %float, metadata !1462, metadata !DIExpression()), !dbg !1467
; call core::num::dec2flt::parse::parse_partial_inf_nan
  call void @_ZN4core3num7dec2flt5parse21parse_partial_inf_nan17h00f5be0cf65355e6E(%"core::option::Option<(f64, usize)>"* sret(%"core::option::Option<(f64, usize)>") %_3, [0 x i8]* align 1 %s.0, i64 %s.1), !dbg !1468
  br label %bb1, !dbg !1468

bb1:                                              ; preds = %start
  %4 = bitcast %"core::option::Option<(f64, usize)>"* %_3 to i64*, !dbg !1469
  %_5 = load i64, i64* %4, align 8, !dbg !1469, !range !1107, !noundef !19
  %5 = icmp eq i64 %_5, 1, !dbg !1469
  br i1 %5, label %bb2, label %bb8, !dbg !1469

bb2:                                              ; preds = %bb1
  %6 = bitcast %"core::option::Option<(f64, usize)>"* %_3 to %"core::option::Option<(f64, usize)>::Some"*, !dbg !1467
  %7 = getelementptr inbounds %"core::option::Option<(f64, usize)>::Some", %"core::option::Option<(f64, usize)>::Some"* %6, i32 0, i32 1, !dbg !1467
  %8 = bitcast { double, i64 }* %7 to double*, !dbg !1467
  %9 = load double, double* %8, align 8, !dbg !1467
  store double %9, double* %float, align 8, !dbg !1467
  %10 = bitcast %"core::option::Option<(f64, usize)>"* %_3 to %"core::option::Option<(f64, usize)>::Some"*, !dbg !1470
  %11 = getelementptr inbounds %"core::option::Option<(f64, usize)>::Some", %"core::option::Option<(f64, usize)>::Some"* %10, i32 0, i32 1, !dbg !1470
  %12 = getelementptr inbounds { double, i64 }, { double, i64 }* %11, i32 0, i32 1, !dbg !1470
  %rest = load i64, i64* %12, align 8, !dbg !1470
  store i64 %rest, i64* %rest.dbg.spill, align 8, !dbg !1470
  call void @llvm.dbg.declare(metadata i64* %rest.dbg.spill, metadata !1464, metadata !DIExpression()), !dbg !1470
  %_8 = icmp eq i64 %rest, %s.1, !dbg !1471
  br i1 %_8, label %bb3, label %bb7, !dbg !1471

bb8:                                              ; preds = %bb7, %bb1
  %13 = bitcast { i64, double }* %0 to i64*, !dbg !1472
  store i64 0, i64* %13, align 8, !dbg !1472
  br label %bb9, !dbg !1473

bb7:                                              ; preds = %bb2
  br label %bb8, !dbg !1474

bb3:                                              ; preds = %bb2
  br i1 %negative, label %bb4, label %bb6, !dbg !1475

bb6:                                              ; preds = %bb5, %bb3
  %_15 = load double, double* %float, align 8, !dbg !1476
  %14 = getelementptr inbounds { i64, double }, { i64, double }* %0, i32 0, i32 1, !dbg !1477
  store double %_15, double* %14, align 8, !dbg !1477
  %15 = bitcast { i64, double }* %0 to i64*, !dbg !1477
  store i64 1, i64* %15, align 8, !dbg !1477
  br label %bb9, !dbg !1473

bb4:                                              ; preds = %bb3
  %_14 = load double, double* %float, align 8, !dbg !1478
; call <f64 as core::ops::arith::Neg>::neg
  %_13 = call double @"_ZN45_$LT$f64$u20$as$u20$core..ops..arith..Neg$GT$3neg17h2916e189c8f22844E"(double %_14), !dbg !1479
  br label %bb5, !dbg !1479

bb5:                                              ; preds = %bb4
  store double %_13, double* %float, align 8, !dbg !1480
  br label %bb6, !dbg !1481

bb9:                                              ; preds = %bb8, %bb6
  %16 = getelementptr inbounds { i64, double }, { i64, double }* %0, i32 0, i32 0, !dbg !1473
  %17 = load i64, i64* %16, align 8, !dbg !1473, !range !1107, !noundef !19
  %18 = getelementptr inbounds { i64, double }, { i64, double }* %0, i32 0, i32 1, !dbg !1473
  %19 = load double, double* %18, align 8, !dbg !1473
  %20 = insertvalue { i64, double } undef, i64 %17, 0, !dbg !1473
  %21 = insertvalue { i64, double } %20, double %19, 1, !dbg !1473
  ret { i64, double } %21, !dbg !1473
}

; core::num::dec2flt::parse::parse_inf_nan
; Function Attrs: nonlazybind uwtable
define { i32, float } @_ZN4core3num7dec2flt5parse13parse_inf_nan17he9556e7df42fb6afE([0 x i8]* align 1 %s.0, i64 %s.1, i1 zeroext %negative) unnamed_addr #1 !dbg !1482 {
start:
  %rest.dbg.spill = alloca i64, align 8
  %negative.dbg.spill = alloca i8, align 1
  %s.dbg.spill = alloca { [0 x i8]*, i64 }, align 8
  %float = alloca float, align 4
  %_3 = alloca %"core::option::Option<(f32, usize)>", align 8
  %0 = alloca { i32, float }, align 4
  %1 = getelementptr inbounds { [0 x i8]*, i64 }, { [0 x i8]*, i64 }* %s.dbg.spill, i32 0, i32 0
  store [0 x i8]* %s.0, [0 x i8]** %1, align 8
  %2 = getelementptr inbounds { [0 x i8]*, i64 }, { [0 x i8]*, i64 }* %s.dbg.spill, i32 0, i32 1
  store i64 %s.1, i64* %2, align 8
  call void @llvm.dbg.declare(metadata { [0 x i8]*, i64 }* %s.dbg.spill, metadata !1497, metadata !DIExpression()), !dbg !1502
  %3 = zext i1 %negative to i8
  store i8 %3, i8* %negative.dbg.spill, align 1
  call void @llvm.dbg.declare(metadata i8* %negative.dbg.spill, metadata !1498, metadata !DIExpression()), !dbg !1503
  call void @llvm.dbg.declare(metadata float* %float, metadata !1499, metadata !DIExpression()), !dbg !1504
; call core::num::dec2flt::parse::parse_partial_inf_nan
  call void @_ZN4core3num7dec2flt5parse21parse_partial_inf_nan17he115698c5f6b9bacE(%"core::option::Option<(f32, usize)>"* sret(%"core::option::Option<(f32, usize)>") %_3, [0 x i8]* align 1 %s.0, i64 %s.1), !dbg !1505
  br label %bb1, !dbg !1505

bb1:                                              ; preds = %start
  %4 = bitcast %"core::option::Option<(f32, usize)>"* %_3 to i64*, !dbg !1506
  %_5 = load i64, i64* %4, align 8, !dbg !1506, !range !1107, !noundef !19
  %5 = icmp eq i64 %_5, 1, !dbg !1506
  br i1 %5, label %bb2, label %bb8, !dbg !1506

bb2:                                              ; preds = %bb1
  %6 = bitcast %"core::option::Option<(f32, usize)>"* %_3 to %"core::option::Option<(f32, usize)>::Some"*, !dbg !1504
  %7 = getelementptr inbounds %"core::option::Option<(f32, usize)>::Some", %"core::option::Option<(f32, usize)>::Some"* %6, i32 0, i32 1, !dbg !1504
  %8 = bitcast { float, i64 }* %7 to float*, !dbg !1504
  %9 = load float, float* %8, align 8, !dbg !1504
  store float %9, float* %float, align 4, !dbg !1504
  %10 = bitcast %"core::option::Option<(f32, usize)>"* %_3 to %"core::option::Option<(f32, usize)>::Some"*, !dbg !1507
  %11 = getelementptr inbounds %"core::option::Option<(f32, usize)>::Some", %"core::option::Option<(f32, usize)>::Some"* %10, i32 0, i32 1, !dbg !1507
  %12 = getelementptr inbounds { float, i64 }, { float, i64 }* %11, i32 0, i32 1, !dbg !1507
  %rest = load i64, i64* %12, align 8, !dbg !1507
  store i64 %rest, i64* %rest.dbg.spill, align 8, !dbg !1507
  call void @llvm.dbg.declare(metadata i64* %rest.dbg.spill, metadata !1501, metadata !DIExpression()), !dbg !1507
  %_8 = icmp eq i64 %rest, %s.1, !dbg !1508
  br i1 %_8, label %bb3, label %bb7, !dbg !1508

bb8:                                              ; preds = %bb7, %bb1
  %13 = bitcast { i32, float }* %0 to i32*, !dbg !1509
  store i32 0, i32* %13, align 4, !dbg !1509
  br label %bb9, !dbg !1510

bb7:                                              ; preds = %bb2
  br label %bb8, !dbg !1511

bb3:                                              ; preds = %bb2
  br i1 %negative, label %bb4, label %bb6, !dbg !1512

bb6:                                              ; preds = %bb5, %bb3
  %_15 = load float, float* %float, align 4, !dbg !1513
  %14 = getelementptr inbounds { i32, float }, { i32, float }* %0, i32 0, i32 1, !dbg !1514
  store float %_15, float* %14, align 4, !dbg !1514
  %15 = bitcast { i32, float }* %0 to i32*, !dbg !1514
  store i32 1, i32* %15, align 4, !dbg !1514
  br label %bb9, !dbg !1510

bb4:                                              ; preds = %bb3
  %_14 = load float, float* %float, align 4, !dbg !1515
; call <f32 as core::ops::arith::Neg>::neg
  %_13 = call float @"_ZN45_$LT$f32$u20$as$u20$core..ops..arith..Neg$GT$3neg17hf2d7af8905ae0e44E"(float %_14), !dbg !1516
  br label %bb5, !dbg !1516

bb5:                                              ; preds = %bb4
  store float %_13, float* %float, align 4, !dbg !1517
  br label %bb6, !dbg !1518

bb9:                                              ; preds = %bb8, %bb6
  %16 = getelementptr inbounds { i32, float }, { i32, float }* %0, i32 0, i32 0, !dbg !1510
  %17 = load i32, i32* %16, align 4, !dbg !1510, !range !1519, !noundef !19
  %18 = getelementptr inbounds { i32, float }, { i32, float }* %0, i32 0, i32 1, !dbg !1510
  %19 = load float, float* %18, align 4, !dbg !1510
  %20 = insertvalue { i32, float } undef, i32 %17, 0, !dbg !1510
  %21 = insertvalue { i32, float } %20, float %19, 1, !dbg !1510
  ret { i32, float } %21, !dbg !1510
}

; core::num::dec2flt::parse::parse_partial_inf_nan
; Function Attrs: nonlazybind uwtable
define void @_ZN4core3num7dec2flt5parse21parse_partial_inf_nan17h00f5be0cf65355e6E(%"core::option::Option<(f64, usize)>"* sret(%"core::option::Option<(f64, usize)>") %0, [0 x i8]* align 1 %s.0, i64 %s.1) unnamed_addr #1 !dbg !1520 {
start:
  %s.dbg.spill = alloca { [0 x i8]*, i64 }, align 8
  %_16 = alloca { double, i64 }, align 8
  %_10 = alloca { double, i64 }, align 8
  %1 = getelementptr inbounds { [0 x i8]*, i64 }, { [0 x i8]*, i64 }* %s.dbg.spill, i32 0, i32 0
  store [0 x i8]* %s.0, [0 x i8]** %1, align 8
  %2 = getelementptr inbounds { [0 x i8]*, i64 }, { [0 x i8]*, i64 }* %s.dbg.spill, i32 0, i32 1
  store i64 %s.1, i64* %2, align 8
  call void @llvm.dbg.declare(metadata { [0 x i8]*, i64 }* %s.dbg.spill, metadata !1541, metadata !DIExpression()), !dbg !1542
  %_2 = icmp uge i64 %s.1, 3, !dbg !1543
  br i1 %_2, label %bb1, label %bb9, !dbg !1543

bb9:                                              ; preds = %bb8, %start
  %3 = bitcast %"core::option::Option<(f64, usize)>"* %0 to i64*, !dbg !1544
  store i64 0, i64* %3, align 8, !dbg !1544
  br label %bb11, !dbg !1545

bb1:                                              ; preds = %start
; call core::num::dec2flt::common::ByteSlice::starts_with_ignore_case
  %_5 = call zeroext i1 @_ZN4core3num7dec2flt6common9ByteSlice23starts_with_ignore_case17hdbd574e40be63bbdE([0 x i8]* align 1 %s.0, i64 %s.1, [0 x i8]* align 1 bitcast (<{ [3 x i8] }>* @alloc6393 to [0 x i8]*), i64 3), !dbg !1546
  br label %bb2, !dbg !1546

bb2:                                              ; preds = %bb1
  br i1 %_5, label %bb3, label %bb4, !dbg !1546

bb4:                                              ; preds = %bb2
; call core::num::dec2flt::common::ByteSlice::starts_with_ignore_case
  %_11 = call zeroext i1 @_ZN4core3num7dec2flt6common9ByteSlice23starts_with_ignore_case17hdbd574e40be63bbdE([0 x i8]* align 1 %s.0, i64 %s.1, [0 x i8]* align 1 bitcast (<{ [3 x i8] }>* @alloc6389 to [0 x i8]*), i64 3), !dbg !1547
  br label %bb5, !dbg !1547

bb3:                                              ; preds = %bb2
  %4 = bitcast { double, i64 }* %_10 to double*, !dbg !1548
  store double 0x7FF8000000000000, double* %4, align 8, !dbg !1548
  %5 = getelementptr inbounds { double, i64 }, { double, i64 }* %_10, i32 0, i32 1, !dbg !1548
  store i64 3, i64* %5, align 8, !dbg !1548
  %6 = bitcast %"core::option::Option<(f64, usize)>"* %0 to %"core::option::Option<(f64, usize)>::Some"*, !dbg !1549
  %7 = getelementptr inbounds %"core::option::Option<(f64, usize)>::Some", %"core::option::Option<(f64, usize)>::Some"* %6, i32 0, i32 1, !dbg !1549
  %8 = getelementptr inbounds { double, i64 }, { double, i64 }* %_10, i32 0, i32 0, !dbg !1549
  %9 = load double, double* %8, align 8, !dbg !1549
  %10 = getelementptr inbounds { double, i64 }, { double, i64 }* %_10, i32 0, i32 1, !dbg !1549
  %11 = load i64, i64* %10, align 8, !dbg !1549
  %12 = getelementptr inbounds { double, i64 }, { double, i64 }* %7, i32 0, i32 0, !dbg !1549
  store double %9, double* %12, align 8, !dbg !1549
  %13 = getelementptr inbounds { double, i64 }, { double, i64 }* %7, i32 0, i32 1, !dbg !1549
  store i64 %11, i64* %13, align 8, !dbg !1549
  %14 = bitcast %"core::option::Option<(f64, usize)>"* %0 to i64*, !dbg !1549
  store i64 1, i64* %14, align 8, !dbg !1549
  br label %bb10, !dbg !1550

bb10:                                             ; preds = %bb7, %bb3
  br label %bb11, !dbg !1545

bb5:                                              ; preds = %bb4
  br i1 %_11, label %bb6, label %bb8, !dbg !1547

bb8:                                              ; preds = %bb5
  br label %bb9, !dbg !1551

bb6:                                              ; preds = %bb5
; call core::num::dec2flt::parse::parse_partial_inf_nan::parse_inf_rest
  %_17 = call i64 @_ZN4core3num7dec2flt5parse21parse_partial_inf_nan14parse_inf_rest17hfa18041de3254509E([0 x i8]* align 1 %s.0, i64 %s.1), !dbg !1552
  br label %bb7, !dbg !1552

bb7:                                              ; preds = %bb6
  %15 = bitcast { double, i64 }* %_16 to double*, !dbg !1553
  store double 0x7FF0000000000000, double* %15, align 8, !dbg !1553
  %16 = getelementptr inbounds { double, i64 }, { double, i64 }* %_16, i32 0, i32 1, !dbg !1553
  store i64 %_17, i64* %16, align 8, !dbg !1553
  %17 = bitcast %"core::option::Option<(f64, usize)>"* %0 to %"core::option::Option<(f64, usize)>::Some"*, !dbg !1554
  %18 = getelementptr inbounds %"core::option::Option<(f64, usize)>::Some", %"core::option::Option<(f64, usize)>::Some"* %17, i32 0, i32 1, !dbg !1554
  %19 = getelementptr inbounds { double, i64 }, { double, i64 }* %_16, i32 0, i32 0, !dbg !1554
  %20 = load double, double* %19, align 8, !dbg !1554
  %21 = getelementptr inbounds { double, i64 }, { double, i64 }* %_16, i32 0, i32 1, !dbg !1554
  %22 = load i64, i64* %21, align 8, !dbg !1554
  %23 = getelementptr inbounds { double, i64 }, { double, i64 }* %18, i32 0, i32 0, !dbg !1554
  store double %20, double* %23, align 8, !dbg !1554
  %24 = getelementptr inbounds { double, i64 }, { double, i64 }* %18, i32 0, i32 1, !dbg !1554
  store i64 %22, i64* %24, align 8, !dbg !1554
  %25 = bitcast %"core::option::Option<(f64, usize)>"* %0 to i64*, !dbg !1554
  store i64 1, i64* %25, align 8, !dbg !1554
  br label %bb10, !dbg !1555

bb11:                                             ; preds = %bb9, %bb10
  ret void, !dbg !1545
}

; core::num::dec2flt::parse::parse_partial_inf_nan
; Function Attrs: nonlazybind uwtable
define void @_ZN4core3num7dec2flt5parse21parse_partial_inf_nan17he115698c5f6b9bacE(%"core::option::Option<(f32, usize)>"* sret(%"core::option::Option<(f32, usize)>") %0, [0 x i8]* align 1 %s.0, i64 %s.1) unnamed_addr #1 !dbg !1557 {
start:
  %s.dbg.spill = alloca { [0 x i8]*, i64 }, align 8
  %_16 = alloca { float, i64 }, align 8
  %_10 = alloca { float, i64 }, align 8
  %1 = getelementptr inbounds { [0 x i8]*, i64 }, { [0 x i8]*, i64 }* %s.dbg.spill, i32 0, i32 0
  store [0 x i8]* %s.0, [0 x i8]** %1, align 8
  %2 = getelementptr inbounds { [0 x i8]*, i64 }, { [0 x i8]*, i64 }* %s.dbg.spill, i32 0, i32 1
  store i64 %s.1, i64* %2, align 8
  call void @llvm.dbg.declare(metadata { [0 x i8]*, i64 }* %s.dbg.spill, metadata !1578, metadata !DIExpression()), !dbg !1579
  %_2 = icmp uge i64 %s.1, 3, !dbg !1580
  br i1 %_2, label %bb1, label %bb9, !dbg !1580

bb9:                                              ; preds = %bb8, %start
  %3 = bitcast %"core::option::Option<(f32, usize)>"* %0 to i64*, !dbg !1581
  store i64 0, i64* %3, align 8, !dbg !1581
  br label %bb11, !dbg !1582

bb1:                                              ; preds = %start
; call core::num::dec2flt::common::ByteSlice::starts_with_ignore_case
  %_5 = call zeroext i1 @_ZN4core3num7dec2flt6common9ByteSlice23starts_with_ignore_case17hdbd574e40be63bbdE([0 x i8]* align 1 %s.0, i64 %s.1, [0 x i8]* align 1 bitcast (<{ [3 x i8] }>* @alloc6393 to [0 x i8]*), i64 3), !dbg !1583
  br label %bb2, !dbg !1583

bb2:                                              ; preds = %bb1
  br i1 %_5, label %bb3, label %bb4, !dbg !1583

bb4:                                              ; preds = %bb2
; call core::num::dec2flt::common::ByteSlice::starts_with_ignore_case
  %_11 = call zeroext i1 @_ZN4core3num7dec2flt6common9ByteSlice23starts_with_ignore_case17hdbd574e40be63bbdE([0 x i8]* align 1 %s.0, i64 %s.1, [0 x i8]* align 1 bitcast (<{ [3 x i8] }>* @alloc6389 to [0 x i8]*), i64 3), !dbg !1584
  br label %bb5, !dbg !1584

bb3:                                              ; preds = %bb2
  %4 = bitcast { float, i64 }* %_10 to float*, !dbg !1585
  store float 0x7FF8000000000000, float* %4, align 8, !dbg !1585
  %5 = getelementptr inbounds { float, i64 }, { float, i64 }* %_10, i32 0, i32 1, !dbg !1585
  store i64 3, i64* %5, align 8, !dbg !1585
  %6 = bitcast %"core::option::Option<(f32, usize)>"* %0 to %"core::option::Option<(f32, usize)>::Some"*, !dbg !1586
  %7 = getelementptr inbounds %"core::option::Option<(f32, usize)>::Some", %"core::option::Option<(f32, usize)>::Some"* %6, i32 0, i32 1, !dbg !1586
  %8 = getelementptr inbounds { float, i64 }, { float, i64 }* %_10, i32 0, i32 0, !dbg !1586
  %9 = load float, float* %8, align 8, !dbg !1586
  %10 = getelementptr inbounds { float, i64 }, { float, i64 }* %_10, i32 0, i32 1, !dbg !1586
  %11 = load i64, i64* %10, align 8, !dbg !1586
  %12 = getelementptr inbounds { float, i64 }, { float, i64 }* %7, i32 0, i32 0, !dbg !1586
  store float %9, float* %12, align 8, !dbg !1586
  %13 = getelementptr inbounds { float, i64 }, { float, i64 }* %7, i32 0, i32 1, !dbg !1586
  store i64 %11, i64* %13, align 8, !dbg !1586
  %14 = bitcast %"core::option::Option<(f32, usize)>"* %0 to i64*, !dbg !1586
  store i64 1, i64* %14, align 8, !dbg !1586
  br label %bb10, !dbg !1587

bb10:                                             ; preds = %bb7, %bb3
  br label %bb11, !dbg !1582

bb5:                                              ; preds = %bb4
  br i1 %_11, label %bb6, label %bb8, !dbg !1584

bb8:                                              ; preds = %bb5
  br label %bb9, !dbg !1588

bb6:                                              ; preds = %bb5
; call core::num::dec2flt::parse::parse_partial_inf_nan::parse_inf_rest
  %_17 = call i64 @_ZN4core3num7dec2flt5parse21parse_partial_inf_nan14parse_inf_rest17hfa18041de3254509E([0 x i8]* align 1 %s.0, i64 %s.1), !dbg !1589
  br label %bb7, !dbg !1589

bb7:                                              ; preds = %bb6
  %15 = bitcast { float, i64 }* %_16 to float*, !dbg !1590
  store float 0x7FF0000000000000, float* %15, align 8, !dbg !1590
  %16 = getelementptr inbounds { float, i64 }, { float, i64 }* %_16, i32 0, i32 1, !dbg !1590
  store i64 %_17, i64* %16, align 8, !dbg !1590
  %17 = bitcast %"core::option::Option<(f32, usize)>"* %0 to %"core::option::Option<(f32, usize)>::Some"*, !dbg !1591
  %18 = getelementptr inbounds %"core::option::Option<(f32, usize)>::Some", %"core::option::Option<(f32, usize)>::Some"* %17, i32 0, i32 1, !dbg !1591
  %19 = getelementptr inbounds { float, i64 }, { float, i64 }* %_16, i32 0, i32 0, !dbg !1591
  %20 = load float, float* %19, align 8, !dbg !1591
  %21 = getelementptr inbounds { float, i64 }, { float, i64 }* %_16, i32 0, i32 1, !dbg !1591
  %22 = load i64, i64* %21, align 8, !dbg !1591
  %23 = getelementptr inbounds { float, i64 }, { float, i64 }* %18, i32 0, i32 0, !dbg !1591
  store float %20, float* %23, align 8, !dbg !1591
  %24 = getelementptr inbounds { float, i64 }, { float, i64 }* %18, i32 0, i32 1, !dbg !1591
  store i64 %22, i64* %24, align 8, !dbg !1591
  %25 = bitcast %"core::option::Option<(f32, usize)>"* %0 to i64*, !dbg !1591
  store i64 1, i64* %25, align 8, !dbg !1591
  br label %bb10, !dbg !1592

bb11:                                             ; preds = %bb9, %bb10
  ret void, !dbg !1582
}

; core::num::dec2flt::<impl core::str::traits::FromStr for f32>::from_str
; Function Attrs: inlinehint nonlazybind uwtable
define internal i64 @"_ZN4core3num7dec2flt60_$LT$impl$u20$core..str..traits..FromStr$u20$for$u20$f32$GT$8from_str17h8a350a0f35c2446dE"([0 x i8]* align 1 %src.0, i64 %src.1) unnamed_addr #0 !dbg !1594 {
start:
  %0 = alloca i64, align 8
  %src.dbg.spill = alloca { [0 x i8]*, i64 }, align 8
  %1 = alloca %"core::result::Result<f32, core::num::dec2flt::ParseFloatError>", align 4
  %2 = getelementptr inbounds { [0 x i8]*, i64 }, { [0 x i8]*, i64 }* %src.dbg.spill, i32 0, i32 0
  store [0 x i8]* %src.0, [0 x i8]** %2, align 8
  %3 = getelementptr inbounds { [0 x i8]*, i64 }, { [0 x i8]*, i64 }* %src.dbg.spill, i32 0, i32 1
  store i64 %src.1, i64* %3, align 8
  call void @llvm.dbg.declare(metadata { [0 x i8]*, i64 }* %src.dbg.spill, metadata !1617, metadata !DIExpression()), !dbg !1618
; call core::num::dec2flt::dec2flt
  %4 = call i64 @_ZN4core3num7dec2flt7dec2flt17hc410fe3c5ce74da5E([0 x i8]* align 1 %src.0, i64 %src.1), !dbg !1619
  store i64 %4, i64* %0, align 8, !dbg !1619
  %5 = bitcast %"core::result::Result<f32, core::num::dec2flt::ParseFloatError>"* %1 to i8*, !dbg !1619
  %6 = bitcast i64* %0 to i8*, !dbg !1619
  call void @llvm.memcpy.p0i8.p0i8.i64(i8* align 4 %5, i8* align 8 %6, i64 8, i1 false), !dbg !1619
  br label %bb1, !dbg !1619

bb1:                                              ; preds = %start
  %7 = bitcast %"core::result::Result<f32, core::num::dec2flt::ParseFloatError>"* %1 to i64*, !dbg !1620
  %8 = load i64, i64* %7, align 4, !dbg !1620
  ret i64 %8, !dbg !1620
}

; core::num::dec2flt::<impl core::str::traits::FromStr for f64>::from_str
; Function Attrs: inlinehint nonlazybind uwtable
define internal void @"_ZN4core3num7dec2flt60_$LT$impl$u20$core..str..traits..FromStr$u20$for$u20$f64$GT$8from_str17hb386c67320c9d1bbE"(%"core::result::Result<f64, core::num::dec2flt::ParseFloatError>"* sret(%"core::result::Result<f64, core::num::dec2flt::ParseFloatError>") %0, [0 x i8]* align 1 %src.0, i64 %src.1) unnamed_addr #0 !dbg !1621 {
start:
  %src.dbg.spill = alloca { [0 x i8]*, i64 }, align 8
  %1 = getelementptr inbounds { [0 x i8]*, i64 }, { [0 x i8]*, i64 }* %src.dbg.spill, i32 0, i32 0
  store [0 x i8]* %src.0, [0 x i8]** %1, align 8
  %2 = getelementptr inbounds { [0 x i8]*, i64 }, { [0 x i8]*, i64 }* %src.dbg.spill, i32 0, i32 1
  store i64 %src.1, i64* %2, align 8
  call void @llvm.dbg.declare(metadata { [0 x i8]*, i64 }* %src.dbg.spill, metadata !1640, metadata !DIExpression()), !dbg !1641
; call core::num::dec2flt::dec2flt
  call void @_ZN4core3num7dec2flt7dec2flt17h88cc23508211652eE(%"core::result::Result<f64, core::num::dec2flt::ParseFloatError>"* sret(%"core::result::Result<f64, core::num::dec2flt::ParseFloatError>") %0, [0 x i8]* align 1 %src.0, i64 %src.1), !dbg !1642
  br label %bb1, !dbg !1642

bb1:                                              ; preds = %start
  ret void, !dbg !1643
}

; core::num::dec2flt::common::ByteSlice::starts_with_ignore_case
; Function Attrs: nonlazybind uwtable
define zeroext i1 @_ZN4core3num7dec2flt6common9ByteSlice23starts_with_ignore_case17hdbd574e40be63bbdE([0 x i8]* align 1 %self.0, i64 %self.1, [0 x i8]* align 1 %u.0, i64 %u.1) unnamed_addr #1 !dbg !1644 {
start:
  %d.dbg.spill = alloca i8, align 1
  %self.dbg.spill2 = alloca { [0 x i8]*, i64 }, align 8
  %self.dbg.spill1 = alloca { [0 x i8]*, i64 }, align 8
  %u.dbg.spill = alloca { [0 x i8]*, i64 }, align 8
  %self.dbg.spill = alloca { [0 x i8]*, i64 }, align 8
  %_11 = alloca %"core::iter::adapters::zip::Zip<core::slice::iter::Iter<u8>, core::slice::iter::Iter<u8>>", align 8
  %iter = alloca %"core::iter::adapters::zip::Zip<core::slice::iter::Iter<u8>, core::slice::iter::Iter<u8>>", align 8
  %0 = alloca i8, align 1
  %1 = getelementptr inbounds { [0 x i8]*, i64 }, { [0 x i8]*, i64 }* %self.dbg.spill, i32 0, i32 0
  store [0 x i8]* %self.0, [0 x i8]** %1, align 8
  %2 = getelementptr inbounds { [0 x i8]*, i64 }, { [0 x i8]*, i64 }* %self.dbg.spill, i32 0, i32 1
  store i64 %self.1, i64* %2, align 8
  call void @llvm.dbg.declare(metadata { [0 x i8]*, i64 }* %self.dbg.spill, metadata !1650, metadata !DIExpression()), !dbg !1658
  %3 = getelementptr inbounds { [0 x i8]*, i64 }, { [0 x i8]*, i64 }* %u.dbg.spill, i32 0, i32 0
  store [0 x i8]* %u.0, [0 x i8]** %3, align 8
  %4 = getelementptr inbounds { [0 x i8]*, i64 }, { [0 x i8]*, i64 }* %u.dbg.spill, i32 0, i32 1
  store i64 %u.1, i64* %4, align 8
  call void @llvm.dbg.declare(metadata { [0 x i8]*, i64 }* %u.dbg.spill, metadata !1651, metadata !DIExpression()), !dbg !1659
  call void @llvm.dbg.declare(metadata %"core::iter::adapters::zip::Zip<core::slice::iter::Iter<u8>, core::slice::iter::Iter<u8>>"* %iter, metadata !1652, metadata !DIExpression()), !dbg !1660
; call <[T] as core::convert::AsRef<[T]>>::as_ref
  %5 = call { [0 x i8]*, i64 } @"_ZN71_$LT$$u5b$T$u5d$$u20$as$u20$core..convert..AsRef$LT$$u5b$T$u5d$$GT$$GT$6as_ref17hbc654c52d10227c1E"([0 x i8]* align 1 %self.0, i64 %self.1), !dbg !1661
  %_6.0 = extractvalue { [0 x i8]*, i64 } %5, 0, !dbg !1661
  %_6.1 = extractvalue { [0 x i8]*, i64 } %5, 1, !dbg !1661
  br label %bb1, !dbg !1661

bb1:                                              ; preds = %start
  %6 = getelementptr inbounds { [0 x i8]*, i64 }, { [0 x i8]*, i64 }* %self.dbg.spill1, i32 0, i32 0, !dbg !1661
  store [0 x i8]* %_6.0, [0 x i8]** %6, align 8, !dbg !1661
  %7 = getelementptr inbounds { [0 x i8]*, i64 }, { [0 x i8]*, i64 }* %self.dbg.spill1, i32 0, i32 1, !dbg !1661
  store i64 %_6.1, i64* %7, align 8, !dbg !1661
  call void @llvm.dbg.declare(metadata { [0 x i8]*, i64 }* %self.dbg.spill1, metadata !1662, metadata !DIExpression()), !dbg !1670
; call core::slice::iter::Iter<T>::new
  %8 = call { i8*, i8* } @"_ZN4core5slice4iter13Iter$LT$T$GT$3new17ha977156ac332a7d0E"([0 x i8]* align 1 %_6.0, i64 %_6.1), !dbg !1670
  %_4.0 = extractvalue { i8*, i8* } %8, 0, !dbg !1670
  %_4.1 = extractvalue { i8*, i8* } %8, 1, !dbg !1670
  br label %bb7, !dbg !1670

bb7:                                              ; preds = %bb1
  %9 = getelementptr inbounds { [0 x i8]*, i64 }, { [0 x i8]*, i64 }* %self.dbg.spill2, i32 0, i32 0, !dbg !1671
  store [0 x i8]* %u.0, [0 x i8]** %9, align 8, !dbg !1671
  %10 = getelementptr inbounds { [0 x i8]*, i64 }, { [0 x i8]*, i64 }* %self.dbg.spill2, i32 0, i32 1, !dbg !1671
  store i64 %u.1, i64* %10, align 8, !dbg !1671
  call void @llvm.dbg.declare(metadata { [0 x i8]*, i64 }* %self.dbg.spill2, metadata !1672, metadata !DIExpression()), !dbg !1676
; call core::slice::iter::Iter<T>::new
  %11 = call { i8*, i8* } @"_ZN4core5slice4iter13Iter$LT$T$GT$3new17ha977156ac332a7d0E"([0 x i8]* align 1 %u.0, i64 %u.1), !dbg !1676
  %_8.0 = extractvalue { i8*, i8* } %11, 0, !dbg !1676
  %_8.1 = extractvalue { i8*, i8* } %11, 1, !dbg !1676
  br label %bb8, !dbg !1676

bb8:                                              ; preds = %bb7
; call core::iter::traits::iterator::Iterator::zip
  call void @_ZN4core4iter6traits8iterator8Iterator3zip17h1f0de46e36054093E(%"core::iter::adapters::zip::Zip<core::slice::iter::Iter<u8>, core::slice::iter::Iter<u8>>"* sret(%"core::iter::adapters::zip::Zip<core::slice::iter::Iter<u8>, core::slice::iter::Iter<u8>>") %iter, i8* %_4.0, i8* %_4.1, i8* %_8.0, i8* %_8.1), !dbg !1661
  br label %bb2, !dbg !1661

bb2:                                              ; preds = %bb8
  %12 = bitcast %"core::iter::adapters::zip::Zip<core::slice::iter::Iter<u8>, core::slice::iter::Iter<u8>>"* %_11 to i8*, !dbg !1677
  %13 = bitcast %"core::iter::adapters::zip::Zip<core::slice::iter::Iter<u8>, core::slice::iter::Iter<u8>>"* %iter to i8*, !dbg !1677
  call void @llvm.memcpy.p0i8.p0i8.i64(i8* align 8 %12, i8* align 8 %13, i64 56, i1 false), !dbg !1677
; call core::iter::traits::iterator::Iterator::fold
  %d = call i8 @_ZN4core4iter6traits8iterator8Iterator4fold17h7a99a4b92c7196bcE(%"core::iter::adapters::zip::Zip<core::slice::iter::Iter<u8>, core::slice::iter::Iter<u8>>"* %_11, i8 0), !dbg !1677
  store i8 %d, i8* %d.dbg.spill, align 1, !dbg !1677
  call void @llvm.dbg.declare(metadata i8* %d.dbg.spill, metadata !1654, metadata !DIExpression()), !dbg !1678
  br label %bb3, !dbg !1677

bb3:                                              ; preds = %bb2
  %14 = icmp eq i8 %d, 0, !dbg !1679
  br i1 %14, label %bb4, label %bb5, !dbg !1679

bb4:                                              ; preds = %bb3
  store i8 1, i8* %0, align 1, !dbg !1679
  br label %bb6, !dbg !1679

bb5:                                              ; preds = %bb3
  %_14 = icmp eq i8 %d, 32, !dbg !1680
  %15 = zext i1 %_14 to i8, !dbg !1679
  store i8 %15, i8* %0, align 1, !dbg !1679
  br label %bb6, !dbg !1679

bb6:                                              ; preds = %bb4, %bb5
  %16 = load i8, i8* %0, align 1, !dbg !1681, !range !266, !noundef !19
  %17 = trunc i8 %16 to i1, !dbg !1681
  ret i1 %17, !dbg !1681
}

; core::num::dec2flt::common::ByteSlice::starts_with_ignore_case::{{closure}}
; Function Attrs: inlinehint nonlazybind uwtable
define i8 @"_ZN4core3num7dec2flt6common9ByteSlice23starts_with_ignore_case28_$u7b$$u7b$closure$u7d$$u7d$17h9736513d08d51230E"(%"[closure@<[u8] as core::num::dec2flt::common::ByteSlice>::starts_with_ignore_case::{closure#0}]"* align 1 %_1, i8 %i, i8* align 1 %0, i8* align 1 %1) unnamed_addr #0 !dbg !1682 {
start:
  %y.dbg.spill = alloca i8, align 1
  %x.dbg.spill = alloca i8, align 1
  %i.dbg.spill = alloca i8, align 1
  %_1.dbg.spill = alloca %"[closure@<[u8] as core::num::dec2flt::common::ByteSlice>::starts_with_ignore_case::{closure#0}]"*, align 8
  %_3 = alloca { i8*, i8* }, align 8
  %2 = getelementptr inbounds { i8*, i8* }, { i8*, i8* }* %_3, i32 0, i32 0
  store i8* %0, i8** %2, align 8
  %3 = getelementptr inbounds { i8*, i8* }, { i8*, i8* }* %_3, i32 0, i32 1
  store i8* %1, i8** %3, align 8
  store %"[closure@<[u8] as core::num::dec2flt::common::ByteSlice>::starts_with_ignore_case::{closure#0}]"* %_1, %"[closure@<[u8] as core::num::dec2flt::common::ByteSlice>::starts_with_ignore_case::{closure#0}]"** %_1.dbg.spill, align 8
  call void @llvm.dbg.declare(metadata %"[closure@<[u8] as core::num::dec2flt::common::ByteSlice>::starts_with_ignore_case::{closure#0}]"** %_1.dbg.spill, metadata !1693, metadata !DIExpression()), !dbg !1695
  store i8 %i, i8* %i.dbg.spill, align 1
  call void @llvm.dbg.declare(metadata i8* %i.dbg.spill, metadata !1689, metadata !DIExpression()), !dbg !1696
  call void @llvm.dbg.declare(metadata { i8*, i8* }* %_3, metadata !1694, metadata !DIExpression()), !dbg !1697
  %4 = bitcast { i8*, i8* }* %_3 to i8**, !dbg !1698
  %_10 = load i8*, i8** %4, align 8, !dbg !1698, !nonnull !19, !align !627, !noundef !19
  %x = load i8, i8* %_10, align 1, !dbg !1698
  store i8 %x, i8* %x.dbg.spill, align 1, !dbg !1698
  call void @llvm.dbg.declare(metadata i8* %x.dbg.spill, metadata !1690, metadata !DIExpression()), !dbg !1699
  %5 = getelementptr inbounds { i8*, i8* }, { i8*, i8* }* %_3, i32 0, i32 1, !dbg !1700
  %_11 = load i8*, i8** %5, align 8, !dbg !1700, !nonnull !19, !align !627, !noundef !19
  %y = load i8, i8* %_11, align 1, !dbg !1700
  store i8 %y, i8* %y.dbg.spill, align 1, !dbg !1700
  call void @llvm.dbg.declare(metadata i8* %y.dbg.spill, metadata !1692, metadata !DIExpression()), !dbg !1701
  %_7 = xor i8 %x, %y, !dbg !1702
  %6 = or i8 %i, %_7, !dbg !1703
  ret i8 %6, !dbg !1704
}

; core::num::dec2flt::common::ByteSlice::advance
; Function Attrs: nonlazybind uwtable
define { [0 x i8]*, i64 } @_ZN4core3num7dec2flt6common9ByteSlice7advance17h22a15b2890fa2986E([0 x i8]* align 1 %self.0, i64 %self.1, i64 %n) unnamed_addr #1 !dbg !1705 {
start:
  %self.dbg.spill1 = alloca { [0 x i8]*, i64 }, align 8
  %n.dbg.spill = alloca i64, align 8
  %self.dbg.spill = alloca { [0 x i8]*, i64 }, align 8
  %index = alloca i64, align 8
  %0 = getelementptr inbounds { [0 x i8]*, i64 }, { [0 x i8]*, i64 }* %self.dbg.spill, i32 0, i32 0
  store [0 x i8]* %self.0, [0 x i8]** %0, align 8
  %1 = getelementptr inbounds { [0 x i8]*, i64 }, { [0 x i8]*, i64 }* %self.dbg.spill, i32 0, i32 1
  store i64 %self.1, i64* %1, align 8
  call void @llvm.dbg.declare(metadata { [0 x i8]*, i64 }* %self.dbg.spill, metadata !1709, metadata !DIExpression()), !dbg !1711
  store i64 %n, i64* %n.dbg.spill, align 8
  call void @llvm.dbg.declare(metadata i64* %n.dbg.spill, metadata !1710, metadata !DIExpression()), !dbg !1712
  call void @llvm.dbg.declare(metadata i64* %index, metadata !1713, metadata !DIExpression()), !dbg !1723
; call <[T] as core::convert::AsRef<[T]>>::as_ref
  %2 = call { [0 x i8]*, i64 } @"_ZN71_$LT$$u5b$T$u5d$$u20$as$u20$core..convert..AsRef$LT$$u5b$T$u5d$$GT$$GT$6as_ref17hbc654c52d10227c1E"([0 x i8]* align 1 %self.0, i64 %self.1), !dbg !1724
  %_5.0 = extractvalue { [0 x i8]*, i64 } %2, 0, !dbg !1724
  %_5.1 = extractvalue { [0 x i8]*, i64 } %2, 1, !dbg !1724
  br label %bb1, !dbg !1724

bb1:                                              ; preds = %start
  %3 = getelementptr inbounds { [0 x i8]*, i64 }, { [0 x i8]*, i64 }* %self.dbg.spill1, i32 0, i32 0, !dbg !1724
  store [0 x i8]* %_5.0, [0 x i8]** %3, align 8, !dbg !1724
  %4 = getelementptr inbounds { [0 x i8]*, i64 }, { [0 x i8]*, i64 }* %self.dbg.spill1, i32 0, i32 1, !dbg !1724
  store i64 %_5.1, i64* %4, align 8, !dbg !1724
  call void @llvm.dbg.declare(metadata { [0 x i8]*, i64 }* %self.dbg.spill1, metadata !1720, metadata !DIExpression()), !dbg !1723
  store i64 %n, i64* %index, align 8, !dbg !1725
  %_9 = load i64, i64* %index, align 8, !dbg !1723
; call <core::ops::range::RangeFrom<usize> as core::slice::index::SliceIndex<[T]>>::index
  %5 = call { [0 x i8]*, i64 } @"_ZN110_$LT$core..ops..range..RangeFrom$LT$usize$GT$$u20$as$u20$core..slice..index..SliceIndex$LT$$u5b$T$u5d$$GT$$GT$5index17hb301fe5216e6dc3bE"(i64 %_9, [0 x i8]* align 1 %_5.0, i64 %_5.1, %"core::panic::location::Location"* align 8 bitcast (<{ i8*, [16 x i8] }>* @alloc6362 to %"core::panic::location::Location"*)), !dbg !1723
  %_3.0 = extractvalue { [0 x i8]*, i64 } %5, 0, !dbg !1723
  %_3.1 = extractvalue { [0 x i8]*, i64 } %5, 1, !dbg !1723
  br label %bb2, !dbg !1723

bb2:                                              ; preds = %bb1
  %6 = insertvalue { [0 x i8]*, i64 } undef, [0 x i8]* %_3.0, 0, !dbg !1726
  %7 = insertvalue { [0 x i8]*, i64 } %6, i64 %_3.1, 1, !dbg !1726
  ret { [0 x i8]*, i64 } %7, !dbg !1726
}

; core::num::dec2flt::lemire::compute_float
; Function Attrs: nonlazybind uwtable
define { i64, i32 } @_ZN4core3num7dec2flt6lemire13compute_float17h2e3e94e8803c6d32E(i64 %q, i64 %0) unnamed_addr #1 !dbg !1727 {
start:
  %upperbit.dbg.spill = alloca i32, align 4
  %hi.dbg.spill = alloca i64, align 8
  %lo.dbg.spill = alloca i64, align 8
  %lz.dbg.spill = alloca i32, align 4
  %1 = alloca i64, align 8
  %self.dbg.spill = alloca i64, align 8
  %fp_error.dbg.spill = alloca { i64, i32 }, align 8
  %fp_inf.dbg.spill = alloca { i64, i32 }, align 8
  %fp_zero.dbg.spill = alloca { i64, i32 }, align 8
  %q.dbg.spill = alloca i64, align 8
  %_69 = alloca i8, align 1
  %_68 = alloca i8, align 1
  %_67 = alloca i8, align 1
  %_66 = alloca i8, align 1
  %power2 = alloca i32, align 4
  %mantissa = alloca i64, align 8
  %inside_safe_exponent = alloca i8, align 1
  %_6 = alloca i8, align 1
  %2 = alloca { i64, i32 }, align 8
  %w = alloca i64, align 8
  store i64 %0, i64* %w, align 8
  store i64 %q, i64* %q.dbg.spill, align 8
  call void @llvm.dbg.declare(metadata i64* %q.dbg.spill, metadata !1734, metadata !DIExpression()), !dbg !1755
  call void @llvm.dbg.declare(metadata i64* %w, metadata !1735, metadata !DIExpression()), !dbg !1756
  call void @llvm.dbg.declare(metadata i8* %inside_safe_exponent, metadata !1747, metadata !DIExpression()), !dbg !1757
  call void @llvm.dbg.declare(metadata i64* %mantissa, metadata !1751, metadata !DIExpression()), !dbg !1758
  call void @llvm.dbg.declare(metadata i32* %power2, metadata !1753, metadata !DIExpression()), !dbg !1759
; call core::num::dec2flt::common::BiasedFp::zero_pow2
  %3 = call { i64, i32 } @_ZN4core3num7dec2flt6common8BiasedFp9zero_pow217he9d0af27d074a382E(i32 0), !dbg !1760
  %fp_zero.0 = extractvalue { i64, i32 } %3, 0, !dbg !1760
  %fp_zero.1 = extractvalue { i64, i32 } %3, 1, !dbg !1760
  %4 = getelementptr inbounds { i64, i32 }, { i64, i32 }* %fp_zero.dbg.spill, i32 0, i32 0, !dbg !1760
  store i64 %fp_zero.0, i64* %4, align 8, !dbg !1760
  %5 = getelementptr inbounds { i64, i32 }, { i64, i32 }* %fp_zero.dbg.spill, i32 0, i32 1, !dbg !1760
  store i32 %fp_zero.1, i32* %5, align 8, !dbg !1760
  call void @llvm.dbg.declare(metadata { i64, i32 }* %fp_zero.dbg.spill, metadata !1736, metadata !DIExpression()), !dbg !1761
  br label %bb1, !dbg !1760

bb1:                                              ; preds = %start
; call core::num::dec2flt::common::BiasedFp::zero_pow2
  %6 = call { i64, i32 } @_ZN4core3num7dec2flt6common8BiasedFp9zero_pow217he9d0af27d074a382E(i32 2047), !dbg !1762
  %fp_inf.0 = extractvalue { i64, i32 } %6, 0, !dbg !1762
  %fp_inf.1 = extractvalue { i64, i32 } %6, 1, !dbg !1762
  %7 = getelementptr inbounds { i64, i32 }, { i64, i32 }* %fp_inf.dbg.spill, i32 0, i32 0, !dbg !1762
  store i64 %fp_inf.0, i64* %7, align 8, !dbg !1762
  %8 = getelementptr inbounds { i64, i32 }, { i64, i32 }* %fp_inf.dbg.spill, i32 0, i32 1, !dbg !1762
  store i32 %fp_inf.1, i32* %8, align 8, !dbg !1762
  call void @llvm.dbg.declare(metadata { i64, i32 }* %fp_inf.dbg.spill, metadata !1738, metadata !DIExpression()), !dbg !1763
  br label %bb2, !dbg !1762

bb2:                                              ; preds = %bb1
; call core::num::dec2flt::common::BiasedFp::zero_pow2
  %9 = call { i64, i32 } @_ZN4core3num7dec2flt6common8BiasedFp9zero_pow217he9d0af27d074a382E(i32 -1), !dbg !1764
  %fp_error.0 = extractvalue { i64, i32 } %9, 0, !dbg !1764
  %fp_error.1 = extractvalue { i64, i32 } %9, 1, !dbg !1764
  %10 = getelementptr inbounds { i64, i32 }, { i64, i32 }* %fp_error.dbg.spill, i32 0, i32 0, !dbg !1764
  store i64 %fp_error.0, i64* %10, align 8, !dbg !1764
  %11 = getelementptr inbounds { i64, i32 }, { i64, i32 }* %fp_error.dbg.spill, i32 0, i32 1, !dbg !1764
  store i32 %fp_error.1, i32* %11, align 8, !dbg !1764
  call void @llvm.dbg.declare(metadata { i64, i32 }* %fp_error.dbg.spill, metadata !1740, metadata !DIExpression()), !dbg !1765
  br label %bb3, !dbg !1764

bb3:                                              ; preds = %bb2
  %_7 = load i64, i64* %w, align 8, !dbg !1766
  %12 = icmp eq i64 %_7, 0, !dbg !1766
  br i1 %12, label %bb4, label %bb5, !dbg !1766

bb4:                                              ; preds = %bb3
  store i8 1, i8* %_6, align 1, !dbg !1766
  br label %bb6, !dbg !1766

bb5:                                              ; preds = %bb3
  %_8 = icmp slt i64 %q, -342, !dbg !1767
  %13 = zext i1 %_8 to i8, !dbg !1766
  store i8 %13, i8* %_6, align 1, !dbg !1766
  br label %bb6, !dbg !1766

bb6:                                              ; preds = %bb4, %bb5
  %14 = load i8, i8* %_6, align 1, !dbg !1766, !range !266, !noundef !19
  %15 = trunc i8 %14 to i1, !dbg !1766
  br i1 %15, label %bb7, label %bb8, !dbg !1766

bb8:                                              ; preds = %bb6
  %_11 = icmp sgt i64 %q, 308, !dbg !1768
  br i1 %_11, label %bb9, label %bb10, !dbg !1768

bb7:                                              ; preds = %bb6
  %16 = getelementptr inbounds { i64, i32 }, { i64, i32 }* %2, i32 0, i32 0, !dbg !1769
  store i64 %fp_zero.0, i64* %16, align 8, !dbg !1769
  %17 = getelementptr inbounds { i64, i32 }, { i64, i32 }* %2, i32 0, i32 1, !dbg !1769
  store i32 %fp_zero.1, i32* %17, align 8, !dbg !1769
  br label %bb46, !dbg !1770

bb46:                                             ; preds = %bb9, %bb7
  br label %bb47, !dbg !1771

bb10:                                             ; preds = %bb8
  %self = load i64, i64* %w, align 8, !dbg !1773
  store i64 %self, i64* %self.dbg.spill, align 8, !dbg !1773
  call void @llvm.dbg.declare(metadata i64* %self.dbg.spill, metadata !1774, metadata !DIExpression()), !dbg !1780
  %18 = call i64 @llvm.ctlz.i64(i64 %self, i1 false), !dbg !1780
  store i64 %18, i64* %1, align 8, !dbg !1780
  %_102 = load i64, i64* %1, align 8, !dbg !1780
  br label %bb49, !dbg !1780

bb9:                                              ; preds = %bb8
  %19 = getelementptr inbounds { i64, i32 }, { i64, i32 }* %2, i32 0, i32 0, !dbg !1781
  store i64 %fp_inf.0, i64* %19, align 8, !dbg !1781
  %20 = getelementptr inbounds { i64, i32 }, { i64, i32 }* %2, i32 0, i32 1, !dbg !1781
  store i32 %fp_inf.1, i32* %20, align 8, !dbg !1781
  br label %bb46, !dbg !1771

bb47:                                             ; preds = %bb45, %bb46
  br label %bb48, !dbg !1782

bb49:                                             ; preds = %bb10
  %lz = trunc i64 %_102 to i32, !dbg !1780
  store i32 %lz, i32* %lz.dbg.spill, align 4, !dbg !1780
  call void @llvm.dbg.declare(metadata i32* %lz.dbg.spill, metadata !1742, metadata !DIExpression()), !dbg !1783
  %21 = load i64, i64* %w, align 8, !dbg !1784
  %22 = zext i32 %lz to i64, !dbg !1784
  %23 = and i64 %22, 63, !dbg !1784
  %24 = shl i64 %21, %23, !dbg !1784
  store i64 %24, i64* %w, align 8, !dbg !1784
  %_21 = load i64, i64* %w, align 8, !dbg !1785
; call core::num::dec2flt::lemire::compute_product_approx
  %25 = call { i64, i64 } @_ZN4core3num7dec2flt6lemire22compute_product_approx17h150e58dc42172e61E(i64 %q, i64 %_21, i64 55), !dbg !1786
  %_19.0 = extractvalue { i64, i64 } %25, 0, !dbg !1786
  %_19.1 = extractvalue { i64, i64 } %25, 1, !dbg !1786
  br label %bb11, !dbg !1786

bb11:                                             ; preds = %bb49
  store i64 %_19.0, i64* %lo.dbg.spill, align 8, !dbg !1787
  call void @llvm.dbg.declare(metadata i64* %lo.dbg.spill, metadata !1744, metadata !DIExpression()), !dbg !1788
  store i64 %_19.1, i64* %hi.dbg.spill, align 8, !dbg !1789
  call void @llvm.dbg.declare(metadata i64* %hi.dbg.spill, metadata !1746, metadata !DIExpression()), !dbg !1790
  %26 = icmp eq i64 %_19.0, -1, !dbg !1791
  br i1 %26, label %bb12, label %bb18, !dbg !1791

bb12:                                             ; preds = %bb11
  %_25 = icmp sge i64 %q, -27, !dbg !1792
  br i1 %_25, label %bb14, label %bb13, !dbg !1792

bb18:                                             ; preds = %bb11
  br label %bb19, !dbg !1793

bb19:                                             ; preds = %bb17, %bb18
  %_32 = lshr i64 %_19.1, 63, !dbg !1794
  %upperbit = trunc i64 %_32 to i32, !dbg !1794
  store i32 %upperbit, i32* %upperbit.dbg.spill, align 4, !dbg !1794
  call void @llvm.dbg.declare(metadata i32* %upperbit.dbg.spill, metadata !1749, metadata !DIExpression()), !dbg !1795
  %_38 = add i32 %upperbit, 64, !dbg !1796
  %_37 = sub i32 %_38, 52, !dbg !1796
  %_36 = sub i32 %_37, 3, !dbg !1797
  %27 = zext i32 %_36 to i64, !dbg !1798
  %28 = and i64 %27, 63, !dbg !1798
  %29 = lshr i64 %_19.1, %28, !dbg !1798
  store i64 %29, i64* %mantissa, align 8, !dbg !1798
  %_45 = trunc i64 %q to i32, !dbg !1799
; call core::num::dec2flt::lemire::power
  %_44 = call i32 @_ZN4core3num7dec2flt6lemire5power17h0a9f8eda2bed0462E(i32 %_45), !dbg !1800
  br label %bb20, !dbg !1800

bb13:                                             ; preds = %bb12
  store i8 0, i8* %inside_safe_exponent, align 1, !dbg !1792
  br label %bb15, !dbg !1792

bb14:                                             ; preds = %bb12
  %_27 = icmp sle i64 %q, 55, !dbg !1801
  %30 = zext i1 %_27 to i8, !dbg !1792
  store i8 %30, i8* %inside_safe_exponent, align 1, !dbg !1792
  br label %bb15, !dbg !1792

bb15:                                             ; preds = %bb13, %bb14
  %31 = load i8, i8* %inside_safe_exponent, align 1, !dbg !1802, !range !266, !noundef !19
  %_30 = trunc i8 %31 to i1, !dbg !1802
  %_29 = xor i1 %_30, true, !dbg !1803
  br i1 %_29, label %bb16, label %bb17, !dbg !1803

bb17:                                             ; preds = %bb15
  br label %bb19, !dbg !1793

bb16:                                             ; preds = %bb15
  %32 = getelementptr inbounds { i64, i32 }, { i64, i32 }* %2, i32 0, i32 0, !dbg !1804
  store i64 %fp_error.0, i64* %32, align 8, !dbg !1804
  %33 = getelementptr inbounds { i64, i32 }, { i64, i32 }* %2, i32 0, i32 1, !dbg !1804
  store i32 %fp_error.1, i32* %33, align 8, !dbg !1804
  br label %bb45, !dbg !1805

bb45:                                             ; preds = %bb44, %bb16
  br label %bb47, !dbg !1771

bb20:                                             ; preds = %bb19
  %_43 = add i32 %_44, %upperbit, !dbg !1800
  %_42 = sub i32 %_43, %lz, !dbg !1800
  %34 = sub i32 %_42, -1023, !dbg !1800
  store i32 %34, i32* %power2, align 4, !dbg !1800
  %_51 = load i32, i32* %power2, align 4, !dbg !1807
  %_50 = icmp sle i32 %_51, 0, !dbg !1807
  br i1 %_50, label %bb21, label %bb24, !dbg !1807

bb24:                                             ; preds = %bb20
  %_70 = icmp ule i64 %_19.0, 1, !dbg !1808
  br i1 %_70, label %bb35, label %bb34, !dbg !1808

bb21:                                             ; preds = %bb20
  %_55 = load i32, i32* %power2, align 4, !dbg !1809
  %_54 = sub i32 0, %_55, !dbg !1810
  %_53 = add i32 %_54, 1, !dbg !1810
  %_52 = icmp sge i32 %_53, 64, !dbg !1810
  br i1 %_52, label %bb22, label %bb23, !dbg !1810

bb23:                                             ; preds = %bb21
  %_58 = load i32, i32* %power2, align 4, !dbg !1811
  %_57 = sub i32 0, %_58, !dbg !1812
  %_56 = add i32 %_57, 1, !dbg !1812
  %35 = load i64, i64* %mantissa, align 8, !dbg !1813
  %36 = zext i32 %_56 to i64, !dbg !1813
  %37 = and i64 %36, 63, !dbg !1813
  %38 = lshr i64 %35, %37, !dbg !1813
  store i64 %38, i64* %mantissa, align 8, !dbg !1813
  %_60 = load i64, i64* %mantissa, align 8, !dbg !1814
  %_59 = and i64 %_60, 1, !dbg !1814
  %39 = load i64, i64* %mantissa, align 8, !dbg !1815
  %40 = add i64 %39, %_59, !dbg !1815
  store i64 %40, i64* %mantissa, align 8, !dbg !1815
  %41 = load i64, i64* %mantissa, align 8, !dbg !1816
  %42 = lshr i64 %41, 1, !dbg !1816
  store i64 %42, i64* %mantissa, align 8, !dbg !1816
  %_62 = load i64, i64* %mantissa, align 8, !dbg !1817
  %_61 = icmp uge i64 %_62, 4503599627370496, !dbg !1818
  %43 = zext i1 %_61 to i32, !dbg !1819
  store i32 %43, i32* %power2, align 4, !dbg !1819
  %_64 = load i64, i64* %mantissa, align 8, !dbg !1820
  %_65 = load i32, i32* %power2, align 4, !dbg !1821
  %44 = bitcast { i64, i32 }* %2 to i64*, !dbg !1822
  store i64 %_64, i64* %44, align 8, !dbg !1822
  %45 = getelementptr inbounds { i64, i32 }, { i64, i32 }* %2, i32 0, i32 1, !dbg !1822
  store i32 %_65, i32* %45, align 8, !dbg !1822
  br label %bb43, !dbg !1823

bb22:                                             ; preds = %bb21
  %46 = getelementptr inbounds { i64, i32 }, { i64, i32 }* %2, i32 0, i32 0, !dbg !1824
  store i64 %fp_zero.0, i64* %46, align 8, !dbg !1824
  %47 = getelementptr inbounds { i64, i32 }, { i64, i32 }* %2, i32 0, i32 1, !dbg !1824
  store i32 %fp_zero.1, i32* %47, align 8, !dbg !1824
  br label %bb43, !dbg !1825

bb43:                                             ; preds = %bb23, %bb22
  br label %bb44, !dbg !1825

bb44:                                             ; preds = %bb41, %bb43
  br label %bb45, !dbg !1805

bb34:                                             ; preds = %bb24
  store i8 0, i8* %_69, align 1, !dbg !1808
  br label %bb36, !dbg !1808

bb35:                                             ; preds = %bb24
  %_72 = icmp sge i64 %q, -4, !dbg !1827
  %48 = zext i1 %_72 to i8, !dbg !1808
  store i8 %48, i8* %_69, align 1, !dbg !1808
  br label %bb36, !dbg !1808

bb36:                                             ; preds = %bb34, %bb35
  %49 = load i8, i8* %_69, align 1, !dbg !1808, !range !266, !noundef !19
  %50 = trunc i8 %49 to i1, !dbg !1808
  br i1 %50, label %bb32, label %bb31, !dbg !1808

bb31:                                             ; preds = %bb36
  store i8 0, i8* %_68, align 1, !dbg !1808
  br label %bb33, !dbg !1808

bb32:                                             ; preds = %bb36
  %_75 = icmp sle i64 %q, 23, !dbg !1828
  %51 = zext i1 %_75 to i8, !dbg !1808
  store i8 %51, i8* %_68, align 1, !dbg !1808
  br label %bb33, !dbg !1808

bb33:                                             ; preds = %bb31, %bb32
  %52 = load i8, i8* %_68, align 1, !dbg !1808, !range !266, !noundef !19
  %53 = trunc i8 %52 to i1, !dbg !1808
  br i1 %53, label %bb29, label %bb28, !dbg !1808

bb28:                                             ; preds = %bb33
  store i8 0, i8* %_67, align 1, !dbg !1808
  br label %bb30, !dbg !1808

bb29:                                             ; preds = %bb33
  %_80 = load i64, i64* %mantissa, align 8, !dbg !1829
  %_79 = and i64 %_80, 3, !dbg !1829
  %_78 = icmp eq i64 %_79, 1, !dbg !1829
  %54 = zext i1 %_78 to i8, !dbg !1808
  store i8 %54, i8* %_67, align 1, !dbg !1808
  br label %bb30, !dbg !1808

bb30:                                             ; preds = %bb28, %bb29
  %55 = load i8, i8* %_67, align 1, !dbg !1808, !range !266, !noundef !19
  %56 = trunc i8 %55 to i1, !dbg !1808
  br i1 %56, label %bb26, label %bb25, !dbg !1808

bb25:                                             ; preds = %bb30
  store i8 0, i8* %_66, align 1, !dbg !1808
  br label %bb27, !dbg !1808

bb26:                                             ; preds = %bb30
  %_83 = load i64, i64* %mantissa, align 8, !dbg !1830
  %_86 = add i32 %upperbit, 64, !dbg !1831
  %_85 = sub i32 %_86, 52, !dbg !1831
  %_84 = sub i32 %_85, 3, !dbg !1832
  %57 = zext i32 %_84 to i64, !dbg !1833
  %58 = and i64 %57, 63, !dbg !1833
  %_82 = shl i64 %_83, %58, !dbg !1833
  %_81 = icmp eq i64 %_82, %_19.1, !dbg !1833
  %59 = zext i1 %_81 to i8, !dbg !1808
  store i8 %59, i8* %_66, align 1, !dbg !1808
  br label %bb27, !dbg !1808

bb27:                                             ; preds = %bb25, %bb26
  %60 = load i8, i8* %_66, align 1, !dbg !1808, !range !266, !noundef !19
  %61 = trunc i8 %60 to i1, !dbg !1808
  br i1 %61, label %bb37, label %bb38, !dbg !1808

bb38:                                             ; preds = %bb37, %bb27
  %_92 = load i64, i64* %mantissa, align 8, !dbg !1834
  %_91 = and i64 %_92, 1, !dbg !1834
  %62 = load i64, i64* %mantissa, align 8, !dbg !1835
  %63 = add i64 %62, %_91, !dbg !1835
  store i64 %63, i64* %mantissa, align 8, !dbg !1835
  %64 = load i64, i64* %mantissa, align 8, !dbg !1836
  %65 = lshr i64 %64, 1, !dbg !1836
  store i64 %65, i64* %mantissa, align 8, !dbg !1836
  %_94 = load i64, i64* %mantissa, align 8, !dbg !1837
  %_93 = icmp uge i64 %_94, 9007199254740992, !dbg !1837
  br i1 %_93, label %bb39, label %bb40, !dbg !1837

bb37:                                             ; preds = %bb27
  %66 = load i64, i64* %mantissa, align 8, !dbg !1838
  %67 = and i64 %66, -2, !dbg !1838
  store i64 %67, i64* %mantissa, align 8, !dbg !1838
  br label %bb38, !dbg !1839

bb40:                                             ; preds = %bb39, %bb38
  %68 = load i64, i64* %mantissa, align 8, !dbg !1840
  %69 = and i64 %68, -4503599627370497, !dbg !1840
  store i64 %69, i64* %mantissa, align 8, !dbg !1840
  %_99 = load i32, i32* %power2, align 4, !dbg !1841
  %_98 = icmp sge i32 %_99, 2047, !dbg !1841
  br i1 %_98, label %bb41, label %bb42, !dbg !1841

bb39:                                             ; preds = %bb38
  store i64 4503599627370496, i64* %mantissa, align 8, !dbg !1842
  %70 = load i32, i32* %power2, align 4, !dbg !1843
  %71 = add i32 %70, 1, !dbg !1843
  store i32 %71, i32* %power2, align 4, !dbg !1843
  br label %bb40, !dbg !1844

bb42:                                             ; preds = %bb40
  %_100 = load i64, i64* %mantissa, align 8, !dbg !1845
  %_101 = load i32, i32* %power2, align 4, !dbg !1846
  %72 = bitcast { i64, i32 }* %2 to i64*, !dbg !1847
  store i64 %_100, i64* %72, align 8, !dbg !1847
  %73 = getelementptr inbounds { i64, i32 }, { i64, i32 }* %2, i32 0, i32 1, !dbg !1847
  store i32 %_101, i32* %73, align 8, !dbg !1847
  br label %bb48, !dbg !1782

bb41:                                             ; preds = %bb40
  %74 = getelementptr inbounds { i64, i32 }, { i64, i32 }* %2, i32 0, i32 0, !dbg !1848
  store i64 %fp_inf.0, i64* %74, align 8, !dbg !1848
  %75 = getelementptr inbounds { i64, i32 }, { i64, i32 }* %2, i32 0, i32 1, !dbg !1848
  store i32 %fp_inf.1, i32* %75, align 8, !dbg !1848
  br label %bb44, !dbg !1825

bb48:                                             ; preds = %bb42, %bb47
  %76 = getelementptr inbounds { i64, i32 }, { i64, i32 }* %2, i32 0, i32 0, !dbg !1782
  %77 = load i64, i64* %76, align 8, !dbg !1782
  %78 = getelementptr inbounds { i64, i32 }, { i64, i32 }* %2, i32 0, i32 1, !dbg !1782
  %79 = load i32, i32* %78, align 8, !dbg !1782
  %80 = insertvalue { i64, i32 } undef, i64 %77, 0, !dbg !1782
  %81 = insertvalue { i64, i32 } %80, i32 %79, 1, !dbg !1782
  ret { i64, i32 } %81, !dbg !1782
}

; core::num::dec2flt::lemire::compute_float
; Function Attrs: nonlazybind uwtable
define { i64, i32 } @_ZN4core3num7dec2flt6lemire13compute_float17h7c09984d6cd4e0c3E(i64 %q, i64 %0) unnamed_addr #1 !dbg !1849 {
start:
  %upperbit.dbg.spill = alloca i32, align 4
  %hi.dbg.spill = alloca i64, align 8
  %lo.dbg.spill = alloca i64, align 8
  %lz.dbg.spill = alloca i32, align 4
  %1 = alloca i64, align 8
  %self.dbg.spill = alloca i64, align 8
  %fp_error.dbg.spill = alloca { i64, i32 }, align 8
  %fp_inf.dbg.spill = alloca { i64, i32 }, align 8
  %fp_zero.dbg.spill = alloca { i64, i32 }, align 8
  %q.dbg.spill = alloca i64, align 8
  %_69 = alloca i8, align 1
  %_68 = alloca i8, align 1
  %_67 = alloca i8, align 1
  %_66 = alloca i8, align 1
  %power2 = alloca i32, align 4
  %mantissa = alloca i64, align 8
  %inside_safe_exponent = alloca i8, align 1
  %_6 = alloca i8, align 1
  %2 = alloca { i64, i32 }, align 8
  %w = alloca i64, align 8
  store i64 %0, i64* %w, align 8
  store i64 %q, i64* %q.dbg.spill, align 8
  call void @llvm.dbg.declare(metadata i64* %q.dbg.spill, metadata !1851, metadata !DIExpression()), !dbg !1872
  call void @llvm.dbg.declare(metadata i64* %w, metadata !1852, metadata !DIExpression()), !dbg !1873
  call void @llvm.dbg.declare(metadata i8* %inside_safe_exponent, metadata !1864, metadata !DIExpression()), !dbg !1874
  call void @llvm.dbg.declare(metadata i64* %mantissa, metadata !1868, metadata !DIExpression()), !dbg !1875
  call void @llvm.dbg.declare(metadata i32* %power2, metadata !1870, metadata !DIExpression()), !dbg !1876
; call core::num::dec2flt::common::BiasedFp::zero_pow2
  %3 = call { i64, i32 } @_ZN4core3num7dec2flt6common8BiasedFp9zero_pow217he9d0af27d074a382E(i32 0), !dbg !1877
  %fp_zero.0 = extractvalue { i64, i32 } %3, 0, !dbg !1877
  %fp_zero.1 = extractvalue { i64, i32 } %3, 1, !dbg !1877
  %4 = getelementptr inbounds { i64, i32 }, { i64, i32 }* %fp_zero.dbg.spill, i32 0, i32 0, !dbg !1877
  store i64 %fp_zero.0, i64* %4, align 8, !dbg !1877
  %5 = getelementptr inbounds { i64, i32 }, { i64, i32 }* %fp_zero.dbg.spill, i32 0, i32 1, !dbg !1877
  store i32 %fp_zero.1, i32* %5, align 8, !dbg !1877
  call void @llvm.dbg.declare(metadata { i64, i32 }* %fp_zero.dbg.spill, metadata !1853, metadata !DIExpression()), !dbg !1878
  br label %bb1, !dbg !1877

bb1:                                              ; preds = %start
; call core::num::dec2flt::common::BiasedFp::zero_pow2
  %6 = call { i64, i32 } @_ZN4core3num7dec2flt6common8BiasedFp9zero_pow217he9d0af27d074a382E(i32 255), !dbg !1879
  %fp_inf.0 = extractvalue { i64, i32 } %6, 0, !dbg !1879
  %fp_inf.1 = extractvalue { i64, i32 } %6, 1, !dbg !1879
  %7 = getelementptr inbounds { i64, i32 }, { i64, i32 }* %fp_inf.dbg.spill, i32 0, i32 0, !dbg !1879
  store i64 %fp_inf.0, i64* %7, align 8, !dbg !1879
  %8 = getelementptr inbounds { i64, i32 }, { i64, i32 }* %fp_inf.dbg.spill, i32 0, i32 1, !dbg !1879
  store i32 %fp_inf.1, i32* %8, align 8, !dbg !1879
  call void @llvm.dbg.declare(metadata { i64, i32 }* %fp_inf.dbg.spill, metadata !1855, metadata !DIExpression()), !dbg !1880
  br label %bb2, !dbg !1879

bb2:                                              ; preds = %bb1
; call core::num::dec2flt::common::BiasedFp::zero_pow2
  %9 = call { i64, i32 } @_ZN4core3num7dec2flt6common8BiasedFp9zero_pow217he9d0af27d074a382E(i32 -1), !dbg !1881
  %fp_error.0 = extractvalue { i64, i32 } %9, 0, !dbg !1881
  %fp_error.1 = extractvalue { i64, i32 } %9, 1, !dbg !1881
  %10 = getelementptr inbounds { i64, i32 }, { i64, i32 }* %fp_error.dbg.spill, i32 0, i32 0, !dbg !1881
  store i64 %fp_error.0, i64* %10, align 8, !dbg !1881
  %11 = getelementptr inbounds { i64, i32 }, { i64, i32 }* %fp_error.dbg.spill, i32 0, i32 1, !dbg !1881
  store i32 %fp_error.1, i32* %11, align 8, !dbg !1881
  call void @llvm.dbg.declare(metadata { i64, i32 }* %fp_error.dbg.spill, metadata !1857, metadata !DIExpression()), !dbg !1882
  br label %bb3, !dbg !1881

bb3:                                              ; preds = %bb2
  %_7 = load i64, i64* %w, align 8, !dbg !1883
  %12 = icmp eq i64 %_7, 0, !dbg !1883
  br i1 %12, label %bb4, label %bb5, !dbg !1883

bb4:                                              ; preds = %bb3
  store i8 1, i8* %_6, align 1, !dbg !1883
  br label %bb6, !dbg !1883

bb5:                                              ; preds = %bb3
  %_8 = icmp slt i64 %q, -65, !dbg !1884
  %13 = zext i1 %_8 to i8, !dbg !1883
  store i8 %13, i8* %_6, align 1, !dbg !1883
  br label %bb6, !dbg !1883

bb6:                                              ; preds = %bb4, %bb5
  %14 = load i8, i8* %_6, align 1, !dbg !1883, !range !266, !noundef !19
  %15 = trunc i8 %14 to i1, !dbg !1883
  br i1 %15, label %bb7, label %bb8, !dbg !1883

bb8:                                              ; preds = %bb6
  %_11 = icmp sgt i64 %q, 38, !dbg !1885
  br i1 %_11, label %bb9, label %bb10, !dbg !1885

bb7:                                              ; preds = %bb6
  %16 = getelementptr inbounds { i64, i32 }, { i64, i32 }* %2, i32 0, i32 0, !dbg !1886
  store i64 %fp_zero.0, i64* %16, align 8, !dbg !1886
  %17 = getelementptr inbounds { i64, i32 }, { i64, i32 }* %2, i32 0, i32 1, !dbg !1886
  store i32 %fp_zero.1, i32* %17, align 8, !dbg !1886
  br label %bb46, !dbg !1887

bb46:                                             ; preds = %bb9, %bb7
  br label %bb47, !dbg !1888

bb10:                                             ; preds = %bb8
  %self = load i64, i64* %w, align 8, !dbg !1890
  store i64 %self, i64* %self.dbg.spill, align 8, !dbg !1890
  call void @llvm.dbg.declare(metadata i64* %self.dbg.spill, metadata !1891, metadata !DIExpression()), !dbg !1895
  %18 = call i64 @llvm.ctlz.i64(i64 %self, i1 false), !dbg !1895
  store i64 %18, i64* %1, align 8, !dbg !1895
  %_102 = load i64, i64* %1, align 8, !dbg !1895
  br label %bb49, !dbg !1895

bb9:                                              ; preds = %bb8
  %19 = getelementptr inbounds { i64, i32 }, { i64, i32 }* %2, i32 0, i32 0, !dbg !1896
  store i64 %fp_inf.0, i64* %19, align 8, !dbg !1896
  %20 = getelementptr inbounds { i64, i32 }, { i64, i32 }* %2, i32 0, i32 1, !dbg !1896
  store i32 %fp_inf.1, i32* %20, align 8, !dbg !1896
  br label %bb46, !dbg !1888

bb47:                                             ; preds = %bb45, %bb46
  br label %bb48, !dbg !1897

bb49:                                             ; preds = %bb10
  %lz = trunc i64 %_102 to i32, !dbg !1895
  store i32 %lz, i32* %lz.dbg.spill, align 4, !dbg !1895
  call void @llvm.dbg.declare(metadata i32* %lz.dbg.spill, metadata !1859, metadata !DIExpression()), !dbg !1898
  %21 = load i64, i64* %w, align 8, !dbg !1899
  %22 = zext i32 %lz to i64, !dbg !1899
  %23 = and i64 %22, 63, !dbg !1899
  %24 = shl i64 %21, %23, !dbg !1899
  store i64 %24, i64* %w, align 8, !dbg !1899
  %_21 = load i64, i64* %w, align 8, !dbg !1900
; call core::num::dec2flt::lemire::compute_product_approx
  %25 = call { i64, i64 } @_ZN4core3num7dec2flt6lemire22compute_product_approx17h150e58dc42172e61E(i64 %q, i64 %_21, i64 26), !dbg !1901
  %_19.0 = extractvalue { i64, i64 } %25, 0, !dbg !1901
  %_19.1 = extractvalue { i64, i64 } %25, 1, !dbg !1901
  br label %bb11, !dbg !1901

bb11:                                             ; preds = %bb49
  store i64 %_19.0, i64* %lo.dbg.spill, align 8, !dbg !1902
  call void @llvm.dbg.declare(metadata i64* %lo.dbg.spill, metadata !1861, metadata !DIExpression()), !dbg !1903
  store i64 %_19.1, i64* %hi.dbg.spill, align 8, !dbg !1904
  call void @llvm.dbg.declare(metadata i64* %hi.dbg.spill, metadata !1863, metadata !DIExpression()), !dbg !1905
  %26 = icmp eq i64 %_19.0, -1, !dbg !1906
  br i1 %26, label %bb12, label %bb18, !dbg !1906

bb12:                                             ; preds = %bb11
  %_25 = icmp sge i64 %q, -27, !dbg !1907
  br i1 %_25, label %bb14, label %bb13, !dbg !1907

bb18:                                             ; preds = %bb11
  br label %bb19, !dbg !1908

bb19:                                             ; preds = %bb17, %bb18
  %_32 = lshr i64 %_19.1, 63, !dbg !1909
  %upperbit = trunc i64 %_32 to i32, !dbg !1909
  store i32 %upperbit, i32* %upperbit.dbg.spill, align 4, !dbg !1909
  call void @llvm.dbg.declare(metadata i32* %upperbit.dbg.spill, metadata !1866, metadata !DIExpression()), !dbg !1910
  %_38 = add i32 %upperbit, 64, !dbg !1911
  %_37 = sub i32 %_38, 23, !dbg !1911
  %_36 = sub i32 %_37, 3, !dbg !1912
  %27 = zext i32 %_36 to i64, !dbg !1913
  %28 = and i64 %27, 63, !dbg !1913
  %29 = lshr i64 %_19.1, %28, !dbg !1913
  store i64 %29, i64* %mantissa, align 8, !dbg !1913
  %_45 = trunc i64 %q to i32, !dbg !1914
; call core::num::dec2flt::lemire::power
  %_44 = call i32 @_ZN4core3num7dec2flt6lemire5power17h0a9f8eda2bed0462E(i32 %_45), !dbg !1915
  br label %bb20, !dbg !1915

bb13:                                             ; preds = %bb12
  store i8 0, i8* %inside_safe_exponent, align 1, !dbg !1907
  br label %bb15, !dbg !1907

bb14:                                             ; preds = %bb12
  %_27 = icmp sle i64 %q, 55, !dbg !1916
  %30 = zext i1 %_27 to i8, !dbg !1907
  store i8 %30, i8* %inside_safe_exponent, align 1, !dbg !1907
  br label %bb15, !dbg !1907

bb15:                                             ; preds = %bb13, %bb14
  %31 = load i8, i8* %inside_safe_exponent, align 1, !dbg !1917, !range !266, !noundef !19
  %_30 = trunc i8 %31 to i1, !dbg !1917
  %_29 = xor i1 %_30, true, !dbg !1918
  br i1 %_29, label %bb16, label %bb17, !dbg !1918

bb17:                                             ; preds = %bb15
  br label %bb19, !dbg !1908

bb16:                                             ; preds = %bb15
  %32 = getelementptr inbounds { i64, i32 }, { i64, i32 }* %2, i32 0, i32 0, !dbg !1919
  store i64 %fp_error.0, i64* %32, align 8, !dbg !1919
  %33 = getelementptr inbounds { i64, i32 }, { i64, i32 }* %2, i32 0, i32 1, !dbg !1919
  store i32 %fp_error.1, i32* %33, align 8, !dbg !1919
  br label %bb45, !dbg !1920

bb45:                                             ; preds = %bb44, %bb16
  br label %bb47, !dbg !1888

bb20:                                             ; preds = %bb19
  %_43 = add i32 %_44, %upperbit, !dbg !1915
  %_42 = sub i32 %_43, %lz, !dbg !1915
  %34 = sub i32 %_42, -127, !dbg !1915
  store i32 %34, i32* %power2, align 4, !dbg !1915
  %_51 = load i32, i32* %power2, align 4, !dbg !1922
  %_50 = icmp sle i32 %_51, 0, !dbg !1922
  br i1 %_50, label %bb21, label %bb24, !dbg !1922

bb24:                                             ; preds = %bb20
  %_70 = icmp ule i64 %_19.0, 1, !dbg !1923
  br i1 %_70, label %bb35, label %bb34, !dbg !1923

bb21:                                             ; preds = %bb20
  %_55 = load i32, i32* %power2, align 4, !dbg !1924
  %_54 = sub i32 0, %_55, !dbg !1925
  %_53 = add i32 %_54, 1, !dbg !1925
  %_52 = icmp sge i32 %_53, 64, !dbg !1925
  br i1 %_52, label %bb22, label %bb23, !dbg !1925

bb23:                                             ; preds = %bb21
  %_58 = load i32, i32* %power2, align 4, !dbg !1926
  %_57 = sub i32 0, %_58, !dbg !1927
  %_56 = add i32 %_57, 1, !dbg !1927
  %35 = load i64, i64* %mantissa, align 8, !dbg !1928
  %36 = zext i32 %_56 to i64, !dbg !1928
  %37 = and i64 %36, 63, !dbg !1928
  %38 = lshr i64 %35, %37, !dbg !1928
  store i64 %38, i64* %mantissa, align 8, !dbg !1928
  %_60 = load i64, i64* %mantissa, align 8, !dbg !1929
  %_59 = and i64 %_60, 1, !dbg !1929
  %39 = load i64, i64* %mantissa, align 8, !dbg !1930
  %40 = add i64 %39, %_59, !dbg !1930
  store i64 %40, i64* %mantissa, align 8, !dbg !1930
  %41 = load i64, i64* %mantissa, align 8, !dbg !1931
  %42 = lshr i64 %41, 1, !dbg !1931
  store i64 %42, i64* %mantissa, align 8, !dbg !1931
  %_62 = load i64, i64* %mantissa, align 8, !dbg !1932
  %_61 = icmp uge i64 %_62, 8388608, !dbg !1933
  %43 = zext i1 %_61 to i32, !dbg !1934
  store i32 %43, i32* %power2, align 4, !dbg !1934
  %_64 = load i64, i64* %mantissa, align 8, !dbg !1935
  %_65 = load i32, i32* %power2, align 4, !dbg !1936
  %44 = bitcast { i64, i32 }* %2 to i64*, !dbg !1937
  store i64 %_64, i64* %44, align 8, !dbg !1937
  %45 = getelementptr inbounds { i64, i32 }, { i64, i32 }* %2, i32 0, i32 1, !dbg !1937
  store i32 %_65, i32* %45, align 8, !dbg !1937
  br label %bb43, !dbg !1938

bb22:                                             ; preds = %bb21
  %46 = getelementptr inbounds { i64, i32 }, { i64, i32 }* %2, i32 0, i32 0, !dbg !1939
  store i64 %fp_zero.0, i64* %46, align 8, !dbg !1939
  %47 = getelementptr inbounds { i64, i32 }, { i64, i32 }* %2, i32 0, i32 1, !dbg !1939
  store i32 %fp_zero.1, i32* %47, align 8, !dbg !1939
  br label %bb43, !dbg !1940

bb43:                                             ; preds = %bb23, %bb22
  br label %bb44, !dbg !1940

bb44:                                             ; preds = %bb41, %bb43
  br label %bb45, !dbg !1920

bb34:                                             ; preds = %bb24
  store i8 0, i8* %_69, align 1, !dbg !1923
  br label %bb36, !dbg !1923

bb35:                                             ; preds = %bb24
  %_72 = icmp sge i64 %q, -17, !dbg !1942
  %48 = zext i1 %_72 to i8, !dbg !1923
  store i8 %48, i8* %_69, align 1, !dbg !1923
  br label %bb36, !dbg !1923

bb36:                                             ; preds = %bb34, %bb35
  %49 = load i8, i8* %_69, align 1, !dbg !1923, !range !266, !noundef !19
  %50 = trunc i8 %49 to i1, !dbg !1923
  br i1 %50, label %bb32, label %bb31, !dbg !1923

bb31:                                             ; preds = %bb36
  store i8 0, i8* %_68, align 1, !dbg !1923
  br label %bb33, !dbg !1923

bb32:                                             ; preds = %bb36
  %_75 = icmp sle i64 %q, 10, !dbg !1943
  %51 = zext i1 %_75 to i8, !dbg !1923
  store i8 %51, i8* %_68, align 1, !dbg !1923
  br label %bb33, !dbg !1923

bb33:                                             ; preds = %bb31, %bb32
  %52 = load i8, i8* %_68, align 1, !dbg !1923, !range !266, !noundef !19
  %53 = trunc i8 %52 to i1, !dbg !1923
  br i1 %53, label %bb29, label %bb28, !dbg !1923

bb28:                                             ; preds = %bb33
  store i8 0, i8* %_67, align 1, !dbg !1923
  br label %bb30, !dbg !1923

bb29:                                             ; preds = %bb33
  %_80 = load i64, i64* %mantissa, align 8, !dbg !1944
  %_79 = and i64 %_80, 3, !dbg !1944
  %_78 = icmp eq i64 %_79, 1, !dbg !1944
  %54 = zext i1 %_78 to i8, !dbg !1923
  store i8 %54, i8* %_67, align 1, !dbg !1923
  br label %bb30, !dbg !1923

bb30:                                             ; preds = %bb28, %bb29
  %55 = load i8, i8* %_67, align 1, !dbg !1923, !range !266, !noundef !19
  %56 = trunc i8 %55 to i1, !dbg !1923
  br i1 %56, label %bb26, label %bb25, !dbg !1923

bb25:                                             ; preds = %bb30
  store i8 0, i8* %_66, align 1, !dbg !1923
  br label %bb27, !dbg !1923

bb26:                                             ; preds = %bb30
  %_83 = load i64, i64* %mantissa, align 8, !dbg !1945
  %_86 = add i32 %upperbit, 64, !dbg !1946
  %_85 = sub i32 %_86, 23, !dbg !1946
  %_84 = sub i32 %_85, 3, !dbg !1947
  %57 = zext i32 %_84 to i64, !dbg !1948
  %58 = and i64 %57, 63, !dbg !1948
  %_82 = shl i64 %_83, %58, !dbg !1948
  %_81 = icmp eq i64 %_82, %_19.1, !dbg !1948
  %59 = zext i1 %_81 to i8, !dbg !1923
  store i8 %59, i8* %_66, align 1, !dbg !1923
  br label %bb27, !dbg !1923

bb27:                                             ; preds = %bb25, %bb26
  %60 = load i8, i8* %_66, align 1, !dbg !1923, !range !266, !noundef !19
  %61 = trunc i8 %60 to i1, !dbg !1923
  br i1 %61, label %bb37, label %bb38, !dbg !1923

bb38:                                             ; preds = %bb37, %bb27
  %_92 = load i64, i64* %mantissa, align 8, !dbg !1949
  %_91 = and i64 %_92, 1, !dbg !1949
  %62 = load i64, i64* %mantissa, align 8, !dbg !1950
  %63 = add i64 %62, %_91, !dbg !1950
  store i64 %63, i64* %mantissa, align 8, !dbg !1950
  %64 = load i64, i64* %mantissa, align 8, !dbg !1951
  %65 = lshr i64 %64, 1, !dbg !1951
  store i64 %65, i64* %mantissa, align 8, !dbg !1951
  %_94 = load i64, i64* %mantissa, align 8, !dbg !1952
  %_93 = icmp uge i64 %_94, 16777216, !dbg !1952
  br i1 %_93, label %bb39, label %bb40, !dbg !1952

bb37:                                             ; preds = %bb27
  %66 = load i64, i64* %mantissa, align 8, !dbg !1953
  %67 = and i64 %66, -2, !dbg !1953
  store i64 %67, i64* %mantissa, align 8, !dbg !1953
  br label %bb38, !dbg !1954

bb40:                                             ; preds = %bb39, %bb38
  %68 = load i64, i64* %mantissa, align 8, !dbg !1955
  %69 = and i64 %68, -8388609, !dbg !1955
  store i64 %69, i64* %mantissa, align 8, !dbg !1955
  %_99 = load i32, i32* %power2, align 4, !dbg !1956
  %_98 = icmp sge i32 %_99, 255, !dbg !1956
  br i1 %_98, label %bb41, label %bb42, !dbg !1956

bb39:                                             ; preds = %bb38
  store i64 8388608, i64* %mantissa, align 8, !dbg !1957
  %70 = load i32, i32* %power2, align 4, !dbg !1958
  %71 = add i32 %70, 1, !dbg !1958
  store i32 %71, i32* %power2, align 4, !dbg !1958
  br label %bb40, !dbg !1959

bb42:                                             ; preds = %bb40
  %_100 = load i64, i64* %mantissa, align 8, !dbg !1960
  %_101 = load i32, i32* %power2, align 4, !dbg !1961
  %72 = bitcast { i64, i32 }* %2 to i64*, !dbg !1962
  store i64 %_100, i64* %72, align 8, !dbg !1962
  %73 = getelementptr inbounds { i64, i32 }, { i64, i32 }* %2, i32 0, i32 1, !dbg !1962
  store i32 %_101, i32* %73, align 8, !dbg !1962
  br label %bb48, !dbg !1897

bb41:                                             ; preds = %bb40
  %74 = getelementptr inbounds { i64, i32 }, { i64, i32 }* %2, i32 0, i32 0, !dbg !1963
  store i64 %fp_inf.0, i64* %74, align 8, !dbg !1963
  %75 = getelementptr inbounds { i64, i32 }, { i64, i32 }* %2, i32 0, i32 1, !dbg !1963
  store i32 %fp_inf.1, i32* %75, align 8, !dbg !1963
  br label %bb44, !dbg !1940

bb48:                                             ; preds = %bb42, %bb47
  %76 = getelementptr inbounds { i64, i32 }, { i64, i32 }* %2, i32 0, i32 0, !dbg !1897
  %77 = load i64, i64* %76, align 8, !dbg !1897
  %78 = getelementptr inbounds { i64, i32 }, { i64, i32 }* %2, i32 0, i32 1, !dbg !1897
  %79 = load i32, i32* %78, align 8, !dbg !1897
  %80 = insertvalue { i64, i32 } undef, i64 %77, 0, !dbg !1897
  %81 = insertvalue { i64, i32 } %80, i32 %79, 1, !dbg !1897
  ret { i64, i32 } %81, !dbg !1897
}

; core::num::dec2flt::number::Number::is_fast_path
; Function Attrs: nonlazybind uwtable
define zeroext i1 @_ZN4core3num7dec2flt6number6Number12is_fast_path17hc8db93a1472684d6E(%"core::num::dec2flt::number::Number"* align 8 %self) unnamed_addr #1 !dbg !1964 {
start:
  %self.dbg.spill = alloca %"core::num::dec2flt::number::Number"*, align 8
  %_3 = alloca i8, align 1
  %_2 = alloca i8, align 1
  %0 = alloca i8, align 1
  store %"core::num::dec2flt::number::Number"* %self, %"core::num::dec2flt::number::Number"** %self.dbg.spill, align 8
  call void @llvm.dbg.declare(metadata %"core::num::dec2flt::number::Number"** %self.dbg.spill, metadata !1977, metadata !DIExpression()), !dbg !1978
  %1 = bitcast %"core::num::dec2flt::number::Number"* %self to i64*, !dbg !1979
  %_5 = load i64, i64* %1, align 8, !dbg !1979
  %_4 = icmp sle i64 -22, %_5, !dbg !1980
  br i1 %_4, label %bb8, label %bb7, !dbg !1980

bb7:                                              ; preds = %start
  store i8 0, i8* %_3, align 1, !dbg !1980
  br label %bb9, !dbg !1980

bb8:                                              ; preds = %start
  %2 = bitcast %"core::num::dec2flt::number::Number"* %self to i64*, !dbg !1981
  %_7 = load i64, i64* %2, align 8, !dbg !1981
  %_6 = icmp sle i64 %_7, 37, !dbg !1981
  %3 = zext i1 %_6 to i8, !dbg !1980
  store i8 %3, i8* %_3, align 1, !dbg !1980
  br label %bb9, !dbg !1980

bb9:                                              ; preds = %bb7, %bb8
  %4 = load i8, i8* %_3, align 1, !dbg !1980, !range !266, !noundef !19
  %5 = trunc i8 %4 to i1, !dbg !1980
  br i1 %5, label %bb5, label %bb4, !dbg !1980

bb4:                                              ; preds = %bb9
  store i8 0, i8* %_2, align 1, !dbg !1980
  br label %bb6, !dbg !1980

bb5:                                              ; preds = %bb9
  %6 = getelementptr inbounds %"core::num::dec2flt::number::Number", %"core::num::dec2flt::number::Number"* %self, i32 0, i32 1, !dbg !1982
  %_9 = load i64, i64* %6, align 8, !dbg !1982
  %_8 = icmp ule i64 %_9, 9007199254740992, !dbg !1982
  %7 = zext i1 %_8 to i8, !dbg !1980
  store i8 %7, i8* %_2, align 1, !dbg !1980
  br label %bb6, !dbg !1980

bb6:                                              ; preds = %bb4, %bb5
  %8 = load i8, i8* %_2, align 1, !dbg !1980, !range !266, !noundef !19
  %9 = trunc i8 %8 to i1, !dbg !1980
  br i1 %9, label %bb2, label %bb1, !dbg !1980

bb1:                                              ; preds = %bb6
  store i8 0, i8* %0, align 1, !dbg !1980
  br label %bb3, !dbg !1980

bb2:                                              ; preds = %bb6
  %10 = getelementptr inbounds %"core::num::dec2flt::number::Number", %"core::num::dec2flt::number::Number"* %self, i32 0, i32 3, !dbg !1983
  %11 = load i8, i8* %10, align 1, !dbg !1983, !range !266, !noundef !19
  %_11 = trunc i8 %11 to i1, !dbg !1983
  %_10 = xor i1 %_11, true, !dbg !1984
  %12 = zext i1 %_10 to i8, !dbg !1980
  store i8 %12, i8* %0, align 1, !dbg !1980
  br label %bb3, !dbg !1980

bb3:                                              ; preds = %bb1, %bb2
  %13 = load i8, i8* %0, align 1, !dbg !1985, !range !266, !noundef !19
  %14 = trunc i8 %13 to i1, !dbg !1985
  ret i1 %14, !dbg !1985
}

; core::num::dec2flt::number::Number::is_fast_path
; Function Attrs: nonlazybind uwtable
define zeroext i1 @_ZN4core3num7dec2flt6number6Number12is_fast_path17hf69284857d3064b3E(%"core::num::dec2flt::number::Number"* align 8 %self) unnamed_addr #1 !dbg !1986 {
start:
  %self.dbg.spill = alloca %"core::num::dec2flt::number::Number"*, align 8
  %_3 = alloca i8, align 1
  %_2 = alloca i8, align 1
  %0 = alloca i8, align 1
  store %"core::num::dec2flt::number::Number"* %self, %"core::num::dec2flt::number::Number"** %self.dbg.spill, align 8
  call void @llvm.dbg.declare(metadata %"core::num::dec2flt::number::Number"** %self.dbg.spill, metadata !1988, metadata !DIExpression()), !dbg !1989
  %1 = bitcast %"core::num::dec2flt::number::Number"* %self to i64*, !dbg !1990
  %_5 = load i64, i64* %1, align 8, !dbg !1990
  %_4 = icmp sle i64 -10, %_5, !dbg !1991
  br i1 %_4, label %bb8, label %bb7, !dbg !1991

bb7:                                              ; preds = %start
  store i8 0, i8* %_3, align 1, !dbg !1991
  br label %bb9, !dbg !1991

bb8:                                              ; preds = %start
  %2 = bitcast %"core::num::dec2flt::number::Number"* %self to i64*, !dbg !1992
  %_7 = load i64, i64* %2, align 8, !dbg !1992
  %_6 = icmp sle i64 %_7, 17, !dbg !1992
  %3 = zext i1 %_6 to i8, !dbg !1991
  store i8 %3, i8* %_3, align 1, !dbg !1991
  br label %bb9, !dbg !1991

bb9:                                              ; preds = %bb7, %bb8
  %4 = load i8, i8* %_3, align 1, !dbg !1991, !range !266, !noundef !19
  %5 = trunc i8 %4 to i1, !dbg !1991
  br i1 %5, label %bb5, label %bb4, !dbg !1991

bb4:                                              ; preds = %bb9
  store i8 0, i8* %_2, align 1, !dbg !1991
  br label %bb6, !dbg !1991

bb5:                                              ; preds = %bb9
  %6 = getelementptr inbounds %"core::num::dec2flt::number::Number", %"core::num::dec2flt::number::Number"* %self, i32 0, i32 1, !dbg !1993
  %_9 = load i64, i64* %6, align 8, !dbg !1993
  %_8 = icmp ule i64 %_9, 16777216, !dbg !1993
  %7 = zext i1 %_8 to i8, !dbg !1991
  store i8 %7, i8* %_2, align 1, !dbg !1991
  br label %bb6, !dbg !1991

bb6:                                              ; preds = %bb4, %bb5
  %8 = load i8, i8* %_2, align 1, !dbg !1991, !range !266, !noundef !19
  %9 = trunc i8 %8 to i1, !dbg !1991
  br i1 %9, label %bb2, label %bb1, !dbg !1991

bb1:                                              ; preds = %bb6
  store i8 0, i8* %0, align 1, !dbg !1991
  br label %bb3, !dbg !1991

bb2:                                              ; preds = %bb6
  %10 = getelementptr inbounds %"core::num::dec2flt::number::Number", %"core::num::dec2flt::number::Number"* %self, i32 0, i32 3, !dbg !1994
  %11 = load i8, i8* %10, align 1, !dbg !1994, !range !266, !noundef !19
  %_11 = trunc i8 %11 to i1, !dbg !1994
  %_10 = xor i1 %_11, true, !dbg !1995
  %12 = zext i1 %_10 to i8, !dbg !1991
  store i8 %12, i8* %0, align 1, !dbg !1991
  br label %bb3, !dbg !1991

bb3:                                              ; preds = %bb1, %bb2
  %13 = load i8, i8* %0, align 1, !dbg !1996, !range !266, !noundef !19
  %14 = trunc i8 %13 to i1, !dbg !1996
  ret i1 %14, !dbg !1996
}

; core::num::dec2flt::number::Number::try_fast_path
; Function Attrs: nonlazybind uwtable
define { i64, double } @_ZN4core3num7dec2flt6number6Number13try_fast_path17h2a5d4d0c7acf4bcaE(%"core::num::dec2flt::number::Number"* align 8 %self) unnamed_addr #1 !dbg !1997 {
start:
  %mantissa.dbg.spill = alloca i64, align 8
  %val.dbg.spill = alloca i64, align 8
  %v.dbg.spill = alloca i64, align 8
  %shift.dbg.spill = alloca i64, align 8
  %value.dbg.spill = alloca double, align 8
  %residual.dbg.spill2 = alloca %"core::option::Option<core::convert::Infallible>::None", align 1
  %residual.dbg.spill = alloca %"core::option::Option<core::convert::Infallible>::None", align 1
  %_cw.dbg.spill = alloca {}, align 1
  %self.dbg.spill = alloca %"core::num::dec2flt::number::Number"*, align 8
  %_30 = alloca [16 x i64], align 8
  %self1 = alloca { i64, i64 }, align 8
  %_26 = alloca { i64, i64 }, align 8
  %value = alloca double, align 8
  %0 = alloca { i64, double }, align 8
  store %"core::num::dec2flt::number::Number"* %self, %"core::num::dec2flt::number::Number"** %self.dbg.spill, align 8
  call void @llvm.dbg.declare(metadata %"core::num::dec2flt::number::Number"** %self.dbg.spill, metadata !2001, metadata !DIExpression()), !dbg !2016
  call void @llvm.dbg.declare(metadata {}* %_cw.dbg.spill, metadata !2002, metadata !DIExpression()), !dbg !2017
  call void @llvm.dbg.declare(metadata double* %value, metadata !2004, metadata !DIExpression()), !dbg !2018
  call void @llvm.dbg.declare(metadata { i64, i64 }* %self1, metadata !2019, metadata !DIExpression()), !dbg !2043
  call void @llvm.dbg.declare(metadata %"core::option::Option<core::convert::Infallible>::None"* %residual.dbg.spill, metadata !2012, metadata !DIExpression()), !dbg !2045
  call void @llvm.dbg.declare(metadata %"core::option::Option<core::convert::Infallible>::None"* %residual.dbg.spill2, metadata !2046, metadata !DIExpression()), !dbg !2052
; call core::num::dec2flt::fpu::fpu_precision::set_precision
  call void @_ZN4core3num7dec2flt3fpu13fpu_precision13set_precision17h04310024efb0e55cE(), !dbg !2054
  br label %bb1, !dbg !2054

bb1:                                              ; preds = %start
; call core::num::dec2flt::number::Number::is_fast_path
  %_3 = call zeroext i1 @_ZN4core3num7dec2flt6number6Number12is_fast_path17hc8db93a1472684d6E(%"core::num::dec2flt::number::Number"* align 8 %self), !dbg !2055
  br label %bb2, !dbg !2055

bb2:                                              ; preds = %bb1
  br i1 %_3, label %bb3, label %bb29, !dbg !2055

bb29:                                             ; preds = %bb2
  %1 = bitcast { i64, double }* %0 to i64*, !dbg !2056
  store i64 0, i64* %1, align 8, !dbg !2056
  br label %bb30, !dbg !2057

bb3:                                              ; preds = %bb2
  %2 = bitcast %"core::num::dec2flt::number::Number"* %self to i64*, !dbg !2058
  %_7 = load i64, i64* %2, align 8, !dbg !2058
  %_6 = icmp sle i64 %_7, 22, !dbg !2058
  br i1 %_6, label %bb4, label %bb13, !dbg !2058

bb13:                                             ; preds = %bb3
  %3 = bitcast %"core::num::dec2flt::number::Number"* %self to i64*, !dbg !2059
  %_24 = load i64, i64* %3, align 8, !dbg !2059
  %shift = sub i64 %_24, 22, !dbg !2059
  store i64 %shift, i64* %shift.dbg.spill, align 8, !dbg !2059
  call void @llvm.dbg.declare(metadata i64* %shift.dbg.spill, metadata !2008, metadata !DIExpression()), !dbg !2060
  %4 = getelementptr inbounds %"core::num::dec2flt::number::Number", %"core::num::dec2flt::number::Number"* %self, i32 0, i32 1, !dbg !2044
  %_28 = load i64, i64* %4, align 8, !dbg !2044
  %5 = bitcast [16 x i64]* %_30 to i8*, !dbg !2061
  call void @llvm.memcpy.p0i8.p0i8.i64(i8* align 8 %5, i8* align 8 getelementptr inbounds (<{ [128 x i8] }>, <{ [128 x i8] }>* @1, i32 0, i32 0, i32 0), i64 128, i1 false), !dbg !2061
  %_34 = icmp ult i64 %shift, 16, !dbg !2061
  %6 = call i1 @llvm.expect.i1(i1 %_34, i1 true), !dbg !2061
  br i1 %6, label %bb14, label %panic, !dbg !2061

bb4:                                              ; preds = %bb3
  %7 = getelementptr inbounds %"core::num::dec2flt::number::Number", %"core::num::dec2flt::number::Number"* %self, i32 0, i32 1, !dbg !2062
  %_9 = load i64, i64* %7, align 8, !dbg !2062
; call <f64 as core::num::dec2flt::float::RawFloat>::from_u64
  %value3 = call double @"_ZN59_$LT$f64$u20$as$u20$core..num..dec2flt..float..RawFloat$GT$8from_u6417he2e517674df674dcE"(i64 %_9), !dbg !2063
  store double %value3, double* %value.dbg.spill, align 8, !dbg !2063
  call void @llvm.dbg.declare(metadata double* %value.dbg.spill, metadata !2006, metadata !DIExpression()), !dbg !2064
  br label %bb5, !dbg !2063

bb5:                                              ; preds = %bb4
  %8 = bitcast %"core::num::dec2flt::number::Number"* %self to i64*, !dbg !2065
  %_11 = load i64, i64* %8, align 8, !dbg !2065
  %_10 = icmp slt i64 %_11, 0, !dbg !2065
  br i1 %_10, label %bb6, label %bb9, !dbg !2065

bb9:                                              ; preds = %bb5
  %9 = bitcast %"core::num::dec2flt::number::Number"* %self to i64*, !dbg !2066
  %_22 = load i64, i64* %9, align 8, !dbg !2066
; call <f64 as core::num::dec2flt::float::RawFloat>::pow10_fast_path
  %_19 = call double @"_ZN59_$LT$f64$u20$as$u20$core..num..dec2flt..float..RawFloat$GT$15pow10_fast_path17h753202a27f0438daE"(i64 %_22), !dbg !2067
  br label %bb10, !dbg !2067

bb6:                                              ; preds = %bb5
  %10 = bitcast %"core::num::dec2flt::number::Number"* %self to i64*, !dbg !2068
  %_17 = load i64, i64* %10, align 8, !dbg !2068
  %_16 = sub i64 0, %_17, !dbg !2069
; call <f64 as core::num::dec2flt::float::RawFloat>::pow10_fast_path
  %_13 = call double @"_ZN59_$LT$f64$u20$as$u20$core..num..dec2flt..float..RawFloat$GT$15pow10_fast_path17h753202a27f0438daE"(i64 %_16), !dbg !2070
  br label %bb7, !dbg !2070

bb7:                                              ; preds = %bb6
; call <f64 as core::ops::arith::Div>::div
  %11 = call double @"_ZN45_$LT$f64$u20$as$u20$core..ops..arith..Div$GT$3div17h51eab12971dd6ab7E"(double %value3, double %_13), !dbg !2071
  store double %11, double* %value, align 8, !dbg !2071
  br label %bb8, !dbg !2071

bb8:                                              ; preds = %bb7
  br label %bb12, !dbg !2072

bb12:                                             ; preds = %bb11, %bb8
  br label %bb25, !dbg !2073

bb10:                                             ; preds = %bb9
; call <f64 as core::ops::arith::Mul>::mul
  %12 = call double @"_ZN45_$LT$f64$u20$as$u20$core..ops..arith..Mul$GT$3mul17h9b80d3a4e27ba66bE"(double %value3, double %_19), !dbg !2074
  store double %12, double* %value, align 8, !dbg !2074
  br label %bb11, !dbg !2074

bb11:                                             ; preds = %bb10
  br label %bb12, !dbg !2072

bb25:                                             ; preds = %bb24, %bb12
  %13 = getelementptr inbounds %"core::num::dec2flt::number::Number", %"core::num::dec2flt::number::Number"* %self, i32 0, i32 2, !dbg !2075
  %14 = load i8, i8* %13, align 8, !dbg !2075, !range !266, !noundef !19
  %_46 = trunc i8 %14 to i1, !dbg !2075
  br i1 %_46, label %bb26, label %bb28, !dbg !2075

bb14:                                             ; preds = %bb13
  %15 = getelementptr inbounds [16 x i64], [16 x i64]* %_30, i64 0, i64 %shift, !dbg !2061
  %_29 = load i64, i64* %15, align 8, !dbg !2061
; call core::num::<impl u64>::checked_mul
  %16 = call { i64, i64 } @"_ZN4core3num21_$LT$impl$u20$u64$GT$11checked_mul17h0a8d9e77c5cdaf25E"(i64 %_28, i64 %_29), !dbg !2044
  store { i64, i64 } %16, { i64, i64 }* %self1, align 8, !dbg !2044
  br label %bb15, !dbg !2044

panic:                                            ; preds = %bb13
; call core::panicking::panic_bounds_check
  call void @_ZN4core9panicking18panic_bounds_check17h66852fee8138fdc4E(i64 %shift, i64 16, %"core::panic::location::Location"* align 8 bitcast (<{ i8*, [16 x i8] }>* @alloc6364 to %"core::panic::location::Location"*)) #7, !dbg !2061
  unreachable, !dbg !2061

bb15:                                             ; preds = %bb14
  %17 = bitcast { i64, i64 }* %self1 to i64*, !dbg !2043
  %_50 = load i64, i64* %17, align 8, !dbg !2043, !range !1107, !noundef !19
  switch i64 %_50, label %bb34 [
    i64 0, label %bb33
    i64 1, label %bb35
  ], !dbg !2043

bb34:                                             ; preds = %bb15
  unreachable, !dbg !2043

bb33:                                             ; preds = %bb15
  %18 = bitcast { i64, i64 }* %_26 to i64*, !dbg !2043
  store i64 1, i64* %18, align 8, !dbg !2043
  br label %bb16, !dbg !2043

bb35:                                             ; preds = %bb15
  %19 = getelementptr inbounds { i64, i64 }, { i64, i64 }* %self1, i32 0, i32 1, !dbg !2043
  %v = load i64, i64* %19, align 8, !dbg !2043
  store i64 %v, i64* %v.dbg.spill, align 8, !dbg !2043
  call void @llvm.dbg.declare(metadata i64* %v.dbg.spill, metadata !2040, metadata !DIExpression()), !dbg !2076
  %20 = getelementptr inbounds { i64, i64 }, { i64, i64 }* %_26, i32 0, i32 1, !dbg !2076
  store i64 %v, i64* %20, align 8, !dbg !2076
  %21 = bitcast { i64, i64 }* %_26 to i64*, !dbg !2076
  store i64 0, i64* %21, align 8, !dbg !2076
  br label %bb16, !dbg !2043

bb16:                                             ; preds = %bb33, %bb35
  %22 = bitcast { i64, i64 }* %_26 to i64*, !dbg !2044
  %_35 = load i64, i64* %22, align 8, !dbg !2044, !range !1107, !noundef !19
  switch i64 %_35, label %bb18 [
    i64 0, label %bb17
    i64 1, label %bb19
  ], !dbg !2044

bb18:                                             ; preds = %bb16
  unreachable, !dbg !2044

bb17:                                             ; preds = %bb16
  %23 = getelementptr inbounds { i64, i64 }, { i64, i64 }* %_26, i32 0, i32 1, !dbg !2044
  %val = load i64, i64* %23, align 8, !dbg !2044
  store i64 %val, i64* %val.dbg.spill, align 8, !dbg !2044
  call void @llvm.dbg.declare(metadata i64* %val.dbg.spill, metadata !2014, metadata !DIExpression()), !dbg !2077
  store i64 %val, i64* %mantissa.dbg.spill, align 8, !dbg !2077
  call void @llvm.dbg.declare(metadata i64* %mantissa.dbg.spill, metadata !2010, metadata !DIExpression()), !dbg !2078
  %_39 = icmp ugt i64 %val, 9007199254740992, !dbg !2079
  br i1 %_39, label %bb20, label %bb21, !dbg !2079

bb19:                                             ; preds = %bb16
  %24 = bitcast { i64, double }* %0 to i64*, !dbg !2052
  store i64 0, i64* %24, align 8, !dbg !2052
  br label %bb31, !dbg !2080

bb31:                                             ; preds = %bb20, %bb19
  br label %bb32, !dbg !2082

bb21:                                             ; preds = %bb17
; call <f64 as core::num::dec2flt::float::RawFloat>::from_u64
  %_41 = call double @"_ZN59_$LT$f64$u20$as$u20$core..num..dec2flt..float..RawFloat$GT$8from_u6417he2e517674df674dcE"(i64 %val), !dbg !2083
  br label %bb22, !dbg !2083

bb20:                                             ; preds = %bb17
  %25 = bitcast { i64, double }* %0 to i64*, !dbg !2084
  store i64 0, i64* %25, align 8, !dbg !2084
  br label %bb31, !dbg !2085

bb32:                                             ; preds = %bb30, %bb31
  %26 = getelementptr inbounds { i64, double }, { i64, double }* %0, i32 0, i32 0, !dbg !2082
  %27 = load i64, i64* %26, align 8, !dbg !2082, !range !1107, !noundef !19
  %28 = getelementptr inbounds { i64, double }, { i64, double }* %0, i32 0, i32 1, !dbg !2082
  %29 = load double, double* %28, align 8, !dbg !2082
  %30 = insertvalue { i64, double } undef, i64 %27, 0, !dbg !2082
  %31 = insertvalue { i64, double } %30, double %29, 1, !dbg !2082
  ret { i64, double } %31, !dbg !2082

bb22:                                             ; preds = %bb21
; call <f64 as core::num::dec2flt::float::RawFloat>::pow10_fast_path
  %_43 = call double @"_ZN59_$LT$f64$u20$as$u20$core..num..dec2flt..float..RawFloat$GT$15pow10_fast_path17h753202a27f0438daE"(i64 22), !dbg !2087
  br label %bb23, !dbg !2087

bb23:                                             ; preds = %bb22
; call <f64 as core::ops::arith::Mul>::mul
  %32 = call double @"_ZN45_$LT$f64$u20$as$u20$core..ops..arith..Mul$GT$3mul17h9b80d3a4e27ba66bE"(double %_41, double %_43), !dbg !2083
  store double %32, double* %value, align 8, !dbg !2083
  br label %bb24, !dbg !2083

bb24:                                             ; preds = %bb23
  br label %bb25, !dbg !2073

bb28:                                             ; preds = %bb27, %bb25
  %_49 = load double, double* %value, align 8, !dbg !2088
  %33 = getelementptr inbounds { i64, double }, { i64, double }* %0, i32 0, i32 1, !dbg !2089
  store double %_49, double* %33, align 8, !dbg !2089
  %34 = bitcast { i64, double }* %0 to i64*, !dbg !2089
  store i64 1, i64* %34, align 8, !dbg !2089
  br label %bb30, !dbg !2057

bb26:                                             ; preds = %bb25
  %_48 = load double, double* %value, align 8, !dbg !2090
; call <f64 as core::ops::arith::Neg>::neg
  %_47 = call double @"_ZN45_$LT$f64$u20$as$u20$core..ops..arith..Neg$GT$3neg17h2916e189c8f22844E"(double %_48), !dbg !2091
  br label %bb27, !dbg !2091

bb27:                                             ; preds = %bb26
  store double %_47, double* %value, align 8, !dbg !2092
  br label %bb28, !dbg !2093

bb30:                                             ; preds = %bb29, %bb28
  br label %bb32, !dbg !2082
}

; core::num::dec2flt::number::Number::try_fast_path
; Function Attrs: nonlazybind uwtable
define { i32, float } @_ZN4core3num7dec2flt6number6Number13try_fast_path17hcb70d053bec2fd2bE(%"core::num::dec2flt::number::Number"* align 8 %self) unnamed_addr #1 !dbg !2094 {
start:
  %mantissa.dbg.spill = alloca i64, align 8
  %val.dbg.spill = alloca i64, align 8
  %v.dbg.spill = alloca i64, align 8
  %shift.dbg.spill = alloca i64, align 8
  %value.dbg.spill = alloca float, align 4
  %residual.dbg.spill2 = alloca %"core::option::Option<core::convert::Infallible>::None", align 1
  %residual.dbg.spill = alloca %"core::option::Option<core::convert::Infallible>::None", align 1
  %_cw.dbg.spill = alloca {}, align 1
  %self.dbg.spill = alloca %"core::num::dec2flt::number::Number"*, align 8
  %_30 = alloca [16 x i64], align 8
