; ModuleID = 'zf7m485wsz09ju'
source_filename = "zf7m485wsz09ju"
target datalayout = "e-m:e-p270:32:32-p271:32:32-p272:64:64-i64:64-f80:128-n8:16:32:64-S128"
target triple = "x86_64-unknown-linux-gnu"

%"core::ptr::metadata::PtrRepr<[u8]>" = type { [2 x i64] }
%"[closure@<core::ops::range::Range<usize> as core::slice::index::SliceIndex<[u8]>>::get_unchecked::{closure#0}]" = type { i64*, i64*, { [0 x i8]*, i64 }* }
%"[closure@<core::ops::range::Range<usize> as core::slice::index::SliceIndex<[u8]>>::get_unchecked_mut::{closure#0}]" = type { i64*, i64*, { [0 x i8]*, i64 }* }
%"core::panic::location::Location" = type { { [0 x i8]*, i64 }, i32, i32 }
%"alloc::vec::Vec<&str>" = type { { i64*, i64 }, i64 }
%"core::str::iter::Lines" = type { %"core::iter::adapters::map::Map<core::str::iter::SplitTerminator<char>, core::str::LinesAnyMap>" }
%"core::iter::adapters::map::Map<core::str::iter::SplitTerminator<char>, core::str::LinesAnyMap>" = type { %"core::str::LinesAnyMap", %"core::str::iter::SplitTerminator<char>" }
%"core::str::LinesAnyMap" = type {}
%"core::str::iter::SplitTerminator<char>" = type { %"core::str::iter::SplitInternal<char>" }
%"core::str::iter::SplitInternal<char>" = type { i64, i64, %"core::str::pattern::CharSearcher", i8, i8, [6 x i8] }
%"core::str::pattern::CharSearcher" = type { { [0 x i8]*, i64 }, i64, i64, i64, i32, [4 x i8] }
%"alloc::alloc::Global" = type {}
%"core::panic::unwind_safe::AssertUnwindSafe<[closure@std::thread::Builder::spawn_unchecked_<[closure@src/test_thread_locals.rs:56:27: 56:29], ()>::{closure#1}::{closure#0}]>" = type { %"[closure@std::thread::Builder::spawn_unchecked_<[closure@src/test_thread_locals.rs:56:27: 56:29], ()>::{closure#1}::{closure#0}]" }
%"[closure@std::thread::Builder::spawn_unchecked_<[closure@src/test_thread_locals.rs:56:27: 56:29], ()>::{closure#1}::{closure#0}]" = type { %"[closure@src/test_thread_locals.rs:56:27: 56:29]" }
%"[closure@src/test_thread_locals.rs:56:27: 56:29]" = type {}
%"std::sys::unix::stdio::Stderr" = type { {} }
%"std::io::error::SimpleMessage" = type { { [0 x i8]*, i64 }, i8, [7 x i8] }
%"core::result::Result<usize, std::io::error::Error>" = type { i64, [1 x i64] }
%"core::result::Result<usize, std::io::error::Error>::Ok" = type { [1 x i64], i64 }
%"core::result::Result<usize, std::io::error::Error>::Err" = type { [1 x i64], i8* }
%"core::fmt::Arguments" = type { { [0 x { [0 x i8]*, i64 }]*, i64 }, { i64*, i64 }, { [0 x { i8*, i64* }]*, i64 } }
%"std::io::error::ErrorData<alloc::boxed::Box<std::io::error::Custom>>" = type { i8, [15 x i8] }
%"std::io::error::Custom" = type { { {}*, [3 x i64]* }, i8, [7 x i8] }
%"[closure@<std::io::error::repr_bitpacked::Repr as core::ops::drop::Drop>::drop::{closure#0}]" = type {}
%"std::io::error::ErrorData<alloc::boxed::Box<std::io::error::Custom>>::Os" = type { [1 x i32], i32 }
%"std::io::error::ErrorData<alloc::boxed::Box<std::io::error::Custom>>::SimpleMessage" = type { [1 x i64], %"std::io::error::SimpleMessage"* }
%"std::io::error::ErrorData<alloc::boxed::Box<std::io::error::Custom>>::Custom" = type { [1 x i64], %"std::io::error::Custom"* }
%"std::io::error::ErrorData<alloc::boxed::Box<std::io::error::Custom>>::Simple" = type { [1 x i8], i8 }
%"std::io::error::ErrorData<&std::io::error::Custom>" = type { i8, [15 x i8] }
%"[closure@std::io::error::repr_bitpacked::Repr::data::{closure#0}]" = type {}
%"std::io::error::ErrorData<&std::io::error::Custom>::Os" = type { [1 x i32], i32 }
%"std::io::error::ErrorData<&std::io::error::Custom>::SimpleMessage" = type { [1 x i64], %"std::io::error::SimpleMessage"* }
%"std::io::error::ErrorData<&std::io::error::Custom>::Custom" = type { [1 x i64], %"std::io::error::Custom"* }
%"std::io::error::ErrorData<&std::io::error::Custom>::Simple" = type { [1 x i8], i8 }
%"core::fmt::UnsafeArg" = type { {} }
%"std::thread::JoinInner<()>" = type { i64, i64*, i64* }
%"core::option::Option<core::result::Result<(), alloc::boxed::Box<dyn core::any::Any + core::marker::Send>>>" = type { i64, [2 x i64] }
%"core::cell::UnsafeCell<core::option::Option<core::result::Result<(), alloc::boxed::Box<dyn core::any::Any + core::marker::Send>>>>" = type { %"core::option::Option<core::result::Result<(), alloc::boxed::Box<dyn core::any::Any + core::marker::Send>>>" }
%"std::thread::Packet<()>" = type { %"core::marker::PhantomData<core::option::Option<&std::thread::scoped::ScopeData>>", i64*, %"core::cell::UnsafeCell<core::option::Option<core::result::Result<(), alloc::boxed::Box<dyn core::any::Any + core::marker::Send>>>>" }
%"core::marker::PhantomData<core::option::Option<&std::thread::scoped::ScopeData>>" = type {}
%"core::option::Option<core::result::Result<(), alloc::boxed::Box<dyn core::any::Any + core::marker::Send>>>::Some" = type { [1 x i64], { i8*, i8* } }
%"std::thread::JoinHandle<()>" = type { %"std::thread::JoinInner<()>" }
%"std::thread::Builder" = type { %"core::option::Option<alloc::string::String>", { i64, i64 } }
%"core::option::Option<alloc::string::String>" = type { {}*, [2 x i64] }
%"core::result::Result<std::thread::JoinHandle<()>, std::io::error::Error>" = type { i64, [3 x i64] }
%"core::result::Result<std::thread::JoinInner<()>, std::io::error::Error>" = type { i64, [3 x i64] }
%"core::ops::control_flow::ControlFlow<core::result::Result<core::convert::Infallible, std::io::error::Error>, std::thread::JoinInner<()>>" = type { i64, [3 x i64] }
%"core::result::Result<std::thread::JoinInner<()>, std::io::error::Error>::Ok" = type { [1 x i64], %"std::thread::JoinInner<()>" }
%"core::ops::control_flow::ControlFlow<core::result::Result<core::convert::Infallible, std::io::error::Error>, std::thread::JoinInner<()>>::Continue" = type { [1 x i64], %"std::thread::JoinInner<()>" }
%"core::result::Result<std::thread::JoinInner<()>, std::io::error::Error>::Err" = type { [1 x i64], i8* }
%"core::ops::control_flow::ControlFlow<core::result::Result<core::convert::Infallible, std::io::error::Error>, std::thread::JoinInner<()>>::Break" = type { [1 x i64], i8* }
%"core::result::Result<std::thread::JoinHandle<()>, std::io::error::Error>::Ok" = type { [1 x i64], %"std::thread::JoinHandle<()>" }
%"core::result::Result<std::thread::JoinHandle<()>, std::io::error::Error>::Err" = type { [1 x i64], i8* }
%"[closure@std::thread::Builder::spawn_unchecked_<[closure@src/test_thread_locals.rs:56:27: 56:29], ()>::{closure#1}]" = type { %"[closure@src/test_thread_locals.rs:56:27: 56:29]", i64*, i64*, i64* }
%"core::result::Result<std::sys::unix::thread::Thread, std::io::error::Error>" = type { i64, [1 x i64] }
%"core::ops::control_flow::ControlFlow<core::result::Result<core::convert::Infallible, std::io::error::Error>, std::sys::unix::thread::Thread>" = type { i64, [1 x i64] }
%"alloc::sync::ArcInner<std::thread::Packet<()>>" = type { %"core::sync::atomic::AtomicUsize", %"core::sync::atomic::AtomicUsize", %"std::thread::Packet<()>" }
%"core::sync::atomic::AtomicUsize" = type { i64 }
%"alloc::sync::ArcInner<std::thread::scoped::ScopeData>" = type { %"core::sync::atomic::AtomicUsize", %"core::sync::atomic::AtomicUsize", %"std::thread::scoped::ScopeData" }
%"std::thread::scoped::ScopeData" = type { %"core::sync::atomic::AtomicUsize", i64*, %"core::sync::atomic::AtomicBool", [7 x i8] }
%"core::sync::atomic::AtomicBool" = type { i8 }
%"core::result::Result<std::sys::unix::thread::Thread, std::io::error::Error>::Ok" = type { [1 x i64], i64 }
%"core::ops::control_flow::ControlFlow<core::result::Result<core::convert::Infallible, std::io::error::Error>, std::sys::unix::thread::Thread>::Continue" = type { [1 x i64], i64 }
%"core::result::Result<std::sys::unix::thread::Thread, std::io::error::Error>::Err" = type { [1 x i64], i8* }
%"core::ops::control_flow::ControlFlow<core::result::Result<core::convert::Infallible, std::io::error::Error>, std::sys::unix::thread::Thread>::Break" = type { [1 x i64], i8* }
%"core::ffi::c_str::CStr" = type { [0 x i8] }
%"core::option::Option<core::ops::range::Range<usize>>" = type { i64, [2 x i64] }
%"alloc::string::String" = type { %"alloc::vec::Vec<u8>" }
%"alloc::vec::Vec<u8>" = type { { i8*, i64 }, i64 }
%"[closure@std::thread::Builder::spawn_unchecked_<[closure@src/test_thread_locals.rs:56:27: 56:29], ()>::{closure#0}]" = type {}
%"core::result::Result<alloc::ffi::c_str::CString, alloc::ffi::c_str::NulError>" = type { i64, [4 x i64] }
%"core::mem::manually_drop::ManuallyDrop<()>" = type { {} }
%"core::mem::manually_drop::ManuallyDrop<core::panic::unwind_safe::AssertUnwindSafe<[closure@std::thread::Builder::spawn_unchecked_<[closure@src/test_thread_locals.rs:56:27: 56:29], ()>::{closure#1}::{closure#0}]>>" = type { %"core::panic::unwind_safe::AssertUnwindSafe<[closure@std::thread::Builder::spawn_unchecked_<[closure@src/test_thread_locals.rs:56:27: 56:29], ()>::{closure#1}::{closure#0}]>" }
%"core::result::Result<(), alloc::boxed::Box<dyn core::any::Any + core::marker::Send>>::Ok" = type { {} }
%"std::panicking::r#try::Data<core::panic::unwind_safe::AssertUnwindSafe<[closure@<std::thread::Packet<()> as core::ops::drop::Drop>::drop::{closure#0}]>, ()>" = type { [2 x i64] }
%"core::mem::maybe_uninit::MaybeUninit<core::panic::unwind_safe::AssertUnwindSafe<[closure@std::thread::Builder::spawn_unchecked_<[closure@src/test_thread_locals.rs:56:27: 56:29], ()>::{closure#1}::{closure#0}]>>" = type { [0 x i8] }
%"core::fmt::Formatter" = type { { i64, i64 }, { i64, i64 }, { {}*, [3 x i64]* }, i32, i32, i8, [7 x i8] }
%"core::fmt::builders::DebugList" = type { %"core::fmt::builders::DebugInner" }
%"core::fmt::builders::DebugInner" = type { %"core::fmt::Formatter"*, i8, i8, [6 x i8] }
%"core::mem::maybe_uninit::MaybeUninit<core::option::Option<core::result::Result<(), alloc::boxed::Box<dyn core::any::Any + core::marker::Send>>>>" = type { [3 x i64] }
%"core::mem::manually_drop::ManuallyDrop<core::option::Option<core::result::Result<(), alloc::boxed::Box<dyn core::any::Any + core::marker::Send>>>>" = type { %"core::option::Option<core::result::Result<(), alloc::boxed::Box<dyn core::any::Any + core::marker::Send>>>" }
%"[closure@src/test_sections.rs:7:1: 29:2]" = type {}
%"[closure@src/test_thread_locals.rs:53:1: 64:2]" = type {}
%"[closure@src/test_storage.rs:12:1: 24:2]" = type {}
%"[closure@src/test_sections.rs:32:1: 55:2]" = type {}
%"std::thread::Inner" = type { { i8*, i64 }, i64, %"std::sys_common::thread_parker::futex::Parker", [1 x i32] }
%"std::sys_common::thread_parker::futex::Parker" = type { %"core::sync::atomic::AtomicU32" }
%"core::sync::atomic::AtomicU32" = type { i32 }
%"alloc::ffi::c_str::NulError" = type { i64, %"alloc::vec::Vec<u8>" }
%"core::option::Option<alloc::string::String>::Some" = type { %"alloc::string::String" }
%"core::cell::UnsafeCell<alloc::vec::Vec<u8>>" = type { %"alloc::vec::Vec<u8>" }
%"std::sync::mutex::Mutex<alloc::vec::Vec<u8>>" = type { %"std::sys_common::mutex::MovableMutex", %"std::sync::poison::Flag", [3 x i8], %"core::cell::UnsafeCell<alloc::vec::Vec<u8>>" }
%"std::sys_common::mutex::MovableMutex" = type { %"std::sys::unix::locks::futex_mutex::Mutex" }
%"std::sys::unix::locks::futex_mutex::Mutex" = type { %"core::sync::atomic::AtomicU32" }
%"std::sync::poison::Flag" = type { %"core::sync::atomic::AtomicBool" }
%"core::ptr::metadata::PtrComponents<u8>" = type { {}*, {} }
%"core::ptr::metadata::PtrRepr<u8>" = type { [1 x i64] }
%"core::option::Option<core::convert::Infallible>::None" = type {}
%"core::str::iter::Split<char>" = type { %"core::str::iter::SplitInternal<char>" }
%"core::option::Option<(usize, usize)>" = type { i64, [2 x i64] }
%"core::option::Option<(usize, usize)>::Some" = type { [1 x i64], { i64, i64 } }
%"core::str::pattern::TwoWaySearcher" = type { i64, i64, i64, i64, i64, i64, i64, i64 }
%"core::str::pattern::SearchStep" = type { i64, [2 x i64] }
%"core::str::pattern::StrSearcher" = type { { [0 x i8]*, i64 }, { [0 x i8]*, i64 }, %"core::str::pattern::StrSearcherImpl" }
%"core::str::pattern::StrSearcherImpl" = type { i64, [8 x i64] }
%"core::fmt::Opaque" = type {}
%"core::ops::range::RangeFull" = type {}
%"alloc::sync::ArcInner<std::thread::Inner>" = type { %"core::sync::atomic::AtomicUsize", %"core::sync::atomic::AtomicUsize", %"std::thread::Inner" }
%"alloc::sync::ArcInner<std::sync::mutex::Mutex<alloc::vec::Vec<u8>>>" = type { %"core::sync::atomic::AtomicUsize", %"core::sync::atomic::AtomicUsize", %"std::sync::mutex::Mutex<alloc::vec::Vec<u8>>" }
%"core::alloc::layout::LayoutError" = type {}
%"core::result::Result<core::convert::Infallible, core::alloc::layout::LayoutError>::Err" = type { %"core::alloc::layout::LayoutError" }
%"[closure@<core::str::iter::Chars as core::iter::traits::iterator::Iterator>::next::{closure#0}]" = type {}
%"core::result::Result<alloc::ffi::c_str::CString, alloc::ffi::c_str::NulError>::Ok" = type { [1 x i64], { i8*, i64 } }
%"core::result::Result<alloc::ffi::c_str::CString, alloc::ffi::c_str::NulError>::Err" = type { [1 x i64], %"alloc::ffi::c_str::NulError" }
%"core::result::Result<core::ptr::non_null::NonNull<[u8]>, alloc::collections::TryReserveError>" = type { i64, [2 x i64] }
%"core::alloc::AllocError" = type {}
%"core::result::Result<core::ptr::non_null::NonNull<[u8]>, alloc::collections::TryReserveError>::Ok" = type { [1 x i64], { i8*, i64 } }
%"core::result::Result<core::ptr::non_null::NonNull<[u8]>, alloc::collections::TryReserveError>::Err" = type { [1 x i64], { i64, i64 } }
%"[closure@alloc::raw_vec::handle_reserve::{closure#0}]" = type {}
%"core::result::Result<(), alloc::collections::TryReserveErrorKind>::Ok" = type { {} }
%"core::result::Result<core::alloc::layout::Layout, alloc::collections::TryReserveErrorKind>" = type { i64, [2 x i64] }
%"[closure@alloc::raw_vec::finish_grow<alloc::alloc::Global>::{closure#0}]" = type {}
%"core::result::Result<core::alloc::layout::Layout, alloc::collections::TryReserveErrorKind>::Ok" = type { [1 x i64], { i64, i64 } }
%"core::result::Result<core::alloc::layout::Layout, alloc::collections::TryReserveErrorKind>::Err" = type { [1 x i64], { i64, i64 } }
%"core::option::Option<core::fmt::Arguments>" = type { {}*, [5 x i64] }
%"core::option::Option<core::fmt::Arguments>::Some" = type { %"core::fmt::Arguments" }
%"core::result::Result<core::convert::Infallible, core::alloc::AllocError>::Err" = type { %"core::alloc::AllocError" }
%"[closure@core::intrinsics::copy_nonoverlapping<u8>::{closure#0}]" = type { i8**, i8**, i64* }
%"core::option::Option<(core::ptr::non_null::NonNull<u8>, core::alloc::layout::Layout)>" = type { [2 x i64], i64 }
%"core::ops::control_flow::ControlFlow<core::result::Result<core::convert::Infallible, alloc::collections::TryReserveErrorKind>, core::alloc::layout::Layout>" = type { i64, [2 x i64] }
%"core::ops::control_flow::ControlFlow<core::result::Result<core::convert::Infallible, alloc::collections::TryReserveErrorKind>, core::alloc::layout::Layout>::Continue" = type { [1 x i64], { i64, i64 } }
%"core::ops::control_flow::ControlFlow<core::result::Result<core::convert::Infallible, alloc::collections::TryReserveErrorKind>, core::alloc::layout::Layout>::Break" = type { [1 x i64], { i64, i64 } }
%"core::option::Option<(core::ptr::non_null::NonNull<u8>, core::alloc::layout::Layout)>::Some" = type { { i8*, { i64, i64 } } }
%"core::ops::control_flow::ControlFlow<core::result::Result<core::convert::Infallible, alloc::collections::TryReserveError>, core::ptr::non_null::NonNull<[u8]>>" = type { i64, [2 x i64] }
%"core::result::Result<usize, alloc::collections::TryReserveErrorKind>" = type { i64, [2 x i64] }
%"core::ops::control_flow::ControlFlow<core::result::Result<core::convert::Infallible, alloc::collections::TryReserveErrorKind>, usize>" = type { i64, [2 x i64] }
%"core::result::Result<usize, alloc::collections::TryReserveErrorKind>::Err" = type { [1 x i64], { i64, i64 } }
%"core::result::Result<usize, alloc::collections::TryReserveErrorKind>::Ok" = type { [1 x i64], i64 }
%"core::ops::control_flow::ControlFlow<core::result::Result<core::convert::Infallible, alloc::collections::TryReserveErrorKind>, usize>::Continue" = type { [1 x i64], i64 }
%"core::ops::control_flow::ControlFlow<core::result::Result<core::convert::Infallible, alloc::collections::TryReserveErrorKind>, usize>::Break" = type { [1 x i64], { i64, i64 } }
%"core::ops::control_flow::ControlFlow<core::result::Result<core::convert::Infallible, alloc::collections::TryReserveError>, core::ptr::non_null::NonNull<[u8]>>::Continue" = type { [1 x i64], { i8*, i64 } }
%"core::ops::control_flow::ControlFlow<core::result::Result<core::convert::Infallible, alloc::collections::TryReserveError>, core::ptr::non_null::NonNull<[u8]>>::Break" = type { [1 x i64], { i64, i64 } }
%"core::ptr::metadata::PtrRepr<[&str]>" = type { [2 x i64] }
%"core::str::pattern::StrSearcherImpl::TwoWay" = type { [1 x i64], %"core::str::pattern::TwoWaySearcher" }
%"core::str::pattern::SearchStep::Match" = type { [1 x i64], i64, i64 }
%"core::str::pattern::EmptyNeedle" = type { i64, i64, i8, i8, i8, [5 x i8] }
%"core::str::pattern::StrSearcherImpl::Empty" = type { [1 x i64], %"core::str::pattern::EmptyNeedle" }
%"core::str::pattern::SearchStep::Reject" = type { [1 x i64], i64, i64 }
%"[closure@src/test_sections.rs:43:23: 43:27]" = type {}
%"sections::stat2" = type { i32* }
%"sections::stat" = type { i32** }
%"sections::Foo" = type { i32, i32, float }
%"sections::Bar" = type { i32* }
%"test::types::TestDescAndFn" = type { %"test::types::TestDesc", %"test::types::TestFn" }
%"test::types::TestDesc" = type { %"test::types::TestName", { i8*, i64 }, %"test::options::ShouldPanic", i8, i8, i8, i8, [4 x i8] }
%"test::types::TestName" = type { i8, [39 x i8] }
%"test::options::ShouldPanic" = type { i64, [2 x i64] }
%"test::types::TestFn" = type { i64, [2 x i64] }
%"unwind::libunwind::_Unwind_Exception" = type { i64, void (i32, %"unwind::libunwind::_Unwind_Exception"*)*, [6 x i64] }
%"unwind::libunwind::_Unwind_Context" = type { [0 x i8] }

@0 = private unnamed_addr constant <{ [16 x i8] }> <{ [16 x i8] c"\08\00\00\00\00\00\00\00\00\00\00\00\00\00\00\00" }>, align 8
@alloc488 = private unnamed_addr constant <{ [1 x i8] }> <{ [1 x i8] c"#" }>, align 1
@alloc619 = private unnamed_addr constant <{ [73 x i8] }> <{ [73 x i8] c"/rustc/d394408fb38c4de61f765a3ed5189d2731a1da91/library/std/src/io/mod.rs" }>, align 1
@alloc620 = private unnamed_addr constant <{ i8*, [16 x i8] }> <{ i8* getelementptr inbounds (<{ [73 x i8] }>, <{ [73 x i8] }>* @alloc619, i32 0, i32 0, i32 0), [16 x i8] c"I\00\00\00\00\00\00\00\03\06\00\00!\00\00\00" }>, align 8
@alloc483 = private unnamed_addr constant <{ [28 x i8] }> <{ [28 x i8] c"failed to write whole buffer" }>, align 1
@alloc486 = private unnamed_addr constant <{ i8*, [9 x i8], [7 x i8] }> <{ i8* getelementptr inbounds (<{ [28 x i8] }>, <{ [28 x i8] }>* @alloc483, i32 0, i32 0, i32 0), [9 x i8] c"\1C\00\00\00\00\00\00\00\17", [7 x i8] undef }>, align 8
@vtable.0 = private unnamed_addr constant <{ i8*, [16 x i8], i8*, i8*, i8* }> <{ i8* bitcast (void ({ i8*, i8* }*)* @"_ZN4core3ptr92drop_in_place$LT$std..io..Write..write_fmt..Adapter$LT$std..sys..unix..stdio..Stderr$GT$$GT$17h3dab90b2d47f43a0E" to i8*), [16 x i8] c"\10\00\00\00\00\00\00\00\08\00\00\00\00\00\00\00", i8* bitcast (i1 ({ i8*, i8* }*, [0 x i8]*, i64)* @"_ZN80_$LT$std..io..Write..write_fmt..Adapter$LT$T$GT$$u20$as$u20$core..fmt..Write$GT$9write_str17h3abb5efb30b14f62E" to i8*), i8* bitcast (i1 ({ i8*, i8* }*, i32)* @_ZN4core3fmt5Write10write_char17hb30bfcbec4888ae5E to i8*), i8* bitcast (i1 ({ i8*, i8* }*, %"core::fmt::Arguments"*)* @_ZN4core3fmt5Write9write_fmt17h5097526a53e38c49E to i8*) }>, align 8, !dbg !0
@alloc474 = private unnamed_addr constant <{ [15 x i8] }> <{ [15 x i8] c"formatter error" }>, align 1
@alloc477 = private unnamed_addr constant <{ i8*, [9 x i8], [7 x i8] }> <{ i8* getelementptr inbounds (<{ [15 x i8] }>, <{ [15 x i8] }>* @alloc474, i32 0, i32 0, i32 0), [9 x i8] c"\0F\00\00\00\00\00\00\00(", [7 x i8] undef }>, align 8
@alloc629 = private unnamed_addr constant <{ [40 x i8] }> <{ [40 x i8] c"internal error: entered unreachable code" }>, align 1
@alloc627 = private unnamed_addr constant <{ [90 x i8] }> <{ [90 x i8] c"/rustc/d394408fb38c4de61f765a3ed5189d2731a1da91/library/std/src/io/error/repr_bitpacked.rs" }>, align 1
@alloc628 = private unnamed_addr constant <{ i8*, [16 x i8] }> <{ i8* getelementptr inbounds (<{ [90 x i8] }>, <{ [90 x i8] }>* @alloc627, i32 0, i32 0, i32 0), [16 x i8] c"Z\00\00\00\00\00\00\00\18\01\00\00\0D\00\00\00" }>, align 8
@vtable.1 = private unnamed_addr constant <{ i8*, [16 x i8], i8*, i8*, i8* }> <{ i8* bitcast (void (i64**)* @"_ZN4core3ptr85drop_in_place$LT$std..rt..lang_start$LT$$LP$$RP$$GT$..$u7b$$u7b$closure$u7d$$u7d$$GT$17hd98d205bccc6afd4E" to i8*), [16 x i8] c"\08\00\00\00\00\00\00\00\08\00\00\00\00\00\00\00", i8* bitcast (i32 (i64**)* @"_ZN4core3ops8function6FnOnce40call_once$u7b$$u7b$vtable.shim$u7d$$u7d$17h042ae277a417f464E" to i8*), i8* bitcast (i32 (i64**)* @"_ZN3std2rt10lang_start28_$u7b$$u7b$closure$u7d$$u7d$17h4c71719825c42f40E" to i8*), i8* bitcast (i32 (i64**)* @"_ZN3std2rt10lang_start28_$u7b$$u7b$closure$u7d$$u7d$17h4c71719825c42f40E" to i8*) }>, align 8, !dbg !163
@alloc638 = private unnamed_addr constant <{ [43 x i8] }> <{ [43 x i8] c"called `Option::unwrap()` on a `None` value" }>, align 1
@alloc646 = private unnamed_addr constant <{ [77 x i8] }> <{ [77 x i8] c"/rustc/d394408fb38c4de61f765a3ed5189d2731a1da91/library/std/src/thread/mod.rs" }>, align 1
@alloc637 = private unnamed_addr constant <{ i8*, [16 x i8] }> <{ i8* getelementptr inbounds (<{ [77 x i8] }>, <{ [77 x i8] }>* @alloc646, i32 0, i32 0, i32 0), [16 x i8] c"M\00\00\00\00\00\00\00N\05\00\00\09\00\00\00" }>, align 8
@alloc639 = private unnamed_addr constant <{ [22 x i8] }> <{ [22 x i8] c"failed to spawn thread" }>, align 1
@alloc641 = private unnamed_addr constant <{ i8*, [16 x i8] }> <{ i8* getelementptr inbounds (<{ [77 x i8] }>, <{ [77 x i8] }>* @alloc646, i32 0, i32 0, i32 0), [16 x i8] c"M\00\00\00\00\00\00\00\90\02\00\00\1D\00\00\00" }>, align 8
@vtable.2 = private unnamed_addr constant <{ i8*, [16 x i8], i8* }> <{ i8* bitcast (void (%"[closure@std::thread::Builder::spawn_unchecked_<[closure@src/test_thread_locals.rs:56:27: 56:29], ()>::{closure#1}]"*)* @"_ZN4core3ptr189drop_in_place$LT$std..thread..Builder..spawn_unchecked_$LT$statics_tests..test_thread_locals..test_thread_locals..$u7b$$u7b$closure$u7d$$u7d$$C$$LP$$RP$$GT$..$u7b$$u7b$closure$u7d$$u7d$$GT$17h9da1102cf83aa5bfE" to i8*), [16 x i8] c"\18\00\00\00\00\00\00\00\08\00\00\00\00\00\00\00", i8* bitcast (void (%"[closure@std::thread::Builder::spawn_unchecked_<[closure@src/test_thread_locals.rs:56:27: 56:29], ()>::{closure#1}]"*)* @"_ZN4core3ops8function6FnOnce40call_once$u7b$$u7b$vtable.shim$u7d$$u7d$17ha10b08c66f375c68E" to i8*) }>, align 8, !dbg !181
@alloc645 = private unnamed_addr constant <{ [47 x i8] }> <{ [47 x i8] c"thread name may not contain interior null bytes" }>, align 1
@alloc647 = private unnamed_addr constant <{ i8*, [16 x i8] }> <{ i8* getelementptr inbounds (<{ [77 x i8] }>, <{ [77 x i8] }>* @alloc646, i32 0, i32 0, i32 0), [16 x i8] c"M\00\00\00\00\00\00\00\DF\01\00\00 \00\00\00" }>, align 8
@vtable.3 = private unnamed_addr constant <{ i8*, [16 x i8], i8*, i8*, i8* }> <{ i8* bitcast (void ({ i8*, i8* }**)* @"_ZN4core3ptr104drop_in_place$LT$$RF$mut$u20$std..io..Write..write_fmt..Adapter$LT$std..sys..unix..stdio..Stderr$GT$$GT$17hb013d39e8cf08beeE" to i8*), [16 x i8] c"\08\00\00\00\00\00\00\00\08\00\00\00\00\00\00\00", i8* bitcast (i1 ({ i8*, i8* }**, [0 x i8]*, i64)* @"_ZN50_$LT$$RF$mut$u20$W$u20$as$u20$core..fmt..Write$GT$9write_str17h11b873e44897a10fE" to i8*), i8* bitcast (i1 ({ i8*, i8* }**, i32)* @"_ZN50_$LT$$RF$mut$u20$W$u20$as$u20$core..fmt..Write$GT$10write_char17ha752ff0d563c2184E" to i8*), i8* bitcast (i1 ({ i8*, i8* }**, %"core::fmt::Arguments"*)* @"_ZN50_$LT$$RF$mut$u20$W$u20$as$u20$core..fmt..Write$GT$9write_fmt17h50b512549461be97E" to i8*) }>, align 8, !dbg !498
@vtable.4 = private unnamed_addr constant <{ i8*, [16 x i8], i8* }> <{ i8* bitcast (void (i32**)* @"_ZN4core3ptr28drop_in_place$LT$$RF$i32$GT$17h7747b4580dc61fe5E" to i8*), [16 x i8] c"\08\00\00\00\00\00\00\00\08\00\00\00\00\00\00\00", i8* bitcast (i1 (i32**, %"core::fmt::Formatter"*)* @"_ZN42_$LT$$RF$T$u20$as$u20$core..fmt..Debug$GT$3fmt17hf2e76c0a5a5bc719E" to i8*) }>, align 8, !dbg !509
@alloc300 = private unnamed_addr constant <{ [12 x i8] }> <{ [12 x i8] c"invalid args" }>, align 1
@alloc301 = private unnamed_addr constant <{ i8*, [8 x i8] }> <{ i8* getelementptr inbounds (<{ [12 x i8] }>, <{ [12 x i8] }>* @alloc300, i32 0, i32 0, i32 0), [8 x i8] c"\0C\00\00\00\00\00\00\00" }>, align 8
@alloc470 = private unnamed_addr constant <{}> zeroinitializer, align 8
@alloc656 = private unnamed_addr constant <{ [75 x i8] }> <{ [75 x i8] c"/rustc/d394408fb38c4de61f765a3ed5189d2731a1da91/library/core/src/fmt/mod.rs" }>, align 1
@alloc657 = private unnamed_addr constant <{ i8*, [16 x i8] }> <{ i8* getelementptr inbounds (<{ [75 x i8] }>, <{ [75 x i8] }>* @alloc656, i32 0, i32 0, i32 0), [16 x i8] c"K\00\00\00\00\00\00\00\88\01\00\00\0D\00\00\00" }>, align 8
@alloc658 = private unnamed_addr constant <{ [75 x i8] }> <{ [75 x i8] c"/rustc/d394408fb38c4de61f765a3ed5189d2731a1da91/library/core/src/num/mod.rs" }>, align 1
@alloc659 = private unnamed_addr constant <{ i8*, [16 x i8] }> <{ i8* getelementptr inbounds (<{ [75 x i8] }>, <{ [75 x i8] }>* @alloc658, i32 0, i32 0, i32 0), [16 x i8] c"K\00\00\00\00\00\00\00T\03\00\00\05\00\00\00" }>, align 8
@str.5 = internal constant [25 x i8] c"attempt to divide by zero"
@alloc712 = private unnamed_addr constant <{ [79 x i8] }> <{ [79 x i8] c"/rustc/d394408fb38c4de61f765a3ed5189d2731a1da91/library/core/src/str/pattern.rs" }>, align 1
@alloc661 = private unnamed_addr constant <{ i8*, [16 x i8] }> <{ i8* getelementptr inbounds (<{ [79 x i8] }>, <{ [79 x i8] }>* @alloc712, i32 0, i32 0, i32 0), [16 x i8] c"O\00\00\00\00\00\00\00\8C\05\00\00\14\00\00\00" }>, align 8
@alloc663 = private unnamed_addr constant <{ i8*, [16 x i8] }> <{ i8* getelementptr inbounds (<{ [79 x i8] }>, <{ [79 x i8] }>* @alloc712, i32 0, i32 0, i32 0), [16 x i8] c"O\00\00\00\00\00\00\00\8C\05\00\00!\00\00\00" }>, align 8
@alloc665 = private unnamed_addr constant <{ i8*, [16 x i8] }> <{ i8* getelementptr inbounds (<{ [79 x i8] }>, <{ [79 x i8] }>* @alloc712, i32 0, i32 0, i32 0), [16 x i8] c"O\00\00\00\00\00\00\00\98\05\00\00\14\00\00\00" }>, align 8
@alloc667 = private unnamed_addr constant <{ i8*, [16 x i8] }> <{ i8* getelementptr inbounds (<{ [79 x i8] }>, <{ [79 x i8] }>* @alloc712, i32 0, i32 0, i32 0), [16 x i8] c"O\00\00\00\00\00\00\00\98\05\00\00!\00\00\00" }>, align 8
@alloc670 = private unnamed_addr constant <{ [80 x i8] }> <{ [80 x i8] c"/rustc/d394408fb38c4de61f765a3ed5189d2731a1da91/library/core/src/char/methods.rs" }>, align 1
@alloc669 = private unnamed_addr constant <{ i8*, [16 x i8] }> <{ i8* getelementptr inbounds (<{ [80 x i8] }>, <{ [80 x i8] }>* @alloc670, i32 0, i32 0, i32 0), [16 x i8] c"P\00\00\00\00\00\00\00\A7\06\00\00\0A\00\00\00" }>, align 8
@alloc339 = private unnamed_addr constant <{ [18 x i8] }> <{ [18 x i8] c"encode_utf8: need " }>, align 1
@alloc341 = private unnamed_addr constant <{ [19 x i8] }> <{ [19 x i8] c" bytes to encode U+" }>, align 1
@alloc342 = private unnamed_addr constant <{ [21 x i8] }> <{ [21 x i8] c", but the buffer has " }>, align 1
@alloc340 = private unnamed_addr constant <{ i8*, [8 x i8], i8*, [8 x i8], i8*, [8 x i8] }> <{ i8* getelementptr inbounds (<{ [18 x i8] }>, <{ [18 x i8] }>* @alloc339, i32 0, i32 0, i32 0), [8 x i8] c"\12\00\00\00\00\00\00\00", i8* getelementptr inbounds (<{ [19 x i8] }>, <{ [19 x i8] }>* @alloc341, i32 0, i32 0, i32 0), [8 x i8] c"\13\00\00\00\00\00\00\00", i8* getelementptr inbounds (<{ [21 x i8] }>, <{ [21 x i8] }>* @alloc342, i32 0, i32 0, i32 0), [8 x i8] c"\15\00\00\00\00\00\00\00" }>, align 8
@alloc671 = private unnamed_addr constant <{ i8*, [16 x i8] }> <{ i8* getelementptr inbounds (<{ [80 x i8] }>, <{ [80 x i8] }>* @alloc670, i32 0, i32 0, i32 0), [16 x i8] c"P\00\00\00\00\00\00\00\A0\06\00\00\0E\00\00\00" }>, align 8
@alloc506 = private unnamed_addr constant <{ [49 x i8] }> <{ [49 x i8] c"there is no such thing as an acquire-release load" }>, align 1
@alloc507 = private unnamed_addr constant <{ i8*, [8 x i8] }> <{ i8* getelementptr inbounds (<{ [49 x i8] }>, <{ [49 x i8] }>* @alloc506, i32 0, i32 0, i32 0), [8 x i8] c"1\00\00\00\00\00\00\00" }>, align 8
@alloc684 = private unnamed_addr constant <{ [79 x i8] }> <{ [79 x i8] c"/rustc/d394408fb38c4de61f765a3ed5189d2731a1da91/library/core/src/sync/atomic.rs" }>, align 1
@alloc673 = private unnamed_addr constant <{ i8*, [16 x i8] }> <{ i8* getelementptr inbounds (<{ [79 x i8] }>, <{ [79 x i8] }>* @alloc684, i32 0, i32 0, i32 0), [16 x i8] c"O\00\00\00\00\00\00\00\BF\0B\00\00\17\00\00\00" }>, align 8
@alloc511 = private unnamed_addr constant <{ [40 x i8] }> <{ [40 x i8] c"there is no such thing as a release load" }>, align 1
@alloc512 = private unnamed_addr constant <{ i8*, [8 x i8] }> <{ i8* getelementptr inbounds (<{ [40 x i8] }>, <{ [40 x i8] }>* @alloc511, i32 0, i32 0, i32 0), [8 x i8] c"(\00\00\00\00\00\00\00" }>, align 8
@alloc675 = private unnamed_addr constant <{ i8*, [16 x i8] }> <{ i8* getelementptr inbounds (<{ [79 x i8] }>, <{ [79 x i8] }>* @alloc684, i32 0, i32 0, i32 0), [16 x i8] c"O\00\00\00\00\00\00\00\BE\0B\00\00\18\00\00\00" }>, align 8
@alloc516 = private unnamed_addr constant <{ [50 x i8] }> <{ [50 x i8] c"there is no such thing as an acquire-release store" }>, align 1
@alloc517 = private unnamed_addr constant <{ i8*, [8 x i8] }> <{ i8* getelementptr inbounds (<{ [50 x i8] }>, <{ [50 x i8] }>* @alloc516, i32 0, i32 0, i32 0), [8 x i8] c"2\00\00\00\00\00\00\00" }>, align 8
@alloc677 = private unnamed_addr constant <{ i8*, [16 x i8] }> <{ i8* getelementptr inbounds (<{ [79 x i8] }>, <{ [79 x i8] }>* @alloc684, i32 0, i32 0, i32 0), [16 x i8] c"O\00\00\00\00\00\00\00\B0\0B\00\00\17\00\00\00" }>, align 8
@alloc521 = private unnamed_addr constant <{ [42 x i8] }> <{ [42 x i8] c"there is no such thing as an acquire store" }>, align 1
@alloc522 = private unnamed_addr constant <{ i8*, [8 x i8] }> <{ i8* getelementptr inbounds (<{ [42 x i8] }>, <{ [42 x i8] }>* @alloc521, i32 0, i32 0, i32 0), [8 x i8] c"*\00\00\00\00\00\00\00" }>, align 8
@alloc679 = private unnamed_addr constant <{ i8*, [16 x i8] }> <{ i8* getelementptr inbounds (<{ [79 x i8] }>, <{ [79 x i8] }>* @alloc684, i32 0, i32 0, i32 0), [16 x i8] c"O\00\00\00\00\00\00\00\AF\0B\00\00\18\00\00\00" }>, align 8
@alloc501 = private unnamed_addr constant <{ [61 x i8] }> <{ [61 x i8] c"there is no such thing as an acquire-release failure ordering" }>, align 1
@alloc502 = private unnamed_addr constant <{ i8*, [8 x i8] }> <{ i8* getelementptr inbounds (<{ [61 x i8] }>, <{ [61 x i8] }>* @alloc501, i32 0, i32 0, i32 0), [8 x i8] c"=\00\00\00\00\00\00\00" }>, align 8
@alloc681 = private unnamed_addr constant <{ i8*, [16 x i8] }> <{ i8* getelementptr inbounds (<{ [79 x i8] }>, <{ [79 x i8] }>* @alloc684, i32 0, i32 0, i32 0), [16 x i8] c"O\00\00\00\00\00\00\00\18\0C\00\00\1C\00\00\00" }>, align 8
@alloc496 = private unnamed_addr constant <{ [52 x i8] }> <{ [52 x i8] c"there is no such thing as a release failure ordering" }>, align 1
@alloc497 = private unnamed_addr constant <{ i8*, [8 x i8] }> <{ i8* getelementptr inbounds (<{ [52 x i8] }>, <{ [52 x i8] }>* @alloc496, i32 0, i32 0, i32 0), [8 x i8] c"4\00\00\00\00\00\00\00" }>, align 8
@alloc683 = private unnamed_addr constant <{ i8*, [16 x i8] }> <{ i8* getelementptr inbounds (<{ [79 x i8] }>, <{ [79 x i8] }>* @alloc684, i32 0, i32 0, i32 0), [16 x i8] c"O\00\00\00\00\00\00\00\19\0C\00\00\1D\00\00\00" }>, align 8
@alloc452 = private unnamed_addr constant <{ [41 x i8] }> <{ [41 x i8] c"there is no such thing as a relaxed fence" }>, align 1
@alloc453 = private unnamed_addr constant <{ i8*, [8 x i8] }> <{ i8* getelementptr inbounds (<{ [41 x i8] }>, <{ [41 x i8] }>* @alloc452, i32 0, i32 0, i32 0), [8 x i8] c")\00\00\00\00\00\00\00" }>, align 8
@alloc685 = private unnamed_addr constant <{ i8*, [16 x i8] }> <{ i8* getelementptr inbounds (<{ [79 x i8] }>, <{ [79 x i8] }>* @alloc684, i32 0, i32 0, i32 0), [16 x i8] c"O\00\00\00\00\00\00\00&\0D\00\00\18\00\00\00" }>, align 8
@vtable.6 = private unnamed_addr constant <{ i8*, [16 x i8], i8* }> <{ i8* bitcast (void (i8**)* @"_ZN4core3ptr42drop_in_place$LT$std..io..error..Error$GT$17h95925069f7247ee8E" to i8*), [16 x i8] c"\08\00\00\00\00\00\00\00\08\00\00\00\00\00\00\00", i8* bitcast (i1 (i8**, %"core::fmt::Formatter"*)* @"_ZN58_$LT$std..io..error..Error$u20$as$u20$core..fmt..Debug$GT$3fmt17h9412cc25832b82a2E" to i8*) }>, align 8, !dbg !518
@vtable.7 = private unnamed_addr constant <{ i8*, [16 x i8], i8* }> <{ i8* bitcast (void (%"alloc::ffi::c_str::NulError"*)* @"_ZN4core3ptr48drop_in_place$LT$alloc..ffi..c_str..NulError$GT$17h7d207ed4df96150bE" to i8*), [16 x i8] c" \00\00\00\00\00\00\00\08\00\00\00\00\00\00\00", i8* bitcast (i1 (%"alloc::ffi::c_str::NulError"*, %"core::fmt::Formatter"*)* @"_ZN64_$LT$alloc..ffi..c_str..NulError$u20$as$u20$core..fmt..Debug$GT$3fmt17ha6ddf2cfa3845ef5E" to i8*) }>, align 8, !dbg !526
@alloc692 = private unnamed_addr constant <{ [43 x i8] }> <{ [43 x i8] c"called `Result::unwrap()` on an `Err` value" }>, align 1
@vtable.8 = private unnamed_addr constant <{ i8*, [16 x i8], i8* }> <{ i8* bitcast (void ({ {}*, [3 x i64]* }*)* @"_ZN4core3ptr91drop_in_place$LT$alloc..boxed..Box$LT$dyn$u20$core..any..Any$u2b$core..marker..Send$GT$$GT$17h8e564f303293f592E" to i8*), [16 x i8] c"\10\00\00\00\00\00\00\00\08\00\00\00\00\00\00\00", i8* bitcast (i1 ({ {}*, [3 x i64]* }*, %"core::fmt::Formatter"*)* @"_ZN67_$LT$alloc..boxed..Box$LT$T$C$A$GT$$u20$as$u20$core..fmt..Debug$GT$3fmt17h7a8d1becfc6dcc7bE" to i8*) }>, align 8, !dbg !538
@vtable.9 = private unnamed_addr constant <{ i8*, [16 x i8], i8* }> <{ i8* bitcast (void (float**)* @"_ZN4core3ptr28drop_in_place$LT$$RF$f32$GT$17hbab995f8061b2f16E" to i8*), [16 x i8] c"\08\00\00\00\00\00\00\00\08\00\00\00\00\00\00\00", i8* bitcast (i1 (float**, %"core::fmt::Formatter"*)* @"_ZN42_$LT$$RF$T$u20$as$u20$core..fmt..Debug$GT$3fmt17h620069b5c990afe8E" to i8*) }>, align 8, !dbg !546
@vtable.a = private unnamed_addr constant <{ i8*, [16 x i8], i8* }> <{ i8* bitcast (void ([11 x i32]**)* @"_ZN4core3ptr50drop_in_place$LT$$RF$$u5b$i32$u3b$$u20$11$u5d$$GT$17hafe119a0b0b27325E" to i8*), [16 x i8] c"\08\00\00\00\00\00\00\00\08\00\00\00\00\00\00\00", i8* bitcast (i1 ([11 x i32]**, %"core::fmt::Formatter"*)* @"_ZN42_$LT$$RF$T$u20$as$u20$core..fmt..Debug$GT$3fmt17he83ea735d7c4d560E" to i8*) }>, align 8, !dbg !556
@vtable.b = private unnamed_addr constant <{ i8*, [16 x i8], i8* }> <{ i8* bitcast (void (i32**)* @"_ZN4core3ptr28drop_in_place$LT$$RF$u32$GT$17h3e7df7f56c928aaaE" to i8*), [16 x i8] c"\08\00\00\00\00\00\00\00\08\00\00\00\00\00\00\00", i8* bitcast (i1 (i32**, %"core::fmt::Formatter"*)* @"_ZN42_$LT$$RF$T$u20$as$u20$core..fmt..Debug$GT$3fmt17h13b9f53be999e7a3E" to i8*) }>, align 8, !dbg !568
@vtable.c = private unnamed_addr constant <{ i8*, [16 x i8], i8* }> <{ i8* bitcast (void ([16 x i32]**)* @"_ZN4core3ptr50drop_in_place$LT$$RF$$u5b$i32$u3b$$u20$16$u5d$$GT$17h96a7017c5f71b0d5E" to i8*), [16 x i8] c"\08\00\00\00\00\00\00\00\08\00\00\00\00\00\00\00", i8* bitcast (i1 ([16 x i32]**, %"core::fmt::Formatter"*)* @"_ZN42_$LT$$RF$T$u20$as$u20$core..fmt..Debug$GT$3fmt17h0f7c9127e552ad1eE" to i8*) }>, align 8, !dbg !577
@alloc178 = private unnamed_addr constant <{ [4 x i8] }> zeroinitializer, align 4
@alloc291 = private unnamed_addr constant <{ [67 x i8] }> <{ [67 x i8] c"the test returned a termination value with a non-zero status code (" }>, align 1
@alloc293 = private unnamed_addr constant <{ [27 x i8] }> <{ [27 x i8] c") which indicates a failure" }>, align 1
@alloc292 = private unnamed_addr constant <{ i8*, [8 x i8], i8*, [8 x i8] }> <{ i8* getelementptr inbounds (<{ [67 x i8] }>, <{ [67 x i8] }>* @alloc291, i32 0, i32 0, i32 0), [8 x i8] c"C\00\00\00\00\00\00\00", i8* getelementptr inbounds (<{ [27 x i8] }>, <{ [27 x i8] }>* @alloc293, i32 0, i32 0, i32 0), [8 x i8] c"\1B\00\00\00\00\00\00\00" }>, align 8
@alloc708 = private unnamed_addr constant <{ [71 x i8] }> <{ [71 x i8] c"/rustc/d394408fb38c4de61f765a3ed5189d2731a1da91/library/test/src/lib.rs" }>, align 1
@alloc709 = private unnamed_addr constant <{ i8*, [16 x i8] }> <{ i8* getelementptr inbounds (<{ [71 x i8] }>, <{ [71 x i8] }>* @alloc708, i32 0, i32 0, i32 0), [16 x i8] c"G\00\00\00\00\00\00\00\B8\00\00\00\05\00\00\00" }>, align 8
@alloc463 = private unnamed_addr constant <{ [21 x i8] }> <{ [21 x i8] c"fatal runtime error: " }>, align 1
@alloc465 = private unnamed_addr constant <{ [1 x i8] }> <{ [1 x i8] c"\0A" }>, align 1
@alloc464 = private unnamed_addr constant <{ i8*, [8 x i8], i8*, [8 x i8] }> <{ i8* getelementptr inbounds (<{ [21 x i8] }>, <{ [21 x i8] }>* @alloc463, i32 0, i32 0, i32 0), [8 x i8] c"\15\00\00\00\00\00\00\00", i8* getelementptr inbounds (<{ [1 x i8] }>, <{ [1 x i8] }>* @alloc465, i32 0, i32 0, i32 0), [8 x i8] c"\01\00\00\00\00\00\00\00" }>, align 8
@alloc467 = private unnamed_addr constant <{ [30 x i8] }> <{ [30 x i8] c"thread result panicked on drop" }>, align 1
@alloc468 = private unnamed_addr constant <{ i8*, [8 x i8] }> <{ i8* getelementptr inbounds (<{ [30 x i8] }>, <{ [30 x i8] }>* @alloc467, i32 0, i32 0, i32 0), [8 x i8] c"\1E\00\00\00\00\00\00\00" }>, align 8
@alloc711 = private unnamed_addr constant <{ i8*, [16 x i8] }> <{ i8* getelementptr inbounds (<{ [79 x i8] }>, <{ [79 x i8] }>* @alloc712, i32 0, i32 0, i32 0), [16 x i8] c"O\00\00\00\00\00\00\00\1C\04\00\00\17\00\00\00" }>, align 8
@alloc713 = private unnamed_addr constant <{ i8*, [16 x i8] }> <{ i8* getelementptr inbounds (<{ [79 x i8] }>, <{ [79 x i8] }>* @alloc712, i32 0, i32 0, i32 0), [16 x i8] c"O\00\00\00\00\00\00\00\B7\01\00\00&\00\00\00" }>, align 8
@alloc714 = private unnamed_addr constant <{ [78 x i8] }> <{ [78 x i8] c"/rustc/d394408fb38c4de61f765a3ed5189d2731a1da91/library/core/src/slice/iter.rs" }>, align 1
@alloc715 = private unnamed_addr constant <{ i8*, [16 x i8] }> <{ i8* getelementptr inbounds (<{ [78 x i8] }>, <{ [78 x i8] }>* @alloc714, i32 0, i32 0, i32 0), [16 x i8] c"N\00\00\00\00\00\00\00\87\00\00\00\01\00\00\00" }>, align 8
@str.d = internal constant [28 x i8] c"attempt to add with overflow"
@alloc718 = private unnamed_addr constant <{ [75 x i8] }> <{ [75 x i8] c"/rustc/d394408fb38c4de61f765a3ed5189d2731a1da91/library/core/src/str/mod.rs" }>, align 1
@alloc717 = private unnamed_addr constant <{ i8*, [16 x i8] }> <{ i8* getelementptr inbounds (<{ [75 x i8] }>, <{ [75 x i8] }>* @alloc718, i32 0, i32 0, i32 0), [16 x i8] c"K\00\00\00\00\00\00\00!\0A\00\00\15\00\00\00" }>, align 8
@alloc719 = private unnamed_addr constant <{ i8*, [16 x i8] }> <{ i8* getelementptr inbounds (<{ [75 x i8] }>, <{ [75 x i8] }>* @alloc718, i32 0, i32 0, i32 0), [16 x i8] c"K\00\00\00\00\00\00\00!\0A\00\008\00\00\00" }>, align 8
@_ZN13statics_tests13thread_locals9rust_gssi17ha42a983c30fd17ceE = internal global <{ [4 x i8] }> <{ [4 x i8] c"\11\00\00\00" }>, align 4, !dbg !589
@_ZN13statics_tests13thread_locals9rust_gsti17h8c6e37da93ad1f39E = internal thread_local global <{ [4 x i8] }> <{ [4 x i8] c"%\00\00\00" }>, align 4, !dbg !593
@alloc764 = private unnamed_addr constant <{ [20 x i8] }> <{ [20 x i8] c"src/thread_locals.rs" }>, align 1
@alloc721 = private unnamed_addr constant <{ i8*, [16 x i8] }> <{ i8* getelementptr inbounds (<{ [20 x i8] }>, <{ [20 x i8] }>* @alloc764, i32 0, i32 0, i32 0), [16 x i8] c"\14\00\00\00\00\00\00\00)\00\00\00\05\00\00\00" }>, align 8
@alloc723 = private unnamed_addr constant <{ i8*, [16 x i8] }> <{ i8* getelementptr inbounds (<{ [20 x i8] }>, <{ [20 x i8] }>* @alloc764, i32 0, i32 0, i32 0), [16 x i8] c"\14\00\00\00\00\00\00\00+\00\00\00\09\00\00\00" }>, align 8
@alloc725 = private unnamed_addr constant <{ i8*, [16 x i8] }> <{ i8* getelementptr inbounds (<{ [20 x i8] }>, <{ [20 x i8] }>* @alloc764, i32 0, i32 0, i32 0), [16 x i8] c"\14\00\00\00\00\00\00\00.\00\00\00\09\00\00\00" }>, align 8
@alloc727 = private unnamed_addr constant <{ i8*, [16 x i8] }> <{ i8* getelementptr inbounds (<{ [20 x i8] }>, <{ [20 x i8] }>* @alloc764, i32 0, i32 0, i32 0), [16 x i8] c"\14\00\00\00\00\00\00\000\00\00\00\05\00\00\00" }>, align 8
@alloc729 = private unnamed_addr constant <{ i8*, [16 x i8] }> <{ i8* getelementptr inbounds (<{ [20 x i8] }>, <{ [20 x i8] }>* @alloc764, i32 0, i32 0, i32 0), [16 x i8] c"\14\00\00\00\00\00\00\002\00\00\00\09\00\00\00" }>, align 8
@alloc731 = private unnamed_addr constant <{ i8*, [16 x i8] }> <{ i8* getelementptr inbounds (<{ [20 x i8] }>, <{ [20 x i8] }>* @alloc764, i32 0, i32 0, i32 0), [16 x i8] c"\14\00\00\00\00\00\00\005\00\00\00\09\00\00\00" }>, align 8
@alloc733 = private unnamed_addr constant <{ i8*, [16 x i8] }> <{ i8* getelementptr inbounds (<{ [20 x i8] }>, <{ [20 x i8] }>* @alloc764, i32 0, i32 0, i32 0), [16 x i8] c"\14\00\00\00\00\00\00\007\00\00\00\05\00\00\00" }>, align 8
@alloc735 = private unnamed_addr constant <{ i8*, [16 x i8] }> <{ i8* getelementptr inbounds (<{ [20 x i8] }>, <{ [20 x i8] }>* @alloc764, i32 0, i32 0, i32 0), [16 x i8] c"\14\00\00\00\00\00\00\009\00\00\00\09\00\00\00" }>, align 8
@alloc737 = private unnamed_addr constant <{ i8*, [16 x i8] }> <{ i8* getelementptr inbounds (<{ [20 x i8] }>, <{ [20 x i8] }>* @alloc764, i32 0, i32 0, i32 0), [16 x i8] c"\14\00\00\00\00\00\00\00<\00\00\00\09\00\00\00" }>, align 8
@alloc739 = private unnamed_addr constant <{ i8*, [16 x i8] }> <{ i8* getelementptr inbounds (<{ [20 x i8] }>, <{ [20 x i8] }>* @alloc764, i32 0, i32 0, i32 0), [16 x i8] c"\14\00\00\00\00\00\00\00>\00\00\00\05\00\00\00" }>, align 8
@alloc741 = private unnamed_addr constant <{ i8*, [16 x i8] }> <{ i8* getelementptr inbounds (<{ [20 x i8] }>, <{ [20 x i8] }>* @alloc764, i32 0, i32 0, i32 0), [16 x i8] c"\14\00\00\00\00\00\00\00@\00\00\00\09\00\00\00" }>, align 8
@alloc743 = private unnamed_addr constant <{ i8*, [16 x i8] }> <{ i8* getelementptr inbounds (<{ [20 x i8] }>, <{ [20 x i8] }>* @alloc764, i32 0, i32 0, i32 0), [16 x i8] c"\14\00\00\00\00\00\00\00C\00\00\00\09\00\00\00" }>, align 8
@alloc745 = private unnamed_addr constant <{ i8*, [16 x i8] }> <{ i8* getelementptr inbounds (<{ [20 x i8] }>, <{ [20 x i8] }>* @alloc764, i32 0, i32 0, i32 0), [16 x i8] c"\14\00\00\00\00\00\00\00E\00\00\00\05\00\00\00" }>, align 8
@alloc747 = private unnamed_addr constant <{ i8*, [16 x i8] }> <{ i8* getelementptr inbounds (<{ [20 x i8] }>, <{ [20 x i8] }>* @alloc764, i32 0, i32 0, i32 0), [16 x i8] c"\14\00\00\00\00\00\00\00G\00\00\00\09\00\00\00" }>, align 8
@alloc749 = private unnamed_addr constant <{ i8*, [16 x i8] }> <{ i8* getelementptr inbounds (<{ [20 x i8] }>, <{ [20 x i8] }>* @alloc764, i32 0, i32 0, i32 0), [16 x i8] c"\14\00\00\00\00\00\00\00J\00\00\00\09\00\00\00" }>, align 8
@alloc751 = private unnamed_addr constant <{ i8*, [16 x i8] }> <{ i8* getelementptr inbounds (<{ [20 x i8] }>, <{ [20 x i8] }>* @alloc764, i32 0, i32 0, i32 0), [16 x i8] c"\14\00\00\00\00\00\00\00L\00\00\00\05\00\00\00" }>, align 8
@alloc753 = private unnamed_addr constant <{ i8*, [16 x i8] }> <{ i8* getelementptr inbounds (<{ [20 x i8] }>, <{ [20 x i8] }>* @alloc764, i32 0, i32 0, i32 0), [16 x i8] c"\14\00\00\00\00\00\00\00N\00\00\00\09\00\00\00" }>, align 8
@alloc755 = private unnamed_addr constant <{ i8*, [16 x i8] }> <{ i8* getelementptr inbounds (<{ [20 x i8] }>, <{ [20 x i8] }>* @alloc764, i32 0, i32 0, i32 0), [16 x i8] c"\14\00\00\00\00\00\00\00Q\00\00\00\09\00\00\00" }>, align 8
@alloc757 = private unnamed_addr constant <{ i8*, [16 x i8] }> <{ i8* getelementptr inbounds (<{ [20 x i8] }>, <{ [20 x i8] }>* @alloc764, i32 0, i32 0, i32 0), [16 x i8] c"\14\00\00\00\00\00\00\00S\00\00\00\05\00\00\00" }>, align 8
@alloc759 = private unnamed_addr constant <{ i8*, [16 x i8] }> <{ i8* getelementptr inbounds (<{ [20 x i8] }>, <{ [20 x i8] }>* @alloc764, i32 0, i32 0, i32 0), [16 x i8] c"\14\00\00\00\00\00\00\00U\00\00\00\09\00\00\00" }>, align 8
@alloc761 = private unnamed_addr constant <{ i8*, [16 x i8] }> <{ i8* getelementptr inbounds (<{ [20 x i8] }>, <{ [20 x i8] }>* @alloc764, i32 0, i32 0, i32 0), [16 x i8] c"\14\00\00\00\00\00\00\00X\00\00\00\09\00\00\00" }>, align 8
@alloc763 = private unnamed_addr constant <{ i8*, [16 x i8] }> <{ i8* getelementptr inbounds (<{ [20 x i8] }>, <{ [20 x i8] }>* @alloc764, i32 0, i32 0, i32 0), [16 x i8] c"\14\00\00\00\00\00\00\00Z\00\00\00\05\00\00\00" }>, align 8
@alloc765 = private unnamed_addr constant <{ i8*, [16 x i8] }> <{ i8* getelementptr inbounds (<{ [20 x i8] }>, <{ [20 x i8] }>* @alloc764, i32 0, i32 0, i32 0), [16 x i8] c"\14\00\00\00\00\00\00\00\\\00\00\00\09\00\00\00" }>, align 8
@_ZN13statics_tests13thread_locals17rust_thread_entry9rust_fssi17hd080597f2f0eb4e3E = internal global <{ [4 x i8] }> <{ [4 x i8] c"5\00\00\00" }>, align 4, !dbg !595
@_ZN13statics_tests13thread_locals17rust_thread_entry9rust_fsti17hfed40b6f8f57ce71E = internal thread_local global <{ [4 x i8] }> <{ [4 x i8] c";\00\00\00" }>, align 4, !dbg !598
@rust_params = global <{ [24 x i8] }> <{ [24 x i8] c"\01\00\00\00\00\00\00\00ff\A6?\01\00\00\00\00\00\00\00\9A\99\99?" }>, align 4, !dbg !600
@rust_dont_section_a = global <{ [4 x i8] }> zeroinitializer, align 4, !dbg !612
@rust_dont_section_b = global <{ [4 x i8] }> <{ [4 x i8] c"\FF\FF\FF\FF" }>, align 4, !dbg !614
@rust_dont_section_c = global <{ i8* }> <{ i8* getelementptr inbounds (<{ [4 x i8] }>, <{ [4 x i8] }>* @rust_dont_section_a, i32 0, i32 0, i32 0) }>, align 8, !dbg !616
@rust_dont_section_d = global <{ i8* }> <{ i8* bitcast (<{ i8* }>* @rust_dont_section_d to i8*) }>, align 8, !dbg !619
@rust_dont_section_foo = global <{ [12 x i8] }> zeroinitializer, align 4, !dbg !621
@rust_dont_section_me = global <{ [4 x i8] }> <{ [4 x i8] c"\02\00\00\00" }>, align 4, !dbg !623
@rust_bar = global <{ [8 x i8] }> zeroinitializer, align 8, !dbg !625
@rust_int_to_pointer = global <{ [8 x i8] }> <{ [8 x i8] c"\FF\FF\FF\FF\FF\FF\FF\FF" }>, align 8, !dbg !630
@rust_null_to_ptr_ty = global <{ [8 x i8] }> zeroinitializer, align 8, !dbg !638
@rust_section_me = global <{ [4 x i8] }> zeroinitializer, align 4, !dbg !640
@rust_section_me2 = global <{ [4 x i8] }> zeroinitializer, align 4, !dbg !642
@rust_section_me3 = global <{ [4 x i8] }> zeroinitializer, align 4, !dbg !644
@rust_section_me4 = global <{ [4 x i8] }> zeroinitializer, align 4, !dbg !646
@rust_section_me5 = global <{ [4 x i8] }> zeroinitializer, align 4, !dbg !648
@rust_section_foo_b_field = global <{ [12 x i8] }> zeroinitializer, align 4, !dbg !650
@rust_section_num_params = global <{ [4 x i8] }> zeroinitializer, align 4, !dbg !652
@rust_if_expr = global <{ [8 x i8] }> zeroinitializer, align 8, !dbg !654
@rust_s = global <{ [8 x i8] }> zeroinitializer, align 8, !dbg !656
@rust_s2 = global <{ [8 x i8] }> zeroinitializer, align 8, !dbg !662
@rust_int_to_fn_ptr = global <{ [8 x i8] }> zeroinitializer, align 8, !dbg !667
@rust_int_to_fn_ptr2 = global <{ [8 x i8] }> zeroinitializer, align 8, !dbg !683
@rust_int_to_fn_ptr3 = global <{ [8 x i8] }> zeroinitializer, align 8, !dbg !701
@_ZN13statics_tests8sections26rust_sectioned_scoped_init17h8d245479008eab85E = internal global <{ [8 x i8] }> zeroinitializer, align 8, !dbg !703
@_ZN13statics_tests8sections26rust_fn_scoped_static_init18rust_not_sectioned17hbdf5c484f106ab02E = internal global <{ [4 x i8] }> <{ [4 x i8] c"\01\00\00\00" }>, align 4, !dbg !705
@rust_fn_scoped_extern = global <{ [8 x i8] }> <{ [8 x i8] c"\01\00\00\00\00\00\00\00" }>, align 8, !dbg !708
@_ZN13statics_tests8sections20rust_sectioned_array17h1e43ae8f57627000E = internal global <{ [8 x i8] }> zeroinitializer, align 8, !dbg !710
@_ZN13statics_tests8sections10INIT_ARRAY17h99c3ca5e85ae4ca0E = internal constant <{ i8* }> <{ i8* bitcast (void ()* @_ZN13statics_tests8sections23run_static_initializers17hddfc9d13475afc0eE to i8*) }>, section ".init_array", align 8, !dbg !715
@gesi = global <{ [4 x i8] }> <{ [4 x i8] c"G\00\00\00" }>, align 4, !dbg !718
@rust_gesi = global <{ [4 x i8] }> <{ [4 x i8] c"G\00\00\00" }>, align 4, !dbg !721
@fesi = global <{ [4 x i8] }> <{ [4 x i8] c"q\00\00\00" }>, align 4, !dbg !723
@rust_fesi = global <{ [4 x i8] }> <{ [4 x i8] c"q\00\00\00" }>, align 4, !dbg !725
@geti = thread_local global <{ [4 x i8] }> <{ [4 x i8] c"\93\00\00\00" }>, align 4, !dbg !727
@rust_geti = thread_local global <{ [4 x i8] }> <{ [4 x i8] c"\93\00\00\00" }>, align 4, !dbg !729
@feti = thread_local global <{ [4 x i8] }> <{ [4 x i8] c"\ED\00\00\00" }>, align 4, !dbg !731
@rust_feti = thread_local global <{ [4 x i8] }> <{ [4 x i8] c"\ED\00\00\00" }>, align 4, !dbg !733
@alloc848 = private unnamed_addr constant <{ [25 x i8] }> <{ [25 x i8] c"src/test_thread_locals.rs" }>, align 1
@alloc767 = private unnamed_addr constant <{ i8*, [16 x i8] }> <{ i8* getelementptr inbounds (<{ [25 x i8] }>, <{ [25 x i8] }>* @alloc848, i32 0, i32 0, i32 0), [16 x i8] c"\19\00\00\00\00\00\00\00+\00\00\00\05\00\00\00" }>, align 8
@alloc769 = private unnamed_addr constant <{ i8*, [16 x i8] }> <{ i8* getelementptr inbounds (<{ [25 x i8] }>, <{ [25 x i8] }>* @alloc848, i32 0, i32 0, i32 0), [16 x i8] c"\19\00\00\00\00\00\00\00-\00\00\00\09\00\00\00" }>, align 8
@alloc771 = private unnamed_addr constant <{ i8*, [16 x i8] }> <{ i8* getelementptr inbounds (<{ [25 x i8] }>, <{ [25 x i8] }>* @alloc848, i32 0, i32 0, i32 0), [16 x i8] c"\19\00\00\00\00\00\00\00.\00\00\00\09\00\00\00" }>, align 8
@alloc773 = private unnamed_addr constant <{ i8*, [16 x i8] }> <{ i8* getelementptr inbounds (<{ [25 x i8] }>, <{ [25 x i8] }>* @alloc848, i32 0, i32 0, i32 0), [16 x i8] c"\19\00\00\00\00\00\00\00/\00\00\00\09\00\00\00" }>, align 8
@alloc775 = private unnamed_addr constant <{ i8*, [16 x i8] }> <{ i8* getelementptr inbounds (<{ [25 x i8] }>, <{ [25 x i8] }>* @alloc848, i32 0, i32 0, i32 0), [16 x i8] c"\19\00\00\00\00\00\00\000\00\00\00\09\00\00\00" }>, align 8
@rust_used_static = global <{ [4 x i8] }> <{ [4 x i8] c"\01\00\00\00" }>, section "foo", align 4, !dbg !735
@rust_used_static2 = global <{ [4 x i8] }> <{ [4 x i8] c"\02\00\00\00" }>, section "bar", align 4, !dbg !739
@_ZN13statics_tests10attributes17rust_used_static417hc073714b54728f09E = internal global <{ [4 x i8] }> <{ [4 x i8] c"\01\00\00\00" }>, section "barz", align 4, !dbg !741
@rust_used_static3 = global <{ [4 x i8] }> zeroinitializer, section "baz", align 4, !dbg !743
@rust_no_attrs = global <{ [4 x i8] }> <{ [4 x i8] c"\01\00\00\00" }>, align 4, !dbg !745
@rust_initialized_extern = global <{ [4 x i8] }> <{ [4 x i8] c"\01\00\00\00" }>, section "fb", align 4, !dbg !747
@_ZN13statics_tests10attributes10INIT_ARRAY17h5f9cd6bf7e743198E = internal constant <{ i8* }> <{ i8* bitcast (void ()* @_ZN13statics_tests10attributes23run_static_initializers17h2ed908014654bcc4E to i8*) }>, section ".init_array", align 8, !dbg !749
@rust_visible_everywhere = global <{ [4 x i8] }> <{ [4 x i8] c"\09\00\00\00" }>, align 4, !dbg !751
@_ZN13statics_tests7storage12rust_counter17he98b1991b3a2a6e9E = internal global <{ [4 x i8] }> zeroinitializer, align 4, !dbg !755
@alloc782 = private unnamed_addr constant <{ [14 x i8] }> <{ [14 x i8] c"src/storage.rs" }>, align 1
@alloc777 = private unnamed_addr constant <{ i8*, [16 x i8] }> <{ i8* getelementptr inbounds (<{ [14 x i8] }>, <{ [14 x i8] }>* @alloc782, i32 0, i32 0, i32 0), [16 x i8] c"\0E\00\00\00\00\00\00\00\1A\00\00\00\05\00\00\00" }>, align 8
@alloc779 = private unnamed_addr constant <{ i8*, [16 x i8] }> <{ i8* getelementptr inbounds (<{ [14 x i8] }>, <{ [14 x i8] }>* @alloc782, i32 0, i32 0, i32 0), [16 x i8] c"\0E\00\00\00\00\00\00\00\1C\00\00\00\0C\00\00\00" }>, align 8
@_ZN13statics_tests7storage8rust_baz6rust_k17h896fedec22886b3eE = internal global <{ [4 x i8] }> zeroinitializer, align 4, !dbg !757
@alloc38 = private unnamed_addr constant <{ [6 x i8] }> <{ [6 x i8] c"hello\00" }>, align 1
@_ZN13statics_tests7storage10rust_hello17h3904f6f05287022dE = internal global <{ i8* }> <{ i8* getelementptr inbounds (<{ [6 x i8] }>, <{ [6 x i8] }>* @alloc38, i32 0, i32 0, i32 0) }>, align 8, !dbg !760
@alloc781 = private unnamed_addr constant <{ i8*, [16 x i8] }> <{ i8* getelementptr inbounds (<{ [14 x i8] }>, <{ [14 x i8] }>* @alloc782, i32 0, i32 0, i32 0), [16 x i8] c"\0E\00\00\00\00\00\00\00?\00\00\005\00\00\00" }>, align 8
@alloc783 = private unnamed_addr constant <{ i8*, [16 x i8] }> <{ i8* getelementptr inbounds (<{ [14 x i8] }>, <{ [14 x i8] }>* @alloc782, i32 0, i32 0, i32 0), [16 x i8] c"\0E\00\00\00\00\00\00\00B\00\00\00\05\00\00\00" }>, align 8
@str.e = internal constant [33 x i8] c"attempt to subtract with overflow"
@alloc41 = private unnamed_addr constant <{ [6 x i8] }> <{ [6 x i8] c"world\00" }>, align 1
@_ZN13statics_tests7storage10rust_entry10rust_world17he2f89ceb8d536c35E = internal global <{ i8* }> <{ i8* getelementptr inbounds (<{ [6 x i8] }>, <{ [6 x i8] }>* @alloc41, i32 0, i32 0, i32 0) }>, align 8, !dbg !764
@_ZN13statics_tests7storage10rust_entry8rust_Foo17h34d66082d6db67beE = internal global <{ [3 x i8] }> <{ [3 x i8] c"foo" }>, align 1, !dbg !767
@_ZN13statics_tests7storage10rust_entry8rust_Bar17h1b7bb100cb6d99cfE = internal global <{ [3 x i8], [1 x i8] }> <{ [3 x i8] c"foo", [1 x i8] undef }>, align 4, !dbg !773
@alloc208 = private unnamed_addr constant <{ [4 x i8] }> <{ [4 x i8] c"\FF\FF\FF\FF" }>, align 4
@alloc842 = private unnamed_addr constant <{ [20 x i8] }> <{ [20 x i8] c"src/test_sections.rs" }>, align 1
@alloc785 = private unnamed_addr constant <{ i8*, [16 x i8] }> <{ i8* getelementptr inbounds (<{ [20 x i8] }>, <{ [20 x i8] }>* @alloc842, i32 0, i32 0, i32 0), [16 x i8] c"\14\00\00\00\00\00\00\00\09\00\00\00\09\00\00\00" }>, align 8
@alloc787 = private unnamed_addr constant <{ i8*, [16 x i8] }> <{ i8* getelementptr inbounds (<{ [20 x i8] }>, <{ [20 x i8] }>* @alloc842, i32 0, i32 0, i32 0), [16 x i8] c"\14\00\00\00\00\00\00\00\0A\00\00\00\09\00\00\00" }>, align 8
@alloc184 = private unnamed_addr constant <{ [4 x i8] }> <{ [4 x i8] c"\03\00\00\00" }>, align 4
@alloc789 = private unnamed_addr constant <{ i8*, [16 x i8] }> <{ i8* getelementptr inbounds (<{ [20 x i8] }>, <{ [20 x i8] }>* @alloc842, i32 0, i32 0, i32 0), [16 x i8] c"\14\00\00\00\00\00\00\00\0B\00\00\00\09\00\00\00" }>, align 8
@alloc220 = private unnamed_addr constant <{ [4 x i8] }> <{ [4 x i8] c"\02\00\00\00" }>, align 4
@alloc791 = private unnamed_addr constant <{ i8*, [16 x i8] }> <{ i8* getelementptr inbounds (<{ [20 x i8] }>, <{ [20 x i8] }>* @alloc842, i32 0, i32 0, i32 0), [16 x i8] c"\14\00\00\00\00\00\00\00\0C\00\00\00\09\00\00\00" }>, align 8
@alloc793 = private unnamed_addr constant <{ i8*, [16 x i8] }> <{ i8* getelementptr inbounds (<{ [20 x i8] }>, <{ [20 x i8] }>* @alloc842, i32 0, i32 0, i32 0), [16 x i8] c"\14\00\00\00\00\00\00\00\0D\00\00\00\09\00\00\00" }>, align 8
@alloc202 = private unnamed_addr constant <{ [4 x i8] }> <{ [4 x i8] c"\01\00\00\00" }>, align 4
@alloc795 = private unnamed_addr constant <{ i8*, [16 x i8] }> <{ i8* getelementptr inbounds (<{ [20 x i8] }>, <{ [20 x i8] }>* @alloc842, i32 0, i32 0, i32 0), [16 x i8] c"\14\00\00\00\00\00\00\00\0E\00\00\00\09\00\00\00" }>, align 8
@alloc797 = private unnamed_addr constant <{ i8*, [16 x i8] }> <{ i8* getelementptr inbounds (<{ [20 x i8] }>, <{ [20 x i8] }>* @alloc842, i32 0, i32 0, i32 0), [16 x i8] c"\14\00\00\00\00\00\00\00\0F\00\00\00\09\00\00\00" }>, align 8
@alloc214 = private unnamed_addr constant <{ [4 x i8] }> <{ [4 x i8] c"\9A\99\99?" }>, align 4
@alloc799 = private unnamed_addr constant <{ i8*, [16 x i8] }> <{ i8* getelementptr inbounds (<{ [20 x i8] }>, <{ [20 x i8] }>* @alloc842, i32 0, i32 0, i32 0), [16 x i8] c"\14\00\00\00\00\00\00\00\10\00\00\00\09\00\00\00" }>, align 8
@alloc801 = private unnamed_addr constant <{ i8*, [16 x i8] }> <{ i8* getelementptr inbounds (<{ [20 x i8] }>, <{ [20 x i8] }>* @alloc842, i32 0, i32 0, i32 0), [16 x i8] c"\14\00\00\00\00\00\00\00\11\00\00\00\09\00\00\00" }>, align 8
@alloc802 = private unnamed_addr constant <{ [58 x i8] }> <{ [58 x i8] c"assertion failed: rust_if_expr == 30 || rust_if_expr == 31" }>, align 1
@alloc804 = private unnamed_addr constant <{ i8*, [16 x i8] }> <{ i8* getelementptr inbounds (<{ [20 x i8] }>, <{ [20 x i8] }>* @alloc842, i32 0, i32 0, i32 0), [16 x i8] c"\14\00\00\00\00\00\00\00\12\00\00\00\09\00\00\00" }>, align 8
@alloc806 = private unnamed_addr constant <{ i8*, [16 x i8] }> <{ i8* getelementptr inbounds (<{ [20 x i8] }>, <{ [20 x i8] }>* @alloc842, i32 0, i32 0, i32 0), [16 x i8] c"\14\00\00\00\00\00\00\00\18\00\00\00\1F\00\00\00" }>, align 8
@alloc233 = private unnamed_addr constant <{ [4 x i8] }> <{ [4 x i8] c"\FE\FF\FF\FF" }>, align 4
@alloc808 = private unnamed_addr constant <{ i8*, [16 x i8] }> <{ i8* getelementptr inbounds (<{ [20 x i8] }>, <{ [20 x i8] }>* @alloc842, i32 0, i32 0, i32 0), [16 x i8] c"\14\00\00\00\00\00\00\00\18\00\00\00\09\00\00\00" }>, align 8
@alloc810 = private unnamed_addr constant <{ i8*, [16 x i8] }> <{ i8* getelementptr inbounds (<{ [20 x i8] }>, <{ [20 x i8] }>* @alloc842, i32 0, i32 0, i32 0), [16 x i8] c"\14\00\00\00\00\00\00\00\19\00\00\00%\00\00\00" }>, align 8
@alloc812 = private unnamed_addr constant <{ i8*, [16 x i8] }> <{ i8* getelementptr inbounds (<{ [20 x i8] }>, <{ [20 x i8] }>* @alloc842, i32 0, i32 0, i32 0), [16 x i8] c"\14\00\00\00\00\00\00\00\19\00\00\00\09\00\00\00" }>, align 8
@alloc813 = private unnamed_addr constant <{ [1368 x i8] }> <{ [1368 x i8] c"#![allow(\0A    dead_code,\0A    mutable_transmutes,\0A    non_camel_case_types,\0A    non_snake_case,\0A    non_upper_case_globals,\0A    unused_assignments,\0A    unused_mut\0A)]\0Aextern \22C\22 {\0A    #[link_name = \22no_attrs\22]\0A    static mut rust_aliased_static: std::ffi::c_int;\0A}\0A#[no_mangle]\0A#[used]\0A#[link_section = \22foo\22]\0Apub static mut rust_used_static: std::ffi::c_int = 1 as std::ffi::c_int;\0A#[no_mangle]\0A#[used]\0A#[link_section = \22bar\22]\0Apub static mut rust_used_static2: std::ffi::c_int = 2 as std::ffi::c_int;\0A#[used]\0A#[link_section = \22barz\22]\0Astatic mut rust_used_static4: std::ffi::c_int = 1 as std::ffi::c_int;\0A#[no_mangle]\0A#[used]\0A#[link_section = \22baz\22]\0Apub static mut rust_used_static3: std::ffi::c_int = 0;\0A#[no_mangle]\0Apub static mut rust_no_attrs: std::ffi::c_int = 1 as std::ffi::c_int;\0A#[no_mangle]\0A#[link_section = \22fb\22]\0Apub static mut rust_initialized_extern: std::ffi::c_int = 1 as std::ffi::c_int;\0Aunsafe extern \22C\22 fn run_static_initializers() {\0A    rust_used_static3 = (1 as std::ffi::c_int as std::ffi::c_uint)\0A        .wrapping_add(1 as std::ffi::c_uint) as std::ffi::c_int;\0A}\0A#[used]\0A#[cfg_attr(target_os = \22linux\22, link_section = \22.init_array\22)]\0A#[cfg_attr(target_os = \22windows\22, link_section = \22.CRT$XIB\22)]\0A#[cfg_attr(target_os = \22macos\22, link_section = \22__DATA,__mod_init_func\22)]\0Astatic INIT_ARRAY: [unsafe extern \22C\22 fn(); 1] = [run_static_initializers];\0A" }>, align 1
@alloc814 = private unnamed_addr constant <{ [45 x i8] }> <{ [45 x i8] c"Did not find expected static string in source" }>, align 1
@alloc816 = private unnamed_addr constant <{ i8*, [16 x i8] }> <{ i8* getelementptr inbounds (<{ [20 x i8] }>, <{ [20 x i8] }>* @alloc842, i32 0, i32 0, i32 0), [16 x i8] c"\14\00\00\00\00\00\00\00,\00\00\00\0E\00\00\00" }>, align 8
@alloc818 = private unnamed_addr constant <{ i8*, [16 x i8] }> <{ i8* getelementptr inbounds (<{ [20 x i8] }>, <{ [20 x i8] }>* @alloc842, i32 0, i32 0, i32 0), [16 x i8] c"\14\00\00\00\00\00\00\00/\00\00\00\14\00\00\00" }>, align 8
@alloc820 = private unnamed_addr constant <{ i8*, [16 x i8] }> <{ i8* getelementptr inbounds (<{ [20 x i8] }>, <{ [20 x i8] }>* @alloc842, i32 0, i32 0, i32 0), [16 x i8] c"\14\00\00\00\00\00\00\00/\00\00\00\0E\00\00\00" }>, align 8
@alloc318 = private unnamed_addr constant <{ [7 x i8] }> <{ [7 x i8] c"#[used]" }>, align 1
@alloc319 = private unnamed_addr constant <{ i8*, [8 x i8] }> <{ i8* getelementptr inbounds (<{ [7 x i8] }>, <{ [7 x i8] }>* @alloc318, i32 0, i32 0, i32 0), [8 x i8] c"\07\00\00\00\00\00\00\00" }>, align 8
@alloc822 = private unnamed_addr constant <{ i8*, [16 x i8] }> <{ i8* getelementptr inbounds (<{ [20 x i8] }>, <{ [20 x i8] }>* @alloc842, i32 0, i32 0, i32 0), [16 x i8] c"\14\00\00\00\00\00\00\00/\00\00\003\00\00\00" }>, align 8
@alloc824 = private unnamed_addr constant <{ i8*, [16 x i8] }> <{ i8* getelementptr inbounds (<{ [20 x i8] }>, <{ [20 x i8] }>* @alloc842, i32 0, i32 0, i32 0), [16 x i8] c"\14\00\00\00\00\00\00\00/\00\00\00-\00\00\00" }>, align 8
@alloc321 = private unnamed_addr constant <{ [24 x i8] }> <{ [24 x i8] c"#[link_section = \22barz\22]" }>, align 1
@alloc322 = private unnamed_addr constant <{ i8*, [8 x i8] }> <{ i8* getelementptr inbounds (<{ [24 x i8] }>, <{ [24 x i8] }>* @alloc321, i32 0, i32 0, i32 0), [8 x i8] c"\18\00\00\00\00\00\00\00" }>, align 8
@alloc826 = private unnamed_addr constant <{ i8*, [16 x i8] }> <{ i8* getelementptr inbounds (<{ [20 x i8] }>, <{ [20 x i8] }>* @alloc842, i32 0, i32 0, i32 0), [16 x i8] c"\14\00\00\00\00\00\00\000\00\00\00\1B\00\00\00" }>, align 8
@alloc828 = private unnamed_addr constant <{ i8*, [16 x i8] }> <{ i8* getelementptr inbounds (<{ [20 x i8] }>, <{ [20 x i8] }>* @alloc842, i32 0, i32 0, i32 0), [16 x i8] c"\14\00\00\00\00\00\00\000\00\00\00\15\00\00\00" }>, align 8
@alloc830 = private unnamed_addr constant <{ i8*, [16 x i8] }> <{ i8* getelementptr inbounds (<{ [20 x i8] }>, <{ [20 x i8] }>* @alloc842, i32 0, i32 0, i32 0), [16 x i8] c"\14\00\00\00\00\00\00\000\00\00\00:\00\00\00" }>, align 8
@alloc832 = private unnamed_addr constant <{ i8*, [16 x i8] }> <{ i8* getelementptr inbounds (<{ [20 x i8] }>, <{ [20 x i8] }>* @alloc842, i32 0, i32 0, i32 0), [16 x i8] c"\14\00\00\00\00\00\00\000\00\00\004\00\00\00" }>, align 8
@alloc833 = private unnamed_addr constant <{ [227 x i8] }> <{ [227 x i8] c"assertion failed: (lines[pos - 1] == \\\22#[used]\\\22 &&\\n            lines[pos - 2] == \\\22#[link_section = \\\\\\\22barz\\\\\\\22]\\\22) ||\\n    (lines[pos - 2] == \\\22#[used]\\\22 &&\\n            lines[pos - 1] == \\\22#[link_section = \\\\\\\22barz\\\\\\\22]\\\22)" }>, align 1
@alloc835 = private unnamed_addr constant <{ i8*, [16 x i8] }> <{ i8* getelementptr inbounds (<{ [20 x i8] }>, <{ [20 x i8] }>* @alloc842, i32 0, i32 0, i32 0), [16 x i8] c"\14\00\00\00\00\00\00\00.\00\00\00\09\00\00\00" }>, align 8
@alloc836 = private unnamed_addr constant <{ [102 x i8] }> <{ [102 x i8] c"#[link_section = \22fb\22]\0Apub static mut rust_initialized_extern: std::ffi::c_int = 1 as std::ffi::c_int;" }>, align 1
@alloc837 = private unnamed_addr constant <{ [146 x i8] }> <{ [146 x i8] c"assertion failed: src.contains(\\\22#[link_section = \\\\\\\22fb\\\\\\\22]\\\\npub static mut rust_initialized_extern: std::ffi::c_int = 1 as std::ffi::c_int;\\\22)" }>, align 1
@alloc839 = private unnamed_addr constant <{ i8*, [16 x i8] }> <{ i8* getelementptr inbounds (<{ [20 x i8] }>, <{ [20 x i8] }>* @alloc842, i32 0, i32 0, i32 0), [16 x i8] c"\14\00\00\00\00\00\00\004\00\00\00\09\00\00\00" }>, align 8
@alloc840 = private unnamed_addr constant <{ [95 x i8] }> <{ [95 x i8] c"extern \22C\22 {\0A    #[link_name = \22no_attrs\22]\0A    static mut rust_aliased_static: std::ffi::c_int;" }>, align 1
@alloc841 = private unnamed_addr constant <{ [147 x i8] }> <{ [147 x i8] c"assertion failed: src.contains(\\\22extern \\\\\\\22C\\\\\\\22 {\\\\n    #[link_name = \\\\\\\22no_attrs\\\\\\\22]\\\\n    static mut rust_aliased_static: std::ffi::c_int;\\\22)" }>, align 1
@alloc843 = private unnamed_addr constant <{ i8*, [16 x i8] }> <{ i8* getelementptr inbounds (<{ [20 x i8] }>, <{ [20 x i8] }>* @alloc842, i32 0, i32 0, i32 0), [16 x i8] c"\14\00\00\00\00\00\00\005\00\00\00\09\00\00\00" }>, align 8
@alloc365 = private unnamed_addr constant <{ [69 x i8] }> <{ [69 x i8] c"static mut rust_used_static4: std::ffi::c_int = 1 as std::ffi::c_int;" }>, align 1
@alloc366 = private unnamed_addr constant <{ i8*, [8 x i8] }> <{ i8* getelementptr inbounds (<{ [69 x i8] }>, <{ [69 x i8] }>* @alloc365, i32 0, i32 0, i32 0), [8 x i8] c"E\00\00\00\00\00\00\00" }>, align 8
@alloc846 = private unnamed_addr constant <{ [19 x i8] }> <{ [19 x i8] c"src/test_storage.rs" }>, align 1
@alloc845 = private unnamed_addr constant <{ i8*, [16 x i8] }> <{ i8* getelementptr inbounds (<{ [19 x i8] }>, <{ [19 x i8] }>* @alloc846, i32 0, i32 0, i32 0), [16 x i8] c"\13\00\00\00\00\00\00\00\16\00\00\00\05\00\00\00" }>, align 8
@alloc847 = private unnamed_addr constant <{ i8*, [16 x i8] }> <{ i8* getelementptr inbounds (<{ [19 x i8] }>, <{ [19 x i8] }>* @alloc846, i32 0, i32 0, i32 0), [16 x i8] c"\13\00\00\00\00\00\00\00\17\00\00\00\05\00\00\00" }>, align 8
@alloc849 = private unnamed_addr constant <{ i8*, [16 x i8] }> <{ i8* getelementptr inbounds (<{ [25 x i8] }>, <{ [25 x i8] }>* @alloc848, i32 0, i32 0, i32 0), [16 x i8] c"\19\00\00\00\00\00\00\00=\00\00\00\16\00\00\00" }>, align 8
@alloc50 = private unnamed_addr constant <{ [37 x i8] }> <{ [37 x i8] c"test_sections::test_sectioned_statics" }>, align 1
@alloc529 = private unnamed_addr constant <{ [1 x i8], [7 x i8], i8*, [8 x i8], [16 x i8], [8 x i8], [8 x i8], [8 x i8], [16 x i8], [4 x i8], [4 x i8], [8 x i8], i8*, [8 x i8] }> <{ [1 x i8] zeroinitializer, [7 x i8] undef, i8* getelementptr inbounds (<{ [37 x i8] }>, <{ [37 x i8] }>* @alloc50, i32 0, i32 0, i32 0), [8 x i8] c"%\00\00\00\00\00\00\00", [16 x i8] undef, [8 x i8] zeroinitializer, [8 x i8] undef, [8 x i8] zeroinitializer, [16 x i8] undef, [4 x i8] zeroinitializer, [4 x i8] undef, [8 x i8] zeroinitializer, i8* bitcast (void ()* @_ZN4core3ops8function6FnOnce9call_once17h1cd12005797dbabbE to i8*), [8 x i8] undef }>, align 8
@alloc60 = private unnamed_addr constant <{ [41 x i8] }> <{ [41 x i8] c"test_sections::test_sectioned_used_static" }>, align 1
@alloc530 = private unnamed_addr constant <{ [1 x i8], [7 x i8], i8*, [8 x i8], [16 x i8], [8 x i8], [8 x i8], [8 x i8], [16 x i8], [4 x i8], [4 x i8], [8 x i8], i8*, [8 x i8] }> <{ [1 x i8] zeroinitializer, [7 x i8] undef, i8* getelementptr inbounds (<{ [41 x i8] }>, <{ [41 x i8] }>* @alloc60, i32 0, i32 0, i32 0), [8 x i8] c")\00\00\00\00\00\00\00", [16 x i8] undef, [8 x i8] zeroinitializer, [8 x i8] undef, [8 x i8] zeroinitializer, [16 x i8] undef, [4 x i8] zeroinitializer, [4 x i8] undef, [8 x i8] zeroinitializer, i8* bitcast (void ()* @_ZN4core3ops8function6FnOnce9call_once17hb7ff2ba48361f4faE to i8*), [8 x i8] undef }>, align 8
@alloc114 = private unnamed_addr constant <{ [25 x i8] }> <{ [25 x i8] c"test_storage::test_buffer" }>, align 1
@alloc531 = private unnamed_addr constant <{ [1 x i8], [7 x i8], i8*, [8 x i8], [16 x i8], [8 x i8], [8 x i8], [8 x i8], [16 x i8], [4 x i8], [4 x i8], [8 x i8], i8*, [8 x i8] }> <{ [1 x i8] zeroinitializer, [7 x i8] undef, i8* getelementptr inbounds (<{ [25 x i8] }>, <{ [25 x i8] }>* @alloc114, i32 0, i32 0, i32 0), [8 x i8] c"\19\00\00\00\00\00\00\00", [16 x i8] undef, [8 x i8] zeroinitializer, [8 x i8] undef, [8 x i8] zeroinitializer, [16 x i8] undef, [4 x i8] zeroinitializer, [4 x i8] undef, [8 x i8] zeroinitializer, i8* bitcast (void ()* @_ZN4core3ops8function6FnOnce9call_once17ha38857fdf9210d78E to i8*), [8 x i8] undef }>, align 8
@alloc132 = private unnamed_addr constant <{ [38 x i8] }> <{ [38 x i8] c"test_thread_locals::test_thread_locals" }>, align 1
@alloc532 = private unnamed_addr constant <{ [1 x i8], [7 x i8], i8*, [8 x i8], [16 x i8], [8 x i8], [8 x i8], [8 x i8], [16 x i8], [4 x i8], [4 x i8], [8 x i8], i8*, [8 x i8] }> <{ [1 x i8] zeroinitializer, [7 x i8] undef, i8* getelementptr inbounds (<{ [38 x i8] }>, <{ [38 x i8] }>* @alloc132, i32 0, i32 0, i32 0), [8 x i8] c"&\00\00\00\00\00\00\00", [16 x i8] undef, [8 x i8] zeroinitializer, [8 x i8] undef, [8 x i8] zeroinitializer, [16 x i8] undef, [4 x i8] zeroinitializer, [4 x i8] undef, [8 x i8] zeroinitializer, i8* bitcast (void ()* @_ZN4core3ops8function6FnOnce9call_once17h76db4904c424c19eE to i8*), [8 x i8] undef }>, align 8
@alloc533 = private unnamed_addr constant <{ i8*, i8*, i8*, i8* }> <{ i8* getelementptr inbounds (<{ [1 x i8], [7 x i8], i8*, [8 x i8], [16 x i8], [8 x i8], [8 x i8], [8 x i8], [16 x i8], [4 x i8], [4 x i8], [8 x i8], i8*, [8 x i8] }>, <{ [1 x i8], [7 x i8], i8*, [8 x i8], [16 x i8], [8 x i8], [8 x i8], [8 x i8], [16 x i8], [4 x i8], [4 x i8], [8 x i8], i8*, [8 x i8] }>* @alloc529, i32 0, i32 0, i32 0), i8* getelementptr inbounds (<{ [1 x i8], [7 x i8], i8*, [8 x i8], [16 x i8], [8 x i8], [8 x i8], [8 x i8], [16 x i8], [4 x i8], [4 x i8], [8 x i8], i8*, [8 x i8] }>, <{ [1 x i8], [7 x i8], i8*, [8 x i8], [16 x i8], [8 x i8], [8 x i8], [8 x i8], [16 x i8], [4 x i8], [4 x i8], [8 x i8], i8*, [8 x i8] }>* @alloc530, i32 0, i32 0, i32 0), i8* getelementptr inbounds (<{ [1 x i8], [7 x i8], i8*, [8 x i8], [16 x i8], [8 x i8], [8 x i8], [8 x i8], [16 x i8], [4 x i8], [4 x i8], [8 x i8], i8*, [8 x i8] }>, <{ [1 x i8], [7 x i8], i8*, [8 x i8], [16 x i8], [8 x i8], [8 x i8], [8 x i8], [16 x i8], [4 x i8], [4 x i8], [8 x i8], i8*, [8 x i8] }>* @alloc531, i32 0, i32 0, i32 0), i8* getelementptr inbounds (<{ [1 x i8], [7 x i8], i8*, [8 x i8], [16 x i8], [8 x i8], [8 x i8], [8 x i8], [16 x i8], [4 x i8], [4 x i8], [8 x i8], i8*, [8 x i8] }>, <{ [1 x i8], [7 x i8], i8*, [8 x i8], [16 x i8], [8 x i8], [8 x i8], [8 x i8], [16 x i8], [4 x i8], [4 x i8], [8 x i8], i8*, [8 x i8] }>* @alloc532, i32 0, i32 0, i32 0) }>, align 8
@__rustc_debug_gdb_scripts_section__ = linkonce_odr unnamed_addr constant [34 x i8] c"\01gdb_load_rust_pretty_printers.py\00", section ".debug_gdb_scripts", align 1
@llvm.compiler.used = appending global [6 x i8*] [i8* bitcast (<{ i8* }>* @_ZN13statics_tests8sections10INIT_ARRAY17h99c3ca5e85ae4ca0E to i8*), i8* getelementptr inbounds (<{ [4 x i8] }>, <{ [4 x i8] }>* @rust_used_static, i32 0, i32 0, i32 0), i8* getelementptr inbounds (<{ [4 x i8] }>, <{ [4 x i8] }>* @rust_used_static2, i32 0, i32 0, i32 0), i8* getelementptr inbounds (<{ [4 x i8] }>, <{ [4 x i8] }>* @_ZN13statics_tests10attributes17rust_used_static417hc073714b54728f09E, i32 0, i32 0, i32 0), i8* getelementptr inbounds (<{ [4 x i8] }>, <{ [4 x i8] }>* @rust_used_static3, i32 0, i32 0, i32 0), i8* bitcast (<{ i8* }>* @_ZN13statics_tests10attributes10INIT_ARRAY17h5f9cd6bf7e743198E to i8*)], section "llvm.metadata"

; <core::ops::range::Range<usize> as core::slice::index::SliceIndex<[T]>>::get_unchecked
; Function Attrs: inlinehint nonlazybind uwtable
define internal { [0 x i8]*, i64 } @"_ZN106_$LT$core..ops..range..Range$LT$usize$GT$$u20$as$u20$core..slice..index..SliceIndex$LT$$u5b$T$u5d$$GT$$GT$13get_unchecked17h5f751f0d5c54b054E"(i64 %self.0, i64 %self.1, [0 x i8]* %slice.0, i64 %slice.1) unnamed_addr #0 !dbg !888 {
start:
  %metadata.dbg.spill = alloca i64, align 8
  %data_address.dbg.spill = alloca {}*, align 8
  %self.dbg.spill5 = alloca i8*, align 8
  %len.dbg.spill = alloca i64, align 8
  %data.dbg.spill = alloca i8*, align 8
  %0 = alloca i8*, align 8
  %count.dbg.spill4 = alloca i64, align 8
  %self.dbg.spill3 = alloca i8*, align 8
  %count.dbg.spill = alloca i64, align 8
  %self.dbg.spill2 = alloca i8*, align 8
  %self.dbg.spill1 = alloca { [0 x i8]*, i64 }, align 8
  %slice.dbg.spill = alloca { [0 x i8]*, i64 }, align 8
  %self.dbg.spill = alloca { i64, i64 }, align 8
  %_22 = alloca { i8*, i64 }, align 8
  %_21 = alloca %"core::ptr::metadata::PtrRepr<[u8]>", align 8
  %runtime = alloca %"[closure@<core::ops::range::Range<usize> as core::slice::index::SliceIndex<[u8]>>::get_unchecked::{closure#0}]", align 8
  %1 = getelementptr inbounds { i64, i64 }, { i64, i64 }* %self.dbg.spill, i32 0, i32 0
  store i64 %self.0, i64* %1, align 8
  %2 = getelementptr inbounds { i64, i64 }, { i64, i64 }* %self.dbg.spill, i32 0, i32 1
  store i64 %self.1, i64* %2, align 8
  call void @llvm.dbg.declare(metadata { i64, i64 }* %self.dbg.spill, metadata !908, metadata !DIExpression()), !dbg !922
  %3 = getelementptr inbounds { [0 x i8]*, i64 }, { [0 x i8]*, i64 }* %slice.dbg.spill, i32 0, i32 0
  store [0 x i8]* %slice.0, [0 x i8]** %3, align 8
  %4 = getelementptr inbounds { [0 x i8]*, i64 }, { [0 x i8]*, i64 }* %slice.dbg.spill, i32 0, i32 1
  store i64 %slice.1, i64* %4, align 8
  call void @llvm.dbg.declare(metadata { [0 x i8]*, i64 }* %slice.dbg.spill, metadata !909, metadata !DIExpression()), !dbg !923
  call void @llvm.dbg.declare(metadata %"[closure@<core::ops::range::Range<usize> as core::slice::index::SliceIndex<[u8]>>::get_unchecked::{closure#0}]"* %runtime, metadata !910, metadata !DIExpression()), !dbg !924
  %5 = getelementptr inbounds { [0 x i8]*, i64 }, { [0 x i8]*, i64 }* %self.dbg.spill1, i32 0, i32 0, !dbg !925
  store [0 x i8]* %slice.0, [0 x i8]** %5, align 8, !dbg !925
  %6 = getelementptr inbounds { [0 x i8]*, i64 }, { [0 x i8]*, i64 }* %self.dbg.spill1, i32 0, i32 1, !dbg !925
  store i64 %slice.1, i64* %6, align 8, !dbg !925
  call void @llvm.dbg.declare(metadata { [0 x i8]*, i64 }* %self.dbg.spill1, metadata !926, metadata !DIExpression()), !dbg !935
  %self = bitcast [0 x i8]* %slice.0 to i8*, !dbg !935
  store i8* %self, i8** %self.dbg.spill2, align 8, !dbg !935
  call void @llvm.dbg.declare(metadata i8** %self.dbg.spill2, metadata !936, metadata !DIExpression()), !dbg !944
  store i64 %self.0, i64* %count.dbg.spill, align 8, !dbg !945
  call void @llvm.dbg.declare(metadata i64* %count.dbg.spill, metadata !943, metadata !DIExpression()), !dbg !944
  store i8* %self, i8** %self.dbg.spill3, align 8, !dbg !944
  call void @llvm.dbg.declare(metadata i8** %self.dbg.spill3, metadata !946, metadata !DIExpression()), !dbg !954
  store i64 %self.0, i64* %count.dbg.spill4, align 8, !dbg !944
  call void @llvm.dbg.declare(metadata i64* %count.dbg.spill4, metadata !953, metadata !DIExpression()), !dbg !954
  %7 = getelementptr inbounds i8, i8* %self, i64 %self.0, !dbg !954
  store i8* %7, i8** %0, align 8, !dbg !954
  %data = load i8*, i8** %0, align 8, !dbg !954
  store i8* %data, i8** %data.dbg.spill, align 8, !dbg !954
  call void @llvm.dbg.declare(metadata i8** %data.dbg.spill, metadata !956, metadata !DIExpression()), !dbg !964
  br label %bb1, !dbg !954

bb1:                                              ; preds = %start
  %len = sub i64 %self.1, %self.0, !dbg !966
  store i64 %len, i64* %len.dbg.spill, align 8, !dbg !966
  call void @llvm.dbg.declare(metadata i64* %len.dbg.spill, metadata !963, metadata !DIExpression()), !dbg !964
  store i8* %data, i8** %self.dbg.spill5, align 8, !dbg !964
  call void @llvm.dbg.declare(metadata i8** %self.dbg.spill5, metadata !967, metadata !DIExpression()), !dbg !975
  %data_address = bitcast i8* %data to {}*, !dbg !975
  store {}* %data_address, {}** %data_address.dbg.spill, align 8, !dbg !975
  call void @llvm.dbg.declare(metadata {}** %data_address.dbg.spill, metadata !977, metadata !DIExpression()), !dbg !986
  store i64 %len, i64* %metadata.dbg.spill, align 8, !dbg !964
  call void @llvm.dbg.declare(metadata i64* %metadata.dbg.spill, metadata !985, metadata !DIExpression()), !dbg !986
  %8 = bitcast { i8*, i64 }* %_22 to {}**, !dbg !986
  store {}* %data_address, {}** %8, align 8, !dbg !986
  %9 = getelementptr inbounds { i8*, i64 }, { i8*, i64 }* %_22, i32 0, i32 1, !dbg !986
  store i64 %len, i64* %9, align 8, !dbg !986
  %10 = bitcast %"core::ptr::metadata::PtrRepr<[u8]>"* %_21 to { i8*, i64 }*, !dbg !986
  %11 = getelementptr inbounds { i8*, i64 }, { i8*, i64 }* %_22, i32 0, i32 0, !dbg !986
  %12 = load i8*, i8** %11, align 8, !dbg !986
  %13 = getelementptr inbounds { i8*, i64 }, { i8*, i64 }* %_22, i32 0, i32 1, !dbg !986
  %14 = load i64, i64* %13, align 8, !dbg !986
  %15 = getelementptr inbounds { i8*, i64 }, { i8*, i64 }* %10, i32 0, i32 0, !dbg !986
  store i8* %12, i8** %15, align 8, !dbg !986
  %16 = getelementptr inbounds { i8*, i64 }, { i8*, i64 }* %10, i32 0, i32 1, !dbg !986
  store i64 %14, i64* %16, align 8, !dbg !986
  %17 = bitcast %"core::ptr::metadata::PtrRepr<[u8]>"* %_21 to { [0 x i8]*, i64 }*, !dbg !986
  %18 = getelementptr inbounds { [0 x i8]*, i64 }, { [0 x i8]*, i64 }* %17, i32 0, i32 0, !dbg !986
  %19 = load [0 x i8]*, [0 x i8]** %18, align 8, !dbg !986
  %20 = getelementptr inbounds { [0 x i8]*, i64 }, { [0 x i8]*, i64 }* %17, i32 0, i32 1, !dbg !986
  %21 = load i64, i64* %20, align 8, !dbg !986
  %22 = insertvalue { [0 x i8]*, i64 } undef, [0 x i8]* %19, 0, !dbg !988
  %23 = insertvalue { [0 x i8]*, i64 } %22, i64 %21, 1, !dbg !988
  ret { [0 x i8]*, i64 } %23, !dbg !988
}

; <core::ops::range::Range<usize> as core::slice::index::SliceIndex<[T]>>::get_unchecked_mut
; Function Attrs: inlinehint nonlazybind uwtable
define internal { [0 x i8]*, i64 } @"_ZN106_$LT$core..ops..range..Range$LT$usize$GT$$u20$as$u20$core..slice..index..SliceIndex$LT$$u5b$T$u5d$$GT$$GT$17get_unchecked_mut17h7652abd2900ec541E"(i64 %self.0, i64 %self.1, [0 x i8]* %slice.0, i64 %slice.1) unnamed_addr #0 !dbg !989 {
start:
  %metadata.dbg.spill = alloca i64, align 8
  %data_address.dbg.spill = alloca {}*, align 8
  %self.dbg.spill5 = alloca i8*, align 8
  %len.dbg.spill = alloca i64, align 8
  %data.dbg.spill = alloca i8*, align 8
  %0 = alloca i8*, align 8
  %count.dbg.spill4 = alloca i64, align 8
  %self.dbg.spill3 = alloca i8*, align 8
  %count.dbg.spill = alloca i64, align 8
  %self.dbg.spill2 = alloca i8*, align 8
  %self.dbg.spill1 = alloca { [0 x i8]*, i64 }, align 8
  %slice.dbg.spill = alloca { [0 x i8]*, i64 }, align 8
  %self.dbg.spill = alloca { i64, i64 }, align 8
  %_24 = alloca { i8*, i64 }, align 8
  %_23 = alloca %"core::ptr::metadata::PtrRepr<[u8]>", align 8
  %runtime = alloca %"[closure@<core::ops::range::Range<usize> as core::slice::index::SliceIndex<[u8]>>::get_unchecked_mut::{closure#0}]", align 8
  %1 = getelementptr inbounds { i64, i64 }, { i64, i64 }* %self.dbg.spill, i32 0, i32 0
  store i64 %self.0, i64* %1, align 8
  %2 = getelementptr inbounds { i64, i64 }, { i64, i64 }* %self.dbg.spill, i32 0, i32 1
  store i64 %self.1, i64* %2, align 8
  call void @llvm.dbg.declare(metadata { i64, i64 }* %self.dbg.spill, metadata !997, metadata !DIExpression()), !dbg !1009
  %3 = getelementptr inbounds { [0 x i8]*, i64 }, { [0 x i8]*, i64 }* %slice.dbg.spill, i32 0, i32 0
  store [0 x i8]* %slice.0, [0 x i8]** %3, align 8
  %4 = getelementptr inbounds { [0 x i8]*, i64 }, { [0 x i8]*, i64 }* %slice.dbg.spill, i32 0, i32 1
  store i64 %slice.1, i64* %4, align 8
  call void @llvm.dbg.declare(metadata { [0 x i8]*, i64 }* %slice.dbg.spill, metadata !998, metadata !DIExpression()), !dbg !1010
  call void @llvm.dbg.declare(metadata %"[closure@<core::ops::range::Range<usize> as core::slice::index::SliceIndex<[u8]>>::get_unchecked_mut::{closure#0}]"* %runtime, metadata !999, metadata !DIExpression()), !dbg !1011
  %5 = getelementptr inbounds { [0 x i8]*, i64 }, { [0 x i8]*, i64 }* %self.dbg.spill1, i32 0, i32 0, !dbg !1012
  store [0 x i8]* %slice.0, [0 x i8]** %5, align 8, !dbg !1012
  %6 = getelementptr inbounds { [0 x i8]*, i64 }, { [0 x i8]*, i64 }* %self.dbg.spill1, i32 0, i32 1, !dbg !1012
  store i64 %slice.1, i64* %6, align 8, !dbg !1012
  call void @llvm.dbg.declare(metadata { [0 x i8]*, i64 }* %self.dbg.spill1, metadata !1013, metadata !DIExpression()), !dbg !1023
  %self = bitcast [0 x i8]* %slice.0 to i8*, !dbg !1023
  store i8* %self, i8** %self.dbg.spill2, align 8, !dbg !1023
  call void @llvm.dbg.declare(metadata i8** %self.dbg.spill2, metadata !1024, metadata !DIExpression()), !dbg !1032
  store i64 %self.0, i64* %count.dbg.spill, align 8, !dbg !1033
  call void @llvm.dbg.declare(metadata i64* %count.dbg.spill, metadata !1031, metadata !DIExpression()), !dbg !1032
  store i8* %self, i8** %self.dbg.spill3, align 8, !dbg !1032
  call void @llvm.dbg.declare(metadata i8** %self.dbg.spill3, metadata !1034, metadata !DIExpression()), !dbg !1041
  store i64 %self.0, i64* %count.dbg.spill4, align 8, !dbg !1032
  call void @llvm.dbg.declare(metadata i64* %count.dbg.spill4, metadata !1040, metadata !DIExpression()), !dbg !1041
  %7 = getelementptr inbounds i8, i8* %self, i64 %self.0, !dbg !1041
  store i8* %7, i8** %0, align 8, !dbg !1041
  %_15 = load i8*, i8** %0, align 8, !dbg !1041
  br label %bb1, !dbg !1041

bb1:                                              ; preds = %start
  store i8* %_15, i8** %data.dbg.spill, align 8, !dbg !1041
  call void @llvm.dbg.declare(metadata i8** %data.dbg.spill, metadata !1043, metadata !DIExpression()), !dbg !1050
  %len = sub i64 %self.1, %self.0, !dbg !1052
  store i64 %len, i64* %len.dbg.spill, align 8, !dbg !1052
  call void @llvm.dbg.declare(metadata i64* %len.dbg.spill, metadata !1049, metadata !DIExpression()), !dbg !1050
  store i8* %_15, i8** %self.dbg.spill5, align 8, !dbg !1050
  call void @llvm.dbg.declare(metadata i8** %self.dbg.spill5, metadata !1053, metadata !DIExpression()), !dbg !1060
  %data_address = bitcast i8* %_15 to {}*, !dbg !1060
  store {}* %data_address, {}** %data_address.dbg.spill, align 8, !dbg !1060
  call void @llvm.dbg.declare(metadata {}** %data_address.dbg.spill, metadata !1062, metadata !DIExpression()), !dbg !1069
  store i64 %len, i64* %metadata.dbg.spill, align 8, !dbg !1050
  call void @llvm.dbg.declare(metadata i64* %metadata.dbg.spill, metadata !1068, metadata !DIExpression()), !dbg !1069
  %8 = bitcast { i8*, i64 }* %_24 to {}**, !dbg !1069
  store {}* %data_address, {}** %8, align 8, !dbg !1069
  %9 = getelementptr inbounds { i8*, i64 }, { i8*, i64 }* %_24, i32 0, i32 1, !dbg !1069
  store i64 %len, i64* %9, align 8, !dbg !1069
  %10 = bitcast %"core::ptr::metadata::PtrRepr<[u8]>"* %_23 to { i8*, i64 }*, !dbg !1069
  %11 = getelementptr inbounds { i8*, i64 }, { i8*, i64 }* %_24, i32 0, i32 0, !dbg !1069
  %12 = load i8*, i8** %11, align 8, !dbg !1069
  %13 = getelementptr inbounds { i8*, i64 }, { i8*, i64 }* %_24, i32 0, i32 1, !dbg !1069
  %14 = load i64, i64* %13, align 8, !dbg !1069
  %15 = getelementptr inbounds { i8*, i64 }, { i8*, i64 }* %10, i32 0, i32 0, !dbg !1069
  store i8* %12, i8** %15, align 8, !dbg !1069
  %16 = getelementptr inbounds { i8*, i64 }, { i8*, i64 }* %10, i32 0, i32 1, !dbg !1069
  store i64 %14, i64* %16, align 8, !dbg !1069
  %17 = bitcast %"core::ptr::metadata::PtrRepr<[u8]>"* %_23 to { [0 x i8]*, i64 }*, !dbg !1069
  %18 = getelementptr inbounds { [0 x i8]*, i64 }, { [0 x i8]*, i64 }* %17, i32 0, i32 0, !dbg !1069
  %19 = load [0 x i8]*, [0 x i8]** %18, align 8, !dbg !1069
  %20 = getelementptr inbounds { [0 x i8]*, i64 }, { [0 x i8]*, i64 }* %17, i32 0, i32 1, !dbg !1069
  %21 = load i64, i64* %20, align 8, !dbg !1069
  %22 = insertvalue { [0 x i8]*, i64 } undef, [0 x i8]* %19, 0, !dbg !1071
  %23 = insertvalue { [0 x i8]*, i64 } %22, i64 %21, 1, !dbg !1071
  ret { [0 x i8]*, i64 } %23, !dbg !1071
}

; <core::ops::range::Range<usize> as core::slice::index::SliceIndex<[T]>>::get
; Function Attrs: inlinehint nonlazybind uwtable
define internal { i8*, i64 } @"_ZN106_$LT$core..ops..range..Range$LT$usize$GT$$u20$as$u20$core..slice..index..SliceIndex$LT$$u5b$T$u5d$$GT$$GT$3get17h1044681f6d30361aE"(i64 %self.0, i64 %self.1, [0 x i8]* align 1 %slice.0, i64 %slice.1) unnamed_addr #0 !dbg !1072 {
start:
  %slice.dbg.spill = alloca { [0 x i8]*, i64 }, align 8
  %self.dbg.spill = alloca { i64, i64 }, align 8
  %_3 = alloca i8, align 1
  %0 = alloca { i8*, i64 }, align 8
  %1 = getelementptr inbounds { i64, i64 }, { i64, i64 }* %self.dbg.spill, i32 0, i32 0
  store i64 %self.0, i64* %1, align 8
  %2 = getelementptr inbounds { i64, i64 }, { i64, i64 }* %self.dbg.spill, i32 0, i32 1
  store i64 %self.1, i64* %2, align 8
  call void @llvm.dbg.declare(metadata { i64, i64 }* %self.dbg.spill, metadata !1093, metadata !DIExpression()), !dbg !1095
  %3 = getelementptr inbounds { [0 x i8]*, i64 }, { [0 x i8]*, i64 }* %slice.dbg.spill, i32 0, i32 0
  store [0 x i8]* %slice.0, [0 x i8]** %3, align 8
  %4 = getelementptr inbounds { [0 x i8]*, i64 }, { [0 x i8]*, i64 }* %slice.dbg.spill, i32 0, i32 1
  store i64 %slice.1, i64* %4, align 8
  call void @llvm.dbg.declare(metadata { [0 x i8]*, i64 }* %slice.dbg.spill, metadata !1094, metadata !DIExpression()), !dbg !1096
  %_4 = icmp ugt i64 %self.0, %self.1, !dbg !1097
  br i1 %_4, label %bb1, label %bb2, !dbg !1097

bb2:                                              ; preds = %start
  %_7 = icmp ugt i64 %self.1, %slice.1, !dbg !1098
  %5 = zext i1 %_7 to i8, !dbg !1097
  store i8 %5, i8* %_3, align 1, !dbg !1097
  br label %bb3, !dbg !1097

bb1:                                              ; preds = %start
  store i8 1, i8* %_3, align 1, !dbg !1097
  br label %bb3, !dbg !1097

bb3:                                              ; preds = %bb2, %bb1
  %6 = load i8, i8* %_3, align 1, !dbg !1097, !range !1099, !noundef !28
  %7 = trunc i8 %6 to i1, !dbg !1097
  br i1 %7, label %bb4, label %bb5, !dbg !1097

bb5:                                              ; preds = %bb3
; call <core::ops::range::Range<usize> as core::slice::index::SliceIndex<[T]>>::get_unchecked
  %8 = call { [0 x i8]*, i64 } @"_ZN106_$LT$core..ops..range..Range$LT$usize$GT$$u20$as$u20$core..slice..index..SliceIndex$LT$$u5b$T$u5d$$GT$$GT$13get_unchecked17h5f751f0d5c54b054E"(i64 %self.0, i64 %self.1, [0 x i8]* %slice.0, i64 %slice.1), !dbg !1100
  %_13.0 = extractvalue { [0 x i8]*, i64 } %8, 0, !dbg !1100
  %_13.1 = extractvalue { [0 x i8]*, i64 } %8, 1, !dbg !1100
  br label %bb6, !dbg !1100

bb4:                                              ; preds = %bb3
  %9 = bitcast { i8*, i64 }* %0 to {}**, !dbg !1101
  store {}* null, {}** %9, align 8, !dbg !1101
  br label %bb7, !dbg !1102

bb7:                                              ; preds = %bb6, %bb4
  %10 = getelementptr inbounds { i8*, i64 }, { i8*, i64 }* %0, i32 0, i32 0, !dbg !1103
  %11 = load i8*, i8** %10, align 8, !dbg !1103, !align !1104
  %12 = getelementptr inbounds { i8*, i64 }, { i8*, i64 }* %0, i32 0, i32 1, !dbg !1103
  %13 = load i64, i64* %12, align 8, !dbg !1103
  %14 = insertvalue { i8*, i64 } undef, i8* %11, 0, !dbg !1103
  %15 = insertvalue { i8*, i64 } %14, i64 %13, 1, !dbg !1103
  ret { i8*, i64 } %15, !dbg !1103

bb6:                                              ; preds = %bb5
  %16 = bitcast { i8*, i64 }* %0 to { [0 x i8]*, i64 }*, !dbg !1105
  %17 = getelementptr inbounds { [0 x i8]*, i64 }, { [0 x i8]*, i64 }* %16, i32 0, i32 0, !dbg !1105
  store [0 x i8]* %_13.0, [0 x i8]** %17, align 8, !dbg !1105
  %18 = getelementptr inbounds { [0 x i8]*, i64 }, { [0 x i8]*, i64 }* %16, i32 0, i32 1, !dbg !1105
  store i64 %_13.1, i64* %18, align 8, !dbg !1105
  br label %bb7, !dbg !1102
}

; <core::ops::range::Range<usize> as core::slice::index::SliceIndex<[T]>>::index
; Function Attrs: inlinehint nonlazybind uwtable
define internal { [0 x i8]*, i64 } @"_ZN106_$LT$core..ops..range..Range$LT$usize$GT$$u20$as$u20$core..slice..index..SliceIndex$LT$$u5b$T$u5d$$GT$$GT$5index17hf4ddb75c2013ce2dE"(i64 %self.0, i64 %self.1, [0 x i8]* align 1 %slice.0, i64 %slice.1, %"core::panic::location::Location"* align 8 %0) unnamed_addr #0 !dbg !1106 {
start:
  %slice.dbg.spill = alloca { [0 x i8]*, i64 }, align 8
  %self.dbg.spill = alloca { i64, i64 }, align 8
  %1 = getelementptr inbounds { i64, i64 }, { i64, i64 }* %self.dbg.spill, i32 0, i32 0
  store i64 %self.0, i64* %1, align 8
  %2 = getelementptr inbounds { i64, i64 }, { i64, i64 }* %self.dbg.spill, i32 0, i32 1
  store i64 %self.1, i64* %2, align 8
  call void @llvm.dbg.declare(metadata { i64, i64 }* %self.dbg.spill, metadata !1118, metadata !DIExpression()), !dbg !1120
  %3 = getelementptr inbounds { [0 x i8]*, i64 }, { [0 x i8]*, i64 }* %slice.dbg.spill, i32 0, i32 0
  store [0 x i8]* %slice.0, [0 x i8]** %3, align 8
  %4 = getelementptr inbounds { [0 x i8]*, i64 }, { [0 x i8]*, i64 }* %slice.dbg.spill, i32 0, i32 1
  store i64 %slice.1, i64* %4, align 8
  call void @llvm.dbg.declare(metadata { [0 x i8]*, i64 }* %slice.dbg.spill, metadata !1119, metadata !DIExpression()), !dbg !1121
  %_3 = icmp ugt i64 %self.0, %self.1, !dbg !1122
  br i1 %_3, label %bb1, label %bb2, !dbg !1122

bb2:                                              ; preds = %start
  %_9 = icmp ugt i64 %self.1, %slice.1, !dbg !1123
  br i1 %_9, label %bb3, label %bb4, !dbg !1123

bb1:                                              ; preds = %start
; call core::slice::index::slice_index_order_fail
  call void @_ZN4core5slice5index22slice_index_order_fail17ha5ea6a931f940f05E(i64 %self.0, i64 %self.1, %"core::panic::location::Location"* align 8 %0) #17, !dbg !1124
  unreachable, !dbg !1124

bb4:                                              ; preds = %bb2
; call <core::ops::range::Range<usize> as core::slice::index::SliceIndex<[T]>>::get_unchecked
  %5 = call { [0 x i8]*, i64 } @"_ZN106_$LT$core..ops..range..Range$LT$usize$GT$$u20$as$u20$core..slice..index..SliceIndex$LT$$u5b$T$u5d$$GT$$GT$13get_unchecked17h5f751f0d5c54b054E"(i64 %self.0, i64 %self.1, [0 x i8]* %slice.0, i64 %slice.1), !dbg !1125
  %_17.0 = extractvalue { [0 x i8]*, i64 } %5, 0, !dbg !1125
  %_17.1 = extractvalue { [0 x i8]*, i64 } %5, 1, !dbg !1125
  br label %bb5, !dbg !1125

bb3:                                              ; preds = %bb2
; call core::slice::index::slice_end_index_len_fail
  call void @_ZN4core5slice5index24slice_end_index_len_fail17hc132699ea07ad3eeE(i64 %self.1, i64 %slice.1, %"core::panic::location::Location"* align 8 %0) #17, !dbg !1126
  unreachable, !dbg !1126

bb5:                                              ; preds = %bb4
  %6 = insertvalue { [0 x i8]*, i64 } undef, [0 x i8]* %_17.0, 0, !dbg !1127
  %7 = insertvalue { [0 x i8]*, i64 } %6, i64 %_17.1, 1, !dbg !1127
  ret { [0 x i8]*, i64 } %7, !dbg !1127
}

; <core::ops::range::Range<usize> as core::slice::index::SliceIndex<[T]>>::index_mut
; Function Attrs: inlinehint nonlazybind uwtable
define internal { [0 x i8]*, i64 } @"_ZN106_$LT$core..ops..range..Range$LT$usize$GT$$u20$as$u20$core..slice..index..SliceIndex$LT$$u5b$T$u5d$$GT$$GT$9index_mut17h92d2315a36a526acE"(i64 %self.0, i64 %self.1, [0 x i8]* align 1 %slice.0, i64 %slice.1, %"core::panic::location::Location"* align 8 %0) unnamed_addr #0 !dbg !1128 {
start:
  %slice.dbg.spill = alloca { [0 x i8]*, i64 }, align 8
  %self.dbg.spill = alloca { i64, i64 }, align 8
  %1 = getelementptr inbounds { i64, i64 }, { i64, i64 }* %self.dbg.spill, i32 0, i32 0
  store i64 %self.0, i64* %1, align 8
  %2 = getelementptr inbounds { i64, i64 }, { i64, i64 }* %self.dbg.spill, i32 0, i32 1
  store i64 %self.1, i64* %2, align 8
  call void @llvm.dbg.declare(metadata { i64, i64 }* %self.dbg.spill, metadata !1136, metadata !DIExpression()), !dbg !1138
  %3 = getelementptr inbounds { [0 x i8]*, i64 }, { [0 x i8]*, i64 }* %slice.dbg.spill, i32 0, i32 0
  store [0 x i8]* %slice.0, [0 x i8]** %3, align 8
  %4 = getelementptr inbounds { [0 x i8]*, i64 }, { [0 x i8]*, i64 }* %slice.dbg.spill, i32 0, i32 1
  store i64 %slice.1, i64* %4, align 8
  call void @llvm.dbg.declare(metadata { [0 x i8]*, i64 }* %slice.dbg.spill, metadata !1137, metadata !DIExpression()), !dbg !1139
  %_4 = icmp ugt i64 %self.0, %self.1, !dbg !1140
  br i1 %_4, label %bb1, label %bb2, !dbg !1140

bb2:                                              ; preds = %start
  %_10 = icmp ugt i64 %self.1, %slice.1, !dbg !1141
  br i1 %_10, label %bb3, label %bb4, !dbg !1141

bb1:                                              ; preds = %start
; call core::slice::index::slice_index_order_fail
  call void @_ZN4core5slice5index22slice_index_order_fail17ha5ea6a931f940f05E(i64 %self.0, i64 %self.1, %"core::panic::location::Location"* align 8 %0) #17, !dbg !1142
  unreachable, !dbg !1142

bb4:                                              ; preds = %bb2
; call <core::ops::range::Range<usize> as core::slice::index::SliceIndex<[T]>>::get_unchecked_mut
  %5 = call { [0 x i8]*, i64 } @"_ZN106_$LT$core..ops..range..Range$LT$usize$GT$$u20$as$u20$core..slice..index..SliceIndex$LT$$u5b$T$u5d$$GT$$GT$17get_unchecked_mut17h7652abd2900ec541E"(i64 %self.0, i64 %self.1, [0 x i8]* %slice.0, i64 %slice.1), !dbg !1143
  %_20.0 = extractvalue { [0 x i8]*, i64 } %5, 0, !dbg !1143
  %_20.1 = extractvalue { [0 x i8]*, i64 } %5, 1, !dbg !1143
  br label %bb5, !dbg !1143

bb3:                                              ; preds = %bb2
; call core::slice::index::slice_end_index_len_fail
  call void @_ZN4core5slice5index24slice_end_index_len_fail17hc132699ea07ad3eeE(i64 %self.1, i64 %slice.1, %"core::panic::location::Location"* align 8 %0) #17, !dbg !1144
  unreachable, !dbg !1144

bb5:                                              ; preds = %bb4
  %6 = insertvalue { [0 x i8]*, i64 } undef, [0 x i8]* %_20.0, 0, !dbg !1145
  %7 = insertvalue { [0 x i8]*, i64 } %6, i64 %_20.1, 1, !dbg !1145
  ret { [0 x i8]*, i64 } %7, !dbg !1145
}

; <core::ops::range::RangeFrom<usize> as core::slice::index::SliceIndex<[T]>>::index
; Function Attrs: inlinehint nonlazybind uwtable
define internal { [0 x i8]*, i64 } @"_ZN110_$LT$core..ops..range..RangeFrom$LT$usize$GT$$u20$as$u20$core..slice..index..SliceIndex$LT$$u5b$T$u5d$$GT$$GT$5index17h33365f3c40feb0a1E"(i64 %self, [0 x i8]* align 1 %slice.0, i64 %slice.1, %"core::panic::location::Location"* align 8 %0) unnamed_addr #0 !dbg !1146 {
start:
  %ptr.dbg.spill = alloca { [0 x i8]*, i64 }, align 8
  %self.dbg.spill3 = alloca { [0 x i8]*, i64 }, align 8
  %slice.dbg.spill2 = alloca { [0 x i8]*, i64 }, align 8
  %self.dbg.spill1 = alloca i64, align 8
  %slice.dbg.spill = alloca { [0 x i8]*, i64 }, align 8
  %self.dbg.spill = alloca i64, align 8
  %_20 = alloca %"core::ptr::metadata::PtrRepr<[u8]>", align 8
  %_14 = alloca { i64, i64 }, align 8
  store i64 %self, i64* %self.dbg.spill, align 8
  call void @llvm.dbg.declare(metadata i64* %self.dbg.spill, metadata !1154, metadata !DIExpression()), !dbg !1156
  %1 = getelementptr inbounds { [0 x i8]*, i64 }, { [0 x i8]*, i64 }* %slice.dbg.spill, i32 0, i32 0
  store [0 x i8]* %slice.0, [0 x i8]** %1, align 8
  %2 = getelementptr inbounds { [0 x i8]*, i64 }, { [0 x i8]*, i64 }* %slice.dbg.spill, i32 0, i32 1
  store i64 %slice.1, i64* %2, align 8
  call void @llvm.dbg.declare(metadata { [0 x i8]*, i64 }* %slice.dbg.spill, metadata !1155, metadata !DIExpression()), !dbg !1157
  %_3 = icmp ugt i64 %self, %slice.1, !dbg !1158
  br i1 %_3, label %bb1, label %bb2, !dbg !1158

bb2:                                              ; preds = %start
  store i64 %self, i64* %self.dbg.spill1, align 8, !dbg !1159
  call void @llvm.dbg.declare(metadata i64* %self.dbg.spill1, metadata !1160, metadata !DIExpression()), !dbg !1166
  %3 = getelementptr inbounds { [0 x i8]*, i64 }, { [0 x i8]*, i64 }* %slice.dbg.spill2, i32 0, i32 0, !dbg !1167
  store [0 x i8]* %slice.0, [0 x i8]** %3, align 8, !dbg !1167
  %4 = getelementptr inbounds { [0 x i8]*, i64 }, { [0 x i8]*, i64 }* %slice.dbg.spill2, i32 0, i32 1, !dbg !1167
  store i64 %slice.1, i64* %4, align 8, !dbg !1167
  call void @llvm.dbg.declare(metadata { [0 x i8]*, i64 }* %slice.dbg.spill2, metadata !1165, metadata !DIExpression()), !dbg !1166
  %5 = getelementptr inbounds { [0 x i8]*, i64 }, { [0 x i8]*, i64 }* %self.dbg.spill3, i32 0, i32 0, !dbg !1166
  store [0 x i8]* %slice.0, [0 x i8]** %5, align 8, !dbg !1166
  %6 = getelementptr inbounds { [0 x i8]*, i64 }, { [0 x i8]*, i64 }* %self.dbg.spill3, i32 0, i32 1, !dbg !1166
  store i64 %slice.1, i64* %6, align 8, !dbg !1166
  call void @llvm.dbg.declare(metadata { [0 x i8]*, i64 }* %self.dbg.spill3, metadata !1168, metadata !DIExpression()), !dbg !1174
  %7 = getelementptr inbounds { [0 x i8]*, i64 }, { [0 x i8]*, i64 }* %ptr.dbg.spill, i32 0, i32 0, !dbg !1174
  store [0 x i8]* %slice.0, [0 x i8]** %7, align 8, !dbg !1174
  %8 = getelementptr inbounds { [0 x i8]*, i64 }, { [0 x i8]*, i64 }* %ptr.dbg.spill, i32 0, i32 1, !dbg !1174
  store i64 %slice.1, i64* %8, align 8, !dbg !1174
  call void @llvm.dbg.declare(metadata { [0 x i8]*, i64 }* %ptr.dbg.spill, metadata !1176, metadata !DIExpression()), !dbg !1180
  %9 = bitcast %"core::ptr::metadata::PtrRepr<[u8]>"* %_20 to { [0 x i8]*, i64 }*, !dbg !1180
  %10 = getelementptr inbounds { [0 x i8]*, i64 }, { [0 x i8]*, i64 }* %9, i32 0, i32 0, !dbg !1180
  store [0 x i8]* %slice.0, [0 x i8]** %10, align 8, !dbg !1180
  %11 = getelementptr inbounds { [0 x i8]*, i64 }, { [0 x i8]*, i64 }* %9, i32 0, i32 1, !dbg !1180
  store i64 %slice.1, i64* %11, align 8, !dbg !1180
  %12 = bitcast %"core::ptr::metadata::PtrRepr<[u8]>"* %_20 to { i8*, i64 }*, !dbg !1180
  %13 = getelementptr inbounds { i8*, i64 }, { i8*, i64 }* %12, i32 0, i32 1, !dbg !1180
  %_16 = load i64, i64* %13, align 8, !dbg !1180
  %14 = bitcast { i64, i64 }* %_14 to i64*, !dbg !1166
  store i64 %self, i64* %14, align 8, !dbg !1166
  %15 = getelementptr inbounds { i64, i64 }, { i64, i64 }* %_14, i32 0, i32 1, !dbg !1166
  store i64 %_16, i64* %15, align 8, !dbg !1166
  %16 = getelementptr inbounds { i64, i64 }, { i64, i64 }* %_14, i32 0, i32 0, !dbg !1166
  %17 = load i64, i64* %16, align 8, !dbg !1166
  %18 = getelementptr inbounds { i64, i64 }, { i64, i64 }* %_14, i32 0, i32 1, !dbg !1166
  %19 = load i64, i64* %18, align 8, !dbg !1166
; call <core::ops::range::Range<usize> as core::slice::index::SliceIndex<[T]>>::get_unchecked
  %20 = call { [0 x i8]*, i64 } @"_ZN106_$LT$core..ops..range..Range$LT$usize$GT$$u20$as$u20$core..slice..index..SliceIndex$LT$$u5b$T$u5d$$GT$$GT$13get_unchecked17h5f751f0d5c54b054E"(i64 %17, i64 %19, [0 x i8]* %slice.0, i64 %slice.1), !dbg !1166
  %_11.0 = extractvalue { [0 x i8]*, i64 } %20, 0, !dbg !1166
  %_11.1 = extractvalue { [0 x i8]*, i64 } %20, 1, !dbg !1166
  br label %bb3, !dbg !1166

bb1:                                              ; preds = %start
; call core::slice::index::slice_start_index_len_fail
  call void @_ZN4core5slice5index26slice_start_index_len_fail17hd34676e4711f38b9E(i64 %self, i64 %slice.1, %"core::panic::location::Location"* align 8 %0) #17, !dbg !1182
  unreachable, !dbg !1182

bb3:                                              ; preds = %bb2
  %21 = insertvalue { [0 x i8]*, i64 } undef, [0 x i8]* %_11.0, 0, !dbg !1183
  %22 = insertvalue { [0 x i8]*, i64 } %21, i64 %_11.1, 1, !dbg !1183
  ret { [0 x i8]*, i64 } %22, !dbg !1183
}

; <alloc::vec::Vec<T> as alloc::vec::spec_from_iter_nested::SpecFromIterNested<T,I>>::from_iter
; Function Attrs: nonlazybind uwtable
define internal void @"_ZN111_$LT$alloc..vec..Vec$LT$T$GT$$u20$as$u20$alloc..vec..spec_from_iter_nested..SpecFromIterNested$LT$T$C$I$GT$$GT$9from_iter17hd5b0d5e191eaad89E"(%"alloc::vec::Vec<&str>"* sret(%"alloc::vec::Vec<&str>") %0, %"core::str::iter::Lines"* %iterator) unnamed_addr #1 personality i32 (i32, i32, i64, %"unwind::libunwind::_Unwind_Exception"*, %"unwind::libunwind::_Unwind_Context"*)* @rust_eh_personality !dbg !1184 {
start:
  %self.dbg.spill7 = alloca %"alloc::vec::Vec<&str>"*, align 8
  %dst.dbg.spill = alloca { [0 x i8]*, i64 }*, align 8
  %capacity.dbg.spill5 = alloca i64, align 8
  %capacity.dbg.spill4 = alloca i64, align 8
  %capacity.dbg.spill = alloca i64, align 8
  %initial_capacity.dbg.spill = alloca i64, align 8
  %v1.dbg.spill = alloca i64, align 8
  %v2.dbg.spill = alloca i64, align 8
  %1 = alloca i64, align 8
  %self.dbg.spill = alloca i64, align 8
  %lower.dbg.spill = alloca i64, align 8
  %element.dbg.spill = alloca { [0 x i8]*, i64 }, align 8
  %2 = alloca { i8*, i32 }, align 8
  %alloc.dbg.spill2 = alloca %"alloc::alloc::Global", align 1
  %alloc.dbg.spill = alloca %"alloc::alloc::Global", align 1
  %_38 = alloca i8, align 1
  %_24 = alloca i8, align 1
  %_22 = alloca %"core::str::iter::Lines", align 8
  %src = alloca { [0 x i8]*, i64 }, align 8
  %vector1 = alloca %"alloc::vec::Vec<&str>", align 8
  %_8 = alloca { i64, { i64, i64 } }, align 8
  %_3 = alloca { i8*, i64 }, align 8
  %vector = alloca %"alloc::vec::Vec<&str>", align 8
  call void @llvm.dbg.declare(metadata %"core::str::iter::Lines"* %iterator, metadata !1254, metadata !DIExpression()), !dbg !1267
  call void @llvm.dbg.declare(metadata %"alloc::vec::Vec<&str>"* %vector, metadata !1255, metadata !DIExpression()), !dbg !1268
  call void @llvm.dbg.declare(metadata %"alloc::vec::Vec<&str>"* %vector1, metadata !1263, metadata !DIExpression()), !dbg !1269
  call void @llvm.dbg.declare(metadata { [0 x i8]*, i64 }* %src, metadata !1270, metadata !DIExpression()), !dbg !1278
  call void @llvm.dbg.declare(metadata %"alloc::alloc::Global"* %alloc.dbg.spill, metadata !1280, metadata !DIExpression()), !dbg !1288
  call void @llvm.dbg.declare(metadata %"alloc::alloc::Global"* %alloc.dbg.spill2, metadata !1297, metadata !DIExpression()), !dbg !1305
  store i8 1, i8* %_24, align 1, !dbg !1307
; invoke <core::str::iter::Lines as core::iter::traits::iterator::Iterator>::next
  %3 = invoke { i8*, i64 } @"_ZN81_$LT$core..str..iter..Lines$u20$as$u20$core..iter..traits..iterator..Iterator$GT$4next17h11c66e7f15130a1bE"(%"core::str::iter::Lines"* align 8 %iterator)
          to label %bb1 unwind label %cleanup, !dbg !1308

bb14:                                             ; preds = %bb8, %bb11, %bb12, %cleanup
  %4 = load i8, i8* %_24, align 1, !dbg !1309, !range !1099, !noundef !28
  %5 = trunc i8 %4 to i1, !dbg !1309
  br i1 %5, label %bb13, label %bb10, !dbg !1309

cleanup:                                          ; preds = %start
  %6 = landingpad { i8*, i32 }
          cleanup
  %7 = extractvalue { i8*, i32 } %6, 0
  %8 = extractvalue { i8*, i32 } %6, 1
  %9 = getelementptr inbounds { i8*, i32 }, { i8*, i32 }* %2, i32 0, i32 0
  store i8* %7, i8** %9, align 8
  %10 = getelementptr inbounds { i8*, i32 }, { i8*, i32 }* %2, i32 0, i32 1
  store i32 %8, i32* %10, align 8
  br label %bb14

bb1:                                              ; preds = %start
  store { i8*, i64 } %3, { i8*, i64 }* %_3, align 8, !dbg !1308
  %11 = bitcast { i8*, i64 }* %_3 to {}**, !dbg !1308
  %12 = load {}*, {}** %11, align 8, !dbg !1308
  %13 = icmp eq {}* %12, null, !dbg !1308
  %_5 = select i1 %13, i64 0, i64 1, !dbg !1308
  switch i64 %_5, label %bb3 [
    i64 0, label %bb15
    i64 1, label %bb2
  ], !dbg !1310

bb3:                                              ; preds = %bb1
  unreachable, !dbg !1308

bb15:                                             ; preds = %bb1
  %_25.0 = load i64*, i64** getelementptr inbounds ({ i64*, i64 }, { i64*, i64 }* bitcast (<{ [16 x i8] }>* @0 to { i64*, i64 }*), i32 0, i32 0), align 8, !dbg !1311, !nonnull !28, !noundef !28
  %_25.1 = load i64, i64* getelementptr inbounds ({ i64*, i64 }, { i64*, i64 }* bitcast (<{ [16 x i8] }>* @0 to { i64*, i64 }*), i32 0, i32 1), align 8, !dbg !1311
  %14 = bitcast %"alloc::vec::Vec<&str>"* %0 to { i64*, i64 }*, !dbg !1311
  %15 = getelementptr inbounds { i64*, i64 }, { i64*, i64 }* %14, i32 0, i32 0, !dbg !1311
  store i64* %_25.0, i64** %15, align 8, !dbg !1311
  %16 = getelementptr inbounds { i64*, i64 }, { i64*, i64 }* %14, i32 0, i32 1, !dbg !1311
  store i64 %_25.1, i64* %16, align 8, !dbg !1311
  %17 = getelementptr inbounds %"alloc::vec::Vec<&str>", %"alloc::vec::Vec<&str>"* %0, i32 0, i32 1, !dbg !1311
  store i64 0, i64* %17, align 8, !dbg !1311
  br label %bb7, !dbg !1309

bb2:                                              ; preds = %bb1
  %18 = bitcast { i8*, i64 }* %_3 to { [0 x i8]*, i64 }*, !dbg !1317
  %19 = getelementptr inbounds { [0 x i8]*, i64 }, { [0 x i8]*, i64 }* %18, i32 0, i32 0, !dbg !1317
  %element.0 = load [0 x i8]*, [0 x i8]** %19, align 8, !dbg !1317, !nonnull !28, !align !1104, !noundef !28
  %20 = getelementptr inbounds { [0 x i8]*, i64 }, { [0 x i8]*, i64 }* %18, i32 0, i32 1, !dbg !1317
  %element.1 = load i64, i64* %20, align 8, !dbg !1317
  %21 = getelementptr inbounds { [0 x i8]*, i64 }, { [0 x i8]*, i64 }* %element.dbg.spill, i32 0, i32 0, !dbg !1317
  store [0 x i8]* %element.0, [0 x i8]** %21, align 8, !dbg !1317
  %22 = getelementptr inbounds { [0 x i8]*, i64 }, { [0 x i8]*, i64 }* %element.dbg.spill, i32 0, i32 1, !dbg !1317
  store i64 %element.1, i64* %22, align 8, !dbg !1317
  call void @llvm.dbg.declare(metadata { [0 x i8]*, i64 }* %element.dbg.spill, metadata !1257, metadata !DIExpression()), !dbg !1318
; invoke <core::str::iter::Lines as core::iter::traits::iterator::Iterator>::size_hint
  invoke void @"_ZN81_$LT$core..str..iter..Lines$u20$as$u20$core..iter..traits..iterator..Iterator$GT$9size_hint17h480fba72e8ec65f4E"({ i64, { i64, i64 } }* sret({ i64, { i64, i64 } }) %_8, %"core::str::iter::Lines"* align 8 %iterator)
          to label %bb4 unwind label %cleanup3, !dbg !1319

bb12:                                             ; preds = %bb9, %cleanup3
  br i1 true, label %bb11, label %bb14, !dbg !1320

cleanup3:                                         ; preds = %bb17, %bb16, %bb2
  %23 = landingpad { i8*, i32 }
          cleanup
  %24 = extractvalue { i8*, i32 } %23, 0
  %25 = extractvalue { i8*, i32 } %23, 1
  %26 = getelementptr inbounds { i8*, i32 }, { i8*, i32 }* %2, i32 0, i32 0
  store i8* %24, i8** %26, align 8
  %27 = getelementptr inbounds { i8*, i32 }, { i8*, i32 }* %2, i32 0, i32 1
  store i32 %25, i32* %27, align 8
  br label %bb12

bb4:                                              ; preds = %bb2
  %28 = bitcast { i64, { i64, i64 } }* %_8 to i64*, !dbg !1321
  %lower = load i64, i64* %28, align 8, !dbg !1321
  store i64 %lower, i64* %lower.dbg.spill, align 8, !dbg !1321
  call void @llvm.dbg.declare(metadata i64* %lower.dbg.spill, metadata !1259, metadata !DIExpression()), !dbg !1322
  store i64 %lower, i64* %self.dbg.spill, align 8, !dbg !1323
  call void @llvm.dbg.declare(metadata i64* %self.dbg.spill, metadata !1324, metadata !DIExpression()), !dbg !1333
  %29 = call i64 @llvm.uadd.sat.i64(i64 %lower, i64 1), !dbg !1333
  store i64 %29, i64* %1, align 8, !dbg !1333
  %v2 = load i64, i64* %1, align 8, !dbg !1333
  store i64 %v2, i64* %v2.dbg.spill, align 8, !dbg !1333
  call void @llvm.dbg.declare(metadata i64* %v2.dbg.spill, metadata !1334, metadata !DIExpression()), !dbg !1340
  br label %bb16, !dbg !1333

bb16:                                             ; preds = %bb4
  store i64 4, i64* %v1.dbg.spill, align 8, !dbg !1341
  call void @llvm.dbg.declare(metadata i64* %v1.dbg.spill, metadata !1339, metadata !DIExpression()), !dbg !1340
; invoke core::cmp::Ord::max
  %initial_capacity = invoke i64 @_ZN4core3cmp3Ord3max17h87e416972f67cf67E(i64 4, i64 %v2)
          to label %bb17 unwind label %cleanup3, !dbg !1340

bb17:                                             ; preds = %bb16
  store i64 %initial_capacity, i64* %initial_capacity.dbg.spill, align 8, !dbg !1340
  call void @llvm.dbg.declare(metadata i64* %initial_capacity.dbg.spill, metadata !1261, metadata !DIExpression()), !dbg !1342
  store i64 %initial_capacity, i64* %capacity.dbg.spill, align 8, !dbg !1343
  call void @llvm.dbg.declare(metadata i64* %capacity.dbg.spill, metadata !1294, metadata !DIExpression()), !dbg !1344
  store i64 %initial_capacity, i64* %capacity.dbg.spill4, align 8, !dbg !1344
  call void @llvm.dbg.declare(metadata i64* %capacity.dbg.spill4, metadata !1287, metadata !DIExpression()), !dbg !1288
  store i64 %initial_capacity, i64* %capacity.dbg.spill5, align 8, !dbg !1288
  call void @llvm.dbg.declare(metadata i64* %capacity.dbg.spill5, metadata !1304, metadata !DIExpression()), !dbg !1305
  store i8 0, i8* %_38, align 1, !dbg !1305
  %30 = load i8, i8* %_38, align 1, !dbg !1305, !range !1099, !noundef !28
  %31 = trunc i8 %30 to i1, !dbg !1305
; invoke alloc::raw_vec::RawVec<T,A>::allocate_in
  %32 = invoke { i64*, i64 } @"_ZN5alloc7raw_vec19RawVec$LT$T$C$A$GT$11allocate_in17hd0b14824167d3f29E"(i64 %initial_capacity, i1 zeroext %31)
          to label %bb18 unwind label %cleanup3, !dbg !1305

bb18:                                             ; preds = %bb17
  %_34.0 = extractvalue { i64*, i64 } %32, 0, !dbg !1305
  %_34.1 = extractvalue { i64*, i64 } %32, 1, !dbg !1305
  %33 = bitcast %"alloc::vec::Vec<&str>"* %vector1 to { i64*, i64 }*, !dbg !1288
  %34 = getelementptr inbounds { i64*, i64 }, { i64*, i64 }* %33, i32 0, i32 0, !dbg !1288
  store i64* %_34.0, i64** %34, align 8, !dbg !1288
  %35 = getelementptr inbounds { i64*, i64 }, { i64*, i64 }* %33, i32 0, i32 1, !dbg !1288
  store i64 %_34.1, i64* %35, align 8, !dbg !1288
  %36 = getelementptr inbounds %"alloc::vec::Vec<&str>", %"alloc::vec::Vec<&str>"* %vector1, i32 0, i32 1, !dbg !1288
  store i64 0, i64* %36, align 8, !dbg !1288
; invoke alloc::vec::Vec<T,A>::as_mut_ptr
  %dst = invoke { [0 x i8]*, i64 }* @"_ZN5alloc3vec16Vec$LT$T$C$A$GT$10as_mut_ptr17h86cddd9b1ca10b26E"(%"alloc::vec::Vec<&str>"* align 8 %vector1)
          to label %bb5 unwind label %cleanup6, !dbg !1345

bb9:                                              ; preds = %cleanup6
; invoke core::ptr::drop_in_place<alloc::vec::Vec<&str>>
  invoke void @"_ZN4core3ptr51drop_in_place$LT$alloc..vec..Vec$LT$$RF$str$GT$$GT$17h93841d326ca7621aE"(%"alloc::vec::Vec<&str>"* %vector1) #18
          to label %bb12 unwind label %abort, !dbg !1346

cleanup6:                                         ; preds = %bb18
  %37 = landingpad { i8*, i32 }
          cleanup
  %38 = extractvalue { i8*, i32 } %37, 0
  %39 = extractvalue { i8*, i32 } %37, 1
  %40 = getelementptr inbounds { i8*, i32 }, { i8*, i32 }* %2, i32 0, i32 0
  store i8* %38, i8** %40, align 8
  %41 = getelementptr inbounds { i8*, i32 }, { i8*, i32 }* %2, i32 0, i32 1
  store i32 %39, i32* %41, align 8
  br label %bb9

bb5:                                              ; preds = %bb18
  store { [0 x i8]*, i64 }* %dst, { [0 x i8]*, i64 }** %dst.dbg.spill, align 8, !dbg !1345
  call void @llvm.dbg.declare(metadata { [0 x i8]*, i64 }** %dst.dbg.spill, metadata !1277, metadata !DIExpression()), !dbg !1278
  %42 = getelementptr inbounds { [0 x i8]*, i64 }, { [0 x i8]*, i64 }* %src, i32 0, i32 0, !dbg !1347
  store [0 x i8]* %element.0, [0 x i8]** %42, align 8, !dbg !1347
  %43 = getelementptr inbounds { [0 x i8]*, i64 }, { [0 x i8]*, i64 }* %src, i32 0, i32 1, !dbg !1347
  store i64 %element.1, i64* %43, align 8, !dbg !1347
  %44 = bitcast { [0 x i8]*, i64 }* %dst to i8*, !dbg !1278
  %45 = bitcast { [0 x i8]*, i64 }* %src to i8*, !dbg !1278
  call void @llvm.memcpy.p0i8.p0i8.i64(i8* align 8 %44, i8* align 8 %45, i64 16, i1 false), !dbg !1278
  store %"alloc::vec::Vec<&str>"* %vector1, %"alloc::vec::Vec<&str>"** %self.dbg.spill7, align 8, !dbg !1348
  call void @llvm.dbg.declare(metadata %"alloc::vec::Vec<&str>"** %self.dbg.spill7, metadata !1349, metadata !DIExpression()), !dbg !1357
  %46 = getelementptr inbounds %"alloc::vec::Vec<&str>", %"alloc::vec::Vec<&str>"* %vector1, i32 0, i32 1, !dbg !1357
  store i64 1, i64* %46, align 8, !dbg !1357
  %47 = bitcast %"alloc::vec::Vec<&str>"* %vector to i8*, !dbg !1358
  %48 = bitcast %"alloc::vec::Vec<&str>"* %vector1 to i8*, !dbg !1358
  call void @llvm.memcpy.p0i8.p0i8.i64(i8* align 8 %47, i8* align 8 %48, i64 24, i1 false), !dbg !1358
  store i8 0, i8* %_24, align 1, !dbg !1359
  %49 = bitcast %"core::str::iter::Lines"* %_22 to i8*, !dbg !1359
  %50 = bitcast %"core::str::iter::Lines"* %iterator to i8*, !dbg !1359
  call void @llvm.memcpy.p0i8.p0i8.i64(i8* align 8 %49, i8* align 8 %50, i64 72, i1 false), !dbg !1359
; invoke <alloc::vec::Vec<T,A> as alloc::vec::spec_extend::SpecExtend<T,I>>::spec_extend
  invoke void @"_ZN97_$LT$alloc..vec..Vec$LT$T$C$A$GT$$u20$as$u20$alloc..vec..spec_extend..SpecExtend$LT$T$C$I$GT$$GT$11spec_extend17h05555628f815cf77E"(%"alloc::vec::Vec<&str>"* align 8 %vector, %"core::str::iter::Lines"* %_22)
          to label %bb6 unwind label %cleanup8, !dbg !1360

abort:                                            ; preds = %bb8, %bb9
  %51 = landingpad { i8*, i32 }
          cleanup, !dbg !1361
; call core::panicking::panic_no_unwind
  call void @_ZN4core9panicking15panic_no_unwind17h62f8113f44cbfcbfE() #19, !dbg !1361
  unreachable, !dbg !1361

bb11:                                             ; preds = %bb12
  br label %bb14, !dbg !1320

bb8:                                              ; preds = %cleanup8
; invoke core::ptr::drop_in_place<alloc::vec::Vec<&str>>
  invoke void @"_ZN4core3ptr51drop_in_place$LT$alloc..vec..Vec$LT$$RF$str$GT$$GT$17h93841d326ca7621aE"(%"alloc::vec::Vec<&str>"* %vector) #18
          to label %bb14 unwind label %abort, !dbg !1309

cleanup8:                                         ; preds = %bb5
  %52 = landingpad { i8*, i32 }
          cleanup
  %53 = extractvalue { i8*, i32 } %52, 0
  %54 = extractvalue { i8*, i32 } %52, 1
  %55 = getelementptr inbounds { i8*, i32 }, { i8*, i32 }* %2, i32 0, i32 0
  store i8* %53, i8** %55, align 8
  %56 = getelementptr inbounds { i8*, i32 }, { i8*, i32 }* %2, i32 0, i32 1
  store i32 %54, i32* %56, align 8
  br label %bb8

bb6:                                              ; preds = %bb5
  %57 = bitcast %"alloc::vec::Vec<&str>"* %0 to i8*, !dbg !1362
  %58 = bitcast %"alloc::vec::Vec<&str>"* %vector to i8*, !dbg !1362
  call void @llvm.memcpy.p0i8.p0i8.i64(i8* align 8 %57, i8* align 8 %58, i64 24, i1 false), !dbg !1362
  br label %bb7, !dbg !1309

bb10:                                             ; preds = %bb13, %bb14
  %59 = bitcast { i8*, i32 }* %2 to i8**, !dbg !1361
  %60 = load i8*, i8** %59, align 8, !dbg !1361
  %61 = getelementptr inbounds { i8*, i32 }, { i8*, i32 }* %2, i32 0, i32 1, !dbg !1361
  %62 = load i32, i32* %61, align 8, !dbg !1361
  %63 = insertvalue { i8*, i32 } undef, i8* %60, 0, !dbg !1361
  %64 = insertvalue { i8*, i32 } %63, i32 %62, 1, !dbg !1361
  resume { i8*, i32 } %64, !dbg !1361

bb13:                                             ; preds = %bb14
  br label %bb10, !dbg !1309

bb7:                                              ; preds = %bb15, %bb6
  ret void, !dbg !1363
}

; <core::panic::unwind_safe::AssertUnwindSafe<F> as core::ops::function::FnOnce<()>>::call_once
; Function Attrs: nonlazybind uwtable
define internal void @"_ZN115_$LT$core..panic..unwind_safe..AssertUnwindSafe$LT$F$GT$$u20$as$u20$core..ops..function..FnOnce$LT$$LP$$RP$$GT$$GT$9call_once17h0ddc6bcc5d48a705E"(i64* align 8 %self) unnamed_addr #1 !dbg !1364 {
start:
  %self.dbg.spill = alloca i64*, align 8
  %_args = alloca {}, align 1
  store i64* %self, i64** %self.dbg.spill, align 8
  call void @llvm.dbg.declare(metadata i64** %self.dbg.spill, metadata !1382, metadata !DIExpression()), !dbg !1387
  call void @llvm.dbg.declare(metadata {}* %_args, metadata !1383, metadata !DIExpression()), !dbg !1388
; call core::ops::function::FnOnce::call_once
  call void @_ZN4core3ops8function6FnOnce9call_once17h6e3cb6373f53440dE(i64* align 8 %self), !dbg !1389
  br label %bb1, !dbg !1389

bb1:                                              ; preds = %start
  ret void, !dbg !1390
}

; <core::panic::unwind_safe::AssertUnwindSafe<F> as core::ops::function::FnOnce<()>>::call_once
; Function Attrs: nonlazybind uwtable
define internal void @"_ZN115_$LT$core..panic..unwind_safe..AssertUnwindSafe$LT$F$GT$$u20$as$u20$core..ops..function..FnOnce$LT$$LP$$RP$$GT$$GT$9call_once17ha6399e982c71960aE"() unnamed_addr #1 !dbg !1391 {
start:
  %self.dbg.spill = alloca %"core::panic::unwind_safe::AssertUnwindSafe<[closure@std::thread::Builder::spawn_unchecked_<[closure@src/test_thread_locals.rs:56:27: 56:29], ()>::{closure#1}::{closure#0}]>", align 1
  %_args = alloca {}, align 1
  call void @llvm.dbg.declare(metadata %"core::panic::unwind_safe::AssertUnwindSafe<[closure@std::thread::Builder::spawn_unchecked_<[closure@src/test_thread_locals.rs:56:27: 56:29], ()>::{closure#1}::{closure#0}]>"* %self.dbg.spill, metadata !1404, metadata !DIExpression()), !dbg !1408
  call void @llvm.dbg.declare(metadata {}* %_args, metadata !1405, metadata !DIExpression()), !dbg !1409
; call std::thread::Builder::spawn_unchecked_::{{closure}}::{{closure}}
  call void @"_ZN3std6thread7Builder16spawn_unchecked_28_$u7b$$u7b$closure$u7d$$u7d$28_$u7b$$u7b$closure$u7d$$u7d$17hf6b952cc563ccbeeE"(), !dbg !1410
  br label %bb1, !dbg !1410

bb1:                                              ; preds = %start
  ret void, !dbg !1411
}

; <core::ptr::non_null::NonNull<T> as core::convert::From<core::ptr::unique::Unique<T>>>::from
; Function Attrs: inlinehint nonlazybind uwtable
define internal i8* @"_ZN119_$LT$core..ptr..non_null..NonNull$LT$T$GT$$u20$as$u20$core..convert..From$LT$core..ptr..unique..Unique$LT$T$GT$$GT$$GT$4from17h19dbefea06dd2371E"(i8* %unique) unnamed_addr #0 !dbg !1412 {
start:
  %ptr.dbg.spill = alloca i8*, align 8
  %self.dbg.spill1 = alloca i8*, align 8
  %self.dbg.spill = alloca i8*, align 8
  %unique.dbg.spill = alloca i8*, align 8
  %0 = alloca i8*, align 8
  store i8* %unique, i8** %unique.dbg.spill, align 8
  call void @llvm.dbg.declare(metadata i8** %unique.dbg.spill, metadata !1418, metadata !DIExpression()), !dbg !1419
  store i8* %unique, i8** %self.dbg.spill, align 8, !dbg !1420
  call void @llvm.dbg.declare(metadata i8** %self.dbg.spill, metadata !1421, metadata !DIExpression()), !dbg !1428
  store i8* %unique, i8** %self.dbg.spill1, align 8, !dbg !1428
  call void @llvm.dbg.declare(metadata i8** %self.dbg.spill1, metadata !1429, metadata !DIExpression()), !dbg !1434
  store i8* %unique, i8** %ptr.dbg.spill, align 8, !dbg !1434
  call void @llvm.dbg.declare(metadata i8** %ptr.dbg.spill, metadata !1436, metadata !DIExpression()), !dbg !1441
  store i8* %unique, i8** %0, align 8, !dbg !1441
  %1 = load i8*, i8** %0, align 8, !dbg !1443, !nonnull !28, !noundef !28
  ret i8* %1, !dbg !1443
}

; <alloc::collections::TryReserveError as core::convert::From<alloc::collections::TryReserveErrorKind>>::from
; Function Attrs: inlinehint nonlazybind uwtable
define internal { i64, i64 } @"_ZN122_$LT$alloc..collections..TryReserveError$u20$as$u20$core..convert..From$LT$alloc..collections..TryReserveErrorKind$GT$$GT$4from17h6e98c5d1da63f7d0E"(i64 %kind.0, i64 %kind.1) unnamed_addr #0 !dbg !1444 {
start:
  %kind.dbg.spill = alloca { i64, i64 }, align 8
  %0 = alloca { i64, i64 }, align 8
  %1 = getelementptr inbounds { i64, i64 }, { i64, i64 }* %kind.dbg.spill, i32 0, i32 0
  store i64 %kind.0, i64* %1, align 8
  %2 = getelementptr inbounds { i64, i64 }, { i64, i64 }* %kind.dbg.spill, i32 0, i32 1
  store i64 %kind.1, i64* %2, align 8
  call void @llvm.dbg.declare(metadata { i64, i64 }* %kind.dbg.spill, metadata !1475, metadata !DIExpression()), !dbg !1476
  %3 = getelementptr inbounds { i64, i64 }, { i64, i64 }* %0, i32 0, i32 0, !dbg !1477
  store i64 %kind.0, i64* %3, align 8, !dbg !1477
  %4 = getelementptr inbounds { i64, i64 }, { i64, i64 }* %0, i32 0, i32 1, !dbg !1477
  store i64 %kind.1, i64* %4, align 8, !dbg !1477
  %5 = getelementptr inbounds { i64, i64 }, { i64, i64 }* %0, i32 0, i32 0, !dbg !1478
  %6 = load i64, i64* %5, align 8, !dbg !1478
  %7 = getelementptr inbounds { i64, i64 }, { i64, i64 }* %0, i32 0, i32 1, !dbg !1478
  %8 = load i64, i64* %7, align 8, !dbg !1478, !range !1479, !noundef !28
  %9 = insertvalue { i64, i64 } undef, i64 %6, 0, !dbg !1478
  %10 = insertvalue { i64, i64 } %9, i64 %8, 1, !dbg !1478
  ret { i64, i64 } %10, !dbg !1478
}

; std::sys_common::backtrace::__rust_begin_short_backtrace
; Function Attrs: noinline nonlazybind uwtable
define internal void @_ZN3std10sys_common9backtrace28__rust_begin_short_backtrace17h9075faf1f5726949E() unnamed_addr #2 personality i32 (i32, i32, i64, %"unwind::libunwind::_Unwind_Exception"*, %"unwind::libunwind::_Unwind_Context"*)* @rust_eh_personality !dbg !1480 {
start:
  %0 = alloca { i8*, i32 }, align 8
  %dummy.dbg.spill = alloca {}, align 1
  %f.dbg.spill = alloca %"[closure@src/test_thread_locals.rs:56:27: 56:29]", align 1
  %result.dbg.spill = alloca {}, align 1
  call void @llvm.dbg.declare(metadata {}* %result.dbg.spill, metadata !1487, metadata !DIExpression()), !dbg !1491
  call void @llvm.dbg.declare(metadata %"[closure@src/test_thread_locals.rs:56:27: 56:29]"* %f.dbg.spill, metadata !1486, metadata !DIExpression()), !dbg !1492
  call void @llvm.dbg.declare(metadata {}* %dummy.dbg.spill, metadata !1493, metadata !DIExpression()), !dbg !1501
; call statics_tests::test_thread_locals::test_thread_locals::{{closure}}
  call void @"_ZN13statics_tests18test_thread_locals18test_thread_locals28_$u7b$$u7b$closure$u7d$$u7d$17h1540399d328ece2dE"(), !dbg !1503
  br label %bb1, !dbg !1503

bb1:                                              ; preds = %start
  call void asm sideeffect "", "r,~{memory}"({}* undef), !dbg !1501, !srcloc !1504
  br label %bb4, !dbg !1501

bb4:                                              ; preds = %bb1
  ret void, !dbg !1505

bb2:                                              ; No predecessors!
  br label %bb3, !dbg !1506

bb3:                                              ; preds = %bb2
  %1 = bitcast { i8*, i32 }* %0 to i8**, !dbg !1507
  %2 = load i8*, i8** %1, align 8, !dbg !1507
  %3 = getelementptr inbounds { i8*, i32 }, { i8*, i32 }* %0, i32 0, i32 1, !dbg !1507
  %4 = load i32, i32* %3, align 8, !dbg !1507
  %5 = insertvalue { i8*, i32 } undef, i8* %2, 0, !dbg !1507
  %6 = insertvalue { i8*, i32 } %5, i32 %4, 1, !dbg !1507
  resume { i8*, i32 } %6, !dbg !1507
}

; std::sys_common::backtrace::__rust_begin_short_backtrace
; Function Attrs: noinline nonlazybind uwtable
define internal void @_ZN3std10sys_common9backtrace28__rust_begin_short_backtrace17hd4e1b9f94012fb34E(void ()* %f) unnamed_addr #2 personality i32 (i32, i32, i64, %"unwind::libunwind::_Unwind_Exception"*, %"unwind::libunwind::_Unwind_Context"*)* @rust_eh_personality !dbg !1508 {
start:
  %0 = alloca { i8*, i32 }, align 8
  %dummy.dbg.spill = alloca {}, align 1
  %f.dbg.spill = alloca void ()*, align 8
  %result.dbg.spill = alloca {}, align 1
  call void @llvm.dbg.declare(metadata {}* %result.dbg.spill, metadata !1513, metadata !DIExpression()), !dbg !1517
  store void ()* %f, void ()** %f.dbg.spill, align 8
  call void @llvm.dbg.declare(metadata void ()** %f.dbg.spill, metadata !1512, metadata !DIExpression()), !dbg !1518
  call void @llvm.dbg.declare(metadata {}* %dummy.dbg.spill, metadata !1519, metadata !DIExpression()), !dbg !1523
; call core::ops::function::FnOnce::call_once
  call void @_ZN4core3ops8function6FnOnce9call_once17h927891fa9cfdefd4E(void ()* %f), !dbg !1525
  br label %bb1, !dbg !1525

bb1:                                              ; preds = %start
  call void asm sideeffect "", "r,~{memory}"({}* undef), !dbg !1523, !srcloc !1504
  br label %bb4, !dbg !1523

bb4:                                              ; preds = %bb1
  ret void, !dbg !1526

bb2:                                              ; No predecessors!
  br label %bb3, !dbg !1527

bb3:                                              ; preds = %bb2
  %1 = bitcast { i8*, i32 }* %0 to i8**, !dbg !1528
  %2 = load i8*, i8** %1, align 8, !dbg !1528
  %3 = getelementptr inbounds { i8*, i32 }, { i8*, i32 }* %0, i32 0, i32 1, !dbg !1528
  %4 = load i32, i32* %3, align 8, !dbg !1528
  %5 = insertvalue { i8*, i32 } undef, i8* %2, 0, !dbg !1528
  %6 = insertvalue { i8*, i32 } %5, i32 %4, 1, !dbg !1528
  resume { i8*, i32 } %6, !dbg !1528
}

; std::io::Write::write_all
; Function Attrs: nonlazybind uwtable
define internal i8* @_ZN3std2io5Write9write_all17h2d81f1aebf73884aE(%"std::sys::unix::stdio::Stderr"* align 1 %self, [0 x i8]* align 1 %0, i64 %1) unnamed_addr #1 personality i32 (i32, i32, i64, %"unwind::libunwind::_Unwind_Exception"*, %"unwind::libunwind::_Unwind_Context"*)* @rust_eh_personality !dbg !1529 {
start:
  %ptr.dbg.spill = alloca {}*, align 8
  %m.dbg.spill = alloca %"std::io::error::SimpleMessage"*, align 8
  %msg.dbg.spill = alloca %"std::io::error::SimpleMessage"*, align 8
  %self.dbg.spill7 = alloca { [0 x i8]*, i64 }, align 8
  %n.dbg.spill = alloca i64, align 8
  %e.dbg.spill4 = alloca i8*, align 8
  %__arg1_tag.dbg.spill = alloca i64, align 8
  %__self_tag.dbg.spill = alloca i64, align 8
  %other.dbg.spill = alloca i8*, align 8
  %self.dbg.spill2 = alloca i8*, align 8
  %2 = alloca { i8*, i32 }, align 8
  %e.dbg.spill = alloca i8***, align 8
  %self.dbg.spill1 = alloca { [0 x i8]*, i64 }, align 8
  %self.dbg.spill = alloca %"std::sys::unix::stdio::Stderr"*, align 8
  %_39 = alloca i8*, align 8
  %_37 = alloca i8*, align 8
  %_24 = alloca i8, align 1
  %e = alloca i8**, align 8
  %index = alloca i64, align 8
  %_10 = alloca i8*, align 8
  %_6 = alloca %"core::result::Result<usize, std::io::error::Error>", align 8
  %3 = alloca i8*, align 8
  %buf = alloca { [0 x i8]*, i64 }, align 8
  %4 = getelementptr inbounds { [0 x i8]*, i64 }, { [0 x i8]*, i64 }* %buf, i32 0, i32 0
  store [0 x i8]* %0, [0 x i8]** %4, align 8
  %5 = getelementptr inbounds { [0 x i8]*, i64 }, { [0 x i8]*, i64 }* %buf, i32 0, i32 1
  store i64 %1, i64* %5, align 8
  store %"std::sys::unix::stdio::Stderr"* %self, %"std::sys::unix::stdio::Stderr"** %self.dbg.spill, align 8
  call void @llvm.dbg.declare(metadata %"std::sys::unix::stdio::Stderr"** %self.dbg.spill, metadata !1534, metadata !DIExpression()), !dbg !1547
  call void @llvm.dbg.declare(metadata { [0 x i8]*, i64 }* %buf, metadata !1535, metadata !DIExpression()), !dbg !1548
  call void @llvm.dbg.declare(metadata i64* %index, metadata !1549, metadata !DIExpression()), !dbg !1559
  call void @llvm.dbg.declare(metadata i8*** %e, metadata !1538, metadata !DIExpression()), !dbg !1561
  br label %bb1, !dbg !1562

bb1:                                              ; preds = %bb16, %start
  %6 = getelementptr inbounds { [0 x i8]*, i64 }, { [0 x i8]*, i64 }* %buf, i32 0, i32 0, !dbg !1563
  %self.0 = load [0 x i8]*, [0 x i8]** %6, align 8, !dbg !1563, !nonnull !28, !align !1104, !noundef !28
  %7 = getelementptr inbounds { [0 x i8]*, i64 }, { [0 x i8]*, i64 }* %buf, i32 0, i32 1, !dbg !1563
  %self.1 = load i64, i64* %7, align 8, !dbg !1563
  %8 = getelementptr inbounds { [0 x i8]*, i64 }, { [0 x i8]*, i64 }* %self.dbg.spill1, i32 0, i32 0, !dbg !1563
  store [0 x i8]* %self.0, [0 x i8]** %8, align 8, !dbg !1563
  %9 = getelementptr inbounds { [0 x i8]*, i64 }, { [0 x i8]*, i64 }* %self.dbg.spill1, i32 0, i32 1, !dbg !1563
  store i64 %self.1, i64* %9, align 8, !dbg !1563
  call void @llvm.dbg.declare(metadata { [0 x i8]*, i64 }* %self.dbg.spill1, metadata !1564, metadata !DIExpression()), !dbg !1572
  %_4 = icmp eq i64 %self.1, 0, !dbg !1572
  %_3 = xor i1 %_4, true, !dbg !1573
  br i1 %_3, label %bb2, label %bb12, !dbg !1573

bb12:                                             ; preds = %bb1
  %10 = bitcast i8** %3 to {}**, !dbg !1574
  store {}* null, {}** %10, align 8, !dbg !1574
  br label %bb14, !dbg !1575

bb2:                                              ; preds = %bb1
  %11 = getelementptr inbounds { [0 x i8]*, i64 }, { [0 x i8]*, i64 }* %buf, i32 0, i32 0, !dbg !1576
  %_8.0 = load [0 x i8]*, [0 x i8]** %11, align 8, !dbg !1576, !nonnull !28, !align !1104, !noundef !28
  %12 = getelementptr inbounds { [0 x i8]*, i64 }, { [0 x i8]*, i64 }* %buf, i32 0, i32 1, !dbg !1576
  %_8.1 = load i64, i64* %12, align 8, !dbg !1576
; call <std::sys::unix::stdio::Stderr as std::io::Write>::write
  call void @"_ZN64_$LT$std..sys..unix..stdio..Stderr$u20$as$u20$std..io..Write$GT$5write17h1e7f1c2ebe737f6eE"(%"core::result::Result<usize, std::io::error::Error>"* sret(%"core::result::Result<usize, std::io::error::Error>") %_6, %"std::sys::unix::stdio::Stderr"* align 1 %self, [0 x i8]* align 1 %_8.0, i64 %_8.1), !dbg !1577
  br label %bb3, !dbg !1577

bb3:                                              ; preds = %bb2
  %13 = bitcast %"core::result::Result<usize, std::io::error::Error>"* %_6 to i64*, !dbg !1577
  %_9 = load i64, i64* %13, align 8, !dbg !1577, !range !1578, !noundef !28
  switch i64 %_9, label %bb5 [
    i64 0, label %bb4
    i64 1, label %bb8
  ], !dbg !1579

bb5:                                              ; preds = %bb3
  unreachable, !dbg !1577

bb4:                                              ; preds = %bb3
  %14 = bitcast %"core::result::Result<usize, std::io::error::Error>"* %_6 to %"core::result::Result<usize, std::io::error::Error>::Ok"*, !dbg !1579
  %15 = getelementptr inbounds %"core::result::Result<usize, std::io::error::Error>::Ok", %"core::result::Result<usize, std::io::error::Error>::Ok"* %14, i32 0, i32 1, !dbg !1579
  %16 = load i64, i64* %15, align 8, !dbg !1579
  %17 = icmp eq i64 %16, 0, !dbg !1579
  br i1 %17, label %bb6, label %bb7, !dbg !1579

bb8:                                              ; preds = %bb3
  %18 = bitcast %"core::result::Result<usize, std::io::error::Error>"* %_6 to %"core::result::Result<usize, std::io::error::Error>::Err"*, !dbg !1580
  %19 = getelementptr inbounds %"core::result::Result<usize, std::io::error::Error>::Err", %"core::result::Result<usize, std::io::error::Error>::Err"* %18, i32 0, i32 1, !dbg !1580
  store i8** %19, i8*** %e, align 8, !dbg !1580
  store i8*** %e, i8**** %e.dbg.spill, align 8, !dbg !1580
  call void @llvm.dbg.declare(metadata i8**** %e.dbg.spill, metadata !1541, metadata !DIExpression()), !dbg !1561
  %_31 = load i8**, i8*** %e, align 8, !dbg !1581, !nonnull !28, !align !1582, !noundef !28
; invoke std::io::error::Error::kind
  %20 = invoke i8 @_ZN3std2io5error5Error4kind17h574b1779eeb38e5aE(i8** align 8 %_31)
          to label %bb9 unwind label %cleanup, !dbg !1581, !range !1583

bb22:                                             ; preds = %cleanup
  %21 = bitcast %"core::result::Result<usize, std::io::error::Error>"* %_6 to i64*, !dbg !1584
  %_34 = load i64, i64* %21, align 8, !dbg !1584, !range !1578, !noundef !28
  %22 = icmp eq i64 %_34, 1, !dbg !1584
  br i1 %22, label %bb20, label %bb15, !dbg !1584

cleanup:                                          ; preds = %bb7, %bb8
  %23 = landingpad { i8*, i32 }
          cleanup
  %24 = extractvalue { i8*, i32 } %23, 0
  %25 = extractvalue { i8*, i32 } %23, 1
  %26 = getelementptr inbounds { i8*, i32 }, { i8*, i32 }* %2, i32 0, i32 0
  store i8* %24, i8** %26, align 8
  %27 = getelementptr inbounds { i8*, i32 }, { i8*, i32 }* %2, i32 0, i32 1
  store i32 %25, i32* %27, align 8
  br label %bb22

bb9:                                              ; preds = %bb8
  store i8 %20, i8* %_24, align 1, !dbg !1581
  store i8* %_24, i8** %self.dbg.spill2, align 8, !dbg !1581
  call void @llvm.dbg.declare(metadata i8** %self.dbg.spill2, metadata !1585, metadata !DIExpression()), !dbg !1601
  store i8* getelementptr inbounds (<{ [1 x i8] }>, <{ [1 x i8] }>* @alloc488, i32 0, i32 0, i32 0), i8** %other.dbg.spill, align 8, !dbg !1602
  call void @llvm.dbg.declare(metadata i8** %other.dbg.spill, metadata !1594, metadata !DIExpression()), !dbg !1601
  %28 = load i8, i8* %_24, align 1, !dbg !1601, !range !1583, !noundef !28
  %__self_tag = zext i8 %28 to i64, !dbg !1601
  store i64 %__self_tag, i64* %__self_tag.dbg.spill, align 8, !dbg !1601
  call void @llvm.dbg.declare(metadata i64* %__self_tag.dbg.spill, metadata !1595, metadata !DIExpression()), !dbg !1603
  %29 = load i8, i8* getelementptr inbounds (<{ [1 x i8] }>, <{ [1 x i8] }>* @alloc488, i32 0, i32 0, i32 0), align 1, !dbg !1603, !range !1583, !noundef !28
  %__arg1_tag = zext i8 %29 to i64, !dbg !1603
  store i64 %__arg1_tag, i64* %__arg1_tag.dbg.spill, align 8, !dbg !1603
  call void @llvm.dbg.declare(metadata i64* %__arg1_tag.dbg.spill, metadata !1598, metadata !DIExpression()), !dbg !1604
  %_22 = icmp eq i64 %__self_tag, %__arg1_tag, !dbg !1604
  br i1 %_22, label %bb10, label %bb11, !dbg !1581

bb11:                                             ; preds = %bb9
  %30 = bitcast %"core::result::Result<usize, std::io::error::Error>"* %_6 to %"core::result::Result<usize, std::io::error::Error>::Err"*, !dbg !1605
  %31 = getelementptr inbounds %"core::result::Result<usize, std::io::error::Error>::Err", %"core::result::Result<usize, std::io::error::Error>::Err"* %30, i32 0, i32 1, !dbg !1605
  %e3 = load i8*, i8** %31, align 8, !dbg !1605, !nonnull !28, !noundef !28
  store i8* %e3, i8** %e.dbg.spill4, align 8, !dbg !1605
  call void @llvm.dbg.declare(metadata i8** %e.dbg.spill4, metadata !1543, metadata !DIExpression()), !dbg !1606
  store i8* %e3, i8** %3, align 8, !dbg !1607
  br label %bb13, !dbg !1608

bb10:                                             ; preds = %bb9
  br label %bb19, !dbg !1611

bb19:                                             ; preds = %bb23, %bb10
  %32 = bitcast %"core::result::Result<usize, std::io::error::Error>"* %_6 to i64*, !dbg !1584
  %_33 = load i64, i64* %32, align 8, !dbg !1584, !range !1578, !noundef !28
  %33 = icmp eq i64 %_33, 1, !dbg !1584
  br i1 %33, label %bb17, label %bb16, !dbg !1584

bb13:                                             ; preds = %bb6, %bb11
  br label %bb14, !dbg !1575

bb6:                                              ; preds = %bb4
  store %"std::io::error::SimpleMessage"* bitcast (<{ i8*, [9 x i8], [7 x i8] }>* @alloc486 to %"std::io::error::SimpleMessage"*), %"std::io::error::SimpleMessage"** %msg.dbg.spill, align 8, !dbg !1612
  call void @llvm.dbg.declare(metadata %"std::io::error::SimpleMessage"** %msg.dbg.spill, metadata !1613, metadata !DIExpression()), !dbg !1619
  store %"std::io::error::SimpleMessage"* bitcast (<{ i8*, [9 x i8], [7 x i8] }>* @alloc486 to %"std::io::error::SimpleMessage"*), %"std::io::error::SimpleMessage"** %m.dbg.spill, align 8, !dbg !1619
  call void @llvm.dbg.declare(metadata %"std::io::error::SimpleMessage"** %m.dbg.spill, metadata !1622, metadata !DIExpression()), !dbg !1629
  store {}* bitcast (<{ i8*, [9 x i8], [7 x i8] }>* @alloc486 to {}*), {}** %ptr.dbg.spill, align 8, !dbg !1629
  call void @llvm.dbg.declare(metadata {}** %ptr.dbg.spill, metadata !1631, metadata !DIExpression()), !dbg !1637
  %34 = bitcast i8** %_39 to {}**, !dbg !1637
  store {}* bitcast (<{ i8*, [9 x i8], [7 x i8] }>* @alloc486 to {}*), {}** %34, align 8, !dbg !1637
  %35 = load i8*, i8** %_39, align 8, !dbg !1629, !nonnull !28, !noundef !28
  store i8* %35, i8** %_37, align 8, !dbg !1629
  %36 = load i8*, i8** %_37, align 8, !dbg !1619, !nonnull !28, !noundef !28
  store i8* %36, i8** %_10, align 8, !dbg !1619
  %37 = load i8*, i8** %_10, align 8, !dbg !1639, !nonnull !28, !noundef !28
  store i8* %37, i8** %3, align 8, !dbg !1639
  br label %bb13, !dbg !1608

bb7:                                              ; preds = %bb4
  %38 = bitcast %"core::result::Result<usize, std::io::error::Error>"* %_6 to %"core::result::Result<usize, std::io::error::Error>::Ok"*, !dbg !1640
  %39 = getelementptr inbounds %"core::result::Result<usize, std::io::error::Error>::Ok", %"core::result::Result<usize, std::io::error::Error>::Ok"* %38, i32 0, i32 1, !dbg !1640
  %n = load i64, i64* %39, align 8, !dbg !1640
  store i64 %n, i64* %n.dbg.spill, align 8, !dbg !1640
  call void @llvm.dbg.declare(metadata i64* %n.dbg.spill, metadata !1536, metadata !DIExpression()), !dbg !1641
  %40 = getelementptr inbounds { [0 x i8]*, i64 }, { [0 x i8]*, i64 }* %buf, i32 0, i32 0, !dbg !1560
  %self.05 = load [0 x i8]*, [0 x i8]** %40, align 8, !dbg !1560, !nonnull !28, !align !1104, !noundef !28
  %41 = getelementptr inbounds { [0 x i8]*, i64 }, { [0 x i8]*, i64 }* %buf, i32 0, i32 1, !dbg !1560
  %self.16 = load i64, i64* %41, align 8, !dbg !1560
  %42 = getelementptr inbounds { [0 x i8]*, i64 }, { [0 x i8]*, i64 }* %self.dbg.spill7, i32 0, i32 0, !dbg !1560
  store [0 x i8]* %self.05, [0 x i8]** %42, align 8, !dbg !1560
  %43 = getelementptr inbounds { [0 x i8]*, i64 }, { [0 x i8]*, i64 }* %self.dbg.spill7, i32 0, i32 1, !dbg !1560
  store i64 %self.16, i64* %43, align 8, !dbg !1560
  call void @llvm.dbg.declare(metadata { [0 x i8]*, i64 }* %self.dbg.spill7, metadata !1556, metadata !DIExpression()), !dbg !1559
  store i64 %n, i64* %index, align 8, !dbg !1642
  %_46 = load i64, i64* %index, align 8, !dbg !1559
; invoke <core::ops::range::RangeFrom<usize> as core::slice::index::SliceIndex<[T]>>::index
  %44 = invoke { [0 x i8]*, i64 } @"_ZN110_$LT$core..ops..range..RangeFrom$LT$usize$GT$$u20$as$u20$core..slice..index..SliceIndex$LT$$u5b$T$u5d$$GT$$GT$5index17h33365f3c40feb0a1E"(i64 %_46, [0 x i8]* align 1 %self.05, i64 %self.16, %"core::panic::location::Location"* align 8 bitcast (<{ i8*, [16 x i8] }>* @alloc620 to %"core::panic::location::Location"*))
          to label %bb23 unwind label %cleanup, !dbg !1559

bb23:                                             ; preds = %bb7
  %_16.0 = extractvalue { [0 x i8]*, i64 } %44, 0, !dbg !1559
  %_16.1 = extractvalue { [0 x i8]*, i64 } %44, 1, !dbg !1559
  %45 = getelementptr inbounds { [0 x i8]*, i64 }, { [0 x i8]*, i64 }* %buf, i32 0, i32 0, !dbg !1643
  store [0 x i8]* %_16.0, [0 x i8]** %45, align 8, !dbg !1643
  %46 = getelementptr inbounds { [0 x i8]*, i64 }, { [0 x i8]*, i64 }* %buf, i32 0, i32 1, !dbg !1643
  store i64 %_16.1, i64* %46, align 8, !dbg !1643
  br label %bb19, !dbg !1644

bb20:                                             ; preds = %bb22
  br i1 true, label %bb21, label %bb15, !dbg !1584

bb15:                                             ; preds = %bb21, %bb20, %bb22
  %47 = bitcast { i8*, i32 }* %2 to i8**, !dbg !1645
  %48 = load i8*, i8** %47, align 8, !dbg !1645
  %49 = getelementptr inbounds { i8*, i32 }, { i8*, i32 }* %2, i32 0, i32 1, !dbg !1645
  %50 = load i32, i32* %49, align 8, !dbg !1645
  %51 = insertvalue { i8*, i32 } undef, i8* %48, 0, !dbg !1645
  %52 = insertvalue { i8*, i32 } %51, i32 %50, 1, !dbg !1645
  resume { i8*, i32 } %52, !dbg !1645

bb21:                                             ; preds = %bb20
  %53 = bitcast %"core::result::Result<usize, std::io::error::Error>"* %_6 to %"core::result::Result<usize, std::io::error::Error>::Err"*, !dbg !1584
  %54 = getelementptr inbounds %"core::result::Result<usize, std::io::error::Error>::Err", %"core::result::Result<usize, std::io::error::Error>::Err"* %53, i32 0, i32 1, !dbg !1584
; invoke core::ptr::drop_in_place<std::io::error::Error>
  invoke void @"_ZN4core3ptr42drop_in_place$LT$std..io..error..Error$GT$17h95925069f7247ee8E"(i8** %54) #18
          to label %bb15 unwind label %abort, !dbg !1584

abort:                                            ; preds = %bb21
  %55 = landingpad { i8*, i32 }
          cleanup, !dbg !1645
; call core::panicking::panic_no_unwind
  call void @_ZN4core9panicking15panic_no_unwind17h62f8113f44cbfcbfE() #19, !dbg !1645
  unreachable, !dbg !1645

bb17:                                             ; preds = %bb19
  br i1 true, label %bb18, label %bb16, !dbg !1584

bb16:                                             ; preds = %bb18, %bb17, %bb19
  br label %bb1, !dbg !1562

bb18:                                             ; preds = %bb17
  %56 = bitcast %"core::result::Result<usize, std::io::error::Error>"* %_6 to %"core::result::Result<usize, std::io::error::Error>::Err"*, !dbg !1584
  %57 = getelementptr inbounds %"core::result::Result<usize, std::io::error::Error>::Err", %"core::result::Result<usize, std::io::error::Error>::Err"* %56, i32 0, i32 1, !dbg !1584
; call core::ptr::drop_in_place<std::io::error::Error>
  call void @"_ZN4core3ptr42drop_in_place$LT$std..io..error..Error$GT$17h95925069f7247ee8E"(i8** %57), !dbg !1584
  br label %bb16, !dbg !1584

bb14:                                             ; preds = %bb12, %bb13
  %58 = load i8*, i8** %3, align 8, !dbg !1575
  ret i8* %58, !dbg !1575
}

; std::io::Write::write_fmt
; Function Attrs: nonlazybind uwtable
define internal i8* @_ZN3std2io5Write9write_fmt17hd7dc32ae724c3112E(%"std::sys::unix::stdio::Stderr"* align 1 %self, %"core::fmt::Arguments"* %fmt) unnamed_addr #1 personality i32 (i32, i32, i64, %"unwind::libunwind::_Unwind_Exception"*, %"unwind::libunwind::_Unwind_Context"*)* @rust_eh_personality !dbg !1646 {
start:
  %ptr.dbg.spill = alloca {}*, align 8
  %m.dbg.spill = alloca %"std::io::error::SimpleMessage"*, align 8
  %msg.dbg.spill = alloca %"std::io::error::SimpleMessage"*, align 8
  %self.dbg.spill3 = alloca i8**, align 8
  %self.dbg.spill2 = alloca i8**, align 8
  %0 = alloca { i8*, i32 }, align 8
  %self.dbg.spill = alloca %"std::sys::unix::stdio::Stderr"*, align 8
  %_24 = alloca i8*, align 8
  %_22 = alloca i8*, align 8
  %_19 = alloca i8, align 1
  %_18 = alloca i8, align 1
  %_14 = alloca i8*, align 8
  %_10 = alloca %"core::fmt::Arguments", align 8
  %_6 = alloca i8, align 1
  %_5 = alloca i8*, align 8
  %output = alloca { i8*, i8* }, align 8
  %1 = alloca i8*, align 8
  store %"std::sys::unix::stdio::Stderr"* %self, %"std::sys::unix::stdio::Stderr"** %self.dbg.spill, align 8
  call void @llvm.dbg.declare(metadata %"std::sys::unix::stdio::Stderr"** %self.dbg.spill, metadata !1761, metadata !DIExpression()), !dbg !1765
  call void @llvm.dbg.declare(metadata %"core::fmt::Arguments"* %fmt, metadata !1762, metadata !DIExpression()), !dbg !1766
  call void @llvm.dbg.declare(metadata { i8*, i8* }* %output, metadata !1763, metadata !DIExpression()), !dbg !1767
  %2 = bitcast i8** %_5 to {}**, !dbg !1768
  store {}* null, {}** %2, align 8, !dbg !1768
  store i8 1, i8* %_18, align 1, !dbg !1769
  %3 = bitcast { i8*, i8* }* %output to %"std::sys::unix::stdio::Stderr"**, !dbg !1769
  store %"std::sys::unix::stdio::Stderr"* %self, %"std::sys::unix::stdio::Stderr"** %3, align 8, !dbg !1769
  %4 = getelementptr inbounds { i8*, i8* }, { i8*, i8* }* %output, i32 0, i32 1, !dbg !1769
  %5 = load i8*, i8** %_5, align 8, !dbg !1769
  store i8* %5, i8** %4, align 8, !dbg !1769
  %_7.0 = bitcast { i8*, i8* }* %output to {}*, !dbg !1770
  %6 = bitcast %"core::fmt::Arguments"* %_10 to i8*, !dbg !1771
  %7 = bitcast %"core::fmt::Arguments"* %fmt to i8*, !dbg !1771
  call void @llvm.memcpy.p0i8.p0i8.i64(i8* align 8 %6, i8* align 8 %7, i64 48, i1 false), !dbg !1771
; invoke core::fmt::write
  %8 = invoke zeroext i1 @_ZN4core3fmt5write17hcd15d2c673b5a9c1E({}* align 1 %_7.0, [3 x i64]* align 8 bitcast (<{ i8*, [16 x i8], i8*, i8*, i8* }>* @vtable.0 to [3 x i64]*), %"core::fmt::Arguments"* %_10)
          to label %bb1 unwind label %cleanup, !dbg !1772

bb8:                                              ; preds = %cleanup
; invoke core::ptr::drop_in_place<std::io::Write::write_fmt::Adapter<std::sys::unix::stdio::Stderr>>
  invoke void @"_ZN4core3ptr92drop_in_place$LT$std..io..Write..write_fmt..Adapter$LT$std..sys..unix..stdio..Stderr$GT$$GT$17h3dab90b2d47f43a0E"({ i8*, i8* }* %output) #18
          to label %bb9 unwind label %abort, !dbg !1773

cleanup:                                          ; preds = %start
  %9 = landingpad { i8*, i32 }
          cleanup
  %10 = extractvalue { i8*, i32 } %9, 0
  %11 = extractvalue { i8*, i32 } %9, 1
  %12 = getelementptr inbounds { i8*, i32 }, { i8*, i32 }* %0, i32 0, i32 0
  store i8* %10, i8** %12, align 8
  %13 = getelementptr inbounds { i8*, i32 }, { i8*, i32 }* %0, i32 0, i32 1
  store i32 %11, i32* %13, align 8
  br label %bb8

bb1:                                              ; preds = %start
  %14 = zext i1 %8 to i8, !dbg !1772
  store i8 %14, i8* %_6, align 1, !dbg !1772
  %15 = load i8, i8* %_6, align 1, !dbg !1772, !range !1099, !noundef !28
  %16 = trunc i8 %15 to i1, !dbg !1772
  %_11 = zext i1 %16 to i64, !dbg !1772
  switch i64 %_11, label %bb3 [
    i64 0, label %bb4
    i64 1, label %bb2
  ], !dbg !1774

abort:                                            ; preds = %bb8
  %17 = landingpad { i8*, i32 }
          cleanup, !dbg !1775
; call core::panicking::panic_no_unwind
  call void @_ZN4core9panicking15panic_no_unwind17h62f8113f44cbfcbfE() #19, !dbg !1775
  unreachable, !dbg !1775

bb9:                                              ; preds = %bb8
  %18 = bitcast { i8*, i32 }* %0 to i8**, !dbg !1775
  %19 = load i8*, i8** %18, align 8, !dbg !1775
  %20 = getelementptr inbounds { i8*, i32 }, { i8*, i32 }* %0, i32 0, i32 1, !dbg !1775
  %21 = load i32, i32* %20, align 8, !dbg !1775
  %22 = insertvalue { i8*, i32 } undef, i8* %19, 0, !dbg !1775
  %23 = insertvalue { i8*, i32 } %22, i32 %21, 1, !dbg !1775
  resume { i8*, i32 } %23, !dbg !1775

bb3:                                              ; preds = %bb1
  unreachable, !dbg !1772

bb4:                                              ; preds = %bb1
  %24 = bitcast i8** %1 to {}**, !dbg !1776
  store {}* null, {}** %24, align 8, !dbg !1776
  br label %bb12, !dbg !1777

bb2:                                              ; preds = %bb1
  %self1 = getelementptr inbounds { i8*, i8* }, { i8*, i8* }* %output, i32 0, i32 1, !dbg !1778
  store i8** %self1, i8*** %self.dbg.spill2, align 8, !dbg !1778
  call void @llvm.dbg.declare(metadata i8*** %self.dbg.spill2, metadata !1779, metadata !DIExpression()), !dbg !1787
  store i8** %self1, i8*** %self.dbg.spill3, align 8, !dbg !1787
  call void @llvm.dbg.declare(metadata i8*** %self.dbg.spill3, metadata !1788, metadata !DIExpression()), !dbg !1792
  %25 = bitcast i8** %self1 to {}**, !dbg !1792
  %26 = load {}*, {}** %25, align 8, !dbg !1792
  %27 = icmp eq {}* %26, null, !dbg !1792
  %_21 = select i1 %27, i64 0, i64 1, !dbg !1792
  %28 = icmp eq i64 %_21, 0, !dbg !1792
  br i1 %28, label %bb15, label %bb14, !dbg !1792

bb15:                                             ; preds = %bb2
  store i8 1, i8* %_19, align 1, !dbg !1792
  br label %bb13, !dbg !1792

bb14:                                             ; preds = %bb2
  store i8 0, i8* %_19, align 1, !dbg !1792
  br label %bb13, !dbg !1792

bb13:                                             ; preds = %bb15, %bb14
  %29 = load i8, i8* %_19, align 1, !dbg !1787, !range !1099, !noundef !28
  %30 = trunc i8 %29 to i1, !dbg !1787
  %_12 = xor i1 %30, true, !dbg !1787
  br i1 %_12, label %bb5, label %bb6, !dbg !1778

bb6:                                              ; preds = %bb13
  store %"std::io::error::SimpleMessage"* bitcast (<{ i8*, [9 x i8], [7 x i8] }>* @alloc477 to %"std::io::error::SimpleMessage"*), %"std::io::error::SimpleMessage"** %msg.dbg.spill, align 8, !dbg !1794
  call void @llvm.dbg.declare(metadata %"std::io::error::SimpleMessage"** %msg.dbg.spill, metadata !1795, metadata !DIExpression()), !dbg !1799
  store %"std::io::error::SimpleMessage"* bitcast (<{ i8*, [9 x i8], [7 x i8] }>* @alloc477 to %"std::io::error::SimpleMessage"*), %"std::io::error::SimpleMessage"** %m.dbg.spill, align 8, !dbg !1799
  call void @llvm.dbg.declare(metadata %"std::io::error::SimpleMessage"** %m.dbg.spill, metadata !1802, metadata !DIExpression()), !dbg !1806
  store {}* bitcast (<{ i8*, [9 x i8], [7 x i8] }>* @alloc477 to {}*), {}** %ptr.dbg.spill, align 8, !dbg !1806
  call void @llvm.dbg.declare(metadata {}** %ptr.dbg.spill, metadata !1808, metadata !DIExpression()), !dbg !1812
  %31 = bitcast i8** %_24 to {}**, !dbg !1812
  store {}* bitcast (<{ i8*, [9 x i8], [7 x i8] }>* @alloc477 to {}*), {}** %31, align 8, !dbg !1812
  %32 = load i8*, i8** %_24, align 8, !dbg !1806, !nonnull !28, !noundef !28
  store i8* %32, i8** %_22, align 8, !dbg !1806
  %33 = load i8*, i8** %_22, align 8, !dbg !1799, !nonnull !28, !noundef !28
  store i8* %33, i8** %_14, align 8, !dbg !1799
  %34 = load i8*, i8** %_14, align 8, !dbg !1814, !nonnull !28, !noundef !28
  store i8* %34, i8** %1, align 8, !dbg !1814
  br label %bb7, !dbg !1815

bb5:                                              ; preds = %bb13
  store i8 0, i8* %_18, align 1, !dbg !1816
  %35 = getelementptr inbounds { i8*, i8* }, { i8*, i8* }* %output, i32 0, i32 1, !dbg !1816
  %36 = load i8*, i8** %35, align 8, !dbg !1816
  store i8* %36, i8** %1, align 8, !dbg !1816
  br label %bb7, !dbg !1815

bb7:                                              ; preds = %bb6, %bb5
  br label %bb12, !dbg !1817

bb12:                                             ; preds = %bb4, %bb7
  %37 = load i8, i8* %_18, align 1, !dbg !1773, !range !1099, !noundef !28
  %38 = trunc i8 %37 to i1, !dbg !1773
  br i1 %38, label %bb11, label %bb10, !dbg !1773

bb10:                                             ; preds = %bb11, %bb12
  %39 = load i8*, i8** %1, align 8, !dbg !1818
  ret i8* %39, !dbg !1818

bb11:                                             ; preds = %bb12
  %40 = getelementptr inbounds { i8*, i8* }, { i8*, i8* }* %output, i32 0, i32 1, !dbg !1773
; call core::ptr::drop_in_place<core::result::Result<(),std::io::error::Error>>
  call void @"_ZN4core3ptr81drop_in_place$LT$core..result..Result$LT$$LP$$RP$$C$std..io..error..Error$GT$$GT$17h38ccdb4d7617198cE"(i8** %40), !dbg !1773
  br label %bb10, !dbg !1773
}

; std::io::error::repr_bitpacked::decode_repr
; Function Attrs: inlinehint nonlazybind uwtable
define internal void @_ZN3std2io5error14repr_bitpacked11decode_repr17h59e95b71693e0529E(%"std::io::error::ErrorData<alloc::boxed::Box<std::io::error::Custom>>"* sret(%"std::io::error::ErrorData<alloc::boxed::Box<std::io::error::Custom>>") %0, i8* %ptr) unnamed_addr #0 personality i32 (i32, i32, i64, %"unwind::libunwind::_Unwind_Exception"*, %"unwind::libunwind::_Unwind_Context"*)* @rust_eh_personality !dbg !1819 {
start:
  %code.dbg.spill = alloca i32, align 4
  %x.dbg.spill = alloca i8, align 1
  %kind_bits.dbg.spill = alloca i32, align 4
  %ptr.dbg.spill12 = alloca %"std::io::error::SimpleMessage"*, align 8
  %self.dbg.spill10 = alloca i8*, align 8
  %self.dbg.spill9 = alloca i8*, align 8
  %custom.dbg.spill = alloca %"std::io::error::Custom"*, align 8
  %self.dbg.spill8 = alloca i8*, align 8
  %1 = alloca i8*, align 8
  %self.dbg.spill7 = alloca i8*, align 8
  %self.dbg.spill6 = alloca i8*, align 8
  %self.dbg.spill4 = alloca {}*, align 8
  %self.dbg.spill3 = alloca i8*, align 8
  %2 = alloca { i8*, i32 }, align 8
  %self.dbg.spill2 = alloca {}*, align 8
  %self.dbg.spill = alloca i8*, align 8
  %make_custom.dbg.spill = alloca %"[closure@<std::io::error::repr_bitpacked::Repr as core::ops::drop::Drop>::drop::{closure#0}]", align 1
  %ptr.dbg.spill = alloca i8*, align 8
  %_37 = alloca i8, align 1
  %_34 = alloca i64*, align 8
  %self1 = alloca i64*, align 8
  %f = alloca i64*, align 8
  %self = alloca i8, align 1
  %kind = alloca i8, align 1
  %bits = alloca i64, align 8
  store i8* %ptr, i8** %ptr.dbg.spill, align 8
  call void @llvm.dbg.declare(metadata i8** %ptr.dbg.spill, metadata !1826, metadata !DIExpression()), !dbg !1841
  call void @llvm.dbg.declare(metadata %"[closure@<std::io::error::repr_bitpacked::Repr as core::ops::drop::Drop>::drop::{closure#0}]"* %make_custom.dbg.spill, metadata !1827, metadata !DIExpression()), !dbg !1842
  call void @llvm.dbg.declare(metadata i64* %bits, metadata !1828, metadata !DIExpression()), !dbg !1843
  call void @llvm.dbg.declare(metadata i8* %kind, metadata !1834, metadata !DIExpression()), !dbg !1844
  call void @llvm.dbg.declare(metadata i8* %self, metadata !1845, metadata !DIExpression()), !dbg !1875
  call void @llvm.dbg.declare(metadata i64** %f, metadata !1869, metadata !DIExpression()), !dbg !1875
  call void @llvm.dbg.declare(metadata i64** %self1, metadata !1877, metadata !DIExpression()), !dbg !1890
  store i8 1, i8* %_37, align 1, !dbg !1892
  store i8* %ptr, i8** %self.dbg.spill, align 8, !dbg !1893
  call void @llvm.dbg.declare(metadata i8** %self.dbg.spill, metadata !1894, metadata !DIExpression()), !dbg !1900
  %_38 = bitcast i8* %ptr to {}*, !dbg !1900
  store {}* %_38, {}** %self.dbg.spill2, align 8, !dbg !1900
  call void @llvm.dbg.declare(metadata {}** %self.dbg.spill2, metadata !1901, metadata !DIExpression()), !dbg !1907
  %3 = bitcast i64* %bits to {}**, !dbg !1907
  store {}* %_38, {}** %3, align 8, !dbg !1907
  br label %bb14, !dbg !1907

bb14:                                             ; preds = %start
  %_7 = load i64, i64* %bits, align 8, !dbg !1908
  %_6 = and i64 %_7, 3, !dbg !1908
  switch i64 %_6, label %bb1 [
    i64 2, label %bb2
    i64 3, label %bb3
    i64 0, label %bb5
    i64 1, label %bb6
  ], !dbg !1909

bb1:                                              ; preds = %bb14
; invoke core::panicking::panic
  invoke void @_ZN4core9panicking5panic17hf5844c0338bd061cE([0 x i8]* align 1 bitcast (<{ [40 x i8] }>* @alloc629 to [0 x i8]*), i64 40, %"core::panic::location::Location"* align 8 bitcast (<{ i8*, [16 x i8] }>* @alloc628 to %"core::panic::location::Location"*)) #17
          to label %unreachable unwind label %cleanup, !dbg !1910

bb2:                                              ; preds = %bb14
  %_11 = load i64, i64* %bits, align 8, !dbg !1911
  %_9 = ashr i64 %_11, 32, !dbg !1912
  %code = trunc i64 %_9 to i32, !dbg !1912
  store i32 %code, i32* %code.dbg.spill, align 4, !dbg !1912
  call void @llvm.dbg.declare(metadata i32* %code.dbg.spill, metadata !1830, metadata !DIExpression()), !dbg !1913
  %4 = bitcast %"std::io::error::ErrorData<alloc::boxed::Box<std::io::error::Custom>>"* %0 to %"std::io::error::ErrorData<alloc::boxed::Box<std::io::error::Custom>>::Os"*, !dbg !1914
  %5 = getelementptr inbounds %"std::io::error::ErrorData<alloc::boxed::Box<std::io::error::Custom>>::Os", %"std::io::error::ErrorData<alloc::boxed::Box<std::io::error::Custom>>::Os"* %4, i32 0, i32 1, !dbg !1914
  store i32 %code, i32* %5, align 4, !dbg !1914
  %6 = bitcast %"std::io::error::ErrorData<alloc::boxed::Box<std::io::error::Custom>>"* %0 to i8*, !dbg !1914
  store i8 0, i8* %6, align 8, !dbg !1914
  br label %bb8, !dbg !1915

bb3:                                              ; preds = %bb14
  %_15 = load i64, i64* %bits, align 8, !dbg !1916
  %_14 = lshr i64 %_15, 32, !dbg !1917
  %kind_bits = trunc i64 %_14 to i32, !dbg !1917
  store i32 %kind_bits, i32* %kind_bits.dbg.spill, align 4, !dbg !1917
  call void @llvm.dbg.declare(metadata i32* %kind_bits.dbg.spill, metadata !1832, metadata !DIExpression()), !dbg !1918
; invoke std::io::error::repr_bitpacked::kind_from_prim
  %7 = invoke i8 @_ZN3std2io5error14repr_bitpacked14kind_from_prim17h1dd369807d8c491bE(i32 %kind_bits)
          to label %bb4 unwind label %cleanup, !dbg !1876, !range !1919

bb5:                                              ; preds = %bb14
  store i8* %ptr, i8** %self.dbg.spill9, align 8, !dbg !1891
  call void @llvm.dbg.declare(metadata i8** %self.dbg.spill9, metadata !1920, metadata !DIExpression()), !dbg !1928
  store i8* %ptr, i8** %self.dbg.spill10, align 8, !dbg !1928
  call void @llvm.dbg.declare(metadata i8** %self.dbg.spill10, metadata !1929, metadata !DIExpression()), !dbg !1933
  %_47 = bitcast i8* %ptr to {}*, !dbg !1933
  %ptr11 = bitcast {}* %_47 to %"std::io::error::SimpleMessage"*, !dbg !1928
  store %"std::io::error::SimpleMessage"* %ptr11, %"std::io::error::SimpleMessage"** %ptr.dbg.spill12, align 8, !dbg !1928
  call void @llvm.dbg.declare(metadata %"std::io::error::SimpleMessage"** %ptr.dbg.spill12, metadata !1935, metadata !DIExpression()), !dbg !1941
  %8 = bitcast i64** %self1 to %"std::io::error::SimpleMessage"**, !dbg !1941
  store %"std::io::error::SimpleMessage"* %ptr11, %"std::io::error::SimpleMessage"** %8, align 8, !dbg !1941
  %9 = bitcast i64** %self1 to %"std::io::error::SimpleMessage"**, !dbg !1890
  %_51 = load %"std::io::error::SimpleMessage"*, %"std::io::error::SimpleMessage"** %9, align 8, !dbg !1890
  %10 = bitcast %"std::io::error::ErrorData<alloc::boxed::Box<std::io::error::Custom>>"* %0 to %"std::io::error::ErrorData<alloc::boxed::Box<std::io::error::Custom>>::SimpleMessage"*, !dbg !1943
  %11 = getelementptr inbounds %"std::io::error::ErrorData<alloc::boxed::Box<std::io::error::Custom>>::SimpleMessage", %"std::io::error::ErrorData<alloc::boxed::Box<std::io::error::Custom>>::SimpleMessage"* %10, i32 0, i32 1, !dbg !1943
  store %"std::io::error::SimpleMessage"* %_51, %"std::io::error::SimpleMessage"** %11, align 8, !dbg !1943
  %12 = bitcast %"std::io::error::ErrorData<alloc::boxed::Box<std::io::error::Custom>>"* %0 to i8*, !dbg !1943
  store i8 2, i8* %12, align 8, !dbg !1943
  br label %bb8, !dbg !1944

bb6:                                              ; preds = %bb14
  store i8* %ptr, i8** %self.dbg.spill3, align 8, !dbg !1945
  call void @llvm.dbg.declare(metadata i8** %self.dbg.spill3, metadata !1946, metadata !DIExpression()), !dbg !1950
  %_52 = bitcast i8* %ptr to {}*, !dbg !1950
  store {}* %_52, {}** %self.dbg.spill4, align 8, !dbg !1950
  call void @llvm.dbg.declare(metadata {}** %self.dbg.spill4, metadata !1951, metadata !DIExpression()), !dbg !1959
  %self5 = bitcast {}* %_52 to i8*, !dbg !1959
  store i8* %self5, i8** %self.dbg.spill6, align 8, !dbg !1959
  call void @llvm.dbg.declare(metadata i8** %self.dbg.spill6, metadata !1960, metadata !DIExpression()), !dbg !1965
  store i8* %self5, i8** %self.dbg.spill7, align 8, !dbg !1965
  call void @llvm.dbg.declare(metadata i8** %self.dbg.spill7, metadata !1966, metadata !DIExpression()), !dbg !1971
  %13 = getelementptr i8, i8* %self5, i64 -1, !dbg !1971
  store i8* %13, i8** %1, align 8, !dbg !1971
  %_60 = load i8*, i8** %1, align 8, !dbg !1971
  br label %bb20, !dbg !1971

bb13:                                             ; preds = %cleanup
  %14 = load i8, i8* %_37, align 1, !dbg !1973, !range !1099, !noundef !28
  %15 = trunc i8 %14 to i1, !dbg !1973
  br i1 %15, label %bb12, label %bb10, !dbg !1973

cleanup:                                          ; preds = %bb15, %bb3, %bb20, %bb1
  %16 = landingpad { i8*, i32 }
          cleanup
  %17 = extractvalue { i8*, i32 } %16, 0
  %18 = extractvalue { i8*, i32 } %16, 1
  %19 = getelementptr inbounds { i8*, i32 }, { i8*, i32 }* %2, i32 0, i32 0
  store i8* %17, i8** %19, align 8
  %20 = getelementptr inbounds { i8*, i32 }, { i8*, i32 }* %2, i32 0, i32 1
  store i32 %18, i32* %20, align 8
  br label %bb13

unreachable:                                      ; preds = %bb1
  unreachable

bb20:                                             ; preds = %bb6
  store i8* %_60, i8** %self.dbg.spill8, align 8, !dbg !1971
  call void @llvm.dbg.declare(metadata i8** %self.dbg.spill8, metadata !1974, metadata !DIExpression()), !dbg !1982
  %custom = bitcast i8* %_60 to %"std::io::error::Custom"*, !dbg !1982
  store %"std::io::error::Custom"* %custom, %"std::io::error::Custom"** %custom.dbg.spill, align 8, !dbg !1982
  call void @llvm.dbg.declare(metadata %"std::io::error::Custom"** %custom.dbg.spill, metadata !1836, metadata !DIExpression()), !dbg !1983
  store i8 0, i8* %_37, align 1, !dbg !1984
  %21 = bitcast i64** %_34 to %"std::io::error::Custom"**, !dbg !1984
  store %"std::io::error::Custom"* %custom, %"std::io::error::Custom"** %21, align 8, !dbg !1984
  %22 = load i64*, i64** %_34, align 8, !dbg !1984
  %23 = bitcast i64* %22 to %"std::io::error::Custom"*, !dbg !1984
; invoke <std::io::error::repr_bitpacked::Repr as core::ops::drop::Drop>::drop::{{closure}}
  %_32 = invoke align 8 %"std::io::error::Custom"* @"_ZN78_$LT$std..io..error..repr_bitpacked..Repr$u20$as$u20$core..ops..drop..Drop$GT$4drop28_$u7b$$u7b$closure$u7d$$u7d$17h919d6555a94a7745E"(%"std::io::error::Custom"* %23)
          to label %bb7 unwind label %cleanup, !dbg !1984

bb7:                                              ; preds = %bb20
  %24 = bitcast %"std::io::error::ErrorData<alloc::boxed::Box<std::io::error::Custom>>"* %0 to %"std::io::error::ErrorData<alloc::boxed::Box<std::io::error::Custom>>::Custom"*, !dbg !1985
  %25 = getelementptr inbounds %"std::io::error::ErrorData<alloc::boxed::Box<std::io::error::Custom>>::Custom", %"std::io::error::ErrorData<alloc::boxed::Box<std::io::error::Custom>>::Custom"* %24, i32 0, i32 1, !dbg !1985
  store %"std::io::error::Custom"* %_32, %"std::io::error::Custom"** %25, align 8, !dbg !1985
  %26 = bitcast %"std::io::error::ErrorData<alloc::boxed::Box<std::io::error::Custom>>"* %0 to i8*, !dbg !1985
  store i8 3, i8* %26, align 8, !dbg !1985
  br label %bb8, !dbg !1986

bb8:                                              ; preds = %bb2, %bb19, %bb5, %bb7
  %27 = load i8, i8* %_37, align 1, !dbg !1973, !range !1099, !noundef !28
  %28 = trunc i8 %27 to i1, !dbg !1973
  br i1 %28, label %bb11, label %bb9, !dbg !1973

bb4:                                              ; preds = %bb3
  store i8 %7, i8* %self, align 1, !dbg !1876
  store i64* %bits, i64** %f, align 8, !dbg !1987
  %29 = load i8, i8* %self, align 1, !dbg !1875, !range !1919, !noundef !28
  %30 = sub i8 %29, 41, !dbg !1875
  %31 = icmp eq i8 %30, 0, !dbg !1875
  %_40 = select i1 %31, i64 0, i64 1, !dbg !1875
  switch i64 %_40, label %bb16 [
    i64 0, label %bb15
    i64 1, label %bb17
  ], !dbg !1875

bb16:                                             ; preds = %bb4
  unreachable, !dbg !1875

bb15:                                             ; preds = %bb4
  %_42 = load i64*, i64** %f, align 8, !dbg !1875, !nonnull !28, !align !1582, !noundef !28
; invoke std::io::error::repr_bitpacked::decode_repr::{{closure}}
  %32 = invoke i8 @"_ZN3std2io5error14repr_bitpacked11decode_repr28_$u7b$$u7b$closure$u7d$$u7d$17h9adb53631219a0cfE"(i64* align 8 %_42)
          to label %bb18 unwind label %cleanup, !dbg !1875, !range !1583

bb17:                                             ; preds = %bb4
  %x = load i8, i8* %self, align 1, !dbg !1875, !range !1583, !noundef !28
  store i8 %x, i8* %x.dbg.spill, align 1, !dbg !1875
  call void @llvm.dbg.declare(metadata i8* %x.dbg.spill, metadata !1870, metadata !DIExpression()), !dbg !1988
  store i8 %x, i8* %kind, align 1, !dbg !1988
  br label %bb19, !dbg !1875

bb19:                                             ; preds = %bb18, %bb17
  %_21 = load i8, i8* %kind, align 1, !dbg !1989, !range !1583, !noundef !28
  %33 = bitcast %"std::io::error::ErrorData<alloc::boxed::Box<std::io::error::Custom>>"* %0 to %"std::io::error::ErrorData<alloc::boxed::Box<std::io::error::Custom>>::Simple"*, !dbg !1990
  %34 = getelementptr inbounds %"std::io::error::ErrorData<alloc::boxed::Box<std::io::error::Custom>>::Simple", %"std::io::error::ErrorData<alloc::boxed::Box<std::io::error::Custom>>::Simple"* %33, i32 0, i32 1, !dbg !1990
  store i8 %_21, i8* %34, align 1, !dbg !1990
  %35 = bitcast %"std::io::error::ErrorData<alloc::boxed::Box<std::io::error::Custom>>"* %0 to i8*, !dbg !1990
  store i8 1, i8* %35, align 8, !dbg !1990
  br label %bb8, !dbg !1991

bb18:                                             ; preds = %bb15
  store i8 %32, i8* %kind, align 1, !dbg !1875
  br label %bb19, !dbg !1875

bb10:                                             ; preds = %bb12, %bb13
  %36 = bitcast { i8*, i32 }* %2 to i8**, !dbg !1992
  %37 = load i8*, i8** %36, align 8, !dbg !1992
  %38 = getelementptr inbounds { i8*, i32 }, { i8*, i32 }* %2, i32 0, i32 1, !dbg !1992
  %39 = load i32, i32* %38, align 8, !dbg !1992
  %40 = insertvalue { i8*, i32 } undef, i8* %37, 0, !dbg !1992
  %41 = insertvalue { i8*, i32 } %40, i32 %39, 1, !dbg !1992
  resume { i8*, i32 } %41, !dbg !1992

bb12:                                             ; preds = %bb13
  br label %bb10, !dbg !1973

bb9:                                              ; preds = %bb11, %bb8
  ret void, !dbg !1993

bb11:                                             ; preds = %bb8
  br label %bb9, !dbg !1973
}

; std::io::error::repr_bitpacked::decode_repr
; Function Attrs: inlinehint nonlazybind uwtable
define internal void @_ZN3std2io5error14repr_bitpacked11decode_repr17h800f2b6fa66d9a8bE(%"std::io::error::ErrorData<&std::io::error::Custom>"* sret(%"std::io::error::ErrorData<&std::io::error::Custom>") %0, i8* %ptr) unnamed_addr #0 personality i32 (i32, i32, i64, %"unwind::libunwind::_Unwind_Exception"*, %"unwind::libunwind::_Unwind_Context"*)* @rust_eh_personality !dbg !1994 {
start:
  %code.dbg.spill = alloca i32, align 4
  %x.dbg.spill = alloca i8, align 1
  %kind_bits.dbg.spill = alloca i32, align 4
  %ptr.dbg.spill12 = alloca %"std::io::error::SimpleMessage"*, align 8
  %self.dbg.spill10 = alloca i8*, align 8
  %self.dbg.spill9 = alloca i8*, align 8
  %custom.dbg.spill = alloca %"std::io::error::Custom"*, align 8
  %self.dbg.spill8 = alloca i8*, align 8
  %1 = alloca i8*, align 8
  %self.dbg.spill7 = alloca i8*, align 8
  %self.dbg.spill6 = alloca i8*, align 8
  %self.dbg.spill4 = alloca {}*, align 8
  %self.dbg.spill3 = alloca i8*, align 8
  %2 = alloca { i8*, i32 }, align 8
  %self.dbg.spill2 = alloca {}*, align 8
  %self.dbg.spill = alloca i8*, align 8
  %make_custom.dbg.spill = alloca %"[closure@std::io::error::repr_bitpacked::Repr::data::{closure#0}]", align 1
  %ptr.dbg.spill = alloca i8*, align 8
  %_37 = alloca i8, align 1
  %_34 = alloca i64*, align 8
  %self1 = alloca i64*, align 8
  %f = alloca i64*, align 8
  %self = alloca i8, align 1
  %kind = alloca i8, align 1
  %bits = alloca i64, align 8
  store i8* %ptr, i8** %ptr.dbg.spill, align 8
  call void @llvm.dbg.declare(metadata i8** %ptr.dbg.spill, metadata !2025, metadata !DIExpression()), !dbg !2039
  call void @llvm.dbg.declare(metadata %"[closure@std::io::error::repr_bitpacked::Repr::data::{closure#0}]"* %make_custom.dbg.spill, metadata !2026, metadata !DIExpression()), !dbg !2040
  call void @llvm.dbg.declare(metadata i64* %bits, metadata !2027, metadata !DIExpression()), !dbg !2041
  call void @llvm.dbg.declare(metadata i8* %kind, metadata !2033, metadata !DIExpression()), !dbg !2042
  call void @llvm.dbg.declare(metadata i8* %self, metadata !2043, metadata !DIExpression()), !dbg !2058
  call void @llvm.dbg.declare(metadata i64** %f, metadata !2052, metadata !DIExpression()), !dbg !2058
  call void @llvm.dbg.declare(metadata i64** %self1, metadata !2060, metadata !DIExpression()), !dbg !2064
  store i8 1, i8* %_37, align 1, !dbg !2066
  store i8* %ptr, i8** %self.dbg.spill, align 8, !dbg !2067
  call void @llvm.dbg.declare(metadata i8** %self.dbg.spill, metadata !2068, metadata !DIExpression()), !dbg !2072
  %_38 = bitcast i8* %ptr to {}*, !dbg !2072
  store {}* %_38, {}** %self.dbg.spill2, align 8, !dbg !2072
  call void @llvm.dbg.declare(metadata {}** %self.dbg.spill2, metadata !2073, metadata !DIExpression()), !dbg !2077
  %3 = bitcast i64* %bits to {}**, !dbg !2077
  store {}* %_38, {}** %3, align 8, !dbg !2077
  br label %bb14, !dbg !2077

bb14:                                             ; preds = %start
  %_7 = load i64, i64* %bits, align 8, !dbg !2078
  %_6 = and i64 %_7, 3, !dbg !2078
  switch i64 %_6, label %bb1 [
    i64 2, label %bb2
    i64 3, label %bb3
    i64 0, label %bb5
    i64 1, label %bb6
  ], !dbg !2079

bb1:                                              ; preds = %bb14
; invoke core::panicking::panic
  invoke void @_ZN4core9panicking5panic17hf5844c0338bd061cE([0 x i8]* align 1 bitcast (<{ [40 x i8] }>* @alloc629 to [0 x i8]*), i64 40, %"core::panic::location::Location"* align 8 bitcast (<{ i8*, [16 x i8] }>* @alloc628 to %"core::panic::location::Location"*)) #17
          to label %unreachable unwind label %cleanup, !dbg !2080

bb2:                                              ; preds = %bb14
  %_11 = load i64, i64* %bits, align 8, !dbg !2081
  %_9 = ashr i64 %_11, 32, !dbg !2082
  %code = trunc i64 %_9 to i32, !dbg !2082
  store i32 %code, i32* %code.dbg.spill, align 4, !dbg !2082
  call void @llvm.dbg.declare(metadata i32* %code.dbg.spill, metadata !2029, metadata !DIExpression()), !dbg !2083
  %4 = bitcast %"std::io::error::ErrorData<&std::io::error::Custom>"* %0 to %"std::io::error::ErrorData<&std::io::error::Custom>::Os"*, !dbg !2084
  %5 = getelementptr inbounds %"std::io::error::ErrorData<&std::io::error::Custom>::Os", %"std::io::error::ErrorData<&std::io::error::Custom>::Os"* %4, i32 0, i32 1, !dbg !2084
  store i32 %code, i32* %5, align 4, !dbg !2084
  %6 = bitcast %"std::io::error::ErrorData<&std::io::error::Custom>"* %0 to i8*, !dbg !2084
  store i8 0, i8* %6, align 8, !dbg !2084
  br label %bb8, !dbg !2085

bb3:                                              ; preds = %bb14
  %_15 = load i64, i64* %bits, align 8, !dbg !2086
  %_14 = lshr i64 %_15, 32, !dbg !2087
  %kind_bits = trunc i64 %_14 to i32, !dbg !2087
  store i32 %kind_bits, i32* %kind_bits.dbg.spill, align 4, !dbg !2087
  call void @llvm.dbg.declare(metadata i32* %kind_bits.dbg.spill, metadata !2031, metadata !DIExpression()), !dbg !2088
; invoke std::io::error::repr_bitpacked::kind_from_prim
  %7 = invoke i8 @_ZN3std2io5error14repr_bitpacked14kind_from_prim17h1dd369807d8c491bE(i32 %kind_bits)
          to label %bb4 unwind label %cleanup, !dbg !2059, !range !1919

bb5:                                              ; preds = %bb14
  store i8* %ptr, i8** %self.dbg.spill9, align 8, !dbg !2065
  call void @llvm.dbg.declare(metadata i8** %self.dbg.spill9, metadata !2089, metadata !DIExpression()), !dbg !2093
  store i8* %ptr, i8** %self.dbg.spill10, align 8, !dbg !2093
  call void @llvm.dbg.declare(metadata i8** %self.dbg.spill10, metadata !2094, metadata !DIExpression()), !dbg !2098
  %_47 = bitcast i8* %ptr to {}*, !dbg !2098
  %ptr11 = bitcast {}* %_47 to %"std::io::error::SimpleMessage"*, !dbg !2093
  store %"std::io::error::SimpleMessage"* %ptr11, %"std::io::error::SimpleMessage"** %ptr.dbg.spill12, align 8, !dbg !2093
  call void @llvm.dbg.declare(metadata %"std::io::error::SimpleMessage"** %ptr.dbg.spill12, metadata !2100, metadata !DIExpression()), !dbg !2104
  %8 = bitcast i64** %self1 to %"std::io::error::SimpleMessage"**, !dbg !2104
  store %"std::io::error::SimpleMessage"* %ptr11, %"std::io::error::SimpleMessage"** %8, align 8, !dbg !2104
  %9 = bitcast i64** %self1 to %"std::io::error::SimpleMessage"**, !dbg !2064
  %_51 = load %"std::io::error::SimpleMessage"*, %"std::io::error::SimpleMessage"** %9, align 8, !dbg !2064
  %10 = bitcast %"std::io::error::ErrorData<&std::io::error::Custom>"* %0 to %"std::io::error::ErrorData<&std::io::error::Custom>::SimpleMessage"*, !dbg !2106
  %11 = getelementptr inbounds %"std::io::error::ErrorData<&std::io::error::Custom>::SimpleMessage", %"std::io::error::ErrorData<&std::io::error::Custom>::SimpleMessage"* %10, i32 0, i32 1, !dbg !2106
  store %"std::io::error::SimpleMessage"* %_51, %"std::io::error::SimpleMessage"** %11, align 8, !dbg !2106
  %12 = bitcast %"std::io::error::ErrorData<&std::io::error::Custom>"* %0 to i8*, !dbg !2106
  store i8 2, i8* %12, align 8, !dbg !2106
  br label %bb8, !dbg !2107

bb6:                                              ; preds = %bb14
  store i8* %ptr, i8** %self.dbg.spill3, align 8, !dbg !2108
  call void @llvm.dbg.declare(metadata i8** %self.dbg.spill3, metadata !2109, metadata !DIExpression()), !dbg !2113
  %_52 = bitcast i8* %ptr to {}*, !dbg !2113
  store {}* %_52, {}** %self.dbg.spill4, align 8, !dbg !2113
  call void @llvm.dbg.declare(metadata {}** %self.dbg.spill4, metadata !2114, metadata !DIExpression()), !dbg !2118
  %self5 = bitcast {}* %_52 to i8*, !dbg !2118
  store i8* %self5, i8** %self.dbg.spill6, align 8, !dbg !2118
  call void @llvm.dbg.declare(metadata i8** %self.dbg.spill6, metadata !2119, metadata !DIExpression()), !dbg !2124
  store i8* %self5, i8** %self.dbg.spill7, align 8, !dbg !2124
  call void @llvm.dbg.declare(metadata i8** %self.dbg.spill7, metadata !2125, metadata !DIExpression()), !dbg !2130
  %13 = getelementptr i8, i8* %self5, i64 -1, !dbg !2130
  store i8* %13, i8** %1, align 8, !dbg !2130
  %_60 = load i8*, i8** %1, align 8, !dbg !2130
  br label %bb20, !dbg !2130

bb13:                                             ; preds = %cleanup
  %14 = load i8, i8* %_37, align 1, !dbg !2132, !range !1099, !noundef !28
  %15 = trunc i8 %14 to i1, !dbg !2132
  br i1 %15, label %bb12, label %bb10, !dbg !2132

cleanup:                                          ; preds = %bb15, %bb3, %bb20, %bb1
  %16 = landingpad { i8*, i32 }
          cleanup
  %17 = extractvalue { i8*, i32 } %16, 0
  %18 = extractvalue { i8*, i32 } %16, 1
  %19 = getelementptr inbounds { i8*, i32 }, { i8*, i32 }* %2, i32 0, i32 0
  store i8* %17, i8** %19, align 8
  %20 = getelementptr inbounds { i8*, i32 }, { i8*, i32 }* %2, i32 0, i32 1
  store i32 %18, i32* %20, align 8
  br label %bb13

unreachable:                                      ; preds = %bb1
  unreachable

bb20:                                             ; preds = %bb6
  store i8* %_60, i8** %self.dbg.spill8, align 8, !dbg !2130
  call void @llvm.dbg.declare(metadata i8** %self.dbg.spill8, metadata !2133, metadata !DIExpression()), !dbg !2137
  %custom = bitcast i8* %_60 to %"std::io::error::Custom"*, !dbg !2137
  store %"std::io::error::Custom"* %custom, %"std::io::error::Custom"** %custom.dbg.spill, align 8, !dbg !2137
  call void @llvm.dbg.declare(metadata %"std::io::error::Custom"** %custom.dbg.spill, metadata !2035, metadata !DIExpression()), !dbg !2138
  store i8 0, i8* %_37, align 1, !dbg !2139
  %21 = bitcast i64** %_34 to %"std::io::error::Custom"**, !dbg !2139
  store %"std::io::error::Custom"* %custom, %"std::io::error::Custom"** %21, align 8, !dbg !2139
  %22 = load i64*, i64** %_34, align 8, !dbg !2139
  %23 = bitcast i64* %22 to %"std::io::error::Custom"*, !dbg !2139
; invoke std::io::error::repr_bitpacked::Repr::data::{{closure}}
  %_32 = invoke align 8 %"std::io::error::Custom"* @"_ZN3std2io5error14repr_bitpacked4Repr4data28_$u7b$$u7b$closure$u7d$$u7d$17h84939d74855cabc5E"(%"std::io::error::Custom"* %23)
          to label %bb7 unwind label %cleanup, !dbg !2139

bb7:                                              ; preds = %bb20
  %24 = bitcast %"std::io::error::ErrorData<&std::io::error::Custom>"* %0 to %"std::io::error::ErrorData<&std::io::error::Custom>::Custom"*, !dbg !2140
  %25 = getelementptr inbounds %"std::io::error::ErrorData<&std::io::error::Custom>::Custom", %"std::io::error::ErrorData<&std::io::error::Custom>::Custom"* %24, i32 0, i32 1, !dbg !2140
  store %"std::io::error::Custom"* %_32, %"std::io::error::Custom"** %25, align 8, !dbg !2140
  %26 = bitcast %"std::io::error::ErrorData<&std::io::error::Custom>"* %0 to i8*, !dbg !2140
  store i8 3, i8* %26, align 8, !dbg !2140
  br label %bb8, !dbg !2141

bb8:                                              ; preds = %bb2, %bb19, %bb5, %bb7
  %27 = load i8, i8* %_37, align 1, !dbg !2132, !range !1099, !noundef !28
  %28 = trunc i8 %27 to i1, !dbg !2132
  br i1 %28, label %bb11, label %bb9, !dbg !2132

bb4:                                              ; preds = %bb3
  store i8 %7, i8* %self, align 1, !dbg !2059
  store i64* %bits, i64** %f, align 8, !dbg !2142
  %29 = load i8, i8* %self, align 1, !dbg !2058, !range !1919, !noundef !28
  %30 = sub i8 %29, 41, !dbg !2058
  %31 = icmp eq i8 %30, 0, !dbg !2058
  %_40 = select i1 %31, i64 0, i64 1, !dbg !2058
  switch i64 %_40, label %bb16 [
    i64 0, label %bb15
    i64 1, label %bb17
  ], !dbg !2058

bb16:                                             ; preds = %bb4
  unreachable, !dbg !2058

bb15:                                             ; preds = %bb4
  %_42 = load i64*, i64** %f, align 8, !dbg !2058, !nonnull !28, !align !1582, !noundef !28
; invoke std::io::error::repr_bitpacked::decode_repr::{{closure}}
  %32 = invoke i8 @"_ZN3std2io5error14repr_bitpacked11decode_repr28_$u7b$$u7b$closure$u7d$$u7d$17h4f972a53dd29fa66E"(i64* align 8 %_42)
          to label %bb18 unwind label %cleanup, !dbg !2058, !range !1583

bb17:                                             ; preds = %bb4
  %x = load i8, i8* %self, align 1, !dbg !2058, !range !1583, !noundef !28
  store i8 %x, i8* %x.dbg.spill, align 1, !dbg !2058
  call void @llvm.dbg.declare(metadata i8* %x.dbg.spill, metadata !2053, metadata !DIExpression()), !dbg !2143
  store i8 %x, i8* %kind, align 1, !dbg !2143
  br label %bb19, !dbg !2058

bb19:                                             ; preds = %bb18, %bb17
  %_21 = load i8, i8* %kind, align 1, !dbg !2144, !range !1583, !noundef !28
  %33 = bitcast %"std::io::error::ErrorData<&std::io::error::Custom>"* %0 to %"std::io::error::ErrorData<&std::io::error::Custom>::Simple"*, !dbg !2145
  %34 = getelementptr inbounds %"std::io::error::ErrorData<&std::io::error::Custom>::Simple", %"std::io::error::ErrorData<&std::io::error::Custom>::Simple"* %33, i32 0, i32 1, !dbg !2145
  store i8 %_21, i8* %34, align 1, !dbg !2145
  %35 = bitcast %"std::io::error::ErrorData<&std::io::error::Custom>"* %0 to i8*, !dbg !2145
  store i8 1, i8* %35, align 8, !dbg !2145
  br label %bb8, !dbg !2146

bb18:                                             ; preds = %bb15
  store i8 %32, i8* %kind, align 1, !dbg !2058
  br label %bb19, !dbg !2058

bb10:                                             ; preds = %bb12, %bb13
  %36 = bitcast { i8*, i32 }* %2 to i8**, !dbg !2147
  %37 = load i8*, i8** %36, align 8, !dbg !2147
  %38 = getelementptr inbounds { i8*, i32 }, { i8*, i32 }* %2, i32 0, i32 1, !dbg !2147
  %39 = load i32, i32* %38, align 8, !dbg !2147
  %40 = insertvalue { i8*, i32 } undef, i8* %37, 0, !dbg !2147
  %41 = insertvalue { i8*, i32 } %40, i32 %39, 1, !dbg !2147
  resume { i8*, i32 } %41, !dbg !2147

bb12:                                             ; preds = %bb13
  br label %bb10, !dbg !2132

bb9:                                              ; preds = %bb11, %bb8
  ret void, !dbg !2148

bb11:                                             ; preds = %bb8
  br label %bb9, !dbg !2132
}

; std::io::error::repr_bitpacked::decode_repr::{{closure}}
; Function Attrs: inlinehint nonlazybind uwtable
define internal i8 @"_ZN3std2io5error14repr_bitpacked11decode_repr28_$u7b$$u7b$closure$u7d$$u7d$17h4f972a53dd29fa66E"(i64* align 8 %_1) unnamed_addr #0 !dbg !2149 {
start:
  %_unsafe_arg.dbg.spill = alloca %"core::fmt::UnsafeArg", align 1
  %_1.dbg.spill = alloca i64*, align 8
  store i64* %_1, i64** %_1.dbg.spill, align 8
  %0 = load i64*, i64** %_1.dbg.spill, align 8, !nonnull !28, !align !1582, !noundef !28
  call void @llvm.dbg.declare(metadata i64** %_1.dbg.spill, metadata !2153, metadata !DIExpression(DW_OP_deref)), !dbg !2154
  call void @llvm.dbg.declare(metadata %"core::fmt::UnsafeArg"* %_unsafe_arg.dbg.spill, metadata !2155, metadata !DIExpression()), !dbg !2168
  unreachable, !dbg !2172
}

; std::io::error::repr_bitpacked::decode_repr::{{closure}}
; Function Attrs: inlinehint nonlazybind uwtable
define internal i8 @"_ZN3std2io5error14repr_bitpacked11decode_repr28_$u7b$$u7b$closure$u7d$$u7d$17h9adb53631219a0cfE"(i64* align 8 %_1) unnamed_addr #0 !dbg !2176 {
start:
  %_unsafe_arg.dbg.spill = alloca %"core::fmt::UnsafeArg", align 1
  %_1.dbg.spill = alloca i64*, align 8
  store i64* %_1, i64** %_1.dbg.spill, align 8
  %0 = load i64*, i64** %_1.dbg.spill, align 8, !nonnull !28, !align !1582, !noundef !28
  call void @llvm.dbg.declare(metadata i64** %_1.dbg.spill, metadata !2180, metadata !DIExpression(DW_OP_deref)), !dbg !2181
  call void @llvm.dbg.declare(metadata %"core::fmt::UnsafeArg"* %_unsafe_arg.dbg.spill, metadata !2182, metadata !DIExpression()), !dbg !2189
  unreachable, !dbg !2192
}

; std::io::error::repr_bitpacked::kind_from_prim
; Function Attrs: inlinehint nonlazybind uwtable
define internal i8 @_ZN3std2io5error14repr_bitpacked14kind_from_prim17h1dd369807d8c491bE(i32 %0) unnamed_addr #0 !dbg !2196 {
start:
  %v.dbg.spill40 = alloca i32*, align 8
  %v.dbg.spill39 = alloca i32*, align 8
  %v.dbg.spill38 = alloca i32*, align 8
  %v.dbg.spill37 = alloca i32*, align 8
  %v.dbg.spill36 = alloca i32*, align 8
  %v.dbg.spill35 = alloca i32*, align 8
  %v.dbg.spill34 = alloca i32*, align 8
  %v.dbg.spill33 = alloca i32*, align 8
  %v.dbg.spill32 = alloca i32*, align 8
  %v.dbg.spill31 = alloca i32*, align 8
  %v.dbg.spill30 = alloca i32*, align 8
  %v.dbg.spill29 = alloca i32*, align 8
  %v.dbg.spill28 = alloca i32*, align 8
  %v.dbg.spill27 = alloca i32*, align 8
  %v.dbg.spill26 = alloca i32*, align 8
  %v.dbg.spill25 = alloca i32*, align 8
  %v.dbg.spill24 = alloca i32*, align 8
  %v.dbg.spill23 = alloca i32*, align 8
  %v.dbg.spill22 = alloca i32*, align 8
  %v.dbg.spill21 = alloca i32*, align 8
  %v.dbg.spill20 = alloca i32*, align 8
  %v.dbg.spill19 = alloca i32*, align 8
  %v.dbg.spill18 = alloca i32*, align 8
  %v.dbg.spill17 = alloca i32*, align 8
  %v.dbg.spill16 = alloca i32*, align 8
  %v.dbg.spill15 = alloca i32*, align 8
  %v.dbg.spill14 = alloca i32*, align 8
  %v.dbg.spill13 = alloca i32*, align 8
  %v.dbg.spill12 = alloca i32*, align 8
  %v.dbg.spill11 = alloca i32*, align 8
  %v.dbg.spill10 = alloca i32*, align 8
  %v.dbg.spill9 = alloca i32*, align 8
  %v.dbg.spill8 = alloca i32*, align 8
  %v.dbg.spill7 = alloca i32*, align 8
  %v.dbg.spill6 = alloca i32*, align 8
  %v.dbg.spill5 = alloca i32*, align 8
  %v.dbg.spill4 = alloca i32*, align 8
  %v.dbg.spill3 = alloca i32*, align 8
  %v.dbg.spill2 = alloca i32*, align 8
  %v.dbg.spill1 = alloca i32*, align 8
  %v.dbg.spill = alloca i32*, align 8
  %1 = alloca i8, align 1
  %ek = alloca i32, align 4
  store i32 %0, i32* %ek, align 4
  call void @llvm.dbg.declare(metadata i32* %ek, metadata !2200, metadata !DIExpression()), !dbg !2324
  store i32* %ek, i32** %v.dbg.spill, align 8, !dbg !2325
  call void @llvm.dbg.declare(metadata i32** %v.dbg.spill, metadata !2203, metadata !DIExpression()), !dbg !2326
  %_5 = load i32, i32* %ek, align 4, !dbg !2325
  %_4 = icmp eq i32 %_5, 0, !dbg !2325
  br i1 %_4, label %bb1, label %bb2, !dbg !2325

bb2:                                              ; preds = %start
  store i32* %ek, i32** %v.dbg.spill1, align 8, !dbg !2325
  call void @llvm.dbg.declare(metadata i32** %v.dbg.spill1, metadata !2206, metadata !DIExpression()), !dbg !2327
  %_10 = load i32, i32* %ek, align 4, !dbg !2325
  %_9 = icmp eq i32 %_10, 1, !dbg !2325
  br i1 %_9, label %bb3, label %bb4, !dbg !2325

bb1:                                              ; preds = %start
  store i8 0, i8* %1, align 1, !dbg !2326
  br label %bb83, !dbg !2325

bb83:                                             ; preds = %bb82, %bb81, %bb79, %bb77, %bb75, %bb73, %bb71, %bb69, %bb67, %bb65, %bb63, %bb61, %bb59, %bb57, %bb55, %bb53, %bb51, %bb49, %bb47, %bb45, %bb43, %bb41, %bb39, %bb37, %bb35, %bb33, %bb31, %bb29, %bb27, %bb25, %bb23, %bb21, %bb19, %bb17, %bb15, %bb13, %bb11, %bb9, %bb7, %bb5, %bb3, %bb1
  %2 = load i8, i8* %1, align 1, !dbg !2328, !range !1919, !noundef !28
  ret i8 %2, !dbg !2328

bb4:                                              ; preds = %bb2
  store i32* %ek, i32** %v.dbg.spill2, align 8, !dbg !2325
  call void @llvm.dbg.declare(metadata i32** %v.dbg.spill2, metadata !2209, metadata !DIExpression()), !dbg !2329
  %_15 = load i32, i32* %ek, align 4, !dbg !2325
  %_14 = icmp eq i32 %_15, 2, !dbg !2325
  br i1 %_14, label %bb5, label %bb6, !dbg !2325

bb3:                                              ; preds = %bb2
  store i8 1, i8* %1, align 1, !dbg !2327
  br label %bb83, !dbg !2325

bb6:                                              ; preds = %bb4
  store i32* %ek, i32** %v.dbg.spill3, align 8, !dbg !2325
  call void @llvm.dbg.declare(metadata i32** %v.dbg.spill3, metadata !2212, metadata !DIExpression()), !dbg !2330
  %_20 = load i32, i32* %ek, align 4, !dbg !2325
  %_19 = icmp eq i32 %_20, 3, !dbg !2325
  br i1 %_19, label %bb7, label %bb8, !dbg !2325

bb5:                                              ; preds = %bb4
  store i8 2, i8* %1, align 1, !dbg !2329
  br label %bb83, !dbg !2325

bb8:                                              ; preds = %bb6
  store i32* %ek, i32** %v.dbg.spill4, align 8, !dbg !2325
  call void @llvm.dbg.declare(metadata i32** %v.dbg.spill4, metadata !2215, metadata !DIExpression()), !dbg !2331
  %_25 = load i32, i32* %ek, align 4, !dbg !2325
  %_24 = icmp eq i32 %_25, 4, !dbg !2325
  br i1 %_24, label %bb9, label %bb10, !dbg !2325

bb7:                                              ; preds = %bb6
  store i8 3, i8* %1, align 1, !dbg !2330
  br label %bb83, !dbg !2325

bb10:                                             ; preds = %bb8
  store i32* %ek, i32** %v.dbg.spill5, align 8, !dbg !2325
  call void @llvm.dbg.declare(metadata i32** %v.dbg.spill5, metadata !2218, metadata !DIExpression()), !dbg !2332
  %_30 = load i32, i32* %ek, align 4, !dbg !2325
  %_29 = icmp eq i32 %_30, 5, !dbg !2325
  br i1 %_29, label %bb11, label %bb12, !dbg !2325

bb9:                                              ; preds = %bb8
  store i8 4, i8* %1, align 1, !dbg !2331
  br label %bb83, !dbg !2325

bb12:                                             ; preds = %bb10
  store i32* %ek, i32** %v.dbg.spill6, align 8, !dbg !2325
  call void @llvm.dbg.declare(metadata i32** %v.dbg.spill6, metadata !2221, metadata !DIExpression()), !dbg !2333
  %_35 = load i32, i32* %ek, align 4, !dbg !2325
  %_34 = icmp eq i32 %_35, 6, !dbg !2325
  br i1 %_34, label %bb13, label %bb14, !dbg !2325

bb11:                                             ; preds = %bb10
  store i8 5, i8* %1, align 1, !dbg !2332
  br label %bb83, !dbg !2325

bb14:                                             ; preds = %bb12
  store i32* %ek, i32** %v.dbg.spill7, align 8, !dbg !2325
  call void @llvm.dbg.declare(metadata i32** %v.dbg.spill7, metadata !2224, metadata !DIExpression()), !dbg !2334
  %_40 = load i32, i32* %ek, align 4, !dbg !2325
  %_39 = icmp eq i32 %_40, 7, !dbg !2325
  br i1 %_39, label %bb15, label %bb16, !dbg !2325

bb13:                                             ; preds = %bb12
  store i8 6, i8* %1, align 1, !dbg !2333
  br label %bb83, !dbg !2325

bb16:                                             ; preds = %bb14
  store i32* %ek, i32** %v.dbg.spill8, align 8, !dbg !2325
  call void @llvm.dbg.declare(metadata i32** %v.dbg.spill8, metadata !2227, metadata !DIExpression()), !dbg !2335
  %_45 = load i32, i32* %ek, align 4, !dbg !2325
  %_44 = icmp eq i32 %_45, 8, !dbg !2325
  br i1 %_44, label %bb17, label %bb18, !dbg !2325

bb15:                                             ; preds = %bb14
  store i8 7, i8* %1, align 1, !dbg !2334
  br label %bb83, !dbg !2325

bb18:                                             ; preds = %bb16
  store i32* %ek, i32** %v.dbg.spill9, align 8, !dbg !2325
  call void @llvm.dbg.declare(metadata i32** %v.dbg.spill9, metadata !2230, metadata !DIExpression()), !dbg !2336
  %_50 = load i32, i32* %ek, align 4, !dbg !2325
  %_49 = icmp eq i32 %_50, 9, !dbg !2325
  br i1 %_49, label %bb19, label %bb20, !dbg !2325

bb17:                                             ; preds = %bb16
  store i8 8, i8* %1, align 1, !dbg !2335
  br label %bb83, !dbg !2325

bb20:                                             ; preds = %bb18
  store i32* %ek, i32** %v.dbg.spill10, align 8, !dbg !2325
  call void @llvm.dbg.declare(metadata i32** %v.dbg.spill10, metadata !2233, metadata !DIExpression()), !dbg !2337
  %_55 = load i32, i32* %ek, align 4, !dbg !2325
  %_54 = icmp eq i32 %_55, 10, !dbg !2325
  br i1 %_54, label %bb21, label %bb22, !dbg !2325

bb19:                                             ; preds = %bb18
  store i8 9, i8* %1, align 1, !dbg !2336
  br label %bb83, !dbg !2325

bb22:                                             ; preds = %bb20
  store i32* %ek, i32** %v.dbg.spill11, align 8, !dbg !2325
  call void @llvm.dbg.declare(metadata i32** %v.dbg.spill11, metadata !2236, metadata !DIExpression()), !dbg !2338
  %_60 = load i32, i32* %ek, align 4, !dbg !2325
  %_59 = icmp eq i32 %_60, 11, !dbg !2325
  br i1 %_59, label %bb23, label %bb24, !dbg !2325

bb21:                                             ; preds = %bb20
  store i8 10, i8* %1, align 1, !dbg !2337
  br label %bb83, !dbg !2325

bb24:                                             ; preds = %bb22
  store i32* %ek, i32** %v.dbg.spill12, align 8, !dbg !2325
  call void @llvm.dbg.declare(metadata i32** %v.dbg.spill12, metadata !2239, metadata !DIExpression()), !dbg !2339
  %_65 = load i32, i32* %ek, align 4, !dbg !2325
  %_64 = icmp eq i32 %_65, 12, !dbg !2325
  br i1 %_64, label %bb25, label %bb26, !dbg !2325

bb23:                                             ; preds = %bb22
  store i8 11, i8* %1, align 1, !dbg !2338
  br label %bb83, !dbg !2325

bb26:                                             ; preds = %bb24
  store i32* %ek, i32** %v.dbg.spill13, align 8, !dbg !2325
  call void @llvm.dbg.declare(metadata i32** %v.dbg.spill13, metadata !2242, metadata !DIExpression()), !dbg !2340
  %_70 = load i32, i32* %ek, align 4, !dbg !2325
  %_69 = icmp eq i32 %_70, 13, !dbg !2325
  br i1 %_69, label %bb27, label %bb28, !dbg !2325

bb25:                                             ; preds = %bb24
  store i8 12, i8* %1, align 1, !dbg !2339
  br label %bb83, !dbg !2325

bb28:                                             ; preds = %bb26
  store i32* %ek, i32** %v.dbg.spill14, align 8, !dbg !2325
  call void @llvm.dbg.declare(metadata i32** %v.dbg.spill14, metadata !2245, metadata !DIExpression()), !dbg !2341
  %_75 = load i32, i32* %ek, align 4, !dbg !2325
  %_74 = icmp eq i32 %_75, 14, !dbg !2325
  br i1 %_74, label %bb29, label %bb30, !dbg !2325

bb27:                                             ; preds = %bb26
  store i8 13, i8* %1, align 1, !dbg !2340
  br label %bb83, !dbg !2325

bb30:                                             ; preds = %bb28
  store i32* %ek, i32** %v.dbg.spill15, align 8, !dbg !2325
  call void @llvm.dbg.declare(metadata i32** %v.dbg.spill15, metadata !2248, metadata !DIExpression()), !dbg !2342
  %_80 = load i32, i32* %ek, align 4, !dbg !2325
  %_79 = icmp eq i32 %_80, 15, !dbg !2325
  br i1 %_79, label %bb31, label %bb32, !dbg !2325

bb29:                                             ; preds = %bb28
  store i8 14, i8* %1, align 1, !dbg !2341
  br label %bb83, !dbg !2325

bb32:                                             ; preds = %bb30
  store i32* %ek, i32** %v.dbg.spill16, align 8, !dbg !2325
  call void @llvm.dbg.declare(metadata i32** %v.dbg.spill16, metadata !2251, metadata !DIExpression()), !dbg !2343
  %_85 = load i32, i32* %ek, align 4, !dbg !2325
  %_84 = icmp eq i32 %_85, 16, !dbg !2325
  br i1 %_84, label %bb33, label %bb34, !dbg !2325

bb31:                                             ; preds = %bb30
  store i8 15, i8* %1, align 1, !dbg !2342
  br label %bb83, !dbg !2325

bb34:                                             ; preds = %bb32
  store i32* %ek, i32** %v.dbg.spill17, align 8, !dbg !2325
  call void @llvm.dbg.declare(metadata i32** %v.dbg.spill17, metadata !2254, metadata !DIExpression()), !dbg !2344
  %_90 = load i32, i32* %ek, align 4, !dbg !2325
  %_89 = icmp eq i32 %_90, 17, !dbg !2325
  br i1 %_89, label %bb35, label %bb36, !dbg !2325

bb33:                                             ; preds = %bb32
  store i8 16, i8* %1, align 1, !dbg !2343
  br label %bb83, !dbg !2325

bb36:                                             ; preds = %bb34
  store i32* %ek, i32** %v.dbg.spill18, align 8, !dbg !2325
  call void @llvm.dbg.declare(metadata i32** %v.dbg.spill18, metadata !2257, metadata !DIExpression()), !dbg !2345
  %_95 = load i32, i32* %ek, align 4, !dbg !2325
  %_94 = icmp eq i32 %_95, 18, !dbg !2325
  br i1 %_94, label %bb37, label %bb38, !dbg !2325

bb35:                                             ; preds = %bb34
  store i8 17, i8* %1, align 1, !dbg !2344
  br label %bb83, !dbg !2325

bb38:                                             ; preds = %bb36
  store i32* %ek, i32** %v.dbg.spill19, align 8, !dbg !2325
  call void @llvm.dbg.declare(metadata i32** %v.dbg.spill19, metadata !2260, metadata !DIExpression()), !dbg !2346
  %_100 = load i32, i32* %ek, align 4, !dbg !2325
  %_99 = icmp eq i32 %_100, 19, !dbg !2325
  br i1 %_99, label %bb39, label %bb40, !dbg !2325

bb37:                                             ; preds = %bb36
  store i8 18, i8* %1, align 1, !dbg !2345
  br label %bb83, !dbg !2325

bb40:                                             ; preds = %bb38
  store i32* %ek, i32** %v.dbg.spill20, align 8, !dbg !2325
  call void @llvm.dbg.declare(metadata i32** %v.dbg.spill20, metadata !2263, metadata !DIExpression()), !dbg !2347
  %_105 = load i32, i32* %ek, align 4, !dbg !2325
  %_104 = icmp eq i32 %_105, 20, !dbg !2325
  br i1 %_104, label %bb41, label %bb42, !dbg !2325

bb39:                                             ; preds = %bb38
  store i8 19, i8* %1, align 1, !dbg !2346
  br label %bb83, !dbg !2325

bb42:                                             ; preds = %bb40
  store i32* %ek, i32** %v.dbg.spill21, align 8, !dbg !2325
  call void @llvm.dbg.declare(metadata i32** %v.dbg.spill21, metadata !2266, metadata !DIExpression()), !dbg !2348
  %_110 = load i32, i32* %ek, align 4, !dbg !2325
  %_109 = icmp eq i32 %_110, 21, !dbg !2325
  br i1 %_109, label %bb43, label %bb44, !dbg !2325

bb41:                                             ; preds = %bb40
  store i8 20, i8* %1, align 1, !dbg !2347
  br label %bb83, !dbg !2325

bb44:                                             ; preds = %bb42
  store i32* %ek, i32** %v.dbg.spill22, align 8, !dbg !2325
  call void @llvm.dbg.declare(metadata i32** %v.dbg.spill22, metadata !2269, metadata !DIExpression()), !dbg !2349
  %_115 = load i32, i32* %ek, align 4, !dbg !2325
  %_114 = icmp eq i32 %_115, 22, !dbg !2325
  br i1 %_114, label %bb45, label %bb46, !dbg !2325

bb43:                                             ; preds = %bb42
  store i8 21, i8* %1, align 1, !dbg !2348
  br label %bb83, !dbg !2325

bb46:                                             ; preds = %bb44
  store i32* %ek, i32** %v.dbg.spill23, align 8, !dbg !2325
  call void @llvm.dbg.declare(metadata i32** %v.dbg.spill23, metadata !2272, metadata !DIExpression()), !dbg !2350
  %_120 = load i32, i32* %ek, align 4, !dbg !2325
  %_119 = icmp eq i32 %_120, 23, !dbg !2325
  br i1 %_119, label %bb47, label %bb48, !dbg !2325

bb45:                                             ; preds = %bb44
  store i8 22, i8* %1, align 1, !dbg !2349
  br label %bb83, !dbg !2325

bb48:                                             ; preds = %bb46
  store i32* %ek, i32** %v.dbg.spill24, align 8, !dbg !2325
  call void @llvm.dbg.declare(metadata i32** %v.dbg.spill24, metadata !2275, metadata !DIExpression()), !dbg !2351
  %_125 = load i32, i32* %ek, align 4, !dbg !2325
  %_124 = icmp eq i32 %_125, 24, !dbg !2325
  br i1 %_124, label %bb49, label %bb50, !dbg !2325

bb47:                                             ; preds = %bb46
  store i8 23, i8* %1, align 1, !dbg !2350
  br label %bb83, !dbg !2325

bb50:                                             ; preds = %bb48
  store i32* %ek, i32** %v.dbg.spill25, align 8, !dbg !2325
  call void @llvm.dbg.declare(metadata i32** %v.dbg.spill25, metadata !2278, metadata !DIExpression()), !dbg !2352
  %_130 = load i32, i32* %ek, align 4, !dbg !2325
  %_129 = icmp eq i32 %_130, 25, !dbg !2325
  br i1 %_129, label %bb51, label %bb52, !dbg !2325

bb49:                                             ; preds = %bb48
  store i8 24, i8* %1, align 1, !dbg !2351
  br label %bb83, !dbg !2325

bb52:                                             ; preds = %bb50
  store i32* %ek, i32** %v.dbg.spill26, align 8, !dbg !2325
  call void @llvm.dbg.declare(metadata i32** %v.dbg.spill26, metadata !2281, metadata !DIExpression()), !dbg !2353
  %_135 = load i32, i32* %ek, align 4, !dbg !2325
  %_134 = icmp eq i32 %_135, 26, !dbg !2325
  br i1 %_134, label %bb53, label %bb54, !dbg !2325

bb51:                                             ; preds = %bb50
  store i8 25, i8* %1, align 1, !dbg !2352
  br label %bb83, !dbg !2325

bb54:                                             ; preds = %bb52
  store i32* %ek, i32** %v.dbg.spill27, align 8, !dbg !2325
  call void @llvm.dbg.declare(metadata i32** %v.dbg.spill27, metadata !2284, metadata !DIExpression()), !dbg !2354
  %_140 = load i32, i32* %ek, align 4, !dbg !2325
  %_139 = icmp eq i32 %_140, 27, !dbg !2325
  br i1 %_139, label %bb55, label %bb56, !dbg !2325

bb53:                                             ; preds = %bb52
  store i8 26, i8* %1, align 1, !dbg !2353
  br label %bb83, !dbg !2325

bb56:                                             ; preds = %bb54
  store i32* %ek, i32** %v.dbg.spill28, align 8, !dbg !2325
  call void @llvm.dbg.declare(metadata i32** %v.dbg.spill28, metadata !2287, metadata !DIExpression()), !dbg !2355
  %_145 = load i32, i32* %ek, align 4, !dbg !2325
  %_144 = icmp eq i32 %_145, 28, !dbg !2325
  br i1 %_144, label %bb57, label %bb58, !dbg !2325

bb55:                                             ; preds = %bb54
  store i8 27, i8* %1, align 1, !dbg !2354
  br label %bb83, !dbg !2325

bb58:                                             ; preds = %bb56
  store i32* %ek, i32** %v.dbg.spill29, align 8, !dbg !2325
  call void @llvm.dbg.declare(metadata i32** %v.dbg.spill29, metadata !2290, metadata !DIExpression()), !dbg !2356
  %_150 = load i32, i32* %ek, align 4, !dbg !2325
  %_149 = icmp eq i32 %_150, 29, !dbg !2325
  br i1 %_149, label %bb59, label %bb60, !dbg !2325

bb57:                                             ; preds = %bb56
  store i8 28, i8* %1, align 1, !dbg !2355
  br label %bb83, !dbg !2325

bb60:                                             ; preds = %bb58
  store i32* %ek, i32** %v.dbg.spill30, align 8, !dbg !2325
  call void @llvm.dbg.declare(metadata i32** %v.dbg.spill30, metadata !2293, metadata !DIExpression()), !dbg !2357
  %_155 = load i32, i32* %ek, align 4, !dbg !2325
  %_154 = icmp eq i32 %_155, 30, !dbg !2325
  br i1 %_154, label %bb61, label %bb62, !dbg !2325

bb59:                                             ; preds = %bb58
  store i8 29, i8* %1, align 1, !dbg !2356
  br label %bb83, !dbg !2325

bb62:                                             ; preds = %bb60
  store i32* %ek, i32** %v.dbg.spill31, align 8, !dbg !2325
  call void @llvm.dbg.declare(metadata i32** %v.dbg.spill31, metadata !2296, metadata !DIExpression()), !dbg !2358
  %_160 = load i32, i32* %ek, align 4, !dbg !2325
  %_159 = icmp eq i32 %_160, 31, !dbg !2325
  br i1 %_159, label %bb63, label %bb64, !dbg !2325

bb61:                                             ; preds = %bb60
  store i8 30, i8* %1, align 1, !dbg !2357
  br label %bb83, !dbg !2325

bb64:                                             ; preds = %bb62
  store i32* %ek, i32** %v.dbg.spill32, align 8, !dbg !2325
  call void @llvm.dbg.declare(metadata i32** %v.dbg.spill32, metadata !2299, metadata !DIExpression()), !dbg !2359
  %_165 = load i32, i32* %ek, align 4, !dbg !2325
  %_164 = icmp eq i32 %_165, 32, !dbg !2325
  br i1 %_164, label %bb65, label %bb66, !dbg !2325

bb63:                                             ; preds = %bb62
  store i8 31, i8* %1, align 1, !dbg !2358
  br label %bb83, !dbg !2325

bb66:                                             ; preds = %bb64
  store i32* %ek, i32** %v.dbg.spill33, align 8, !dbg !2325
  call void @llvm.dbg.declare(metadata i32** %v.dbg.spill33, metadata !2302, metadata !DIExpression()), !dbg !2360
  %_170 = load i32, i32* %ek, align 4, !dbg !2325
  %_169 = icmp eq i32 %_170, 33, !dbg !2325
  br i1 %_169, label %bb67, label %bb68, !dbg !2325

bb65:                                             ; preds = %bb64
  store i8 32, i8* %1, align 1, !dbg !2359
  br label %bb83, !dbg !2325

bb68:                                             ; preds = %bb66
  store i32* %ek, i32** %v.dbg.spill34, align 8, !dbg !2325
  call void @llvm.dbg.declare(metadata i32** %v.dbg.spill34, metadata !2305, metadata !DIExpression()), !dbg !2361
  %_175 = load i32, i32* %ek, align 4, !dbg !2325
  %_174 = icmp eq i32 %_175, 34, !dbg !2325
  br i1 %_174, label %bb69, label %bb70, !dbg !2325

bb67:                                             ; preds = %bb66
  store i8 33, i8* %1, align 1, !dbg !2360
  br label %bb83, !dbg !2325

bb70:                                             ; preds = %bb68
  store i32* %ek, i32** %v.dbg.spill35, align 8, !dbg !2325
  call void @llvm.dbg.declare(metadata i32** %v.dbg.spill35, metadata !2308, metadata !DIExpression()), !dbg !2362
  %_180 = load i32, i32* %ek, align 4, !dbg !2325
  %_179 = icmp eq i32 %_180, 35, !dbg !2325
  br i1 %_179, label %bb71, label %bb72, !dbg !2325

bb69:                                             ; preds = %bb68
  store i8 34, i8* %1, align 1, !dbg !2361
  br label %bb83, !dbg !2325

bb72:                                             ; preds = %bb70
  store i32* %ek, i32** %v.dbg.spill36, align 8, !dbg !2325
  call void @llvm.dbg.declare(metadata i32** %v.dbg.spill36, metadata !2311, metadata !DIExpression()), !dbg !2363
  %_185 = load i32, i32* %ek, align 4, !dbg !2325
  %_184 = icmp eq i32 %_185, 39, !dbg !2325
  br i1 %_184, label %bb73, label %bb74, !dbg !2325

bb71:                                             ; preds = %bb70
  store i8 35, i8* %1, align 1, !dbg !2362
  br label %bb83, !dbg !2325

bb74:                                             ; preds = %bb72
  store i32* %ek, i32** %v.dbg.spill37, align 8, !dbg !2325
  call void @llvm.dbg.declare(metadata i32** %v.dbg.spill37, metadata !2314, metadata !DIExpression()), !dbg !2364
  %_190 = load i32, i32* %ek, align 4, !dbg !2325
  %_189 = icmp eq i32 %_190, 37, !dbg !2325
  br i1 %_189, label %bb75, label %bb76, !dbg !2325

bb73:                                             ; preds = %bb72
  store i8 39, i8* %1, align 1, !dbg !2363
  br label %bb83, !dbg !2325

bb76:                                             ; preds = %bb74
  store i32* %ek, i32** %v.dbg.spill38, align 8, !dbg !2325
  call void @llvm.dbg.declare(metadata i32** %v.dbg.spill38, metadata !2317, metadata !DIExpression()), !dbg !2365
  %_195 = load i32, i32* %ek, align 4, !dbg !2325
  %_194 = icmp eq i32 %_195, 36, !dbg !2325
  br i1 %_194, label %bb77, label %bb78, !dbg !2325

bb75:                                             ; preds = %bb74
  store i8 37, i8* %1, align 1, !dbg !2364
  br label %bb83, !dbg !2325

bb78:                                             ; preds = %bb76
  store i32* %ek, i32** %v.dbg.spill39, align 8, !dbg !2325
  call void @llvm.dbg.declare(metadata i32** %v.dbg.spill39, metadata !2320, metadata !DIExpression()), !dbg !2366
  %_200 = load i32, i32* %ek, align 4, !dbg !2325
  %_199 = icmp eq i32 %_200, 38, !dbg !2325
  br i1 %_199, label %bb79, label %bb80, !dbg !2325

bb77:                                             ; preds = %bb76
  store i8 36, i8* %1, align 1, !dbg !2365
  br label %bb83, !dbg !2325

bb80:                                             ; preds = %bb78
  store i32* %ek, i32** %v.dbg.spill40, align 8, !dbg !2325
  call void @llvm.dbg.declare(metadata i32** %v.dbg.spill40, metadata !2323, metadata !DIExpression()), !dbg !2367
  %_205 = load i32, i32* %ek, align 4, !dbg !2325
  %_204 = icmp eq i32 %_205, 40, !dbg !2325
  br i1 %_204, label %bb81, label %bb82, !dbg !2325

bb79:                                             ; preds = %bb78
  store i8 38, i8* %1, align 1, !dbg !2366
  br label %bb83, !dbg !2325

bb82:                                             ; preds = %bb80
  store i8 41, i8* %1, align 1, !dbg !2325
  br label %bb83, !dbg !2325

bb81:                                             ; preds = %bb80
  store i8 40, i8* %1, align 1, !dbg !2367
  br label %bb83, !dbg !2325
}

; std::io::error::repr_bitpacked::Repr::data::{{closure}}
; Function Attrs: inlinehint nonlazybind uwtable
define internal align 8 %"std::io::error::Custom"* @"_ZN3std2io5error14repr_bitpacked4Repr4data28_$u7b$$u7b$closure$u7d$$u7d$17h84939d74855cabc5E"(%"std::io::error::Custom"* %c) unnamed_addr #0 !dbg !2368 {
start:
  %c.dbg.spill = alloca %"std::io::error::Custom"*, align 8
  %_1.dbg.spill = alloca %"[closure@std::io::error::repr_bitpacked::Repr::data::{closure#0}]", align 1
  call void @llvm.dbg.declare(metadata %"[closure@std::io::error::repr_bitpacked::Repr::data::{closure#0}]"* %_1.dbg.spill, metadata !2373, metadata !DIExpression()), !dbg !2374
  store %"std::io::error::Custom"* %c, %"std::io::error::Custom"** %c.dbg.spill, align 8
  call void @llvm.dbg.declare(metadata %"std::io::error::Custom"** %c.dbg.spill, metadata !2372, metadata !DIExpression()), !dbg !2375
  ret %"std::io::error::Custom"* %c, !dbg !2376
}

; std::io::error::Error::kind
; Function Attrs: inlinehint nonlazybind uwtable
define internal i8 @_ZN3std2io5error5Error4kind17h574b1779eeb38e5aE(i8** align 8 %self) unnamed_addr #0 !dbg !2377 {
start:
  %code.dbg.spill = alloca i32, align 4
  %kind.dbg.spill = alloca i8, align 1
  %m.dbg.spill = alloca %"std::io::error::SimpleMessage"*, align 8
  %c.dbg.spill = alloca %"std::io::error::Custom"*, align 8
  %self.dbg.spill1 = alloca i8**, align 8
  %self.dbg.spill = alloca i8**, align 8
  %_2 = alloca %"std::io::error::ErrorData<&std::io::error::Custom>", align 8
  %0 = alloca i8, align 1
  store i8** %self, i8*** %self.dbg.spill, align 8
  call void @llvm.dbg.declare(metadata i8*** %self.dbg.spill, metadata !2381, metadata !DIExpression()), !dbg !2390
  store i8** %self, i8*** %self.dbg.spill1, align 8, !dbg !2391
  call void @llvm.dbg.declare(metadata i8*** %self.dbg.spill1, metadata !2392, metadata !DIExpression()), !dbg !2399
  %_10 = load i8*, i8** %self, align 8, !dbg !2399, !nonnull !28, !noundef !28
; call std::io::error::repr_bitpacked::decode_repr
  call void @_ZN3std2io5error14repr_bitpacked11decode_repr17h800f2b6fa66d9a8bE(%"std::io::error::ErrorData<&std::io::error::Custom>"* sret(%"std::io::error::ErrorData<&std::io::error::Custom>") %_2, i8* %_10), !dbg !2399
  br label %bb8, !dbg !2399

bb8:                                              ; preds = %start
  %1 = bitcast %"std::io::error::ErrorData<&std::io::error::Custom>"* %_2 to i8*, !dbg !2391
  %2 = load i8, i8* %1, align 8, !dbg !2391, !range !2400, !noundef !28
  %_4 = zext i8 %2 to i64, !dbg !2391
  switch i64 %_4, label %bb2 [
    i64 0, label %bb3
    i64 1, label %bb6
    i64 2, label %bb1
    i64 3, label %bb5
  ], !dbg !2401

bb2:                                              ; preds = %bb8
  unreachable, !dbg !2391

bb3:                                              ; preds = %bb8
  %3 = bitcast %"std::io::error::ErrorData<&std::io::error::Custom>"* %_2 to %"std::io::error::ErrorData<&std::io::error::Custom>::Os"*, !dbg !2402
  %4 = getelementptr inbounds %"std::io::error::ErrorData<&std::io::error::Custom>::Os", %"std::io::error::ErrorData<&std::io::error::Custom>::Os"* %3, i32 0, i32 1, !dbg !2402
  %code = load i32, i32* %4, align 4, !dbg !2402
  store i32 %code, i32* %code.dbg.spill, align 4, !dbg !2402
  call void @llvm.dbg.declare(metadata i32* %code.dbg.spill, metadata !2382, metadata !DIExpression()), !dbg !2403
; call std::sys::unix::decode_error_kind
  %5 = call i8 @_ZN3std3sys4unix17decode_error_kind17hddbacf084bae3705E(i32 %code), !dbg !2404, !range !1583
  store i8 %5, i8* %0, align 1, !dbg !2404
  br label %bb4, !dbg !2404

bb6:                                              ; preds = %bb8
  %6 = bitcast %"std::io::error::ErrorData<&std::io::error::Custom>"* %_2 to %"std::io::error::ErrorData<&std::io::error::Custom>::Simple"*, !dbg !2405
  %7 = getelementptr inbounds %"std::io::error::ErrorData<&std::io::error::Custom>::Simple", %"std::io::error::ErrorData<&std::io::error::Custom>::Simple"* %6, i32 0, i32 1, !dbg !2405
  %kind = load i8, i8* %7, align 1, !dbg !2405, !range !1583, !noundef !28
  store i8 %kind, i8* %kind.dbg.spill, align 1, !dbg !2405
  call void @llvm.dbg.declare(metadata i8* %kind.dbg.spill, metadata !2386, metadata !DIExpression()), !dbg !2406
  store i8 %kind, i8* %0, align 1, !dbg !2407
  br label %bb7, !dbg !2408

bb1:                                              ; preds = %bb8
  %8 = bitcast %"std::io::error::ErrorData<&std::io::error::Custom>"* %_2 to %"std::io::error::ErrorData<&std::io::error::Custom>::SimpleMessage"*, !dbg !2409
  %9 = getelementptr inbounds %"std::io::error::ErrorData<&std::io::error::Custom>::SimpleMessage", %"std::io::error::ErrorData<&std::io::error::Custom>::SimpleMessage"* %8, i32 0, i32 1, !dbg !2409
  %m = load %"std::io::error::SimpleMessage"*, %"std::io::error::SimpleMessage"** %9, align 8, !dbg !2409, !nonnull !28, !align !1582, !noundef !28
  store %"std::io::error::SimpleMessage"* %m, %"std::io::error::SimpleMessage"** %m.dbg.spill, align 8, !dbg !2409
  call void @llvm.dbg.declare(metadata %"std::io::error::SimpleMessage"** %m.dbg.spill, metadata !2388, metadata !DIExpression()), !dbg !2410
  %10 = getelementptr inbounds %"std::io::error::SimpleMessage", %"std::io::error::SimpleMessage"* %m, i32 0, i32 1, !dbg !2411
  %11 = load i8, i8* %10, align 8, !dbg !2411, !range !1583, !noundef !28
  store i8 %11, i8* %0, align 1, !dbg !2411
  br label %bb7, !dbg !2412

bb5:                                              ; preds = %bb8
  %12 = bitcast %"std::io::error::ErrorData<&std::io::error::Custom>"* %_2 to %"std::io::error::ErrorData<&std::io::error::Custom>::Custom"*, !dbg !2413
  %13 = getelementptr inbounds %"std::io::error::ErrorData<&std::io::error::Custom>::Custom", %"std::io::error::ErrorData<&std::io::error::Custom>::Custom"* %12, i32 0, i32 1, !dbg !2413
  %c = load %"std::io::error::Custom"*, %"std::io::error::Custom"** %13, align 8, !dbg !2413, !nonnull !28, !align !1582, !noundef !28
  store %"std::io::error::Custom"* %c, %"std::io::error::Custom"** %c.dbg.spill, align 8, !dbg !2413
  call void @llvm.dbg.declare(metadata %"std::io::error::Custom"** %c.dbg.spill, metadata !2384, metadata !DIExpression()), !dbg !2414
  %14 = getelementptr inbounds %"std::io::error::Custom", %"std::io::error::Custom"* %c, i32 0, i32 1, !dbg !2415
  %15 = load i8, i8* %14, align 8, !dbg !2415, !range !1583, !noundef !28
  store i8 %15, i8* %0, align 1, !dbg !2415
  br label %bb7, !dbg !2416

bb7:                                              ; preds = %bb4, %bb6, %bb1, %bb5
  %16 = load i8, i8* %0, align 1, !dbg !2417, !range !1583, !noundef !28
  ret i8 %16, !dbg !2417

bb4:                                              ; preds = %bb3
  br label %bb7, !dbg !2418
}

; std::rt::lang_start
; Function Attrs: nonlazybind uwtable
define hidden i64 @_ZN3std2rt10lang_start17ha4486b9f474a3cafE(void ()* %main, i64 %argc, i8** %argv) unnamed_addr #1 !dbg !2419 {
start:
  %v.dbg.spill = alloca i64, align 8
  %argv.dbg.spill = alloca i8**, align 8
  %argc.dbg.spill = alloca i64, align 8
  %main.dbg.spill = alloca void ()*, align 8
  %_8 = alloca i64*, align 8
  %_4 = alloca i64, align 8
  store void ()* %main, void ()** %main.dbg.spill, align 8
  call void @llvm.dbg.declare(metadata void ()** %main.dbg.spill, metadata !2425, metadata !DIExpression()), !dbg !2430
  store i64 %argc, i64* %argc.dbg.spill, align 8
  call void @llvm.dbg.declare(metadata i64* %argc.dbg.spill, metadata !2426, metadata !DIExpression()), !dbg !2431
  store i8** %argv, i8*** %argv.dbg.spill, align 8
  call void @llvm.dbg.declare(metadata i8*** %argv.dbg.spill, metadata !2427, metadata !DIExpression()), !dbg !2432
  %0 = bitcast i64** %_8 to void ()**, !dbg !2433
  store void ()* %main, void ()** %0, align 8, !dbg !2433
  %_5.0 = bitcast i64** %_8 to {}*, !dbg !2434
; call std::rt::lang_start_internal
  %1 = call i64 @_ZN3std2rt19lang_start_internal17h498f9556b87c8e5fE({}* align 1 %_5.0, [3 x i64]* align 8 bitcast (<{ i8*, [16 x i8], i8*, i8*, i8* }>* @vtable.1 to [3 x i64]*), i64 %argc, i8** %argv), !dbg !2435
  store i64 %1, i64* %_4, align 8, !dbg !2435
  br label %bb1, !dbg !2435

bb1:                                              ; preds = %start
  %v = load i64, i64* %_4, align 8, !dbg !2436
  store i64 %v, i64* %v.dbg.spill, align 8, !dbg !2436
  call void @llvm.dbg.declare(metadata i64* %v.dbg.spill, metadata !2428, metadata !DIExpression()), !dbg !2437
  ret i64 %v, !dbg !2438
}

; std::rt::lang_start::{{closure}}
; Function Attrs: inlinehint nonlazybind uwtable
define internal i32 @"_ZN3std2rt10lang_start28_$u7b$$u7b$closure$u7d$$u7d$17h4c71719825c42f40E"(i64** align 8 %_1) unnamed_addr #0 !dbg !2439 {
start:
  %self.dbg.spill = alloca i8*, align 8
  %_1.dbg.spill = alloca i64**, align 8
  %self = alloca i8, align 1
  store i64** %_1, i64*** %_1.dbg.spill, align 8
  %0 = load i64**, i64*** %_1.dbg.spill, align 8, !nonnull !28, !align !1582, !noundef !28
  %1 = bitcast i64** %0 to void ()**
  call void @llvm.dbg.declare(metadata i64*** %_1.dbg.spill, metadata !2444, metadata !DIExpression(DW_OP_deref)), !dbg !2445
  call void @llvm.dbg.declare(metadata i8* %self, metadata !2446, metadata !DIExpression()), !dbg !2462
  %2 = bitcast i64** %_1 to void ()**, !dbg !2464
  %_4 = load void ()*, void ()** %2, align 8, !dbg !2464, !nonnull !28, !noundef !28
; call std::sys_common::backtrace::__rust_begin_short_backtrace
  call void @_ZN3std10sys_common9backtrace28__rust_begin_short_backtrace17hd4e1b9f94012fb34E(void ()* %_4), !dbg !2463
  br label %bb1, !dbg !2463

bb1:                                              ; preds = %start
; call <() as std::process::Termination>::report
  %3 = call i8 @"_ZN54_$LT$$LP$$RP$$u20$as$u20$std..process..Termination$GT$6report17h72a4f00e2834b23cE"(), !dbg !2463
  store i8 %3, i8* %self, align 1, !dbg !2463
  br label %bb2, !dbg !2463

bb2:                                              ; preds = %bb1
  store i8* %self, i8** %self.dbg.spill, align 8, !dbg !2462
  call void @llvm.dbg.declare(metadata i8** %self.dbg.spill, metadata !2465, metadata !DIExpression()), !dbg !2473
  %_6 = load i8, i8* %self, align 1, !dbg !2473
  %4 = zext i8 %_6 to i32, !dbg !2473
  ret i32 %4, !dbg !2475
}

; std::panic::catch_unwind
; Function Attrs: nonlazybind uwtable
define internal { i8*, i8* } @_ZN3std5panic12catch_unwind17h04c1075fbce9ae98E(i64* align 8 %f) unnamed_addr #1 !dbg !2476 {
start:
  %f.dbg.spill = alloca i64*, align 8
  store i64* %f, i64** %f.dbg.spill, align 8
  call void @llvm.dbg.declare(metadata i64** %f.dbg.spill, metadata !2482, metadata !DIExpression()), !dbg !2485
; call std::panicking::try
  %0 = call { i8*, i8* } @_ZN3std9panicking3try17hb75f4d75ddcf1d32E(i64* align 8 %f), !dbg !2486
  %1 = extractvalue { i8*, i8* } %0, 0, !dbg !2486
  %2 = extractvalue { i8*, i8* } %0, 1, !dbg !2486
  br label %bb1, !dbg !2486

bb1:                                              ; preds = %start
  %3 = insertvalue { i8*, i8* } undef, i8* %1, 0, !dbg !2487
  %4 = insertvalue { i8*, i8* } %3, i8* %2, 1, !dbg !2487
  ret { i8*, i8* } %4, !dbg !2487
}

; std::panic::catch_unwind
; Function Attrs: nonlazybind uwtable
define internal { i8*, i8* } @_ZN3std5panic12catch_unwind17h9fda0cff44c6f11eE() unnamed_addr #1 !dbg !2488 {
start:
  %f.dbg.spill = alloca %"core::panic::unwind_safe::AssertUnwindSafe<[closure@std::thread::Builder::spawn_unchecked_<[closure@src/test_thread_locals.rs:56:27: 56:29], ()>::{closure#1}::{closure#0}]>", align 1
  call void @llvm.dbg.declare(metadata %"core::panic::unwind_safe::AssertUnwindSafe<[closure@std::thread::Builder::spawn_unchecked_<[closure@src/test_thread_locals.rs:56:27: 56:29], ()>::{closure#1}::{closure#0}]>"* %f.dbg.spill, metadata !2492, metadata !DIExpression()), !dbg !2495
; call std::panicking::try
  %0 = call { i8*, i8* } @_ZN3std9panicking3try17h9e0c96685ebd620cE(), !dbg !2496
  %1 = extractvalue { i8*, i8* } %0, 0, !dbg !2496
  %2 = extractvalue { i8*, i8* } %0, 1, !dbg !2496
  br label %bb1, !dbg !2496

bb1:                                              ; preds = %start
  %3 = insertvalue { i8*, i8* } undef, i8* %1, 0, !dbg !2497
  %4 = insertvalue { i8*, i8* } %3, i8* %2, 1, !dbg !2497
  ret { i8*, i8* } %4, !dbg !2497
}

; std::thread::JoinInner<T>::join
; Function Attrs: nonlazybind uwtable
define internal { i8*, i8* } @"_ZN3std6thread18JoinInner$LT$T$GT$4join17hdd7cbb72e863d55eE"(%"std::thread::JoinInner<()>"* %self) unnamed_addr #1 personality i32 (i32, i32, i64, %"unwind::libunwind::_Unwind_Exception"*, %"unwind::libunwind::_Unwind_Context"*)* @rust_eh_personality !dbg !2498 {
start:
  %self.dbg.spill4 = alloca %"core::option::Option<core::result::Result<(), alloc::boxed::Box<dyn core::any::Any + core::marker::Send>>>"*, align 8
  %self.dbg.spill = alloca %"core::cell::UnsafeCell<core::option::Option<core::result::Result<(), alloc::boxed::Box<dyn core::any::Any + core::marker::Send>>>>"*, align 8
  %val.dbg.spill = alloca %"std::thread::Packet<()>"*, align 8
  %0 = alloca { i8*, i32 }, align 8
  %_17 = alloca %"core::option::Option<core::result::Result<(), alloc::boxed::Box<dyn core::any::Any + core::marker::Send>>>", align 8
  %self2 = alloca i64*, align 8
  %self1 = alloca %"core::option::Option<core::result::Result<(), alloc::boxed::Box<dyn core::any::Any + core::marker::Send>>>", align 8
  call void @llvm.dbg.declare(metadata %"std::thread::JoinInner<()>"* %self, metadata !2512, metadata !DIExpression()), !dbg !2513
  call void @llvm.dbg.declare(metadata %"core::option::Option<core::result::Result<(), alloc::boxed::Box<dyn core::any::Any + core::marker::Send>>>"* %self1, metadata !2514, metadata !DIExpression()), !dbg !2523
  call void @llvm.dbg.declare(metadata i64** %self2, metadata !2525, metadata !DIExpression()), !dbg !2548
  %1 = bitcast %"std::thread::JoinInner<()>"* %self to i64*, !dbg !2549
  %_3 = load i64, i64* %1, align 8, !dbg !2549
; invoke std::sys::unix::thread::Thread::join
  invoke void @_ZN3std3sys4unix6thread6Thread4join17h201ff71bf1661c8eE(i64 %_3)
          to label %bb1 unwind label %cleanup, !dbg !2549

bb8:                                              ; preds = %cleanup
  %2 = getelementptr inbounds %"std::thread::JoinInner<()>", %"std::thread::JoinInner<()>"* %self, i32 0, i32 1, !dbg !2550
; invoke core::ptr::drop_in_place<std::thread::Thread>
  invoke void @"_ZN4core3ptr40drop_in_place$LT$std..thread..Thread$GT$17hcdbd1ced91711365E"(i64** %2) #18
          to label %bb7 unwind label %abort, !dbg !2550

cleanup:                                          ; preds = %bb9, %bb13, %bb11, %bb1, %start
  %3 = landingpad { i8*, i32 }
          cleanup
  %4 = extractvalue { i8*, i32 } %3, 0
  %5 = extractvalue { i8*, i32 } %3, 1
  %6 = getelementptr inbounds { i8*, i32 }, { i8*, i32 }* %0, i32 0, i32 0
  store i8* %4, i8** %6, align 8
  %7 = getelementptr inbounds { i8*, i32 }, { i8*, i32 }* %0, i32 0, i32 1
  store i32 %5, i32* %7, align 8
  br label %bb8

bb1:                                              ; preds = %start
  %_11 = getelementptr inbounds %"std::thread::JoinInner<()>", %"std::thread::JoinInner<()>"* %self, i32 0, i32 2, !dbg !2551
; invoke alloc::sync::Arc<T>::get_mut
  %8 = invoke align 8 i64* @"_ZN5alloc4sync12Arc$LT$T$GT$7get_mut17hdc8e2746c50a8bf4E"(i64** align 8 %_11)
          to label %bb2 unwind label %cleanup, !dbg !2524

bb2:                                              ; preds = %bb1
  store i64* %8, i64** %self2, align 8, !dbg !2524
  %9 = bitcast i64** %self2 to {}**, !dbg !2548
  %10 = load {}*, {}** %9, align 8, !dbg !2548
  %11 = icmp eq {}* %10, null, !dbg !2548
  %_12 = select i1 %11, i64 0, i64 1, !dbg !2548
  switch i64 %_12, label %bb10 [
    i64 0, label %bb9
    i64 1, label %bb11
  ], !dbg !2548

bb10:                                             ; preds = %bb2
  unreachable, !dbg !2548

bb9:                                              ; preds = %bb2
; invoke core::panicking::panic
  invoke void @_ZN4core9panicking5panic17hf5844c0338bd061cE([0 x i8]* align 1 bitcast (<{ [43 x i8] }>* @alloc638 to [0 x i8]*), i64 43, %"core::panic::location::Location"* align 8 bitcast (<{ i8*, [16 x i8] }>* @alloc637 to %"core::panic::location::Location"*)) #17
          to label %unreachable unwind label %cleanup, !dbg !2548

bb11:                                             ; preds = %bb2
  %12 = bitcast i64** %self2 to %"std::thread::Packet<()>"**, !dbg !2548
  %val = load %"std::thread::Packet<()>"*, %"std::thread::Packet<()>"** %12, align 8, !dbg !2548, !nonnull !28, !align !1582, !noundef !28
  store %"std::thread::Packet<()>"* %val, %"std::thread::Packet<()>"** %val.dbg.spill, align 8, !dbg !2548
  call void @llvm.dbg.declare(metadata %"std::thread::Packet<()>"** %val.dbg.spill, metadata !2545, metadata !DIExpression()), !dbg !2552
  %self3 = getelementptr inbounds %"std::thread::Packet<()>", %"std::thread::Packet<()>"* %val, i32 0, i32 2, !dbg !2524
  store %"core::cell::UnsafeCell<core::option::Option<core::result::Result<(), alloc::boxed::Box<dyn core::any::Any + core::marker::Send>>>>"* %self3, %"core::cell::UnsafeCell<core::option::Option<core::result::Result<(), alloc::boxed::Box<dyn core::any::Any + core::marker::Send>>>>"** %self.dbg.spill, align 8, !dbg !2524
  call void @llvm.dbg.declare(metadata %"core::cell::UnsafeCell<core::option::Option<core::result::Result<(), alloc::boxed::Box<dyn core::any::Any + core::marker::Send>>>>"** %self.dbg.spill, metadata !2553, metadata !DIExpression()), !dbg !2561
  %_15 = bitcast %"core::cell::UnsafeCell<core::option::Option<core::result::Result<(), alloc::boxed::Box<dyn core::any::Any + core::marker::Send>>>>"* %self3 to %"core::option::Option<core::result::Result<(), alloc::boxed::Box<dyn core::any::Any + core::marker::Send>>>"*, !dbg !2561
  store %"core::option::Option<core::result::Result<(), alloc::boxed::Box<dyn core::any::Any + core::marker::Send>>>"* %_15, %"core::option::Option<core::result::Result<(), alloc::boxed::Box<dyn core::any::Any + core::marker::Send>>>"** %self.dbg.spill4, align 8, !dbg !2524
  call void @llvm.dbg.declare(metadata %"core::option::Option<core::result::Result<(), alloc::boxed::Box<dyn core::any::Any + core::marker::Send>>>"** %self.dbg.spill4, metadata !2562, metadata !DIExpression()), !dbg !2568
  %13 = bitcast %"core::option::Option<core::result::Result<(), alloc::boxed::Box<dyn core::any::Any + core::marker::Send>>>"* %_17 to i64*, !dbg !2568
  store i64 0, i64* %13, align 8, !dbg !2568
; invoke core::mem::replace
  invoke void @_ZN4core3mem7replace17h14699bb539fb6811E(%"core::option::Option<core::result::Result<(), alloc::boxed::Box<dyn core::any::Any + core::marker::Send>>>"* sret(%"core::option::Option<core::result::Result<(), alloc::boxed::Box<dyn core::any::Any + core::marker::Send>>>") %self1, %"core::option::Option<core::result::Result<(), alloc::boxed::Box<dyn core::any::Any + core::marker::Send>>>"* align 8 %_15, %"core::option::Option<core::result::Result<(), alloc::boxed::Box<dyn core::any::Any + core::marker::Send>>>"* %_17)
          to label %bb12 unwind label %cleanup, !dbg !2568

bb12:                                             ; preds = %bb11
  %14 = bitcast %"core::option::Option<core::result::Result<(), alloc::boxed::Box<dyn core::any::Any + core::marker::Send>>>"* %self1 to i64*, !dbg !2523
  %_18 = load i64, i64* %14, align 8, !dbg !2523, !range !1578, !noundef !28
  switch i64 %_18, label %bb14 [
    i64 0, label %bb13
    i64 1, label %bb15
  ], !dbg !2523

bb14:                                             ; preds = %bb12
  unreachable, !dbg !2523

bb13:                                             ; preds = %bb12
; invoke core::panicking::panic
  invoke void @_ZN4core9panicking5panic17hf5844c0338bd061cE([0 x i8]* align 1 bitcast (<{ [43 x i8] }>* @alloc638 to [0 x i8]*), i64 43, %"core::panic::location::Location"* align 8 bitcast (<{ i8*, [16 x i8] }>* @alloc637 to %"core::panic::location::Location"*)) #17
          to label %unreachable unwind label %cleanup, !dbg !2523

bb15:                                             ; preds = %bb12
  %15 = bitcast %"core::option::Option<core::result::Result<(), alloc::boxed::Box<dyn core::any::Any + core::marker::Send>>>"* %self1 to %"core::option::Option<core::result::Result<(), alloc::boxed::Box<dyn core::any::Any + core::marker::Send>>>::Some"*, !dbg !2523
  %16 = getelementptr inbounds %"core::option::Option<core::result::Result<(), alloc::boxed::Box<dyn core::any::Any + core::marker::Send>>>::Some", %"core::option::Option<core::result::Result<(), alloc::boxed::Box<dyn core::any::Any + core::marker::Send>>>::Some"* %15, i32 0, i32 1, !dbg !2523
  %17 = getelementptr inbounds { i8*, i8* }, { i8*, i8* }* %16, i32 0, i32 0, !dbg !2523
  %18 = load i8*, i8** %17, align 8, !dbg !2523, !align !1104
  %19 = getelementptr inbounds { i8*, i8* }, { i8*, i8* }* %16, i32 0, i32 1, !dbg !2523
  %20 = load i8*, i8** %19, align 8, !dbg !2523
  %21 = getelementptr inbounds %"std::thread::JoinInner<()>", %"std::thread::JoinInner<()>"* %self, i32 0, i32 1, !dbg !2550
; invoke core::ptr::drop_in_place<std::thread::Thread>
  invoke void @"_ZN4core3ptr40drop_in_place$LT$std..thread..Thread$GT$17hcdbd1ced91711365E"(i64** %21)
          to label %bb6 unwind label %cleanup5, !dbg !2550

bb5:                                              ; preds = %cleanup5
  %22 = getelementptr inbounds %"std::thread::JoinInner<()>", %"std::thread::JoinInner<()>"* %self, i32 0, i32 2, !dbg !2550
; invoke core::ptr::drop_in_place<alloc::sync::Arc<std::thread::Packet<()>>>
  invoke void @"_ZN4core3ptr80drop_in_place$LT$alloc..sync..Arc$LT$std..thread..Packet$LT$$LP$$RP$$GT$$GT$$GT$17h17f22b0de9d218d1E"(i64** %22) #18
          to label %bb3 unwind label %abort, !dbg !2550

cleanup5:                                         ; preds = %bb15
  %23 = landingpad { i8*, i32 }
          cleanup
  %24 = extractvalue { i8*, i32 } %23, 0
  %25 = extractvalue { i8*, i32 } %23, 1
  %26 = getelementptr inbounds { i8*, i32 }, { i8*, i32 }* %0, i32 0, i32 0
  store i8* %24, i8** %26, align 8
  %27 = getelementptr inbounds { i8*, i32 }, { i8*, i32 }* %0, i32 0, i32 1
  store i32 %25, i32* %27, align 8
  br label %bb5

bb6:                                              ; preds = %bb15
  %28 = getelementptr inbounds %"std::thread::JoinInner<()>", %"std::thread::JoinInner<()>"* %self, i32 0, i32 2, !dbg !2550
; call core::ptr::drop_in_place<alloc::sync::Arc<std::thread::Packet<()>>>
  call void @"_ZN4core3ptr80drop_in_place$LT$alloc..sync..Arc$LT$std..thread..Packet$LT$$LP$$RP$$GT$$GT$$GT$17h17f22b0de9d218d1E"(i64** %28), !dbg !2550
  br label %bb4, !dbg !2550

abort:                                            ; preds = %bb7, %bb8, %bb5
  %29 = landingpad { i8*, i32 }
          cleanup, !dbg !2569
; call core::panicking::panic_no_unwind
  call void @_ZN4core9panicking15panic_no_unwind17h62f8113f44cbfcbfE() #19, !dbg !2569
  unreachable, !dbg !2569

bb3:                                              ; preds = %bb7, %bb5
  %30 = bitcast { i8*, i32 }* %0 to i8**, !dbg !2569
  %31 = load i8*, i8** %30, align 8, !dbg !2569
  %32 = getelementptr inbounds { i8*, i32 }, { i8*, i32 }* %0, i32 0, i32 1, !dbg !2569
  %33 = load i32, i32* %32, align 8, !dbg !2569
  %34 = insertvalue { i8*, i32 } undef, i8* %31, 0, !dbg !2569
  %35 = insertvalue { i8*, i32 } %34, i32 %33, 1, !dbg !2569
  resume { i8*, i32 } %35, !dbg !2569

bb4:                                              ; preds = %bb6
  %36 = insertvalue { i8*, i8* } undef, i8* %18, 0, !dbg !2570
  %37 = insertvalue { i8*, i8* } %36, i8* %20, 1, !dbg !2570
  ret { i8*, i8* } %37, !dbg !2570

unreachable:                                      ; preds = %bb9, %bb13
  unreachable

bb7:                                              ; preds = %bb8
  %38 = getelementptr inbounds %"std::thread::JoinInner<()>", %"std::thread::JoinInner<()>"* %self, i32 0, i32 2, !dbg !2550
; invoke core::ptr::drop_in_place<alloc::sync::Arc<std::thread::Packet<()>>>
  invoke void @"_ZN4core3ptr80drop_in_place$LT$alloc..sync..Arc$LT$std..thread..Packet$LT$$LP$$RP$$GT$$GT$$GT$17h17f22b0de9d218d1E"(i64** %38) #18
          to label %bb3 unwind label %abort, !dbg !2550
}

; std::thread::JoinHandle<T>::join
; Function Attrs: nonlazybind uwtable
define internal { i8*, i8* } @"_ZN3std6thread19JoinHandle$LT$T$GT$4join17hbc5dd9a419e25243E"(%"std::thread::JoinHandle<()>"* %self) unnamed_addr #1 !dbg !2571 {
start:
  %_2 = alloca %"std::thread::JoinInner<()>", align 8
  call void @llvm.dbg.declare(metadata %"std::thread::JoinHandle<()>"* %self, metadata !2578, metadata !DIExpression()), !dbg !2579
  %0 = bitcast %"std::thread::JoinHandle<()>"* %self to %"std::thread::JoinInner<()>"*, !dbg !2580
  %1 = bitcast %"std::thread::JoinInner<()>"* %_2 to i8*, !dbg !2580
  %2 = bitcast %"std::thread::JoinInner<()>"* %0 to i8*, !dbg !2580
  call void @llvm.memcpy.p0i8.p0i8.i64(i8* align 8 %1, i8* align 8 %2, i64 24, i1 false), !dbg !2580
; call std::thread::JoinInner<T>::join
  %3 = call { i8*, i8* } @"_ZN3std6thread18JoinInner$LT$T$GT$4join17hdd7cbb72e863d55eE"(%"std::thread::JoinInner<()>"* %_2), !dbg !2580
  %4 = extractvalue { i8*, i8* } %3, 0, !dbg !2580
  %5 = extractvalue { i8*, i8* } %3, 1, !dbg !2580
  br label %bb1, !dbg !2580

bb1:                                              ; preds = %start
  %6 = insertvalue { i8*, i8* } undef, i8* %4, 0, !dbg !2581
  %7 = insertvalue { i8*, i8* } %6, i8* %5, 1, !dbg !2581
  ret { i8*, i8* } %7, !dbg !2581
}

; std::thread::spawn
; Function Attrs: nonlazybind uwtable
define internal void @_ZN3std6thread5spawn17h8f686819298d3b21E(%"std::thread::JoinHandle<()>"* sret(%"std::thread::JoinHandle<()>") %0) unnamed_addr #1 personality i32 (i32, i32, i64, %"unwind::libunwind::_Unwind_Exception"*, %"unwind::libunwind::_Unwind_Context"*)* @rust_eh_personality !dbg !2582 {
start:
  %1 = alloca { i8*, i32 }, align 8
  %f.dbg.spill = alloca %"[closure@src/test_thread_locals.rs:56:27: 56:29]", align 1
  %_7 = alloca i8, align 1
  %_3 = alloca %"std::thread::Builder", align 8
  %_2 = alloca %"core::result::Result<std::thread::JoinHandle<()>, std::io::error::Error>", align 8
  call void @llvm.dbg.declare(metadata %"[closure@src/test_thread_locals.rs:56:27: 56:29]"* %f.dbg.spill, metadata !2586, metadata !DIExpression()), !dbg !2587
  store i8 1, i8* %_7, align 1, !dbg !2588
; invoke std::thread::Builder::new
  invoke void @_ZN3std6thread7Builder3new17hc4ba9c847646b468E(%"std::thread::Builder"* sret(%"std::thread::Builder") %_3)
          to label %bb1 unwind label %cleanup, !dbg !2588

bb6:                                              ; preds = %cleanup
  %2 = load i8, i8* %_7, align 1, !dbg !2589, !range !1099, !noundef !28
  %3 = trunc i8 %2 to i1, !dbg !2589
  br i1 %3, label %bb5, label %bb4, !dbg !2589

cleanup:                                          ; preds = %bb2, %bb1, %start
  %4 = landingpad { i8*, i32 }
          cleanup
  %5 = extractvalue { i8*, i32 } %4, 0
  %6 = extractvalue { i8*, i32 } %4, 1
  %7 = getelementptr inbounds { i8*, i32 }, { i8*, i32 }* %1, i32 0, i32 0
  store i8* %5, i8** %7, align 8
  %8 = getelementptr inbounds { i8*, i32 }, { i8*, i32 }* %1, i32 0, i32 1
  store i32 %6, i32* %8, align 8
  br label %bb6

bb1:                                              ; preds = %start
  store i8 0, i8* %_7, align 1, !dbg !2590
; invoke std::thread::Builder::spawn
  invoke void @_ZN3std6thread7Builder5spawn17hb090a562fb64540fE(%"core::result::Result<std::thread::JoinHandle<()>, std::io::error::Error>"* sret(%"core::result::Result<std::thread::JoinHandle<()>, std::io::error::Error>") %_2, %"std::thread::Builder"* %_3)
          to label %bb2 unwind label %cleanup, !dbg !2588

bb2:                                              ; preds = %bb1
; invoke core::result::Result<T,E>::expect
  invoke void @"_ZN4core6result19Result$LT$T$C$E$GT$6expect17h10badbd86b4aadf6E"(%"std::thread::JoinHandle<()>"* sret(%"std::thread::JoinHandle<()>") %0, %"core::result::Result<std::thread::JoinHandle<()>, std::io::error::Error>"* %_2, [0 x i8]* align 1 bitcast (<{ [22 x i8] }>* @alloc639 to [0 x i8]*), i64 22, %"core::panic::location::Location"* align 8 bitcast (<{ i8*, [16 x i8] }>* @alloc641 to %"core::panic::location::Location"*))
          to label %bb3 unwind label %cleanup, !dbg !2588

bb3:                                              ; preds = %bb2
  ret void, !dbg !2591

bb4:                                              ; preds = %bb5, %bb6
  %9 = bitcast { i8*, i32 }* %1 to i8**, !dbg !2592
  %10 = load i8*, i8** %9, align 8, !dbg !2592
  %11 = getelementptr inbounds { i8*, i32 }, { i8*, i32 }* %1, i32 0, i32 1, !dbg !2592
  %12 = load i32, i32* %11, align 8, !dbg !2592
  %13 = insertvalue { i8*, i32 } undef, i8* %10, 0, !dbg !2592
  %14 = insertvalue { i8*, i32 } %13, i32 %12, 1, !dbg !2592
  resume { i8*, i32 } %14, !dbg !2592

bb5:                                              ; preds = %bb6
  br label %bb4, !dbg !2589
}

; std::thread::Builder::spawn_unchecked
; Function Attrs: nonlazybind uwtable
define internal void @_ZN3std6thread7Builder15spawn_unchecked17h68509192edd45b03E(%"core::result::Result<std::thread::JoinHandle<()>, std::io::error::Error>"* sret(%"core::result::Result<std::thread::JoinHandle<()>, std::io::error::Error>") %0, %"std::thread::Builder"* %self) unnamed_addr #1 !dbg !2593 {
start:
  %e.dbg.spill4 = alloca i8*, align 8
  %residual.dbg.spill = alloca i8*, align 8
  %e.dbg.spill = alloca i8*, align 8
  %f.dbg.spill = alloca %"[closure@src/test_thread_locals.rs:56:27: 56:29]", align 1
  %_18 = alloca i8*, align 8
  %_16 = alloca %"std::thread::JoinInner<()>", align 8
  %v = alloca %"std::thread::JoinInner<()>", align 8
  %val = alloca %"std::thread::JoinInner<()>", align 8
  %residual = alloca i8*, align 8
  %_9 = alloca i64*, align 8
  %_7 = alloca %"std::thread::Builder", align 8
  %self1 = alloca %"core::result::Result<std::thread::JoinInner<()>, std::io::error::Error>", align 8
  %_5 = alloca %"core::ops::control_flow::ControlFlow<core::result::Result<core::convert::Infallible, std::io::error::Error>, std::thread::JoinInner<()>>", align 8
  %_4 = alloca %"std::thread::JoinInner<()>", align 8
  %_3 = alloca %"std::thread::JoinHandle<()>", align 8
  call void @llvm.dbg.declare(metadata %"std::thread::Builder"* %self, metadata !2633, metadata !DIExpression()), !dbg !2657
  call void @llvm.dbg.declare(metadata %"[closure@src/test_thread_locals.rs:56:27: 56:29]"* %f.dbg.spill, metadata !2634, metadata !DIExpression()), !dbg !2658
  call void @llvm.dbg.declare(metadata %"core::result::Result<std::thread::JoinInner<()>, std::io::error::Error>"* %self1, metadata !2659, metadata !DIExpression()), !dbg !2704
  call void @llvm.dbg.declare(metadata i8** %residual, metadata !2706, metadata !DIExpression()), !dbg !2718
  call void @llvm.dbg.declare(metadata %"std::thread::JoinInner<()>"* %val, metadata !2655, metadata !DIExpression()), !dbg !2720
  call void @llvm.dbg.declare(metadata %"std::thread::JoinInner<()>"* %v, metadata !2698, metadata !DIExpression()), !dbg !2721
  %1 = bitcast %"std::thread::Builder"* %_7 to i8*, !dbg !2722
  %2 = bitcast %"std::thread::Builder"* %self to i8*, !dbg !2722
  call void @llvm.memcpy.p0i8.p0i8.i64(i8* align 8 %1, i8* align 8 %2, i64 40, i1 false), !dbg !2722
  %3 = bitcast i64** %_9 to {}**, !dbg !2723
  store {}* null, {}** %3, align 8, !dbg !2723
  %4 = load i64*, i64** %_9, align 8, !dbg !2722
; call std::thread::Builder::spawn_unchecked_
  call void @_ZN3std6thread7Builder16spawn_unchecked_17hab5aa20ef4d93507E(%"core::result::Result<std::thread::JoinInner<()>, std::io::error::Error>"* sret(%"core::result::Result<std::thread::JoinInner<()>, std::io::error::Error>") %self1, %"std::thread::Builder"* %_7, i64* %4), !dbg !2722
  br label %bb1, !dbg !2722

bb1:                                              ; preds = %start
  %5 = bitcast %"core::result::Result<std::thread::JoinInner<()>, std::io::error::Error>"* %self1 to i64*, !dbg !2704
  %_14 = load i64, i64* %5, align 8, !dbg !2704, !range !1578, !noundef !28
  switch i64 %_14, label %bb8 [
    i64 0, label %bb9
    i64 1, label %bb7
  ], !dbg !2704

bb8:                                              ; preds = %bb1
  unreachable, !dbg !2704

bb9:                                              ; preds = %bb1
  %6 = bitcast %"core::result::Result<std::thread::JoinInner<()>, std::io::error::Error>"* %self1 to %"core::result::Result<std::thread::JoinInner<()>, std::io::error::Error>::Ok"*, !dbg !2704
  %7 = getelementptr inbounds %"core::result::Result<std::thread::JoinInner<()>, std::io::error::Error>::Ok", %"core::result::Result<std::thread::JoinInner<()>, std::io::error::Error>::Ok"* %6, i32 0, i32 1, !dbg !2704
  %8 = bitcast %"std::thread::JoinInner<()>"* %v to i8*, !dbg !2704
  %9 = bitcast %"std::thread::JoinInner<()>"* %7 to i8*, !dbg !2704
  call void @llvm.memcpy.p0i8.p0i8.i64(i8* align 8 %8, i8* align 8 %9, i64 24, i1 false), !dbg !2704
  %10 = bitcast %"std::thread::JoinInner<()>"* %_16 to i8*, !dbg !2721
  %11 = bitcast %"std::thread::JoinInner<()>"* %v to i8*, !dbg !2721
  call void @llvm.memcpy.p0i8.p0i8.i64(i8* align 8 %10, i8* align 8 %11, i64 24, i1 false), !dbg !2721
  %12 = bitcast %"core::ops::control_flow::ControlFlow<core::result::Result<core::convert::Infallible, std::io::error::Error>, std::thread::JoinInner<()>>"* %_5 to %"core::ops::control_flow::ControlFlow<core::result::Result<core::convert::Infallible, std::io::error::Error>, std::thread::JoinInner<()>>::Continue"*, !dbg !2721
  %13 = getelementptr inbounds %"core::ops::control_flow::ControlFlow<core::result::Result<core::convert::Infallible, std::io::error::Error>, std::thread::JoinInner<()>>::Continue", %"core::ops::control_flow::ControlFlow<core::result::Result<core::convert::Infallible, std::io::error::Error>, std::thread::JoinInner<()>>::Continue"* %12, i32 0, i32 1, !dbg !2721
  %14 = bitcast %"std::thread::JoinInner<()>"* %13 to i8*, !dbg !2721
  %15 = bitcast %"std::thread::JoinInner<()>"* %_16 to i8*, !dbg !2721
  call void @llvm.memcpy.p0i8.p0i8.i64(i8* align 8 %14, i8* align 8 %15, i64 24, i1 false), !dbg !2721
  %16 = bitcast %"core::ops::control_flow::ControlFlow<core::result::Result<core::convert::Infallible, std::io::error::Error>, std::thread::JoinInner<()>>"* %_5 to i64*, !dbg !2721
  store i64 0, i64* %16, align 8, !dbg !2721
  br label %bb2, !dbg !2704

bb7:                                              ; preds = %bb1
  %17 = bitcast %"core::result::Result<std::thread::JoinInner<()>, std::io::error::Error>"* %self1 to %"core::result::Result<std::thread::JoinInner<()>, std::io::error::Error>::Err"*, !dbg !2704
  %18 = getelementptr inbounds %"core::result::Result<std::thread::JoinInner<()>, std::io::error::Error>::Err", %"core::result::Result<std::thread::JoinInner<()>, std::io::error::Error>::Err"* %17, i32 0, i32 1, !dbg !2704
  %e = load i8*, i8** %18, align 8, !dbg !2704, !nonnull !28, !noundef !28
  store i8* %e, i8** %e.dbg.spill, align 8, !dbg !2704
  call void @llvm.dbg.declare(metadata i8** %e.dbg.spill, metadata !2701, metadata !DIExpression()), !dbg !2724
  store i8* %e, i8** %_18, align 8, !dbg !2724
  %19 = bitcast %"core::ops::control_flow::ControlFlow<core::result::Result<core::convert::Infallible, std::io::error::Error>, std::thread::JoinInner<()>>"* %_5 to %"core::ops::control_flow::ControlFlow<core::result::Result<core::convert::Infallible, std::io::error::Error>, std::thread::JoinInner<()>>::Break"*, !dbg !2724
  %20 = getelementptr inbounds %"core::ops::control_flow::ControlFlow<core::result::Result<core::convert::Infallible, std::io::error::Error>, std::thread::JoinInner<()>>::Break", %"core::ops::control_flow::ControlFlow<core::result::Result<core::convert::Infallible, std::io::error::Error>, std::thread::JoinInner<()>>::Break"* %19, i32 0, i32 1, !dbg !2724
  %21 = load i8*, i8** %_18, align 8, !dbg !2724, !nonnull !28, !noundef !28
  store i8* %21, i8** %20, align 8, !dbg !2724
  %22 = bitcast %"core::ops::control_flow::ControlFlow<core::result::Result<core::convert::Infallible, std::io::error::Error>, std::thread::JoinInner<()>>"* %_5 to i64*, !dbg !2724
  store i64 1, i64* %22, align 8, !dbg !2724
  br label %bb2, !dbg !2704

bb2:                                              ; preds = %bb9, %bb7
  %23 = bitcast %"core::ops::control_flow::ControlFlow<core::result::Result<core::convert::Infallible, std::io::error::Error>, std::thread::JoinInner<()>>"* %_5 to i64*, !dbg !2705
  %_10 = load i64, i64* %23, align 8, !dbg !2705, !range !1578, !noundef !28
  switch i64 %_10, label %bb4 [
    i64 0, label %bb3
    i64 1, label %bb5
  ], !dbg !2705

bb4:                                              ; preds = %bb2
  unreachable, !dbg !2705

bb3:                                              ; preds = %bb2
  %24 = bitcast %"core::ops::control_flow::ControlFlow<core::result::Result<core::convert::Infallible, std::io::error::Error>, std::thread::JoinInner<()>>"* %_5 to %"core::ops::control_flow::ControlFlow<core::result::Result<core::convert::Infallible, std::io::error::Error>, std::thread::JoinInner<()>>::Continue"*, !dbg !2705
  %25 = getelementptr inbounds %"core::ops::control_flow::ControlFlow<core::result::Result<core::convert::Infallible, std::io::error::Error>, std::thread::JoinInner<()>>::Continue", %"core::ops::control_flow::ControlFlow<core::result::Result<core::convert::Infallible, std::io::error::Error>, std::thread::JoinInner<()>>::Continue"* %24, i32 0, i32 1, !dbg !2705
  %26 = bitcast %"std::thread::JoinInner<()>"* %val to i8*, !dbg !2705
  %27 = bitcast %"std::thread::JoinInner<()>"* %25 to i8*, !dbg !2705
  call void @llvm.memcpy.p0i8.p0i8.i64(i8* align 8 %26, i8* align 8 %27, i64 24, i1 false), !dbg !2705
  %28 = bitcast %"std::thread::JoinInner<()>"* %_4 to i8*, !dbg !2720
  %29 = bitcast %"std::thread::JoinInner<()>"* %val to i8*, !dbg !2720
  call void @llvm.memcpy.p0i8.p0i8.i64(i8* align 8 %28, i8* align 8 %29, i64 24, i1 false), !dbg !2720
  %30 = bitcast %"std::thread::JoinHandle<()>"* %_3 to %"std::thread::JoinInner<()>"*, !dbg !2725
  %31 = bitcast %"std::thread::JoinInner<()>"* %30 to i8*, !dbg !2725
  %32 = bitcast %"std::thread::JoinInner<()>"* %_4 to i8*, !dbg !2725
  call void @llvm.memcpy.p0i8.p0i8.i64(i8* align 8 %31, i8* align 8 %32, i64 24, i1 false), !dbg !2725
  %33 = bitcast %"core::result::Result<std::thread::JoinHandle<()>, std::io::error::Error>"* %0 to %"core::result::Result<std::thread::JoinHandle<()>, std::io::error::Error>::Ok"*, !dbg !2726
  %34 = getelementptr inbounds %"core::result::Result<std::thread::JoinHandle<()>, std::io::error::Error>::Ok", %"core::result::Result<std::thread::JoinHandle<()>, std::io::error::Error>::Ok"* %33, i32 0, i32 1, !dbg !2726
  %35 = bitcast %"std::thread::JoinHandle<()>"* %34 to i8*, !dbg !2726
  %36 = bitcast %"std::thread::JoinHandle<()>"* %_3 to i8*, !dbg !2726
  call void @llvm.memcpy.p0i8.p0i8.i64(i8* align 8 %35, i8* align 8 %36, i64 24, i1 false), !dbg !2726
  %37 = bitcast %"core::result::Result<std::thread::JoinHandle<()>, std::io::error::Error>"* %0 to i64*, !dbg !2726
  store i64 0, i64* %37, align 8, !dbg !2726
  br label %bb6, !dbg !2727

bb5:                                              ; preds = %bb2
  %38 = bitcast %"core::ops::control_flow::ControlFlow<core::result::Result<core::convert::Infallible, std::io::error::Error>, std::thread::JoinInner<()>>"* %_5 to %"core::ops::control_flow::ControlFlow<core::result::Result<core::convert::Infallible, std::io::error::Error>, std::thread::JoinInner<()>>::Break"*, !dbg !2728
  %39 = getelementptr inbounds %"core::ops::control_flow::ControlFlow<core::result::Result<core::convert::Infallible, std::io::error::Error>, std::thread::JoinInner<()>>::Break", %"core::ops::control_flow::ControlFlow<core::result::Result<core::convert::Infallible, std::io::error::Error>, std::thread::JoinInner<()>>::Break"* %38, i32 0, i32 1, !dbg !2728
  %residual2 = load i8*, i8** %39, align 8, !dbg !2728, !nonnull !28, !noundef !28
  store i8* %residual2, i8** %residual.dbg.spill, align 8, !dbg !2728
  call void @llvm.dbg.declare(metadata i8** %residual.dbg.spill, metadata !2635, metadata !DIExpression()), !dbg !2729
  store i8* %residual2, i8** %residual, align 8, !dbg !2729
  %e3 = load i8*, i8** %residual, align 8, !dbg !2718, !nonnull !28, !noundef !28
  store i8* %e3, i8** %e.dbg.spill4, align 8, !dbg !2718
  call void @llvm.dbg.declare(metadata i8** %e.dbg.spill4, metadata !2713, metadata !DIExpression()), !dbg !2730
; call <T as core::convert::From<T>>::from
  %_21 = call i8* @"_ZN50_$LT$T$u20$as$u20$core..convert..From$LT$T$GT$$GT$4from17hc0915e6582d29decE"(i8* %e3), !dbg !2730
  br label %bb10, !dbg !2730

bb10:                                             ; preds = %bb5
  %40 = bitcast %"core::result::Result<std::thread::JoinHandle<()>, std::io::error::Error>"* %0 to %"core::result::Result<std::thread::JoinHandle<()>, std::io::error::Error>::Err"*, !dbg !2730
  %41 = getelementptr inbounds %"core::result::Result<std::thread::JoinHandle<()>, std::io::error::Error>::Err", %"core::result::Result<std::thread::JoinHandle<()>, std::io::error::Error>::Err"* %40, i32 0, i32 1, !dbg !2730
  store i8* %_21, i8** %41, align 8, !dbg !2730
  %42 = bitcast %"core::result::Result<std::thread::JoinHandle<()>, std::io::error::Error>"* %0 to i64*, !dbg !2730
  store i64 1, i64* %42, align 8, !dbg !2730
  br label %bb6, !dbg !2727

bb6:                                              ; preds = %bb3, %bb10
  ret void, !dbg !2731
}

; std::thread::Builder::spawn_unchecked_
; Function Attrs: nonlazybind uwtable
define internal void @_ZN3std6thread7Builder16spawn_unchecked_17hab5aa20ef4d93507E(%"core::result::Result<std::thread::JoinInner<()>, std::io::error::Error>"* sret(%"core::result::Result<std::thread::JoinInner<()>, std::io::error::Error>") %0, %"std::thread::Builder"* %self, i64* %1) unnamed_addr #1 personality i32 (i32, i32, i64, %"unwind::libunwind::_Unwind_Exception"*, %"unwind::libunwind::_Unwind_Context"*)* @rust_eh_personality !dbg !2732 {
start:
  %val.dbg.spill = alloca i64, align 8
  %e.dbg.spill27 = alloca i8*, align 8
  %residual.dbg.spill = alloca i8*, align 8
  %v.dbg.spill = alloca i64, align 8
  %e.dbg.spill = alloca i8*, align 8
  %2 = alloca { {}*, [3 x i64]* }, align 8
  %self.dbg.spill22 = alloca i64*, align 8
  %self.dbg.spill20 = alloca i64**, align 8
  %self.dbg.spill19 = alloca i64**, align 8
  %self.dbg.spill18 = alloca i64**, align 8
  %scope_data.dbg.spill = alloca i64**, align 8
  %self.dbg.spill17 = alloca i64*, align 8
  %self.dbg.spill15 = alloca i64**, align 8
  %self.dbg.spill14 = alloca i64**, align 8
  %self.dbg.spill13 = alloca i64**, align 8
  %x.dbg.spill11 = alloca i64**, align 8
  %self.dbg.spill10 = alloca i64**, align 8
  %self.dbg.spill5 = alloca i64**, align 8
  %self.dbg.spill = alloca i64**, align 8
  %3 = alloca { i8*, i32 }, align 8
  %x.dbg.spill = alloca i64, align 8
  %stack_size.dbg.spill = alloca { i64, i64 }, align 8
  %f.dbg.spill3 = alloca {}, align 1
  %f.dbg.spill = alloca %"[closure@src/test_thread_locals.rs:56:27: 56:29]", align 1
  %_95 = alloca i8*, align 8
  %_70 = alloca %"core::option::Option<core::result::Result<(), alloc::boxed::Box<dyn core::any::Any + core::marker::Send>>>", align 8
  %_64 = alloca i64*, align 8
  %_58 = alloca i8, align 1
  %_57 = alloca i8, align 1
  %_56 = alloca i8, align 1
  %_55 = alloca i8, align 1
  %_54 = alloca i8, align 1
  %_53 = alloca i8, align 1
  %_52 = alloca i8, align 1
  %residual = alloca i8*, align 8
  %x = alloca %"[closure@std::thread::Builder::spawn_unchecked_<[closure@src/test_thread_locals.rs:56:27: 56:29], ()>::{closure#1}]", align 8
  %self2 = alloca %"core::result::Result<std::sys::unix::thread::Thread, std::io::error::Error>", align 8
  %_38 = alloca %"core::ops::control_flow::ControlFlow<core::result::Result<core::convert::Infallible, std::io::error::Error>, std::sys::unix::thread::Thread>", align 8
  %_36 = alloca %"std::thread::JoinInner<()>", align 8
  %main = alloca %"[closure@std::thread::Builder::spawn_unchecked_<[closure@src/test_thread_locals.rs:56:27: 56:29], ()>::{closure#1}]", align 8
  %_24 = alloca i64*, align 8
  %_23 = alloca i64*, align 8
  %_22 = alloca i64*, align 8
  %output_capture = alloca i64*, align 8
  %their_packet = alloca i64*, align 8
  %value = alloca %"core::option::Option<core::result::Result<(), alloc::boxed::Box<dyn core::any::Any + core::marker::Send>>>", align 8
  %_17 = alloca %"core::cell::UnsafeCell<core::option::Option<core::result::Result<(), alloc::boxed::Box<dyn core::any::Any + core::marker::Send>>>>", align 8
  %_15 = alloca %"std::thread::Packet<()>", align 8
  %my_packet = alloca i64*, align 8
  %their_thread = alloca i64*, align 8
  %_10 = alloca %"core::option::Option<alloc::string::String>", align 8
  %my_thread = alloca i64*, align 8
  %self1 = alloca { i64, i64 }, align 8
  %stack_size = alloca i64, align 8
  %name = alloca %"core::option::Option<alloc::string::String>", align 8
  %scope_data = alloca i64*, align 8
  store i64* %1, i64** %scope_data, align 8
  call void @llvm.dbg.declare(metadata %"std::thread::Builder"* %self, metadata !2736, metadata !DIExpression()), !dbg !2763
  call void @llvm.dbg.declare(metadata %"[closure@src/test_thread_locals.rs:56:27: 56:29]"* %f.dbg.spill, metadata !2737, metadata !DIExpression()), !dbg !2764
  call void @llvm.dbg.declare(metadata i64** %scope_data, metadata !2738, metadata !DIExpression()), !dbg !2765
  call void @llvm.dbg.declare(metadata %"core::option::Option<alloc::string::String>"* %name, metadata !2739, metadata !DIExpression()), !dbg !2766
  call void @llvm.dbg.declare(metadata i64* %stack_size, metadata !2742, metadata !DIExpression()), !dbg !2767
  call void @llvm.dbg.declare(metadata { i64, i64 }* %self1, metadata !2768, metadata !DIExpression()), !dbg !2783
  call void @llvm.dbg.declare(metadata i64** %my_thread, metadata !2744, metadata !DIExpression()), !dbg !2785
  call void @llvm.dbg.declare(metadata i64** %their_thread, metadata !2746, metadata !DIExpression()), !dbg !2786
  call void @llvm.dbg.declare(metadata i64** %my_packet, metadata !2748, metadata !DIExpression()), !dbg !2787
  call void @llvm.dbg.declare(metadata %"core::option::Option<core::result::Result<(), alloc::boxed::Box<dyn core::any::Any + core::marker::Send>>>"* %value, metadata !2788, metadata !DIExpression()), !dbg !2794
  call void @llvm.dbg.declare(metadata i64** %their_packet, metadata !2750, metadata !DIExpression()), !dbg !2796
  call void @llvm.dbg.declare(metadata i64** %output_capture, metadata !2752, metadata !DIExpression()), !dbg !2797
  call void @llvm.dbg.declare(metadata %"[closure@std::thread::Builder::spawn_unchecked_<[closure@src/test_thread_locals.rs:56:27: 56:29], ()>::{closure#1}]"* %main, metadata !2754, metadata !DIExpression()), !dbg !2798
  call void @llvm.dbg.declare(metadata %"core::result::Result<std::sys::unix::thread::Thread, std::io::error::Error>"* %self2, metadata !2799, metadata !DIExpression()), !dbg !2841
  call void @llvm.dbg.declare(metadata %"[closure@std::thread::Builder::spawn_unchecked_<[closure@src/test_thread_locals.rs:56:27: 56:29], ()>::{closure#1}]"* %x, metadata !2843, metadata !DIExpression()), !dbg !2855
  call void @llvm.dbg.declare(metadata i8** %residual, metadata !2857, metadata !DIExpression()), !dbg !2867
  call void @llvm.dbg.declare(metadata {}* %f.dbg.spill3, metadata !2777, metadata !DIExpression()), !dbg !2783
  store i8 1, i8* %_58, align 1, !dbg !2869
  store i8 1, i8* %_57, align 1, !dbg !2869
  store i8 1, i8* %_56, align 1, !dbg !2869
  %4 = bitcast %"std::thread::Builder"* %self to %"core::option::Option<alloc::string::String>"*, !dbg !2869
